(lp0
(iSong
Song
p1
(dp2
S'attributes'
p3
(dp4
S'accousticness'
p5
F0.000545
sS'title'
p6
VI'm Glad Trouble Don't Last Always
p7
sS'tempo'
p8
F81.969
sS'energy'
p9
F0.522
sS'from_playlist'
p10
S'blues'
p11
sS'speechiness'
p12
F0.0232
sS'artist_name'
p13
VLuke Winslow-King
p14
sS'cluster_id'
p15
I9999
sS'danceability'
p16
F0.579
sS'end_of_fade_in'
p17
NsS'loudness'
p18
F0.00811
sS'duration'
p19
NsS'artist_familiarity'
p20
NsS'valence'
p21
F0.286
sS'start_of_fade_out'
p22
NsS'artist_hotness'
p23
NsS'instrumentalness'
p24
F-7.124
ssS'hasData'
p25
I01
sba(iSong
Song
p26
(dp27
g3
(dp28
g5
F0.228
sg6
VThousand Mile Night
p29
sg8
F140.652
sg9
F0.35
sg10
S'blues'
p30
sg12
F0.0471
sg13
VJonah Tolchin
p31
sg15
I9999
sg16
F0.584
sg17
Nsg18
F0.0719
sg19
Nsg20
Nsg21
F0.498
sg22
Nsg23
Nsg24
F-13.942
ssg25
I01
sba(iSong
Song
p32
(dp33
g3
(dp34
g5
F0.0234
sg6
VNo Good
p35
sg8
F108.525
sg9
F0.925
sg10
S'blues'
p36
sg12
F0.185
sg13
VKaleo
p37
sg15
I9999
sg16
F0.378
sg17
Nsg18
F0.00062
sg19
Nsg20
Nsg21
F0.584
sg22
Nsg23
Nsg24
F-3.781
ssg25
I01
sba(iSong
Song
p38
(dp39
g3
(dp40
g5
F0.351
sg6
VOn Our Own
p41
sg8
F104.755
sg9
F0.504
sg10
S'blues'
p42
sg12
F0.0267
sg13
VThe Suitcase Junket
p43
sg15
I9999
sg16
F0.509
sg17
Nsg18
F0.15
sg19
Nsg20
Nsg21
F0.327
sg22
Nsg23
Nsg24
F-6.789
ssg25
I01
sba(iSong
Song
p44
(dp45
g3
(dp46
g5
F0.383
sg6
VBad Things
p47
sg8
F80.806
sg9
F0.586
sg10
S'blues'
p48
sg12
F0.0375
sg13
VRayland Baxter
p49
sg15
I9999
sg16
F0.318
sg17
Nsg18
I0
sg19
Nsg20
Nsg21
F0.211
sg22
Nsg23
Nsg24
F-7.606
ssg25
I01
sba(iSong
Song
p50
(dp51
g3
(dp52
g5
F0.0286
sg6
VBottle Rocket
p53
sg8
F92.046
sg9
F0.634
sg10
S'blues'
p54
sg12
F0.0522
sg13
VThe Weeks
p55
sg15
I9999
sg16
F0.679
sg17
Nsg18
I0
sg19
Nsg20
Nsg21
F0.642
sg22
Nsg23
Nsg24
F-3.305
ssg25
I01
sba(iSong
Song
p56
(dp57
g3
(dp58
g5
F0.285
sg6
VIt Came to Me
p59
sg8
F117.097
sg9
F0.931
sg10
S'blues'
p60
sg12
F0.0388
sg13
VThe Barr Brothers
p61
sg15
I9999
sg16
F0.516
sg17
Nsg18
F0.013
sg19
Nsg20
Nsg21
F0.578
sg22
Nsg23
Nsg24
F-6.291
ssg25
I01
sba(iSong
Song
p62
(dp63
g3
(dp64
g5
F0.0245
sg6
VHades Pleads
p65
sg8
F164.823
sg9
F0.632
sg10
S'blues'
p66
sg12
F0.161
sg13
VParker Millsap
p67
sg15
I9999
sg16
F0.568
sg17
Nsg18
F0.000246
sg19
Nsg20
Nsg21
F0.711
sg22
Nsg23
Nsg24
F-6.958
ssg25
I01
sba(iSong
Song
p68
(dp69
g3
(dp70
g5
F0.479
sg6
VWhite House Road - OurVinyl Sessions
p71
sg8
F79.93
sg9
F0.41
sg10
S'blues'
p72
sg12
F0.0396
sg13
VTyler Childers
p73
sg15
I9999
sg16
F0.406
sg17
Nsg18
I0
sg19
Nsg20
Nsg21
F0.368
sg22
Nsg23
Nsg24
F-8.65
ssg25
I01
sba(iSong
Song
p74
(dp75
g3
(dp76
g5
F0.112
sg6
VSallisaw Blue
p77
sg8
F150.77
sg9
F0.866
sg10
S'blues'
p78
sg12
F0.0691
sg13
VJohn Moreland
p79
sg15
I9999
sg16
F0.395
sg17
Nsg18
F9.85e-06
sg19
Nsg20
Nsg21
F0.836
sg22
Nsg23
Nsg24
F-7.047
ssg25
I01
sba(iSong
Song
p80
(dp81
g3
(dp82
g5
F0.685
sg6
VThirty
p83
sg8
F162.581
sg9
F0.553
sg10
S'blues'
p84
sg12
F0.0552
sg13
VThe Weather Station
p85
sg15
I9999
sg16
F0.403
sg17
Nsg18
F3.85e-05
sg19
Nsg20
Nsg21
F0.543
sg22
Nsg23
Nsg24
F-8.738
ssg25
I01
sba(iSong
Song
p86
(dp87
g3
(dp88
g5
F0.115
sg6
VI Know
p89
sg8
F120.155
sg9
F0.908
sg10
S'blues'
p90
sg12
F0.0512
sg13
VShovels & Rope
p91
sg15
I9999
sg16
F0.545
sg17
Nsg18
I0
sg19
Nsg20
Nsg21
F0.391
sg22
Nsg23
Nsg24
F-6.548
ssg25
I01
sba(iSong
Song
p92
(dp93
g3
(dp94
g5
F0.0664
sg6
VLUCKY PENNY
p95
sg8
F127.979
sg9
F0.736
sg10
S'blues'
p96
sg12
F0.0481
sg13
VJD McPherson
p97
sg15
I9999
sg16
F0.698
sg17
Nsg18
F2.16e-05
sg19
Nsg20
Nsg21
F0.822
sg22
Nsg23
Nsg24
F-5.525
ssg25
I01
sba(iSong
Song
p98
(dp99
g3
(dp100
g5
F0.843
sg6
VIf I Was The Devil
p101
sg8
F89.712
sg9
F0.432
sg10
S'blues'
p102
sg12
F0.0362
sg13
VJustin Townes Earle
p103
sg15
I9999
sg16
F0.535
sg17
Nsg18
F0.0212
sg19
Nsg20
Nsg21
F0.287
sg22
Nsg23
Nsg24
F-12.438
ssg25
I01
sba(iSong
Song
p104
(dp105
g3
(dp106
g5
F0.00381
sg6
VCalifornia
p107
sg8
F124.678
sg9
F0.741
sg10
S'blues'
p108
sg12
F0.0326
sg13
VThe Delta Saints
p109
sg15
I9999
sg16
F0.585
sg17
Nsg18
F8.96e-06
sg19
Nsg20
Nsg21
F0.676
sg22
Nsg23
Nsg24
F-6.954
ssg25
I01
sba(iSong
Song
p110
(dp111
g3
(dp112
g5
F0.587
sg6
VBarleycorn
p113
sg8
F99.08
sg9
F0.422
sg10
S'blues'
p114
sg12
F0.0354
sg13
VJohnny Flynn
p115
sg15
I9999
sg16
F0.661
sg17
Nsg18
F0.132
sg19
Nsg20
Nsg21
F0.251
sg22
Nsg23
Nsg24
F-10.019
ssg25
I01
sba(iSong
Song
p116
(dp117
g3
(dp118
g5
F0.343
sg6
VSugar Daddy - Theme from Vinyl
p119
sg8
F81.971
sg9
F0.929
sg10
S'blues'
p120
sg12
F0.143
sg13
VSturgill Simpson
p121
sg15
I9999
sg16
F0.26
sg17
Nsg18
F0.0356
sg19
Nsg20
Nsg21
F0.358
sg22
Nsg23
Nsg24
F-5.841
ssg25
I01
sba(iSong
Song
p122
(dp123
g3
(dp124
g5
F0.02
sg6
VDidn't He Ramble
p125
sg8
F180.135
sg9
F0.764
sg10
S'blues'
p126
sg12
F0.0563
sg13
VGlen Hansard
p127
sg15
I9999
sg16
F0.257
sg17
Nsg18
F0.000685
sg19
Nsg20
Nsg21
F0.446
sg22
Nsg23
Nsg24
F-6.904
ssg25
I01
sba(iSong
Song
p128
(dp129
g3
(dp130
g5
F0.724
sg6
VProphet Story
p131
sg8
F92.382
sg9
F0.478
sg10
S'blues'
p132
sg12
F0.0274
sg13
VCobi
p133
sg15
I9999
sg16
F0.433
sg17
Nsg18
I0
sg19
Nsg20
Nsg21
F0.235
sg22
Nsg23
Nsg24
F-4.028
ssg25
I01
sba(iSong
Song
p134
(dp135
g3
(dp136
g5
F0.0325
sg6
VJust to Be with You
p137
sg8
F169.932
sg9
F0.739
sg10
S'blues'
p138
sg12
F0.0481
sg13
VAubrie Sellers
p139
sg15
I9999
sg16
F0.336
sg17
Nsg18
F5.9e-05
sg19
Nsg20
Nsg21
F0.578
sg22
Nsg23
Nsg24
F-5.394
ssg25
I01
sba(iSong
Song
p140
(dp141
g3
(dp142
g5
F0.717
sg6
VBlack Crow
p143
sg8
F131.312
sg9
F0.327
sg10
S'blues'
p144
sg12
F0.0687
sg13
VBrent Cobb
p145
sg15
I9999
sg16
F0.706
sg17
Nsg18
F0.0192
sg19
Nsg20
Nsg21
F0.632
sg22
Nsg23
Nsg24
F-11.603
ssg25
I01
sba(iSong
Song
p146
(dp147
g3
(dp148
g5
F0.456
sg6
VShelter
p149
sg8
F114.359
sg9
F0.299
sg10
S'blues'
p150
sg12
F0.0309
sg13
VDorothy
p151
sg15
I9999
sg16
F0.568
sg17
Nsg18
I0
sg19
Nsg20
Nsg21
F0.139
sg22
Nsg23
Nsg24
F-9.906
ssg25
I01
sba(iSong
Song
p152
(dp153
g3
(dp154
g5
F0.361
sg6
VSinking Down
p155
sg8
F142.093
sg9
F0.796
sg10
S'blues'
p156
sg12
F0.0461
sg13
VSon Volt
p157
sg15
I9999
sg16
F0.36
sg17
Nsg18
F0.392
sg19
Nsg20
Nsg21
F0.494
sg22
Nsg23
Nsg24
F-6.123
ssg25
I01
sba(iSong
Song
p158
(dp159
g3
(dp160
g5
F0.00385
sg6
VGot It Bad
p161
sg8
F171.274
sg9
F0.785
sg10
S'blues'
p162
sg12
F0.0505
sg13
VThe Sore Losers
p163
sg15
I9999
sg16
F0.263
sg17
Nsg18
F0.000272
sg19
Nsg20
Nsg21
F0.379
sg22
Nsg23
Nsg24
F-4.658
ssg25
I01
sba(iSong
Song
p164
(dp165
g3
(dp166
g5
F0.00252
sg6
VLift Me Up (Leave Me Here)
p167
sg8
F167.885
sg9
F0.767
sg10
S'blues'
p168
sg12
F0.0367
sg13
VBrent Cowles
p169
sg15
I9999
sg16
F0.4
sg17
Nsg18
F0.0334
sg19
Nsg20
Nsg21
F0.482
sg22
Nsg23
Nsg24
F-3.444
ssg25
I01
sba(iSong
Song
p170
(dp171
g3
(dp172
g5
F0.000477
sg6
VOh No
p173
sg8
F132.97
sg9
F0.978
sg10
S'blues'
p174
sg12
F0.22
sg13
VGoodbye June
p175
sg15
I9999
sg16
F0.259
sg17
Nsg18
F0.000314
sg19
Nsg20
Nsg21
F0.266
sg22
Nsg23
Nsg24
F-3.842
ssg25
I01
sba(iSong
Song
p176
(dp177
g3
(dp178
g5
F0.203
sg6
VI Own You
p179
sg8
F141.939
sg9
F0.721
sg10
S'blues'
p180
sg12
F0.0347
sg13
VMick Flannery
p181
sg15
I9999
sg16
F0.54
sg17
Nsg18
F5.83e-05
sg19
Nsg20
Nsg21
F0.346
sg22
Nsg23
Nsg24
F-6.05
ssg25
I01
sba(iSong
Song
p182
(dp183
g3
(dp184
g5
F0.0367
sg6
VHabbie Doobie
p185
sg8
F89.964
sg9
F0.723
sg10
S'blues'
p186
sg12
F0.0331
sg13
VThe Texas Gentlemen
p187
sg15
I9999
sg16
F0.51
sg17
Nsg18
F7.88e-05
sg19
Nsg20
Nsg21
F0.499
sg22
Nsg23
Nsg24
F-6.72
ssg25
I01
sba(iSong
Song
p188
(dp189
g3
(dp190
g5
F0.0283
sg6
VMy Church Is Black
p191
sg8
F106.055
sg9
F0.817
sg10
S'blues'
p192
sg12
F0.0343
sg13
VMe And That Man
p193
sg15
I9999
sg16
F0.39
sg17
Nsg18
F0.486
sg19
Nsg20
Nsg21
F0.323
sg22
Nsg23
Nsg24
F-2.949
ssg25
I01
sba(iSong
Song
p194
(dp195
g3
(dp196
g5
F0.185
sg6
VDon't Give Up
p197
sg8
F112.235
sg9
F0.689
sg10
S'blues'
p198
sg12
F0.0389
sg13
VSouthern Avenue
p199
sg15
I9999
sg16
F0.638
sg17
Nsg18
F2.91e-05
sg19
Nsg20
Nsg21
F0.555
sg22
Nsg23
Nsg24
F-4.54
ssg25
I01
sba(iSong
Song
p200
(dp201
g3
(dp202
g5
F0.0419
sg6
VLost on the Young
p203
sg8
F161.09
sg9
F0.738
sg10
S'blues'
p204
sg12
F0.0464
sg13
VBalto
p205
sg15
I9999
sg16
F0.267
sg17
Nsg18
F1.35e-06
sg19
Nsg20
Nsg21
F0.488
sg22
Nsg23
Nsg24
F-5.541
ssg25
I01
sba(iSong
Song
p206
(dp207
g3
(dp208
g5
F0.11
sg6
VPart One - Hey, No Pressure
p209
sg8
F151.265
sg9
F0.748
sg10
S'blues'
p210
sg12
F0.0522
sg13
VRay LaMontagne
p211
sg15
I9999
sg16
F0.434
sg17
Nsg18
F0.000273
sg19
Nsg20
Nsg21
F0.703
sg22
Nsg23
Nsg24
F-7.707
ssg25
I01
sba(iSong
Song
p212
(dp213
g3
(dp214
g5
F0.404
sg6
VBring Down The Wall
p215
sg8
F97.967
sg9
F0.392
sg10
S'blues'
p216
sg12
F0.034
sg13
VPiers Faccini
p217
sg15
I9999
sg16
F0.697
sg17
Nsg18
F0.00121
sg19
Nsg20
Nsg21
F0.725
sg22
Nsg23
Nsg24
F-10.105
ssg25
I01
sba(iSong
Song
p218
(dp219
g3
(dp220
g5
F0.0069
sg6
VSiren
p221
sg8
F98.195
sg9
F0.788
sg10
S'blues'
p222
sg12
F0.0625
sg13
VMonica Heldal
p223
sg15
I9999
sg16
F0.279
sg17
Nsg18
F0.048
sg19
Nsg20
Nsg21
F0.381
sg22
Nsg23
Nsg24
F-8.522
ssg25
I01
sba(iSong
Song
p224
(dp225
g3
(dp226
g5
F0.00253
sg6
VSomething\u2019s Got a Hold on Me
p227
sg8
F110.046
sg9
F0.333
sg10
S'blues'
p228
sg12
F0.0274
sg13
VAngel Snow
p229
sg15
I9999
sg16
F0.74
sg17
Nsg18
F0.0507
sg19
Nsg20
Nsg21
F0.266
sg22
Nsg23
Nsg24
F-11.64
ssg25
I01
sba(iSong
Song
p230
(dp231
g3
(dp232
g5
F0.144
sg6
VTrinity Lane
p233
sg8
F145.056
sg9
F0.811
sg10
S'blues'
p234
sg12
F0.027
sg13
VLilly Hiatt
p235
sg15
I9999
sg16
F0.578
sg17
Nsg18
F0.0054
sg19
Nsg20
Nsg21
F0.752
sg22
Nsg23
Nsg24
F-6.228
ssg25
I01
sba(iSong
Song
p236
(dp237
g3
(dp238
g5
F0.0134
sg6
VGood Evening
p239
sg8
F105.509
sg9
F0.606
sg10
S'blues'
p240
sg12
F0.0305
sg13
VQuaker City Night Hawks
p241
sg15
I9999
sg16
F0.527
sg17
Nsg18
F0.00029
sg19
Nsg20
Nsg21
F0.267
sg22
Nsg23
Nsg24
F-6.799
ssg25
I01
sba(iSong
Song
p242
(dp243
g3
(dp244
g5
F0.452
sg6
VCall It What It Is
p245
sg8
F66.234
sg9
F0.572
sg10
S'blues'
p246
sg12
F0.0357
sg13
VBen Harper And The Innocent Criminals
p247
sg15
I9999
sg16
F0.603
sg17
Nsg18
F5.39e-06
sg19
Nsg20
Nsg21
F0.465
sg22
Nsg23
Nsg24
F-7.745
ssg25
I01
sba(iSong
Song
p248
(dp249
g3
(dp250
g5
F0.0112
sg6
VFleet Foot
p251
sg8
F107.385
sg9
F0.957
sg10
S'blues'
p252
sg12
F0.259
sg13
VBlack Pistol Fire
p253
sg15
I9999
sg16
F0.348
sg17
Nsg18
I0
sg19
Nsg20
Nsg21
F0.216
sg22
Nsg23
Nsg24
F-3.833
ssg25
I01
sba(iSong
Song
p254
(dp255
g3
(dp256
g5
F0.0319
sg6
VRun Devil Run
p257
sg8
F174.694
sg9
F0.958
sg10
S'blues'
p258
sg12
F0.171
sg13
VCrowder
p259
sg15
I9999
sg16
F0.417
sg17
Nsg18
I0
sg19
Nsg20
Nsg21
F0.815
sg22
Nsg23
Nsg24
F-3.273
ssg25
I01
sba(iSong
Song
p260
(dp261
g3
(dp262
g5
F0.353
sg6
VChampagne And Reefer
p263
sg8
F121.251
sg9
F0.836
sg10
S'blues'
p264
sg12
F0.0451
sg13
VThe Devil Makes Three
p265
sg15
I9999
sg16
F0.735
sg17
Nsg18
F0.0143
sg19
Nsg20
Nsg21
F0.781
sg22
Nsg23
Nsg24
F-7.467
ssg25
I01
sba(iSong
Song
p266
(dp267
g3
(dp268
g5
F0.033
sg6
VPlunder
p269
sg8
F135.067
sg9
F0.828
sg10
S'blues'
p270
sg12
F0.0359
sg13
VThe Felice Brothers
p271
sg15
I9999
sg16
F0.383
sg17
Nsg18
F3.05e-05
sg19
Nsg20
Nsg21
F0.845
sg22
Nsg23
Nsg24
F-6.322
ssg25
I01
sba(iSong
Song
p272
(dp273
g3
(dp274
g5
F0.00016
sg6
VLeadfoot
p275
sg8
F137.089
sg9
F0.852
sg10
S'blues'
p276
sg12
F0.0499
sg13
VNo Sinner
p277
sg15
I9999
sg16
F0.345
sg17
Nsg18
F0.0165
sg19
Nsg20
Nsg21
F0.396
sg22
Nsg23
Nsg24
F-4.245
ssg25
I01
sba(iSong
Song
p278
(dp279
g3
(dp280
g5
F0.775
sg6
VIt Runs Together
p281
sg8
F103.983
sg9
F0.548
sg10
S'blues'
p282
sg12
F0.0555
sg13
VHard Working Americans
p283
sg15
I9999
sg16
F0.61
sg17
Nsg18
F0.0347
sg19
Nsg20
Nsg21
F0.413
sg22
Nsg23
Nsg24
F-10.408
ssg25
I01
sba(iSong
Song
p284
(dp285
g3
(dp286
g5
F0.0988
sg6
VGimme Something Good - Live At The Village
p287
sg8
F95.371
sg9
F0.791
sg10
S'blues'
p288
sg12
F0.0359
sg13
VRyan Adams
p289
sg15
I9999
sg16
F0.416
sg17
Nsg18
F0.383
sg19
Nsg20
Nsg21
F0.511
sg22
Nsg23
Nsg24
F-3.354
ssg25
I01
sba(iSong
Song
p290
(dp291
g3
(dp292
g5
F0.102
sg6
VWaiting for the Thunder
p293
sg8
F144.047
sg9
F0.805
sg10
S'blues'
p294
sg12
F0.0301
sg13
VBlackberry Smoke
p295
sg15
I9999
sg16
F0.582
sg17
Nsg18
F3.14e-06
sg19
Nsg20
Nsg21
F0.895
sg22
Nsg23
Nsg24
F-5.267
ssg25
I01
sba(iSong
Song
p296
(dp297
g3
(dp298
g5
F0.242
sg6
VFire
p299
sg8
F108.362
sg9
F0.625
sg10
S'blues'
p300
sg12
F0.0296
sg13
VBarns Courtney
p301
sg15
I9999
sg16
F0.552
sg17
Nsg18
F0.000558
sg19
Nsg20
Nsg21
F0.425
sg22
Nsg23
Nsg24
F-6.053
ssg25
I01
sba(iSong
Song
p302
(dp303
g3
(dp304
g5
F0.0928
sg6
VPretty Pimpin
p305
sg8
F91.117
sg9
F0.664
sg10
S'blues'
p306
sg12
F0.0281
sg13
VKurt Vile
p307
sg15
I9999
sg16
F0.566
sg17
Nsg18
F0.305
sg19
Nsg20
Nsg21
F0.764
sg22
Nsg23
Nsg24
F-9.081
ssg25
I01
sba(iSong
Song
p308
(dp309
g3
(dp310
g5
F0.0588
sg6
VWorking Poor
p311
sg8
F83.516
sg9
F0.396
sg10
S'blues'
p312
sg12
F0.0485
sg13
VFantastic Negrito
p313
sg15
I9999
sg16
F0.77
sg17
Nsg18
F0.000164
sg19
Nsg20
Nsg21
F0.567
sg22
Nsg23
Nsg24
F-17.04
ssg25
I01
sba(iSong
Song
p314
(dp315
g3
(dp316
g5
F0.00183
sg6
VSmoke Rising
p317
sg8
F135.173
sg9
F0.735
sg10
S'blues'
p318
sg12
F0.0266
sg13
VBrown Bird
p319
sg15
I9999
sg16
F0.572
sg17
Nsg18
F0.782
sg19
Nsg20
Nsg21
F0.599
sg22
Nsg23
Nsg24
F-6.042
ssg25
I01
sba(iSong
Song
p320
(dp321
g3
(dp322
g5
F0.0255
sg6
VRain Dance (feat. Bo Diddley)
p323
sg8
F187.617
sg9
F0.691
sg10
S'blues'
p324
sg12
F0.0499
sg13
VHollis Brown
p325
sg15
I9999
sg16
F0.563
sg17
Nsg18
F3.55e-05
sg19
Nsg20
Nsg21
F0.514
sg22
Nsg23
Nsg24
F-7.061
ssg25
I01
sba(iSong
Song
p326
(dp327
g3
(dp328
g5
F0.00625
sg6
VJack Is Back
p329
sg8
F131.999
sg9
F0.766
sg10
S'blues'
p330
sg12
F0.0419
sg13
VSonia Leigh
p331
sg15
I9999
sg16
F0.677
sg17
Nsg18
F0.000123
sg19
Nsg20
Nsg21
F0.589
sg22
Nsg23
Nsg24
F-7.98
ssg25
I01
sba(iSong
Song
p332
(dp333
g3
(dp334
g5
F0.00356
sg6
VHurry Up And Wait
p335
sg8
F122.995
sg9
F0.874
sg10
S'blues'
p336
sg12
F0.0511
sg13
VBen Miller Band
p337
sg15
I9999
sg16
F0.563
sg17
Nsg18
F0.528
sg19
Nsg20
Nsg21
F0.499
sg22
Nsg23
Nsg24
F-6.501
ssg25
I01
sba(iSong
Song
p338
(dp339
g3
(dp340
g5
F0.171
sg6
VSun Sets West
p341
sg8
F112.726
sg9
F0.698
sg10
S'blues'
p342
sg12
F0.0643
sg13
Vlittle hurricane
p343
sg15
I9999
sg16
F0.439
sg17
Nsg18
F3.73e-06
sg19
Nsg20
Nsg21
F0.815
sg22
Nsg23
Nsg24
F-6.764
ssg25
I01
sba(iSong
Song
p344
(dp345
g3
(dp346
g5
F0.0685
sg6
VDead Eyes
p347
sg8
F193.756
sg9
F0.635
sg10
S'blues'
p348
sg12
F0.056
sg13
VAdia Victoria
p349
sg15
I9999
sg16
F0.28
sg17
Nsg18
F0.121
sg19
Nsg20
Nsg21
F0.375
sg22
Nsg23
Nsg24
F-8.271
ssg25
I01
sba(iSong
Song
p350
(dp351
g3
(dp352
g5
F0.0062
sg6
VShape Shifter
p353
sg8
F130.03
sg9
F0.685
sg10
S'blues'
p354
sg12
F0.0294
sg13
VLera Lynn
p355
sg15
I9999
sg16
F0.806
sg17
Nsg18
F0.0831
sg19
Nsg20
Nsg21
F0.961
sg22
Nsg23
Nsg24
F-8.296
ssg25
I01
sba(iSong
Song
p356
(dp357
g3
(dp358
g5
F0.00104
sg6
VLet You Go
p359
sg8
F117.997
sg9
F0.616
sg10
S'blues'
p360
sg12
F0.0282
sg13
VGreat Peacock
p361
sg15
I9999
sg16
F0.616
sg17
Nsg18
F0.0806
sg19
Nsg20
Nsg21
F0.598
sg22
Nsg23
Nsg24
F-8.662
ssg25
I01
sba(iSong
Song
p362
(dp363
g3
(dp364
g5
F0.102
sg6
VI\u2019m a Raven (Shake Children)
p365
sg8
F170.436
sg9
F0.503
sg10
S'blues'
p366
sg12
F0.0275
sg13
VHiss Golden Messenger
p367
sg15
I9999
sg16
F0.503
sg17
Nsg18
I0
sg19
Nsg20
Nsg21
F0.867
sg22
Nsg23
Nsg24
F-7.497
ssg25
I01
sba(iSong
Song
p368
(dp369
g3
(dp370
g5
F0.115
sg6
VMy Babe
p371
sg8
F172.102
sg9
F0.79
sg10
S'blues'
p372
sg12
F0.0884
sg13
VWhitehorse
p373
sg15
I9999
sg16
F0.621
sg17
Nsg18
F1.32e-05
sg19
Nsg20
Nsg21
F0.947
sg22
Nsg23
Nsg24
F-4.464
ssg25
I01
sba(iSong
Song
p374
(dp375
g3
(dp376
g5
F0.00124
sg6
VVagabond
p377
sg8
F117.985
sg9
F0.842
sg10
S'blues'
p378
sg12
F0.0721
sg13
VAquila Young
p379
sg15
I9999
sg16
F0.624
sg17
Nsg18
F0.0124
sg19
Nsg20
Nsg21
F0.55
sg22
Nsg23
Nsg24
F-7.5
ssg25
I01
sba(iSong
Song
p380
(dp381
g3
(dp382
g5
F0.0078
sg6
VThe Hurricane's Eye
p383
sg8
F164.221
sg9
F0.658
sg10
S'blues'
p384
sg12
F0.0621
sg13
VJesse Roper
p385
sg15
I9999
sg16
F0.357
sg17
Nsg18
F0.00274
sg19
Nsg20
Nsg21
F0.227
sg22
Nsg23
Nsg24
F-8.197
ssg25
I01
sba(iSong
Song
p386
(dp387
g3
(dp388
g5
F0.144
sg6
VDon't Strike Me Down
p389
sg8
F154.866
sg9
F0.844
sg10
S'blues'
p390
sg12
F0.0463
sg13
VWilliam Elliott Whitmore
p391
sg15
I9999
sg16
F0.466
sg17
Nsg18
F3.65e-05
sg19
Nsg20
Nsg21
F0.45
sg22
Nsg23
Nsg24
F-5.949
ssg25
I01
sba(iSong
Song
p392
(dp393
g3
(dp394
g5
F0.426
sg6
VOn the Road Again
p395
sg8
F146.611
sg9
F0.414
sg10
S'blues'
p396
sg12
F0.0421
sg13
VJack Broadbent
p397
sg15
I9999
sg16
F0.408
sg17
Nsg18
F0.0535
sg19
Nsg20
Nsg21
F0.219
sg22
Nsg23
Nsg24
F-7.617
ssg25
I01
sba(iSong
Song
p398
(dp399
g3
(dp400
g5
F0.594
sg6
VOff The Ground
p401
sg8
F92.362
sg9
F0.694
sg10
S'blues'
p402
sg12
F0.0397
sg13
VThe Record Company
p403
sg15
I9999
sg16
F0.537
sg17
Nsg18
F0.241
sg19
Nsg20
Nsg21
F0.864
sg22
Nsg23
Nsg24
F-4.542
ssg25
I01
sba(iSong
Song
p404
(dp405
g3
(dp406
g5
F0.045
sg6
VSnake Eyes
p407
sg8
F93.251
sg9
F0.885
sg10
S'blues'
p408
sg12
F0.0472
sg13
VThe Wood Brothers
p409
sg15
I9999
sg16
F0.572
sg17
Nsg18
F1.78e-06
sg19
Nsg20
Nsg21
F0.649
sg22
Nsg23
Nsg24
F-5.339
ssg25
I01
sba(iSong
Song
p410
(dp411
g3
(dp412
g5
F0.437
sg6
VI Am A Man Of Constant Sorrow
p413
sg8
F89.998
sg9
F0.79
sg10
S'blues'
p414
sg12
F0.0253
sg13
VBlitzen Trapper
p415
sg15
I9999
sg16
F0.728
sg17
Nsg18
F2.46e-05
sg19
Nsg20
Nsg21
F0.894
sg22
Nsg23
Nsg24
F-5.072
ssg25
I01
sba(iSong
Song
p416
(dp417
g3
(dp418
g5
F0.124
sg6
VTrouble
p419
sg8
F142.061
sg9
F0.782
sg10
S'blues'
p420
sg12
F0.0391
sg13
VHamish Anderson
p421
sg15
I9999
sg16
F0.588
sg17
Nsg18
F0.13
sg19
Nsg20
Nsg21
F0.892
sg22
Nsg23
Nsg24
F-6.887
ssg25
I01
sba(iSong
Song
p422
(dp423
g3
(dp424
g5
F0.278
sg6
VGold to Glass
p425
sg8
F82.385
sg9
F0.648
sg10
S'blues'
p426
sg12
F0.146
sg13
VThe Revivalists
p427
sg15
I9999
sg16
F0.64
sg17
Nsg18
F2.84e-05
sg19
Nsg20
Nsg21
F0.398
sg22
Nsg23
Nsg24
F-7.709
ssg25
I01
sba(iSong
Song
p428
(dp429
g3
(dp430
g5
F0.373
sg6
VBlack and Blue
p431
sg8
F174.09
sg9
F0.726
sg10
S'blues'
p432
sg12
F0.0457
sg13
VThe Harpoonist & the Axe Murderer
p433
sg15
I9999
sg16
F0.539
sg17
Nsg18
F0.00327
sg19
Nsg20
Nsg21
F0.724
sg22
Nsg23
Nsg24
F-5.768
ssg25
I01
sba(iSong
Song
p434
(dp435
g3
(dp436
g5
F0.00818
sg6
VRide On / Right On
p437
sg8
F95.07
sg9
F0.582
sg10
S'blues'
p438
sg12
F0.0328
sg13
VPhosphorescent
p439
sg15
I9999
sg16
F0.539
sg17
Nsg18
F0.0717
sg19
Nsg20
Nsg21
F0.245
sg22
Nsg23
Nsg24
F-7.414
ssg25
I01
sba(iSong
Song
p440
(dp441
g3
(dp442
g5
F0.0751
sg6
VMockingbird
p443
sg8
F147.075
sg9
F0.806
sg10
S'blues'
p444
sg12
F0.0452
sg13
VQuaker City Night Hawks
p445
sg15
I9999
sg16
F0.35
sg17
Nsg18
F5.93e-05
sg19
Nsg20
Nsg21
F0.395
sg22
Nsg23
Nsg24
F-3.942
ssg25
I01
sba(iSong
Song
p446
(dp447
g3
(dp448
g5
F0.000183
sg6
VBetter Way
p449
sg8
F106.105
sg9
F0.67
sg10
S'blues'
p450
sg12
F0.0292
sg13
VKim Logan
p451
sg15
I9999
sg16
F0.477
sg17
Nsg18
F0.777
sg19
Nsg20
Nsg21
F0.323
sg22
Nsg23
Nsg24
F-6.162
ssg25
I01
sba(iSong
Song
p452
(dp453
g3
(dp454
g5
F0.000843
sg6
VBoone
p455
sg8
F169.981
sg9
F0.757
sg10
S'blues'
p456
sg12
F0.041
sg13
VThe Marcus King Band
p457
sg15
I9999
sg16
F0.357
sg17
Nsg18
F0.00435
sg19
Nsg20
Nsg21
F0.488
sg22
Nsg23
Nsg24
F-7.487
ssg25
I01
sba(iSong
Song
p458
(dp459
g3
(dp460
g5
F0.00855
sg6
VGrinder
p461
sg8
F161.933
sg9
F0.792
sg10
S'blues'
p462
sg12
F0.0363
sg13
VGary Clark Jr.
p463
sg15
I9999
sg16
F0.293
sg17
Nsg18
F0.0111
sg19
Nsg20
Nsg21
F0.697
sg22
Nsg23
Nsg24
F-3.747
ssg25
I01
sba(iSong
Song
p464
(dp465
g3
(dp466
g5
F0.843
sg6
VBoneyard - Edit
p467
sg8
F106.538
sg9
F0.475
sg10
S'blues'
p468
sg12
F0.0265
sg13
VFink
p469
sg15
I9999
sg16
F0.386
sg17
Nsg18
F0.000106
sg19
Nsg20
Nsg21
F0.391
sg22
Nsg23
Nsg24
F-8.254
ssg25
I01
sba(iSong
Song
p470
(dp471
g3
(dp472
g5
F0.0066
sg6
VBotched Execution
p473
sg8
F160.051
sg9
F0.938
sg10
S'blues'
p474
sg12
F0.0854
sg13
VShovels & Rope
p475
sg15
I9999
sg16
F0.495
sg17
Nsg18
I0
sg19
Nsg20
Nsg21
F0.783
sg22
Nsg23
Nsg24
F-5.667
ssg25
I01
sba(iSong
Song
p476
(dp477
g3
(dp478
g5
F0.112
sg6
VMagnolia
p479
sg8
F94.633
sg9
F0.507
sg10
S'blues'
p480
sg12
F0.0292
sg13
VMail the Horse
p481
sg15
I9999
sg16
F0.647
sg17
Nsg18
F0.0117
sg19
Nsg20
Nsg21
F0.711
sg22
Nsg23
Nsg24
F-9.186
ssg25
I01
sba(iSong
Song
p482
(dp483
g3
(dp484
g5
F0.000369
sg6
VHeavy Is the Head
p485
sg8
F85.526
sg9
F0.923
sg10
S'blues'
p486
sg12
F0.0392
sg13
VZac Brown Band
p487
sg15
I9999
sg16
F0.508
sg17
Nsg18
F0.00171
sg19
Nsg20
Nsg21
F0.689
sg22
Nsg23
Nsg24
F-3.258
ssg25
I01
sba(iSong
Song
p488
(dp489
g3
(dp490
g5
F0.0091
sg6
VI Feel Love (Every Million Miles)
p491
sg8
F93.92
sg9
F0.919
sg10
S'blues'
p492
sg12
F0.139
sg13
VThe Dead Weather
p493
sg15
I9999
sg16
F0.404
sg17
Nsg18
I0
sg19
Nsg20
Nsg21
F0.207
sg22
Nsg23
Nsg24
F-6.76
ssg25
I01
sba(iSong
Song
p494
(dp495
g3
(dp496
g5
F0.0657
sg6
VDead In The Water
p497
sg8
F79.976
sg9
F0.785
sg10
S'blues'
p498
sg12
F0.036
sg13
VRandall Bramblett
p499
sg15
I9999
sg16
F0.617
sg17
Nsg18
F0.018
sg19
Nsg20
Nsg21
F0.766
sg22
Nsg23
Nsg24
F-7.447
ssg25
I01
sba(iSong
Song
p500
(dp501
g3
(dp502
g5
F0.144
sg6
VRiverbottom
p503
sg8
F145.956
sg9
F0.604
sg10
S'blues'
p504
sg12
F0.0401
sg13
VJonathan Tyler
p505
sg15
I9999
sg16
F0.626
sg17
Nsg18
F0.000225
sg19
Nsg20
Nsg21
F0.481
sg22
Nsg23
Nsg24
F-3.446
ssg25
I01
sba(iSong
Song
p506
(dp507
g3
(dp508
g5
F0.143
sg6
VDreamcatchers
p509
sg8
F78.942
sg9
F0.553
sg10
S'blues'
p510
sg12
F0.0322
sg13
VOdetta Hartman
p511
sg15
I9999
sg16
F0.502
sg17
Nsg18
F0.168
sg19
Nsg20
Nsg21
F0.568
sg22
Nsg23
Nsg24
F-8.009
ssg25
I01
sba(iSong
Song
p512
(dp513
g3
(dp514
g5
F0.0011
sg6
VWicked Waters
p515
sg8
F102.782
sg9
F0.978
sg10
S'blues'
p516
sg12
F0.14
sg13
VBenjamin Booker
p517
sg15
I9999
sg16
F0.367
sg17
Nsg18
I0
sg19
Nsg20
Nsg21
F0.318
sg22
Nsg23
Nsg24
F-5.827
ssg25
I01
sba(iSong
Song
p518
(dp519
g3
(dp520
g5
F0.000385
sg6
VCompany Man
p521
sg8
F119.89
sg9
F0.889
sg10
S'blues'
p522
sg12
F0.0428
sg13
VJamestown Revival
p523
sg15
I9999
sg16
F0.551
sg17
Nsg18
F3.94e-05
sg19
Nsg20
Nsg21
F0.851
sg22
Nsg23
Nsg24
F-5.023
ssg25
I01
sba(iSong
Song
p524
(dp525
g3
(dp526
g5
F0.0239
sg6
VThese American Blues
p527
sg8
F126.902
sg9
F0.701
sg10
S'blues'
p528
sg12
F0.0268
sg13
VLevi Parham
p529
sg15
I9999
sg16
F0.701
sg17
Nsg18
F0.00501
sg19
Nsg20
Nsg21
F0.962
sg22
Nsg23
Nsg24
F-9.805
ssg25
I01
sba(iSong
Song
p530
(dp531
g3
(dp532
g5
F0.565
sg6
VSomebody Was Watching
p533
sg8
F166.999
sg9
F0.374
sg10
S'blues'
p534
sg12
F0.177
sg13
VPops Staples
p535
sg15
I9999
sg16
F0.63
sg17
Nsg18
F0.00146
sg19
Nsg20
Nsg21
F0.562
sg22
Nsg23
Nsg24
F-11.305
ssg25
I01
sba(iSong
Song
p536
(dp537
g3
(dp538
g5
F0.789
sg6
VYou're The Best Lover That I Ever Had
p539
sg8
F150.769
sg9
F0.504
sg10
S'blues'
p540
sg12
F0.032
sg13
VSteve Earle
p541
sg15
I9999
sg16
F0.547
sg17
Nsg18
F0.0799
sg19
Nsg20
Nsg21
F0.766
sg22
Nsg23
Nsg24
F-10.093
ssg25
I01
sba(iSong
Song
p542
(dp543
g3
(dp544
g5
F0.215
sg6
VSleepy Lagoon
p545
sg8
F80.463
sg9
F0.629
sg10
S'blues'
p546
sg12
F0.0275
sg13
VCarl Broemel
p547
sg15
I9999
sg16
F0.604
sg17
Nsg18
F0.481
sg19
Nsg20
Nsg21
F0.756
sg22
Nsg23
Nsg24
F-8.829
ssg25
I01
sba(iSong
Song
p548
(dp549
g3
(dp550
g5
F0.772
sg6
VPromise Land (feat. Jason Eskridge)
p551
sg8
F100.145
sg9
F0.306
sg10
S'blues'
p552
sg12
F0.036
sg13
VHannah Miller
p553
sg15
I9999
sg16
F0.341
sg17
Nsg18
F0.0196
sg19
Nsg20
Nsg21
F0.122
sg22
Nsg23
Nsg24
F-10.549
ssg25
I01
sba(iSong
Song
p554
(dp555
g3
(dp556
g5
F0.0495
sg6
VThe Perfect Parts
p557
sg8
F124.737
sg9
F0.657
sg10
S'blues'
p558
sg12
F0.0454
sg13
VShakey Graves
p559
sg15
I9999
sg16
F0.534
sg17
Nsg18
F0.000301
sg19
Nsg20
Nsg21
F0.282
sg22
Nsg23
Nsg24
F-6.112
ssg25
I01
sba(iSong
Song
p560
(dp561
g3
(dp562
g5
F0.178
sg6
VRaising Hands Raising Hell Raise 'em High
p563
sg8
F100.01
sg9
F0.821
sg10
S'blues'
p564
sg12
F0.0426
sg13
VThe Wind and The Wave
p565
sg15
I9999
sg16
F0.623
sg17
Nsg18
F0.528
sg19
Nsg20
Nsg21
F0.577
sg22
Nsg23
Nsg24
F-5.781
ssg25
I01
sba(iSong
Song
p566
(dp567
g3
(dp568
g5
F0.11
sg6
VBetter Feeln' Better Days
p569
sg8
F149.92
sg9
F0.401
sg10
S'blues'
p570
sg12
F0.0423
sg13
VKail Baxley
p571
sg15
I9999
sg16
F0.764
sg17
Nsg18
F0.833
sg19
Nsg20
Nsg21
F0.0716
sg22
Nsg23
Nsg24
F-8.612
ssg25
I01
sba(iSong
Song
p572
(dp573
g3
(dp574
g5
F0.3
sg6
VGlitter & Gold
p575
sg8
F170.325
sg9
F0.62
sg10
S'blues'
p576
sg12
F0.0441
sg13
VBarns Courtney
p577
sg15
I9999
sg16
F0.488
sg17
Nsg18
I0
sg19
Nsg20
Nsg21
F0.357
sg22
Nsg23
Nsg24
F-5.278
ssg25
I01
sba(iSong
Song
p578
(dp579
g3
(dp580
g5
F0.596
sg6
VI'm Going to Live the Life I Sing About in My Song
p581
sg8
F118.675
sg9
F0.29
sg10
S'blues'
p582
sg12
F0.0361
sg13
VThe Last Internationale
p583
sg15
I9999
sg16
F0.541
sg17
Nsg18
F0.00372
sg19
Nsg20
Nsg21
F0.272
sg22
Nsg23
Nsg24
F-8.603
ssg25
I01
sba(iSong
Song
p584
(dp585
g3
(dp586
g5
F0.344
sg6
VFirst Of The Week
p587
sg8
F79.005
sg9
F0.327
sg10
S'blues'
p588
sg12
F0.0347
sg13
VPatrick Sweany
p589
sg15
I9999
sg16
F0.684
sg17
Nsg18
F0.239
sg19
Nsg20
Nsg21
F0.535
sg22
Nsg23
Nsg24
F-13.829
ssg25
I01
sba(iSong
Song
p590
(dp591
g3
(dp592
g5
F0.928
sg6
VAngel of Small Death and the Codeine Scene - Live From Spotify London
p593
sg8
F92.821
sg9
F0.2
sg10
S'blues'
p594
sg12
F0.0622
sg13
VHozier
p595
sg15
I9999
sg16
F0.594
sg17
Nsg18
I0
sg19
Nsg20
Nsg21
F0.415
sg22
Nsg23
Nsg24
F-10.472
ssg25
I01
sba(iSong
Song
p596
(dp597
g3
(dp598
g5
F9.24e-06
sg6
VThe 28th of January - Electric
p599
sg8
F85.988
sg9
F0.854
sg10
S'blues'
p600
sg12
F0.0331
sg13
VMichael Daves
p601
sg15
I9999
sg16
F0.414
sg17
Nsg18
F0.906
sg19
Nsg20
Nsg21
F0.737
sg22
Nsg23
Nsg24
F-8.871
ssg25
I01
sba(iSong
Song
p602
(dp603
g3
(dp604
g5
F0.0658
sg6
VSweat Shock
p605
sg8
F113.181
sg9
F0.948
sg10
S'blues'
p606
sg12
F0.214
sg13
VJ. Roddy Walston & The Business
p607
sg15
I9999
sg16
F0.495
sg17
Nsg18
F7.4e-05
sg19
Nsg20
Nsg21
F0.158
sg22
Nsg23
Nsg24
F-3.546
ssg25
I01
sba(iSong
Song
p608
(dp609
g3
(dp610
g5
F0.00428
sg6
VLazaretto
p611
sg8
F180.041
sg9
F0.831
sg10
S'blues'
p612
sg12
F0.0811
sg13
VJack White
p613
sg15
I9999
sg16
F0.325
sg17
Nsg18
F3.72e-05
sg19
Nsg20
Nsg21
F0.541
sg22
Nsg23
Nsg24
F-6.574
ssg25
I01
sba(iSong
Song
p614
(dp615
g3
(dp616
g5
F0.0451
sg6
VStrike Your Light
p617
sg8
F169.827
sg9
F0.938
sg10
S'blues'
p618
sg12
F0.135
sg13
VVintage Trouble
p619
sg15
I9999
sg16
F0.309
sg17
Nsg18
F1.42e-06
sg19
Nsg20
Nsg21
F0.611
sg22
Nsg23
Nsg24
F-3.98
ssg25
I01
sba(iSong
Song
p620
(dp621
g3
(dp622
g5
F0.82
sg6
VDry Dirt (Stripped)
p623
sg8
F126.195
sg9
F0.33
sg10
S'blues'
p624
sg12
F0.0588
sg13
VThe Bones of J.R. Jones
p625
sg15
I9999
sg16
F0.682
sg17
Nsg18
F0.358
sg19
Nsg20
Nsg21
F0.326
sg22
Nsg23
Nsg24
F-12.715
ssg25
I01
sba(iSong
Song
p626
(dp627
g3
(dp628
g5
F0.228
sg6
VThousand Mile Night
p629
sg8
F140.652
sg9
F0.35
sg10
S'blues'
p630
sg12
F0.0471
sg13
VJonah Tolchin
p631
sg15
I9999
sg16
F0.584
sg17
Nsg18
F0.0719
sg19
Nsg20
Nsg21
F0.498
sg22
Nsg23
Nsg24
F-13.942
ssg25
I01
sba(iSong
Song
p632
(dp633
g3
(dp634
g5
F0.828
sg6
VLead Me Home - The Walking Dead Soundtrack
p635
sg8
F136.278
sg9
F0.276
sg10
S'blues'
p636
sg12
F0.0323
sg13
VJamie N Commons
p637
sg15
I9999
sg16
F0.435
sg17
Nsg18
F0.00015
sg19
Nsg20
Nsg21
F0.175
sg22
Nsg23
Nsg24
F-11.069
ssg25
I01
sba(iSong
Song
p638
(dp639
g3
(dp640
g5
F0.804
sg6
VWhispered Words (Pretty Lies)
p641
sg8
F86.697
sg9
F0.585
sg10
S'blues'
p642
sg12
F0.0734
sg13
VDan Auerbach
p643
sg15
I9999
sg16
F0.481
sg17
Nsg18
F0.000453
sg19
Nsg20
Nsg21
F0.481
sg22
Nsg23
Nsg24
F-6.9
ssg25
I01
sba(iSong
Song
p644
(dp645
g3
(dp646
g5
F0.426
sg6
VOn the Road Again
p647
sg8
F146.611
sg9
F0.414
sg10
S'blues'
p648
sg12
F0.0421
sg13
VJack Broadbent
p649
sg15
I9999
sg16
F0.408
sg17
Nsg18
F0.0535
sg19
Nsg20
Nsg21
F0.219
sg22
Nsg23
Nsg24
F-7.617
ssg25
I01
sba(iSong
Song
p650
(dp651
g3
(dp652
g5
F0.819
sg6
VSleeping on the Blacktop
p653
sg8
F83.031
sg9
F0.308
sg10
S'blues'
p654
sg12
F0.0478
sg13
VColter Wall
p655
sg15
I9999
sg16
F0.566
sg17
Nsg18
F0.272
sg19
Nsg20
Nsg21
F0.461
sg22
Nsg23
Nsg24
F-14.468
ssg25
I01
sba(iSong
Song
p656
(dp657
g3
(dp658
g5
F0.802
sg6
VBroken Bones
p659
sg8
F123.993
sg9
F0.486
sg10
S'blues'
p660
sg12
F0.193
sg13
VKaleo
p661
sg15
I9999
sg16
F0.779
sg17
Nsg18
F5.76e-05
sg19
Nsg20
Nsg21
F0.654
sg22
Nsg23
Nsg24
F-7.205
ssg25
I01
sba(iSong
Song
p662
(dp663
g3
(dp664
g5
F0.749
sg6
VWork Song
p665
sg8
F121.412
sg9
F0.363
sg10
S'blues'
p666
sg12
F0.0608
sg13
VHozier
p667
sg15
I9999
sg16
F0.531
sg17
Nsg18
I0
sg19
Nsg20
Nsg21
F0.259
sg22
Nsg23
Nsg24
F-7.672
ssg25
I01
sba(iSong
Song
p668
(dp669
g3
(dp670
g5
F0.991
sg6
VHow Long
p671
sg8
F143.479
sg9
F0.327
sg10
S'blues'
p672
sg12
F0.0981
sg13
VC.W. Stoneking
p673
sg15
I9999
sg16
F0.562
sg17
Nsg18
F0.0328
sg19
Nsg20
Nsg21
F0.802
sg22
Nsg23
Nsg24
F-11.319
ssg25
I01
sba(iSong
Song
p674
(dp675
g3
(dp676
g5
F0.454
sg6
VHeaven Sent
p677
sg8
F112.881
sg9
F0.281
sg10
S'blues'
p678
sg12
F0.0292
sg13
VParker Millsap
p679
sg15
I9999
sg16
F0.403
sg17
Nsg18
I0
sg19
Nsg20
Nsg21
F0.182
sg22
Nsg23
Nsg24
F-10.365
ssg25
I01
sba(iSong
Song
p680
(dp681
g3
(dp682
g5
F0.844
sg6
VHeaven Bent
p683
sg8
F124.113
sg9
F0.157
sg10
S'blues'
p684
sg12
F0.0437
sg13
VLady Lamb
p685
sg15
I9999
sg16
F0.492
sg17
Nsg18
I0
sg19
Nsg20
Nsg21
F0.131
sg22
Nsg23
Nsg24
F-8.732
ssg25
I01
sba(iSong
Song
p686
(dp687
g3
(dp688
g5
F0.763
sg6
VDarkwater
p689
sg8
F113.79
sg9
F0.277
sg10
S'blues'
p690
sg12
F0.0308
sg13
VSam Williams
p691
sg15
I9999
sg16
F0.629
sg17
Nsg18
F0.000147
sg19
Nsg20
Nsg21
F0.628
sg22
Nsg23
Nsg24
F-12.739
ssg25
I01
sba(iSong
Song
p692
(dp693
g3
(dp694
g5
F0.801
sg6
VLittle Jose
p695
sg8
F174.167
sg9
F0.2
sg10
S'blues'
p696
sg12
F0.0385
sg13
VGrey Reverend
p697
sg15
I9999
sg16
F0.354
sg17
Nsg18
F0.847
sg19
Nsg20
Nsg21
F0.228
sg22
Nsg23
Nsg24
F-15.781
ssg25
I01
sba(iSong
Song
p698
(dp699
g3
(dp700
g5
F0.955
sg6
VGold
p701
sg8
F123.874
sg9
F0.137
sg10
S'blues'
p702
sg12
F0.0378
sg13
VArum Rae
p703
sg15
I9999
sg16
F0.325
sg17
Nsg18
F0.144
sg19
Nsg20
Nsg21
F0.255
sg22
Nsg23
Nsg24
F-15.096
ssg25
I01
sba(iSong
Song
p704
(dp705
g3
(dp706
g5
F0.922
sg6
VBloodshot - Demo
p707
sg8
F75.458
sg9
F0.0838
sg10
S'blues'
p708
sg12
F0.0561
sg13
VAlbin Lee Meldau
p709
sg15
I9999
sg16
F0.483
sg17
Nsg18
F1.74e-05
sg19
Nsg20
Nsg21
F0.162
sg22
Nsg23
Nsg24
F-12.349
ssg25
I01
sba(iSong
Song
p710
(dp711
g3
(dp712
g5
F0.124
sg6
VSinging Saw
p713
sg8
F184.207
sg9
F0.513
sg10
S'blues'
p714
sg12
F0.0284
sg13
VKevin Morby
p715
sg15
I9999
sg16
F0.462
sg17
Nsg18
F0.205
sg19
Nsg20
Nsg21
F0.47
sg22
Nsg23
Nsg24
F-7.891
ssg25
I01
sba(iSong
Song
p716
(dp717
g3
(dp718
g5
F0.899
sg6
VOak Tree
p719
sg8
F100.956
sg9
F0.273
sg10
S'blues'
p720
sg12
F0.0304
sg13
VMirel Wagner
p721
sg15
I9999
sg16
F0.553
sg17
Nsg18
F0.442
sg19
Nsg20
Nsg21
F0.23
sg22
Nsg23
Nsg24
F-11.579
ssg25
I01
sba(iSong
Song
p722
(dp723
g3
(dp724
g5
F0.00203
sg6
VLittle Red Rooster
p725
sg8
F86.12
sg9
F0.709
sg10
S'blues'
p726
sg12
F0.0504
sg13
VDan Owen
p727
sg15
I9999
sg16
F0.217
sg17
Nsg18
F0.000442
sg19
Nsg20
Nsg21
F0.401
sg22
Nsg23
Nsg24
F-5.536
ssg25
I01
sba(iSong
Song
p728
(dp729
g3
(dp730
g5
F0.869
sg6
VBig Boss Man
p731
sg8
F139.918
sg9
F0.261
sg10
S'blues'
p732
sg12
F0.0511
sg13
VWhitehorse
p733
sg15
I9999
sg16
F0.588
sg17
Nsg18
F5.22e-05
sg19
Nsg20
Nsg21
F0.316
sg22
Nsg23
Nsg24
F-11.587
ssg25
I01
sba(iSong
Song
p734
(dp735
g3
(dp736
g5
F0.843
sg6
VBoneyard - Edit
p737
sg8
F106.538
sg9
F0.475
sg10
S'blues'
p738
sg12
F0.0265
sg13
VFink
p739
sg15
I9999
sg16
F0.386
sg17
Nsg18
F0.000106
sg19
Nsg20
Nsg21
F0.391
sg22
Nsg23
Nsg24
F-8.254
ssg25
I01
sba(iSong
Song
p740
(dp741
g3
(dp742
g5
F0.482
sg6
VMissing At Sea
p743
sg8
F124.356
sg9
F0.5
sg10
S'blues'
p744
sg12
F0.0266
sg13
VMaggie Bjorklund
p745
sg15
I9999
sg16
F0.497
sg17
Nsg18
F0.97
sg19
Nsg20
Nsg21
F0.263
sg22
Nsg23
Nsg24
F-9.099
ssg25
I01
sba(iSong
Song
p746
(dp747
g3
(dp748
g5
F0.139
sg6
VRed Right Hand - 2011 - Remaster
p749
sg8
F115.658
sg9
F0.403
sg10
S'blues'
p750
sg12
F0.037
sg13
VNick Cave & The Bad Seeds
p751
sg15
I9999
sg16
F0.735
sg17
Nsg18
F0.473
sg19
Nsg20
Nsg21
F0.453
sg22
Nsg23
Nsg24
F-11.599
ssg25
I01
sba(iSong
Song
p752
(dp753
g3
(dp754
g5
F0.868
sg6
VSlow Coming
p755
sg8
F121.011
sg9
F0.511
sg10
S'blues'
p756
sg12
F0.0481
sg13
VBenjamin Booker
p757
sg15
I9999
sg16
F0.375
sg17
Nsg18
F0.0138
sg19
Nsg20
Nsg21
F0.474
sg22
Nsg23
Nsg24
F-9.638
ssg25
I01
sba(iSong
Song
p758
(dp759
g3
(dp760
g5
F0.725
sg6
VAn Honest Man
p761
sg8
F129.919
sg9
F0.548
sg10
S'blues'
p762
sg12
F0.0521
sg13
VFantastic Negrito
p763
sg15
I9999
sg16
F0.735
sg17
Nsg18
I0
sg19
Nsg20
Nsg21
F0.391
sg22
Nsg23
Nsg24
F-4.747
ssg25
I01
sba(iSong
Song
p764
(dp765
g3
(dp766
g5
F0.0688
sg6
VCrocodile Tears
p767
sg8
F128.301
sg9
F0.561
sg10
S'blues'
p768
sg12
F0.0491
sg13
Vlittle hurricane
p769
sg15
I9999
sg16
F0.341
sg17
Nsg18
F0.0222
sg19
Nsg20
Nsg21
F0.333
sg22
Nsg23
Nsg24
F-9.763
ssg25
I01
sba(iSong
Song
p770
(dp771
g3
(dp772
g5
F0.655
sg6
VI Can't Go On Without You
p773
sg8
F91.88
sg9
F0.267
sg10
S'blues'
p774
sg12
F0.0428
sg13
VKaleo
p775
sg15
I9999
sg16
F0.368
sg17
Nsg18
F2.24e-05
sg19
Nsg20
Nsg21
F0.194
sg22
Nsg23
Nsg24
F-9.395
ssg25
I01
sba(iSong
Song
p776
(dp777
g3
(dp778
g5
F0.403
sg6
VTo Be Alone
p779
sg8
F67.05
sg9
F0.443
sg10
S'blues'
p780
sg12
F0.0259
sg13
VHozier
p781
sg15
I9999
sg16
F0.559
sg17
Nsg18
F0.000183
sg19
Nsg20
Nsg21
F0.264
sg22
Nsg23
Nsg24
F-6.52
ssg25
I01
sba(iSong
Song
p782
(dp783
g3
(dp784
g5
F0.634
sg6
VWild Horses - Acoustic
p785
sg8
F129.965
sg9
F0.27
sg10
S'blues'
p786
sg12
F0.0349
sg13
VBishop Briggs
p787
sg15
I9999
sg16
F0.719
sg17
Nsg18
I0
sg19
Nsg20
Nsg21
F0.299
sg22
Nsg23
Nsg24
F-10.534
ssg25
I01
sba(iSong
Song
p788
(dp789
g3
(dp790
g5
F0.777
sg6
VThe Dirt
p791
sg8
F100.474
sg9
F0.092
sg10
S'blues'
p792
sg12
F0.158
sg13
VMirel Wagner
p793
sg15
I9999
sg16
F0.617
sg17
Nsg18
F0.00613
sg19
Nsg20
Nsg21
F0.17
sg22
Nsg23
Nsg24
F-15.775
ssg25
I01
sba(iSong
Song
p794
(dp795
g3
(dp796
g5
F0.197
sg6
VCome on in My Kitchen
p797
sg8
F111.056
sg9
F0.623
sg10
S'blues'
p798
sg12
F0.0406
sg13
VWhitehorse
p799
sg15
I9999
sg16
F0.481
sg17
Nsg18
F0.0678
sg19
Nsg20
Nsg21
F0.622
sg22
Nsg23
Nsg24
F-5.877
ssg25
I01
sba(iSong
Song
p800
(dp801
g3
(dp802
g5
F0.942
sg6
VThe Mark - Live Solo
p803
sg8
F104.575
sg9
F0.0591
sg10
S'blues'
p804
sg12
F0.0325
sg13
VCold Specks
p805
sg15
I9999
sg16
F0.469
sg17
Nsg18
I0
sg19
Nsg20
Nsg21
F0.128
sg22
Nsg23
Nsg24
F-16.562
ssg25
I01
sba(iSong
Song
p806
(dp807
g3
(dp808
g5
F0.936
sg6
VForget - Live From Spotify NYC
p809
sg8
F96.045
sg9
F0.38
sg10
S'blues'
p810
sg12
F0.0988
sg13
VLianne La Havas
p811
sg15
I9999
sg16
F0.558
sg17
Nsg18
F0.000228
sg19
Nsg20
Nsg21
F0.485
sg22
Nsg23
Nsg24
F-12.971
ssg25
I01
sba(iSong
Song
p812
(dp813
g3
(dp814
g5
F0.915
sg6
VI Thought I Heard You Screaming
p815
sg8
F98.68
sg9
F0.0734
sg10
S'blues'
p816
sg12
F0.0319
sg13
VBenjamin Booker
p817
sg15
I9999
sg16
F0.535
sg17
Nsg18
F2.31e-05
sg19
Nsg20
Nsg21
F0.321
sg22
Nsg23
Nsg24
F-15.684
ssg25
I01
sba(iSong
Song
p818
(dp819
g3
(dp820
g5
F0.715
sg6
VLump in Your Throat - Radio Edit
p821
sg8
F120.034
sg9
F0.467
sg10
S'blues'
p822
sg12
F0.0305
sg13
VAndrea Bignasca
p823
sg15
I9999
sg16
F0.677
sg17
Nsg18
F0.0351
sg19
Nsg20
Nsg21
F0.452
sg22
Nsg23
Nsg24
F-7.993
ssg25
I01
sba(iSong
Song
p824
(dp825
g3
(dp826
g5
F0.464
sg6
VHoneysuckle Reel
p827
sg8
F115.496
sg9
F0.414
sg10
S'blues'
p828
sg12
F0.0368
sg13
VDaniel Bachman
p829
sg15
I9999
sg16
F0.314
sg17
Nsg18
F0.939
sg19
Nsg20
Nsg21
F0.388
sg22
Nsg23
Nsg24
F-12.927
ssg25
I01
sba(iSong
Song
p830
(dp831
g3
(dp832
g5
F0.558
sg6
VBy The Evening
p833
sg8
F173.737
sg9
F0.328
sg10
S'blues'
p834
sg12
F0.0364
sg13
VBenjamin Booker
p835
sg15
I9999
sg16
F0.33
sg17
Nsg18
F0.00114
sg19
Nsg20
Nsg21
F0.332
sg22
Nsg23
Nsg24
F-9.673
ssg25
I01
sba(iSong
Song
p836
(dp837
g3
(dp838
g5
F0.0046
sg6
VLazaretto
p839
sg8
F118.214
sg9
F0.838
sg10
S'blues'
p840
sg12
F0.0709
sg13
VJack White
p841
sg15
I9999
sg16
F0.381
sg17
Nsg18
F3.77e-05
sg19
Nsg20
Nsg21
F0.581
sg22
Nsg23
Nsg24
F-6.562
ssg25
I01
sba(iSong
Song
p842
(dp843
g3
(dp844
g5
F0.00274
sg6
VShake It
p845
sg8
F78.996
sg9
F0.811
sg10
S'blues'
p846
sg12
F0.0786
sg13
VSteve Smyth
p847
sg15
I9999
sg16
F0.449
sg17
Nsg18
F4.03e-05
sg19
Nsg20
Nsg21
F0.274
sg22
Nsg23
Nsg24
F-5.938
ssg25
I01
sba(iSong
Song
p848
(dp849
g3
(dp850
g5
F0.404
sg6
VIt Will Come Back
p851
sg8
F173.893
sg9
F0.441
sg10
S'blues'
p852
sg12
F0.0397
sg13
VHozier
p853
sg15
I9999
sg16
F0.36
sg17
Nsg18
F4.93e-06
sg19
Nsg20
Nsg21
F0.201
sg22
Nsg23
Nsg24
F-7.664
ssg25
I01
sba(iSong
Song
p854
(dp855
g3
(dp856
g5
F0.602
sg6
VDon't Need It
p857
sg8
F113.111
sg9
F0.739
sg10
S'blues'
p858
sg12
F0.0383
sg13
VWilliam Elliott Whitmore
p859
sg15
I9999
sg16
F0.761
sg17
Nsg18
F1.78e-06
sg19
Nsg20
Nsg21
F0.392
sg22
Nsg23
Nsg24
F-9.494
ssg25
I01
sba(iSong
Song
p860
(dp861
g3
(dp862
g5
F0.188
sg6
VTop Yourself
p863
sg8
F85.899
sg9
F0.727
sg10
S'blues'
p864
sg12
F0.058
sg13
VThe Raconteurs
p865
sg15
I9999
sg16
F0.505
sg17
Nsg18
F0.000826
sg19
Nsg20
Nsg21
F0.254
sg22
Nsg23
Nsg24
F-5.391
ssg25
I01
sba(iSong
Song
p866
(dp867
g3
(dp868
g5
F0.575
sg6
VNo Sugar In My Coffee
p869
sg8
F85.035
sg9
F0.576
sg10
S'blues'
p870
sg12
F0.224
sg13
VCaught A Ghost
p871
sg15
I9999
sg16
F0.719
sg17
Nsg18
F1.03e-05
sg19
Nsg20
Nsg21
F0.429
sg22
Nsg23
Nsg24
F-6.363
ssg25
I01
sba(iSong
Song
p872
(dp873
g3
(dp874
g5
F0.0762
sg6
VBang Bang Bang
p875
sg8
F142.057
sg9
F0.62
sg10
S'blues'
p876
sg12
F0.0362
sg13
VDorothy
p877
sg15
I9999
sg16
F0.455
sg17
Nsg18
F0.015
sg19
Nsg20
Nsg21
F0.297
sg22
Nsg23
Nsg24
F-5.4
ssg25
I01
sba(iSong
Song
p878
(dp879
g3
(dp880
g5
F0.0657
sg6
VAin't No Easy Way
p881
sg8
F95.786
sg9
F0.947
sg10
S'blues'
p882
sg12
F0.0457
sg13
VBlack Rebel Motorcycle Club
p883
sg15
I9999
sg16
F0.532
sg17
Nsg18
F1.49e-06
sg19
Nsg20
Nsg21
F0.748
sg22
Nsg23
Nsg24
F-4.2
ssg25
I01
sba(iSong
Song
p884
(dp885
g3
(dp886
g5
F0.761
sg6
VLittle Lady Blues
p887
sg8
F137.208
sg9
F0.328
sg10
S'blues'
p888
sg12
F0.045
sg13
VDaniel Bachman
p889
sg15
I9999
sg16
F0.407
sg17
Nsg18
F0.772
sg19
Nsg20
Nsg21
F0.349
sg22
Nsg23
Nsg24
F-9.04
ssg25
I01
sba(iSong
Song
p890
(dp891
g3
(dp892
g5
F0.224
sg6
VHenry Nearly Killed Me (It's a Shame)
p893
sg8
F134.796
sg9
F0.599
sg10
S'blues'
p894
sg12
F0.033
sg13
VRay LaMontagne
p895
sg15
I9999
sg16
F0.538
sg17
Nsg18
F0.0703
sg19
Nsg20
Nsg21
F0.429
sg22
Nsg23
Nsg24
F-9.512
ssg25
I01
sba(iSong
Song
p896
(dp897
g3
(dp898
g5
F0.358
sg6
VGone Forever
p899
sg8
F96.155
sg9
F0.729
sg10
S'blues'
p900
sg12
F0.0316
sg13
VMick Flannery
p901
sg15
I9999
sg16
F0.621
sg17
Nsg18
I0
sg19
Nsg20
Nsg21
F0.767
sg22
Nsg23
Nsg24
F-5.447
ssg25
I01
sba(iSong
Song
p902
(dp903
g3
(dp904
g5
F0.878
sg6
VMy Love Will Never Die
p905
sg8
F84.46
sg9
F0.0532
sg10
S'blues'
p906
sg12
F0.0318
sg13
VHozier
p907
sg15
I9999
sg16
F0.613
sg17
Nsg18
F0.0113
sg19
Nsg20
Nsg21
F0.218
sg22
Nsg23
Nsg24
F-14.7
ssg25
I01
sba(iSong
Song
p908
(dp909
g3
(dp910
g5
F0.202
sg6
VOld Number Seven
p911
sg8
F142.454
sg9
F0.427
sg10
S'blues'
p912
sg12
F0.0405
sg13
VThe Devil Makes Three
p913
sg15
I9999
sg16
F0.571
sg17
Nsg18
I0
sg19
Nsg20
Nsg21
F0.894
sg22
Nsg23
Nsg24
F-7.574
ssg25
I01
sba(iSong
Song
p914
(dp915
g3
(dp916
g5
F0.2
sg6
VNight Has Turned to Day
p917
sg8
F204.924
sg9
F0.675
sg10
S'blues'
p918
sg12
F0.286
sg13
VFantastic Negrito
p919
sg15
I9999
sg16
F0.522
sg17
Nsg18
I0
sg19
Nsg20
Nsg21
F0.588
sg22
Nsg23
Nsg24
F-5.139
ssg25
I01
sba(iSong
Song
p920
(dp921
g3
(dp922
g5
F0.126
sg6
VThree More Days
p923
sg8
F83.91
sg9
F0.681
sg10
S'blues'
p924
sg12
F0.0328
sg13
VRay LaMontagne
p925
sg15
I9999
sg16
F0.56
sg17
Nsg18
F0.000889
sg19
Nsg20
Nsg21
F0.901
sg22
Nsg23
Nsg24
F-8.358
ssg25
I01
sba(iSong
Song
p926
(dp927
g3
(dp928
g5
F0.725
sg6
V1922 Blues
p929
sg8
F117.511
sg9
F0.715
sg10
S'blues'
p930
sg12
F0.0341
sg13
VCharlie Parr
p931
sg15
I9999
sg16
F0.466
sg17
Nsg18
F0.353
sg19
Nsg20
Nsg21
F0.824
sg22
Nsg23
Nsg24
F-7.608
ssg25
I01
sba(iSong
Song
p932
(dp933
g3
(dp934
g5
F0.47
sg6
VCrazy Woman
p935
sg8
F98.584
sg9
F0.704
sg10
S'blues'
p936
sg12
F0.0589
sg13
VJoseph LeMay
p937
sg15
I9999
sg16
F0.633
sg17
Nsg18
F0.00047
sg19
Nsg20
Nsg21
F0.742
sg22
Nsg23
Nsg24
F-7.412
ssg25
I01
sba(iSong
Song
p938
(dp939
g3
(dp940
g5
F0.342
sg6
VTrouble
p941
sg8
F173.24
sg9
F0.425
sg10
S'blues'
p942
sg12
F0.0455
sg13
VRay LaMontagne
p943
sg15
I9999
sg16
F0.321
sg17
Nsg18
F0.000262
sg19
Nsg20
Nsg21
F0.493
sg22
Nsg23
Nsg24
F-12.73
ssg25
I01
sba(iSong
Song
p944
(dp945
g3
(dp946
g5
F0.962
sg6
VJohnny law
p947
sg8
F107.753
sg9
F0.322
sg10
S'blues'
p948
sg12
F0.06
sg13
VWilliam Elliott Whitmore
p949
sg15
I9999
sg16
F0.687
sg17
Nsg18
I0
sg19
Nsg20
Nsg21
F0.312
sg22
Nsg23
Nsg24
F-13.015
ssg25
I01
sba(iSong
Song
p950
(dp951
g3
(dp952
g5
F0.000943
sg6
VHoney Forgive Me
p953
sg8
F93.057
sg9
F0.932
sg10
S'blues'
p954
sg12
F0.034
sg13
VJared James Nichols
p955
sg15
I9999
sg16
F0.596
sg17
Nsg18
F0.0178
sg19
Nsg20
Nsg21
F0.839
sg22
Nsg23
Nsg24
F-4.331
ssg25
I01
sba(iSong
Song
p956
(dp957
g3
(dp958
g5
F0.00194
sg6
VU got 2 believe
p959
sg8
F92.984
sg9
F0.908
sg10
S'blues'
p960
sg12
F0.0551
sg13
VPaulo Mendonca
p961
sg15
I9999
sg16
F0.616
sg17
Nsg18
F0.00235
sg19
Nsg20
Nsg21
F0.808
sg22
Nsg23
Nsg24
F-6.867
ssg25
I01
sba(iSong
Song
p962
(dp963
g3
(dp964
g5
F0.00032
sg6
VTrue Lies
p965
sg8
F173.186
sg9
F0.769
sg10
S'blues'
p966
sg12
F0.0317
sg13
VKenny Wayne Shepherd
p967
sg15
I9999
sg16
F0.367
sg17
Nsg18
F0.628
sg19
Nsg20
Nsg21
F0.7
sg22
Nsg23
Nsg24
F-7.258
ssg25
I01
sba(iSong
Song
p968
(dp969
g3
(dp970
g5
F0.187
sg6
VHump Thru the Winter
p971
sg8
F76.018
sg9
F0.697
sg10
S'blues'
p972
sg12
F0.164
sg13
VFantastic Negrito
p973
sg15
I9999
sg16
F0.734
sg17
Nsg18
I0
sg19
Nsg20
Nsg21
F0.537
sg22
Nsg23
Nsg24
F-5.573
ssg25
I01
sba(iSong
Song
p974
(dp975
g3
(dp976
g5
F0.00321
sg6
VLong Coal Train
p977
sg8
F138.034
sg9
F0.843
sg10
S'blues'
p978
sg12
F0.094
sg13
VBig Head Todd and The Monsters
p979
sg15
I9999
sg16
F0.58
sg17
Nsg18
F0.112
sg19
Nsg20
Nsg21
F0.666
sg22
Nsg23
Nsg24
F-5.575
ssg25
I01
sba(iSong
Song
p980
(dp981
g3
(dp982
g5
F3.71e-05
sg6
VMake It Easy
p983
sg8
F123.928
sg9
F0.908
sg10
S'blues'
p984
sg12
F0.0561
sg13
VRichie Kotzen
p985
sg15
I9999
sg16
F0.505
sg17
Nsg18
F0.0092
sg19
Nsg20
Nsg21
F0.494
sg22
Nsg23
Nsg24
F-4.717
ssg25
I01
sba(iSong
Song
p986
(dp987
g3
(dp988
g5
F0.0315
sg6
VLove Is
p989
sg8
F99.006
sg9
F0.776
sg10
S'blues'
p990
sg12
F0.0645
sg13
VTommy Castro
p991
sg15
I9999
sg16
F0.76
sg17
Nsg18
F0.000124
sg19
Nsg20
Nsg21
F0.935
sg22
Nsg23
Nsg24
F-5.094
ssg25
I01
sba(iSong
Song
p992
(dp993
g3
(dp994
g5
F0.000697
sg6
VShake It
p995
sg8
F185.923
sg9
F0.964
sg10
S'blues'
p996
sg12
F0.12
sg13
VRobert Randolph & The Family Band
p997
sg15
I9999
sg16
F0.351
sg17
Nsg18
F0.0304
sg19
Nsg20
Nsg21
F0.496
sg22
Nsg23
Nsg24
F-3.745
ssg25
I01
sba(iSong
Song
p998
(dp999
g3
(dp1000
g5
F0.219
sg6
VStronger
p1001
sg8
F97.027
sg9
F0.676
sg10
S'blues'
p1002
sg12
F0.0307
sg13
VJessy Martens and Band
p1003
sg15
I9999
sg16
F0.718
sg17
Nsg18
F0.000167
sg19
Nsg20
Nsg21
F0.595
sg22
Nsg23
Nsg24
F-7.442
ssg25
I01
sba(iSong
Song
p1004
(dp1005
g3
(dp1006
g5
F0.00683
sg6
VMorning Star
p1007
sg8
F78.157
sg9
F0.913
sg10
S'blues'
p1008
sg12
F0.0713
sg13
VPhilip Sayce Group
p1009
sg15
I9999
sg16
F0.393
sg17
Nsg18
F0.00328
sg19
Nsg20
Nsg21
F0.651
sg22
Nsg23
Nsg24
F-5.009
ssg25
I01
sba(iSong
Song
p1010
(dp1011
g3
(dp1012
g5
F0.0371
sg6
VDiamonds & Gold
p1013
sg8
F92.04
sg9
F0.846
sg10
S'blues'
p1014
sg12
F0.0339
sg13
VKenny Wayne Shepherd
p1015
sg15
I9999
sg16
F0.574
sg17
Nsg18
F4.08e-05
sg19
Nsg20
Nsg21
F0.794
sg22
Nsg23
Nsg24
F-5.703
ssg25
I01
sba(iSong
Song
p1016
(dp1017
g3
(dp1018
g5
F0.736
sg6
VCarry Yourself
p1019
sg8
F85.962
sg9
F0.575
sg10
S'blues'
p1020
sg12
F0.0303
sg13
VEric Gales
p1021
sg15
I9999
sg16
F0.675
sg17
Nsg18
F0.0171
sg19
Nsg20
Nsg21
F0.778
sg22
Nsg23
Nsg24
F-4.896
ssg25
I01
sba(iSong
Song
p1022
(dp1023
g3
(dp1024
g5
F0.00229
sg6
VOpenness
p1025
sg8
F169.869
sg9
F0.891
sg10
S'blues'
p1026
sg12
F0.0621
sg13
VHenrik Freischlader Trio
p1027
sg15
I9999
sg16
F0.454
sg17
Nsg18
F0.0135
sg19
Nsg20
Nsg21
F0.752
sg22
Nsg23
Nsg24
F-5.101
ssg25
I01
sba(iSong
Song
p1028
(dp1029
g3
(dp1030
g5
F0.43
sg6
VJust in case
p1031
sg8
F84.881
sg9
F0.969
sg10
S'blues'
p1032
sg12
F0.0915
sg13
VPaulo Mendonca
p1033
sg15
I9999
sg16
F0.536
sg17
Nsg18
F1.26e-06
sg19
Nsg20
Nsg21
F0.805
sg22
Nsg23
Nsg24
F-2.62
ssg25
I01
sba(iSong
Song
p1034
(dp1035
g3
(dp1036
g5
F0.000455
sg6
VBuilt For Comfort
p1037
sg8
F162.838
sg9
F0.88
sg10
S'blues'
p1038
sg12
F0.0963
sg13
VBlack Stone Cherry
p1039
sg15
I9999
sg16
F0.333
sg17
Nsg18
F0.135
sg19
Nsg20
Nsg21
F0.49
sg22
Nsg23
Nsg24
F-3.08
ssg25
I01
sba(iSong
Song
p1040
(dp1041
g3
(dp1042
g5
F0.00703
sg6
VThe Answer
p1043
sg8
F115.964
sg9
F0.648
sg10
S'blues'
p1044
sg12
F0.0294
sg13
VTony Spinner
p1045
sg15
I9999
sg16
F0.676
sg17
Nsg18
F0.00137
sg19
Nsg20
Nsg21
F0.889
sg22
Nsg23
Nsg24
F-6.456
ssg25
I01
sba(iSong
Song
p1046
(dp1047
g3
(dp1048
g5
F0.00279
sg6
VHighway Jones
p1049
sg8
F127.748
sg9
F0.675
sg10
S'blues'
p1050
sg12
F0.0379
sg13
VCry Of Love
p1051
sg15
I9999
sg16
F0.611
sg17
Nsg18
F0.00628
sg19
Nsg20
Nsg21
F0.606
sg22
Nsg23
Nsg24
F-10.327
ssg25
I01
sba(iSong
Song
p1052
(dp1053
g3
(dp1054
g5
F0.075
sg6
VStand Tall
p1055
sg8
F183.8
sg9
F0.679
sg10
S'blues'
p1056
sg12
F0.0684
sg13
VRichie Kotzen
p1057
sg15
I9999
sg16
F0.606
sg17
Nsg18
F0.00274
sg19
Nsg20
Nsg21
F0.964
sg22
Nsg23
Nsg24
F-6.091
ssg25
I01
sba(iSong
Song
p1058
(dp1059
g3
(dp1060
g5
F0.007
sg6
VFind a Way
p1061
sg8
F154.001
sg9
F0.78
sg10
S'blues'
p1062
sg12
F0.0479
sg13
VRobert Randolph & The Family Band
p1063
sg15
I9999
sg16
F0.442
sg17
Nsg18
I0
sg19
Nsg20
Nsg21
F0.666
sg22
Nsg23
Nsg24
F-5.576
ssg25
I01
sba(iSong
Song
p1064
(dp1065
g3
(dp1066
g5
F0.00357
sg6
VChills & Thrills
p1067
sg8
F116.175
sg9
F0.657
sg10
S'blues'
p1068
sg12
F0.0429
sg13
VBernard Allison
p1069
sg15
I9999
sg16
F0.723
sg17
Nsg18
F0.0179
sg19
Nsg20
Nsg21
F0.803
sg22
Nsg23
Nsg24
F-5.372
ssg25
I01
sba(iSong
Song
p1070
(dp1071
g3
(dp1072
g5
F0.112
sg6
VDon't Be a Fool
p1073
sg8
F118.001
sg9
F0.878
sg10
S'blues'
p1074
sg12
F0.0396
sg13
VSimon McBride
p1075
sg15
I9999
sg16
F0.604
sg17
Nsg18
F0.0282
sg19
Nsg20
Nsg21
F0.705
sg22
Nsg23
Nsg24
F-5.294
ssg25
I01
sba(iSong
Song
p1076
(dp1077
g3
(dp1078
g5
F0.0753
sg6
VShe Was a Doorman
p1079
sg8
F186.223
sg9
F0.897
sg10
S'blues'
p1080
sg12
F0.131
sg13
VAna Popovic
p1081
sg15
I9999
sg16
F0.429
sg17
Nsg18
F2.23e-05
sg19
Nsg20
Nsg21
F0.823
sg22
Nsg23
Nsg24
F-4.1
ssg25
I01
sba(iSong
Song
p1082
(dp1083
g3
(dp1084
g5
F0.0602
sg6
VWell Run Dry
p1085
sg8
F125.039
sg9
F0.914
sg10
S'blues'
p1086
sg12
F0.0749
sg13
VPhat Phunktion
p1087
sg15
I9999
sg16
F0.71
sg17
Nsg18
F0.00377
sg19
Nsg20
Nsg21
F0.742
sg22
Nsg23
Nsg24
F-3.592
ssg25
I01
sba(iSong
Song
p1088
(dp1089
g3
(dp1090
g5
F0.02
sg6
VSailin' Shoes
p1091
sg8
F94.518
sg9
F0.913
sg10
S'blues'
p1092
sg12
F0.0594
sg13
VPhilip Sayce
p1093
sg15
I9999
sg16
F0.473
sg17
Nsg18
F0.000109
sg19
Nsg20
Nsg21
F0.594
sg22
Nsg23
Nsg24
F-6.05
ssg25
I01
sba(iSong
Song
p1094
(dp1095
g3
(dp1096
g5
F0.0175
sg6
VPoint of View
p1097
sg8
F202.18
sg9
F0.924
sg10
S'blues'
p1098
sg12
F0.0497
sg13
VHenrik Freischlader
p1099
sg15
I9999
sg16
F0.317
sg17
Nsg18
F0.000148
sg19
Nsg20
Nsg21
F0.701
sg22
Nsg23
Nsg24
F-3.369
ssg25
I01
sba(iSong
Song
p1100
(dp1101
g3
(dp1102
g5
F0.295
sg6
VLove Sweet Love
p1103
sg8
F110.978
sg9
F0.777
sg10
S'blues'
p1104
sg12
F0.0262
sg13
VAnthony Gomes
p1105
sg15
I9999
sg16
F0.612
sg17
Nsg18
I0
sg19
Nsg20
Nsg21
F0.857
sg22
Nsg23
Nsg24
F-2.843
ssg25
I01
sba(iSong
Song
p1106
(dp1107
g3
(dp1108
g5
F0.0971
sg6
VBig Mouth
p1109
sg8
F99.37
sg9
F0.743
sg10
S'blues'
p1110
sg12
F0.0349
sg13
VMike Zito
p1111
sg15
I9999
sg16
F0.604
sg17
Nsg18
F0.000131
sg19
Nsg20
Nsg21
F0.823
sg22
Nsg23
Nsg24
F-6.442
ssg25
I01
sba(iSong
Song
p1112
(dp1113
g3
(dp1114
g5
F0.133
sg6
VGo Faster
p1115
sg8
F118.09
sg9
F0.939
sg10
S'blues'
p1116
sg12
F0.0554
sg13
VRichie Kotzen
p1117
sg15
I9999
sg16
F0.504
sg17
Nsg18
F0.00758
sg19
Nsg20
Nsg21
F0.741
sg22
Nsg23
Nsg24
F-1.786
ssg25
I01
sba(iSong
Song
p1118
(dp1119
g3
(dp1120
g5
F0.0846
sg6
VFew And Far Between
p1121
sg8
F190.415
sg9
F0.627
sg10
S'blues'
p1122
sg12
F0.122
sg13
VShannon Curfman
p1123
sg15
I9999
sg16
F0.574
sg17
Nsg18
I0
sg19
Nsg20
Nsg21
F0.864
sg22
Nsg23
Nsg24
F-6.182
ssg25
I01
sba(iSong
Song
p1124
(dp1125
g3
(dp1126
g5
F0.212
sg6
VOpen Road
p1127
sg8
F92.01
sg9
F0.576
sg10
S'blues'
p1128
sg12
F0.0565
sg13
VOli Brown
p1129
sg15
I9999
sg16
F0.628
sg17
Nsg18
F4.47e-05
sg19
Nsg20
Nsg21
F0.693
sg22
Nsg23
Nsg24
F-4.694
ssg25
I01
sba(iSong
Song
p1130
(dp1131
g3
(dp1132
g5
F0.0143
sg6
VLife On The Outside
p1133
sg8
F106.789
sg9
F0.99
sg10
S'blues'
p1134
sg12
F0.125
sg13
VGov't Mule
p1135
sg15
I9999
sg16
F0.498
sg17
Nsg18
F0.0258
sg19
Nsg20
Nsg21
F0.394
sg22
Nsg23
Nsg24
F-2.721
ssg25
I01
sba(iSong
Song
p1136
(dp1137
g3
(dp1138
g5
F0.16
sg6
VBefore You Hit The Ground
p1139
sg8
F92.169
sg9
F0.876
sg10
S'blues'
p1140
sg12
F0.0873
sg13
VJonny Lang
p1141
sg15
I9999
sg16
F0.724
sg17
Nsg18
F0.00278
sg19
Nsg20
Nsg21
F0.812
sg22
Nsg23
Nsg24
F-5.854
ssg25
I01
sba(iSong
Song
p1142
(dp1143
g3
(dp1144
g5
F0.00371
sg6
VMotivational Speaker
p1145
sg8
F101.517
sg9
F0.849
sg10
S'blues'
p1146
sg12
F0.0389
sg13
VAlvin Youngblood Hart
p1147
sg15
I9999
sg16
F0.608
sg17
Nsg18
F0.0259
sg19
Nsg20
Nsg21
F0.644
sg22
Nsg23
Nsg24
F-6.66
ssg25
I01
sba(iSong
Song
p1148
(dp1149
g3
(dp1150
g5
F0.000197
sg6
VFunky Guitar Blues
p1151
sg8
F114.894
sg9
F0.871
sg10
S'blues'
p1152
sg12
F0.029
sg13
VBryce Janey
p1153
sg15
I9999
sg16
F0.563
sg17
Nsg18
F0.0128
sg19
Nsg20
Nsg21
F0.517
sg22
Nsg23
Nsg24
F-5.825
ssg25
I01
sba(iSong
Song
p1154
(dp1155
g3
(dp1156
g5
F0.0203
sg6
VWho Do You Love?
p1157
sg8
F104.014
sg9
F0.648
sg10
S'blues'
p1158
sg12
F0.0382
sg13
VJoanne Shaw Taylor
p1159
sg15
I9999
sg16
F0.629
sg17
Nsg18
F0.0356
sg19
Nsg20
Nsg21
F0.691
sg22
Nsg23
Nsg24
F-14.063
ssg25
I01
sba(iSong
Song
p1160
(dp1161
g3
(dp1162
g5
F0.251
sg6
VT.C.B. or T.Y.A.
p1163
sg8
F104.069
sg9
F0.958
sg10
S'blues'
p1164
sg12
F0.154
sg13
VEdwin McCain
p1165
sg15
I9999
sg16
F0.74
sg17
Nsg18
F5.84e-06
sg19
Nsg20
Nsg21
F0.83
sg22
Nsg23
Nsg24
F-2.236
ssg25
I01
sba(iSong
Song
p1166
(dp1167
g3
(dp1168
g5
F0.0766
sg6
VVixen Eyes
p1169
sg8
F110.052
sg9
F0.873
sg10
S'blues'
p1170
sg12
F0.0538
sg13
VGugun Power Trio
p1171
sg15
I9999
sg16
F0.688
sg17
Nsg18
F0.00173
sg19
Nsg20
Nsg21
F0.905
sg22
Nsg23
Nsg24
F-7.448
ssg25
I01
sba(iSong
Song
p1172
(dp1173
g3
(dp1174
g5
F0.000233
sg6
VSoul On Fire
p1175
sg8
F131.54
sg9
F0.858
sg10
S'blues'
p1176
sg12
F0.0392
sg13
VSaint Jude
p1177
sg15
I9999
sg16
F0.46
sg17
Nsg18
F6.72e-05
sg19
Nsg20
Nsg21
F0.502
sg22
Nsg23
Nsg24
F-4.495
ssg25
I01
sba(iSong
Song
p1178
(dp1179
g3
(dp1180
g5
F0.0132
sg6
VWalkin' The Dawg
p1181
sg8
F87.377
sg9
F0.923
sg10
S'blues'
p1182
sg12
F0.0474
sg13
VTony Spinner
p1183
sg15
I9999
sg16
F0.626
sg17
Nsg18
F0.000771
sg19
Nsg20
Nsg21
F0.845
sg22
Nsg23
Nsg24
F-4.448
ssg25
I01
sba(iSong
Song
p1184
(dp1185
g3
(dp1186
g5
F0.0929
sg6
VLives That Don't Exist
p1187
sg8
F100.61
sg9
F0.92
sg10
S'blues'
p1188
sg12
F0.0849
sg13
VAna Popovic
p1189
sg15
I9999
sg16
F0.715
sg17
Nsg18
I0
sg19
Nsg20
Nsg21
F0.798
sg22
Nsg23
Nsg24
F-4.189
ssg25
I01
sba(iSong
Song
p1190
(dp1191
g3
(dp1192
g5
F0.0582
sg6
VDark Side Of Love
p1193
sg8
F118.079
sg9
F0.879
sg10
S'blues'
p1194
sg12
F0.0469
sg13
VKenny Wayne Shepherd
p1195
sg15
I9999
sg16
F0.525
sg17
Nsg18
F0.00396
sg19
Nsg20
Nsg21
F0.842
sg22
Nsg23
Nsg24
F-4.927
ssg25
I01
sba(iSong
Song
p1196
(dp1197
g3
(dp1198
g5
F0.00178
sg6
VHoney
p1199
sg8
F167.25
sg9
F0.887
sg10
S'blues'
p1200
sg12
F0.0497
sg13
VPaulo Mendonca
p1201
sg15
I9999
sg16
F0.467
sg17
Nsg18
I0
sg19
Nsg20
Nsg21
F0.756
sg22
Nsg23
Nsg24
F-5.247
ssg25
I01
sba(iSong
Song
p1202
(dp1203
g3
(dp1204
g5
F0.000744
sg6
VLove Ain't a Love Song
p1205
sg8
F94.414
sg9
F0.944
sg10
S'blues'
p1206
sg12
F0.0686
sg13
VJoe Bonamassa
p1207
sg15
I9999
sg16
F0.471
sg17
Nsg18
F0.000587
sg19
Nsg20
Nsg21
F0.763
sg22
Nsg23
Nsg24
F-4.673
ssg25
I01
sba(iSong
Song
p1208
(dp1209
g3
(dp1210
g5
F0.194
sg6
VGroove With Me
p1211
sg8
F99.523
sg9
F0.689
sg10
S'blues'
p1212
sg12
F0.0715
sg13
VBernard Allison
p1213
sg15
I9999
sg16
F0.816
sg17
Nsg18
F0.0322
sg19
Nsg20
Nsg21
F0.567
sg22
Nsg23
Nsg24
F-5.793
ssg25
I01
sba(iSong
Song
p1214
(dp1215
g3
(dp1216
g5
F0.815
sg6
VDiving Duck Blues
p1217
sg8
F131.572
sg9
F0.269
sg10
S'blues'
p1218
sg12
F0.0394
sg13
VTaj Mahal
p1219
sg15
I9999
sg16
F0.616
sg17
Nsg18
I0
sg19
Nsg20
Nsg21
F0.696
sg22
Nsg23
Nsg24
F-11.631
ssg25
I01
sba(iSong
Song
p1220
(dp1221
g3
(dp1222
g5
F0.814
sg6
VBumble Bee (Live)
p1223
sg8
F75.727
sg9
F0.244
sg10
S'blues'
p1224
sg12
F0.063
sg13
VDani Wilde
p1225
sg15
I9999
sg16
F0.471
sg17
Nsg18
F4.25e-05
sg19
Nsg20
Nsg21
F0.444
sg22
Nsg23
Nsg24
F-9.023
ssg25
I01
sba(iSong
Song
p1226
(dp1227
g3
(dp1228
g5
F0.716
sg6
VNo Expectations
p1229
sg8
F84.462
sg9
F0.28
sg10
S'blues'
p1230
sg12
F0.0361
sg13
VGeorge Thorogood
p1231
sg15
I9999
sg16
F0.47
sg17
Nsg18
F0.0029
sg19
Nsg20
Nsg21
F0.261
sg22
Nsg23
Nsg24
F-9.093
ssg25
I01
sba(iSong
Song
p1232
(dp1233
g3
(dp1234
g5
F0.913
sg6
VKansas City Blues
p1235
sg8
F79.576
sg9
F0.276
sg10
S'blues'
p1236
sg12
F0.0481
sg13
VSteve Howell
p1237
sg15
I9999
sg16
F0.584
sg17
Nsg18
F0.000562
sg19
Nsg20
Nsg21
F0.398
sg22
Nsg23
Nsg24
F-12.256
ssg25
I01
sba(iSong
Song
p1238
(dp1239
g3
(dp1240
g5
F0.872
sg6
VDelta Getaway
p1241
sg8
F99.304
sg9
F0.281
sg10
S'blues'
p1242
sg12
F0.0489
sg13
VEric Bibb
p1243
sg15
I9999
sg16
F0.778
sg17
Nsg18
F0.00878
sg19
Nsg20
Nsg21
F0.783
sg22
Nsg23
Nsg24
F-12.993
ssg25
I01
sba(iSong
Song
p1244
(dp1245
g3
(dp1246
g5
F0.816
sg6
VBreak My Fall
p1247
sg8
F139.308
sg9
F0.317
sg10
S'blues'
p1248
sg12
F0.0297
sg13
VThe Cold Stares
p1249
sg15
I9999
sg16
F0.49
sg17
Nsg18
F0.000123
sg19
Nsg20
Nsg21
F0.251
sg22
Nsg23
Nsg24
F-8.12
ssg25
I01
sba(iSong
Song
p1250
(dp1251
g3
(dp1252
g5
F0.816
sg6
VBad to the Bone
p1253
sg8
F168.939
sg9
F0.0704
sg10
S'blues'
p1254
sg12
F0.0678
sg13
VCarolyn Wonderland
p1255
sg15
I9999
sg16
F0.578
sg17
Nsg18
F0.00298
sg19
Nsg20
Nsg21
F0.288
sg22
Nsg23
Nsg24
F-13.44
ssg25
I01
sba(iSong
Song
p1256
(dp1257
g3
(dp1258
g5
F0.834
sg6
VLead Me On
p1259
sg8
F176.666
sg9
F0.307
sg10
S'blues'
p1260
sg12
F0.031
sg13
VKelly Joe Phelps
p1261
sg15
I9999
sg16
F0.345
sg17
Nsg18
F0.000239
sg19
Nsg20
Nsg21
F0.483
sg22
Nsg23
Nsg24
F-13.97
ssg25
I01
sba(iSong
Song
p1262
(dp1263
g3
(dp1264
g5
F0.458
sg6
VAm I Wrong
p1265
sg8
F112.65
sg9
F0.476
sg10
S'blues'
p1266
sg12
F0.0528
sg13
VKeb' Mo'
p1267
sg15
I9999
sg16
F0.882
sg17
Nsg18
F2.47e-06
sg19
Nsg20
Nsg21
F0.964
sg22
Nsg23
Nsg24
F-9.235
ssg25
I01
sba(iSong
Song
p1268
(dp1269
g3
(dp1270
g5
F0.522
sg6
VCross Creek Road
p1271
sg8
F132.53
sg9
F0.248
sg10
S'blues'
p1272
sg12
F0.0752
sg13
VBig Daddy Wilson
p1273
sg15
I9999
sg16
F0.708
sg17
Nsg18
F2.7e-06
sg19
Nsg20
Nsg21
F0.612
sg22
Nsg23
Nsg24
F-9.894
ssg25
I01
sba(iSong
Song
p1274
(dp1275
g3
(dp1276
g5
F0.952
sg6
VOh Lord
p1277
sg8
F133.858
sg9
F0.197
sg10
S'blues'
p1278
sg12
F0.0324
sg13
VJj Thames
p1279
sg15
I9999
sg16
F0.492
sg17
Nsg18
F0.000171
sg19
Nsg20
Nsg21
F0.29
sg22
Nsg23
Nsg24
F-14.56
ssg25
I01
sba(iSong
Song
p1280
(dp1281
g3
(dp1282
g5
F0.773
sg6
VWith My Maker I Am One
p1283
sg8
F97.95
sg9
F0.213
sg10
S'blues'
p1284
sg12
F0.0479
sg13
VEric Bibb
p1285
sg15
I9999
sg16
F0.791
sg17
Nsg18
F2.39e-05
sg19
Nsg20
Nsg21
F0.597
sg22
Nsg23
Nsg24
F-11.154
ssg25
I01
sba(iSong
Song
p1286
(dp1287
g3
(dp1288
g5
F0.618
sg6
VRiding In the Moonlight / Mr. Luck
p1289
sg8
F131.123
sg9
F0.697
sg10
S'blues'
p1290
sg12
F0.0813
sg13
VColin James
p1291
sg15
I9999
sg16
F0.619
sg17
Nsg18
F0.000315
sg19
Nsg20
Nsg21
F0.961
sg22
Nsg23
Nsg24
F-6.167
ssg25
I01
sba(iSong
Song
p1292
(dp1293
g3
(dp1294
g5
F0.885
sg6
VRight Here
p1295
sg8
F143.376
sg9
F0.194
sg10
S'blues'
p1296
sg12
F0.0729
sg13
VKeller Williams
p1297
sg15
I9999
sg16
F0.633
sg17
Nsg18
F0.404
sg19
Nsg20
Nsg21
F0.421
sg22
Nsg23
Nsg24
F-14.543
ssg25
I01
sba(iSong
Song
p1298
(dp1299
g3
(dp1300
g5
F0.346
sg6
VGoing Down the Road Feeling Bad
p1301
sg8
F182.966
sg9
F0.567
sg10
S'blues'
p1302
sg12
F0.0397
sg13
VSteve Hill
p1303
sg15
I9999
sg16
F0.401
sg17
Nsg18
F0.125
sg19
Nsg20
Nsg21
F0.622
sg22
Nsg23
Nsg24
F-9.327
ssg25
I01
sba(iSong
Song
p1304
(dp1305
g3
(dp1306
g5
F0.871
sg6
VDon't Ask Me (Bonus Track)
p1307
sg8
F106.225
sg9
F0.391
sg10
S'blues'
p1308
sg12
F0.121
sg13
VSeasick Steve
p1309
sg15
I9999
sg16
F0.671
sg17
Nsg18
F0.0265
sg19
Nsg20
Nsg21
F0.288
sg22
Nsg23
Nsg24
F-13.43
ssg25
I01
sba(iSong
Song
p1310
(dp1311
g3
(dp1312
g5
F0.928
sg6
VRefugee Moan
p1313
sg8
F128.158
sg9
F0.22
sg10
S'blues'
p1314
sg12
F0.0953
sg13
VEric Bibb
p1315
sg15
I9999
sg16
F0.639
sg17
Nsg18
F0.00156
sg19
Nsg20
Nsg21
F0.514
sg22
Nsg23
Nsg24
F-12.694
ssg25
I01
sba(iSong
Song
p1316
(dp1317
g3
(dp1318
g5
F0.983
sg6
VSo Grateful
p1319
sg8
F93.659
sg9
F0.109
sg10
S'blues'
p1320
sg12
F0.0355
sg13
VCee Cee James
p1321
sg15
I9999
sg16
F0.434
sg17
Nsg18
F0.000376
sg19
Nsg20
Nsg21
F0.25
sg22
Nsg23
Nsg24
F-15.279
ssg25
I01
sba(iSong
Song
p1322
(dp1323
g3
(dp1324
g5
F0.906
sg6
VOh Now
p1325
sg8
F174.427
sg9
F0.207
sg10
S'blues'
p1326
sg12
F0.0299
sg13
VBrian Casey
p1327
sg15
I9999
sg16
F0.452
sg17
Nsg18
F0.283
sg19
Nsg20
Nsg21
F0.347
sg22
Nsg23
Nsg24
F-13.043
ssg25
I01
sba(iSong
Song
p1328
(dp1329
g3
(dp1330
g5
F0.872
sg6
VWhen the Levee Breaks (feat. Jean Jacques Milteau)
p1331
sg8
F104.472
sg9
F0.211
sg10
S'blues'
p1332
sg12
F0.0497
sg13
VCary Morin
p1333
sg15
I9999
sg16
F0.73
sg17
Nsg18
F0.19
sg19
Nsg20
Nsg21
F0.76
sg22
Nsg23
Nsg24
F-12.914
ssg25
I01
sba(iSong
Song
p1334
(dp1335
g3
(dp1336
g5
F0.91
sg6
VLong Way Home
p1337
sg8
F78.033
sg9
F0.054
sg10
S'blues'
p1338
sg12
F0.038
sg13
VClarence "Gatemouth" Brown
p1339
sg15
I9999
sg16
F0.728
sg17
Nsg18
F0.048
sg19
Nsg20
Nsg21
F0.425
sg22
Nsg23
Nsg24
F-22.557
ssg25
I01
sba(iSong
Song
p1340
(dp1341
g3
(dp1342
g5
F0.861
sg6
VYou Don't Care for Me Enough to Cry
p1343
sg8
F90.346
sg9
F0.208
sg10
S'blues'
p1344
sg12
F0.0359
sg13
VJohn Moreland
p1345
sg15
I9999
sg16
F0.389
sg17
Nsg18
F7.76e-06
sg19
Nsg20
Nsg21
F0.233
sg22
Nsg23
Nsg24
F-11.669
ssg25
I01
sba(iSong
Song
p1346
(dp1347
g3
(dp1348
g5
F0.84
sg6
VThumb A Ride
p1349
sg8
F96.04
sg9
F0.27
sg10
S'blues'
p1350
sg12
F0.0367
sg13
VBig Daddy Wilson
p1351
sg15
I9999
sg16
F0.727
sg17
Nsg18
F0.124
sg19
Nsg20
Nsg21
F0.742
sg22
Nsg23
Nsg24
F-13.179
ssg25
I01
sba(iSong
Song
p1352
(dp1353
g3
(dp1354
g5
F0.818
sg6
VApple Picker (Acoustic)
p1355
sg8
F114.136
sg9
F0.102
sg10
S'blues'
p1356
sg12
F0.061
sg13
VLittle G Weevil
p1357
sg15
I9999
sg16
F0.692
sg17
Nsg18
F0.00328
sg19
Nsg20
Nsg21
F0.475
sg22
Nsg23
Nsg24
F-11.721
ssg25
I01
sba(iSong
Song
p1358
(dp1359
g3
(dp1360
g5
F0.837
sg6
VBaby, Please Don't Go
p1361
sg8
F124.312
sg9
F0.408
sg10
S'blues'
p1362
sg12
F0.0328
sg13
VPreacher Boy
p1363
sg15
I9999
sg16
F0.553
sg17
Nsg18
F0.00034
sg19
Nsg20
Nsg21
F0.16
sg22
Nsg23
Nsg24
F-7.476
ssg25
I01
sba(iSong
Song
p1364
(dp1365
g3
(dp1366
g5
F0.924
sg6
VWalking Blues
p1367
sg8
F106.428
sg9
F0.104
sg10
S'blues'
p1368
sg12
F0.053
sg13
VRory Block
p1369
sg15
I9999
sg16
F0.831
sg17
Nsg18
I0
sg19
Nsg20
Nsg21
F0.572
sg22
Nsg23
Nsg24
F-14.655
ssg25
I01
sba(iSong
Song
p1370
(dp1371
g3
(dp1372
g5
F0.746
sg6
VGoing To Canada
p1373
sg8
F94.728
sg9
F0.416
sg10
S'blues'
p1374
sg12
F0.111
sg13
VJoe Louis Walker
p1375
sg15
I9999
sg16
F0.528
sg17
Nsg18
F0.00864
sg19
Nsg20
Nsg21
F0.826
sg22
Nsg23
Nsg24
F-13.829
ssg25
I01
sba(iSong
Song
p1376
(dp1377
g3
(dp1378
g5
F0.774
sg6
VMake Me A Pallet On Your Floor
p1379
sg8
F180.218
sg9
F0.398
sg10
S'blues'
p1380
sg12
F0.0328
sg13
VRory Block
p1381
sg15
I9999
sg16
F0.392
sg17
Nsg18
F0.00229
sg19
Nsg20
Nsg21
F0.721
sg22
Nsg23
Nsg24
F-9.493
ssg25
I01
sba(iSong
Song
p1382
(dp1383
g3
(dp1384
g5
F0.676
sg6
VSeven Hours Of Light
p1385
sg8
F174.626
sg9
F0.098
sg10
S'blues'
p1386
sg12
F0.122
sg13
VOtis Taylor
p1387
sg15
I9999
sg16
F0.595
sg17
Nsg18
F0.128
sg19
Nsg20
Nsg21
F0.451
sg22
Nsg23
Nsg24
F-14.736
ssg25
I01
sba(iSong
Song
p1388
(dp1389
g3
(dp1390
g5
F0.758
sg6
VPrisoner
p1391
sg8
F89.955
sg9
F0.086
sg10
S'blues'
p1392
sg12
F0.036
sg13
VCary Morin
p1393
sg15
I9999
sg16
F0.54
sg17
Nsg18
F6e-05
sg19
Nsg20
Nsg21
F0.285
sg22
Nsg23
Nsg24
F-16.292
ssg25
I01
sba(iSong
Song
p1394
(dp1395
g3
(dp1396
g5
F0.823
sg6
VAmerica the Beautiful
p1397
sg8
F79.808
sg9
F0.31
sg10
S'blues'
p1398
sg12
F0.0303
sg13
VKeb' Mo'
p1399
sg15
I9999
sg16
F0.67
sg17
Nsg18
F0.000154
sg19
Nsg20
Nsg21
F0.501
sg22
Nsg23
Nsg24
F-9.487
ssg25
I01
sba(iSong
Song
p1400
(dp1401
g3
(dp1402
g5
F0.81
sg6
VPlay With Your Poodle
p1403
sg8
F165.893
sg9
F0.43
sg10
S'blues'
p1404
sg12
F0.25
sg13
VJames Cotton
p1405
sg15
I9999
sg16
F0.515
sg17
Nsg18
F0.0069
sg19
Nsg20
Nsg21
F0.624
sg22
Nsg23
Nsg24
F-10.912
ssg25
I01
sba(iSong
Song
p1406
(dp1407
g3
(dp1408
g5
F0.941
sg6
VTalkin' To Jehova
p1409
sg8
F107.134
sg9
F0.142
sg10
S'blues'
p1410
sg12
F0.05
sg13
VKelly Joe Phelps
p1411
sg15
I9999
sg16
F0.72
sg17
Nsg18
F0.0969
sg19
Nsg20
Nsg21
F0.64
sg22
Nsg23
Nsg24
F-18.26
ssg25
I01
sba(iSong
Song
p1412
(dp1413
g3
(dp1414
g5
F0.873
sg6
VMaybe I'll Go
p1415
sg8
F79.403
sg9
F0.247
sg10
S'blues'
p1416
sg12
F0.047
sg13
VGuy Davis
p1417
sg15
I9999
sg16
F0.666
sg17
Nsg18
F0.00656
sg19
Nsg20
Nsg21
F0.721
sg22
Nsg23
Nsg24
F-13.273
ssg25
I01
sba(iSong
Song
p1418
(dp1419
g3
(dp1420
g5
F0.311
sg6
VSlowly Slipping Away
p1421
sg8
F177.42
sg9
F0.444
sg10
S'blues'
p1422
sg12
F0.0345
sg13
VSteve Hill
p1423
sg15
I9999
sg16
F0.384
sg17
Nsg18
F0.000449
sg19
Nsg20
Nsg21
F0.663
sg22
Nsg23
Nsg24
F-9.02
ssg25
I01
sba(iSong
Song
p1424
(dp1425
g3
(dp1426
g5
F0.98
sg6
VLet's Have Some Fun
p1427
sg8
F91.257
sg9
F0.318
sg10
S'blues'
p1428
sg12
F0.0281
sg13
VSamantha Fish
p1429
sg15
I9999
sg16
F0.674
sg17
Nsg18
F0.00144
sg19
Nsg20
Nsg21
F0.189
sg22
Nsg23
Nsg24
F-6.825
ssg25
I01
sba(iSong
Song
p1430
(dp1431
g3
(dp1432
g5
F0.848
sg6
VBig Mama's Door
p1433
sg8
F98.527
sg9
F0.195
sg10
S'blues'
p1434
sg12
F0.0406
sg13
VAlvin Youngblood Hart
p1435
sg15
I9999
sg16
F0.628
sg17
Nsg18
F5.05e-05
sg19
Nsg20
Nsg21
F0.538
sg22
Nsg23
Nsg24
F-13.054
ssg25
I01
sba(iSong
Song
p1436
(dp1437
g3
(dp1438
g5
F0.964
sg6
VCalling Out To You
p1439
sg8
F102.067
sg9
F0.118
sg10
S'blues'
p1440
sg12
F0.0358
sg13
VTedeschi Trucks Band
p1441
sg15
I9999
sg16
F0.597
sg17
Nsg18
F0.00132
sg19
Nsg20
Nsg21
F0.316
sg22
Nsg23
Nsg24
F-13.908
ssg25
I01
sba(iSong
Song
p1442
(dp1443
g3
(dp1444
g5
F0.837
sg6
VSearching Blues
p1445
sg8
F116.921
sg9
F0.249
sg10
S'blues'
p1446
sg12
F0.0338
sg13
VManuel Galvin
p1447
sg15
I9999
sg16
F0.687
sg17
Nsg18
F0.0033
sg19
Nsg20
Nsg21
F0.471
sg22
Nsg23
Nsg24
F-14.112
ssg25
I01
sba(iSong
Song
p1448
(dp1449
g3
(dp1450
g5
F0.419
sg6
VWalking the dog
p1451
sg8
F113.221
sg9
F0.165
sg10
S'blues'
p1452
sg12
F0.0584
sg13
VHans Theessink
p1453
sg15
I9999
sg16
F0.837
sg17
Nsg18
F2.92e-06
sg19
Nsg20
Nsg21
F0.446
sg22
Nsg23
Nsg24
F-10.946
ssg25
I01
sba(iSong
Song
p1454
(dp1455
g3
(dp1456
g5
F0.878
sg6
VSamson And Delilah
p1457
sg8
F114.302
sg9
F0.237
sg10
S'blues'
p1458
sg12
F0.0567
sg13
VRev. Gary Davis
p1459
sg15
I9999
sg16
F0.712
sg17
Nsg18
F0.000601
sg19
Nsg20
Nsg21
F0.751
sg22
Nsg23
Nsg24
F-13.898
ssg25
I01
sba(iSong
Song
p1460
(dp1461
g3
(dp1462
g5
F0.978
sg6
VKeep Your Lamp Trimmed And Burning
p1463
sg8
F134.237
sg9
F0.0422
sg10
S'blues'
p1464
sg12
F0.0423
sg13
VCorey Harris
p1465
sg15
I9999
sg16
F0.642
sg17
Nsg18
F0.000295
sg19
Nsg20
Nsg21
F0.331
sg22
Nsg23
Nsg24
I-21
ssg25
I01
sba(iSong
Song
p1466
(dp1467
g3
(dp1468
g5
F0.962
sg6
VPray For Rain
p1469
sg8
F154.328
sg9
F0.0863
sg10
S'blues'
p1470
sg12
F0.0357
sg13
VWalter Trout
p1471
sg15
I9999
sg16
F0.425
sg17
Nsg18
F0.00615
sg19
Nsg20
Nsg21
F0.362
sg22
Nsg23
Nsg24
F-15.163
ssg25
I01
sba(iSong
Song
p1472
(dp1473
g3
(dp1474
g5
F0.9
sg6
VI'm So Lonely
p1475
sg8
F177.555
sg9
F0.0488
sg10
S'blues'
p1476
sg12
F0.0491
sg13
VThe Holmes Brothers
p1477
sg15
I9999
sg16
F0.472
sg17
Nsg18
F0.00799
sg19
Nsg20
Nsg21
F0.166
sg22
Nsg23
Nsg24
F-19.635
ssg25
I01
sba(iSong
Song
p1478
(dp1479
g3
(dp1480
g5
F0.511
sg6
VDeath Row
p1481
sg8
F141.496
sg9
F0.596
sg10
S'blues'
p1482
sg12
F0.0288
sg13
VMike Zito
p1483
sg15
I9999
sg16
F0.714
sg17
Nsg18
F0.00718
sg19
Nsg20
Nsg21
F0.665
sg22
Nsg23
Nsg24
F-8.288
ssg25
I01
sba(iSong
Song
p1484
(dp1485
g3
(dp1486
g5
F0.75
sg6
VRatchet Blues
p1487
sg8
F92.957
sg9
F0.668
sg10
S'blues'
p1488
sg12
F0.0734
sg13
VEric Sardinas
p1489
sg15
I9999
sg16
F0.709
sg17
Nsg18
I0
sg19
Nsg20
Nsg21
F0.873
sg22
Nsg23
Nsg24
F-6.008
ssg25
I01
sba(iSong
Song
p1490
(dp1491
g3
(dp1492
g5
F0.964
sg6
VCoffee Blues
p1493
sg8
F104.233
sg9
F0.0785
sg10
S'blues'
p1494
sg12
F0.0503
sg13
VMississippi John Hurt
p1495
sg15
I9999
sg16
F0.61
sg17
Nsg18
F0.00014
sg19
Nsg20
Nsg21
F0.763
sg22
Nsg23
Nsg24
F-20.543
ssg25
I01
sba(iSong
Song
p1496
(dp1497
g3
(dp1498
g5
F0.694
sg6
VWhat They Say
p1499
sg8
F83.273
sg9
F0.574
sg10
S'blues'
p1500
sg12
F0.0322
sg13
VChris Smither
p1501
sg15
I9999
sg16
F0.57
sg17
Nsg18
F3.02e-06
sg19
Nsg20
Nsg21
F0.963
sg22
Nsg23
Nsg24
F-6.432
ssg25
I01
sba(iSong
Song
p1502
(dp1503
g3
(dp1504
g5
F0.869
sg6
VLiving With The Blues
p1505
sg8
F111.887
sg9
F0.11
sg10
S'blues'
p1506
sg12
F0.16
sg13
VHans Theessink
p1507
sg15
I9999
sg16
F0.774
sg17
Nsg18
F9.27e-05
sg19
Nsg20
Nsg21
F0.383
sg22
Nsg23
Nsg24
F-18.928
ssg25
I01
sba(iSong
Song
p1508
(dp1509
g3
(dp1510
g5
F0.925
sg6
VOutside In
p1511
sg8
F79.81
sg9
F0.307
sg10
S'blues'
p1512
sg12
F0.0342
sg13
VChris Smither
p1513
sg15
I9999
sg16
F0.485
sg17
Nsg18
F0.015
sg19
Nsg20
Nsg21
F0.437
sg22
Nsg23
Nsg24
F-12.69
ssg25
I01
sba(iSong
Song
p1514
(dp1515
g3
(dp1516
g5
F0.968
sg6
VTurtle Beach
p1517
sg8
F95.664
sg9
F0.141
sg10
S'blues'
p1518
sg12
F0.0325
sg13
VEric Von Schmidt
p1519
sg15
I9999
sg16
F0.535
sg17
Nsg18
F0.0738
sg19
Nsg20
Nsg21
F0.536
sg22
Nsg23
Nsg24
F-16.568
ssg25
I01
sba(iSong
Song
p1520
(dp1521
g3
(dp1522
g5
F0.805
sg6
VLife By The Drop
p1523
sg8
F95.963
sg9
F0.204
sg10
S'blues'
p1524
sg12
F0.0358
sg13
VStevie Ray Vaughan
p1525
sg15
I9999
sg16
F0.663
sg17
Nsg18
F1.42e-05
sg19
Nsg20
Nsg21
F0.52
sg22
Nsg23
Nsg24
F-9.921
ssg25
I01
sba(iSong
Song
p1526
(dp1527
g3
(dp1528
g5
F0.813
sg6
VGuitar & Harmonica Rag
p1529
sg8
F114.668
sg9
F0.314
sg10
S'blues'
p1530
sg12
F0.0718
sg13
VBowling Green John Cephas
p1531
sg15
I9999
sg16
F0.724
sg17
Nsg18
F0.937
sg19
Nsg20
Nsg21
F0.877
sg22
Nsg23
Nsg24
F-10.887
ssg25
I01
sba(iSong
Song
p1532
(dp1533
g3
(dp1534
g5
F0.581
sg6
VYou'll All Get What's Coming To You
p1535
sg8
F117.198
sg9
F0.531
sg10
S'blues'
p1536
sg12
F0.0325
sg13
VDan Arborise
p1537
sg15
I9999
sg16
F0.467
sg17
Nsg18
F0.0299
sg19
Nsg20
Nsg21
F0.232
sg22
Nsg23
Nsg24
F-9.047
ssg25
I01
sba(iSong
Song
p1538
(dp1539
g3
(dp1540
g5
F0.824
sg6
VAlabama Blues
p1541
sg8
F97.446
sg9
F0.308
sg10
S'blues'
p1542
sg12
F0.0348
sg13
VJ.B. Lenoir
p1543
sg15
I9999
sg16
F0.675
sg17
Nsg18
F3.75e-05
sg19
Nsg20
Nsg21
F0.69
sg22
Nsg23
Nsg24
F-8.081
ssg25
I01
sba(iSong
Song
p1544
(dp1545
g3
(dp1546
g5
F0.962
sg6
VJohnny law
p1547
sg8
F107.753
sg9
F0.322
sg10
S'blues'
p1548
sg12
F0.06
sg13
VWilliam Elliott Whitmore
p1549
sg15
I9999
sg16
F0.687
sg17
Nsg18
I0
sg19
Nsg20
Nsg21
F0.312
sg22
Nsg23
Nsg24
F-13.015
ssg25
I01
sba(iSong
Song
p1550
(dp1551
g3
(dp1552
g5
F0.54
sg6
VPay Day
p1553
sg8
F90.049
sg9
F0.678
sg10
S'blues'
p1554
sg12
F0.0279
sg13
VThe Blues Preachers
p1555
sg15
I9999
sg16
F0.629
sg17
Nsg18
F5.37e-05
sg19
Nsg20
Nsg21
F0.0635
sg22
Nsg23
Nsg24
F-5.839
ssg25
I01
sba(iSong
Song
p1556
(dp1557
g3
(dp1558
g5
F0.673
sg6
VGood Morning Little Schoolgirl
p1559
sg8
F105.457
sg9
F0.435
sg10
S'blues'
p1560
sg12
F0.0343
sg13
VMississippi Fred McDowell
p1561
sg15
I9999
sg16
F0.511
sg17
Nsg18
F0.00552
sg19
Nsg20
Nsg21
F0.601
sg22
Nsg23
Nsg24
F-14.689
ssg25
I01
sba(iSong
Song
p1562
(dp1563
g3
(dp1564
g5
F0.93
sg6
VCross Road Blues
p1565
sg8
F97.159
sg9
F0.311
sg10
S'blues'
p1566
sg12
F0.0525
sg13
VRobert Johnson
p1567
sg15
I9999
sg16
F0.675
sg17
Nsg18
F0.000261
sg19
Nsg20
Nsg21
F0.638
sg22
Nsg23
Nsg24
F-11.959
ssg25
I01
sba(iSong
Song
p1568
(dp1569
g3
(dp1570
g5
F0.876
sg6
VDeep River Blues
p1571
sg8
F93.719
sg9
F0.157
sg10
S'blues'
p1572
sg12
F0.0354
sg13
VDoc Watson
p1573
sg15
I9999
sg16
F0.516
sg17
Nsg18
F1.42e-05
sg19
Nsg20
Nsg21
F0.783
sg22
Nsg23
Nsg24
F-19.213
ssg25
I01
sba(iSong
Song
p1574
(dp1575
g3
(dp1576
g5
F0.708
sg6
VSpoonful
p1577
sg8
F119.108
sg9
F0.466
sg10
S'blues'
p1578
sg12
F0.0426
sg13
VHowlin' Wolf
p1579
sg15
I9999
sg16
F0.854
sg17
Nsg18
F0.000267
sg19
Nsg20
Nsg21
F0.634
sg22
Nsg23
Nsg24
F-8.997
ssg25
I01
sba(iSong
Song
p1580
(dp1581
g3
(dp1582
g5
F0.284
sg6
VI'm A Man - Single Version
p1583
sg8
F127.497
sg9
F0.54
sg10
S'blues'
p1584
sg12
F0.0462
sg13
VBo Diddley
p1585
sg15
I9999
sg16
F0.617
sg17
Nsg18
I0
sg19
Nsg20
Nsg21
F0.86
sg22
Nsg23
Nsg24
F-13.494
ssg25
I01
sba(iSong
Song
p1586
(dp1587
g3
(dp1588
g5
F0.841
sg6
VMannish Boy
p1589
sg8
F113.529
sg9
F0.666
sg10
S'blues'
p1590
sg12
F0.145
sg13
VMuddy Waters
p1591
sg15
I9999
sg16
F0.567
sg17
Nsg18
F2.53e-05
sg19
Nsg20
Nsg21
F0.768
sg22
Nsg23
Nsg24
F-8.658
ssg25
I01
sba(iSong
Song
p1592
(dp1593
g3
(dp1594
g5
F0.678
sg6
VHelp Me
p1595
sg8
F114.03
sg9
F0.43
sg10
S'blues'
p1596
sg12
F0.0525
sg13
VSonny Boy Williamson II
p1597
sg15
I9999
sg16
F0.717
sg17
Nsg18
F0.106
sg19
Nsg20
Nsg21
F0.8
sg22
Nsg23
Nsg24
F-10.469
ssg25
I01
sba(iSong
Song
p1598
(dp1599
g3
(dp1600
g5
F0.97
sg6
VI Can't Quit You Baby
p1601
sg8
F86.952
sg9
F0.596
sg10
S'blues'
p1602
sg12
F0.0395
sg13
VOtis Rush
p1603
sg15
I9999
sg16
F0.492
sg17
Nsg18
F0.043
sg19
Nsg20
Nsg21
F0.548
sg22
Nsg23
Nsg24
F-4.038
ssg25
I01
sba(iSong
Song
p1604
(dp1605
g3
(dp1606
g5
F0.773
sg6
VMonday Morning Blues - Live
p1607
sg8
F91.447
sg9
F0.413
sg10
S'blues'
p1608
sg12
F0.13
sg13
VMississippi John Hurt
p1609
sg15
I9999
sg16
F0.679
sg17
Nsg18
F0.000183
sg19
Nsg20
Nsg21
F0.538
sg22
Nsg23
Nsg24
F-16.566
ssg25
I01
sba(iSong
Song
p1610
(dp1611
g3
(dp1612
g5
F0.949
sg6
VThree O'Clock Blues
p1613
sg8
F70.76
sg9
F0.461
sg10
S'blues'
p1614
sg12
F0.0357
sg13
VB.B. King
p1615
sg15
I9999
sg16
F0.521
sg17
Nsg18
F0.00161
sg19
Nsg20
Nsg21
F0.583
sg22
Nsg23
Nsg24
F-7.289
ssg25
I01
sba(iSong
Song
p1616
(dp1617
g3
(dp1618
g5
F0.971
sg6
VFive Long Years - Live
p1619
sg8
F77.551
sg9
F0.592
sg10
S'blues'
p1620
sg12
F0.874
sg13
VEddie Boyd
p1621
sg15
I9999
sg16
F0.594
sg17
Nsg18
F0.112
sg19
Nsg20
Nsg21
F0.842
sg22
Nsg23
Nsg24
F-11.908
ssg25
I01
sba(iSong
Song
p1622
(dp1623
g3
(dp1624
g5
F0.0155
sg6
VHave A Good Time
p1625
sg8
F156.232
sg9
F0.597
sg10
S'blues'
p1626
sg12
F0.289
sg13
VBig Walter Horton
p1627
sg15
I9999
sg16
F0.641
sg17
Nsg18
F0.00218
sg19
Nsg20
Nsg21
F0.89
sg22
Nsg23
Nsg24
F-14.718
ssg25
I01
sba(iSong
Song
p1628
(dp1629
g3
(dp1630
g5
F0.656
sg6
VMojo Hand
p1631
sg8
F147.008
sg9
F0.56
sg10
S'blues'
p1632
sg12
F0.147
sg13
VLightnin' Hopkins
p1633
sg15
I9999
sg16
F0.567
sg17
Nsg18
F0.000102
sg19
Nsg20
Nsg21
F0.766
sg22
Nsg23
Nsg24
F-8.356
ssg25
I01
sba(iSong
Song
p1634
(dp1635
g3
(dp1636
g5
F0.93
sg6
VCross Road Blues
p1637
sg8
F97.159
sg9
F0.311
sg10
S'blues'
p1638
sg12
F0.0525
sg13
VRobert Johnson
p1639
sg15
I9999
sg16
F0.675
sg17
Nsg18
F0.000261
sg19
Nsg20
Nsg21
F0.638
sg22
Nsg23
Nsg24
F-11.959
ssg25
I01
sba(iSong
Song
p1640
(dp1641
g3
(dp1642
g5
F0.0984
sg6
VSnatch It Back And Hold It
p1643
sg8
F136.713
sg9
F0.408
sg10
S'blues'
p1644
sg12
F0.167
sg13
VJunior Wells
p1645
sg15
I9999
sg16
F0.765
sg17
Nsg18
I0
sg19
Nsg20
Nsg21
F0.891
sg22
Nsg23
Nsg24
F-13.079
ssg25
I01
sba(iSong
Song
p1646
(dp1647
g3
(dp1648
g5
F0.769
sg6
VWalkin' Thru The Park
p1649
sg8
F134.112
sg9
F0.686
sg10
S'blues'
p1650
sg12
F0.0545
sg13
VMuddy Waters
p1651
sg15
I9999
sg16
F0.678
sg17
Nsg18
F0.000712
sg19
Nsg20
Nsg21
F0.799
sg22
Nsg23
Nsg24
F-5.842
ssg25
I01
sba(iSong
Song
p1652
(dp1653
g3
(dp1654
g5
F0.91
sg6
VI Got The Cross The River Jordan
p1655
sg8
F77.396
sg9
F0.177
sg10
S'blues'
p1656
sg12
F0.0447
sg13
VBlind Willie McTell
p1657
sg15
I9999
sg16
F0.538
sg17
Nsg18
F0.00825
sg19
Nsg20
Nsg21
F0.415
sg22
Nsg23
Nsg24
F-14.158
ssg25
I01
sba(iSong
Song
p1658
(dp1659
g3
(dp1660
g5
F0.685
sg6
VGet Back
p1661
sg8
F122.896
sg9
F0.0995
sg10
S'blues'
p1662
sg12
F0.047
sg13
VBig Bill Broonzy
p1663
sg15
I9999
sg16
F0.846
sg17
Nsg18
I0
sg19
Nsg20
Nsg21
F0.526
sg22
Nsg23
Nsg24
F-14.799
ssg25
I01
sba(iSong
Song
p1664
(dp1665
g3
(dp1666
g5
F0.892
sg6
VReconsider Baby - Single Version
p1667
sg8
F94.457
sg9
F0.643
sg10
S'blues'
p1668
sg12
F0.0673
sg13
VLowell Fulson
p1669
sg15
I9999
sg16
F0.659
sg17
Nsg18
F0.103
sg19
Nsg20
Nsg21
F0.659
sg22
Nsg23
Nsg24
F-7.979
ssg25
I01
sba(iSong
Song
p1670
(dp1671
g3
(dp1672
g5
F0.442
sg6
VHoodoo Man Blues
p1673
sg8
F103.924
sg9
F0.324
sg10
S'blues'
p1674
sg12
F0.332
sg13
VJunior Wells
p1675
sg15
I9999
sg16
F0.708
sg17
Nsg18
F0.000147
sg19
Nsg20
Nsg21
F0.638
sg22
Nsg23
Nsg24
F-13.247
ssg25
I01
sba(iSong
Song
p1676
(dp1677
g3
(dp1678
g5
F0.805
sg6
VT-Bone Blues
p1679
sg8
F76.828
sg9
F0.283
sg10
S'blues'
p1680
sg12
F0.0527
sg13
VT-Bone Walker
p1681
sg15
I9999
sg16
F0.541
sg17
Nsg18
F0.0367
sg19
Nsg20
Nsg21
F0.564
sg22
Nsg23
Nsg24
F-13.659
ssg25
I01
sba(iSong
Song
p1682
(dp1683
g3
(dp1684
g5
F0.862
sg6
VLonesome
p1685
sg8
F158.971
sg9
F0.749
sg10
S'blues'
p1686
sg12
F0.086
sg13
VMemphis Slim
p1687
sg15
I9999
sg16
F0.622
sg17
Nsg18
F0.00514
sg19
Nsg20
Nsg21
F0.854
sg22
Nsg23
Nsg24
F-4.014
ssg25
I01
sba(iSong
Song
p1688
(dp1689
g3
(dp1690
g5
F0.0226
sg6
VThe Sky Is Crying
p1691
sg8
F178.191
sg9
F0.611
sg10
S'blues'
p1692
sg12
F0.0348
sg13
VElmore James
p1693
sg15
I9999
sg16
F0.294
sg17
Nsg18
F0.435
sg19
Nsg20
Nsg21
F0.567
sg22
Nsg23
Nsg24
F-6.268
ssg25
I01
sba(iSong
Song
p1694
(dp1695
g3
(dp1696
g5
F0.516
sg6
VI'm In The Mood - Single Version
p1697
sg8
F200.5
sg9
F0.302
sg10
S'blues'
p1698
sg12
F0.0493
sg13
VJohn Lee Hooker
p1699
sg15
I9999
sg16
F0.602
sg17
Nsg18
F0.00291
sg19
Nsg20
Nsg21
F0.724
sg22
Nsg23
Nsg24
F-12.905
ssg25
I01
sba(iSong
Song
p1700
(dp1701
g3
(dp1702
g5
F0.968
sg6
VDark Was the Night, Cold Was the Ground
p1703
sg8
F116.117
sg9
F0.0406
sg10
S'blues'
p1704
sg12
F0.044
sg13
VBlind Willie Johnson
p1705
sg15
I9999
sg16
F0.394
sg17
Nsg18
F0.0453
sg19
Nsg20
Nsg21
F0.2
sg22
Nsg23
Nsg24
F-23.179
ssg25
I01
sba(iSong
Song
p1706
(dp1707
g3
(dp1708
g5
F0.887
sg6
VWhen You Get Home, Write Me a Few Little Lines
p1709
sg8
F113.193
sg9
F0.383
sg10
S'blues'
p1710
sg12
F0.0314
sg13
VMississippi Fred McDowell
p1711
sg15
I9999
sg16
F0.483
sg17
Nsg18
F0.0977
sg19
Nsg20
Nsg21
F0.51
sg22
Nsg23
Nsg24
F-13.702
ssg25
I01
sba(iSong
Song
p1712
(dp1713
g3
(dp1714
g5
F0.992
sg6
VBlack Betty
p1715
sg8
F104.285
sg9
F0.128
sg10
S'blues'
p1716
sg12
F0.433
sg13
VLead Belly
p1717
sg15
I9999
sg16
F0.708
sg17
Nsg18
F0.000594
sg19
Nsg20
Nsg21
F0.194
sg22
Nsg23
Nsg24
F-15.678
ssg25
I01
sba(iSong
Song
p1718
(dp1719
g3
(dp1720
g5
F0.18
sg6
VBo Diddley
p1721
sg8
F105.688
sg9
F0.737
sg10
S'blues'
p1722
sg12
F0.0481
sg13
VBo Diddley
p1723
sg15
I9999
sg16
F0.814
sg17
Nsg18
I0
sg19
Nsg20
Nsg21
F0.55
sg22
Nsg23
Nsg24
F-10.9
ssg25
I01
sba(iSong
Song
p1724
(dp1725
g3
(dp1726
g5
F0.856
sg6
VJunker's Blues
p1727
sg8
F103.252
sg9
F0.155
sg10
S'blues'
p1728
sg12
F0.112
sg13
VChampion Jack Dupree
p1729
sg15
I9999
sg16
F0.779
sg17
Nsg18
F7.82e-06
sg19
Nsg20
Nsg21
F0.696
sg22
Nsg23
Nsg24
F-21.57
ssg25
I01
sba(iSong
Song
p1730
(dp1731
g3
(dp1732
g5
F0.982
sg6
VDown The Dirt Road Blues
p1733
sg8
F119.093
sg9
F0.0536
sg10
S'blues'
p1734
sg12
F0.0453
sg13
VCharley Patton
p1735
sg15
I9999
sg16
F0.494
sg17
Nsg18
F0.00081
sg19
Nsg20
Nsg21
F0.612
sg22
Nsg23
Nsg24
F-21.083
ssg25
I01
sba(iSong
Song
p1736
(dp1737
g3
(dp1738
g5
F0.867
sg6
VBobby Sox Blues
p1739
sg8
F111.074
sg9
F0.0883
sg10
S'blues'
p1740
sg12
F0.0704
sg13
VT-Bone Walker
p1741
sg15
I9999
sg16
F0.627
sg17
Nsg18
F0.000165
sg19
Nsg20
Nsg21
F0.406
sg22
Nsg23
Nsg24
F-13.773
ssg25
I01
sba(iSong
Song
p1742
(dp1743
g3
(dp1744
g5
F0.898
sg6
VMy Babe
p1745
sg8
F158.503
sg9
F0.258
sg10
S'blues'
p1746
sg12
F0.061
sg13
VLittle Walter
p1747
sg15
I9999
sg16
F0.71
sg17
Nsg18
I0
sg19
Nsg20
Nsg21
F0.923
sg22
Nsg23
Nsg24
F-13.618
ssg25
I01
sba(iSong
Song
p1748
(dp1749
g3
(dp1750
g5
F0.865
sg6
VDeath Letter Blues
p1751
sg8
F115.685
sg9
F0.288
sg10
S'blues'
p1752
sg12
F0.0629
sg13
VSon House
p1753
sg15
I9999
sg16
F0.803
sg17
Nsg18
F0.0593
sg19
Nsg20
Nsg21
F0.865
sg22
Nsg23
Nsg24
F-15.418
ssg25
I01
sba(iSong
Song
p1754
(dp1755
g3
(dp1756
g5
F0.947
sg6
VBaby What You Want Me To Do
p1757
sg8
F94.288
sg9
F0.302
sg10
S'blues'
p1758
sg12
F0.0353
sg13
VJimmy Reed
p1759
sg15
I9999
sg16
F0.582
sg17
Nsg18
F0.0107
sg19
Nsg20
Nsg21
F0.642
sg22
Nsg23
Nsg24
F-11.624
ssg25
I01
sba(iSong
Song
p1760
(dp1761
g3
(dp1762
g5
F0.989
sg6
VSouthern Can Is Mine
p1763
sg8
F109.757
sg9
F0.275
sg10
S'blues'
p1764
sg12
F0.191
sg13
VBlind Sammie a.k.a. Blind Willie McTell
p1765
sg15
I9999
sg16
F0.716
sg17
Nsg18
F0.018
sg19
Nsg20
Nsg21
F0.878
sg22
Nsg23
Nsg24
F-12.336
ssg25
I01
sba(iSong
Song
p1766
(dp1767
g3
(dp1768
g5
F0.147
sg6
VShe's a Sweet One
p1769
sg8
F122.8
sg9
F0.579
sg10
S'blues'
p1770
sg12
F0.0581
sg13
VJunior Wells
p1771
sg15
I9999
sg16
F0.688
sg17
Nsg18
F0.0174
sg19
Nsg20
Nsg21
F0.676
sg22
Nsg23
Nsg24
F-9.141
ssg25
I01
sba(iSong
Song
p1772
(dp1773
g3
(dp1774
g5
F0.964
sg6
VCoffee Blues
p1775
sg8
F104.233
sg9
F0.0785
sg10
S'blues'
p1776
sg12
F0.0503
sg13
VMississippi John Hurt
p1777
sg15
I9999
sg16
F0.61
sg17
Nsg18
F0.00014
sg19
Nsg20
Nsg21
F0.763
sg22
Nsg23
Nsg24
F-20.543
ssg25
I01
sba(iSong
Song
p1778
(dp1779
g3
(dp1780
g5
F0.799
sg6
VSmokestack Lightnin'
p1781
sg8
F146.138
sg9
F0.502
sg10
S'blues'
p1782
sg12
F0.0401
sg13
VHowlin' Wolf
p1783
sg15
I9999
sg16
F0.683
sg17
Nsg18
F0.000116
sg19
Nsg20
Nsg21
F0.5
sg22
Nsg23
Nsg24
F-8.83
ssg25
I01
sba(iSong
Song
p1784
(dp1785
g3
(dp1786
g5
F0.899
sg6
VYou Got To Move
p1787
sg8
F81.06
sg9
F0.185
sg10
S'blues'
p1788
sg12
F0.0631
sg13
VMississippi Fred McDowell
p1789
sg15
I9999
sg16
F0.66
sg17
Nsg18
F0.00875
sg19
Nsg20
Nsg21
F0.507
sg22
Nsg23
Nsg24
F-17.394
ssg25
I01
sba(iSong
Song
p1790
(dp1791
g3
(dp1792
g5
F0.843
sg6
VAll Your Love
p1793
sg8
F80.623
sg9
F0.7
sg10
S'blues'
p1794
sg12
F0.163
sg13
VMagic Sam
p1795
sg15
I9999
sg16
F0.433
sg17
Nsg18
F0.324
sg19
Nsg20
Nsg21
F0.8
sg22
Nsg23
Nsg24
F-8.197
ssg25
I01
sba(iSong
Song
p1796
(dp1797
g3
(dp1798
g5
F0.805
sg6
VJohn the Revelator
p1799
sg8
F129.482
sg9
F0.0423
sg10
S'blues'
p1800
sg12
F0.369
sg13
VSon House
p1801
sg15
I9999
sg16
F0.668
sg17
Nsg18
I0
sg19
Nsg20
Nsg21
F0.564
sg22
Nsg23
Nsg24
F-16.374
ssg25
I01
sba(iSong
Song
p1802
(dp1803
g3
(dp1804
g5
F0.965
sg6
VAwful Dreams
p1805
sg8
F187.055
sg9
F0.0566
sg10
S'blues'
p1806
sg12
F0.0706
sg13
VLightnin' Hopkins
p1807
sg15
I9999
sg16
F0.527
sg17
Nsg18
F0.188
sg19
Nsg20
Nsg21
F0.275
sg22
Nsg23
Nsg24
F-19.528
ssg25
I01
sba(iSong
Song
p1808
(dp1809
g3
(dp1810
g5
F0.976
sg6
VMatch Box Blues
p1811
sg8
F82.769
sg9
F0.16
sg10
S'blues'
p1812
sg12
F0.0565
sg13
VBlind Lemon Jefferson
p1813
sg15
I9999
sg16
F0.483
sg17
Nsg18
F0.0126
sg19
Nsg20
Nsg21
F0.522
sg22
Nsg23
Nsg24
F-19.05
ssg25
I01
sba(iSong
Song
p1814
(dp1815
g3
(dp1816
g5
F0.247
sg6
VDust My Broom
p1817
sg8
F101.928
sg9
F0.664
sg10
S'blues'
p1818
sg12
F0.0354
sg13
VElmore James
p1819
sg15
I9999
sg16
F0.526
sg17
Nsg18
F0.0124
sg19
Nsg20
Nsg21
F0.797
sg22
Nsg23
Nsg24
F-6.62
ssg25
I01
sba(iSong
Song
p1820
(dp1821
g3
(dp1822
g5
F0.995
sg6
VJohn the Revelator
p1823
sg8
F125.6
sg9
F0.334
sg10
S'blues'
p1824
sg12
F0.27
sg13
VBlind Willie Johnson
p1825
sg15
I9999
sg16
F0.738
sg17
Nsg18
F0.0675
sg19
Nsg20
Nsg21
F0.503
sg22
Nsg23
Nsg24
F-12.972
ssg25
I01
sba(iSong
Song
p1826
(dp1827
g3
(dp1828
g5
F0.346
sg6
VBoom Boom
p1829
sg8
F161.253
sg9
F0.473
sg10
S'blues'
p1830
sg12
F0.0458
sg13
VJohn Lee Hooker
p1831
sg15
I9999
sg16
F0.469
sg17
Nsg18
F0.0194
sg19
Nsg20
Nsg21
F0.849
sg22
Nsg23
Nsg24
F-14.068
ssg25
I01
sba(iSong
Song
p1832
(dp1833
g3
(dp1834
g5
F0.979
sg6
VBlue Guitar
p1835
sg8
F80.232
sg9
F0.459
sg10
S'blues'
p1836
sg12
F0.0357
sg13
VEarl Hooker
p1837
sg15
I9999
sg16
F0.272
sg17
Nsg18
F0.826
sg19
Nsg20
Nsg21
F0.467
sg22
Nsg23
Nsg24
F-9.374
ssg25
I01
sba(iSong
Song
p1838
(dp1839
g3
(dp1840
g5
F0.436
sg6
VBorn Under A Bad Sign
p1841
sg8
F91.398
sg9
F0.633
sg10
S'blues'
p1842
sg12
F0.0261
sg13
VAlbert King
p1843
sg15
I9999
sg16
F0.699
sg17
Nsg18
F9.32e-05
sg19
Nsg20
Nsg21
F0.907
sg22
Nsg23
Nsg24
F-6.249
ssg25
I01
sba(iSong
Song
p1844
(dp1845
g3
(dp1846
g5
F0.44
sg6
VMannish Boy
p1847
sg8
F111.129
sg9
F0.735
sg10
S'blues'
p1848
sg12
F0.0973
sg13
VMuddy Waters
p1849
sg15
I9999
sg16
F0.598
sg17
Nsg18
F0.000215
sg19
Nsg20
Nsg21
F0.615
sg22
Nsg23
Nsg24
F-10.882
ssg25
I01
sba(iSong
Song
p1850
(dp1851
g3
(dp1852
g5
F0.799
sg6
VSmokestack Lightnin'
p1853
sg8
F146.138
sg9
F0.502
sg10
S'blues'
p1854
sg12
F0.0401
sg13
VHowlin' Wolf
p1855
sg15
I9999
sg16
F0.683
sg17
Nsg18
F0.000116
sg19
Nsg20
Nsg21
F0.5
sg22
Nsg23
Nsg24
F-8.83
ssg25
I01
sba(iSong
Song
p1856
(dp1857
g3
(dp1858
g5
F0.612
sg6
VBoom Boom
p1859
sg8
F158.531
sg9
F0.464
sg10
S'blues'
p1860
sg12
F0.0515
sg13
VJohn Lee Hooker
p1861
sg15
I9999
sg16
F0.442
sg17
Nsg18
F0.00189
sg19
Nsg20
Nsg21
F0.944
sg22
Nsg23
Nsg24
F-14.12
ssg25
I01
sba(iSong
Song
p1862
(dp1863
g3
(dp1864
g5
F0.0719
sg6
VEveryday (I Have The Blues)
p1865
sg8
F105.214
sg9
F0.628
sg10
S'blues'
p1866
sg12
F0.0347
sg13
VB.B. King
p1867
sg15
I9999
sg16
F0.529
sg17
Nsg18
F0.00325
sg19
Nsg20
Nsg21
F0.67
sg22
Nsg23
Nsg24
F-9.586
ssg25
I01
sba(iSong
Song
p1868
(dp1869
g3
(dp1870
g5
F0.439
sg6
VFirst Time I Met The Blues - 1960 Single Version
p1871
sg8
F99.846
sg9
F0.66
sg10
S'blues'
p1872
sg12
F0.0505
sg13
VBuddy Guy
p1873
sg15
I9999
sg16
F0.429
sg17
Nsg18
F4.51e-05
sg19
Nsg20
Nsg21
F0.692
sg22
Nsg23
Nsg24
F-7.021
ssg25
I01
sba(iSong
Song
p1874
(dp1875
g3
(dp1876
g5
F0.656
sg6
VMojo Hand
p1877
sg8
F147.008
sg9
F0.56
sg10
S'blues'
p1878
sg12
F0.147
sg13
VLightnin' Hopkins
p1879
sg15
I9999
sg16
F0.567
sg17
Nsg18
F0.000102
sg19
Nsg20
Nsg21
F0.766
sg22
Nsg23
Nsg24
F-8.356
ssg25
I01
sba(iSong
Song
p1880
(dp1881
g3
(dp1882
g5
F0.661
sg6
VI'd Rather Go Blind
p1883
sg8
F81.579
sg9
F0.398
sg10
S'blues'
p1884
sg12
F0.0253
sg13
VEtta James
p1885
sg15
I9999
sg16
F0.539
sg17
Nsg18
F0.000519
sg19
Nsg20
Nsg21
F0.588
sg22
Nsg23
Nsg24
F-6.513
ssg25
I01
sba(iSong
Song
p1886
(dp1887
g3
(dp1888
g5
F0.0115
sg6
VDust My Broom
p1889
sg8
F100.783
sg9
F0.66
sg10
S'blues'
p1890
sg12
F0.0306
sg13
VElmore James
p1891
sg15
I9999
sg16
F0.507
sg17
Nsg18
F0.336
sg19
Nsg20
Nsg21
F0.696
sg22
Nsg23
Nsg24
F-4.957
ssg25
I01
sba(iSong
Song
p1892
(dp1893
g3
(dp1894
g5
F0.886
sg6
VMy Babe - Single Version
p1895
sg8
F157.887
sg9
F0.333
sg10
S'blues'
p1896
sg12
F0.0524
sg13
VLittle Walter
p1897
sg15
I9999
sg16
F0.684
sg17
Nsg18
I0
sg19
Nsg20
Nsg21
F0.833
sg22
Nsg23
Nsg24
F-10.487
ssg25
I01
sba(iSong
Song
p1898
(dp1899
g3
(dp1900
g5
F0.67
sg6
VI'm Your Hoochie Coochie Man
p1901
sg8
F113.948
sg9
F0.588
sg10
S'blues'
p1902
sg12
F0.0665
sg13
VMuddy Waters
p1903
sg15
I9999
sg16
F0.542
sg17
Nsg18
F0.158
sg19
Nsg20
Nsg21
F0.881
sg22
Nsg23
Nsg24
F-9.268
ssg25
I01
sba(iSong
Song
p1904
(dp1905
g3
(dp1906
g5
F0.805
sg6
VJohn the Revelator
p1907
sg8
F129.482
sg9
F0.0423
sg10
S'blues'
p1908
sg12
F0.369
sg13
VSon House
p1909
sg15
I9999
sg16
F0.668
sg17
Nsg18
I0
sg19
Nsg20
Nsg21
F0.564
sg22
Nsg23
Nsg24
F-16.374
ssg25
I01
sba(iSong
Song
p1910
(dp1911
g3
(dp1912
g5
F0.678
sg6
VHelp Me
p1913
sg8
F114.03
sg9
F0.43
sg10
S'blues'
p1914
sg12
F0.0525
sg13
VSonny Boy Williamson II
p1915
sg15
I9999
sg16
F0.717
sg17
Nsg18
F0.106
sg19
Nsg20
Nsg21
F0.8
sg22
Nsg23
Nsg24
F-10.469
ssg25
I01
sba(iSong
Song
p1916
(dp1917
g3
(dp1918
g5
F0.231
sg6
VCrosscut Saw
p1919
sg8
F122.463
sg9
F0.389
sg10
S'blues'
p1920
sg12
F0.0517
sg13
VAlbert King
p1921
sg15
I9999
sg16
F0.861
sg17
Nsg18
F0.577
sg19
Nsg20
Nsg21
F0.94
sg22
Nsg23
Nsg24
F-14.029
ssg25
I01
sba(iSong
Song
p1922
(dp1923
g3
(dp1924
g5
F0.805
sg6
VT-Bone Blues
p1925
sg8
F76.828
sg9
F0.283
sg10
S'blues'
p1926
sg12
F0.0527
sg13
VT-Bone Walker
p1927
sg15
I9999
sg16
F0.541
sg17
Nsg18
F0.0367
sg19
Nsg20
Nsg21
F0.564
sg22
Nsg23
Nsg24
F-13.659
ssg25
I01
sba(iSong
Song
p1928
(dp1929
g3
(dp1930
g5
F0.101
sg6
VStumble
p1931
sg8
F118.381
sg9
F0.612
sg10
S'blues'
p1932
sg12
F0.0339
sg13
VFreddie King
p1933
sg15
I9999
sg16
F0.678
sg17
Nsg18
F0.318
sg19
Nsg20
Nsg21
F0.857
sg22
Nsg23
Nsg24
F-9.764
ssg25
I01
sba(iSong
Song
p1934
(dp1935
g3
(dp1936
g5
F0.442
sg6
VHoodoo Man Blues
p1937
sg8
F103.924
sg9
F0.324
sg10
S'blues'
p1938
sg12
F0.332
sg13
VJunior Wells
p1939
sg15
I9999
sg16
F0.708
sg17
Nsg18
F0.000147
sg19
Nsg20
Nsg21
F0.638
sg22
Nsg23
Nsg24
F-13.247
ssg25
I01
sba(iSong
Song
p1940
(dp1941
g3
(dp1942
g5
F0.833
sg6
VI've Got A Woman
p1943
sg8
F199.373
sg9
F0.61
sg10
S'blues'
p1944
sg12
F0.213
sg13
VRay Charles
p1945
sg15
I9999
sg16
F0.556
sg17
Nsg18
F2.22e-06
sg19
Nsg20
Nsg21
F0.665
sg22
Nsg23
Nsg24
F-4.729
ssg25
I01
sba(iSong
Song
p1946
(dp1947
g3
(dp1948
g5
F0.708
sg6
VSpoonful
p1949
sg8
F119.108
sg9
F0.466
sg10
S'blues'
p1950
sg12
F0.0426
sg13
VHowlin' Wolf
p1951
sg15
I9999
sg16
F0.854
sg17
Nsg18
F0.000267
sg19
Nsg20
Nsg21
F0.634
sg22
Nsg23
Nsg24
F-8.997
ssg25
I01
sba(iSong
Song
p1952
(dp1953
g3
(dp1954
g5
F0.416
sg6
VBack Door Man
p1955
sg8
F109.889
sg9
F0.441
sg10
S'blues'
p1956
sg12
F0.0604
sg13
VWillie Dixon
p1957
sg15
I9999
sg16
F0.8
sg17
Nsg18
F0.0404
sg19
Nsg20
Nsg21
F0.795
sg22
Nsg23
Nsg24
F-15.98
ssg25
I01
sba(iSong
Song
p1958
(dp1959
g3
(dp1960
g5
F0.492
sg6
VWorking Man
p1961
sg8
F103.355
sg9
F0.625
sg10
S'blues'
p1962
sg12
F0.0436
sg13
VOtis Rush
p1963
sg15
I9999
sg16
F0.633
sg17
Nsg18
F0.000418
sg19
Nsg20
Nsg21
F0.841
sg22
Nsg23
Nsg24
F-10.951
ssg25
I01
sba(iSong
Song
p1964
(dp1965
g3
(dp1966
g5
F0.284
sg6
VI'm A Man - Single Version
p1967
sg8
F127.497
sg9
F0.54
sg10
S'blues'
p1968
sg12
F0.0462
sg13
VBo Diddley
p1969
sg15
I9999
sg16
F0.617
sg17
Nsg18
I0
sg19
Nsg20
Nsg21
F0.86
sg22
Nsg23
Nsg24
F-13.494
ssg25
I01
sba(iSong
Song
p1970
(dp1971
g3
(dp1972
g5
F0.944
sg6
VSomeday (Electric)
p1973
sg8
F94.197
sg9
F0.333
sg10
S'blues'
p1974
sg12
F0.032
sg13
VOtis Spann
p1975
sg15
I9999
sg16
F0.581
sg17
Nsg18
F0.472
sg19
Nsg20
Nsg21
F0.488
sg22
Nsg23
Nsg24
F-14.209
ssg25
I01
sba(iSong
Song
p1976
(dp1977
g3
(dp1978
g5
F0.545
sg6
VCall It Stormy Monday
p1979
sg8
F100.979
sg9
F0.301
sg10
S'blues'
p1980
sg12
F0.0423
sg13
VT-Bone Walker
p1981
sg15
I9999
sg16
F0.606
sg17
Nsg18
F0.00194
sg19
Nsg20
Nsg21
F0.457
sg22
Nsg23
Nsg24
F-11.402
ssg25
I01
sba(iSong
Song
p1982
(dp1983
g3
(dp1984
g5
F0.0226
sg6
VThe Sky Is Crying
p1985
sg8
F178.191
sg9
F0.611
sg10
S'blues'
p1986
sg12
F0.0348
sg13
VElmore James
p1987
sg15
I9999
sg16
F0.294
sg17
Nsg18
F0.435
sg19
Nsg20
Nsg21
F0.567
sg22
Nsg23
Nsg24
F-6.268
ssg25
I01
sba(iSong
Song
p1988
(dp1989
g3
(dp1990
g5
F0.225
sg6
VNo Angels
p1991
sg8
F131.652
sg9
F0.655
sg10
S'blues'
p1992
sg12
F0.0837
sg13
VSamantha Fish
p1993
sg15
I9999
sg16
F0.635
sg17
Nsg18
F0.00149
sg19
Nsg20
Nsg21
F0.373
sg22
Nsg23
Nsg24
F-9.336
ssg25
I01
sba(iSong
Song
p1994
(dp1995
g3
(dp1996
g5
F0.0791
sg6
VWe're All In This Together (feat. Joe Bonamassa)
p1997
sg8
F110.209
sg9
F0.858
sg10
S'blues'
p1998
sg12
F0.065
sg13
VWalter Trout
p1999
sg15
I9999
sg16
F0.372
sg17
Nsg18
F0.342
sg19
Nsg20
Nsg21
F0.612
sg22
Nsg23
Nsg24
F-4.42
ssg25
I01
sba(iSong
Song
p2000
(dp2001
g3
(dp2002
g5
F0.00726
sg6
VWhat Would You Do
p2003
sg8
F98.036
sg9
F0.702
sg10
S'blues'
p2004
sg12
F0.0354
sg13
VLaurence Jones
p2005
sg15
I9999
sg16
F0.709
sg17
Nsg18
F1.5e-06
sg19
Nsg20
Nsg21
F0.573
sg22
Nsg23
Nsg24
F-5.572
ssg25
I01
sba(iSong
Song
p2006
(dp2007
g3
(dp2008
g5
F0.11
sg6
VHeadful of Blues
p2009
sg8
F148.062
sg9
F0.521
sg10
S'blues'
p2010
sg12
F0.0325
sg13
VSnowy White
p2011
sg15
I9999
sg16
F0.595
sg17
Nsg18
F0.0369
sg19
Nsg20
Nsg21
F0.66
sg22
Nsg23
Nsg24
F-8.544
ssg25
I01
sba(iSong
Song
p2012
(dp2013
g3
(dp2014
g5
F0.167
sg6
VLet 'Em In
p2015
sg8
F86.999
sg9
F0.446
sg10
S'blues'
p2016
sg12
F0.0313
sg13
VThe Bros. Landreth
p2017
sg15
I9999
sg16
F0.768
sg17
Nsg18
F5.36e-06
sg19
Nsg20
Nsg21
F0.489
sg22
Nsg23
Nsg24
F-7.255
ssg25
I01
sba(iSong
Song
p2018
(dp2019
g3
(dp2020
g5
F0.191
sg6
VDon't Give Up
p2021
sg8
F112.245
sg9
F0.693
sg10
S'blues'
p2022
sg12
F0.0392
sg13
VSouthern Avenue
p2023
sg15
I9999
sg16
F0.639
sg17
Nsg18
F3.18e-05
sg19
Nsg20
Nsg21
F0.537
sg22
Nsg23
Nsg24
F-4.549
ssg25
I01
sba(iSong
Song
p2024
(dp2025
g3
(dp2026
g5
F0.05
sg6
VMs. Molly
p2027
sg8
F81.431
sg9
F0.786
sg10
S'blues'
p2028
sg12
F0.0809
sg13
VCabinet
p2029
sg15
I9999
sg16
F0.588
sg17
Nsg18
F0.000134
sg19
Nsg20
Nsg21
F0.53
sg22
Nsg23
Nsg24
F-5.543
ssg25
I01
sba(iSong
Song
p2030
(dp2031
g3
(dp2032
g5
F0.184
sg6
VGood Advice
p2033
sg8
F110.06
sg9
F0.739
sg10
S'blues'
p2034
sg12
F0.0589
sg13
VJackie Greene
p2035
sg15
I9999
sg16
F0.745
sg17
Nsg18
F0.0137
sg19
Nsg20
Nsg21
F0.753
sg22
Nsg23
Nsg24
F-4.38
ssg25
I01
sba(iSong
Song
p2036
(dp2037
g3
(dp2038
g5
F0.0515
sg6
VBetrayed Me
p2039
sg8
F82.963
sg9
F0.718
sg10
S'blues'
p2040
sg12
F0.0294
sg13
VKing King
p2041
sg15
I9999
sg16
F0.535
sg17
Nsg18
F0.0507
sg19
Nsg20
Nsg21
F0.531
sg22
Nsg23
Nsg24
F-6.096
ssg25
I01
sba(iSong
Song
p2042
(dp2043
g3
(dp2044
g5
F0.0474
sg6
VBlues Been Good to Me
p2045
sg8
F116.042
sg9
F0.79
sg10
S'blues'
p2046
sg12
F0.0391
sg13
VJames Armstrong
p2047
sg15
I9999
sg16
F0.747
sg17
Nsg18
F0.000183
sg19
Nsg20
Nsg21
F0.798
sg22
Nsg23
Nsg24
F-6.631
ssg25
I01
sba(iSong
Song
p2048
(dp2049
g3
(dp2050
g5
F0.96
sg6
VCome on in My Kitchen
p2051
sg8
F81.725
sg9
F0.25
sg10
S'blues'
p2052
sg12
F0.0493
sg13
VLarkin Poe
p2053
sg15
I9999
sg16
F0.531
sg17
Nsg18
F1.69e-05
sg19
Nsg20
Nsg21
F0.425
sg22
Nsg23
Nsg24
F-9.523
ssg25
I01
sba(iSong
Song
p2054
(dp2055
g3
(dp2056
g5
F0.241
sg6
VLittle Bit
p2057
sg8
F84.241
sg9
F0.463
sg10
S'blues'
p2058
sg12
F0.0346
sg13
VMavis Staples
p2059
sg15
I9999
sg16
F0.804
sg17
Nsg18
F0.0167
sg19
Nsg20
Nsg21
F0.662
sg22
Nsg23
Nsg24
F-8.873
ssg25
I01
sba(iSong
Song
p2060
(dp2061
g3
(dp2062
g5
F0.455
sg6
VMake It Move
p2063
sg8
F77.582
sg9
F0.473
sg10
S'blues'
p2064
sg12
F0.102
sg13
VJonny Lang
p2065
sg15
I9999
sg16
F0.647
sg17
Nsg18
I0
sg19
Nsg20
Nsg21
F0.67
sg22
Nsg23
Nsg24
F-6.064
ssg25
I01
sba(iSong
Song
p2066
(dp2067
g3
(dp2068
g5
F0.376
sg6
VIf You Believe in Me
p2069
sg8
F102.98
sg9
F0.577
sg10
S'blues'
p2070
sg12
F0.0264
sg13
VRobin Trower
p2071
sg15
I9999
sg16
F0.678
sg17
Nsg18
F0.00272
sg19
Nsg20
Nsg21
F0.27
sg22
Nsg23
Nsg24
F-9.024
ssg25
I01
sba(iSong
Song
p2072
(dp2073
g3
(dp2074
g5
F0.0334
sg6
VBaby Got Gone
p2075
sg8
F99.01
sg9
F0.878
sg10
S'blues'
p2076
sg12
F0.032
sg13
VKenny Wayne Shepherd
p2077
sg15
I9999
sg16
F0.576
sg17
Nsg18
I0
sg19
Nsg20
Nsg21
F0.764
sg22
Nsg23
Nsg24
F-5.091
ssg25
I01
sba(iSong
Song
p2078
(dp2079
g3
(dp2080
g5
F0.626
sg6
VNobody Gets Out Alive (From "The Hitman's Bodyguard")
p2081
sg8
F105.021
sg9
F0.572
sg10
S'blues'
p2082
sg12
F0.0591
sg13
VSamuel L. Jackson
p2083
sg15
I9999
sg16
F0.594
sg17
Nsg18
I0
sg19
Nsg20
Nsg21
F0.779
sg22
Nsg23
Nsg24
F-7.315
ssg25
I01
sba(iSong
Song
p2084
(dp2085
g3
(dp2086
g5
F0.742
sg6
VMigration Blues
p2087
sg8
F154.466
sg9
F0.488
sg10
S'blues'
p2088
sg12
F0.0311
sg13
VEric Bibb
p2089
sg15
I9999
sg16
F0.47
sg17
Nsg18
F0.427
sg19
Nsg20
Nsg21
F0.613
sg22
Nsg23
Nsg24
F-9.78
ssg25
I01
sba(iSong
Song
p2090
(dp2091
g3
(dp2092
g5
F0.0068
sg6
VGonna Hurt Like Hell (feat. Kenny Wayne Shepherd)
p2093
sg8
F118.14
sg9
F0.843
sg10
S'blues'
p2094
sg12
F0.0429
sg13
VWalter Trout
p2095
sg15
I9999
sg16
F0.48
sg17
Nsg18
F0.0507
sg19
Nsg20
Nsg21
F0.86
sg22
Nsg23
Nsg24
F-5.658
ssg25
I01
sba(iSong
Song
p2096
(dp2097
g3
(dp2098
g5
F0.178
sg6
VUnder the Midnight Sun
p2099
sg8
F103.959
sg9
F0.544
sg10
S'blues'
p2100
sg12
F0.0281
sg13
VKaren Lovely
p2101
sg15
I9999
sg16
F0.746
sg17
Nsg18
F0.000594
sg19
Nsg20
Nsg21
F0.771
sg22
Nsg23
Nsg24
F-6.461
ssg25
I01
sba(iSong
Song
p2102
(dp2103
g3
(dp2104
g5
F0.0453
sg6
VStronger Together
p2105
sg8
F157.04
sg9
F0.635
sg10
S'blues'
p2106
sg12
F0.154
sg13
VJonny Lang
p2107
sg15
I9999
sg16
F0.685
sg17
Nsg18
I0
sg19
Nsg20
Nsg21
F0.862
sg22
Nsg23
Nsg24
F-7.015
ssg25
I01
sba(iSong
Song
p2108
(dp2109
g3
(dp2110
g5
F0.528
sg6
VSomeday After a While
p2111
sg8
F115.463
sg9
F0.588
sg10
S'blues'
p2112
sg12
F0.0378
sg13
VCarl Verheyen
p2113
sg15
I9999
sg16
F0.724
sg17
Nsg18
F0.00157
sg19
Nsg20
Nsg21
F0.447
sg22
Nsg23
Nsg24
F-6.112
ssg25
I01
sba(iSong
Song
p2114
(dp2115
g3
(dp2116
g5
F0.00358
sg6
VI Can Tell
p2117
sg8
F118.04
sg9
F0.801
sg10
S'blues'
p2118
sg12
F0.036
sg13
VJaniva Magness
p2119
sg15
I9999
sg16
F0.644
sg17
Nsg18
F0.000871
sg19
Nsg20
Nsg21
F0.913
sg22
Nsg23
Nsg24
F-6.218
ssg25
I01
sba(iSong
Song
p2120
(dp2121
g3
(dp2122
g5
F0.282
sg6
VAin't Gonna Name Names
p2123
sg8
F120.063
sg9
F0.736
sg10
S'blues'
p2124
sg12
F0.0546
sg13
VThe Reverend Shawn Amos
p2125
sg15
I9999
sg16
F0.714
sg17
Nsg18
F0.000173
sg19
Nsg20
Nsg21
F0.64
sg22
Nsg23
Nsg24
F-4.475
ssg25
I01
sba(iSong
Song
p2126
(dp2127
g3
(dp2128
g5
F0.018
sg6
VDown To The Bottom
p2129
sg8
F87.465
sg9
F0.6
sg10
S'blues'
p2130
sg12
F0.0266
sg13
VDorothy
p2131
sg15
I9999
sg16
F0.608
sg17
Nsg18
I0
sg19
Nsg20
Nsg21
F0.553
sg22
Nsg23
Nsg24
F-5.459
ssg25
I01
sba(iSong
Song
p2132
(dp2133
g3
(dp2134
g5
F0.825
sg6
VTwelve String Mile
p2135
sg8
F89.934
sg9
F0.283
sg10
S'blues'
p2136
sg12
F0.0431
sg13
VOtis Taylor
p2137
sg15
I9999
sg16
F0.76
sg17
Nsg18
F0.36
sg19
Nsg20
Nsg21
F0.68
sg22
Nsg23
Nsg24
F-14.181
ssg25
I01
sba(iSong
Song
p2138
(dp2139
g3
(dp2140
g5
F0.449
sg6
VDo You Still See Me At All (feat. Jon Trout)
p2141
sg8
F113.919
sg9
F0.788
sg10
S'blues'
p2142
sg12
F0.0442
sg13
VWalter Trout
p2143
sg15
I9999
sg16
F0.466
sg17
Nsg18
F0.195
sg19
Nsg20
Nsg21
F0.709
sg22
Nsg23
Nsg24
F-4.685
ssg25
I01
sba(iSong
Song
p2144
(dp2145
g3
(dp2146
g5
F0.611
sg6
VSpoonful
p2147
sg8
F112.787
sg9
F0.432
sg10
S'blues'
p2148
sg12
F0.0347
sg13
VBenjamin Booker
p2149
sg15
I9999
sg16
F0.789
sg17
Nsg18
F4.97e-05
sg19
Nsg20
Nsg21
F0.846
sg22
Nsg23
Nsg24
F-10.574
ssg25
I01
sba(iSong
Song
p2150
(dp2151
g3
(dp2152
g5
F0.00124
sg6
VGot Soul
p2153
sg8
F119.952
sg9
F0.808
sg10
S'blues'
p2154
sg12
F0.0502
sg13
VRobert Randolph & The Family Band
p2155
sg15
I9999
sg16
F0.616
sg17
Nsg18
F0.000111
sg19
Nsg20
Nsg21
F0.531
sg22
Nsg23
Nsg24
F-4.505
ssg25
I01
sba(iSong
Song
p2156
(dp2157
g3
(dp2158
g5
F0.509
sg6
VCan't Turn Back the Clock
p2159
sg8
F140.051
sg9
F0.677
sg10
S'blues'
p2160
sg12
F0.0367
sg13
VRobin Trower
p2161
sg15
I9999
sg16
F0.703
sg17
Nsg18
F2.26e-06
sg19
Nsg20
Nsg21
F0.749
sg22
Nsg23
Nsg24
F-8.25
ssg25
I01
sba(iSong
Song
p2162
(dp2163
g3
(dp2164
g5
F0.0068
sg6
VAre You
p2165
sg8
F93.375
sg9
F0.852
sg10
S'blues'
p2166
sg12
F0.0309
sg13
VThe Delta Saints
p2167
sg15
I9999
sg16
F0.43
sg17
Nsg18
F0.00011
sg19
Nsg20
Nsg21
F0.509
sg22
Nsg23
Nsg24
F-7.303
ssg25
I01
sba(iSong
Song
p2168
(dp2169
g3
(dp2170
g5
F0.513
sg6
VWasted
p2171
sg8
F89.969
sg9
F0.774
sg10
S'blues'
p2172
sg12
F0.0288
sg13
VBlack Joe Lewis & The Honeybears
p2173
sg15
I9999
sg16
F0.558
sg17
Nsg18
F0.0456
sg19
Nsg20
Nsg21
F0.787
sg22
Nsg23
Nsg24
F-3.064
ssg25
I01
sba(iSong
Song
p2174
(dp2175
g3
(dp2176
g5
F0.762
sg6
VMiddle of Nowhere
p2177
sg8
F88.044
sg9
F0.401
sg10
S'blues'
p2178
sg12
F0.0315
sg13
VDelbert McClinton
p2179
sg15
I9999
sg16
F0.797
sg17
Nsg18
F0.0019
sg19
Nsg20
Nsg21
F0.748
sg22
Nsg23
Nsg24
F-6.722
ssg25
I01
sba(iSong
Song
p2180
(dp2181
g3
(dp2182
g5
F0.843
sg6
VBoneyard - Edit
p2183
sg8
F106.538
sg9
F0.475
sg10
S'blues'
p2184
sg12
F0.0265
sg13
VFink
p2185
sg15
I9999
sg16
F0.386
sg17
Nsg18
F0.000106
sg19
Nsg20
Nsg21
F0.391
sg22
Nsg23
Nsg24
F-8.254
ssg25
I01
sba(iSong
Song
p2186
(dp2187
g3
(dp2188
g5
F0.0684
sg6
VMidnight Highway
p2189
sg8
F124.704
sg9
F0.707
sg10
S'blues'
p2190
sg12
F0.0428
sg13
VQuinn Sullivan
p2191
sg15
I9999
sg16
F0.482
sg17
Nsg18
F1.6e-05
sg19
Nsg20
Nsg21
F0.489
sg22
Nsg23
Nsg24
F-4.855
ssg25
I01
sba(iSong
Song
p2192
(dp2193
g3
(dp2194
g5
F0.175
sg6
VLove Is A Lie
p2195
sg8
F113.912
sg9
F0.534
sg10
S'blues'
p2196
sg12
F0.0419
sg13
VBeth Hart
p2197
sg15
I9999
sg16
F0.73
sg17
Nsg18
F0.000185
sg19
Nsg20
Nsg21
F0.709
sg22
Nsg23
Nsg24
F-6.639
ssg25
I01
sba(iSong
Song
p2198
(dp2199
g3
(dp2200
g5
F0.116
sg6
VThe Reformation
p2201
sg8
F89.984
sg9
F0.585
sg10
S'blues'
p2202
sg12
F0.0409
sg13
VJo Harman
p2203
sg15
I9999
sg16
F0.572
sg17
Nsg18
F1.47e-05
sg19
Nsg20
Nsg21
F0.611
sg22
Nsg23
Nsg24
F-7.772
ssg25
I01
sba(iSong
Song
p2204
(dp2205
g3
(dp2206
g5
F2.42e-06
sg6
VBlood from a Stone
p2207
sg8
F126.573
sg9
F0.945
sg10
S'blues'
p2208
sg12
F0.181
sg13
VEric Krasno
p2209
sg15
I9999
sg16
F0.275
sg17
Nsg18
F0.914
sg19
Nsg20
Nsg21
F0.321
sg22
Nsg23
Nsg24
F-4.796
ssg25
I01
sba(iSong
Song
p2210
(dp2211
g3
(dp2212
g5
F0.179
sg6
VLong Story Short
p2213
sg8
F102.302
sg9
F0.84
sg10
S'blues'
p2214
sg12
F0.0369
sg13
VRonnie Baker Brooks
p2215
sg15
I9999
sg16
F0.655
sg17
Nsg18
F0.328
sg19
Nsg20
Nsg21
F0.924
sg22
Nsg23
Nsg24
F-4.626
ssg25
I01
sba(iSong
Song
p2216
(dp2217
g3
(dp2218
g5
F0.15
sg6
VHonest Man
p2219
sg8
F93.481
sg9
F0.536
sg10
S'blues'
p2220
sg12
F0.0372
sg13
VMatt Andersen
p2221
sg15
I9999
sg16
F0.823
sg17
Nsg18
F7.19e-06
sg19
Nsg20
Nsg21
F0.777
sg22
Nsg23
Nsg24
F-5.793
ssg25
I01
sba(iSong
Song
p2222
(dp2223
g3
(dp2224
g5
F0.578
sg6
VKillin' Floor
p2225
sg8
F116.862
sg9
F0.242
sg10
S'blues'
p2226
sg12
F0.0382
sg13
VKail Baxley
p2227
sg15
I9999
sg16
F0.744
sg17
Nsg18
F0.243
sg19
Nsg20
Nsg21
F0.229
sg22
Nsg23
Nsg24
F-12.293
ssg25
I01
sba(iSong
Song
p2228
(dp2229
g3
(dp2230
g5
F0.00909
sg6
VPTP
p2231
sg8
F105.892
sg9
F0.878
sg10
S'blues'
p2232
sg12
F0.0471
sg13
VBlack Joe Lewis & The Honeybears
p2233
sg15
I9999
sg16
F0.649
sg17
Nsg18
F0.000159
sg19
Nsg20
Nsg21
F0.81
sg22
Nsg23
Nsg24
F-3.619
ssg25
I01
sba(iSong
Song
p2234
(dp2235
g3
(dp2236
g5
F0.0166
sg6
VAll of Your Love
p2237
sg8
F153.991
sg9
F0.891
sg10
S'blues'
p2238
sg12
F0.0445
sg13
VAynsley Lister
p2239
sg15
I9999
sg16
F0.457
sg17
Nsg18
F0.0179
sg19
Nsg20
Nsg21
F0.6
sg22
Nsg23
Nsg24
F-5.094
ssg25
I01
sba(iSong
Song
p2240
(dp2241
g3
(dp2242
g5
F0.401
sg6
VBrother, What Happened?
p2243
sg8
F90.04
sg9
F0.697
sg10
S'blues'
p2244
sg12
F0.0481
sg13
VMuddy Magnolias
p2245
sg15
I9999
sg16
F0.629
sg17
Nsg18
I0
sg19
Nsg20
Nsg21
F0.795
sg22
Nsg23
Nsg24
F-7.318
ssg25
I01
sba(iSong
Song
p2246
(dp2247
g3
(dp2248
g5
F0.0732
sg6
VTimes Have Changed (feat. Al Kapone)
p2249
sg8
F86.884
sg9
F0.779
sg10
S'blues'
p2250
sg12
F0.0371
sg13
VRonnie Baker Brooks
p2251
sg15
I9999
sg16
F0.679
sg17
Nsg18
F0.0631
sg19
Nsg20
Nsg21
F0.847
sg22
Nsg23
Nsg24
F-5.184
ssg25
I01
sba(iSong
Song
p2252
(dp2253
g3
(dp2254
g5
F0.401
sg6
VI Know A Good Thing
p2255
sg8
F91.12
sg9
F0.624
sg10
S'blues'
p2256
sg12
F0.0388
sg13
VCurtis Salgado
p2257
sg15
I9999
sg16
F0.751
sg17
Nsg18
F0.000584
sg19
Nsg20
Nsg21
F0.847
sg22
Nsg23
Nsg24
F-6.025
ssg25
I01
sba(iSong
Song
p2258
(dp2259
g3
(dp2260
g5
F0.104
sg6
VAbandoned
p2261
sg8
F126.935
sg9
F0.647
sg10
S'blues'
p2262
sg12
F0.0283
sg13
VGina Sicilia
p2263
sg15
I9999
sg16
F0.643
sg17
Nsg18
F2.14e-06
sg19
Nsg20
Nsg21
F0.547
sg22
Nsg23
Nsg24
F-4.688
ssg25
I01
sba(iSong
Song
p2264
(dp2265
g3
(dp2266
g5
F0.0455
sg6
VEarly Morning Blues
p2267
sg8
F99.771
sg9
F0.553
sg10
S'blues'
p2268
sg12
F0.0638
sg13
VHenrik Freischlader Trio
p2269
sg15
I9999
sg16
F0.649
sg17
Nsg18
F2.88e-05
sg19
Nsg20
Nsg21
F0.514
sg22
Nsg23
Nsg24
F-9.095
ssg25
I01
sba(iSong
Song
p2270
(dp2271
g3
(dp2272
g5
F0.412
sg6
VGoing Down
p2273
sg8
F92.405
sg9
F0.81
sg10
S'blues'
p2274
sg12
F0.0308
sg13
VColin James
p2275
sg15
I9999
sg16
F0.579
sg17
Nsg18
F0.0942
sg19
Nsg20
Nsg21
F0.2
sg22
Nsg23
Nsg24
F-6.527
ssg25
I01
sba(iSong
Song
p2276
(dp2277
g3
(dp2278
g5
F0.0937
sg6
VAngel in the Shadows
p2279
sg8
F102.804
sg9
F0.69
sg10
S'blues'
p2280
sg12
F0.0252
sg13
VHitman Blues Band
p2281
sg15
I9999
sg16
F0.516
sg17
Nsg18
F4.11e-05
sg19
Nsg20
Nsg21
F0.299
sg22
Nsg23
Nsg24
F-5.848
ssg25
I01
sba(iSong
Song
p2282
(dp2283
g3
(dp2284
g5
F0.476
sg6
VWaiting Around To Die
p2285
sg8
F143.939
sg9
F0.16
sg10
S'blues'
p2286
sg12
F0.045
sg13
VThe Devil Makes Three
p2287
sg15
I9999
sg16
F0.4
sg17
Nsg18
F1.42e-05
sg19
Nsg20
Nsg21
F0.097
sg22
Nsg23
Nsg24
F-15.425
ssg25
I01
sba(iSong
Song
p2288
(dp2289
g3
(dp2290
g5
F0.428
sg6
VRough and Tumble
p2291
sg8
I118
sg9
F0.86
sg10
S'blues'
p2292
sg12
F0.0356
sg13
VJono Manson
p2293
sg15
I9999
sg16
F0.656
sg17
Nsg18
F0.00127
sg19
Nsg20
Nsg21
F0.898
sg22
Nsg23
Nsg24
F-8.152
ssg25
I01
sba(iSong
Song
p2294
(dp2295
g3
(dp2296
g5
F0.293
sg6
VDon't Burn Me (feat. Anson Funderburgh)
p2297
sg8
F100.028
sg9
F0.561
sg10
S'blues'
p2298
sg12
F0.0302
sg13
VThe Fabulous Thunderbirds
p2299
sg15
I9999
sg16
F0.883
sg17
Nsg18
F0.0232
sg19
Nsg20
Nsg21
F0.659
sg22
Nsg23
Nsg24
F-9.125
ssg25
I01
sba(iSong
Song
p2300
(dp2301
g3
(dp2302
g5
F0.561
sg6
VBad Man
p2303
sg8
F162.077
sg9
F0.711
sg10
S'blues'
p2304
sg12
F0.0652
sg13
VJj Thames
p2305
sg15
I9999
sg16
F0.547
sg17
Nsg18
F0.0265
sg19
Nsg20
Nsg21
F0.834
sg22
Nsg23
Nsg24
F-6.778
ssg25
I01
sba(iSong
Song
p2306
(dp2307
g3
(dp2308
g5
F0.0863
sg6
VCan't Be Helped
p2309
sg8
F87.99
sg9
F0.717
sg10
S'blues'
p2310
sg12
F0.0275
sg13
VThe Soul Of John Black
p2311
sg15
I9999
sg16
F0.771
sg17
Nsg18
F0.000501
sg19
Nsg20
Nsg21
F0.845
sg22
Nsg23
Nsg24
F-3.938
ssg25
I01
sba(iSong
Song
p2312
(dp2313
g3
(dp2314
g5
F0.879
sg6
VIs It Me
p2315
sg8
F69.071
sg9
F0.164
sg10
S'blues'
p2316
sg12
F0.0389
sg13
VSt. Paul & The Broken Bones
p2317
sg15
I9999
sg16
F0.269
sg17
Nsg18
F0.00066
sg19
Nsg20
Nsg21
F0.254
sg22
Nsg23
Nsg24
F-12.865
ssg25
I01
sba(iSong
Song
p2318
(dp2319
g3
(dp2320
g5
F0.353
sg6
VChampagne And Reefer
p2321
sg8
F121.251
sg9
F0.836
sg10
S'blues'
p2322
sg12
F0.0451
sg13
VThe Devil Makes Three
p2323
sg15
I9999
sg16
F0.735
sg17
Nsg18
F0.0143
sg19
Nsg20
Nsg21
F0.781
sg22
Nsg23
Nsg24
F-7.467
ssg25
I01
sba(iSong
Song
p2324
(dp2325
g3
(dp2326
g5
F0.00712
sg6
VDyin' to Know
p2327
sg8
F140.017
sg9
F0.773
sg10
S'blues'
p2328
sg12
F0.0353
sg13
VJoanne Shaw Taylor
p2329
sg15
I9999
sg16
F0.528
sg17
Nsg18
F0.864
sg19
Nsg20
Nsg21
F0.506
sg22
Nsg23
Nsg24
F-8.153
ssg25
I01
sba(iSong
Song
p2330
(dp2331
g3
(dp2332
g5
F0.00855
sg6
VGrinder
p2333
sg8
F161.933
sg9
F0.792
sg10
S'blues'
p2334
sg12
F0.0363
sg13
VGary Clark Jr.
p2335
sg15
I9999
sg16
F0.293
sg17
Nsg18
F0.0111
sg19
Nsg20
Nsg21
F0.697
sg22
Nsg23
Nsg24
F-3.747
ssg25
I01
sba(iSong
Song
p2336
(dp2337
g3
(dp2338
g5
F0.301
sg6
VI Think I Love You Too Much
p2339
sg8
F111.292
sg9
F0.39
sg10
S'blues'
p2340
sg12
F0.0319
sg13
VBen Poole
p2341
sg15
I9999
sg16
F0.804
sg17
Nsg18
F0.446
sg19
Nsg20
Nsg21
F0.86
sg22
Nsg23
Nsg24
F-10.96
ssg25
I01
sba(iSong
Song
p2342
(dp2343
g3
(dp2344
g5
F0.306
sg6
VThe Valley Runs Low
p2345
sg8
F95.981
sg9
F0.546
sg10
S'blues'
p2346
sg12
F0.0239
sg13
VJoe Bonamassa
p2347
sg15
I9999
sg16
F0.749
sg17
Nsg18
F1.84e-05
sg19
Nsg20
Nsg21
F0.601
sg22
Nsg23
Nsg24
F-6.566
ssg25
I01
sba(iSong
Song
p2348
(dp2349
g3
(dp2350
g5
F0.753
sg6
VOnly a River
p2351
sg8
F128.019
sg9
F0.464
sg10
S'blues'
p2352
sg12
F0.0279
sg13
VBob Weir
p2353
sg15
I9999
sg16
F0.525
sg17
Nsg18
F0.0683
sg19
Nsg20
Nsg21
F0.453
sg22
Nsg23
Nsg24
F-9.379
ssg25
I01
sba(iSong
Song
p2354
(dp2355
g3
(dp2356
g5
F0.00462
sg6
VYou Ain't My Dog No More
p2357
sg8
F115.446
sg9
F0.735
sg10
S'blues'
p2358
sg12
F0.0352
sg13
VEliza Neals
p2359
sg15
I9999
sg16
F0.527
sg17
Nsg18
F0.211
sg19
Nsg20
Nsg21
F0.448
sg22
Nsg23
Nsg24
F-6.576
ssg25
I01
sba(iSong
Song
p2360
(dp2361
g3
(dp2362
g5
F0.00804
sg6
VShadows
p2363
sg8
F117.94
sg9
F0.978
sg10
S'blues'
p2364
sg12
F0.104
sg13
VPaul Reddick
p2365
sg15
I9999
sg16
F0.478
sg17
Nsg18
F2.71e-05
sg19
Nsg20
Nsg21
F0.287
sg22
Nsg23
Nsg24
F-3.832
ssg25
I01
sba(iSong
Song
p2366
(dp2367
g3
(dp2368
g5
F0.427
sg6
VDon't Know What It Means
p2369
sg8
F91.602
sg9
F0.624
sg10
S'blues'
p2370
sg12
F0.0343
sg13
VTedeschi Trucks Band
p2371
sg15
I9999
sg16
F0.648
sg17
Nsg18
F0.0139
sg19
Nsg20
Nsg21
F0.78
sg22
Nsg23
Nsg24
F-9.233
ssg25
I01
sba(iSong
Song
p2372
(dp2373
g3
(dp2374
g5
F0.351
sg6
VCan't Let You Do It
p2375
sg8
F99.659
sg9
F0.456
sg10
S'blues'
p2376
sg12
F0.031
sg13
VEric Clapton
p2377
sg15
I9999
sg16
F0.83
sg17
Nsg18
F0.0187
sg19
Nsg20
Nsg21
F0.918
sg22
Nsg23
Nsg24
F-13.282
ssg25
I01
sba(iSong
Song
p2378
(dp2379
g3
(dp2380
g5
F0.278
sg6
VDon't Hurt Me Now
p2381
sg8
F98.085
sg9
F0.681
sg10
S'blues'
p2382
sg12
F0.0291
sg13
VIna Forsman
p2383
sg15
I9999
sg16
F0.523
sg17
Nsg18
F9.77e-06
sg19
Nsg20
Nsg21
F0.51
sg22
Nsg23
Nsg24
F-4.243
ssg25
I01
sba(iSong
Song
p2384
(dp2385
g3
(dp2386
g5
F0.425
sg6
VHigh Note
p2387
sg8
F83.2
sg9
F0.575
sg10
S'blues'
p2388
sg12
F0.151
sg13
VMavis Staples
p2389
sg15
I9999
sg16
F0.609
sg17
Nsg18
F5.21e-05
sg19
Nsg20
Nsg21
F0.495
sg22
Nsg23
Nsg24
F-7.342
ssg25
I01
sba(iSong
Song
p2390
(dp2391
g3
(dp2392
g5
F0.768
sg6
VBorn To Play Guitar
p2393
sg8
F169.527
sg9
F0.423
sg10
S'blues'
p2394
sg12
F0.0694
sg13
VBuddy Guy
p2395
sg15
I9999
sg16
F0.479
sg17
Nsg18
F0.000305
sg19
Nsg20
Nsg21
F0.4
sg22
Nsg23
Nsg24
F-7.714
ssg25
I01
sba(iSong
Song
p2396
(dp2397
g3
(dp2398
g5
F0.021
sg6
VDon't Leave Me Here
p2399
sg8
F95.03
sg9
F0.775
sg10
S'blues'
p2400
sg12
F0.0389
sg13
VTaj Mahal
p2401
sg15
I9999
sg16
F0.784
sg17
Nsg18
F0.00351
sg19
Nsg20
Nsg21
F0.789
sg22
Nsg23
Nsg24
F-6.848
ssg25
I01
sba(iSong
Song
p2402
(dp2403
g3
(dp2404
g5
F0.84
sg6
VI Love You More Than You'll Ever Know
p2405
sg8
F104.122
sg9
F0.401
sg10
S'blues'
p2406
sg12
F0.0959
sg13
VJaniva Magness
p2407
sg15
I9999
sg16
F0.442
sg17
Nsg18
F0.000502
sg19
Nsg20
Nsg21
F0.268
sg22
Nsg23
Nsg24
F-8.731
ssg25
I01
sba(iSong
Song
p2408
(dp2409
g3
(dp2410
g5
F0.112
sg6
VSallisaw Blue
p2411
sg8
F150.77
sg9
F0.866
sg10
S'blues'
p2412
sg12
F0.0691
sg13
VJohn Moreland
p2413
sg15
I9999
sg16
F0.395
sg17
Nsg18
F9.85e-06
sg19
Nsg20
Nsg21
F0.836
sg22
Nsg23
Nsg24
F-7.047
ssg25
I01
sba(iSong
Song
p2414
(dp2415
g3
(dp2416
g5
F0.26
sg6
VWorking Woman
p2417
sg8
F75.98
sg9
F0.825
sg10
S'blues'
p2418
sg12
F0.0509
sg13
VRuthie Foster
p2419
sg15
I9999
sg16
F0.547
sg17
Nsg18
I0
sg19
Nsg20
Nsg21
F0.508
sg22
Nsg23
Nsg24
F-3.024
ssg25
I01
sba(iSong
Song
p2420
(dp2421
g3
(dp2422
g5
F0.00614
sg6
VChange of Pace
p2423
sg8
F92.14
sg9
F0.655
sg10
S'blues'
p2424
sg12
F0.0308
sg13
VGreyhounds
p2425
sg15
I9999
sg16
F0.641
sg17
Nsg18
F0.000431
sg19
Nsg20
Nsg21
F0.514
sg22
Nsg23
Nsg24
F-9.425
ssg25
I01
sba(iSong
Song
p2426
(dp2427
g3
(dp2428
g5
F0.00829
sg6
VDyin' To Know
p2429
sg8
F140.017
sg9
F0.79
sg10
S'blues'
p2430
sg12
F0.0383
sg13
VJoanne Shaw Taylor
p2431
sg15
I9999
sg16
F0.538
sg17
Nsg18
F0.834
sg19
Nsg20
Nsg21
F0.528
sg22
Nsg23
Nsg24
F-6.864
ssg25
I01
sba(iSong
Song
p2432
(dp2433
g3
(dp2434
g5
F0.346
sg6
VCall My Name
p2435
sg8
F75.529
sg9
F0.424
sg10
S'blues'
p2436
sg12
F0.0414
sg13
VSeth Walker
p2437
sg15
I9999
sg16
F0.701
sg17
Nsg18
F0.000203
sg19
Nsg20
Nsg21
F0.437
sg22
Nsg23
Nsg24
F-7.012
ssg25
I01
sba(iSong
Song
p2438
(dp2439
g3
(dp2440
g5
F0.978
sg6
VOhio
p2441
sg8
F122.093
sg9
F0.204
sg10
S'blues'
p2442
sg12
F0.0334
sg13
VJon Batiste
p2443
sg15
I9999
sg16
F0.425
sg17
Nsg18
F0.000481
sg19
Nsg20
Nsg21
F0.121
sg22
Nsg23
Nsg24
F-13.097
ssg25
I01
sba(iSong
Song
p2444
(dp2445
g3
(dp2446
g5
F0.186
sg6
VLong Haired Doney
p2447
sg8
F96.125
sg9
F0.789
sg10
S'blues'
p2448
sg12
F0.0371
sg13
VNorth Mississippi Allstars
p2449
sg15
I9999
sg16
F0.573
sg17
Nsg18
F0.835
sg19
Nsg20
Nsg21
F0.773
sg22
Nsg23
Nsg24
F-10.482
ssg25
I01
sba(iSong
Song
p2450
(dp2451
g3
(dp2452
g5
F0.0277
sg6
VHoller
p2453
sg8
F97.948
sg9
F0.853
sg10
S'blues'
p2454
sg12
F0.0692
sg13
VBand of Rascals
p2455
sg15
I9999
sg16
F0.369
sg17
Nsg18
I0
sg19
Nsg20
Nsg21
F0.383
sg22
Nsg23
Nsg24
F-3.438
ssg25
I01
sba(iSong
Song
p2456
(dp2457
g3
(dp2458
g5
F0.236
sg6
VLet The Good Times Roll - Live
p2459
sg8
F146.835
sg9
F0.881
sg10
S'blues'
p2460
sg12
F0.0572
sg13
VJoe Bonamassa
p2461
sg15
I9999
sg16
F0.334
sg17
Nsg18
F7.96e-05
sg19
Nsg20
Nsg21
F0.508
sg22
Nsg23
Nsg24
F-6.888
ssg25
I01
sba(iSong
Song
p2462
(dp2463
g3
(dp2464
g5
F0.222
sg6
VThe Healing - Live
p2465
sg8
F89.193
sg9
F0.56
sg10
S'blues'
p2466
sg12
F0.031
sg13
VGary Clark Jr.
p2467
sg15
I9999
sg16
F0.344
sg17
Nsg18
F0.00141
sg19
Nsg20
Nsg21
F0.345
sg22
Nsg23
Nsg24
F-8.363
ssg25
I01
sba(iSong
Song
p2468
(dp2469
g3
(dp2470
g5
F0.184
sg6
VSoul Salvation - Live
p2471
sg8
F132.041
sg9
F0.836
sg10
S'blues'
p2472
sg12
F0.0913
sg13
VSonny Landreth
p2473
sg15
I9999
sg16
F0.561
sg17
Nsg18
F0.00355
sg19
Nsg20
Nsg21
F0.495
sg22
Nsg23
Nsg24
F-8.904
ssg25
I01
sba(iSong
Song
p2474
(dp2475
g3
(dp2476
g5
F0.613
sg6
VBird On The Wire - Live
p2477
sg8
F106.117
sg9
F0.362
sg10
S'blues'
p2478
sg12
F0.0339
sg13
VTedeschi Trucks Band
p2479
sg15
I9999
sg16
F0.449
sg17
Nsg18
F0.000252
sg19
Nsg20
Nsg21
F0.392
sg22
Nsg23
Nsg24
F-11.389
ssg25
I01
sba(iSong
Song
p2480
(dp2481
g3
(dp2482
g5
F0.0231
sg6
VTexas Flood - Live at Ripley's Music Hall, Philadelphia, PA, Oct. 20, 1983
p2483
sg8
F138.538
sg9
F0.613
sg10
S'blues'
p2484
sg12
F0.0414
sg13
VStevie Ray Vaughan
p2485
sg15
I9999
sg16
F0.261
sg17
Nsg18
F0.0867
sg19
Nsg20
Nsg21
F0.402
sg22
Nsg23
Nsg24
F-9.778
ssg25
I01
sba(iSong
Song
p2486
(dp2487
g3
(dp2488
g5
F0.0447
sg6
VTrue Lies
p2489
sg8
F172.969
sg9
F0.913
sg10
S'blues'
p2490
sg12
F0.102
sg13
VKenny Wayne Shepherd
p2491
sg15
I9999
sg16
F0.116
sg17
Nsg18
F0.0524
sg19
Nsg20
Nsg21
F0.604
sg22
Nsg23
Nsg24
F-7.742
ssg25
I01
sba(iSong
Song
p2492
(dp2493
g3
(dp2494
g5
F0.00257
sg6
VStop Breakin' Down - Live
p2495
sg8
F116.409
sg9
F0.777
sg10
S'blues'
p2496
sg12
F0.137
sg13
VThe Jeff Healey Band
p2497
sg15
I9999
sg16
F0.376
sg17
Nsg18
F0.000925
sg19
Nsg20
Nsg21
F0.37
sg22
Nsg23
Nsg24
F-8.708
ssg25
I01
sba(iSong
Song
p2498
(dp2499
g3
(dp2500
g5
F0.355
sg6
VWeatherman
p2501
sg8
F170.582
sg9
F0.574
sg10
S'blues'
p2502
sg12
F0.208
sg13
VIna Forsman
p2503
sg15
I9999
sg16
F0.652
sg17
Nsg18
F9.66e-05
sg19
Nsg20
Nsg21
F0.628
sg22
Nsg23
Nsg24
F-9.092
ssg25
I01
sba(iSong
Song
p2504
(dp2505
g3
(dp2506
g5
F0.0687
sg6
VSteamroller / Powerful Thing - Live
p2507
sg8
F89.079
sg9
F0.967
sg10
S'blues'
p2508
sg12
F0.155
sg13
VPhilip Sayce
p2509
sg15
I9999
sg16
F0.328
sg17
Nsg18
I0
sg19
Nsg20
Nsg21
F0.152
sg22
Nsg23
Nsg24
F-4.975
ssg25
I01
sba(iSong
Song
p2510
(dp2511
g3
(dp2512
g5
F0.0264
sg6
VKeep On Growing - Live
p2513
sg8
F100.118
sg9
F0.821
sg10
S'blues'
p2514
sg12
F0.0602
sg13
VTedeschi Trucks Band
p2515
sg15
I9999
sg16
F0.318
sg17
Nsg18
F0.0789
sg19
Nsg20
Nsg21
F0.424
sg22
Nsg23
Nsg24
F-9.965
ssg25
I01
sba(iSong
Song
p2516
(dp2517
g3
(dp2518
g5
F0.0117
sg6
VFeeling Good - Live
p2519
sg8
F124.894
sg9
F0.844
sg10
S'blues'
p2520
sg12
F0.0593
sg13
VThe Sheepdogs
p2521
sg15
I9999
sg16
F0.292
sg17
Nsg18
F7.27e-06
sg19
Nsg20
Nsg21
F0.526
sg22
Nsg23
Nsg24
F-8.041
ssg25
I01
sba(iSong
Song
p2522
(dp2523
g3
(dp2524
g5
F0.197
sg6
VPocket Full of Dust (Live)
p2525
sg8
F183.927
sg9
F0.669
sg10
S'blues'
p2526
sg12
F0.103
sg13
VDave Fields
p2527
sg15
I9999
sg16
F0.257
sg17
Nsg18
F0.0491
sg19
Nsg20
Nsg21
F0.393
sg22
Nsg23
Nsg24
F-9.029
ssg25
I01
sba(iSong
Song
p2528
(dp2529
g3
(dp2530
g5
F0.0171
sg6
VTouch My Blues Away - Live
p2531
sg8
F158.661
sg9
F0.466
sg10
S'blues'
p2532
sg12
F0.0367
sg13
VJessy Martens and Band
p2533
sg15
I9999
sg16
F0.311
sg17
Nsg18
F0.00023
sg19
Nsg20
Nsg21
F0.233
sg22
Nsg23
Nsg24
F-8.163
ssg25
I01
sba(iSong
Song
p2534
(dp2535
g3
(dp2536
g5
F0.04
sg6
VWait On Time - Live
p2537
sg8
F118.076
sg9
F0.801
sg10
S'blues'
p2538
sg12
F0.0688
sg13
VKing King
p2539
sg15
I9999
sg16
F0.567
sg17
Nsg18
F0.00189
sg19
Nsg20
Nsg21
F0.58
sg22
Nsg23
Nsg24
F-8.378
ssg25
I01
sba(iSong
Song
p2540
(dp2541
g3
(dp2542
g5
F0.15
sg6
VRed Light - Live
p2543
sg8
F120.127
sg9
F0.462
sg10
S'blues'
p2544
sg12
F0.0541
sg13
VJonny Lang
p2545
sg15
I9999
sg16
F0.667
sg17
Nsg18
F1.16e-05
sg19
Nsg20
Nsg21
F0.341
sg22
Nsg23
Nsg24
F-8.894
ssg25
I01
sba(iSong
Song
p2546
(dp2547
g3
(dp2548
g5
F0.0809
sg6
VSome Other Day, Some Other Time - Live
p2549
sg8
F121.856
sg9
F0.82
sg10
S'blues'
p2550
sg12
F0.0365
sg13
VJoe Bonamassa
p2551
sg15
I9999
sg16
F0.645
sg17
Nsg18
F0.00174
sg19
Nsg20
Nsg21
F0.816
sg22
Nsg23
Nsg24
F-8.109
ssg25
I01
sba(iSong
Song
p2552
(dp2553
g3
(dp2554
g5
F0.37
sg6
VEveryday I Have The Blues - Live (San Quentin)
p2555
sg8
F138.005
sg9
F0.805
sg10
S'blues'
p2556
sg12
F0.0557
sg13
VB.B. King
p2557
sg15
I9999
sg16
F0.431
sg17
Nsg18
F2.27e-06
sg19
Nsg20
Nsg21
F0.589
sg22
Nsg23
Nsg24
F-6.785
ssg25
I01
sba(iSong
Song
p2558
(dp2559
g3
(dp2560
g5
F0.123
sg6
VA Better Man
p2561
sg8
F142.413
sg9
F0.772
sg10
S'blues'
p2562
sg12
F0.0544
sg13
VHenrik Freischlader
p2563
sg15
I9999
sg16
F0.312
sg17
Nsg18
F0.069
sg19
Nsg20
Nsg21
F0.628
sg22
Nsg23
Nsg24
F-6.007
ssg25
I01
sba(iSong
Song
p2564
(dp2565
g3
(dp2566
g5
F0.00491
sg6
VRoll With Me - Live
p2567
sg8
F146.349
sg9
F0.964
sg10
S'blues'
p2568
sg12
F0.065
sg13
VJohnny Winter
p2569
sg15
I9999
sg16
F0.401
sg17
Nsg18
F4.3e-05
sg19
Nsg20
Nsg21
F0.583
sg22
Nsg23
Nsg24
F-8.369
ssg25
I01
sba(iSong
Song
p2570
(dp2571
g3
(dp2572
g5
F0.083
sg6
VRiver Of Tears - Live
p2573
sg8
F108.618
sg9
F0.525
sg10
S'blues'
p2574
sg12
F0.0299
sg13
VEric Clapton
p2575
sg15
I9999
sg16
F0.457
sg17
Nsg18
F0.0975
sg19
Nsg20
Nsg21
F0.194
sg22
Nsg23
Nsg24
F-8.364
ssg25
I01
sba(iSong
Song
p2576
(dp2577
g3
(dp2578
g5
F0.0793
sg6
VWhy Me - Live
p2579
sg8
F165.307
sg9
F0.961
sg10
S'blues'
p2580
sg12
F0.0671
sg13
VAlbert Cummings
p2581
sg15
I9999
sg16
F0.255
sg17
Nsg18
F1.85e-05
sg19
Nsg20
Nsg21
F0.862
sg22
Nsg23
Nsg24
F-3.875
ssg25
I01
sba(iSong
Song
p2582
(dp2583
g3
(dp2584
g5
F0.0209
sg6
VDamn Right I've Got The Blues - Live
p2585
sg8
F102.043
sg9
F0.587
sg10
S'blues'
p2586
sg12
F0.12
sg13
VBuddy Guy
p2587
sg15
I9999
sg16
F0.348
sg17
Nsg18
F0.0818
sg19
Nsg20
Nsg21
F0.557
sg22
Nsg23
Nsg24
F-10.04
ssg25
I01
sba(iSong
Song
p2588
(dp2589
g3
(dp2590
g5
F0.0131
sg6
VCrying For My Baby
p2591
sg8
F153.538
sg9
F0.873
sg10
S'blues'
p2592
sg12
F0.0719
sg13
VSon Seals
p2593
sg15
I9999
sg16
F0.402
sg17
Nsg18
F5.02e-05
sg19
Nsg20
Nsg21
F0.658
sg22
Nsg23
Nsg24
F-8.201
ssg25
I01
sba(iSong
Song
p2594
(dp2595
g3
(dp2596
g5
F0.0191
sg6
VLonesome Whistle Blues - Live
p2597
sg8
F104.193
sg9
F0.72
sg10
S'blues'
p2598
sg12
F0.0315
sg13
VJoe Bonamassa
p2599
sg15
I9999
sg16
F0.545
sg17
Nsg18
F0.00337
sg19
Nsg20
Nsg21
F0.624
sg22
Nsg23
Nsg24
F-8.805
ssg25
I01
sba(iSong
Song
p2600
(dp2601
g3
(dp2602
g5
F0.0215
sg6
VCamp Washington Chile/If You Have To Know
p2603
sg8
F124.181
sg9
F0.726
sg10
S'blues'
p2604
sg12
F0.0336
sg13
VLonnie Mack
p2605
sg15
I9999
sg16
F0.395
sg17
Nsg18
F0.595
sg19
Nsg20
Nsg21
F0.804
sg22
Nsg23
Nsg24
F-11.278
ssg25
I01
sba(iSong
Song
p2606
(dp2607
g3
(dp2608
g5
F0.673
sg6
VGravity - Live In Concert
p2609
sg8
F115.281
sg9
F0.344
sg10
S'blues'
p2610
sg12
F0.035
sg13
VJohn Mayer Trio
p2611
sg15
I9999
sg16
F0.543
sg17
Nsg18
F0.00329
sg19
Nsg20
Nsg21
F0.477
sg22
Nsg23
Nsg24
F-9.599
ssg25
I01
sba(iSong
Song
p2612
(dp2613
g3
(dp2614
g5
F0.24
sg6
VThings Are Changin' - Live
p2615
sg8
F187.661
sg9
F0.639
sg10
S'blues'
p2616
sg12
F0.0963
sg13
VGary Clark Jr.
p2617
sg15
I9999
sg16
F0.303
sg17
Nsg18
F0.00328
sg19
Nsg20
Nsg21
F0.237
sg22
Nsg23
Nsg24
F-7.744
ssg25
I01
sba(iSong
Song
p2618
(dp2619
g3
(dp2620
g5
F0.0545
sg6
VHideaway
p2621
sg8
F125.627
sg9
F0.903
sg10
S'blues'
p2622
sg12
F0.122
sg13
VJohn Mayall & The Bluesbreakers
p2623
sg15
I9999
sg16
F0.495
sg17
Nsg18
F0.511
sg19
Nsg20
Nsg21
F0.63
sg22
Nsg23
Nsg24
F-7.598
ssg25
I01
sba(iSong
Song
p2624
(dp2625
g3
(dp2626
g5
F0.081
sg6
VChills & Thrills
p2627
sg8
F111.91
sg9
F0.752
sg10
S'blues'
p2628
sg12
F0.065
sg13
VBernard Allison
p2629
sg15
I9999
sg16
F0.581
sg17
Nsg18
F0.304
sg19
Nsg20
Nsg21
F0.627
sg22
Nsg23
Nsg24
F-9.183
ssg25
I01
sba(iSong
Song
p2630
(dp2631
g3
(dp2632
g5
F0.00162
sg6
VFreedom
p2633
sg8
F106.205
sg9
F0.8
sg10
S'blues'
p2634
sg12
F0.0698
sg13
VTony Spinner
p2635
sg15
I9999
sg16
F0.373
sg17
Nsg18
F0.00659
sg19
Nsg20
Nsg21
F0.89
sg22
Nsg23
Nsg24
F-6.892
ssg25
I01
sba(iSong
Song
p2636
(dp2637
g3
(dp2638
g5
F0.157
sg6
VBorn Under A Bad Sign - Live
p2639
sg8
F89.579
sg9
F0.793
sg10
S'blues'
p2640
sg12
F0.0269
sg13
VJoe Bonamassa
p2641
sg15
I9999
sg16
F0.443
sg17
Nsg18
F0.00304
sg19
Nsg20
Nsg21
F0.796
sg22
Nsg23
Nsg24
F-6.485
ssg25
I01
sba(iSong
Song
p2642
(dp2643
g3
(dp2644
g5
F0.0164
sg6
VKey To The Highway - Live
p2645
sg8
F111.808
sg9
F0.728
sg10
S'blues'
p2646
sg12
F0.0671
sg13
VThe Derek Trucks Band
p2647
sg15
I9999
sg16
F0.399
sg17
Nsg18
F0.0221
sg19
Nsg20
Nsg21
F0.504
sg22
Nsg23
Nsg24
F-6.121
ssg25
I01
sba(iSong
Song
p2648
(dp2649
g3
(dp2650
g5
F0.0827
sg6
VJudgment Day
p2651
sg8
F81.904
sg9
F0.716
sg10
S'blues'
p2652
sg12
F0.0283
sg13
VMike Zito
p2653
sg15
I9999
sg16
F0.493
sg17
Nsg18
F0.00837
sg19
Nsg20
Nsg21
F0.757
sg22
Nsg23
Nsg24
F-5.721
ssg25
I01
sba(iSong
Song
p2654
(dp2655
g3
(dp2656
g5
F0.467
sg6
VStoop Down Baby - Live
p2657
sg8
F108.868
sg9
F0.941
sg10
S'blues'
p2658
sg12
F0.0722
sg13
VPopa Chubby
p2659
sg15
I9999
sg16
F0.571
sg17
Nsg18
F0.351
sg19
Nsg20
Nsg21
F0.599
sg22
Nsg23
Nsg24
F-4.304
ssg25
I01
sba(iSong
Song
p2660
(dp2661
g3
(dp2662
g5
F0.0665
sg6
VLet Me Know
p2663
sg8
F154.487
sg9
F0.799
sg10
S'blues'
p2664
sg12
F0.109
sg13
VWalter Trout and The Free Radicals
p2665
sg15
I9999
sg16
F0.285
sg17
Nsg18
F0.00186
sg19
Nsg20
Nsg21
F0.611
sg22
Nsg23
Nsg24
F-6.216
ssg25
I01
sba(iSong
Song
p2666
(dp2667
g3
(dp2668
g5
F0.0935
sg6
VSoulshine
p2669
sg8
F122.781
sg9
F0.633
sg10
S'blues'
p2670
sg12
F0.0462
sg13
VGov't Mule
p2671
sg15
I9999
sg16
F0.418
sg17
Nsg18
F0.079
sg19
Nsg20
Nsg21
F0.483
sg22
Nsg23
Nsg24
F-8.138
ssg25
I01
sba(iSong
Song
p2672
(dp2673
g3
(dp2674
g5
F0.118
sg6
VMe & the Devil Blues
p2675
sg8
F110.584
sg9
F0.424
sg10
S'blues'
p2676
sg12
F0.0376
sg13
VJonah Tolchin
p2677
sg15
I9999
sg16
F0.492
sg17
Nsg18
F0.00513
sg19
Nsg20
Nsg21
F0.506
sg22
Nsg23
Nsg24
F-9.046
ssg25
I01
sba(iSong
Song
p2678
(dp2679
g3
(dp2680
g5
F0.75
sg6
VRestless Sinner
p2681
sg8
F120.485
sg9
F0.281
sg10
S'blues'
p2682
sg12
F0.036
sg13
VBlack Rebel Motorcycle Club
p2683
sg15
I9999
sg16
F0.381
sg17
Nsg18
I0
sg19
Nsg20
Nsg21
F0.298
sg22
Nsg23
Nsg24
F-12.363
ssg25
I01
sba(iSong
Song
p2684
(dp2685
g3
(dp2686
g5
F0.0051
sg6
VSeven Hells
p2687
sg8
F143.165
sg9
F0.613
sg10
S'blues'
p2688
sg12
F0.0838
sg13
VBrown Bird
p2689
sg15
I9999
sg16
F0.514
sg17
Nsg18
F0.00134
sg19
Nsg20
Nsg21
F0.545
sg22
Nsg23
Nsg24
F-9.51
ssg25
I01
sba(iSong
Song
p2690
(dp2691
g3
(dp2692
g5
F0.515
sg6
VDevil's Resting Place
p2693
sg8
F179.267
sg9
F0.59
sg10
S'blues'
p2694
sg12
F0.0916
sg13
VLaura Marling
p2695
sg15
I9999
sg16
F0.221
sg17
Nsg18
F0.0636
sg19
Nsg20
Nsg21
F0.713
sg22
Nsg23
Nsg24
F-12.299
ssg25
I01
sba(iSong
Song
p2696
(dp2697
g3
(dp2698
g5
F0.93
sg6
VCross Road Blues
p2699
sg8
F97.159
sg9
F0.311
sg10
S'blues'
p2700
sg12
F0.0525
sg13
VRobert Johnson
p2701
sg15
I9999
sg16
F0.675
sg17
Nsg18
F0.000261
sg19
Nsg20
Nsg21
F0.638
sg22
Nsg23
Nsg24
F-11.959
ssg25
I01
sba(iSong
Song
p2702
(dp2703
g3
(dp2704
g5
F0.875
sg6
VThe High Price of Inspiration
p2705
sg8
F130.63
sg9
F0.188
sg10
S'blues'
p2706
sg12
F0.0586
sg13
VHard Working Americans
p2707
sg15
I9999
sg16
F0.575
sg17
Nsg18
F0.00205
sg19
Nsg20
Nsg21
F0.322
sg22
Nsg23
Nsg24
F-16.499
ssg25
I01
sba(iSong
Song
p2708
(dp2709
g3
(dp2710
g5
F0.0446
sg6
VBad Things
p2711
sg8
F131.006
sg9
F0.864
sg10
S'blues'
p2712
sg12
F0.0399
sg13
VJace Everett
p2713
sg15
I9999
sg16
F0.591
sg17
Nsg18
F0.00571
sg19
Nsg20
Nsg21
F0.728
sg22
Nsg23
Nsg24
F-4.706
ssg25
I01
sba(iSong
Song
p2714
(dp2715
g3
(dp2716
g5
F0.381
sg6
VOld devils
p2717
sg8
F102.116
sg9
F0.461
sg10
S'blues'
p2718
sg12
F0.026
sg13
VWilliam Elliott Whitmore
p2719
sg15
I9999
sg16
F0.473
sg17
Nsg18
F1.44e-06
sg19
Nsg20
Nsg21
F0.408
sg22
Nsg23
Nsg24
F-10.643
ssg25
I01
sba(iSong
Song
p2720
(dp2721
g3
(dp2722
g5
F0.407
sg6
VGraveyard
p2723
sg8
F127.314
sg9
F0.494
sg10
S'blues'
p2724
sg12
F0.0275
sg13
VThe Devil Makes Three
p2725
sg15
I9999
sg16
F0.69
sg17
Nsg18
F3.79e-06
sg19
Nsg20
Nsg21
F0.84
sg22
Nsg23
Nsg24
F-9.147
ssg25
I01
sba(iSong
Song
p2726
(dp2727
g3
(dp2728
g5
F0.221
sg6
VCrossroads
p2729
sg8
F114.216
sg9
F0.507
sg10
S'blues'
p2730
sg12
F0.0564
sg13
VJohn Mayer
p2731
sg15
I9999
sg16
F0.894
sg17
Nsg18
F0.0661
sg19
Nsg20
Nsg21
F0.916
sg22
Nsg23
Nsg24
F-6.945
ssg25
I01
sba(iSong
Song
p2732
(dp2733
g3
(dp2734
g5
F0.993
sg6
VDevil's Gonna Git You
p2735
sg8
F71.434
sg9
F0.0442
sg10
S'blues'
p2736
sg12
F0.0371
sg13
VBessie Smith
p2737
sg15
I9999
sg16
F0.653
sg17
Nsg18
I0
sg19
Nsg20
Nsg21
F0.346
sg22
Nsg23
Nsg24
F-12.269
ssg25
I01
sba(iSong
Song
p2738
(dp2739
g3
(dp2740
g5
F0.931
sg6
VMe and the Devil Blues
p2741
sg8
F82.181
sg9
F0.111
sg10
S'blues'
p2742
sg12
F0.0873
sg13
VRobert Johnson
p2743
sg15
I9999
sg16
F0.717
sg17
Nsg18
F0.000163
sg19
Nsg20
Nsg21
F0.15
sg22
Nsg23
Nsg24
F-13.805
ssg25
I01
sba(iSong
Song
p2744
(dp2745
g3
(dp2746
g5
F0.995
sg6
VEvil Devil Woman Blues
p2747
sg8
F145.089
sg9
F0.0708
sg10
S'blues'
p2748
sg12
F0.0541
sg13
VMemphis Minnie & Kansas Joe
p2749
sg15
I9999
sg16
F0.476
sg17
Nsg18
F0.00912
sg19
Nsg20
Nsg21
F0.495
sg22
Nsg23
Nsg24
F-16.237
ssg25
I01
sba(iSong
Song
p2750
(dp2751
g3
(dp2752
g5
F0.763
sg6
VBlue Guitar
p2753
sg8
F68.804
sg9
F0.325
sg10
S'blues'
p2754
sg12
F0.0305
sg13
VEarl Hooker
p2755
sg15
I9999
sg16
F0.515
sg17
Nsg18
F0.912
sg19
Nsg20
Nsg21
F0.553
sg22
Nsg23
Nsg24
F-13.498
ssg25
I01
sba(iSong
Song
p2756
(dp2757
g3
(dp2758
g5
F0.994
sg6
VBlue Guitar Stomp
p2759
sg8
F182.717
sg9
F0.162
sg10
S'blues'
p2760
sg12
F0.055
sg13
VBuddy Burton & Fats Hudson
p2761
sg15
I9999
sg16
F0.533
sg17
Nsg18
F0.671
sg19
Nsg20
Nsg21
F0.764
sg22
Nsg23
Nsg24
F-15.774
ssg25
I01
sba(iSong
Song
p2762
(dp2763
g3
(dp2764
g5
F0.673
sg6
VBlue Guitar
p2765
sg8
F179.267
sg9
F0.203
sg10
S'blues'
p2766
sg12
F0.0407
sg13
VWillie Kent
p2767
sg15
I9999
sg16
F0.425
sg17
Nsg18
F0.849
sg19
Nsg20
Nsg21
F0.457
sg22
Nsg23
Nsg24
F-15.87
ssg25
I01
sba(iSong
Song
p2768
(dp2769
g3
(dp2770
g5
F0.767
sg6
VEvil Woman
p2771
sg8
F113.963
sg9
F0.271
sg10
S'blues'
p2772
sg12
F0.0667
sg13
VChampion Jack Dupree
p2773
sg15
I9999
sg16
F0.545
sg17
Nsg18
F6e-06
sg19
Nsg20
Nsg21
F0.679
sg22
Nsg23
Nsg24
F-17.69
ssg25
I01
sba(iSong
Song
p2774
(dp2775
g3
(dp2776
g5
F0.901
sg6
VI Put A Spell On You
p2777
sg8
F174.183
sg9
F0.384
sg10
S'blues'
p2778
sg12
F0.0321
sg13
VJesse Cook
p2779
sg15
I9999
sg16
F0.43
sg17
Nsg18
F0.0481
sg19
Nsg20
Nsg21
F0.304
sg22
Nsg23
Nsg24
F-9.18
ssg25
I01
sba(iSong
Song
p2780
(dp2781
g3
(dp2782
g5
F0.157
sg6
VDon't You Lie To Me (I Get Evil) - 2002 - Remaster
p2783
sg8
F147.996
sg9
F0.829
sg10
S'blues'
p2784
sg12
F0.0792
sg13
VGary Moore
p2785
sg15
I9999
sg16
F0.598
sg17
Nsg18
F6.78e-06
sg19
Nsg20
Nsg21
F0.777
sg22
Nsg23
Nsg24
F-8.512
ssg25
I01
sba(iSong
Song
p2786
(dp2787
g3
(dp2788
g5
F0.315
sg6
VStanding At The Crossroads
p2789
sg8
F99.617
sg9
F0.765
sg10
S'blues'
p2790
sg12
F0.0331
sg13
VElmore James
p2791
sg15
I9999
sg16
F0.632
sg17
Nsg18
F0.000246
sg19
Nsg20
Nsg21
F0.95
sg22
Nsg23
Nsg24
F-4.577
ssg25
I01
sba(iSong
Song
p2792
(dp2793
g3
(dp2794
g5
F0.489
sg6
VEvil Is Going On
p2795
sg8
F93.715
sg9
F0.284
sg10
S'blues'
p2796
sg12
F0.0668
sg13
VJohn Hammond
p2797
sg15
I9999
sg16
F0.622
sg17
Nsg18
F0.0744
sg19
Nsg20
Nsg21
F0.671
sg22
Nsg23
Nsg24
F-13.661
ssg25
I01
sba(iSong
Song
p2798
(dp2799
g3
(dp2800
g5
F0.446
sg6
VSweet Love and Evil Women
p2801
sg8
F106.983
sg9
F0.715
sg10
S'blues'
p2802
sg12
F0.0482
sg13
VJohnny Winter
p2803
sg15
I9999
sg16
F0.597
sg17
Nsg18
F0.454
sg19
Nsg20
Nsg21
F0.772
sg22
Nsg23
Nsg24
F-13.671
ssg25
I01
sba(iSong
Song
p2804
(dp2805
g3
(dp2806
g5
F0.989
sg6
VCross And Evil Woman Blues
p2807
sg8
F146.461
sg9
F0.0976
sg10
S'blues'
p2808
sg12
F0.0611
sg13
VRev. Blind Gary Davis
p2809
sg15
I9999
sg16
F0.586
sg17
Nsg18
F0.0472
sg19
Nsg20
Nsg21
F0.841
sg22
Nsg23
Nsg24
F-17.64
ssg25
I01
sba(iSong
Song
p2810
(dp2811
g3
(dp2812
g5
F0.911
sg6
VEvil Hearted Woman - Alternate Take
p2813
sg8
F66.035
sg9
F0.254
sg10
S'blues'
p2814
sg12
F0.0639
sg13
VT-Bone Walker
p2815
sg15
I9999
sg16
F0.582
sg17
Nsg18
F0.0208
sg19
Nsg20
Nsg21
F0.551
sg22
Nsg23
Nsg24
F-11.638
ssg25
I01
sba(iSong
Song
p2816
(dp2817
g3
(dp2818
g5
F0.987
sg6
VEvil Blues
p2819
sg8
F199.428
sg9
F0.0757
sg10
S'blues'
p2820
sg12
F0.0478
sg13
VMelvin "Lil' Son" Jackson
p2821
sg15
I9999
sg16
F0.599
sg17
Nsg18
F0.00555
sg19
Nsg20
Nsg21
F0.641
sg22
Nsg23
Nsg24
F-12.798
ssg25
I01
sba(iSong
Song
p2822
(dp2823
g3
(dp2824
g5
F0.781
sg6
VMean and Evil
p2825
sg8
F95.759
sg9
F0.269
sg10
S'blues'
p2826
sg12
F0.0633
sg13
VElmore James
p2827
sg15
I9999
sg16
F0.738
sg17
Nsg18
F0.071
sg19
Nsg20
Nsg21
F0.679
sg22
Nsg23
Nsg24
F-14.266
ssg25
I01
sba(iSong
Song
p2828
(dp2829
g3
(dp2830
g5
F0.992
sg6
VBlue And Evil Blues - Remastered - 1997
p2831
sg8
F81.463
sg9
F0.165
sg10
S'blues'
p2832
sg12
F0.0488
sg13
VTampa Red
p2833
sg15
I9999
sg16
F0.593
sg17
Nsg18
F0.0374
sg19
Nsg20
Nsg21
F0.455
sg22
Nsg23
Nsg24
F-13.663
ssg25
I01
sba(iSong
Song
p2834
(dp2835
g3
(dp2836
g5
F0.986
sg6
VBlack And Evil Blues
p2837
sg8
F111.997
sg9
F0.0851
sg10
S'blues'
p2838
sg12
F0.0759
sg13
VJosh White
p2839
sg15
I9999
sg16
F0.731
sg17
Nsg18
F9.63e-05
sg19
Nsg20
Nsg21
F0.641
sg22
Nsg23
Nsg24
F-14.7
ssg25
I01
sba(iSong
Song
p2840
(dp2841
g3
(dp2842
g5
F0.746
sg6
VDevil Don't Want Me Blues
p2843
sg8
F86.472
sg9
F0.469
sg10
S'blues'
p2844
sg12
F0.0305
sg13
VTristan Omand
p2845
sg15
I9999
sg16
F0.583
sg17
Nsg18
F0.00322
sg19
Nsg20
Nsg21
F0.357
sg22
Nsg23
Nsg24
F-6.077
ssg25
I01
sba(iSong
Song
p2846
(dp2847
g3
(dp2848
g5
F0.0109
sg6
VShe's Got The Devil In Her
p2849
sg8
F119.141
sg9
F0.9
sg10
S'blues'
p2850
sg12
F0.095
sg13
VBuddy Guy
p2851
sg15
I9999
sg16
F0.441
sg17
Nsg18
F0.462
sg19
Nsg20
Nsg21
F0.465
sg22
Nsg23
Nsg24
F-4.03
ssg25
I01
sba(iSong
Song
p2852
(dp2853
g3
(dp2854
g5
F0.917
sg6
VPreachin' Blues (Up Jumped the Devil)
p2855
sg8
F138.415
sg9
F0.313
sg10
S'blues'
p2856
sg12
F0.0526
sg13
VRobert Johnson
p2857
sg15
I9999
sg16
F0.665
sg17
Nsg18
F0.0118
sg19
Nsg20
Nsg21
F0.531
sg22
Nsg23
Nsg24
F-15.188
ssg25
I01
sba(iSong
Song
p2858
(dp2859
g3
(dp2860
g5
F0.000119
sg6
VDevil In My Closet
p2861
sg8
F81.018
sg9
F0.495
sg10
S'blues'
p2862
sg12
F0.0344
sg13
VJohn Campbell
p2863
sg15
I9999
sg16
F0.353
sg17
Nsg18
F0.0119
sg19
Nsg20
Nsg21
F0.567
sg22
Nsg23
Nsg24
F-11.503
ssg25
I01
sba(iSong
Song
p2864
(dp2865
g3
(dp2866
g5
F0.718
sg6
VBlue Devil Jump
p2867
sg8
F107.014
sg9
F0.349
sg10
S'blues'
p2868
sg12
F0.0362
sg13
VJay McShann
p2869
sg15
I9999
sg16
F0.732
sg17
Nsg18
F0.245
sg19
Nsg20
Nsg21
F0.77
sg22
Nsg23
Nsg24
F-9.386
ssg25
I01
sba(iSong
Song
p2870
(dp2871
g3
(dp2872
g5
F0.927
sg6
VCrossroads
p2873
sg8
F92.399
sg9
F0.356
sg10
S'blues'
p2874
sg12
F0.0458
sg13
VDavid "Honeyboy" Edwards
p2875
sg15
I9999
sg16
F0.537
sg17
Nsg18
F0.0653
sg19
Nsg20
Nsg21
F0.312
sg22
Nsg23
Nsg24
F-8.6
ssg25
I01
sba(iSong
Song
p2876
(dp2877
g3
(dp2878
g5
F0.0959
sg6
VDon't Give The Devil No Ground
p2879
sg8
F107.106
sg9
F0.945
sg10
S'blues'
p2880
sg12
F0.048
sg13
VJames & Lucky Peterson
p2881
sg15
I9999
sg16
F0.662
sg17
Nsg18
F0.000886
sg19
Nsg20
Nsg21
F0.874
sg22
Nsg23
Nsg24
F-4.637
ssg25
I01
sba(iSong
Song
p2882
(dp2883
g3
(dp2884
g5
F0.597
sg6
VDealin' With the Devil
p2885
sg8
F82.434
sg9
F0.713
sg10
S'blues'
p2886
sg12
F0.114
sg13
VMuddy Waters
p2887
sg15
I9999
sg16
F0.365
sg17
Nsg18
F2.07e-05
sg19
Nsg20
Nsg21
F0.324
sg22
Nsg23
Nsg24
F-6.984
ssg25
I01
sba(iSong
Song
p2888
(dp2889
g3
(dp2890
g5
F0.0451
sg6
VWhen The Devil Starts Crying
p2891
sg8
F140.217
sg9
F0.799
sg10
S'blues'
p2892
sg12
F0.0459
sg13
VJohn Mayall & The Bluesbreakers
p2893
sg15
I9999
sg16
F0.481
sg17
Nsg18
F0.000438
sg19
Nsg20
Nsg21
F0.745
sg22
Nsg23
Nsg24
F-8.098
ssg25
I01
sba(iSong
Song
p2894
(dp2895
g3
(dp2896
g5
F0.942
sg6
VDevil's Dream
p2897
sg8
F104.854
sg9
F0.0971
sg10
S'blues'
p2898
sg12
F0.0528
sg13
VRev. Gary Davis
p2899
sg15
I9999
sg16
F0.578
sg17
Nsg18
F0.805
sg19
Nsg20
Nsg21
F0.699
sg22
Nsg23
Nsg24
F-23.47
ssg25
I01
sba(iSong
Song
p2900
(dp2901
g3
(dp2902
g5
F0.161
sg6
VShe Wasn't Nothin' But a Devil
p2903
sg8
F123.994
sg9
F0.831
sg10
S'blues'
p2904
sg12
F0.12
sg13
VJohn Lee Hooker, Jr.
p2905
sg15
I9999
sg16
F0.418
sg17
Nsg18
I0
sg19
Nsg20
Nsg21
F0.76
sg22
Nsg23
Nsg24
F-2.228
ssg25
I01
sba(iSong
Song
p2906
(dp2907
g3
(dp2908
g5
F0.841
sg6
VDevil Got My Woman
p2909
sg8
F76.374
sg9
F0.202
sg10
S'blues'
p2910
sg12
F0.0407
sg13
VSkip James
p2911
sg15
I9999
sg16
F0.597
sg17
Nsg18
F1.44e-06
sg19
Nsg20
Nsg21
F0.521
sg22
Nsg23
Nsg24
F-11.696
ssg25
I01
sba(iSong
Song
p2912
(dp2913
g3
(dp2914
g5
F0.966
sg6
VSay No to the Devil
p2915
sg8
F172.133
sg9
F0.201
sg10
S'blues'
p2916
sg12
F0.0495
sg13
VRev. Gary Davis
p2917
sg15
I9999
sg16
F0.559
sg17
Nsg18
F0.00496
sg19
Nsg20
Nsg21
F0.627
sg22
Nsg23
Nsg24
F-13.496
ssg25
I01
sba(iSong
Song
p2918
(dp2919
g3
(dp2920
g5
F0.471
sg6
VOld Devil Moon
p2921
sg8
F143.469
sg9
F0.714
sg10
S'blues'
p2922
sg12
F0.0307
sg13
VMickey Baker
p2923
sg15
I9999
sg16
F0.5
sg17
Nsg18
F0.531
sg19
Nsg20
Nsg21
F0.872
sg22
Nsg23
Nsg24
F-7.949
ssg25
I01
sba(iSong
Song
p2924
(dp2925
g3
(dp2926
g5
F0.865
sg6
VDevil Is Watching You
p2927
sg8
F110.468
sg9
F0.424
sg10
S'blues'
p2928
sg12
F0.041
sg13
VLightnin' Hopkins
p2929
sg15
I9999
sg16
F0.559
sg17
Nsg18
F0.00118
sg19
Nsg20
Nsg21
F0.385
sg22
Nsg23
Nsg24
F-9.119
ssg25
I01
sba(iSong
Song
p2930
(dp2931
g3
(dp2932
g5
F0.979
sg6
VBlue Devil Blues
p2933
sg8
F75.872
sg9
F0.0132
sg10
S'blues'
p2934
sg12
F0.086
sg13
VTexas Alexander
p2935
sg15
I9999
sg16
F0.541
sg17
Nsg18
F1.95e-05
sg19
Nsg20
Nsg21
F0.319
sg22
Nsg23
Nsg24
F-24.372
ssg25
I01
sba(iSong
Song
p2936
(dp2937
g3
(dp2938
g5
F0.0995
sg6
VShoot The Devil
p2939
sg8
F119.98
sg9
F0.72
sg10
S'blues'
p2940
sg12
F0.0357
sg13
VDavid Jacobs-Strain
p2941
sg15
I9999
sg16
F0.561
sg17
Nsg18
F7.83e-06
sg19
Nsg20
Nsg21
F0.472
sg22
Nsg23
Nsg24
F-3.877
ssg25
I01
sba(iSong
Song
p2942
(dp2943
g3
(dp2944
g5
F0.322
sg6
VCrossroads - Remastered Version
p2945
sg8
F136.373
sg9
F0.736
sg10
S'blues'
p2946
sg12
F0.0481
sg13
VRy Cooder
p2947
sg15
I9999
sg16
F0.632
sg17
Nsg18
I0
sg19
Nsg20
Nsg21
F0.744
sg22
Nsg23
Nsg24
F-13.945
ssg25
I01
sba(iSong
Song
p2948
(dp2949
g3
(dp2950
g5
F0.417
sg6
VShake Hands With The Devil
p2951
sg8
F113.607
sg9
F0.479
sg10
S'blues'
p2952
sg12
F0.0338
sg13
VKenny Parker
p2953
sg15
I9999
sg16
F0.472
sg17
Nsg18
F0.00519
sg19
Nsg20
Nsg21
F0.619
sg22
Nsg23
Nsg24
F-14.961
ssg25
I01
sba(iSong
Song
p2954
(dp2955
g3
(dp2956
g5
F0.868
sg6
VThe Devil With The Devil
p2957
sg8
F88.73
sg9
F0.2
sg10
S'blues'
p2958
sg12
F0.106
sg13
VThe Golden Gate Quartet
p2959
sg15
I9999
sg16
F0.419
sg17
Nsg18
F0.827
sg19
Nsg20
Nsg21
F0.48
sg22
Nsg23
Nsg24
F-19.053
ssg25
I01
sba(iSong
Song
p2960
(dp2961
g3
(dp2962
g5
F0.876
sg6
VGwine Dig A Hole To Put The Devil In (142-B-1)
p2963
sg8
F124.605
sg9
F0.916
sg10
S'blues'
p2964
sg12
F0.393
sg13
VLead Belly
p2965
sg15
I9999
sg16
F0.668
sg17
Nsg18
F0.00584
sg19
Nsg20
Nsg21
F0.671
sg22
Nsg23
Nsg24
F-8.105
ssg25
I01
sba(iSong
Song
p2966
(dp2967
g3
(dp2968
g5
F0.865
sg6
VDevil Got My Woman
p2969
sg8
F92.64
sg9
F0.265
sg10
S'blues'
p2970
sg12
F0.03
sg13
VPaul Geremia
p2971
sg15
I9999
sg16
F0.497
sg17
Nsg18
F0.000585
sg19
Nsg20
Nsg21
F0.474
sg22
Nsg23
Nsg24
F-14.094
ssg25
I01
sba(iSong
Song
p2972
(dp2973
g3
(dp2974
g5
F0.345
sg6
VCrossRoads
p2975
sg8
F142.874
sg9
F0.591
sg10
S'blues'
p2976
sg12
F0.0337
sg13
VElmore James
p2977
sg15
I9999
sg16
F0.358
sg17
Nsg18
F0.00251
sg19
Nsg20
Nsg21
F0.885
sg22
Nsg23
Nsg24
F-16.09
ssg25
I01
sba(iSong
Song
p2978
(dp2979
g3
(dp2980
g5
F0.984
sg6
VThe Devil Is A Busy Man
p2981
sg8
F69.407
sg9
F0.635
sg10
S'blues'
p2982
sg12
F0.558
sg13
VJ.B. Lenoir, Sunny Land Slim and Friends
p2983
sg15
I9999
sg16
F0.557
sg17
Nsg18
F0.0118
sg19
Nsg20
Nsg21
F0.586
sg22
Nsg23
Nsg24
F-7.187
ssg25
I01
sba(iSong
Song
p2984
(dp2985
g3
(dp2986
g5
F0.208
sg6
VCrossroads - Crossroad 2 Box/Set Version/Live Version
p2987
sg8
F92.742
sg9
F0.637
sg10
S'blues'
p2988
sg12
F0.0308
sg13
VEric Clapton
p2989
sg15
I9999
sg16
F0.542
sg17
Nsg18
F0.277
sg19
Nsg20
Nsg21
F0.835
sg22
Nsg23
Nsg24
F-13.799
ssg25
I01
sba(iSong
Song
p2990
(dp2991
g3
(dp2992
g5
F0.971
sg6
VDevil Sent The Rain Blues
p2993
sg8
F182.901
sg9
F0.166
sg10
S'blues'
p2994
sg12
F0.0406
sg13
VCharley Patton
p2995
sg15
I9999
sg16
F0.485
sg17
Nsg18
F0.813
sg19
Nsg20
Nsg21
F0.336
sg22
Nsg23
Nsg24
F-15.223
ssg25
I01
sba(iSong
Song
p2996
(dp2997
g3
(dp2998
g5
F0.951
sg6
VDealing With The Devil
p2999
sg8
F82.455
sg9
F0.272
sg10
S'blues'
p3000
sg12
F0.0524
sg13
VBrownie McGhee
p3001
sg15
I9999
sg16
F0.645
sg17
Nsg18
F0.00252
sg19
Nsg20
Nsg21
F0.903
sg22
Nsg23
Nsg24
F-15.623
ssg25
I01
sba(iSong
Song
p3002
(dp3003
g3
(dp3004
g5
F0.777
sg6
VCrossroads
p3005
sg8
F105.97
sg9
F0.255
sg10
S'blues'
p3006
sg12
F0.0399
sg13
VTracy Chapman
p3007
sg15
I9999
sg16
F0.787
sg17
Nsg18
F0.00959
sg19
Nsg20
Nsg21
F0.6
sg22
Nsg23
Nsg24
F-14.733
ssg25
I01
sba(iSong
Song
p3008
(dp3009
g3
(dp3010
g5
F0.686
sg6
VLady Weeping at the Crossroads
p3011
sg8
F78.874
sg9
F0.253
sg10
S'blues'
p3012
sg12
F0.0403
sg13
VCarla Bruni
p3013
sg15
I9999
sg16
F0.59
sg17
Nsg18
F1.59e-05
sg19
Nsg20
Nsg21
F0.139
sg22
Nsg23
Nsg24
F-13.488
ssg25
I01
sba(iSong
Song
p3014
(dp3015
g3
(dp3016
g5
F0.953
sg6
VHellhound On My Trail - Take 1-Complete Master Version/Remix
p3017
sg8
F65.824
sg9
F0.063
sg10
S'blues'
p3018
sg12
F0.039
sg13
VFleetwood Mac
p3019
sg15
I9999
sg16
F0.388
sg17
Nsg18
F0.00851
sg19
Nsg20
Nsg21
F0.286
sg22
Nsg23
Nsg24
F-16.075
ssg25
I01
sba(iSong
Song
p3020
(dp3021
g3
(dp3022
g5
F0.261
sg6
VBoom Boom
p3023
sg8
F155.734
sg9
F0.388
sg10
S'blues'
p3024
sg12
F0.247
sg13
VJohn Lee Hooker
p3025
sg15
I9999
sg16
F0.632
sg17
Nsg18
F0.00688
sg19
Nsg20
Nsg21
F0.825
sg22
Nsg23
Nsg24
F-12.883
ssg25
I01
sba(iSong
Song
p3026
(dp3027
g3
(dp3028
g5
F0.0406
sg6
VMustang Sally
p3029
sg8
F107.273
sg9
F0.934
sg10
S'blues'
p3030
sg12
F0.0342
sg13
VBuddy Guy
p3031
sg15
I9999
sg16
F0.613
sg17
Nsg18
F0.000313
sg19
Nsg20
Nsg21
F0.776
sg22
Nsg23
Nsg24
F-3.711
ssg25
I01
sba(iSong
Song
p3032
(dp3033
g3
(dp3034
g5
F0.262
sg6
VMilkcow's Calf Blues
p3035
sg8
F168.974
sg9
F0.758
sg10
S'blues'
p3036
sg12
F0.0286
sg13
VEric Clapton
p3037
sg15
I9999
sg16
F0.458
sg17
Nsg18
F0.000504
sg19
Nsg20
Nsg21
F0.784
sg22
Nsg23
Nsg24
F-6.193
ssg25
I01
sba(iSong
Song
p3038
(dp3039
g3
(dp3040
g5
F0.561
sg6
VWorld's In A Tangle
p3041
sg8
F103.435
sg9
F0.369
sg10
S'blues'
p3042
sg12
F0.0536
sg13
VFleetwood Mac
p3043
sg15
I9999
sg16
F0.521
sg17
Nsg18
F0.0772
sg19
Nsg20
Nsg21
F0.536
sg22
Nsg23
Nsg24
F-13.773
ssg25
I01
sba(iSong
Song
p3044
(dp3045
g3
(dp3046
g5
F0.704
sg6
VHound Dog
p3047
sg8
F133.313
sg9
F0.542
sg10
S'blues'
p3048
sg12
F0.0977
sg13
VBig Mama Thornton
p3049
sg15
I9999
sg16
F0.552
sg17
Nsg18
F3.59e-05
sg19
Nsg20
Nsg21
F0.784
sg22
Nsg23
Nsg24
F-10.862
ssg25
I01
sba(iSong
Song
p3050
(dp3051
g3
(dp3052
g5
F0.142
sg6
VPut The Pot On
p3053
sg8
F119.35
sg9
F0.616
sg10
S'blues'
p3054
sg12
F0.0448
sg13
VKoko Taylor
p3055
sg15
I9999
sg16
F0.64
sg17
Nsg18
F3e-05
sg19
Nsg20
Nsg21
F0.844
sg22
Nsg23
Nsg24
F-10.442
ssg25
I01
sba(iSong
Song
p3056
(dp3057
g3
(dp3058
g5
F0.468
sg6
VI Just Want To Make Love To You
p3059
sg8
F80.892
sg9
F0.347
sg10
S'blues'
p3060
sg12
F0.0503
sg13
VMuddy Waters
p3061
sg15
I9999
sg16
F0.565
sg17
Nsg18
F5.73e-06
sg19
Nsg20
Nsg21
F0.238
sg22
Nsg23
Nsg24
F-9.398
ssg25
I01
sba(iSong
Song
p3062
(dp3063
g3
(dp3064
g5
F0.951
sg6
VMy Babe - Single Version
p3065
sg8
F159.544
sg9
F0.403
sg10
S'blues'
p3066
sg12
F0.0434
sg13
VLittle Walter
p3067
sg15
I9999
sg16
F0.606
sg17
Nsg18
I0
sg19
Nsg20
Nsg21
F0.844
sg22
Nsg23
Nsg24
F-8.497
ssg25
I01
sba(iSong
Song
p3068
(dp3069
g3
(dp3070
g5
F0.701
sg6
VShake Your Money Maker
p3071
sg8
F101.382
sg9
F0.659
sg10
S'blues'
p3072
sg12
F0.0416
sg13
VElmore James
p3073
sg15
I9999
sg16
F0.502
sg17
Nsg18
F0.000225
sg19
Nsg20
Nsg21
F0.841
sg22
Nsg23
Nsg24
F-7.473
ssg25
I01
sba(iSong
Song
p3074
(dp3075
g3
(dp3076
g5
F0.575
sg6
VThe Hunter
p3077
sg8
F133.711
sg9
F0.287
sg10
S'blues'
p3078
sg12
F0.0352
sg13
VAlbert King
p3079
sg15
I9999
sg16
F0.8
sg17
Nsg18
F0.000768
sg19
Nsg20
Nsg21
F0.748
sg22
Nsg23
Nsg24
F-17.513
ssg25
I01
sba(iSong
Song
p3080
(dp3081
g3
(dp3082
g5
F0.266
sg6
VTen Long Years
p3083
sg8
F97.767
sg9
F0.551
sg10
S'blues'
p3084
sg12
F0.0261
sg13
VEric Clapton
p3085
sg15
I9999
sg16
F0.678
sg17
Nsg18
F0.00322
sg19
Nsg20
Nsg21
F0.767
sg22
Nsg23
Nsg24
F-7.332
ssg25
I01
sba(iSong
Song
p3086
(dp3087
g3
(dp3088
g5
F0.15
sg6
VThird Degree
p3089
sg8
F201.459
sg9
F0.571
sg10
S'blues'
p3090
sg12
F0.0414
sg13
VJohnny Winter
p3091
sg15
I9999
sg16
F0.257
sg17
Nsg18
F0.0207
sg19
Nsg20
Nsg21
F0.832
sg22
Nsg23
Nsg24
F-12.183
ssg25
I01
sba(iSong
Song
p3092
(dp3093
g3
(dp3094
g5
F0.44
sg6
VMannish Boy
p3095
sg8
F111.129
sg9
F0.735
sg10
S'blues'
p3096
sg12
F0.0973
sg13
VMuddy Waters
p3097
sg15
I9999
sg16
F0.598
sg17
Nsg18
F0.000215
sg19
Nsg20
Nsg21
F0.615
sg22
Nsg23
Nsg24
F-10.882
ssg25
I01
sba(iSong
Song
p3098
(dp3099
g3
(dp3100
g5
F0.76
sg6
VDriftin' Blues
p3101
sg8
F171.497
sg9
F0.453
sg10
S'blues'
p3102
sg12
F0.0466
sg13
VBobby "Blue" Bland
p3103
sg15
I9999
sg16
F0.437
sg17
Nsg18
F2.07e-06
sg19
Nsg20
Nsg21
F0.456
sg22
Nsg23
Nsg24
F-6.799
ssg25
I01
sba(iSong
Song
p3104
(dp3105
g3
(dp3106
g5
F0.934
sg6
VEmpty Arms
p3107
sg8
F140.446
sg9
F0.447
sg10
S'blues'
p3108
sg12
F0.0501
sg13
VEddie Boyd
p3109
sg15
I9999
sg16
F0.705
sg17
Nsg18
F0.172
sg19
Nsg20
Nsg21
F0.547
sg22
Nsg23
Nsg24
F-11.327
ssg25
I01
sba(iSong
Song
p3110
(dp3111
g3
(dp3112
g5
F0.639
sg6
VAvailable Space
p3113
sg8
F147.388
sg9
F0.434
sg10
S'blues'
p3114
sg12
F0.0379
sg13
VRy Cooder
p3115
sg15
I9999
sg16
F0.568
sg17
Nsg18
F0.626
sg19
Nsg20
Nsg21
F0.694
sg22
Nsg23
Nsg24
F-14.17
ssg25
I01
sba(iSong
Song
p3116
(dp3117
g3
(dp3118
g5
F0.458
sg6
VAm I Wrong
p3119
sg8
F112.65
sg9
F0.476
sg10
S'blues'
p3120
sg12
F0.0528
sg13
VKeb' Mo'
p3121
sg15
I9999
sg16
F0.882
sg17
Nsg18
F2.47e-06
sg19
Nsg20
Nsg21
F0.964
sg22
Nsg23
Nsg24
F-9.235
ssg25
I01
sba(iSong
Song
p3122
(dp3123
g3
(dp3124
g5
F0.109
sg6
VOne Scotch, One Bourbon, One Beer - Bonus track
p3125
sg8
F175.706
sg9
F0.668
sg10
S'blues'
p3126
sg12
F0.0538
sg13
VChampion Jack Dupree
p3127
sg15
I9999
sg16
F0.431
sg17
Nsg18
F0.000157
sg19
Nsg20
Nsg21
F0.901
sg22
Nsg23
Nsg24
F-7.694
ssg25
I01
sba(iSong
Song
p3128
(dp3129
g3
(dp3130
g5
F0.00614
sg6
VBad To The Bone
p3131
sg8
F149.229
sg9
F0.727
sg10
S'blues'
p3132
sg12
F0.0303
sg13
VGeorge Thorogood & The Destroyers
p3133
sg15
I9999
sg16
F0.459
sg17
Nsg18
F0.065
sg19
Nsg20
Nsg21
F0.954
sg22
Nsg23
Nsg24
F-11.777
ssg25
I01
sba(iSong
Song
p3134
(dp3135
g3
(dp3136
g5
F0.0984
sg6
VSnatch It Back And Hold It
p3137
sg8
F136.713
sg9
F0.408
sg10
S'blues'
p3138
sg12
F0.167
sg13
VJunior Wells
p3139
sg15
I9999
sg16
F0.765
sg17
Nsg18
I0
sg19
Nsg20
Nsg21
F0.891
sg22
Nsg23
Nsg24
F-13.079
ssg25
I01
sba(iSong
Song
p3140
(dp3141
g3
(dp3142
g5
F0.544
sg6
VMadison Blues
p3143
sg8
F116.592
sg9
F0.813
sg10
S'blues'
p3144
sg12
F0.148
sg13
VFleetwood Mac
p3145
sg15
I9999
sg16
F0.453
sg17
Nsg18
F0.0222
sg19
Nsg20
Nsg21
F0.517
sg22
Nsg23
Nsg24
F-9.449
ssg25
I01
sba(iSong
Song
p3146
(dp3147
g3
(dp3148
g5
F0.0459
sg6
VGoing Down - 2000 - Remastered
p3149
sg8
F167.652
sg9
F0.669
sg10
S'blues'
p3150
sg12
F0.0311
sg13
VFreddie King
p3151
sg15
I9999
sg16
F0.555
sg17
Nsg18
F0.000521
sg19
Nsg20
Nsg21
F0.691
sg22
Nsg23
Nsg24
F-7.46
ssg25
I01
sba(iSong
Song
p3152
(dp3153
g3
(dp3154
g5
F0.33
sg6
VWalking The Backstreets And Crying
p3155
sg8
F123.252
sg9
F0.256
sg10
S'blues'
p3156
sg12
F0.0622
sg13
VLittle Milton
p3157
sg15
I9999
sg16
F0.724
sg17
Nsg18
F0.00181
sg19
Nsg20
Nsg21
F0.442
sg22
Nsg23
Nsg24
F-15.776
ssg25
I01
sba(iSong
Song
p3158
(dp3159
g3
(dp3160
g5
F0.705
sg6
VGood Morning Little School Girl
p3161
sg8
F87.627
sg9
F0.306
sg10
S'blues'
p3162
sg12
F0.0652
sg13
VMuddy Waters
p3163
sg15
I9999
sg16
F0.767
sg17
Nsg18
F0.00545
sg19
Nsg20
Nsg21
F0.56
sg22
Nsg23
Nsg24
F-14.7
ssg25
I01
sba(iSong
Song
p3164
(dp3165
g3
(dp3166
g5
F0.68
sg6
VIt Hurt So Bad
p3167
sg8
F207.934
sg9
F0.518
sg10
S'blues'
p3168
sg12
F0.0949
sg13
VSusan Tedeschi
p3169
sg15
I9999
sg16
F0.354
sg17
Nsg18
F3.46e-05
sg19
Nsg20
Nsg21
F0.528
sg22
Nsg23
Nsg24
F-6.122
ssg25
I01
sba(iSong
Song
p3170
(dp3171
g3
(dp3172
g5
F0.707
sg6
VMean Old Frisco Blues
p3173
sg8
F107.712
sg9
F0.757
sg10
S'blues'
p3174
sg12
F0.0267
sg13
VMuddy Waters
p3175
sg15
I9999
sg16
F0.686
sg17
Nsg18
F0.000153
sg19
Nsg20
Nsg21
F0.896
sg22
Nsg23
Nsg24
F-7.337
ssg25
I01
sba(iSong
Song
p3176
(dp3177
g3
(dp3178
g5
F0.0114
sg6
VSo Many Roads
p3179
sg8
F146.458
sg9
F0.756
sg10
S'blues'
p3180
sg12
F0.039
sg13
VJoe Bonamassa
p3181
sg15
I9999
sg16
F0.29
sg17
Nsg18
F0.148
sg19
Nsg20
Nsg21
F0.546
sg22
Nsg23
Nsg24
F-5.408
ssg25
I01
sba(iSong
Song
p3182
(dp3183
g3
(dp3184
g5
F0.285
sg6
VHolding You Up For Love
p3185
sg8
F97.47
sg9
F0.727
sg10
S'blues'
p3186
sg12
F0.0264
sg13
VOtis Grand
p3187
sg15
I9999
sg16
F0.554
sg17
Nsg18
F7.79e-06
sg19
Nsg20
Nsg21
F0.582
sg22
Nsg23
Nsg24
F-8.132
ssg25
I01
sba(iSong
Song
p3188
(dp3189
g3
(dp3190
g5
F0.687
sg6
VAll The Way
p3191
sg8
F171.841
sg9
F0.398
sg10
S'blues'
p3192
sg12
F0.0607
sg13
VThe Robert Cray Band
p3193
sg15
I9999
sg16
F0.563
sg17
Nsg18
F0.00246
sg19
Nsg20
Nsg21
F0.364
sg22
Nsg23
Nsg24
F-12.848
ssg25
I01
sba(iSong
Song
p3194
(dp3195
g3
(dp3196
g5
F0.795
sg6
VNine Below Zero - 1961 Single Version
p3197
sg8
F98.552
sg9
F0.535
sg10
S'blues'
p3198
sg12
F0.0351
sg13
VSonny Boy Williamson II
p3199
sg15
I9999
sg16
F0.56
sg17
Nsg18
F0.00184
sg19
Nsg20
Nsg21
F0.677
sg22
Nsg23
Nsg24
F-4.882
ssg25
I01
sba(iSong
Song
p3200
(dp3201
g3
(dp3202
g5
F0.0792
sg6
VBlues for Mrs. Pauline / Leave My Boy Alown
p3203
sg8
F173.715
sg9
F0.752
sg10
S'blues'
p3204
sg12
F0.1
sg13
VAna Popovic
p3205
sg15
I9999
sg16
F0.364
sg17
Nsg18
F1.57e-05
sg19
Nsg20
Nsg21
F0.636
sg22
Nsg23
Nsg24
F-5.623
ssg25
I01
sba(iSong
Song
p3206
(dp3207
g3
(dp3208
g5
F0.0496
sg6
VTime Has Come
p3209
sg8
F96.112
sg9
F0.564
sg10
S'blues'
p3210
sg12
F0.0337
sg13
VJoanne Shaw Taylor
p3211
sg15
I9999
sg16
F0.569
sg17
Nsg18
F0.0138
sg19
Nsg20
Nsg21
F0.526
sg22
Nsg23
Nsg24
F-7.34
ssg25
I01
sba(iSong
Song
p3212
(dp3213
g3
(dp3214
g5
F0.0377
sg6
VFarther On Up the Road - 2012 Remastered Version
p3215
sg8
F115.201
sg9
F0.918
sg10
S'blues'
p3216
sg12
F0.173
sg13
VRobin Trower
p3217
sg15
I9999
sg16
F0.469
sg17
Nsg18
F0.000392
sg19
Nsg20
Nsg21
F0.77
sg22
Nsg23
Nsg24
F-6.584
ssg25
I01
sba(iSong
Song
p3218
(dp3219
g3
(dp3220
g5
F0.011
sg6
VSittin On Top Of The World
p3221
sg8
F163.264
sg9
F0.924
sg10
S'blues'
p3222
sg12
F0.0561
sg13
VWalter Trout
p3223
sg15
I9999
sg16
F0.167
sg17
Nsg18
F0.0593
sg19
Nsg20
Nsg21
F0.555
sg22
Nsg23
Nsg24
F-5.868
ssg25
I01
sba(iSong
Song
p3224
(dp3225
g3
(dp3226
g5
F0.561
sg6
VLie To Me
p3227
sg8
F112.378
sg9
F0.684
sg10
S'blues'
p3228
sg12
F0.043
sg13
VJonny Lang
p3229
sg15
I9999
sg16
F0.615
sg17
Nsg18
F0.000492
sg19
Nsg20
Nsg21
F0.894
sg22
Nsg23
Nsg24
F-8.679
ssg25
I01
sba(iSong
Song
p3230
(dp3231
g3
(dp3232
g5
F0.13
sg6
VBlues I Believe to My Soul
p3233
sg8
F148.957
sg9
F0.612
sg10
S'blues'
p3234
sg12
F0.0572
sg13
VHumble Pie
p3235
sg15
I9999
sg16
F0.328
sg17
Nsg18
F0.000599
sg19
Nsg20
Nsg21
F0.433
sg22
Nsg23
Nsg24
F-8.43
ssg25
I01
sba(iSong
Song
p3236
(dp3237
g3
(dp3238
g5
F0.978
sg6
VGood Morning, Little Schoolgirl
p3239
sg8
F92.311
sg9
F0.137
sg10
S'blues'
p3240
sg12
F0.117
sg13
VSonny Boy Williamson II
p3241
sg15
I9999
sg16
F0.577
sg17
Nsg18
F0.0134
sg19
Nsg20
Nsg21
F0.823
sg22
Nsg23
Nsg24
F-18.111
ssg25
I01
sba(iSong
Song
p3242
(dp3243
g3
(dp3244
g5
F0.818
sg6
VKokomo Blues
p3245
sg8
F107.45
sg9
F0.247
sg10
S'blues'
p3246
sg12
F0.0385
sg13
VMississippi Fred McDowell
p3247
sg15
I9999
sg16
F0.554
sg17
Nsg18
F8.38e-06
sg19
Nsg20
Nsg21
F0.466
sg22
Nsg23
Nsg24
F-15.957
ssg25
I01
sba(iSong
Song
p3248
(dp3249
g3
(dp3250
g5
F0.511
sg6
VThe Man Who Hated Mornings
p3251
sg8
F63.955
sg9
F0.578
sg10
S'blues'
p3252
sg12
F0.0372
sg13
VMichael Chapman
p3253
sg15
I9999
sg16
F0.514
sg17
Nsg18
F0.0533
sg19
Nsg20
Nsg21
F0.492
sg22
Nsg23
Nsg24
F-8.608
ssg25
I01
sba(iSong
Song
p3254
(dp3255
g3
(dp3256
g5
F0.0671
sg6
VI Ain't Superstitious (feat. Eric Clapton)
p3257
sg8
F96.417
sg9
F0.853
sg10
S'blues'
p3258
sg12
F0.0346
sg13
VHowlin' Wolf
p3259
sg15
I9999
sg16
F0.59
sg17
Nsg18
F0.000204
sg19
Nsg20
Nsg21
F0.806
sg22
Nsg23
Nsg24
F-7.781
ssg25
I01
sba(iSong
Song
p3260
(dp3261
g3
(dp3262
g5
F0.0472
sg6
VSmokestack Lightnin'
p3263
sg8
F185.47
sg9
F0.657
sg10
S'blues'
p3264
sg12
F0.0639
sg13
VThe Groundhogs
p3265
sg15
I9999
sg16
F0.388
sg17
Nsg18
F0.00198
sg19
Nsg20
Nsg21
F0.905
sg22
Nsg23
Nsg24
F-10.176
ssg25
I01
sba(iSong
Song
p3266
(dp3267
g3
(dp3268
g5
F0.0995
sg6
VSince I've Been Loving You - "In Concert" Live Version From BBC Sessions
p3269
sg8
F128.437
sg9
F0.67
sg10
S'blues'
p3270
sg12
F0.0545
sg13
VLed Zeppelin
p3271
sg15
I9999
sg16
F0.376
sg17
Nsg18
F0.00831
sg19
Nsg20
Nsg21
F0.348
sg22
Nsg23
Nsg24
F-7.874
ssg25
I01
sba(iSong
Song
p3272
(dp3273
g3
(dp3274
g5
F0.118
sg6
VHideaway
p3275
sg8
F122.666
sg9
F0.71
sg10
S'blues'
p3276
sg12
F0.065
sg13
VFreddie King
p3277
sg15
I9999
sg16
F0.658
sg17
Nsg18
F0.862
sg19
Nsg20
Nsg21
F0.899
sg22
Nsg23
Nsg24
F-11.493
ssg25
I01
sba(iSong
Song
p3278
(dp3279
g3
(dp3280
g5
F0.888
sg6
VHow Many More Years
p3281
sg8
F109.829
sg9
F0.444
sg10
S'blues'
p3282
sg12
F0.136
sg13
VHowlin' Wolf
p3283
sg15
I9999
sg16
F0.677
sg17
Nsg18
F0.00821
sg19
Nsg20
Nsg21
F0.53
sg22
Nsg23
Nsg24
F-17.602
ssg25
I01
sba(iSong
Song
p3284
(dp3285
g3
(dp3286
g5
F0.354
sg6
VI'm Ready - 2000 Digital Remaster
p3287
sg8
F132.231
sg9
F0.716
sg10
S'blues'
p3288
sg12
F0.0933
sg13
VFreddie King
p3289
sg15
I9999
sg16
F0.466
sg17
Nsg18
F0.000125
sg19
Nsg20
Nsg21
F0.859
sg22
Nsg23
Nsg24
F-7.251
ssg25
I01
sba(iSong
Song
p3290
(dp3291
g3
(dp3292
g5
F0.0226
sg6
VThe Sky Is Crying
p3293
sg8
F178.191
sg9
F0.611
sg10
S'blues'
p3294
sg12
F0.0348
sg13
VElmore James
p3295
sg15
I9999
sg16
F0.294
sg17
Nsg18
F0.435
sg19
Nsg20
Nsg21
F0.567
sg22
Nsg23
Nsg24
F-6.268
ssg25
I01
sba(iSong
Song
p3296
(dp3297
g3
(dp3298
g5
F0.824
sg6
VAlabama Blues
p3299
sg8
F97.446
sg9
F0.308
sg10
S'blues'
p3300
sg12
F0.0348
sg13
VJ.B. Lenoir
p3301
sg15
I9999
sg16
F0.675
sg17
Nsg18
F3.75e-05
sg19
Nsg20
Nsg21
F0.69
sg22
Nsg23
Nsg24
F-8.081
ssg25
I01
sba(iSong
Song
p3302
(dp3303
g3
(dp3304
g5
F0.67
sg6
VI'm Your Hoochie Coochie Man
p3305
sg8
F113.948
sg9
F0.588
sg10
S'blues'
p3306
sg12
F0.0665
sg13
VMuddy Waters
p3307
sg15
I9999
sg16
F0.542
sg17
Nsg18
F0.158
sg19
Nsg20
Nsg21
F0.881
sg22
Nsg23
Nsg24
F-9.268
ssg25
I01
sba(iSong
Song
p3308
(dp3309
g3
(dp3310
g5
F0.943
sg6
VTake It Easy Baby
p3311
sg8
F161.678
sg9
F0.254
sg10
S'blues'
p3312
sg12
F0.0485
sg13
VPinetop Perkins
p3313
sg15
I9999
sg16
F0.575
sg17
Nsg18
F2.34e-05
sg19
Nsg20
Nsg21
F0.526
sg22
Nsg23
Nsg24
F-13.192
ssg25
I01
sba(iSong
Song
p3314
(dp3315
g3
(dp3316
g5
F0.944
sg6
VSomeday (Electric)
p3317
sg8
F94.197
sg9
F0.333
sg10
S'blues'
p3318
sg12
F0.032
sg13
VOtis Spann
p3319
sg15
I9999
sg16
F0.581
sg17
Nsg18
F0.472
sg19
Nsg20
Nsg21
F0.488
sg22
Nsg23
Nsg24
F-14.209
ssg25
I01
sba(iSong
Song
p3320
(dp3321
g3
(dp3322
g5
F0.0876
sg6
VInto the Blues
p3323
sg8
F120.055
sg9
F0.544
sg10
S'blues'
p3324
sg12
F0.0393
sg13
VJoan Armatrading
p3325
sg15
I9999
sg16
F0.77
sg17
Nsg18
F0.00375
sg19
Nsg20
Nsg21
F0.506
sg22
Nsg23
Nsg24
F-6.474
ssg25
I01
sba(iSong
Song
p3326
(dp3327
g3
(dp3328
g5
F0.0589
sg6
VAlone In The Dark
p3329
sg8
F98.09
sg9
F0.388
sg10
S'blues'
p3330
sg12
F0.0317
sg13
VJohn Hiatt
p3331
sg15
I9999
sg16
F0.611
sg17
Nsg18
F0.000581
sg19
Nsg20
Nsg21
F0.656
sg22
Nsg23
Nsg24
F-10.985
ssg25
I01
sba(iSong
Song
p3332
(dp3333
g3
(dp3334
g5
F0.0535
sg6
VGet Lost
p3335
sg8
F124.197
sg9
F0.781
sg10
S'blues'
p3336
sg12
F0.0862
sg13
VAl King
p3337
sg15
I9999
sg16
F0.347
sg17
Nsg18
F7.74e-06
sg19
Nsg20
Nsg21
F0.736
sg22
Nsg23
Nsg24
F-8.18
ssg25
I01
sba(iSong
Song
p3338
(dp3339
g3
(dp3340
g5
F0.393
sg6
VBo Diddley
p3341
sg8
F105.473
sg9
F0.753
sg10
S'blues'
p3342
sg12
F0.0572
sg13
VBo Diddley
p3343
sg15
I9999
sg16
F0.826
sg17
Nsg18
I0
sg19
Nsg20
Nsg21
F0.48
sg22
Nsg23
Nsg24
F-8.223
ssg25
I01
sba(iSong
Song
p3344
(dp3345
g3
(dp3346
g5
F0.964
sg6
VCoffee Blues
p3347
sg8
F104.233
sg9
F0.0785
sg10
S'blues'
p3348
sg12
F0.0503
sg13
VMississippi John Hurt
p3349
sg15
I9999
sg16
F0.61
sg17
Nsg18
F0.00014
sg19
Nsg20
Nsg21
F0.763
sg22
Nsg23
Nsg24
F-20.543
ssg25
I01
sba(iSong
Song
p3350
(dp3351
g3
(dp3352
g5
F0.44
sg6
VMannish Boy
p3353
sg8
F111.129
sg9
F0.735
sg10
S'blues'
p3354
sg12
F0.0973
sg13
VMuddy Waters
p3355
sg15
I9999
sg16
F0.598
sg17
Nsg18
F0.000215
sg19
Nsg20
Nsg21
F0.615
sg22
Nsg23
Nsg24
F-10.882
ssg25
I01
sba(iSong
Song
p3356
(dp3357
g3
(dp3358
g5
F0.799
sg6
VSmokestack Lightnin'
p3359
sg8
F146.138
sg9
F0.502
sg10
S'blues'
p3360
sg12
F0.0401
sg13
VHowlin' Wolf
p3361
sg15
I9999
sg16
F0.683
sg17
Nsg18
F0.000116
sg19
Nsg20
Nsg21
F0.5
sg22
Nsg23
Nsg24
F-8.83
ssg25
I01
sba(iSong
Song
p3362
(dp3363
g3
(dp3364
g5
F0.651
sg6
VTwo Bugs And A Roach
p3365
sg8
F135.275
sg9
F0.568
sg10
S'blues'
p3366
sg12
F0.0752
sg13
VEarl Hooker
p3367
sg15
I9999
sg16
F0.541
sg17
Nsg18
F0.00563
sg19
Nsg20
Nsg21
F0.815
sg22
Nsg23
Nsg24
F-12.584
ssg25
I01
sba(iSong
Song
p3368
(dp3369
g3
(dp3370
g5
F0.369
sg6
VWang Dang Doodle - Single Version
p3371
sg8
F152.775
sg9
F0.561
sg10
S'blues'
p3372
sg12
F0.199
sg13
VKoko Taylor
p3373
sg15
I9999
sg16
F0.655
sg17
Nsg18
F5.04e-06
sg19
Nsg20
Nsg21
F0.659
sg22
Nsg23
Nsg24
F-8.86
ssg25
I01
sba(iSong
Song
p3374
(dp3375
g3
(dp3376
g5
F0.442
sg6
VHoodoo Man Blues
p3377
sg8
F103.924
sg9
F0.324
sg10
S'blues'
p3378
sg12
F0.332
sg13
VJunior Wells
p3379
sg15
I9999
sg16
F0.708
sg17
Nsg18
F0.000147
sg19
Nsg20
Nsg21
F0.638
sg22
Nsg23
Nsg24
F-13.247
ssg25
I01
sba(iSong
Song
p3380
(dp3381
g3
(dp3382
g5
F0.97
sg6
VI Can't Quit You Baby
p3383
sg8
F86.952
sg9
F0.596
sg10
S'blues'
p3384
sg12
F0.0395
sg13
VOtis Rush
p3385
sg15
I9999
sg16
F0.492
sg17
Nsg18
F0.043
sg19
Nsg20
Nsg21
F0.548
sg22
Nsg23
Nsg24
F-4.038
ssg25
I01
sba(iSong
Song
p3386
(dp3387
g3
(dp3388
g5
F0.843
sg6
VAll Your Love
p3389
sg8
F80.623
sg9
F0.7
sg10
S'blues'
p3390
sg12
F0.163
sg13
VMagic Sam
p3391
sg15
I9999
sg16
F0.433
sg17
Nsg18
F0.324
sg19
Nsg20
Nsg21
F0.8
sg22
Nsg23
Nsg24
F-8.197
ssg25
I01
sba(iSong
Song
p3392
(dp3393
g3
(dp3394
g5
F0.554
sg6
VThe Little Red Rooster
p3395
sg8
F122.589
sg9
F0.29
sg10
S'blues'
p3396
sg12
F0.0374
sg13
VWillie Dixon
p3397
sg15
I9999
sg16
F0.477
sg17
Nsg18
F0.178
sg19
Nsg20
Nsg21
F0.727
sg22
Nsg23
Nsg24
F-18.066
ssg25
I01
sba(iSong
Song
p3398
(dp3399
g3
(dp3400
g5
F0.978
sg6
VLast Night - Single Version
p3401
sg8
F104.135
sg9
F0.406
sg10
S'blues'
p3402
sg12
F0.0518
sg13
VLittle Walter
p3403
sg15
I9999
sg16
F0.711
sg17
Nsg18
F0.000997
sg19
Nsg20
Nsg21
F0.484
sg22
Nsg23
Nsg24
F-10.748
ssg25
I01
sba(iSong
Song
p3404
(dp3405
g3
(dp3406
g5
F0.67
sg6
VI'm Your Hoochie Coochie Man
p3407
sg8
F113.948
sg9
F0.588
sg10
S'blues'
p3408
sg12
F0.0665
sg13
VMuddy Waters
p3409
sg15
I9999
sg16
F0.542
sg17
Nsg18
F0.158
sg19
Nsg20
Nsg21
F0.881
sg22
Nsg23
Nsg24
F-9.268
ssg25
I01
sba(iSong
Song
p3410
(dp3411
g3
(dp3412
g5
F0.787
sg6
VFirst Time I Met The Blues
p3413
sg8
F102.282
sg9
F0.818
sg10
S'blues'
p3414
sg12
F0.0455
sg13
VBuddy Guy
p3415
sg15
I9999
sg16
F0.414
sg17
Nsg18
F0.00303
sg19
Nsg20
Nsg21
F0.743
sg22
Nsg23
Nsg24
F-5.958
ssg25
I01
sba(iSong
Song
p3416
(dp3417
g3
(dp3418
g5
F0.644
sg6
VThat's All Right - Single Version
p3419
sg8
F75.68
sg9
F0.247
sg10
S'blues'
p3420
sg12
F0.0414
sg13
VJimmy Rogers
p3421
sg15
I9999
sg16
F0.481
sg17
Nsg18
F2.81e-05
sg19
Nsg20
Nsg21
F0.567
sg22
Nsg23
Nsg24
F-13.337
ssg25
I01
sba(iSong
Song
p3422
(dp3423
g3
(dp3424
g5
F0.0226
sg6
VThe Sky Is Crying
p3425
sg8
F178.191
sg9
F0.611
sg10
S'blues'
p3426
sg12
F0.0348
sg13
VElmore James
p3427
sg15
I9999
sg16
F0.294
sg17
Nsg18
F0.435
sg19
Nsg20
Nsg21
F0.567
sg22
Nsg23
Nsg24
F-6.268
ssg25
I01
sba(iSong
Song
p3428
(dp3429
g3
(dp3430
g5
F0.687
sg6
VBack Door Man
p3431
sg8
F157.814
sg9
F0.701
sg10
S'blues'
p3432
sg12
F0.094
sg13
VHowlin' Wolf
p3433
sg15
I9999
sg16
F0.562
sg17
Nsg18
F1.43e-05
sg19
Nsg20
Nsg21
F0.876
sg22
Nsg23
Nsg24
F-8.061
ssg25
I01
sba(iSong
Song
p3434
(dp3435
g3
(dp3436
g5
F0.885
sg6
VDark Road
p3437
sg8
F69.562
sg9
F0.513
sg10
S'blues'
p3438
sg12
F0.034
sg13
VEddie Taylor
p3439
sg15
I9999
sg16
F0.617
sg17
Nsg18
F0.00108
sg19
Nsg20
Nsg21
F0.626
sg22
Nsg23
Nsg24
F-12.884
ssg25
I01
sba(iSong
Song
p3440
(dp3441
g3
(dp3442
g5
F0.284
sg6
VI'm A Man - Single Version
p3443
sg8
F127.497
sg9
F0.54
sg10
S'blues'
p3444
sg12
F0.0462
sg13
VBo Diddley
p3445
sg15
I9999
sg16
F0.617
sg17
Nsg18
I0
sg19
Nsg20
Nsg21
F0.86
sg22
Nsg23
Nsg24
F-13.494
ssg25
I01
sba(iSong
Song
p3446
(dp3447
g3
(dp3448
g5
F0.944
sg6
VSomeday (Electric)
p3449
sg8
F94.197
sg9
F0.333
sg10
S'blues'
p3450
sg12
F0.032
sg13
VOtis Spann
p3451
sg15
I9999
sg16
F0.581
sg17
Nsg18
F0.472
sg19
Nsg20
Nsg21
F0.488
sg22
Nsg23
Nsg24
F-14.209
ssg25
I01
sba(iSong
Song
p3452
(dp3453
g3
(dp3454
g5
F0.113
sg6
VRock Me Baby
p3455
sg8
F106.102
sg9
F0.697
sg10
S'blues'
p3456
sg12
F0.045
sg13
VMighty Joe Young
p3457
sg15
I9999
sg16
F0.581
sg17
Nsg18
F0.000924
sg19
Nsg20
Nsg21
F0.906
sg22
Nsg23
Nsg24
F-8.239
ssg25
I01
sba(iSong
Song
p3458
(dp3459
g3
(dp3460
g5
F0.886
sg6
VMy Babe - Single Version
p3461
sg8
F157.887
sg9
F0.333
sg10
S'blues'
p3462
sg12
F0.0524
sg13
VLittle Walter
p3463
sg15
I9999
sg16
F0.684
sg17
Nsg18
I0
sg19
Nsg20
Nsg21
F0.833
sg22
Nsg23
Nsg24
F-10.487
ssg25
I01
sba(iSong
Song
p3464
(dp3465
g3
(dp3466
g5
F0.561
sg6
VMadison Blues
p3467
sg8
F135.613
sg9
F0.844
sg10
S'blues'
p3468
sg12
F0.0432
sg13
VElmore James
p3469
sg15
I9999
sg16
F0.496
sg17
Nsg18
F0.193
sg19
Nsg20
Nsg21
F0.822
sg22
Nsg23
Nsg24
F-6.281
ssg25
I01
sba.