(lp0
(iSong
Song
p1
(dp2
S'attributes'
p3
(dp4
S'accousticness'
p5
F0.463
sS'title'
p6
VBody Like A Back Road
p7
sS'tempo'
p8
F98.963
sS'energy'
p9
F0.469
sS'from_playlist'
p10
S'country'
p11
sS'speechiness'
p12
F0.0326
sS'artist_name'
p13
VSam Hunt
p14
sS'cluster_id'
p15
I9999
sS'danceability'
p16
F0.731
sS'end_of_fade_in'
p17
NsS'loudness'
p18
F1.04e-06
sS'duration'
p19
NsS'artist_familiarity'
p20
NsS'valence'
p21
F0.631
sS'start_of_fade_out'
p22
NsS'artist_hotness'
p23
NsS'instrumentalness'
p24
F-7.226
ssS'hasData'
p25
I01
sba(iSong
Song
p26
(dp27
g3
(dp28
g5
F0.0356
sg6
VI Know Somebody
p29
sg8
F88.986
sg9
F0.903
sg10
S'country'
p30
sg12
F0.037
sg13
VLOCASH
p31
sg15
I9999
sg16
F0.505
sg17
Nsg18
I0
sg19
Nsg20
Nsg21
F0.491
sg22
Nsg23
Nsg24
F-3.699
ssg25
I01
sba(iSong
Song
p32
(dp33
g3
(dp34
g5
F0.27
sg6
VBlack
p35
sg8
F120.037
sg9
F0.656
sg10
S'country'
p36
sg12
F0.0413
sg13
VDierks Bentley
p37
sg15
I9999
sg16
F0.663
sg17
Nsg18
F0.000279
sg19
Nsg20
Nsg21
F0.56
sg22
Nsg23
Nsg24
F-6.548
ssg25
I01
sba(iSong
Song
p38
(dp39
g3
(dp40
g5
F0.0169
sg6
VSleep Without You
p41
sg8
F88.549
sg9
F0.716
sg10
S'country'
p42
sg12
F0.043
sg13
VBrett Young
p43
sg15
I9999
sg16
F0.632
sg17
Nsg18
I0
sg19
Nsg20
Nsg21
F0.655
sg22
Nsg23
Nsg24
F-5.677
ssg25
I01
sba(iSong
Song
p44
(dp45
g3
(dp46
g5
F0.083
sg6
VIt Don't Hurt Like It Used To
p47
sg8
F161.981
sg9
F0.824
sg10
S'country'
p48
sg12
F0.0524
sg13
VBilly Currington
p49
sg15
I9999
sg16
F0.503
sg17
Nsg18
I0
sg19
Nsg20
Nsg21
F0.448
sg22
Nsg23
Nsg24
F-4.039
ssg25
I01
sba(iSong
Song
p50
(dp51
g3
(dp52
g5
F0.0406
sg6
VMay We All
p53
sg8
F75.019
sg9
F0.915
sg10
S'country'
p54
sg12
F0.0389
sg13
VFlorida Georgia Line
p55
sg15
I9999
sg16
F0.488
sg17
Nsg18
I0
sg19
Nsg20
Nsg21
F0.646
sg22
Nsg23
Nsg24
F-4.255
ssg25
I01
sba(iSong
Song
p56
(dp57
g3
(dp58
g5
F0.00566
sg6
VClose
p59
sg8
F80.018
sg9
F0.86
sg10
S'country'
p60
sg12
F0.0347
sg13
VRyan Kinder
p61
sg15
I9999
sg16
F0.479
sg17
Nsg18
I0
sg19
Nsg20
Nsg21
F0.743
sg22
Nsg23
Nsg24
F-4.318
ssg25
I01
sba(iSong
Song
p62
(dp63
g3
(dp64
g5
F0.247
sg6
VNight's On Fire
p65
sg8
F164.029
sg9
F0.779
sg10
S'country'
p66
sg12
F0.0432
sg13
VDavid Nail
p67
sg15
I9999
sg16
F0.539
sg17
Nsg18
F2.71e-06
sg19
Nsg20
Nsg21
F0.705
sg22
Nsg23
Nsg24
F-4.139
ssg25
I01
sba(iSong
Song
p68
(dp69
g3
(dp70
g5
F0.144
sg6
VAll On Me
p71
sg8
F80.996
sg9
F0.658
sg10
S'country'
p72
sg12
F0.0281
sg13
VDevin Dawson
p73
sg15
I9999
sg16
F0.631
sg17
Nsg18
I0
sg19
Nsg20
Nsg21
F0.7
sg22
Nsg23
Nsg24
F-5.313
ssg25
I01
sba(iSong
Song
p74
(dp75
g3
(dp76
g5
F0.0555
sg6
VCool With That
p77
sg8
F152.088
sg9
F0.829
sg10
S'country'
p78
sg12
F0.0458
sg13
VBrett Kissel
p79
sg15
I9999
sg16
F0.433
sg17
Nsg18
I0
sg19
Nsg20
Nsg21
F0.501
sg22
Nsg23
Nsg24
F-4.736
ssg25
I01
sba(iSong
Song
p80
(dp81
g3
(dp82
g5
F0.0158
sg6
VA Guy With a Girl
p83
sg8
F163.948
sg9
F0.893
sg10
S'country'
p84
sg12
F0.0383
sg13
VBlake Shelton
p85
sg15
I9999
sg16
F0.552
sg17
Nsg18
I0
sg19
Nsg20
Nsg21
F0.777
sg22
Nsg23
Nsg24
F-4.593
ssg25
I01
sba(iSong
Song
p86
(dp87
g3
(dp88
g5
F0.0165
sg6
VKill A Word
p89
sg8
F85.015
sg9
F0.73
sg10
S'country'
p90
sg12
F0.0378
sg13
VEric Church
p91
sg15
I9999
sg16
F0.653
sg17
Nsg18
F1.4e-06
sg19
Nsg20
Nsg21
F0.615
sg22
Nsg23
Nsg24
F-8.018
ssg25
I01
sba(iSong
Song
p92
(dp93
g3
(dp94
g5
F0.14
sg6
VStar Of The Show
p95
sg8
F101.988
sg9
F0.624
sg10
S'country'
p96
sg12
F0.027
sg13
VThomas Rhett
p97
sg15
I9999
sg16
F0.691
sg17
Nsg18
I0
sg19
Nsg20
Nsg21
F0.662
sg22
Nsg23
Nsg24
F-5.874
ssg25
I01
sba(iSong
Song
p98
(dp99
g3
(dp100
g5
F0.00898
sg6
VWhat Ifs
p101
sg8
F125.976
sg9
F0.799
sg10
S'country'
p102
sg12
F0.0275
sg13
VKane Brown
p103
sg15
I9999
sg16
F0.612
sg17
Nsg18
I0
sg19
Nsg20
Nsg21
F0.687
sg22
Nsg23
Nsg24
F-4.603
ssg25
I01
sba(iSong
Song
p104
(dp105
g3
(dp106
g5
F0.00525
sg6
VSomethin' We Shouldn't Do
p107
sg8
F122.042
sg9
F0.784
sg10
S'country'
p108
sg12
F0.0411
sg13
VChad Brownlee
p109
sg15
I9999
sg16
F0.462
sg17
Nsg18
F6.9e-05
sg19
Nsg20
Nsg21
F0.418
sg22
Nsg23
Nsg24
F-6.242
ssg25
I01
sba(iSong
Song
p110
(dp111
g3
(dp112
g5
F0.0692
sg6
VThat's When You Know
p113
sg8
F147.881
sg9
F0.809
sg10
S'country'
p114
sg12
F0.044
sg13
VChris Buck Band
p115
sg15
I9999
sg16
F0.523
sg17
Nsg18
I0
sg19
Nsg20
Nsg21
F0.663
sg22
Nsg23
Nsg24
F-7.257
ssg25
I01
sba(iSong
Song
p116
(dp117
g3
(dp118
g5
F0.164
sg6
VChills
p119
sg8
F116.043
sg9
F0.788
sg10
S'country'
p120
sg12
F0.0437
sg13
VJames Barker Band
p121
sg15
I9999
sg16
F0.658
sg17
Nsg18
I0
sg19
Nsg20
Nsg21
F0.468
sg22
Nsg23
Nsg24
F-5.944
ssg25
I01
sba(iSong
Song
p122
(dp123
g3
(dp124
g5
F0.00424
sg6
VLonely Drum
p125
sg8
F112.987
sg9
F0.684
sg10
S'country'
p126
sg12
F0.0292
sg13
VAaron Goodvin
p127
sg15
I9999
sg16
F0.855
sg17
Nsg18
F0.000312
sg19
Nsg20
Nsg21
F0.839
sg22
Nsg23
Nsg24
F-6.155
ssg25
I01
sba(iSong
Song
p128
(dp129
g3
(dp130
g5
F0.0153
sg6
VHurricane
p131
sg8
F75.975
sg9
F0.813
sg10
S'country'
p132
sg12
F0.0416
sg13
VLuke Combs
p133
sg15
I9999
sg16
F0.464
sg17
Nsg18
I0
sg19
Nsg20
Nsg21
F0.516
sg22
Nsg23
Nsg24
F-6.185
ssg25
I01
sba(iSong
Song
p134
(dp135
g3
(dp136
g5
F0.0266
sg6
VMind Reader
p137
sg8
F162.053
sg9
F0.8
sg10
S'country'
p138
sg12
F0.0413
sg13
VDustin Lynch
p139
sg15
I9999
sg16
F0.394
sg17
Nsg18
I0
sg19
Nsg20
Nsg21
F0.525
sg22
Nsg23
Nsg24
F-4.17
ssg25
I01
sba(iSong
Song
p140
(dp141
g3
(dp142
g5
F0.124
sg6
VThink A Little Less
p143
sg8
F141.967
sg9
F0.805
sg10
S'country'
p144
sg12
F0.0289
sg13
VMichael Ray
p145
sg15
I9999
sg16
F0.521
sg17
Nsg18
F0.000219
sg19
Nsg20
Nsg21
F0.527
sg22
Nsg23
Nsg24
F-4.481
ssg25
I01
sba(iSong
Song
p146
(dp147
g3
(dp148
g5
F0.328
sg6
VSky Stays This Blue
p149
sg8
F116.947
sg9
F0.827
sg10
S'country'
p150
sg12
F0.0471
sg13
VDallas Smith
p151
sg15
I9999
sg16
F0.593
sg17
Nsg18
I0
sg19
Nsg20
Nsg21
F0.505
sg22
Nsg23
Nsg24
F-4.421
ssg25
I01
sba(iSong
Song
p152
(dp153
g3
(dp154
g5
F0.125
sg6
VSong for Another Time
p155
sg8
F166.048
sg9
F0.805
sg10
S'country'
p156
sg12
F0.0332
sg13
VOld Dominion
p157
sg15
I9999
sg16
F0.497
sg17
Nsg18
I0
sg19
Nsg20
Nsg21
F0.696
sg22
Nsg23
Nsg24
F-3.995
ssg25
I01
sba(iSong
Song
p158
(dp159
g3
(dp160
g5
F0.0943
sg6
VJust Got Paid
p161
sg8
F171.892
sg9
F0.782
sg10
S'country'
p162
sg12
F0.0523
sg13
VEmerson Drive
p163
sg15
I9999
sg16
F0.608
sg17
Nsg18
I0
sg19
Nsg20
Nsg21
F0.681
sg22
Nsg23
Nsg24
F-5.799
ssg25
I01
sba(iSong
Song
p164
(dp165
g3
(dp166
g5
F0.01
sg6
VMore Girls Like You
p167
sg8
F149.962
sg9
F0.743
sg10
S'country'
p168
sg12
F0.0368
sg13
VKip Moore
p169
sg15
I9999
sg16
F0.553
sg17
Nsg18
I0
sg19
Nsg20
Nsg21
F0.564
sg22
Nsg23
Nsg24
F-5.483
ssg25
I01
sba(iSong
Song
p170
(dp171
g3
(dp172
g5
F0.0677
sg6
VLosing Sleep
p173
sg8
F92.003
sg9
F0.628
sg10
S'country'
p174
sg12
F0.0431
sg13
VChris Young
p175
sg15
I9999
sg16
F0.587
sg17
Nsg18
F1.88e-06
sg19
Nsg20
Nsg21
F0.649
sg22
Nsg23
Nsg24
F-5.703
ssg25
I01
sba(iSong
Song
p176
(dp177
g3
(dp178
g5
F0.0114
sg6
VWasn't That Drunk (W/ Carly Pearce) [Act 2]
p179
sg8
F113.989
sg9
F0.906
sg10
S'country'
p180
sg12
F0.0504
sg13
VJosh Abbott Band
p181
sg15
I9999
sg16
F0.561
sg17
Nsg18
F1.43e-06
sg19
Nsg20
Nsg21
F0.431
sg22
Nsg23
Nsg24
F-5.147
ssg25
I01
sba(iSong
Song
p182
(dp183
g3
(dp184
g5
F0.0972
sg6
VMiddle of a Memory
p185
sg8
F139.788
sg9
F0.746
sg10
S'country'
p186
sg12
F0.0329
sg13
VCole Swindell
p187
sg15
I9999
sg16
F0.531
sg17
Nsg18
I0
sg19
Nsg20
Nsg21
F0.304
sg22
Nsg23
Nsg24
F-4.228
ssg25
I01
sba(iSong
Song
p188
(dp189
g3
(dp190
g5
F0.168
sg6
VMake You Miss Me
p191
sg8
F146.026
sg9
F0.468
sg10
S'country'
p192
sg12
F0.0314
sg13
VSam Hunt
p193
sg15
I9999
sg16
F0.612
sg17
Nsg18
I0
sg19
Nsg20
Nsg21
F0.165
sg22
Nsg23
Nsg24
F-6.597
ssg25
I01
sba(iSong
Song
p194
(dp195
g3
(dp196
g5
F0.0385
sg6
VHomemade
p197
sg8
F163.956
sg9
F0.94
sg10
S'country'
p198
sg12
F0.0514
sg13
VCold Creek County
p199
sg15
I9999
sg16
F0.436
sg17
Nsg18
I0
sg19
Nsg20
Nsg21
F0.594
sg22
Nsg23
Nsg24
F-4.005
ssg25
I01
sba(iSong
Song
p200
(dp201
g3
(dp202
g5
F0.0472
sg6
VSingles You Up
p203
sg8
F100.08
sg9
F0.903
sg10
S'country'
p204
sg12
F0.0323
sg13
VJordan Davis
p205
sg15
I9999
sg16
F0.635
sg17
Nsg18
I0
sg19
Nsg20
Nsg21
F0.559
sg22
Nsg23
Nsg24
F-3.588
ssg25
I01
sba(iSong
Song
p206
(dp207
g3
(dp208
g5
F0.302
sg6
VSpeakers, Bleachers And Preachers
p209
sg8
F96.02
sg9
F0.625
sg10
S'country'
p210
sg12
F0.0258
sg13
VBrandon Lay
p211
sg15
I9999
sg16
F0.603
sg17
Nsg18
I0
sg19
Nsg20
Nsg21
F0.651
sg22
Nsg23
Nsg24
F-6.563
ssg25
I01
sba(iSong
Song
p212
(dp213
g3
(dp214
g5
F0.0179
sg6
VDear Life
p215
sg8
F127.026
sg9
F0.88
sg10
S'country'
p216
sg12
F0.0425
sg13
VHigh Valley
p217
sg15
I9999
sg16
F0.554
sg17
Nsg18
I0
sg19
Nsg20
Nsg21
F0.448
sg22
Nsg23
Nsg24
F-6.366
ssg25
I01
sba(iSong
Song
p218
(dp219
g3
(dp220
g5
F0.0204
sg6
VBeautiful Freakshow
p221
sg8
F133.013
sg9
F0.677
sg10
S'country'
p222
sg12
F0.0543
sg13
VDean Brody
p223
sg15
I9999
sg16
F0.589
sg17
Nsg18
F4.55e-05
sg19
Nsg20
Nsg21
F0.235
sg22
Nsg23
Nsg24
F-6.713
ssg25
I01
sba(iSong
Song
p224
(dp225
g3
(dp226
g5
F0.00926
sg6
VYours If You Want It
p227
sg8
F113.067
sg9
F0.909
sg10
S'country'
p228
sg12
F0.0557
sg13
VRascal Flatts
p229
sg15
I9999
sg16
F0.548
sg17
Nsg18
I0
sg19
Nsg20
Nsg21
F0.413
sg22
Nsg23
Nsg24
F-3.1
ssg25
I01
sba(iSong
Song
p230
(dp231
g3
(dp232
g5
F0.0536
sg6
VWoke up Like This
p233
sg8
F155.944
sg9
F0.776
sg10
S'country'
p234
sg12
F0.0484
sg13
VRiver Town Saints
p235
sg15
I9999
sg16
F0.507
sg17
Nsg18
I0
sg19
Nsg20
Nsg21
F0.77
sg22
Nsg23
Nsg24
F-4.363
ssg25
I01
sba(iSong
Song
p236
(dp237
g3
(dp238
g5
F0.0498
sg6
VJust Sayin'
p239
sg8
F105.937
sg9
F0.827
sg10
S'country'
p240
sg12
F0.035
sg13
VJames Barker Band
p241
sg15
I9999
sg16
F0.655
sg17
Nsg18
I0
sg19
Nsg20
Nsg21
F0.928
sg22
Nsg23
Nsg24
F-4.897
ssg25
I01
sba(iSong
Song
p242
(dp243
g3
(dp244
g5
F0.0362
sg6
VHooked
p245
sg8
F132.054
sg9
F0.721
sg10
S'country'
p246
sg12
F0.0356
sg13
VDylan Scott
p247
sg15
I9999
sg16
F0.597
sg17
Nsg18
I0
sg19
Nsg20
Nsg21
F0.437
sg22
Nsg23
Nsg24
F-6.422
ssg25
I01
sba(iSong
Song
p248
(dp249
g3
(dp250
g5
F0.0033
sg6
VSide Effects
p251
sg8
F110.102
sg9
F0.855
sg10
S'country'
p252
sg12
F0.0374
sg13
VDallas Smith
p253
sg15
I9999
sg16
F0.622
sg17
Nsg18
F1.29e-06
sg19
Nsg20
Nsg21
F0.702
sg22
Nsg23
Nsg24
F-3.902
ssg25
I01
sba(iSong
Song
p254
(dp255
g3
(dp256
g5
F0.231
sg6
VYeah Boy
p257
sg8
F88.965
sg9
F0.809
sg10
S'country'
p258
sg12
F0.0376
sg13
VKelsea Ballerini
p259
sg15
I9999
sg16
F0.589
sg17
Nsg18
I0
sg19
Nsg20
Nsg21
F0.496
sg22
Nsg23
Nsg24
F-5.292
ssg25
I01
sba(iSong
Song
p260
(dp261
g3
(dp262
g5
F0.0494
sg6
VSomethin' I'm Good At
p263
sg8
F103.009
sg9
F0.94
sg10
S'country'
p264
sg12
F0.114
sg13
VBrett Eldredge
p265
sg15
I9999
sg16
F0.562
sg17
Nsg18
I0
sg19
Nsg20
Nsg21
F0.456
sg22
Nsg23
Nsg24
F-4.337
ssg25
I01
sba(iSong
Song
p266
(dp267
g3
(dp268
g5
F0.00139
sg6
VSlide Over
p269
sg8
F172.009
sg9
F0.933
sg10
S'country'
p270
sg12
F0.0553
sg13
VTim Hicks
p271
sg15
I9999
sg16
F0.394
sg17
Nsg18
F1.5e-05
sg19
Nsg20
Nsg21
F0.471
sg22
Nsg23
Nsg24
F-3.678
ssg25
I01
sba(iSong
Song
p272
(dp273
g3
(dp274
g5
F0.000179
sg6
VHometown Kids
p275
sg8
F107.936
sg9
F0.79
sg10
S'country'
p276
sg12
F0.0339
sg13
VThe Reklaws
p277
sg15
I9999
sg16
F0.58
sg17
Nsg18
I0
sg19
Nsg20
Nsg21
F0.795
sg22
Nsg23
Nsg24
F-6.053
ssg25
I01
sba(iSong
Song
p278
(dp279
g3
(dp280
g5
F0.333
sg6
VGod, Your Mama, And Me
p281
sg8
F168.032
sg9
F0.802
sg10
S'country'
p282
sg12
F0.054
sg13
VFlorida Georgia Line
p283
sg15
I9999
sg16
F0.439
sg17
Nsg18
I0
sg19
Nsg20
Nsg21
F0.725
sg22
Nsg23
Nsg24
F-3.644
ssg25
I01
sba(iSong
Song
p284
(dp285
g3
(dp286
g5
F0.000907
sg6
VCraving You
p287
sg8
F104.986
sg9
F0.841
sg10
S'country'
p288
sg12
F0.0353
sg13
VThomas Rhett
p289
sg15
I9999
sg16
F0.612
sg17
Nsg18
I0
sg19
Nsg20
Nsg21
F0.499
sg22
Nsg23
Nsg24
F-3.795
ssg25
I01
sba(iSong
Song
p290
(dp291
g3
(dp292
g5
F0.0887
sg6
VStill That Way
p293
sg8
F76.926
sg9
F0.854
sg10
S'country'
p294
sg12
F0.036
sg13
VCold Creek County
p295
sg15
I9999
sg16
F0.399
sg17
Nsg18
I0
sg19
Nsg20
Nsg21
F0.431
sg22
Nsg23
Nsg24
F-5.177
ssg25
I01
sba(iSong
Song
p296
(dp297
g3
(dp298
g5
F0.00926
sg6
VAll She Wrote
p299
sg8
F111.038
sg9
F0.959
sg10
S'country'
p300
sg12
F0.0462
sg13
VPetric
p301
sg15
I9999
sg16
F0.641
sg17
Nsg18
F0.0026
sg19
Nsg20
Nsg21
F0.623
sg22
Nsg23
Nsg24
F-3.686
ssg25
I01
sba(iSong
Song
p302
(dp303
g3
(dp304
g5
F0.593
sg6
VWritten in the Sand
p305
sg8
F83.985
sg9
F0.437
sg10
S'country'
p306
sg12
F0.0575
sg13
VOld Dominion
p307
sg15
I9999
sg16
F0.725
sg17
Nsg18
I0
sg19
Nsg20
Nsg21
F0.759
sg22
Nsg23
Nsg24
F-9.602
ssg25
I01
sba(iSong
Song
p308
(dp309
g3
(dp310
g5
F0.047
sg6
VMeant to Be (feat. Florida Georgia Line)
p311
sg8
F154.084
sg9
F0.783
sg10
S'country'
p312
sg12
F0.0856
sg13
VBebe Rexha
p313
sg15
I9999
sg16
F0.643
sg17
Nsg18
I0
sg19
Nsg20
Nsg21
F0.579
sg22
Nsg23
Nsg24
F-6.458
ssg25
I01
sba(iSong
Song
p314
(dp315
g3
(dp316
g5
F0.0063
sg6
VFor The First Time
p317
sg8
F142.099
sg9
F0.765
sg10
S'country'
p318
sg12
F0.0393
sg13
VDarius Rucker
p319
sg15
I9999
sg16
F0.548
sg17
Nsg18
I0
sg19
Nsg20
Nsg21
F0.744
sg22
Nsg23
Nsg24
F-5.297
ssg25
I01
sba(iSong
Song
p320
(dp321
g3
(dp322
g5
F0.445
sg6
VDifferent For Girls
p323
sg8
F91.975
sg9
F0.785
sg10
S'country'
p324
sg12
F0.0369
sg13
VDierks Bentley
p325
sg15
I9999
sg16
F0.661
sg17
Nsg18
F0.000266
sg19
Nsg20
Nsg21
F0.371
sg22
Nsg23
Nsg24
F-5.623
ssg25
I01
sba(iSong
Song
p326
(dp327
g3
(dp328
g5
F0.294
sg6
VRescue
p329
sg8
F90.095
sg9
F0.791
sg10
S'country'
p330
sg12
F0.0378
sg13
VHunter Hayes
p331
sg15
I9999
sg16
F0.52
sg17
Nsg18
I0
sg19
Nsg20
Nsg21
F0.29
sg22
Nsg23
Nsg24
F-3.499
ssg25
I01
sba(iSong
Song
p332
(dp333
g3
(dp334
g5
F0.0251
sg6
VSmall Town Boy
p335
sg8
F72.997
sg9
F0.743
sg10
S'country'
p336
sg12
F0.0287
sg13
VDustin Lynch
p337
sg15
I9999
sg16
F0.554
sg17
Nsg18
I0
sg19
Nsg20
Nsg21
F0.673
sg22
Nsg23
Nsg24
F-6.016
ssg25
I01
sba(iSong
Song
p338
(dp339
g3
(dp340
g5
F0.0451
sg6
VHell If I Know
p341
sg8
F100.014
sg9
F0.831
sg10
S'country'
p342
sg12
F0.0434
sg13
VChase Bryant
p343
sg15
I9999
sg16
F0.618
sg17
Nsg18
I0
sg19
Nsg20
Nsg21
F0.627
sg22
Nsg23
Nsg24
F-5.99
ssg25
I01
sba(iSong
Song
p344
(dp345
g3
(dp346
g5
F0.334
sg6
VHold You Back
p347
sg8
F133.967
sg9
F0.629
sg10
S'country'
p348
sg12
F0.0321
sg13
VRyan Hurd
p349
sg15
I9999
sg16
F0.594
sg17
Nsg18
I0
sg19
Nsg20
Nsg21
F0.645
sg22
Nsg23
Nsg24
F-6.776
ssg25
I01
sba(iSong
Song
p350
(dp351
g3
(dp352
g5
F0.0074
sg6
VI Be U Be
p353
sg8
F126.035
sg9
F0.746
sg10
S'country'
p354
sg12
F0.0335
sg13
VHigh Valley
p355
sg15
I9999
sg16
F0.442
sg17
Nsg18
I0
sg19
Nsg20
Nsg21
F0.414
sg22
Nsg23
Nsg24
F-5.883
ssg25
I01
sba(iSong
Song
p356
(dp357
g3
(dp358
g5
F0.0147
sg6
VSixteen
p359
sg8
F106.992
sg9
F0.531
sg10
S'country'
p360
sg12
F0.0273
sg13
VThomas Rhett
p361
sg15
I9999
sg16
F0.707
sg17
Nsg18
F2.11e-06
sg19
Nsg20
Nsg21
F0.417
sg22
Nsg23
Nsg24
F-7.014
ssg25
I01
sba(iSong
Song
p362
(dp363
g3
(dp364
g5
F0.0332
sg6
VBands Make Her Dance
p365
sg8
F105.061
sg9
F0.667
sg10
S'country'
p366
sg12
F0.0379
sg13
VLogan Mize
p367
sg15
I9999
sg16
F0.556
sg17
Nsg18
F6.94e-05
sg19
Nsg20
Nsg21
F0.275
sg22
Nsg23
Nsg24
F-5.705
ssg25
I01
sba(iSong
Song
p368
(dp369
g3
(dp370
g5
F0.178
sg6
VRecord Year
p371
sg8
F159.96
sg9
F0.655
sg10
S'country'
p372
sg12
F0.12
sg13
VEric Church
p373
sg15
I9999
sg16
F0.585
sg17
Nsg18
I0
sg19
Nsg20
Nsg21
F0.574
sg22
Nsg23
Nsg24
F-8.151
ssg25
I01
sba(iSong
Song
p374
(dp375
g3
(dp376
g5
F0.216
sg6
VWe Were That Song
p377
sg8
F102.956
sg9
F0.911
sg10
S'country'
p378
sg12
F0.05
sg13
VBrett Kissel
p379
sg15
I9999
sg16
F0.618
sg17
Nsg18
I0
sg19
Nsg20
Nsg21
F0.501
sg22
Nsg23
Nsg24
F-3.323
ssg25
I01
sba(iSong
Song
p380
(dp381
g3
(dp382
g5
F0.000555
sg6
VThunder in the Rain
p383
sg8
F110.963
sg9
F0.877
sg10
S'country'
p384
sg12
F0.0317
sg13
VKane Brown
p385
sg15
I9999
sg16
F0.549
sg17
Nsg18
I0
sg19
Nsg20
Nsg21
F0.377
sg22
Nsg23
Nsg24
F-5.008
ssg25
I01
sba(iSong
Song
p386
(dp387
g3
(dp388
g5
F0.0342
sg6
VDrive Me Away
p389
sg8
F102.136
sg9
F0.852
sg10
S'country'
p390
sg12
F0.0992
sg13
VJess Moskaluke
p391
sg15
I9999
sg16
F0.579
sg17
Nsg18
I0
sg19
Nsg20
Nsg21
F0.616
sg22
Nsg23
Nsg24
F-4.318
ssg25
I01
sba(iSong
Song
p392
(dp393
g3
(dp394
g5
F0.265
sg6
VThe Long Way
p395
sg8
F88.865
sg9
F0.637
sg10
S'country'
p396
sg12
F0.0401
sg13
VBrett Eldredge
p397
sg15
I9999
sg16
F0.488
sg17
Nsg18
I0
sg19
Nsg20
Nsg21
F0.23
sg22
Nsg23
Nsg24
F-7.63
ssg25
I01
sba(iSong
Song
p398
(dp399
g3
(dp400
g5
F0.161
sg6
VThis Night Back
p401
sg8
F160.167
sg9
F0.863
sg10
S'country'
p402
sg12
F0.04
sg13
VCanaan Smith
p403
sg15
I9999
sg16
F0.587
sg17
Nsg18
I0
sg19
Nsg20
Nsg21
F0.537
sg22
Nsg23
Nsg24
F-4.803
ssg25
I01
sba(iSong
Song
p404
(dp405
g3
(dp406
g5
F0.0277
sg6
VLiquor's Callin' the Shots
p407
sg8
F158.104
sg9
F0.96
sg10
S'country'
p408
sg12
F0.0588
sg13
VEric Ethridge
p409
sg15
I9999
sg16
F0.447
sg17
Nsg18
I0
sg19
Nsg20
Nsg21
F0.533
sg22
Nsg23
Nsg24
F-1.979
ssg25
I01
sba(iSong
Song
p410
(dp411
g3
(dp412
g5
F0.0528
sg6
VFound You
p413
sg8
F164.144
sg9
F0.821
sg10
S'country'
p414
sg12
F0.0404
sg13
VKane Brown
p415
sg15
I9999
sg16
F0.46
sg17
Nsg18
I0
sg19
Nsg20
Nsg21
F0.438
sg22
Nsg23
Nsg24
F-5.333
ssg25
I01
sba(iSong
Song
p416
(dp417
g3
(dp418
g5
F0.385
sg6
VH.O.L.Y.
p419
sg8
F78.003
sg9
F0.685
sg10
S'country'
p420
sg12
F0.0351
sg13
VFlorida Georgia Line
p421
sg15
I9999
sg16
F0.525
sg17
Nsg18
I0
sg19
Nsg20
Nsg21
F0.54
sg22
Nsg23
Nsg24
F-3.954
ssg25
I01
sba(iSong
Song
p422
(dp423
g3
(dp424
g5
F0.000601
sg6
VLong Way To Love You
p425
sg8
F115.024
sg9
F0.829
sg10
S'country'
p426
sg12
F0.0452
sg13
VHunter Brothers
p427
sg15
I9999
sg16
F0.589
sg17
Nsg18
I0
sg19
Nsg20
Nsg21
F0.411
sg22
Nsg23
Nsg24
F-4.993
ssg25
I01
sba(iSong
Song
p428
(dp429
g3
(dp430
g5
F0.0304
sg6
VThe Fighter
p431
sg8
F132.023
sg9
F0.845
sg10
S'country'
p432
sg12
F0.0525
sg13
VKeith Urban
p433
sg15
I9999
sg16
F0.681
sg17
Nsg18
I0
sg19
Nsg20
Nsg21
F0.761
sg22
Nsg23
Nsg24
F-5.147
ssg25
I01
sba(iSong
Song
p434
(dp435
g3
(dp436
g5
F0.0596
sg6
VRoad Less Traveled
p437
sg8
F112.996
sg9
F0.88
sg10
S'country'
p438
sg12
F0.0348
sg13
VLauren Alaina
p439
sg15
I9999
sg16
F0.615
sg17
Nsg18
I0
sg19
Nsg20
Nsg21
F0.307
sg22
Nsg23
Nsg24
F-4.69
ssg25
I01
sba(iSong
Song
p440
(dp441
g3
(dp442
g5
F0.129
sg6
VLight It Up
p443
sg8
F130.029
sg9
F0.935
sg10
S'country'
p444
sg12
F0.0855
sg13
VLuke Bryan
p445
sg15
I9999
sg16
F0.596
sg17
Nsg18
I0
sg19
Nsg20
Nsg21
F0.678
sg22
Nsg23
Nsg24
F-2.794
ssg25
I01
sba(iSong
Song
p446
(dp447
g3
(dp448
g5
F0.368
sg6
VTake Back Home Girl (Feat. Tori Kelly)
p449
sg8
F159.708
sg9
F0.78
sg10
S'country'
p450
sg12
F0.064
sg13
VChris Lane
p451
sg15
I9999
sg16
F0.494
sg17
Nsg18
I0
sg19
Nsg20
Nsg21
F0.664
sg22
Nsg23
Nsg24
F-3.825
ssg25
I01
sba(iSong
Song
p452
(dp453
g3
(dp454
g5
F0.163
sg6
VI'll Name the Dogs
p455
sg8
F168.063
sg9
F0.852
sg10
S'country'
p456
sg12
F0.0933
sg13
VBlake Shelton
p457
sg15
I9999
sg16
F0.47
sg17
Nsg18
F2.04e-06
sg19
Nsg20
Nsg21
F0.773
sg22
Nsg23
Nsg24
F-5.874
ssg25
I01
sba(iSong
Song
p458
(dp459
g3
(dp460
g5
F0.208
sg6
VHow Not To
p461
sg8
F159.863
sg9
F0.836
sg10
S'country'
p462
sg12
F0.0491
sg13
VDan + Shay
p463
sg15
I9999
sg16
F0.501
sg17
Nsg18
I0
sg19
Nsg20
Nsg21
F0.618
sg22
Nsg23
Nsg24
F-3.587
ssg25
I01
sba(iSong
Song
p464
(dp465
g3
(dp466
g5
F0.0637
sg6
VWhen I Do
p467
sg8
F74.994
sg9
F0.785
sg10
S'country'
p468
sg12
F0.0576
sg13
VAlee
p469
sg15
I9999
sg16
F0.404
sg17
Nsg18
F1.7e-06
sg19
Nsg20
Nsg21
F0.584
sg22
Nsg23
Nsg24
F-4.336
ssg25
I01
sba(iSong
Song
p470
(dp471
g3
(dp472
g5
F0.0364
sg6
VOut There
p473
sg8
F153.984
sg9
F0.795
sg10
S'country'
p474
sg12
F0.0339
sg13
VChris Janson
p475
sg15
I9999
sg16
F0.53
sg17
Nsg18
F2.67e-06
sg19
Nsg20
Nsg21
F0.516
sg22
Nsg23
Nsg24
F-5.233
ssg25
I01
sba(iSong
Song
p476
(dp477
g3
(dp478
g5
F0.12
sg6
VYours
p479
sg8
F133.975
sg9
F0.796
sg10
S'country'
p480
sg12
F0.0313
sg13
VRussell Dickerson
p481
sg15
I9999
sg16
F0.568
sg17
Nsg18
I0
sg19
Nsg20
Nsg21
F0.573
sg22
Nsg23
Nsg24
F-5.308
ssg25
I01
sba(iSong
Song
p482
(dp483
g3
(dp484
g5
F0.0138
sg6
VCity Girl
p485
sg8
F134.009
sg9
F0.795
sg10
S'country'
p486
sg12
F0.0292
sg13
VRyan Hurd
p487
sg15
I9999
sg16
F0.567
sg17
Nsg18
I0
sg19
Nsg20
Nsg21
F0.415
sg22
Nsg23
Nsg24
F-6.202
ssg25
I01
sba(iSong
Song
p488
(dp489
g3
(dp490
g5
F0.0886
sg6
VDirt Road In 'Em
p491
sg8
F146.027
sg9
F0.913
sg10
S'country'
p492
sg12
F0.046
sg13
VAaron Pritchett
p493
sg15
I9999
sg16
F0.579
sg17
Nsg18
I0
sg19
Nsg20
Nsg21
F0.714
sg22
Nsg23
Nsg24
F-3.888
ssg25
I01
sba(iSong
Song
p494
(dp495
g3
(dp496
g5
F0.0551
sg6
VLike You That Way
p497
sg8
F184.059
sg9
F0.738
sg10
S'country'
p498
sg12
F0.0719
sg13
VCanaan Smith
p499
sg15
I9999
sg16
F0.41
sg17
Nsg18
I0
sg19
Nsg20
Nsg21
F0.593
sg22
Nsg23
Nsg24
F-3.833
ssg25
I01
sba(iSong
Song
p500
(dp501
g3
(dp502
g5
F0.00959
sg6
VOut Of The Blue
p503
sg8
F81.999
sg9
F0.828
sg10
S'country'
p504
sg12
F0.032
sg13
VChad Brownlee
p505
sg15
I9999
sg16
F0.515
sg17
Nsg18
I0
sg19
Nsg20
Nsg21
F0.653
sg22
Nsg23
Nsg24
F-4.715
ssg25
I01
sba(iSong
Song
p506
(dp507
g3
(dp508
g5
F0.0993
sg6
VFor Her
p509
sg8
F150.004
sg9
F0.904
sg10
S'country'
p510
sg12
F0.0357
sg13
VChris Lane
p511
sg15
I9999
sg16
F0.51
sg17
Nsg18
I0
sg19
Nsg20
Nsg21
F0.545
sg22
Nsg23
Nsg24
F-4.291
ssg25
I01
sba(iSong
Song
p512
(dp513
g3
(dp514
g5
F0.321
sg6
VLivin' on Summertime
p515
sg8
F89.016
sg9
F0.818
sg10
S'country'
p516
sg12
F0.0276
sg13
VGord Bamford
p517
sg15
I9999
sg16
F0.529
sg17
Nsg18
I0
sg19
Nsg20
Nsg21
F0.688
sg22
Nsg23
Nsg24
F-3.624
ssg25
I01
sba(iSong
Song
p518
(dp519
g3
(dp520
g5
F0.158
sg6
VStompin' Ground
p521
sg8
F97.999
sg9
F0.937
sg10
S'country'
p522
sg12
F0.0525
sg13
VTim Hicks
p523
sg15
I9999
sg16
F0.691
sg17
Nsg18
I0
sg19
Nsg20
Nsg21
F0.847
sg22
Nsg23
Nsg24
F-3.963
ssg25
I01
sba(iSong
Song
p524
(dp525
g3
(dp526
g5
F0.114
sg6
VWanna Be That Song
p527
sg8
F144.065
sg9
F0.686
sg10
S'country'
p528
sg12
F0.0313
sg13
VBrett Eldredge
p529
sg15
I9999
sg16
F0.518
sg17
Nsg18
I0
sg19
Nsg20
Nsg21
F0.334
sg22
Nsg23
Nsg24
F-4.911
ssg25
I01
sba(iSong
Song
p530
(dp531
g3
(dp532
g5
F0.225
sg6
VFast
p533
sg8
F145.953
sg9
F0.898
sg10
S'country'
p534
sg12
F0.0459
sg13
VLuke Bryan
p535
sg15
I9999
sg16
F0.548
sg17
Nsg18
I0
sg19
Nsg20
Nsg21
F0.599
sg22
Nsg23
Nsg24
F-2.561
ssg25
I01
sba(iSong
Song
p536
(dp537
g3
(dp538
g5
F0.0385
sg6
VLater
p539
sg8
F164.936
sg9
F0.851
sg10
S'country'
p540
sg12
F0.0493
sg13
VDavid James
p541
sg15
I9999
sg16
F0.516
sg17
Nsg18
I0
sg19
Nsg20
Nsg21
F0.605
sg22
Nsg23
Nsg24
F-5.013
ssg25
I01
sba(iSong
Song
p542
(dp543
g3
(dp544
g5
F0.0344
sg6
VYou Look Good
p545
sg8
F152.015
sg9
F0.926
sg10
S'country'
p546
sg12
F0.0461
sg13
VLady Antebellum
p547
sg15
I9999
sg16
F0.659
sg17
Nsg18
F0.00121
sg19
Nsg20
Nsg21
F0.95
sg22
Nsg23
Nsg24
F-4.66
ssg25
I01
sba(iSong
Song
p548
(dp549
g3
(dp550
g5
F0.033
sg6
VGood Kinda Love
p551
sg8
F92.01
sg9
F0.906
sg10
S'country'
p552
sg12
F0.0325
sg13
VJojo Mason
p553
sg15
I9999
sg16
F0.532
sg17
Nsg18
F4.61e-05
sg19
Nsg20
Nsg21
F0.775
sg22
Nsg23
Nsg24
F-3.145
ssg25
I01
sba(iSong
Song
p554
(dp555
g3
(dp556
g5
F0.0108
sg6
VWhat Makes You Country
p557
sg8
F159.995
sg9
F0.947
sg10
S'country'
p558
sg12
F0.0445
sg13
VLuke Bryan
p559
sg15
I9999
sg16
F0.51
sg17
Nsg18
I0
sg19
Nsg20
Nsg21
F0.749
sg22
Nsg23
Nsg24
F-1.746
ssg25
I01
sba(iSong
Song
p560
(dp561
g3
(dp562
g5
F0.0919
sg6
VHead Over Boots
p563
sg8
F108.078
sg9
F0.669
sg10
S'country'
p564
sg12
F0.0237
sg13
VJon Pardi
p565
sg15
I9999
sg16
F0.637
sg17
Nsg18
I0
sg19
Nsg20
Nsg21
F0.638
sg22
Nsg23
Nsg24
F-4.608
ssg25
I01
sba(iSong
Song
p566
(dp567
g3
(dp568
g5
F0.00283
sg6
VCardboard Box
p569
sg8
F116.969
sg9
F0.864
sg10
S'country'
p570
sg12
F0.0312
sg13
VNatasha Zimbaro
p571
sg15
I9999
sg16
F0.608
sg17
Nsg18
I0
sg19
Nsg20
Nsg21
F0.582
sg22
Nsg23
Nsg24
F-3.976
ssg25
I01
sba(iSong
Song
p572
(dp573
g3
(dp574
g5
F0.018
sg6
VUnapologetically
p575
sg8
F170.877
sg9
F0.817
sg10
S'country'
p576
sg12
F0.0473
sg13
VKelsea Ballerini
p577
sg15
I9999
sg16
F0.536
sg17
Nsg18
I0
sg19
Nsg20
Nsg21
F0.525
sg22
Nsg23
Nsg24
F-5.285
ssg25
I01
sba(iSong
Song
p578
(dp579
g3
(dp580
g5
F0.0131
sg6
VDaughters Of The Sun
p581
sg8
F114.997
sg9
F0.724
sg10
S'country'
p582
sg12
F0.0343
sg13
VGeorge Canyon
p583
sg15
I9999
sg16
F0.694
sg17
Nsg18
F8.28e-05
sg19
Nsg20
Nsg21
F0.72
sg22
Nsg23
Nsg24
F-7.026
ssg25
I01
sba(iSong
Song
p584
(dp585
g3
(dp586
g5
F0.0913
sg6
VUp Down (Feat. Florida Georgia Line)
p587
sg8
F129.928
sg9
F0.881
sg10
S'country'
p588
sg12
F0.0349
sg13
VMorgan Wallen
p589
sg15
I9999
sg16
F0.59
sg17
Nsg18
I0
sg19
Nsg20
Nsg21
F0.734
sg22
Nsg23
Nsg24
F-2.898
ssg25
I01
sba(iSong
Song
p590
(dp591
g3
(dp592
g5
F0.0183
sg6
VBlue Tacoma
p593
sg8
F160.139
sg9
F0.897
sg10
S'country'
p594
sg12
F0.0403
sg13
VRussell Dickerson
p595
sg15
I9999
sg16
F0.455
sg17
Nsg18
I0
sg19
Nsg20
Nsg21
F0.728
sg22
Nsg23
Nsg24
F-4.879
ssg25
I01
sba(iSong
Song
p596
(dp597
g3
(dp598
g5
F0.168
sg6
VProof Is on Your Lips
p599
sg8
F143.926
sg9
F0.807
sg10
S'country'
p600
sg12
F0.033
sg13
VRyan Robinette
p601
sg15
I9999
sg16
F0.455
sg17
Nsg18
I0
sg19
Nsg20
Nsg21
F0.685
sg22
Nsg23
Nsg24
F-5.053
ssg25
I01
sba(iSong
Song
p602
(dp603
g3
(dp604
g5
F0.126
sg6
VBetter Man
p605
sg8
F143.991
sg9
F0.76
sg10
S'country'
p606
sg12
F0.0361
sg13
VLittle Big Town
p607
sg15
I9999
sg16
F0.524
sg17
Nsg18
F1.1e-05
sg19
Nsg20
Nsg21
F0.437
sg22
Nsg23
Nsg24
F-4.214
ssg25
I01
sba(iSong
Song
p608
(dp609
g3
(dp610
g5
F0.44
sg6
VEvery Little Thing
p611
sg8
F139.775
sg9
F0.444
sg10
S'country'
p612
sg12
F0.0417
sg13
VCarly Pearce
p613
sg15
I9999
sg16
F0.637
sg17
Nsg18
F5.46e-06
sg19
Nsg20
Nsg21
F0.319
sg22
Nsg23
Nsg24
F-6.355
ssg25
I01
sba(iSong
Song
p614
(dp615
g3
(dp616
g5
F0.38
sg6
VGreatest Love Story
p617
sg8
F147.975
sg9
F0.621
sg10
S'country'
p618
sg12
F0.0524
sg13
VLANCO
p619
sg15
I9999
sg16
F0.665
sg17
Nsg18
I0
sg19
Nsg20
Nsg21
F0.632
sg22
Nsg23
Nsg24
F-8.571
ssg25
I01
sba(iSong
Song
p620
(dp621
g3
(dp622
g5
F0.047
sg6
VMeant to Be (feat. Florida Georgia Line)
p623
sg8
F154.084
sg9
F0.783
sg10
S'country'
p624
sg12
F0.0856
sg13
VBebe Rexha
p625
sg15
I9999
sg16
F0.643
sg17
Nsg18
I0
sg19
Nsg20
Nsg21
F0.579
sg22
Nsg23
Nsg24
F-6.458
ssg25
I01
sba(iSong
Song
p626
(dp627
g3
(dp628
g5
F0.0251
sg6
VSmall Town Boy
p629
sg8
F72.997
sg9
F0.743
sg10
S'country'
p630
sg12
F0.0287
sg13
VDustin Lynch
p631
sg15
I9999
sg16
F0.554
sg17
Nsg18
I0
sg19
Nsg20
Nsg21
F0.673
sg22
Nsg23
Nsg24
F-6.016
ssg25
I01
sba(iSong
Song
p632
(dp633
g3
(dp634
g5
F0.161
sg6
VThis Night Back
p635
sg8
F160.167
sg9
F0.863
sg10
S'country'
p636
sg12
F0.04
sg13
VCanaan Smith
p637
sg15
I9999
sg16
F0.587
sg17
Nsg18
I0
sg19
Nsg20
Nsg21
F0.537
sg22
Nsg23
Nsg24
F-4.803
ssg25
I01
sba(iSong
Song
p638
(dp639
g3
(dp640
g5
F0.349
sg6
VTake Back Home Girl (Feat. Tori Kelly)
p641
sg8
F160.03
sg9
F0.798
sg10
S'country'
p642
sg12
F0.0705
sg13
VChris Lane
p643
sg15
I9999
sg16
F0.488
sg17
Nsg18
I0
sg19
Nsg20
Nsg21
F0.613
sg22
Nsg23
Nsg24
F-3.855
ssg25
I01
sba(iSong
Song
p644
(dp645
g3
(dp646
g5
F0.144
sg6
VAll On Me
p647
sg8
F80.996
sg9
F0.658
sg10
S'country'
p648
sg12
F0.0281
sg13
VDevin Dawson
p649
sg15
I9999
sg16
F0.631
sg17
Nsg18
I0
sg19
Nsg20
Nsg21
F0.7
sg22
Nsg23
Nsg24
F-5.313
ssg25
I01
sba(iSong
Song
p650
(dp651
g3
(dp652
g5
F0.00898
sg6
VWhat Ifs
p653
sg8
F125.976
sg9
F0.799
sg10
S'country'
p654
sg12
F0.0275
sg13
VKane Brown
p655
sg15
I9999
sg16
F0.612
sg17
Nsg18
I0
sg19
Nsg20
Nsg21
F0.687
sg22
Nsg23
Nsg24
F-4.603
ssg25
I01
sba(iSong
Song
p656
(dp657
g3
(dp658
g5
F0.0147
sg6
VSixteen
p659
sg8
F106.992
sg9
F0.531
sg10
S'country'
p660
sg12
F0.0273
sg13
VThomas Rhett
p661
sg15
I9999
sg16
F0.707
sg17
Nsg18
F2.11e-06
sg19
Nsg20
Nsg21
F0.417
sg22
Nsg23
Nsg24
F-7.014
ssg25
I01
sba(iSong
Song
p662
(dp663
g3
(dp664
g5
F0.302
sg6
VSpeakers, Bleachers And Preachers
p665
sg8
F96.02
sg9
F0.625
sg10
S'country'
p666
sg12
F0.0258
sg13
VBrandon Lay
p667
sg15
I9999
sg16
F0.603
sg17
Nsg18
I0
sg19
Nsg20
Nsg21
F0.651
sg22
Nsg23
Nsg24
F-6.563
ssg25
I01
sba(iSong
Song
p668
(dp669
g3
(dp670
g5
F0.0169
sg6
VSleep Without You
p671
sg8
F88.549
sg9
F0.716
sg10
S'country'
p672
sg12
F0.043
sg13
VBrett Young
p673
sg15
I9999
sg16
F0.632
sg17
Nsg18
I0
sg19
Nsg20
Nsg21
F0.655
sg22
Nsg23
Nsg24
F-5.677
ssg25
I01
sba(iSong
Song
p674
(dp675
g3
(dp676
g5
F0.463
sg6
VBody Like A Back Road
p677
sg8
F98.963
sg9
F0.469
sg10
S'country'
p678
sg12
F0.0326
sg13
VSam Hunt
p679
sg15
I9999
sg16
F0.731
sg17
Nsg18
F1.04e-06
sg19
Nsg20
Nsg21
F0.631
sg22
Nsg23
Nsg24
F-7.226
ssg25
I01
sba(iSong
Song
p680
(dp681
g3
(dp682
g5
F0.013
sg6
VWhen It Rains It Pours
p683
sg8
F128.027
sg9
F0.801
sg10
S'country'
p684
sg12
F0.0303
sg13
VLuke Combs
p685
sg15
I9999
sg16
F0.551
sg17
Nsg18
F6.03e-06
sg19
Nsg20
Nsg21
F0.625
sg22
Nsg23
Nsg24
F-5.069
ssg25
I01
sba(iSong
Song
p686
(dp687
g3
(dp688
g5
F0.0692
sg6
VThat's When You Know
p689
sg8
F147.881
sg9
F0.809
sg10
S'country'
p690
sg12
F0.044
sg13
VChris Buck Band
p691
sg15
I9999
sg16
F0.523
sg17
Nsg18
I0
sg19
Nsg20
Nsg21
F0.663
sg22
Nsg23
Nsg24
F-7.257
ssg25
I01
sba(iSong
Song
p692
(dp693
g3
(dp694
g5
F0.38
sg6
VGreatest Love Story
p695
sg8
F147.975
sg9
F0.621
sg10
S'country'
p696
sg12
F0.0524
sg13
VLANCO
p697
sg15
I9999
sg16
F0.665
sg17
Nsg18
I0
sg19
Nsg20
Nsg21
F0.632
sg22
Nsg23
Nsg24
F-8.571
ssg25
I01
sba(iSong
Song
p698
(dp699
g3
(dp700
g5
F0.0356
sg6
VI Know Somebody
p701
sg8
F88.986
sg9
F0.903
sg10
S'country'
p702
sg12
F0.037
sg13
VLOCASH
p703
sg15
I9999
sg16
F0.505
sg17
Nsg18
I0
sg19
Nsg20
Nsg21
F0.491
sg22
Nsg23
Nsg24
F-3.699
ssg25
I01
sba(iSong
Song
p704
(dp705
g3
(dp706
g5
F0.0179
sg6
VDear Life
p707
sg8
F127.026
sg9
F0.88
sg10
S'country'
p708
sg12
F0.0425
sg13
VHigh Valley
p709
sg15
I9999
sg16
F0.554
sg17
Nsg18
I0
sg19
Nsg20
Nsg21
F0.448
sg22
Nsg23
Nsg24
F-6.366
ssg25
I01
sba(iSong
Song
p710
(dp711
g3
(dp712
g5
F0.0943
sg6
VJust Got Paid
p713
sg8
F171.892
sg9
F0.782
sg10
S'country'
p714
sg12
F0.0523
sg13
VEmerson Drive
p715
sg15
I9999
sg16
F0.608
sg17
Nsg18
I0
sg19
Nsg20
Nsg21
F0.681
sg22
Nsg23
Nsg24
F-5.799
ssg25
I01
sba(iSong
Song
p716
(dp717
g3
(dp718
g5
F0.189
sg6
VHappens Like That
p719
sg8
F81.045
sg9
F0.807
sg10
S'country'
p720
sg12
F0.0825
sg13
VGranger Smith
p721
sg15
I9999
sg16
F0.557
sg17
Nsg18
I0
sg19
Nsg20
Nsg21
F0.578
sg22
Nsg23
Nsg24
F-5.428
ssg25
I01
sba(iSong
Song
p722
(dp723
g3
(dp724
g5
F0.0715
sg6
VLosing Sleep
p725
sg8
F92.003
sg9
F0.621
sg10
S'country'
p726
sg12
F0.0443
sg13
VChris Young
p727
sg15
I9999
sg16
F0.584
sg17
Nsg18
F1.68e-06
sg19
Nsg20
Nsg21
F0.634
sg22
Nsg23
Nsg24
F-5.703
ssg25
I01
sba(iSong
Song
p728
(dp729
g3
(dp730
g5
F0.0362
sg6
VHooked
p731
sg8
F132.054
sg9
F0.721
sg10
S'country'
p732
sg12
F0.0356
sg13
VDylan Scott
p733
sg15
I9999
sg16
F0.597
sg17
Nsg18
I0
sg19
Nsg20
Nsg21
F0.437
sg22
Nsg23
Nsg24
F-6.422
ssg25
I01
sba(iSong
Song
p734
(dp735
g3
(dp736
g5
F0.265
sg6
VThe Long Way
p737
sg8
F88.865
sg9
F0.637
sg10
S'country'
p738
sg12
F0.0401
sg13
VBrett Eldredge
p739
sg15
I9999
sg16
F0.488
sg17
Nsg18
I0
sg19
Nsg20
Nsg21
F0.23
sg22
Nsg23
Nsg24
F-7.63
ssg25
I01
sba(iSong
Song
p740
(dp741
g3
(dp742
g5
F0.0451
sg6
VHell If I Know
p743
sg8
F100.014
sg9
F0.831
sg10
S'country'
p744
sg12
F0.0434
sg13
VChase Bryant
p745
sg15
I9999
sg16
F0.618
sg17
Nsg18
I0
sg19
Nsg20
Nsg21
F0.627
sg22
Nsg23
Nsg24
F-5.99
ssg25
I01
sba(iSong
Song
p746
(dp747
g3
(dp748
g5
F0.0163
sg6
VDo It With You
p749
sg8
F99.994
sg9
F0.7
sg10
S'country'
p750
sg12
F0.0243
sg13
VAndrew Hyatt
p751
sg15
I9999
sg16
F0.639
sg17
Nsg18
I0
sg19
Nsg20
Nsg21
F0.535
sg22
Nsg23
Nsg24
F-6.566
ssg25
I01
sba(iSong
Song
p752
(dp753
g3
(dp754
g5
F0.171
sg6
VI'll Name the Dogs
p755
sg8
F83.392
sg9
F0.87
sg10
S'country'
p756
sg12
F0.137
sg13
VBlake Shelton
p757
sg15
I9999
sg16
F0.348
sg17
Nsg18
F4.4e-06
sg19
Nsg20
Nsg21
F0.763
sg22
Nsg23
Nsg24
F-5.86
ssg25
I01
sba(iSong
Song
p758
(dp759
g3
(dp760
g5
F0.182
sg6
VFemale
p761
sg8
F84.999
sg9
F0.474
sg10
S'country'
p762
sg12
F0.0351
sg13
VKeith Urban
p763
sg15
I9999
sg16
F0.562
sg17
Nsg18
F9.8e-05
sg19
Nsg20
Nsg21
F0.345
sg22
Nsg23
Nsg24
F-8.762
ssg25
I01
sba(iSong
Song
p764
(dp765
g3
(dp766
g5
F0.00746
sg6
VMore Girls Like You
p767
sg8
F75.001
sg9
F0.716
sg10
S'country'
p768
sg12
F0.0305
sg13
VKip Moore
p769
sg15
I9999
sg16
F0.551
sg17
Nsg18
I0
sg19
Nsg20
Nsg21
F0.739
sg22
Nsg23
Nsg24
F-5.431
ssg25
I01
sba(iSong
Song
p770
(dp771
g3
(dp772
g5
F0.0364
sg6
VOut There
p773
sg8
F153.984
sg9
F0.795
sg10
S'country'
p774
sg12
F0.0339
sg13
VChris Janson
p775
sg15
I9999
sg16
F0.53
sg17
Nsg18
F2.67e-06
sg19
Nsg20
Nsg21
F0.516
sg22
Nsg23
Nsg24
F-5.233
ssg25
I01
sba(iSong
Song
p776
(dp777
g3
(dp778
g5
F0.272
sg6
VGet Me Some of That
p779
sg8
F171.987
sg9
F0.753
sg10
S'country'
p780
sg12
F0.0626
sg13
VCole Swindell
p781
sg15
I9999
sg16
F0.585
sg17
Nsg18
I0
sg19
Nsg20
Nsg21
F0.892
sg22
Nsg23
Nsg24
F-5.871
ssg25
I01
sba(iSong
Song
p782
(dp783
g3
(dp784
g5
F0.000179
sg6
VHometown Kids
p785
sg8
F107.936
sg9
F0.79
sg10
S'country'
p786
sg12
F0.0339
sg13
VThe Reklaws
p787
sg15
I9999
sg16
F0.58
sg17
Nsg18
I0
sg19
Nsg20
Nsg21
F0.795
sg22
Nsg23
Nsg24
F-6.053
ssg25
I01
sba(iSong
Song
p788
(dp789
g3
(dp790
g5
F0.0536
sg6
VWoke up Like This
p791
sg8
F155.944
sg9
F0.776
sg10
S'country'
p792
sg12
F0.0484
sg13
VRiver Town Saints
p793
sg15
I9999
sg16
F0.507
sg17
Nsg18
I0
sg19
Nsg20
Nsg21
F0.77
sg22
Nsg23
Nsg24
F-4.363
ssg25
I01
sba(iSong
Song
p794
(dp795
g3
(dp796
g5
F0.00738
sg6
VFor The First Time
p797
sg8
F142.016
sg9
F0.804
sg10
S'country'
p798
sg12
F0.0361
sg13
VDarius Rucker
p799
sg15
I9999
sg16
F0.547
sg17
Nsg18
I0
sg19
Nsg20
Nsg21
F0.666
sg22
Nsg23
Nsg24
F-5.268
ssg25
I01
sba(iSong
Song
p800
(dp801
g3
(dp802
g5
F0.0597
sg6
VIt's Working
p803
sg8
F117.996
sg9
F0.898
sg10
S'country'
p804
sg12
F0.0378
sg13
VJames Barker Band
p805
sg15
I9999
sg16
F0.679
sg17
Nsg18
F1.39e-06
sg19
Nsg20
Nsg21
F0.685
sg22
Nsg23
Nsg24
F-5.058
ssg25
I01
sba(iSong
Song
p806
(dp807
g3
(dp808
g5
F0.00102
sg6
VMess This Up
p809
sg8
F147.988
sg9
F0.562
sg10
S'country'
p810
sg12
F0.0295
sg13
VRyan Robinette
p811
sg15
I9999
sg16
F0.489
sg17
Nsg18
I0
sg19
Nsg20
Nsg21
F0.354
sg22
Nsg23
Nsg24
F-5.02
ssg25
I01
sba(iSong
Song
p812
(dp813
g3
(dp814
g5
F0.593
sg6
VWritten in the Sand
p815
sg8
F83.985
sg9
F0.437
sg10
S'country'
p816
sg12
F0.0575
sg13
VOld Dominion
p817
sg15
I9999
sg16
F0.725
sg17
Nsg18
I0
sg19
Nsg20
Nsg21
F0.759
sg22
Nsg23
Nsg24
F-9.602
ssg25
I01
sba(iSong
Song
p818
(dp819
g3
(dp820
g5
F0.0235
sg6
VBorn To Love
p821
sg8
F161.612
sg9
F0.94
sg10
S'country'
p822
sg12
F0.208
sg13
VJason Blaine
p823
sg15
I9999
sg16
F0.285
sg17
Nsg18
I0
sg19
Nsg20
Nsg21
F0.173
sg22
Nsg23
Nsg24
F-4.548
ssg25
I01
sba(iSong
Song
p824
(dp825
g3
(dp826
g5
F0.0913
sg6
VUp Down (Feat. Florida Georgia Line)
p827
sg8
F129.928
sg9
F0.881
sg10
S'country'
p828
sg12
F0.0349
sg13
VMorgan Wallen
p829
sg15
I9999
sg16
F0.59
sg17
Nsg18
I0
sg19
Nsg20
Nsg21
F0.734
sg22
Nsg23
Nsg24
F-2.898
ssg25
I01
sba(iSong
Song
p830
(dp831
g3
(dp832
g5
F0.211
sg6
VMore
p833
sg8
F120.027
sg9
F0.883
sg10
S'country'
p834
sg12
F0.0551
sg13
VHunter Hayes
p835
sg15
I9999
sg16
F0.56
sg17
Nsg18
I0
sg19
Nsg20
Nsg21
F0.575
sg22
Nsg23
Nsg24
F-4.938
ssg25
I01
sba(iSong
Song
p836
(dp837
g3
(dp838
g5
F0.0864
sg6
VBorn And Raised
p839
sg8
F114.993
sg9
F0.906
sg10
S'country'
p840
sg12
F0.0748
sg13
VHunter Brothers
p841
sg15
I9999
sg16
F0.525
sg17
Nsg18
I0
sg19
Nsg20
Nsg21
F0.471
sg22
Nsg23
Nsg24
F-3.191
ssg25
I01
sba(iSong
Song
p842
(dp843
g3
(dp844
g5
F0.44
sg6
VEvery Little Thing
p845
sg8
F139.775
sg9
F0.444
sg10
S'country'
p846
sg12
F0.0417
sg13
VCarly Pearce
p847
sg15
I9999
sg16
F0.637
sg17
Nsg18
F5.46e-06
sg19
Nsg20
Nsg21
F0.319
sg22
Nsg23
Nsg24
F-6.355
ssg25
I01
sba(iSong
Song
p848
(dp849
g3
(dp850
g5
F0.0196
sg6
VYours - intl mix
p851
sg8
F133.973
sg9
F0.788
sg10
S'country'
p852
sg12
F0.032
sg13
VRussell Dickerson
p853
sg15
I9999
sg16
F0.538
sg17
Nsg18
I0
sg19
Nsg20
Nsg21
F0.457
sg22
Nsg23
Nsg24
F-5.248
ssg25
I01
sba(iSong
Song
p854
(dp855
g3
(dp856
g5
F0.0318
sg6
VGet over Yourself
p857
sg8
F84.036
sg9
F0.785
sg10
S'country'
p858
sg12
F0.0938
sg13
VKelsea Ballerini
p859
sg15
I9999
sg16
F0.497
sg17
Nsg18
I0
sg19
Nsg20
Nsg21
F0.486
sg22
Nsg23
Nsg24
F-7.916
ssg25
I01
sba(iSong
Song
p860
(dp861
g3
(dp862
g5
F0.232
sg6
VNights in the Sun (feat. Grandpa Bear)
p863
sg8
F76.987
sg9
F0.762
sg10
S'country'
p864
sg12
F0.0484
sg13
VBrett Kissel
p865
sg15
I9999
sg16
F0.226
sg17
Nsg18
I0
sg19
Nsg20
Nsg21
F0.314
sg22
Nsg23
Nsg24
F-5.07
ssg25
I01
sba(iSong
Song
p866
(dp867
g3
(dp868
g5
F0.0956
sg6
VHooked On It
p869
sg8
F163.983
sg9
F0.958
sg10
S'country'
p870
sg12
F0.0858
sg13
VLuke Bryan
p871
sg15
I9999
sg16
F0.51
sg17
Nsg18
I0
sg19
Nsg20
Nsg21
F0.671
sg22
Nsg23
Nsg24
F-1.457
ssg25
I01
sba(iSong
Song
p872
(dp873
g3
(dp874
g5
F0.327
sg6
VWorth It
p875
sg8
F114.868
sg9
F0.494
sg10
S'country'
p876
sg12
F0.0322
sg13
VDanielle Bradbery
p877
sg15
I9999
sg16
F0.538
sg17
Nsg18
I0
sg19
Nsg20
Nsg21
F0.329
sg22
Nsg23
Nsg24
F-4.611
ssg25
I01
sba(iSong
Song
p878
(dp879
g3
(dp880
g5
F0.0275
sg6
VThree Chords & The Truth
p881
sg8
F166.074
sg9
F0.889
sg10
S'country'
p882
sg12
F0.0462
sg13
VChase Rice
p883
sg15
I9999
sg16
F0.44
sg17
Nsg18
I0
sg19
Nsg20
Nsg21
F0.409
sg22
Nsg23
Nsg24
F-4.723
ssg25
I01
sba(iSong
Song
p884
(dp885
g3
(dp886
g5
F0.00602
sg6
V18 Ends
p887
sg8
F108.993
sg9
F0.897
sg10
S'country'
p888
sg12
F0.0265
sg13
VPetric
p889
sg15
I9999
sg16
F0.597
sg17
Nsg18
F1.05e-05
sg19
Nsg20
Nsg21
F0.655
sg22
Nsg23
Nsg24
F-5.013
ssg25
I01
sba(iSong
Song
p890
(dp891
g3
(dp892
g5
F0.101
sg6
VThis Town Is You
p893
sg8
F165.938
sg9
F0.874
sg10
S'country'
p894
sg12
F0.0365
sg13
VCold Creek County
p895
sg15
I9999
sg16
F0.447
sg17
Nsg18
I0
sg19
Nsg20
Nsg21
F0.63
sg22
Nsg23
Nsg24
F-3.757
ssg25
I01
sba(iSong
Song
p896
(dp897
g3
(dp898
g5
F0.237
sg6
VCountry Music Made Me Do It
p899
sg8
F156.052
sg9
F0.797
sg10
S'country'
p900
sg12
F0.0421
sg13
VMeghan Patrick
p901
sg15
I9999
sg16
F0.47
sg17
Nsg18
I0
sg19
Nsg20
Nsg21
F0.433
sg22
Nsg23
Nsg24
F-4.342
ssg25
I01
sba(iSong
Song
p902
(dp903
g3
(dp904
g5
F0.0299
sg6
VDrive Me Away
p905
sg8
F102.144
sg9
F0.845
sg10
S'country'
p906
sg12
F0.102
sg13
VJess Moskaluke
p907
sg15
I9999
sg16
F0.579
sg17
Nsg18
I0
sg19
Nsg20
Nsg21
F0.578
sg22
Nsg23
Nsg24
F-4.305
ssg25
I01
sba(iSong
Song
p908
(dp909
g3
(dp910
g5
F0.182
sg6
VThought It Was Gonna Be Me
p911
sg8
F160.046
sg9
F0.797
sg10
S'country'
p912
sg12
F0.0622
sg13
VCatherine McGrath
p913
sg15
I9999
sg16
F0.416
sg17
Nsg18
I0
sg19
Nsg20
Nsg21
F0.599
sg22
Nsg23
Nsg24
F-3.874
ssg25
I01
sba(iSong
Song
p914
(dp915
g3
(dp916
g5
F0.379
sg6
VSubliminal Love
p917
sg8
F100.012
sg9
F0.608
sg10
S'country'
p918
sg12
F0.0298
sg13
VJake Owen
p919
sg15
I9999
sg16
F0.645
sg17
Nsg18
I0
sg19
Nsg20
Nsg21
F0.638
sg22
Nsg23
Nsg24
F-6.038
ssg25
I01
sba(iSong
Song
p920
(dp921
g3
(dp922
g5
F0.00172
sg6
VAnything Goes
p923
sg8
F154.038
sg9
F0.977
sg10
S'country'
p924
sg12
F0.045
sg13
VFlorida Georgia Line
p925
sg15
I9999
sg16
F0.462
sg17
Nsg18
I0
sg19
Nsg20
Nsg21
F0.746
sg22
Nsg23
Nsg24
F-3.805
ssg25
I01
sba(iSong
Song
p926
(dp927
g3
(dp928
g5
F0.129
sg6
VStar Of The Show
p929
sg8
F101.958
sg9
F0.626
sg10
S'country'
p930
sg12
F0.0275
sg13
VThomas Rhett
p931
sg15
I9999
sg16
F0.69
sg17
Nsg18
I0
sg19
Nsg20
Nsg21
F0.638
sg22
Nsg23
Nsg24
F-5.831
ssg25
I01
sba(iSong
Song
p932
(dp933
g3
(dp934
g5
F0.0537
sg6
VThe Weekend
p935
sg8
F82.002
sg9
F0.842
sg10
S'country'
p936
sg12
F0.0448
sg13
VBrantley Gilbert
p937
sg15
I9999
sg16
F0.524
sg17
Nsg18
I0
sg19
Nsg20
Nsg21
F0.709
sg22
Nsg23
Nsg24
F-4.79
ssg25
I01
sba(iSong
Song
p938
(dp939
g3
(dp940
g5
F0.0165
sg6
VHurricane
p941
sg8
F151.928
sg9
F0.804
sg10
S'country'
p942
sg12
F0.0406
sg13
VLuke Combs
p943
sg15
I9999
sg16
F0.443
sg17
Nsg18
F2.89e-06
sg19
Nsg20
Nsg21
F0.438
sg22
Nsg23
Nsg24
F-6.432
ssg25
I01
sba(iSong
Song
p944
(dp945
g3
(dp946
g5
F0.0919
sg6
VHead Over Boots
p947
sg8
F108.078
sg9
F0.669
sg10
S'country'
p948
sg12
F0.0237
sg13
VJon Pardi
p949
sg15
I9999
sg16
F0.637
sg17
Nsg18
I0
sg19
Nsg20
Nsg21
F0.638
sg22
Nsg23
Nsg24
F-4.608
ssg25
I01
sba(iSong
Song
p950
(dp951
g3
(dp952
g5
F0.0244
sg6
VSmall Town Boy
p953
sg8
F73.033
sg9
F0.747
sg10
S'country'
p954
sg12
F0.0292
sg13
VDustin Lynch
p955
sg15
I9999
sg16
F0.553
sg17
Nsg18
I0
sg19
Nsg20
Nsg21
F0.711
sg22
Nsg23
Nsg24
F-5.905
ssg25
I01
sba(iSong
Song
p956
(dp957
g3
(dp958
g5
F0.1
sg6
VSpringsteen
p959
sg8
F104.023
sg9
F0.809
sg10
S'country'
p960
sg12
F0.0255
sg13
VEric Church
p961
sg15
I9999
sg16
F0.692
sg17
Nsg18
F9.77e-05
sg19
Nsg20
Nsg21
F0.927
sg22
Nsg23
Nsg24
F-5.935
ssg25
I01
sba(iSong
Song
p962
(dp963
g3
(dp964
g5
F0.208
sg6
VBarefoot Blue Jean Night
p965
sg8
F172.016
sg9
F0.808
sg10
S'country'
p966
sg12
F0.0403
sg13
VJake Owen
p967
sg15
I9999
sg16
F0.6
sg17
Nsg18
I0
sg19
Nsg20
Nsg21
F0.809
sg22
Nsg23
Nsg24
F-4.679
ssg25
I01
sba(iSong
Song
p968
(dp969
g3
(dp970
g5
F0.111
sg6
VIt Goes Like This
p971
sg8
F167.957
sg9
F0.836
sg10
S'country'
p972
sg12
F0.0627
sg13
VThomas Rhett
p973
sg15
I9999
sg16
F0.54
sg17
Nsg18
I0
sg19
Nsg20
Nsg21
F0.55
sg22
Nsg23
Nsg24
F-5.914
ssg25
I01
sba(iSong
Song
p974
(dp975
g3
(dp976
g5
F0.0617
sg6
VHeartache On The Dance Floor
p977
sg8
F116.005
sg9
F0.824
sg10
S'country'
p978
sg12
F0.0458
sg13
VJon Pardi
p979
sg15
I9999
sg16
F0.594
sg17
Nsg18
I0
sg19
Nsg20
Nsg21
F0.671
sg22
Nsg23
Nsg24
F-4.252
ssg25
I01
sba(iSong
Song
p980
(dp981
g3
(dp982
g5
F0.0142
sg6
VWhere It's At
p983
sg8
F158.05
sg9
F0.737
sg10
S'country'
p984
sg12
F0.0476
sg13
VDustin Lynch
p985
sg15
I9999
sg16
F0.557
sg17
Nsg18
I0
sg19
Nsg20
Nsg21
F0.817
sg22
Nsg23
Nsg24
F-5.75
ssg25
I01
sba(iSong
Song
p986
(dp987
g3
(dp988
g5
F0.399
sg6
VI Don't Dance
p989
sg8
F92.036
sg9
F0.559
sg10
S'country'
p990
sg12
F0.0321
sg13
VLee Brice
p991
sg15
I9999
sg16
F0.587
sg17
Nsg18
F6.69e-06
sg19
Nsg20
Nsg21
F0.19
sg22
Nsg23
Nsg24
F-7.742
ssg25
I01
sba(iSong
Song
p992
(dp993
g3
(dp994
g5
F0.143
sg6
VBottoms Up
p995
sg8
F170.047
sg9
F0.87
sg10
S'country'
p996
sg12
F0.0442
sg13
VBrantley Gilbert
p997
sg15
I9999
sg16
F0.479
sg17
Nsg18
I0
sg19
Nsg20
Nsg21
F0.537
sg22
Nsg23
Nsg24
F-5.739
ssg25
I01
sba(iSong
Song
p998
(dp999
g3
(dp1000
g5
F0.46
sg6
VNowhere Fast
p1001
sg8
F101.974
sg9
F0.488
sg10
S'country'
p1002
sg12
F0.0286
sg13
VOld Dominion
p1003
sg15
I9999
sg16
F0.788
sg17
Nsg18
F4.52e-06
sg19
Nsg20
Nsg21
F0.48
sg22
Nsg23
Nsg24
F-7.319
ssg25
I01
sba(iSong
Song
p1004
(dp1005
g3
(dp1006
g5
F0.275
sg6
VI Like The Sound Of That
p1007
sg8
F89.964
sg9
F0.813
sg10
S'country'
p1008
sg12
F0.0368
sg13
VRascal Flatts
p1009
sg15
I9999
sg16
F0.609
sg17
Nsg18
I0
sg19
Nsg20
Nsg21
F0.54
sg22
Nsg23
Nsg24
F-5.599
ssg25
I01
sba(iSong
Song
p1010
(dp1011
g3
(dp1012
g5
F0.381
sg6
VDie A Happy Man
p1013
sg8
F83.096
sg9
F0.383
sg10
S'country'
p1014
sg12
F0.0304
sg13
VThomas Rhett
p1015
sg15
I9999
sg16
F0.66
sg17
Nsg18
I0
sg19
Nsg20
Nsg21
F0.381
sg22
Nsg23
Nsg24
F-9.377
ssg25
I01
sba(iSong
Song
p1016
(dp1017
g3
(dp1018
g5
F0.456
sg6
VWagon Wheel
p1019
sg8
F148.102
sg9
F0.663
sg10
S'country'
p1020
sg12
F0.0306
sg13
VDarius Rucker
p1021
sg15
I9999
sg16
F0.529
sg17
Nsg18
I0
sg19
Nsg20
Nsg21
F0.592
sg22
Nsg23
Nsg24
F-7.138
ssg25
I01
sba(iSong
Song
p1022
(dp1023
g3
(dp1024
g5
F0.368
sg6
VTake Back Home Girl (Feat. Tori Kelly)
p1025
sg8
F159.708
sg9
F0.78
sg10
S'country'
p1026
sg12
F0.064
sg13
VChris Lane
p1027
sg15
I9999
sg16
F0.494
sg17
Nsg18
I0
sg19
Nsg20
Nsg21
F0.664
sg22
Nsg23
Nsg24
F-3.825
ssg25
I01
sba(iSong
Song
p1028
(dp1029
g3
(dp1030
g5
F0.201
sg6
VWhatever She's Got
p1031
sg8
F160.458
sg9
F0.717
sg10
S'country'
p1032
sg12
F0.0421
sg13
VDavid Nail
p1033
sg15
I9999
sg16
F0.53
sg17
Nsg18
I0
sg19
Nsg20
Nsg21
F0.906
sg22
Nsg23
Nsg24
F-6.073
ssg25
I01
sba(iSong
Song
p1034
(dp1035
g3
(dp1036
g5
F0.000159
sg6
VEven If It Breaks Your Heart
p1037
sg8
F104.032
sg9
F0.527
sg10
S'country'
p1038
sg12
F0.0277
sg13
VEli Young Band
p1039
sg15
I9999
sg16
F0.667
sg17
Nsg18
F0.0117
sg19
Nsg20
Nsg21
F0.664
sg22
Nsg23
Nsg24
F-4.6
ssg25
I01
sba(iSong
Song
p1040
(dp1041
g3
(dp1042
g5
F0.0209
sg6
VBlue Tacoma
p1043
sg8
F160.125
sg9
F0.894
sg10
S'country'
p1044
sg12
F0.0398
sg13
VRussell Dickerson
p1045
sg15
I9999
sg16
F0.458
sg17
Nsg18
I0
sg19
Nsg20
Nsg21
F0.717
sg22
Nsg23
Nsg24
F-4.903
ssg25
I01
sba(iSong
Song
p1046
(dp1047
g3
(dp1048
g5
F0.0458
sg6
VHow Country Feels
p1049
sg8
F104.944
sg9
F0.847
sg10
S'country'
p1050
sg12
F0.0396
sg13
VRandy Houser
p1051
sg15
I9999
sg16
F0.677
sg17
Nsg18
I0
sg19
Nsg20
Nsg21
F0.806
sg22
Nsg23
Nsg24
F-3.608
ssg25
I01
sba(iSong
Song
p1052
(dp1053
g3
(dp1054
g5
F0.0352
sg6
VBackroad Song
p1055
sg8
F174.006
sg9
F0.833
sg10
S'country'
p1056
sg12
F0.0437
sg13
VGranger Smith
p1057
sg15
I9999
sg16
F0.488
sg17
Nsg18
F0.0172
sg19
Nsg20
Nsg21
F0.751
sg22
Nsg23
Nsg24
F-6.571
ssg25
I01
sba(iSong
Song
p1058
(dp1059
g3
(dp1060
g5
F0.129
sg6
VHouse Party
p1061
sg8
F103.952
sg9
F0.854
sg10
S'country'
p1062
sg12
F0.0503
sg13
VSam Hunt
p1063
sg15
I9999
sg16
F0.749
sg17
Nsg18
I0
sg19
Nsg20
Nsg21
F0.842
sg22
Nsg23
Nsg24
F-5.245
ssg25
I01
sba(iSong
Song
p1064
(dp1065
g3
(dp1066
g5
F0.00898
sg6
VWhat Ifs
p1067
sg8
F125.976
sg9
F0.799
sg10
S'country'
p1068
sg12
F0.0275
sg13
VKane Brown
p1069
sg15
I9999
sg16
F0.612
sg17
Nsg18
I0
sg19
Nsg20
Nsg21
F0.687
sg22
Nsg23
Nsg24
F-4.603
ssg25
I01
sba(iSong
Song
p1070
(dp1071
g3
(dp1072
g5
F0.0538
sg6
VTalladega
p1073
sg8
I144
sg9
F0.672
sg10
S'country'
p1074
sg12
F0.0294
sg13
VEric Church
p1075
sg15
I9999
sg16
F0.584
sg17
Nsg18
F0.0481
sg19
Nsg20
Nsg21
F0.556
sg22
Nsg23
Nsg24
F-8.309
ssg25
I01
sba(iSong
Song
p1076
(dp1077
g3
(dp1078
g5
F0.032
sg6
VUnforgettable
p1079
sg8
F130.02
sg9
F0.738
sg10
S'country'
p1080
sg12
F0.0303
sg13
VThomas Rhett
p1081
sg15
I9999
sg16
F0.663
sg17
Nsg18
F0.000225
sg19
Nsg20
Nsg21
F0.825
sg22
Nsg23
Nsg24
F-5.48
ssg25
I01
sba(iSong
Song
p1082
(dp1083
g3
(dp1084
g5
F0.0406
sg6
VMay We All
p1085
sg8
F75.019
sg9
F0.915
sg10
S'country'
p1086
sg12
F0.0389
sg13
VFlorida Georgia Line
p1087
sg15
I9999
sg16
F0.488
sg17
Nsg18
I0
sg19
Nsg20
Nsg21
F0.646
sg22
Nsg23
Nsg24
F-4.255
ssg25
I01
sba(iSong
Song
p1088
(dp1089
g3
(dp1090
g5
F0.00647
sg6
VYeah
p1091
sg8
F165.713
sg9
F0.843
sg10
S'country'
p1092
sg12
F0.0531
sg13
VJoe Nichols
p1093
sg15
I9999
sg16
F0.414
sg17
Nsg18
F1.52e-05
sg19
Nsg20
Nsg21
F0.572
sg22
Nsg23
Nsg24
F-4.638
ssg25
I01
sba(iSong
Song
p1094
(dp1095
g3
(dp1096
g5
F0.0127
sg6
VLove You Like That
p1097
sg8
F145.129
sg9
F0.756
sg10
S'country'
p1098
sg12
F0.0287
sg13
VCanaan Smith
p1099
sg15
I9999
sg16
F0.561
sg17
Nsg18
F8.34e-05
sg19
Nsg20
Nsg21
F0.702
sg22
Nsg23
Nsg24
F-5.056
ssg25
I01
sba(iSong
Song
p1100
(dp1101
g3
(dp1102
g5
F0.0886
sg6
VDrinking Class
p1103
sg8
F109.003
sg9
F0.53
sg10
S'country'
p1104
sg12
F0.0301
sg13
VLee Brice
p1105
sg15
I9999
sg16
F0.663
sg17
Nsg18
I0
sg19
Nsg20
Nsg21
F0.269
sg22
Nsg23
Nsg24
F-9.763
ssg25
I01
sba(iSong
Song
p1106
(dp1107
g3
(dp1108
g5
F0.0627
sg6
VGet Me Some Of That
p1109
sg8
F87.988
sg9
F0.86
sg10
S'country'
p1110
sg12
F0.0487
sg13
VThomas Rhett
p1111
sg15
I9999
sg16
F0.544
sg17
Nsg18
I0
sg19
Nsg20
Nsg21
F0.796
sg22
Nsg23
Nsg24
F-5.283
ssg25
I01
sba(iSong
Song
p1112
(dp1113
g3
(dp1114
g5
F0.0718
sg6
VBreak Up with Him
p1115
sg8
F152.086
sg9
F0.65
sg10
S'country'
p1116
sg12
F0.0347
sg13
VOld Dominion
p1117
sg15
I9999
sg16
F0.615
sg17
Nsg18
I0
sg19
Nsg20
Nsg21
F0.548
sg22
Nsg23
Nsg24
F-4.944
ssg25
I01
sba(iSong
Song
p1118
(dp1119
g3
(dp1120
g5
F0.0208
sg6
VThis Is How We Roll
p1121
sg8
F132.083
sg9
F0.933
sg10
S'country'
p1122
sg12
F0.0384
sg13
VFlorida Georgia Line
p1123
sg15
I9999
sg16
F0.56
sg17
Nsg18
I0
sg19
Nsg20
Nsg21
F0.72
sg22
Nsg23
Nsg24
F-2.969
ssg25
I01
sba(iSong
Song
p1124
(dp1125
g3
(dp1126
g5
F0.127
sg6
VSomebody Like You
p1127
sg8
F110.964
sg9
F0.887
sg10
S'country'
p1128
sg12
F0.0381
sg13
VKeith Urban
p1129
sg15
I9999
sg16
F0.646
sg17
Nsg18
F0.000259
sg19
Nsg20
Nsg21
F0.523
sg22
Nsg23
Nsg24
F-4.452
ssg25
I01
sba(iSong
Song
p1130
(dp1131
g3
(dp1132
g5
F0.432
sg6
VKnee Deep (feat. Jimmy Buffett)
p1133
sg8
F90.987
sg9
F0.584
sg10
S'country'
p1134
sg12
F0.0296
sg13
VZac Brown Band
p1135
sg15
I9999
sg16
F0.715
sg17
Nsg18
F1.41e-06
sg19
Nsg20
Nsg21
F0.61
sg22
Nsg23
Nsg24
F-8.231
ssg25
I01
sba(iSong
Song
p1136
(dp1137
g3
(dp1138
g5
F0.254
sg6
VLet Me See Ya Girl
p1139
sg8
F92.99
sg9
F0.834
sg10
S'country'
p1140
sg12
F0.0281
sg13
VCole Swindell
p1141
sg15
I9999
sg16
F0.523
sg17
Nsg18
I0
sg19
Nsg20
Nsg21
F0.445
sg22
Nsg23
Nsg24
F-3.561
ssg25
I01
sba(iSong
Song
p1142
(dp1143
g3
(dp1144
g5
F0.0371
sg6
VRunnin' Outta Moonlight
p1145
sg8
F172.05
sg9
F0.801
sg10
S'country'
p1146
sg12
F0.0393
sg13
VRandy Houser
p1147
sg15
I9999
sg16
F0.532
sg17
Nsg18
F7.07e-06
sg19
Nsg20
Nsg21
F0.799
sg22
Nsg23
Nsg24
F-3.759
ssg25
I01
sba(iSong
Song
p1148
(dp1149
g3
(dp1150
g5
F0.361
sg6
VH.O.L.Y.
p1151
sg8
F78.132
sg9
F0.661
sg10
S'country'
p1152
sg12
F0.0333
sg13
VFlorida Georgia Line
p1153
sg15
I9999
sg16
F0.526
sg17
Nsg18
I0
sg19
Nsg20
Nsg21
F0.556
sg22
Nsg23
Nsg24
F-3.828
ssg25
I01
sba(iSong
Song
p1154
(dp1155
g3
(dp1156
g5
F0.168
sg6
VMake You Miss Me
p1157
sg8
F146.026
sg9
F0.468
sg10
S'country'
p1158
sg12
F0.0314
sg13
VSam Hunt
p1159
sg15
I9999
sg16
F0.612
sg17
Nsg18
I0
sg19
Nsg20
Nsg21
F0.165
sg22
Nsg23
Nsg24
F-6.597
ssg25
I01
sba(iSong
Song
p1160
(dp1161
g3
(dp1162
g5
F0.0189
sg6
VHomegrown
p1163
sg8
F105.017
sg9
F0.796
sg10
S'country'
p1164
sg12
F0.0303
sg13
VZac Brown Band
p1165
sg15
I9999
sg16
F0.717
sg17
Nsg18
F8.94e-05
sg19
Nsg20
Nsg21
F0.942
sg22
Nsg23
Nsg24
F-3.677
ssg25
I01
sba(iSong
Song
p1166
(dp1167
g3
(dp1168
g5
F0.161
sg6
VThis Night Back
p1169
sg8
F160.167
sg9
F0.863
sg10
S'country'
p1170
sg12
F0.04
sg13
VCanaan Smith
p1171
sg15
I9999
sg16
F0.587
sg17
Nsg18
I0
sg19
Nsg20
Nsg21
F0.537
sg22
Nsg23
Nsg24
F-4.803
ssg25
I01
sba(iSong
Song
p1172
(dp1173
g3
(dp1174
g5
F0.247
sg6
VNight's On Fire
p1175
sg8
F164.029
sg9
F0.779
sg10
S'country'
p1176
sg12
F0.0432
sg13
VDavid Nail
p1177
sg15
I9999
sg16
F0.539
sg17
Nsg18
F2.71e-06
sg19
Nsg20
Nsg21
F0.705
sg22
Nsg23
Nsg24
F-4.139
ssg25
I01
sba(iSong
Song
p1178
(dp1179
g3
(dp1180
g5
F0.0408
sg6
VStay A Little Longer
p1181
sg8
F97.006
sg9
F0.882
sg10
S'country'
p1182
sg12
F0.0294
sg13
VBrothers Osborne
p1183
sg15
I9999
sg16
F0.553
sg17
Nsg18
F0.241
sg19
Nsg20
Nsg21
F0.529
sg22
Nsg23
Nsg24
F-5.515
ssg25
I01
sba(iSong
Song
p1184
(dp1185
g3
(dp1186
g5
F0.000907
sg6
VCraving You
p1187
sg8
F104.986
sg9
F0.841
sg10
S'country'
p1188
sg12
F0.0353
sg13
VThomas Rhett
p1189
sg15
I9999
sg16
F0.612
sg17
Nsg18
I0
sg19
Nsg20
Nsg21
F0.499
sg22
Nsg23
Nsg24
F-3.795
ssg25
I01
sba(iSong
Song
p1190
(dp1191
g3
(dp1192
g5
F0.0484
sg6
VDon't It
p1193
sg8
F90.966
sg9
F0.824
sg10
S'country'
p1194
sg12
F0.0373
sg13
VBilly Currington
p1195
sg15
I9999
sg16
F0.573
sg17
Nsg18
I0
sg19
Nsg20
Nsg21
F0.668
sg22
Nsg23
Nsg24
F-4.443
ssg25
I01
sba(iSong
Song
p1196
(dp1197
g3
(dp1198
g5
F0.463
sg6
VBody Like A Back Road
p1199
sg8
F98.963
sg9
F0.469
sg10
S'country'
p1200
sg12
F0.0326
sg13
VSam Hunt
p1201
sg15
I9999
sg16
F0.731
sg17
Nsg18
F1.04e-06
sg19
Nsg20
Nsg21
F0.631
sg22
Nsg23
Nsg24
F-7.226
ssg25
I01
sba(iSong
Song
p1202
(dp1203
g3
(dp1204
g5
F0.0697
sg6
VSomethin' 'Bout A Truck
p1205
sg8
F176.01
sg9
F0.794
sg10
S'country'
p1206
sg12
F0.035
sg13
VKip Moore
p1207
sg15
I9999
sg16
F0.554
sg17
Nsg18
I0
sg19
Nsg20
Nsg21
F0.79
sg22
Nsg23
Nsg24
F-5.417
ssg25
I01
sba(iSong
Song
p1208
(dp1209
g3
(dp1210
g5
F0.183
sg6
VTake A Back Road
p1211
sg8
F169.902
sg9
F0.856
sg10
S'country'
p1212
sg12
F0.0783
sg13
VRodney Atkins
p1213
sg15
I9999
sg16
F0.581
sg17
Nsg18
I0
sg19
Nsg20
Nsg21
F0.918
sg22
Nsg23
Nsg24
I-4
ssg25
I01
sba(iSong
Song
p1214
(dp1215
g3
(dp1216
g5
F0.0318
sg6
VT-Shirt
p1217
sg8
F95.996
sg9
F0.857
sg10
S'country'
p1218
sg12
F0.0397
sg13
VThomas Rhett
p1219
sg15
I9999
sg16
F0.647
sg17
Nsg18
I0
sg19
Nsg20
Nsg21
F0.771
sg22
Nsg23
Nsg24
F-5.381
ssg25
I01
sba(iSong
Song
p1220
(dp1221
g3
(dp1222
g5
F0.645
sg6
VChicken Fried
p1223
sg8
F169.864
sg9
F0.713
sg10
S'country'
p1224
sg12
F0.0417
sg13
VZac Brown Band
p1225
sg15
I9999
sg16
F0.566
sg17
Nsg18
I0
sg19
Nsg20
Nsg21
F0.807
sg22
Nsg23
Nsg24
F-4.25
ssg25
I01
sba(iSong
Song
p1226
(dp1227
g3
(dp1228
g5
F0.0996
sg6
VLeave The Night On
p1229
sg8
F171.971
sg9
F0.953
sg10
S'country'
p1230
sg12
F0.0624
sg13
VSam Hunt
p1231
sg15
I9999
sg16
F0.516
sg17
Nsg18
I0
sg19
Nsg20
Nsg21
F0.852
sg22
Nsg23
Nsg24
F-3.828
ssg25
I01
sba(iSong
Song
p1232
(dp1233
g3
(dp1234
g5
F0.0164
sg6
VI Love This Life
p1235
sg8
F112.03
sg9
F0.917
sg10
S'country'
p1236
sg12
F0.0541
sg13
VLOCASH
p1237
sg15
I9999
sg16
F0.592
sg17
Nsg18
F1.23e-06
sg19
Nsg20
Nsg21
F0.572
sg22
Nsg23
Nsg24
F-3.057
ssg25
I01
sba(iSong
Song
p1238
(dp1239
g3
(dp1240
g5
F0.013
sg6
VSleep Without You
p1241
sg8
F88.541
sg9
F0.716
sg10
S'country'
p1242
sg12
F0.0432
sg13
VBrett Young
p1243
sg15
I9999
sg16
F0.631
sg17
Nsg18
I0
sg19
Nsg20
Nsg21
F0.647
sg22
Nsg23
Nsg24
F-5.713
ssg25
I01
sba(iSong
Song
p1244
(dp1245
g3
(dp1246
g5
F0.119
sg6
VStar Of The Show
p1247
sg8
F102.001
sg9
F0.629
sg10
S'country'
p1248
sg12
F0.0275
sg13
VThomas Rhett
p1249
sg15
I9999
sg16
F0.691
sg17
Nsg18
I0
sg19
Nsg20
Nsg21
F0.606
sg22
Nsg23
Nsg24
F-5.828
ssg25
I01
sba(iSong
Song
p1250
(dp1251
g3
(dp1252
g5
F0.593
sg6
VWritten in the Sand
p1253
sg8
F83.985
sg9
F0.437
sg10
S'country'
p1254
sg12
F0.0575
sg13
VOld Dominion
p1255
sg15
I9999
sg16
F0.725
sg17
Nsg18
I0
sg19
Nsg20
Nsg21
F0.759
sg22
Nsg23
Nsg24
F-9.602
ssg25
I01
sba(iSong
Song
p1256
(dp1257
g3
(dp1258
g5
F0.168
sg6
VMake You Miss Me
p1259
sg8
F146.026
sg9
F0.468
sg10
S'country'
p1260
sg12
F0.0314
sg13
VSam Hunt
p1261
sg15
I9999
sg16
F0.612
sg17
Nsg18
I0
sg19
Nsg20
Nsg21
F0.165
sg22
Nsg23
Nsg24
F-6.597
ssg25
I01
sba(iSong
Song
p1262
(dp1263
g3
(dp1264
g5
F0.0282
sg6
VI'm Comin' Over
p1265
sg8
F127.997
sg9
F0.845
sg10
S'country'
p1266
sg12
F0.035
sg13
VChris Young
p1267
sg15
I9999
sg16
F0.575
sg17
Nsg18
I0
sg19
Nsg20
Nsg21
F0.376
sg22
Nsg23
Nsg24
F-3.838
ssg25
I01
sba(iSong
Song
p1268
(dp1269
g3
(dp1270
g5
F0.0244
sg6
VSmall Town Boy
p1271
sg8
F73.033
sg9
F0.747
sg10
S'country'
p1272
sg12
F0.0292
sg13
VDustin Lynch
p1273
sg15
I9999
sg16
F0.553
sg17
Nsg18
I0
sg19
Nsg20
Nsg21
F0.711
sg22
Nsg23
Nsg24
F-5.905
ssg25
I01
sba(iSong
Song
p1274
(dp1275
g3
(dp1276
g5
F0.186
sg6
VAin't Always Pretty
p1277
sg8
F160.052
sg9
F0.78
sg10
S'country'
p1278
sg12
F0.0459
sg13
VLogan Mize
p1279
sg15
I9999
sg16
F0.56
sg17
Nsg18
I0
sg19
Nsg20
Nsg21
F0.46
sg22
Nsg23
Nsg24
F-5.164
ssg25
I01
sba(iSong
Song
p1280
(dp1281
g3
(dp1282
g5
F0.047
sg6
VMeant to Be (feat. Florida Georgia Line)
p1283
sg8
F154.084
sg9
F0.783
sg10
S'country'
p1284
sg12
F0.0856
sg13
VBebe Rexha
p1285
sg15
I9999
sg16
F0.643
sg17
Nsg18
I0
sg19
Nsg20
Nsg21
F0.579
sg22
Nsg23
Nsg24
F-6.458
ssg25
I01
sba(iSong
Song
p1286
(dp1287
g3
(dp1288
g5
F0.0832
sg6
VPlay It Again
p1289
sg8
F144.056
sg9
F0.898
sg10
S'country'
p1290
sg12
F0.0696
sg13
VLuke Bryan
p1291
sg15
I9999
sg16
F0.51
sg17
Nsg18
I0
sg19
Nsg20
Nsg21
F0.596
sg22
Nsg23
Nsg24
F-3.15
ssg25
I01
sba(iSong
Song
p1292
(dp1293
g3
(dp1294
g5
F0.484
sg6
VBody Like A Back Road
p1295
sg8
F98.959
sg9
F0.466
sg10
S'country'
p1296
sg12
F0.0327
sg13
VSam Hunt
p1297
sg15
I9999
sg16
F0.731
sg17
Nsg18
F1.42e-06
sg19
Nsg20
Nsg21
F0.653
sg22
Nsg23
Nsg24
F-7.219
ssg25
I01
sba(iSong
Song
p1298
(dp1299
g3
(dp1300
g5
F0.349
sg6
VTake Back Home Girl (Feat. Tori Kelly)
p1301
sg8
F160.03
sg9
F0.798
sg10
S'country'
p1302
sg12
F0.0705
sg13
VChris Lane
p1303
sg15
I9999
sg16
F0.488
sg17
Nsg18
I0
sg19
Nsg20
Nsg21
F0.613
sg22
Nsg23
Nsg24
F-3.855
ssg25
I01
sba(iSong
Song
p1304
(dp1305
g3
(dp1306
g5
F0.0677
sg6
VLosing Sleep
p1307
sg8
F92.003
sg9
F0.628
sg10
S'country'
p1308
sg12
F0.0431
sg13
VChris Young
p1309
sg15
I9999
sg16
F0.587
sg17
Nsg18
F1.88e-06
sg19
Nsg20
Nsg21
F0.649
sg22
Nsg23
Nsg24
F-5.703
ssg25
I01
sba(iSong
Song
p1310
(dp1311
g3
(dp1312
g5
F0.00566
sg6
VClose
p1313
sg8
F80.018
sg9
F0.86
sg10
S'country'
p1314
sg12
F0.0347
sg13
VRyan Kinder
p1315
sg15
I9999
sg16
F0.479
sg17
Nsg18
I0
sg19
Nsg20
Nsg21
F0.743
sg22
Nsg23
Nsg24
F-4.318
ssg25
I01
sba(iSong
Song
p1316
(dp1317
g3
(dp1318
g5
F0.0119
sg6
VHard To Love
p1319
sg8
F103.017
sg9
F0.722
sg10
S'country'
p1320
sg12
F0.0332
sg13
VLee Brice
p1321
sg15
I9999
sg16
F0.638
sg17
Nsg18
F0.00808
sg19
Nsg20
Nsg21
F0.469
sg22
Nsg23
Nsg24
F-6.177
ssg25
I01
sba(iSong
Song
p1322
(dp1323
g3
(dp1324
g5
F0.214
sg6
VI Could Use a Love Song
p1325
sg8
F92.097
sg9
F0.634
sg10
S'country'
p1326
sg12
F0.0468
sg13
VMaren Morris
p1327
sg15
I9999
sg16
F0.638
sg17
Nsg18
I0
sg19
Nsg20
Nsg21
F0.473
sg22
Nsg23
Nsg24
F-6.474
ssg25
I01
sba(iSong
Song
p1328
(dp1329
g3
(dp1330
g5
F0.0353
sg6
VRoller Coaster
p1331
sg8
F108.007
sg9
F0.776
sg10
S'country'
p1332
sg12
F0.037
sg13
VLuke Bryan
p1333
sg15
I9999
sg16
F0.601
sg17
Nsg18
F4.23e-05
sg19
Nsg20
Nsg21
F0.269
sg22
Nsg23
Nsg24
F-4.452
ssg25
I01
sba(iSong
Song
p1334
(dp1335
g3
(dp1336
g5
F0.356
sg6
VFrom the Ground Up
p1337
sg8
F101.214
sg9
F0.586
sg10
S'country'
p1338
sg12
F0.0262
sg13
VDan + Shay
p1339
sg15
I9999
sg16
F0.524
sg17
Nsg18
I0
sg19
Nsg20
Nsg21
F0.285
sg22
Nsg23
Nsg24
F-5.431
ssg25
I01
sba(iSong
Song
p1340
(dp1341
g3
(dp1342
g5
F0.00481
sg6
VGod Gave Me You
p1343
sg8
F151.977
sg9
F0.844
sg10
S'country'
p1344
sg12
F0.0314
sg13
VBlake Shelton
p1345
sg15
I9999
sg16
F0.483
sg17
Nsg18
F7.29e-05
sg19
Nsg20
Nsg21
F0.543
sg22
Nsg23
Nsg24
F-5.043
ssg25
I01
sba(iSong
Song
p1346
(dp1347
g3
(dp1348
g5
F0.9
sg6
VI Met A Girl - Acoustic Mixtape
p1349
sg8
F86.967
sg9
F0.637
sg10
S'country'
p1350
sg12
F0.0515
sg13
VSam Hunt
p1351
sg15
I9999
sg16
F0.41
sg17
Nsg18
I0
sg19
Nsg20
Nsg21
F0.54
sg22
Nsg23
Nsg24
F-7.932
ssg25
I01
sba(iSong
Song
p1352
(dp1353
g3
(dp1354
g5
F0.0006
sg6
VCrazy Girl
p1355
sg8
F150.966
sg9
F0.708
sg10
S'country'
p1356
sg12
F0.0315
sg13
VEli Young Band
p1357
sg15
I9999
sg16
F0.358
sg17
Nsg18
F0.00498
sg19
Nsg20
Nsg21
F0.227
sg22
Nsg23
Nsg24
F-3.736
ssg25
I01
sba(iSong
Song
p1358
(dp1359
g3
(dp1360
g5
F0.000907
sg6
VCraving You
p1361
sg8
F104.986
sg9
F0.841
sg10
S'country'
p1362
sg12
F0.0353
sg13
VThomas Rhett
p1363
sg15
I9999
sg16
F0.612
sg17
Nsg18
I0
sg19
Nsg20
Nsg21
F0.499
sg22
Nsg23
Nsg24
F-3.795
ssg25
I01
sba(iSong
Song
p1364
(dp1365
g3
(dp1366
g5
F0.273
sg6
VHometown Girl
p1367
sg8
F156.004
sg9
F0.81
sg10
S'country'
p1368
sg12
F0.0317
sg13
VJosh Turner
p1369
sg15
I9999
sg16
F0.507
sg17
Nsg18
F0.0567
sg19
Nsg20
Nsg21
F0.498
sg22
Nsg23
Nsg24
F-5.628
ssg25
I01
sba(iSong
Song
p1370
(dp1371
g3
(dp1372
g5
F0.334
sg6
VGet to You
p1373
sg8
F167.938
sg9
F0.565
sg10
S'country'
p1374
sg12
F0.0326
sg13
VMichael Ray
p1375
sg15
I9999
sg16
F0.486
sg17
Nsg18
F0.00041
sg19
Nsg20
Nsg21
F0.21
sg22
Nsg23
Nsg24
F-5.655
ssg25
I01
sba(iSong
Song
p1376
(dp1377
g3
(dp1378
g5
F0.255
sg6
VSure Be Cool If You Did
p1379
sg8
F136.802
sg9
F0.726
sg10
S'country'
p1380
sg12
F0.035
sg13
VBlake Shelton
p1381
sg15
I9999
sg16
F0.576
sg17
Nsg18
I0
sg19
Nsg20
Nsg21
F0.582
sg22
Nsg23
Nsg24
F-4.625
ssg25
I01
sba(iSong
Song
p1382
(dp1383
g3
(dp1384
g5
F0.143
sg6
VKiss Somebody
p1385
sg8
F178.01
sg9
F0.681
sg10
S'country'
p1386
sg12
F0.075
sg13
VMorgan Evans
p1387
sg15
I9999
sg16
F0.492
sg17
Nsg18
I0
sg19
Nsg20
Nsg21
F0.511
sg22
Nsg23
Nsg24
F-7.038
ssg25
I01
sba(iSong
Song
p1388
(dp1389
g3
(dp1390
g5
F0.144
sg6
VAll On Me
p1391
sg8
F80.996
sg9
F0.658
sg10
S'country'
p1392
sg12
F0.0281
sg13
VDevin Dawson
p1393
sg15
I9999
sg16
F0.631
sg17
Nsg18
I0
sg19
Nsg20
Nsg21
F0.7
sg22
Nsg23
Nsg24
F-5.313
ssg25
I01
sba(iSong
Song
p1394
(dp1395
g3
(dp1396
g5
F0.000937
sg6
VThink of You
p1397
sg8
F111.959
sg9
F0.893
sg10
S'country'
p1398
sg12
F0.0375
sg13
VChris Young
p1399
sg15
I9999
sg16
F0.616
sg17
Nsg18
I0
sg19
Nsg20
Nsg21
F0.567
sg22
Nsg23
Nsg24
F-3.588
ssg25
I01
sba(iSong
Song
p1400
(dp1401
g3
(dp1402
g5
F0.126
sg6
VIt Goes Like This
p1403
sg8
F168.048
sg9
F0.84
sg10
S'country'
p1404
sg12
F0.0634
sg13
VThomas Rhett
p1405
sg15
I9999
sg16
F0.533
sg17
Nsg18
I0
sg19
Nsg20
Nsg21
F0.529
sg22
Nsg23
Nsg24
F-6.377
ssg25
I01
sba(iSong
Song
p1406
(dp1407
g3
(dp1408
g5
F0.361
sg6
VH.O.L.Y.
p1409
sg8
F78.132
sg9
F0.661
sg10
S'country'
p1410
sg12
F0.0333
sg13
VFlorida Georgia Line
p1411
sg15
I9999
sg16
F0.526
sg17
Nsg18
I0
sg19
Nsg20
Nsg21
F0.556
sg22
Nsg23
Nsg24
F-3.828
ssg25
I01
sba(iSong
Song
p1412
(dp1413
g3
(dp1414
g5
F0.414
sg6
VDrunk On Your Love
p1415
sg8
F182.064
sg9
F0.831
sg10
S'country'
p1416
sg12
F0.0616
sg13
VBrett Eldredge
p1417
sg15
I9999
sg16
F0.443
sg17
Nsg18
I0
sg19
Nsg20
Nsg21
F0.588
sg22
Nsg23
Nsg24
F-5.606
ssg25
I01
sba(iSong
Song
p1418
(dp1419
g3
(dp1420
g5
F0.672
sg6
VStill Fallin
p1421
sg8
F85.924
sg9
F0.387
sg10
S'country'
p1422
sg12
F0.0281
sg13
VHunter Hayes
p1423
sg15
I9999
sg16
F0.459
sg17
Nsg18
I0
sg19
Nsg20
Nsg21
F0.283
sg22
Nsg23
Nsg24
F-8.409
ssg25
I01
sba(iSong
Song
p1424
(dp1425
g3
(dp1426
g5
F0.38
sg6
VGreatest Love Story
p1427
sg8
F147.975
sg9
F0.621
sg10
S'country'
p1428
sg12
F0.0524
sg13
VLANCO
p1429
sg15
I9999
sg16
F0.665
sg17
Nsg18
I0
sg19
Nsg20
Nsg21
F0.632
sg22
Nsg23
Nsg24
F-8.571
ssg25
I01
sba(iSong
Song
p1430
(dp1431
g3
(dp1432
g5
F0.353
sg6
VWhole Lot in Love
p1433
sg8
F112.027
sg9
F0.715
sg10
S'country'
p1434
sg12
F0.0377
sg13
VAustin Burke
p1435
sg15
I9999
sg16
F0.791
sg17
Nsg18
I0
sg19
Nsg20
Nsg21
F0.593
sg22
Nsg23
Nsg24
F-5.809
ssg25
I01
sba(iSong
Song
p1436
(dp1437
g3
(dp1438
g5
F0.151
sg6
VNothin' Like You
p1439
sg8
F84.956
sg9
F0.704
sg10
S'country'
p1440
sg12
F0.0303
sg13
VDan + Shay
p1441
sg15
I9999
sg16
F0.589
sg17
Nsg18
I0
sg19
Nsg20
Nsg21
F0.437
sg22
Nsg23
Nsg24
F-4.772
ssg25
I01
sba(iSong
Song
p1442
(dp1443
g3
(dp1444
g5
F0.0356
sg6
VStay A Little Longer
p1445
sg8
F96.986
sg9
F0.879
sg10
S'country'
p1446
sg12
F0.0296
sg13
VBrothers Osborne
p1447
sg15
I9999
sg16
F0.556
sg17
Nsg18
F0.121
sg19
Nsg20
Nsg21
F0.54
sg22
Nsg23
Nsg24
F-5.301
ssg25
I01
sba(iSong
Song
p1448
(dp1449
g3
(dp1450
g5
F0.0441
sg6
VSingles You Up
p1451
sg8
F200.054
sg9
F0.9
sg10
S'country'
p1452
sg12
F0.0488
sg13
VJordan Davis
p1453
sg15
I9999
sg16
F0.489
sg17
Nsg18
I0
sg19
Nsg20
Nsg21
F0.611
sg22
Nsg23
Nsg24
F-3.563
ssg25
I01
sba(iSong
Song
p1454
(dp1455
g3
(dp1456
g5
F0.268
sg6
VWanted
p1457
sg8
F169.784
sg9
F0.476
sg10
S'country'
p1458
sg12
F0.0298
sg13
VHunter Hayes
p1459
sg15
I9999
sg16
F0.421
sg17
Nsg18
I0
sg19
Nsg20
Nsg21
F0.3
sg22
Nsg23
Nsg24
F-7.692
ssg25
I01
sba(iSong
Song
p1460
(dp1461
g3
(dp1462
g5
F0.115
sg6
VMean To Me
p1463
sg8
F87.994
sg9
F0.586
sg10
S'country'
p1464
sg12
F0.0313
sg13
VBrett Eldredge
p1465
sg15
I9999
sg16
F0.647
sg17
Nsg18
F1.69e-06
sg19
Nsg20
Nsg21
F0.165
sg22
Nsg23
Nsg24
F-6.883
ssg25
I01
sba(iSong
Song
p1466
(dp1467
g3
(dp1468
g5
F0.395
sg6
VDifferent For Girls
p1469
sg8
F92.007
sg9
F0.772
sg10
S'country'
p1470
sg12
F0.0358
sg13
VDierks Bentley
p1471
sg15
I9999
sg16
F0.659
sg17
Nsg18
F0.000443
sg19
Nsg20
Nsg21
F0.381
sg22
Nsg23
Nsg24
F-5.594
ssg25
I01
sba(iSong
Song
p1472
(dp1473
g3
(dp1474
g5
F0.032
sg6
VUnforgettable
p1475
sg8
F130.02
sg9
F0.738
sg10
S'country'
p1476
sg12
F0.0303
sg13
VThomas Rhett
p1477
sg15
I9999
sg16
F0.663
sg17
Nsg18
F0.000225
sg19
Nsg20
Nsg21
F0.825
sg22
Nsg23
Nsg24
F-5.48
ssg25
I01
sba(iSong
Song
p1478
(dp1479
g3
(dp1480
g5
F0.1
sg6
VCome Over
p1481
sg8
F176.043
sg9
F0.704
sg10
S'country'
p1482
sg12
F0.0353
sg13
VKenny Chesney
p1483
sg15
I9999
sg16
F0.466
sg17
Nsg18
F2.71e-05
sg19
Nsg20
Nsg21
F0.481
sg22
Nsg23
Nsg24
F-7.169
ssg25
I01
sba(iSong
Song
p1484
(dp1485
g3
(dp1486
g5
F0.606
sg6
VBlue Ain't Your Color
p1487
sg8
F82.407
sg9
F0.417
sg10
S'country'
p1488
sg12
F0.0363
sg13
VKeith Urban
p1489
sg15
I9999
sg16
F0.686
sg17
Nsg18
F1.79e-06
sg19
Nsg20
Nsg21
F0.451
sg22
Nsg23
Nsg24
F-7.787
ssg25
I01
sba(iSong
Song
p1490
(dp1491
g3
(dp1492
g5
F0.127
sg6
VYours
p1493
sg8
F134.047
sg9
F0.725
sg10
S'country'
p1494
sg12
F0.034
sg13
VRussell Dickerson
p1495
sg15
I9999
sg16
F0.551
sg17
Nsg18
I0
sg19
Nsg20
Nsg21
F0.575
sg22
Nsg23
Nsg24
F-6.005
ssg25
I01
sba(iSong
Song
p1496
(dp1497
g3
(dp1498
g5
F0.288
sg6
VI Like The Sound Of That
p1499
sg8
F89.967
sg9
F0.807
sg10
S'country'
p1500
sg12
F0.0373
sg13
VRascal Flatts
p1501
sg15
I9999
sg16
F0.609
sg17
Nsg18
I0
sg19
Nsg20
Nsg21
F0.534
sg22
Nsg23
Nsg24
F-5.603
ssg25
I01
sba(iSong
Song
p1502
(dp1503
g3
(dp1504
g5
F0.358
sg6
VIn Case You Didn't Know
p1505
sg8
F147.969
sg9
F0.542
sg10
S'country'
p1506
sg12
F0.0309
sg13
VBrett Young
p1507
sg15
I9999
sg16
F0.593
sg17
Nsg18
I0
sg19
Nsg20
Nsg21
F0.427
sg22
Nsg23
Nsg24
F-7.288
ssg25
I01
sba(iSong
Song
p1508
(dp1509
g3
(dp1510
g5
F0.381
sg6
VDie A Happy Man
p1511
sg8
F83.096
sg9
F0.383
sg10
S'country'
p1512
sg12
F0.0304
sg13
VThomas Rhett
p1513
sg15
I9999
sg16
F0.66
sg17
Nsg18
I0
sg19
Nsg20
Nsg21
F0.381
sg22
Nsg23
Nsg24
F-9.377
ssg25
I01
sba(iSong
Song
p1514
(dp1515
g3
(dp1516
g5
F0.46
sg6
VCan't Say No
p1517
sg8
F101.982
sg9
F0.43
sg10
S'country'
p1518
sg12
F0.0267
sg13
VDan + Shay
p1519
sg15
I9999
sg16
F0.742
sg17
Nsg18
I0
sg19
Nsg20
Nsg21
F0.679
sg22
Nsg23
Nsg24
F-11.373
ssg25
I01
sba(iSong
Song
p1520
(dp1521
g3
(dp1522
g5
F0.0159
sg6
VMan Enough Now
p1523
sg8
F156.107
sg9
F0.577
sg10
S'country'
p1524
sg12
F0.0331
sg13
VChris Bandi
p1525
sg15
I9999
sg16
F0.591
sg17
Nsg18
I0
sg19
Nsg20
Nsg21
F0.502
sg22
Nsg23
Nsg24
F-6.107
ssg25
I01
sba(iSong
Song
p1526
(dp1527
g3
(dp1528
g5
F0.331
sg6
VGod, Your Mama, And Me
p1529
sg8
F168.008
sg9
F0.797
sg10
S'country'
p1530
sg12
F0.0476
sg13
VFlorida Georgia Line
p1531
sg15
I9999
sg16
F0.445
sg17
Nsg18
I0
sg19
Nsg20
Nsg21
F0.691
sg22
Nsg23
Nsg24
F-3.662
ssg25
I01
sba(iSong
Song
p1532
(dp1533
g3
(dp1534
g5
F0.179
sg6
VLike I Loved You
p1535
sg8
F76.02
sg9
F0.573
sg10
S'country'
p1536
sg12
F0.0292
sg13
VBrett Young
p1537
sg15
I9999
sg16
F0.579
sg17
Nsg18
I0
sg19
Nsg20
Nsg21
F0.637
sg22
Nsg23
Nsg24
F-5.991
ssg25
I01
sba(iSong
Song
p1538
(dp1539
g3
(dp1540
g5
F0.0102
sg6
VYours If You Want It
p1541
sg8
F113.054
sg9
F0.91
sg10
S'country'
p1542
sg12
F0.0566
sg13
VRascal Flatts
p1543
sg15
I9999
sg16
F0.533
sg17
Nsg18
I0
sg19
Nsg20
Nsg21
F0.494
sg22
Nsg23
Nsg24
F-3.087
ssg25
I01
sba(iSong
Song
p1544
(dp1545
g3
(dp1546
g5
F0.167
sg6
VCop Car
p1547
sg8
F77.01
sg9
F0.585
sg10
S'country'
p1548
sg12
F0.0321
sg13
VSam Hunt
p1549
sg15
I9999
sg16
F0.606
sg17
Nsg18
I0
sg19
Nsg20
Nsg21
F0.177
sg22
Nsg23
Nsg24
F-6.47
ssg25
I01
sba(iSong
Song
p1550
(dp1551
g3
(dp1552
g5
F0.00865
sg6
VLove You Like That
p1553
sg8
F145.101
sg9
F0.738
sg10
S'country'
p1554
sg12
F0.0289
sg13
VCanaan Smith
p1555
sg15
I9999
sg16
F0.561
sg17
Nsg18
F9.55e-05
sg19
Nsg20
Nsg21
F0.725
sg22
Nsg23
Nsg24
F-5.05
ssg25
I01
sba(iSong
Song
p1556
(dp1557
g3
(dp1558
g5
F0.0452
sg6
VDon't It
p1559
sg8
F90.97
sg9
F0.805
sg10
S'country'
p1560
sg12
F0.0369
sg13
VBilly Currington
p1561
sg15
I9999
sg16
F0.577
sg17
Nsg18
I0
sg19
Nsg20
Nsg21
F0.708
sg22
Nsg23
Nsg24
F-5.293
ssg25
I01
sba(iSong
Song
p1562
(dp1563
g3
(dp1564
g5
F0.0707
sg6
VGonna Wanna Tonight
p1565
sg8
F125.948
sg9
F0.783
sg10
S'country'
p1566
sg12
F0.0405
sg13
VChase Rice
p1567
sg15
I9999
sg16
F0.581
sg17
Nsg18
F0.00014
sg19
Nsg20
Nsg21
F0.604
sg22
Nsg23
Nsg24
F-6.667
ssg25
I01
sba(iSong
Song
p1568
(dp1569
g3
(dp1570
g5
F0.144
sg6
VAll On Me
p1571
sg8
F80.996
sg9
F0.658
sg10
S'country'
p1572
sg12
F0.0281
sg13
VDevin Dawson
p1573
sg15
I9999
sg16
F0.631
sg17
Nsg18
I0
sg19
Nsg20
Nsg21
F0.7
sg22
Nsg23
Nsg24
F-5.313
ssg25
I01
sba(iSong
Song
p1574
(dp1575
g3
(dp1576
g5
F0.111
sg6
VIt Goes Like This
p1577
sg8
F167.957
sg9
F0.836
sg10
S'country'
p1578
sg12
F0.0627
sg13
VThomas Rhett
p1579
sg15
I9999
sg16
F0.54
sg17
Nsg18
I0
sg19
Nsg20
Nsg21
F0.55
sg22
Nsg23
Nsg24
F-5.914
ssg25
I01
sba(iSong
Song
p1580
(dp1581
g3
(dp1582
g5
F0.076
sg6
VHome Alone Tonight
p1583
sg8
F161.989
sg9
F0.968
sg10
S'country'
p1584
sg12
F0.113
sg13
VLuke Bryan
p1585
sg15
I9999
sg16
F0.498
sg17
Nsg18
I0
sg19
Nsg20
Nsg21
F0.491
sg22
Nsg23
Nsg24
F-1.18
ssg25
I01
sba(iSong
Song
p1586
(dp1587
g3
(dp1588
g5
F0.114
sg6
VWanna Be That Song
p1589
sg8
F144.065
sg9
F0.686
sg10
S'country'
p1590
sg12
F0.0313
sg13
VBrett Eldredge
p1591
sg15
I9999
sg16
F0.518
sg17
Nsg18
I0
sg19
Nsg20
Nsg21
F0.334
sg22
Nsg23
Nsg24
F-4.911
ssg25
I01
sba(iSong
Song
p1592
(dp1593
g3
(dp1594
g5
F0.0407
sg6
VMay We All
p1595
sg8
F75.016
sg9
F0.912
sg10
S'country'
p1596
sg12
F0.0393
sg13
VFlorida Georgia Line
p1597
sg15
I9999
sg16
F0.496
sg17
Nsg18
I0
sg19
Nsg20
Nsg21
F0.652
sg22
Nsg23
Nsg24
F-4.28
ssg25
I01
sba(iSong
Song
p1598
(dp1599
g3
(dp1600
g5
F0.0714
sg6
VGo Ahead and Break My Heart (feat. Gwen Stefani)
p1601
sg8
F116.008
sg9
F0.731
sg10
S'country'
p1602
sg12
F0.0321
sg13
VBlake Shelton
p1603
sg15
I9999
sg16
F0.618
sg17
Nsg18
F5.05e-05
sg19
Nsg20
Nsg21
F0.352
sg22
Nsg23
Nsg24
F-5.181
ssg25
I01
sba(iSong
Song
p1604
(dp1605
g3
(dp1606
g5
F0.0318
sg6
VT-Shirt
p1607
sg8
F95.996
sg9
F0.857
sg10
S'country'
p1608
sg12
F0.0397
sg13
VThomas Rhett
p1609
sg15
I9999
sg16
F0.647
sg17
Nsg18
I0
sg19
Nsg20
Nsg21
F0.771
sg22
Nsg23
Nsg24
F-5.381
ssg25
I01
sba(iSong
Song
p1610
(dp1611
g3
(dp1612
g5
F0.231
sg6
VYeah Boy
p1613
sg8
F88.965
sg9
F0.809
sg10
S'country'
p1614
sg12
F0.0376
sg13
VKelsea Ballerini
p1615
sg15
I9999
sg16
F0.589
sg17
Nsg18
I0
sg19
Nsg20
Nsg21
F0.496
sg22
Nsg23
Nsg24
F-5.292
ssg25
I01
sba(iSong
Song
p1616
(dp1617
g3
(dp1618
g5
F0.0325
sg6
VDrink to That All Night
p1619
sg8
F115.965
sg9
F0.846
sg10
S'country'
p1620
sg12
F0.0439
sg13
VJerrod Niemann
p1621
sg15
I9999
sg16
F0.639
sg17
Nsg18
I0
sg19
Nsg20
Nsg21
F0.475
sg22
Nsg23
Nsg24
F-6.184
ssg25
I01
sba(iSong
Song
p1622
(dp1623
g3
(dp1624
g5
F0.0832
sg6
VPlay It Again
p1625
sg8
F144.056
sg9
F0.898
sg10
S'country'
p1626
sg12
F0.0696
sg13
VLuke Bryan
p1627
sg15
I9999
sg16
F0.51
sg17
Nsg18
I0
sg19
Nsg20
Nsg21
F0.596
sg22
Nsg23
Nsg24
F-3.15
ssg25
I01
sba(iSong
Song
p1628
(dp1629
g3
(dp1630
g5
F0.32
sg6
VDirt Road Anthem
p1631
sg8
F127.04
sg9
F0.739
sg10
S'country'
p1632
sg12
F0.0352
sg13
VJason Aldean
p1633
sg15
I9999
sg16
F0.677
sg17
Nsg18
F2.36e-06
sg19
Nsg20
Nsg21
F0.658
sg22
Nsg23
Nsg24
F-5.068
ssg25
I01
sba(iSong
Song
p1634
(dp1635
g3
(dp1636
g5
F0.129
sg6
VStar Of The Show
p1637
sg8
F101.958
sg9
F0.626
sg10
S'country'
p1638
sg12
F0.0275
sg13
VThomas Rhett
p1639
sg15
I9999
sg16
F0.69
sg17
Nsg18
I0
sg19
Nsg20
Nsg21
F0.638
sg22
Nsg23
Nsg24
F-5.831
ssg25
I01
sba(iSong
Song
p1640
(dp1641
g3
(dp1642
g5
F0.014
sg6
VParachute
p1643
sg8
F113.033
sg9
F0.749
sg10
S'country'
p1644
sg12
F0.0297
sg13
VChris Stapleton
p1645
sg15
I9999
sg16
F0.639
sg17
Nsg18
F3.52e-05
sg19
Nsg20
Nsg21
F0.648
sg22
Nsg23
Nsg24
F-7.327
ssg25
I01
sba(iSong
Song
p1646
(dp1647
g3
(dp1648
g5
F0.0165
sg6
VHurricane
p1649
sg8
F151.928
sg9
F0.804
sg10
S'country'
p1650
sg12
F0.0406
sg13
VLuke Combs
p1651
sg15
I9999
sg16
F0.443
sg17
Nsg18
F2.89e-06
sg19
Nsg20
Nsg21
F0.438
sg22
Nsg23
Nsg24
F-6.432
ssg25
I01
sba(iSong
Song
p1652
(dp1653
g3
(dp1654
g5
F0.141
sg6
VHuntin', Fishin' And Lovin' Every Day
p1655
sg8
F154.156
sg9
F0.809
sg10
S'country'
p1656
sg12
F0.0335
sg13
VLuke Bryan
p1657
sg15
I9999
sg16
F0.512
sg17
Nsg18
F2.31e-05
sg19
Nsg20
Nsg21
F0.432
sg22
Nsg23
Nsg24
F-4.237
ssg25
I01
sba(iSong
Song
p1658
(dp1659
g3
(dp1660
g5
F0.463
sg6
VBody Like A Back Road
p1661
sg8
F98.963
sg9
F0.469
sg10
S'country'
p1662
sg12
F0.0326
sg13
VSam Hunt
p1663
sg15
I9999
sg16
F0.731
sg17
Nsg18
F1.04e-06
sg19
Nsg20
Nsg21
F0.631
sg22
Nsg23
Nsg24
F-7.226
ssg25
I01
sba(iSong
Song
p1664
(dp1665
g3
(dp1666
g5
F0.00898
sg6
VBeat Of The Music
p1667
sg8
F110.001
sg9
F0.808
sg10
S'country'
p1668
sg12
F0.0269
sg13
VBrett Eldredge
p1669
sg15
I9999
sg16
F0.629
sg17
Nsg18
F9.06e-06
sg19
Nsg20
Nsg21
F0.773
sg22
Nsg23
Nsg24
F-4.125
ssg25
I01
sba(iSong
Song
p1670
(dp1671
g3
(dp1672
g5
F0.0677
sg6
VBaby Be My Love Song
p1673
sg8
F168.05
sg9
F0.709
sg10
S'country'
p1674
sg12
F0.046
sg13
VEaston Corbin
p1675
sg15
I9999
sg16
F0.488
sg17
Nsg18
I0
sg19
Nsg20
Nsg21
F0.469
sg22
Nsg23
Nsg24
F-6.063
ssg25
I01
sba(iSong
Song
p1676
(dp1677
g3
(dp1678
g5
F0.0681
sg6
VMake Me Wanna
p1679
sg8
F108.974
sg9
F0.795
sg10
S'country'
p1680
sg12
F0.042
sg13
VThomas Rhett
p1681
sg15
I9999
sg16
F0.533
sg17
Nsg18
F4.38e-06
sg19
Nsg20
Nsg21
F0.572
sg22
Nsg23
Nsg24
F-5.121
ssg25
I01
sba(iSong
Song
p1682
(dp1683
g3
(dp1684
g5
F0.00647
sg6
VYeah
p1685
sg8
F165.713
sg9
F0.843
sg10
S'country'
p1686
sg12
F0.0531
sg13
VJoe Nichols
p1687
sg15
I9999
sg16
F0.414
sg17
Nsg18
F1.52e-05
sg19
Nsg20
Nsg21
F0.572
sg22
Nsg23
Nsg24
F-4.638
ssg25
I01
sba(iSong
Song
p1688
(dp1689
g3
(dp1690
g5
F0.445
sg6
VDifferent For Girls
p1691
sg8
F91.975
sg9
F0.785
sg10
S'country'
p1692
sg12
F0.0369
sg13
VDierks Bentley
p1693
sg15
I9999
sg16
F0.661
sg17
Nsg18
F0.000266
sg19
Nsg20
Nsg21
F0.371
sg22
Nsg23
Nsg24
F-5.623
ssg25
I01
sba(iSong
Song
p1694
(dp1695
g3
(dp1696
g5
F0.00172
sg6
VAnything Goes
p1697
sg8
F154.038
sg9
F0.977
sg10
S'country'
p1698
sg12
F0.045
sg13
VFlorida Georgia Line
p1699
sg15
I9999
sg16
F0.462
sg17
Nsg18
I0
sg19
Nsg20
Nsg21
F0.746
sg22
Nsg23
Nsg24
F-3.805
ssg25
I01
sba(iSong
Song
p1700
(dp1701
g3
(dp1702
g5
F0.438
sg6
VNowhere Fast
p1703
sg8
F101.981
sg9
F0.517
sg10
S'country'
p1704
sg12
F0.0297
sg13
VOld Dominion
p1705
sg15
I9999
sg16
F0.783
sg17
Nsg18
F3.1e-06
sg19
Nsg20
Nsg21
F0.495
sg22
Nsg23
Nsg24
F-7.316
ssg25
I01
sba(iSong
Song
p1706
(dp1707
g3
(dp1708
g5
F0.0251
sg6
VHighway Don't Care
p1709
sg8
F78.905
sg9
F0.783
sg10
S'country'
p1710
sg12
F0.0444
sg13
VTim McGraw
p1711
sg15
I9999
sg16
F0.381
sg17
Nsg18
I0
sg19
Nsg20
Nsg21
F0.487
sg22
Nsg23
Nsg24
F-5.287
ssg25
I01
sba(iSong
Song
p1712
(dp1713
g3
(dp1714
g5
F0.0996
sg6
VLeave The Night On
p1715
sg8
F171.971
sg9
F0.953
sg10
S'country'
p1716
sg12
F0.0624
sg13
VSam Hunt
p1717
sg15
I9999
sg16
F0.516
sg17
Nsg18
I0
sg19
Nsg20
Nsg21
F0.852
sg22
Nsg23
Nsg24
F-3.828
ssg25
I01
sba(iSong
Song
p1718
(dp1719
g3
(dp1720
g5
F0.00786
sg6
VReady Set Roll
p1721
sg8
F156.038
sg9
F0.822
sg10
S'country'
p1722
sg12
F0.0582
sg13
VChase Rice
p1723
sg15
I9999
sg16
F0.556
sg17
Nsg18
I0
sg19
Nsg20
Nsg21
F0.797
sg22
Nsg23
Nsg24
F-4.365
ssg25
I01
sba(iSong
Song
p1724
(dp1725
g3
(dp1726
g5
F0.0275
sg6
VI Don't Want This Night to End
p1727
sg8
F111.934
sg9
F0.728
sg10
S'country'
p1728
sg12
F0.0278
sg13
VLuke Bryan
p1729
sg15
I9999
sg16
F0.616
sg17
Nsg18
I0
sg19
Nsg20
Nsg21
F0.375
sg22
Nsg23
Nsg24
F-4.02
ssg25
I01
sba(iSong
Song
p1730
(dp1731
g3
(dp1732
g5
F0.312
sg6
VAny Ol' Barstool
p1733
sg8
F143.78
sg9
F0.722
sg10
S'country'
p1734
sg12
F0.0284
sg13
VJason Aldean
p1735
sg15
I9999
sg16
F0.536
sg17
Nsg18
I0
sg19
Nsg20
Nsg21
F0.499
sg22
Nsg23
Nsg24
F-4.163
ssg25
I01
sba(iSong
Song
p1736
(dp1737
g3
(dp1738
g5
F0.00106
sg6
VSingle For The Summer
p1739
sg8
F155.877
sg9
F0.856
sg10
S'country'
p1740
sg12
F0.0465
sg13
VSam Hunt
p1741
sg15
I9999
sg16
F0.553
sg17
Nsg18
I0
sg19
Nsg20
Nsg21
F0.475
sg22
Nsg23
Nsg24
F-6.316
ssg25
I01
sba(iSong
Song
p1742
(dp1743
g3
(dp1744
g5
F0.0919
sg6
VHead Over Boots
p1745
sg8
F108.078
sg9
F0.669
sg10
S'country'
p1746
sg12
F0.0237
sg13
VJon Pardi
p1747
sg15
I9999
sg16
F0.637
sg17
Nsg18
I0
sg19
Nsg20
Nsg21
F0.638
sg22
Nsg23
Nsg24
F-4.608
ssg25
I01
sba(iSong
Song
p1748
(dp1749
g3
(dp1750
g5
F0.0632
sg6
VDirt
p1751
sg8
F121.959
sg9
F0.875
sg10
S'country'
p1752
sg12
F0.0464
sg13
VFlorida Georgia Line
p1753
sg15
I9999
sg16
F0.545
sg17
Nsg18
F1.17e-05
sg19
Nsg20
Nsg21
F0.605
sg22
Nsg23
Nsg24
F-4.174
ssg25
I01
sba(iSong
Song
p1754
(dp1755
g3
(dp1756
g5
F0.1
sg6
VSpringsteen
p1757
sg8
F104.023
sg9
F0.809
sg10
S'country'
p1758
sg12
F0.0255
sg13
VEric Church
p1759
sg15
I9999
sg16
F0.692
sg17
Nsg18
F9.77e-05
sg19
Nsg20
Nsg21
F0.927
sg22
Nsg23
Nsg24
F-5.935
ssg25
I01
sba(iSong
Song
p1760
(dp1761
g3
(dp1762
g5
F0.000907
sg6
VCraving You
p1763
sg8
F104.986
sg9
F0.841
sg10
S'country'
p1764
sg12
F0.0353
sg13
VThomas Rhett
p1765
sg15
I9999
sg16
F0.612
sg17
Nsg18
I0
sg19
Nsg20
Nsg21
F0.499
sg22
Nsg23
Nsg24
F-3.795
ssg25
I01
sba(iSong
Song
p1766
(dp1767
g3
(dp1768
g5
F0.129
sg6
VHouse Party
p1769
sg8
F103.952
sg9
F0.854
sg10
S'country'
p1770
sg12
F0.0503
sg13
VSam Hunt
p1771
sg15
I9999
sg16
F0.749
sg17
Nsg18
I0
sg19
Nsg20
Nsg21
F0.842
sg22
Nsg23
Nsg24
F-5.245
ssg25
I01
sba(iSong
Song
p1772
(dp1773
g3
(dp1774
g5
F0.606
sg6
VBlue Ain't Your Color
p1775
sg8
F82.407
sg9
F0.417
sg10
S'country'
p1776
sg12
F0.0363
sg13
VKeith Urban
p1777
sg15
I9999
sg16
F0.686
sg17
Nsg18
F1.79e-06
sg19
Nsg20
Nsg21
F0.451
sg22
Nsg23
Nsg24
F-7.787
ssg25
I01
sba(iSong
Song
p1778
(dp1779
g3
(dp1780
g5
F0.0269
sg6
VCarolina Can
p1781
sg8
F157.981
sg9
F0.642
sg10
S'country'
p1782
sg12
F0.0302
sg13
VChase Rice
p1783
sg15
I9999
sg16
F0.479
sg17
Nsg18
I0
sg19
Nsg20
Nsg21
F0.372
sg22
Nsg23
Nsg24
F-5.727
ssg25
I01
sba(iSong
Song
p1784
(dp1785
g3
(dp1786
g5
F0.0408
sg6
VStay A Little Longer
p1787
sg8
F97.006
sg9
F0.882
sg10
S'country'
p1788
sg12
F0.0294
sg13
VBrothers Osborne
p1789
sg15
I9999
sg16
F0.553
sg17
Nsg18
F0.241
sg19
Nsg20
Nsg21
F0.529
sg22
Nsg23
Nsg24
F-5.515
ssg25
I01
sba(iSong
Song
p1790
(dp1791
g3
(dp1792
g5
F0.381
sg6
VDie A Happy Man
p1793
sg8
F83.096
sg9
F0.383
sg10
S'country'
p1794
sg12
F0.0304
sg13
VThomas Rhett
p1795
sg15
I9999
sg16
F0.66
sg17
Nsg18
I0
sg19
Nsg20
Nsg21
F0.381
sg22
Nsg23
Nsg24
F-9.377
ssg25
I01
sba(iSong
Song
p1796
(dp1797
g3
(dp1798
g5
F0.168
sg6
VMake You Miss Me
p1799
sg8
F146.026
sg9
F0.468
sg10
S'country'
p1800
sg12
F0.0314
sg13
VSam Hunt
p1801
sg15
I9999
sg16
F0.612
sg17
Nsg18
I0
sg19
Nsg20
Nsg21
F0.165
sg22
Nsg23
Nsg24
F-6.597
ssg25
I01
sba(iSong
Song
p1802
(dp1803
g3
(dp1804
g5
F0.0319
sg6
VI'm Comin' Over
p1805
sg8
F127.992
sg9
F0.85
sg10
S'country'
p1806
sg12
F0.0361
sg13
VChris Young
p1807
sg15
I9999
sg16
F0.573
sg17
Nsg18
I0
sg19
Nsg20
Nsg21
F0.347
sg22
Nsg23
Nsg24
F-3.816
ssg25
I01
sba(iSong
Song
p1808
(dp1809
g3
(dp1810
g5
F0.00566
sg6
VClose
p1811
sg8
F80.018
sg9
F0.86
sg10
S'country'
p1812
sg12
F0.0347
sg13
VRyan Kinder
p1813
sg15
I9999
sg16
F0.479
sg17
Nsg18
I0
sg19
Nsg20
Nsg21
F0.743
sg22
Nsg23
Nsg24
F-4.318
ssg25
I01
sba(iSong
Song
p1814
(dp1815
g3
(dp1816
g5
F0.0458
sg6
VHow Country Feels
p1817
sg8
F104.944
sg9
F0.847
sg10
S'country'
p1818
sg12
F0.0396
sg13
VRandy Houser
p1819
sg15
I9999
sg16
F0.677
sg17
Nsg18
I0
sg19
Nsg20
Nsg21
F0.806
sg22
Nsg23
Nsg24
F-3.608
ssg25
I01
sba(iSong
Song
p1820
(dp1821
g3
(dp1822
g5
F0.361
sg6
VH.O.L.Y.
p1823
sg8
F78.132
sg9
F0.661
sg10
S'country'
p1824
sg12
F0.0333
sg13
VFlorida Georgia Line
p1825
sg15
I9999
sg16
F0.526
sg17
Nsg18
I0
sg19
Nsg20
Nsg21
F0.556
sg22
Nsg23
Nsg24
F-3.828
ssg25
I01
sba(iSong
Song
p1826
(dp1827
g3
(dp1828
g5
F0.0811
sg6
VSomethin' 'Bout A Truck
p1829
sg8
F175.986
sg9
F0.808
sg10
S'country'
p1830
sg12
F0.0366
sg13
VKip Moore
p1831
sg15
I9999
sg16
F0.555
sg17
Nsg18
I0
sg19
Nsg20
Nsg21
F0.816
sg22
Nsg23
Nsg24
F-5.365
ssg25
I01
sba(iSong
Song
p1832
(dp1833
g3
(dp1834
g5
F0.12
sg6
VYours
p1835
sg8
F133.975
sg9
F0.796
sg10
S'country'
p1836
sg12
F0.0313
sg13
VRussell Dickerson
p1837
sg15
I9999
sg16
F0.568
sg17
Nsg18
I0
sg19
Nsg20
Nsg21
F0.573
sg22
Nsg23
Nsg24
F-5.308
ssg25
I01
sba(iSong
Song
p1838
(dp1839
g3
(dp1840
g5
F0.00898
sg6
VWhat Ifs
p1841
sg8
F125.976
sg9
F0.799
sg10
S'country'
p1842
sg12
F0.0275
sg13
VKane Brown
p1843
sg15
I9999
sg16
F0.612
sg17
Nsg18
I0
sg19
Nsg20
Nsg21
F0.687
sg22
Nsg23
Nsg24
F-4.603
ssg25
I01
sba(iSong
Song
p1844
(dp1845
g3
(dp1846
g5
F0.0371
sg6
VRunnin' Outta Moonlight
p1847
sg8
F172.05
sg9
F0.801
sg10
S'country'
p1848
sg12
F0.0393
sg13
VRandy Houser
p1849
sg15
I9999
sg16
F0.532
sg17
Nsg18
F7.07e-06
sg19
Nsg20
Nsg21
F0.799
sg22
Nsg23
Nsg24
F-3.759
ssg25
I01
sba(iSong
Song
p1850
(dp1851
g3
(dp1852
g5
F0.0174
sg6
VMy Kinda Party
p1853
sg8
F176.926
sg9
F0.902
sg10
S'country'
p1854
sg12
F0.0669
sg13
VJason Aldean
p1855
sg15
I9999
sg16
F0.414
sg17
Nsg18
F7.52e-06
sg19
Nsg20
Nsg21
F0.532
sg22
Nsg23
Nsg24
F-4.256
ssg25
I01
sba(iSong
Song
p1856
(dp1857
g3
(dp1858
g5
F0.00472
sg6
VHell Of A Night
p1859
sg8
F85.054
sg9
F0.797
sg10
S'country'
p1860
sg12
F0.0402
sg13
VDustin Lynch
p1861
sg15
I9999
sg16
F0.499
sg17
Nsg18
I0
sg19
Nsg20
Nsg21
F0.591
sg22
Nsg23
Nsg24
F-4.845
ssg25
I01
sba(iSong
Song
p1862
(dp1863
g3
(dp1864
g5
F0.0538
sg6
VTalladega
p1865
sg8
I144
sg9
F0.672
sg10
S'country'
p1866
sg12
F0.0294
sg13
VEric Church
p1867
sg15
I9999
sg16
F0.584
sg17
Nsg18
F0.0481
sg19
Nsg20
Nsg21
F0.556
sg22
Nsg23
Nsg24
F-8.309
ssg25
I01
sba(iSong
Song
p1868
(dp1869
g3
(dp1870
g5
F0.645
sg6
VChicken Fried
p1871
sg8
F169.864
sg9
F0.713
sg10
S'country'
p1872
sg12
F0.0417
sg13
VZac Brown Band
p1873
sg15
I9999
sg16
F0.566
sg17
Nsg18
I0
sg19
Nsg20
Nsg21
F0.807
sg22
Nsg23
Nsg24
F-4.25
ssg25
I01
sba(iSong
Song
p1874
(dp1875
g3
(dp1876
g5
F0.18
sg6
VKick The Dust Up
p1877
sg8
F172.108
sg9
F0.858
sg10
S'country'
p1878
sg12
F0.0493
sg13
VLuke Bryan
p1879
sg15
I9999
sg16
F0.596
sg17
Nsg18
I0
sg19
Nsg20
Nsg21
F0.819
sg22
Nsg23
Nsg24
F-2.377
ssg25
I01
sba(iSong
Song
p1880
(dp1881
g3
(dp1882
g5
F0.302
sg6
VSpeakers, Bleachers And Preachers
p1883
sg8
F96.02
sg9
F0.625
sg10
S'country'
p1884
sg12
F0.0258
sg13
VBrandon Lay
p1885
sg15
I9999
sg16
F0.603
sg17
Nsg18
I0
sg19
Nsg20
Nsg21
F0.651
sg22
Nsg23
Nsg24
F-6.563
ssg25
I01
sba(iSong
Song
p1886
(dp1887
g3
(dp1888
g5
F0.221
sg6
VShe's Country
p1889
sg8
F172.196
sg9
F0.872
sg10
S'country'
p1890
sg12
F0.0897
sg13
VJason Aldean
p1891
sg15
I9999
sg16
F0.554
sg17
Nsg18
I0
sg19
Nsg20
Nsg21
F0.657
sg22
Nsg23
Nsg24
F-2.849
ssg25
I01
sba(iSong
Song
p1892
(dp1893
g3
(dp1894
g5
F0.0661
sg6
VHead Over Boots
p1895
sg8
F108.016
sg9
F0.676
sg10
S'country'
p1896
sg12
F0.027
sg13
VJon Pardi
p1897
sg15
I9999
sg16
F0.557
sg17
Nsg18
I0
sg19
Nsg20
Nsg21
F0.678
sg22
Nsg23
Nsg24
F-4.457
ssg25
I01
sba(iSong
Song
p1898
(dp1899
g3
(dp1900
g5
F0.0244
sg6
VSmall Town Boy
p1901
sg8
F73.033
sg9
F0.747
sg10
S'country'
p1902
sg12
F0.0292
sg13
VDustin Lynch
p1903
sg15
I9999
sg16
F0.553
sg17
Nsg18
I0
sg19
Nsg20
Nsg21
F0.711
sg22
Nsg23
Nsg24
F-5.905
ssg25
I01
sba(iSong
Song
p1904
(dp1905
g3
(dp1906
g5
F0.0105
sg6
VHow 'Bout You
p1907
sg8
F120.044
sg9
F0.878
sg10
S'country'
p1908
sg12
F0.0382
sg13
VEric Church
p1909
sg15
I9999
sg16
F0.547
sg17
Nsg18
F1.91e-05
sg19
Nsg20
Nsg21
F0.767
sg22
Nsg23
Nsg24
F-7.19
ssg25
I01
sba(iSong
Song
p1910
(dp1911
g3
(dp1912
g5
F0.129
sg6
VLight It Up
p1913
sg8
F130.029
sg9
F0.935
sg10
S'country'
p1914
sg12
F0.0855
sg13
VLuke Bryan
p1915
sg15
I9999
sg16
F0.596
sg17
Nsg18
I0
sg19
Nsg20
Nsg21
F0.678
sg22
Nsg23
Nsg24
F-2.794
ssg25
I01
sba(iSong
Song
p1916
(dp1917
g3
(dp1918
g5
F0.032
sg6
VUnforgettable
p1919
sg8
F130.02
sg9
F0.738
sg10
S'country'
p1920
sg12
F0.0303
sg13
VThomas Rhett
p1921
sg15
I9999
sg16
F0.663
sg17
Nsg18
F0.000225
sg19
Nsg20
Nsg21
F0.825
sg22
Nsg23
Nsg24
F-5.48
ssg25
I01
sba(iSong
Song
p1922
(dp1923
g3
(dp1924
g5
F0.00734
sg6
VHicktown
p1925
sg8
F121.543
sg9
F0.878
sg10
S'country'
p1926
sg12
F0.0351
sg13
VJason Aldean
p1927
sg15
I9999
sg16
F0.697
sg17
Nsg18
F7.98e-06
sg19
Nsg20
Nsg21
F0.802
sg22
Nsg23
Nsg24
F-3.779
ssg25
I01
sba(iSong
Song
p1928
(dp1929
g3
(dp1930
g5
F0.00646
sg6
VParking Lot Party
p1931
sg8
F171.72
sg9
F0.86
sg10
S'country'
p1932
sg12
F0.081
sg13
VLee Brice
p1933
sg15
I9999
sg16
F0.54
sg17
Nsg18
I0
sg19
Nsg20
Nsg21
F0.856
sg22
Nsg23
Nsg24
F-5.763
ssg25
I01
sba(iSong
Song
p1934
(dp1935
g3
(dp1936
g5
F0.0458
sg6
VHow Country Feels
p1937
sg8
F104.944
sg9
F0.847
sg10
S'country'
p1938
sg12
F0.0396
sg13
VRandy Houser
p1939
sg15
I9999
sg16
F0.677
sg17
Nsg18
I0
sg19
Nsg20
Nsg21
F0.806
sg22
Nsg23
Nsg24
F-3.608
ssg25
I01
sba(iSong
Song
p1940
(dp1941
g3
(dp1942
g5
F0.00635
sg6
VDrink In My Hand
p1943
sg8
F113.044
sg9
F0.913
sg10
S'country'
p1944
sg12
F0.0318
sg13
VEric Church
p1945
sg15
I9999
sg16
F0.626
sg17
Nsg18
I0
sg19
Nsg20
Nsg21
F0.946
sg22
Nsg23
Nsg24
F-4.452
ssg25
I01
sba(iSong
Song
p1946
(dp1947
g3
(dp1948
g5
F0.118
sg6
VLeave The Night On
p1949
sg8
F172.028
sg9
F0.957
sg10
S'country'
p1950
sg12
F0.053
sg13
VSam Hunt
p1951
sg15
I9999
sg16
F0.509
sg17
Nsg18
I0
sg19
Nsg20
Nsg21
F0.859
sg22
Nsg23
Nsg24
F-3.772
ssg25
I01
sba(iSong
Song
p1952
(dp1953
g3
(dp1954
g5
F0.275
sg6
VAs Good As I Once Was
p1955
sg8
F119.013
sg9
F0.842
sg10
S'country'
p1956
sg12
F0.0376
sg13
VToby Keith
p1957
sg15
I9999
sg16
F0.679
sg17
Nsg18
I0
sg19
Nsg20
Nsg21
F0.72
sg22
Nsg23
Nsg24
F-4.364
ssg25
I01
sba(iSong
Song
p1958
(dp1959
g3
(dp1960
g5
F0.034
sg6
VBeer Can in a Truck Bed
p1961
sg8
F92.003
sg9
F0.875
sg10
S'country'
p1962
sg12
F0.0488
sg13
VOld Dominion
p1963
sg15
I9999
sg16
F0.66
sg17
Nsg18
I0
sg19
Nsg20
Nsg21
F0.767
sg22
Nsg23
Nsg24
F-5.792
ssg25
I01
sba(iSong
Song
p1964
(dp1965
g3
(dp1966
g5
F0.0617
sg6
VHeartache On The Dance Floor
p1967
sg8
F116.005
sg9
F0.824
sg10
S'country'
p1968
sg12
F0.0458
sg13
VJon Pardi
p1969
sg15
I9999
sg16
F0.594
sg17
Nsg18
I0
sg19
Nsg20
Nsg21
F0.671
sg22
Nsg23
Nsg24
F-4.252
ssg25
I01
sba(iSong
Song
p1970
(dp1971
g3
(dp1972
g5
F0.0639
sg6
VAw Naw
p1973
sg8
F109.971
sg9
F0.859
sg10
S'country'
p1974
sg12
F0.0358
sg13
VChris Young
p1975
sg15
I9999
sg16
F0.652
sg17
Nsg18
I0
sg19
Nsg20
Nsg21
F0.491
sg22
Nsg23
Nsg24
F-3.746
ssg25
I01
sba(iSong
Song
p1976
(dp1977
g3
(dp1978
g5
F0.1
sg6
VSpringsteen
p1979
sg8
F104.023
sg9
F0.809
sg10
S'country'
p1980
sg12
F0.0255
sg13
VEric Church
p1981
sg15
I9999
sg16
F0.692
sg17
Nsg18
F9.77e-05
sg19
Nsg20
Nsg21
F0.927
sg22
Nsg23
Nsg24
F-5.935
ssg25
I01
sba(iSong
Song
p1982
(dp1983
g3
(dp1984
g5
F0.463
sg6
VBody Like A Back Road
p1985
sg8
F98.963
sg9
F0.469
sg10
S'country'
p1986
sg12
F0.0326
sg13
VSam Hunt
p1987
sg15
I9999
sg16
F0.731
sg17
Nsg18
F1.04e-06
sg19
Nsg20
Nsg21
F0.631
sg22
Nsg23
Nsg24
F-7.226
ssg25
I01
sba(iSong
Song
p1988
(dp1989
g3
(dp1990
g5
F0.246
sg6
VIt's A Great Day To Be Alive
p1991
sg8
F128.93
sg9
F0.653
sg10
S'country'
p1992
sg12
F0.0265
sg13
VTravis Tritt
p1993
sg15
I9999
sg16
F0.595
sg17
Nsg18
I0
sg19
Nsg20
Nsg21
F0.542
sg22
Nsg23
Nsg24
F-4.935
ssg25
I01
sba(iSong
Song
p1994
(dp1995
g3
(dp1996
g5
F0.00525
sg6
VFree And Easy (Down The Road I Go)
p1997
sg8
F120.015
sg9
F0.825
sg10
S'country'
p1998
sg12
F0.0283
sg13
VDierks Bentley
p1999
sg15
I9999
sg16
F0.557
sg17
Nsg18
F0.00164
sg19
Nsg20
Nsg21
F0.841
sg22
Nsg23
Nsg24
F-4.657
ssg25
I01
sba(iSong
Song
p2000
(dp2001
g3
(dp2002
g5
F0.456
sg6
VWagon Wheel
p2003
sg8
F148.102
sg9
F0.663
sg10
S'country'
p2004
sg12
F0.0306
sg13
VDarius Rucker
p2005
sg15
I9999
sg16
F0.529
sg17
Nsg18
I0
sg19
Nsg20
Nsg21
F0.592
sg22
Nsg23
Nsg24
F-7.138
ssg25
I01
sba(iSong
Song
p2006
(dp2007
g3
(dp2008
g5
F0.00155
sg6
VIt Ain't My Fault
p2009
sg8
F123.011
sg9
F0.824
sg10
S'country'
p2010
sg12
F0.0331
sg13
VBrothers Osborne
p2011
sg15
I9999
sg16
F0.723
sg17
Nsg18
F0.167
sg19
Nsg20
Nsg21
F0.76
sg22
Nsg23
Nsg24
F-5.911
ssg25
I01
sba(iSong
Song
p2012
(dp2013
g3
(dp2014
g5
F0.0316
sg6
VThese Are My People
p2015
sg8
F90.064
sg9
F0.896
sg10
S'country'
p2016
sg12
F0.0545
sg13
VRodney Atkins
p2017
sg15
I9999
sg16
F0.558
sg17
Nsg18
I0
sg19
Nsg20
Nsg21
F0.63
sg22
Nsg23
Nsg24
F-3.687
ssg25
I01
sba(iSong
Song
p2018
(dp2019
g3
(dp2020
g5
F0.00265
sg6
VGet Your Shine On
p2021
sg8
F96.993
sg9
F0.93
sg10
S'country'
p2022
sg12
F0.0372
sg13
VFlorida Georgia Line
p2023
sg15
I9999
sg16
F0.508
sg17
Nsg18
F2.64e-06
sg19
Nsg20
Nsg21
F0.607
sg22
Nsg23
Nsg24
F-4.518
ssg25
I01
sba(iSong
Song
p2024
(dp2025
g3
(dp2026
g5
F0.00986
sg6
VReal Good Man
p2027
sg8
F89.93
sg9
F0.827
sg10
S'country'
p2028
sg12
F0.0266
sg13
VTim McGraw
p2029
sg15
I9999
sg16
F0.56
sg17
Nsg18
F1.13e-05
sg19
Nsg20
Nsg21
F0.639
sg22
Nsg23
Nsg24
F-5.393
ssg25
I01
sba(iSong
Song
p2030
(dp2031
g3
(dp2032
g5
F0.152
sg6
VUp All Night
p2033
sg8
F163.003
sg9
F0.702
sg10
S'country'
p2034
sg12
F0.0284
sg13
VJon Pardi
p2035
sg15
I9999
sg16
F0.554
sg17
Nsg18
I0
sg19
Nsg20
Nsg21
F0.467
sg22
Nsg23
Nsg24
F-4.972
ssg25
I01
sba(iSong
Song
p2036
(dp2037
g3
(dp2038
g5
F0.0913
sg6
VBackwoods
p2039
sg8
F157.877
sg9
F0.91
sg10
S'country'
p2040
sg12
F0.0576
sg13
VJustin Moore
p2041
sg15
I9999
sg16
F0.497
sg17
Nsg18
F2.75e-06
sg19
Nsg20
Nsg21
F0.766
sg22
Nsg23
Nsg24
F-4.918
ssg25
I01
sba(iSong
Song
p2042
(dp2043
g3
(dp2044
g5
F0.0318
sg6
VT-Shirt
p2045
sg8
F95.996
sg9
F0.857
sg10
S'country'
p2046
sg12
F0.0397
sg13
VThomas Rhett
p2047
sg15
I9999
sg16
F0.647
sg17
Nsg18
I0
sg19
Nsg20
Nsg21
F0.771
sg22
Nsg23
Nsg24
F-5.381
ssg25
I01
sba(iSong
Song
p2048
(dp2049
g3
(dp2050
g5
F0.141
sg6
VSideways
p2051
sg8
F108.046
sg9
F0.915
sg10
S'country'
p2052
sg12
F0.0364
sg13
VDierks Bentley
p2053
sg15
I9999
sg16
F0.624
sg17
Nsg18
I0
sg19
Nsg20
Nsg21
F0.815
sg22
Nsg23
Nsg24
F-2.627
ssg25
I01
sba(iSong
Song
p2054
(dp2055
g3
(dp2056
g5
F0.511
sg6
VChillin' It
p2057
sg8
F137.982
sg9
F0.849
sg10
S'country'
p2058
sg12
F0.0386
sg13
VCole Swindell
p2059
sg15
I9999
sg16
F0.576
sg17
Nsg18
F3.89e-05
sg19
Nsg20
Nsg21
F0.666
sg22
Nsg23
Nsg24
F-3.057
ssg25
I01
sba(iSong
Song
p2060
(dp2061
g3
(dp2062
g5
F0.00407
sg6
VRound Here
p2063
sg8
F141.977
sg9
F0.956
sg10
S'country'
p2064
sg12
F0.0379
sg13
VFlorida Georgia Line
p2065
sg15
I9999
sg16
F0.523
sg17
Nsg18
I0
sg19
Nsg20
Nsg21
F0.888
sg22
Nsg23
Nsg24
F-3.053
ssg25
I01
sba(iSong
Song
p2066
(dp2067
g3
(dp2068
g5
F0.0626
sg6
VThat's My Kind Of Night
p2069
sg8
F110.02
sg9
F0.754
sg10
S'country'
p2070
sg12
F0.051
sg13
VLuke Bryan
p2071
sg15
I9999
sg16
F0.66
sg17
Nsg18
I0
sg19
Nsg20
Nsg21
F0.899
sg22
Nsg23
Nsg24
F-2.84
ssg25
I01
sba(iSong
Song
p2072
(dp2073
g3
(dp2074
g5
F0.00314
sg6
VBeer Can
p2075
sg8
F147.986
sg9
F0.836
sg10
S'country'
p2076
sg12
F0.0452
sg13
VLuke Combs
p2077
sg15
I9999
sg16
F0.543
sg17
Nsg18
I0
sg19
Nsg20
Nsg21
F0.75
sg22
Nsg23
Nsg24
F-5.42
ssg25
I01
sba(iSong
Song
p2078
(dp2079
g3
(dp2080
g5
F0.000907
sg6
VCraving You
p2081
sg8
F104.986
sg9
F0.841
sg10
S'country'
p2082
sg12
F0.0353
sg13
VThomas Rhett
p2083
sg15
I9999
sg16
F0.612
sg17
Nsg18
I0
sg19
Nsg20
Nsg21
F0.499
sg22
Nsg23
Nsg24
F-3.795
ssg25
I01
sba(iSong
Song
p2084
(dp2085
g3
(dp2086
g5
F0.0897
sg6
VAmerican Ride
p2087
sg8
F174.083
sg9
F0.907
sg10
S'country'
p2088
sg12
F0.0649
sg13
VToby Keith
p2089
sg15
I9999
sg16
F0.52
sg17
Nsg18
I0
sg19
Nsg20
Nsg21
F0.816
sg22
Nsg23
Nsg24
F-2.694
ssg25
I01
sba(iSong
Song
p2090
(dp2091
g3
(dp2092
g5
F0.131
sg6
VThis Cowboy's Hat (feat. Ned LeDoux)
p2093
sg8
F166.118
sg9
F0.675
sg10
S'country'
p2094
sg12
F0.0449
sg13
VChase Rice
p2095
sg15
I9999
sg16
F0.483
sg17
Nsg18
F0.000195
sg19
Nsg20
Nsg21
F0.367
sg22
Nsg23
Nsg24
F-5.47
ssg25
I01
sba(iSong
Song
p2096
(dp2097
g3
(dp2098
g5
F0.0782
sg6
VPlay Something Country
p2099
sg8
F115.034
sg9
F0.909
sg10
S'country'
p2100
sg12
F0.0321
sg13
VBrooks & Dunn
p2101
sg15
I9999
sg16
F0.684
sg17
Nsg18
F1.22e-06
sg19
Nsg20
Nsg21
F0.864
sg22
Nsg23
Nsg24
F-3.797
ssg25
I01
sba(iSong
Song
p2102
(dp2103
g3
(dp2104
g5
F0.0439
sg6
VAll My Friends Say
p2105
sg8
F117.036
sg9
F0.9
sg10
S'country'
p2106
sg12
F0.0333
sg13
VLuke Bryan
p2107
sg15
I9999
sg16
F0.683
sg17
Nsg18
I0
sg19
Nsg20
Nsg21
F0.962
sg22
Nsg23
Nsg24
F-4.422
ssg25
I01
sba(iSong
Song
p2108
(dp2109
g3
(dp2110
g5
F0.347
sg6
VDirt Road Anthem
p2111
sg8
F127.024
sg9
F0.741
sg10
S'country'
p2112
sg12
F0.0357
sg13
VJason Aldean
p2113
sg15
I9999
sg16
F0.68
sg17
Nsg18
F1.87e-06
sg19
Nsg20
Nsg21
F0.635
sg22
Nsg23
Nsg24
F-5.055
ssg25
I01
sba(iSong
Song
p2114
(dp2115
g3
(dp2116
g5
F0.00512
sg6
VDrunk On A Plane
p2117
sg8
F205.958
sg9
F0.754
sg10
S'country'
p2118
sg12
F0.0323
sg13
VDierks Bentley
p2119
sg15
I9999
sg16
F0.439
sg17
Nsg18
F7.45e-06
sg19
Nsg20
Nsg21
F0.668
sg22
Nsg23
Nsg24
F-5.566
ssg25
I01
sba(iSong
Song
p2120
(dp2121
g3
(dp2122
g5
F0.0697
sg6
VSomethin' 'Bout A Truck
p2123
sg8
F176.01
sg9
F0.794
sg10
S'country'
p2124
sg12
F0.035
sg13
VKip Moore
p2125
sg15
I9999
sg16
F0.554
sg17
Nsg18
I0
sg19
Nsg20
Nsg21
F0.79
sg22
Nsg23
Nsg24
F-5.417
ssg25
I01
sba(iSong
Song
p2126
(dp2127
g3
(dp2128
g5
F0.184
sg6
VTequila Makes Her Clothes Fall Off
p2129
sg8
F93.941
sg9
F0.776
sg10
S'country'
p2130
sg12
F0.0308
sg13
VJoe Nichols
p2131
sg15
I9999
sg16
F0.658
sg17
Nsg18
F1.52e-06
sg19
Nsg20
Nsg21
F0.731
sg22
Nsg23
Nsg24
F-5.651
ssg25
I01
sba(iSong
Song
p2132
(dp2133
g3
(dp2134
g5
F0.108
sg6
VSave A Horse (Ride A Cowboy)
p2135
sg8
F102.065
sg9
F0.896
sg10
S'country'
p2136
sg12
F0.191
sg13
VBig & Rich
p2137
sg15
I9999
sg16
F0.7
sg17
Nsg18
I0
sg19
Nsg20
Nsg21
F0.817
sg22
Nsg23
Nsg24
F-2.276
ssg25
I01
sba(iSong
Song
p2138
(dp2139
g3
(dp2140
g5
F0.455
sg6
VRedneck Yacht Club
p2141
sg8
F168.115
sg9
F0.817
sg10
S'country'
p2142
sg12
F0.0355
sg13
VCraig Morgan
p2143
sg15
I9999
sg16
F0.49
sg17
Nsg18
I0
sg19
Nsg20
Nsg21
F0.808
sg22
Nsg23
Nsg24
F-5.405
ssg25
I01
sba(iSong
Song
p2144
(dp2145
g3
(dp2146
g5
F0.055
sg6
VTake a Little Ride
p2147
sg8
F163.934
sg9
F0.853
sg10
S'country'
p2148
sg12
F0.0417
sg13
VJason Aldean
p2149
sg15
I9999
sg16
F0.464
sg17
Nsg18
I0
sg19
Nsg20
Nsg21
F0.76
sg22
Nsg23
Nsg24
F-3.767
ssg25
I01
sba(iSong
Song
p2150
(dp2151
g3
(dp2152
g5
F0.0189
sg6
VCruise
p2153
sg8
F148.012
sg9
F0.945
sg10
S'country'
p2154
sg12
F0.0354
sg13
VFlorida Georgia Line
p2155
sg15
I9999
sg16
F0.464
sg17
Nsg18
I0
sg19
Nsg20
Nsg21
F0.877
sg22
Nsg23
Nsg24
F-3.342
ssg25
I01
sba(iSong
Song
p2156
(dp2157
g3
(dp2158
g5
F0.0293
sg6
VCountry Girl (Shake It For Me)
p2159
sg8
F105.97
sg9
F0.904
sg10
S'country'
p2160
sg12
F0.0462
sg13
VLuke Bryan
p2161
sg15
I9999
sg16
F0.645
sg17
Nsg18
I0
sg19
Nsg20
Nsg21
F0.671
sg22
Nsg23
Nsg24
F-4.532
ssg25
I01
sba(iSong
Song
p2162
(dp2163
g3
(dp2164
g5
F0.0494
sg6
VSomethin' I'm Good At
p2165
sg8
F103.009
sg9
F0.94
sg10
S'country'
p2166
sg12
F0.114
sg13
VBrett Eldredge
p2167
sg15
I9999
sg16
F0.562
sg17
Nsg18
I0
sg19
Nsg20
Nsg21
F0.456
sg22
Nsg23
Nsg24
F-4.337
ssg25
I01
sba(iSong
Song
p2168
(dp2169
g3
(dp2170
g5
F0.0913
sg6
VUp Down (Feat. Florida Georgia Line)
p2171
sg8
F129.928
sg9
F0.881
sg10
S'country'
p2172
sg12
F0.0349
sg13
VMorgan Wallen
p2173
sg15
I9999
sg16
F0.59
sg17
Nsg18
I0
sg19
Nsg20
Nsg21
F0.734
sg22
Nsg23
Nsg24
F-2.898
ssg25
I01
sba(iSong
Song
p2174
(dp2175
g3
(dp2176
g5
F0.887
sg6
VWhen The Right One Comes Along
p2177
sg8
F138.038
sg9
F0.216
sg10
S'country'
p2178
sg12
F0.0296
sg13
VNashville Cast
p2179
sg15
I9999
sg16
F0.628
sg17
Nsg18
F6.17e-06
sg19
Nsg20
Nsg21
F0.337
sg22
Nsg23
Nsg24
F-8.81
ssg25
I01
sba(iSong
Song
p2180
(dp2181
g3
(dp2182
g5
F0.274
sg6
VThe Morning Song
p2183
sg8
F83.931
sg9
F0.461
sg10
S'country'
p2184
sg12
F0.026
sg13
VDrew Holcomb & The Neighbors
p2185
sg15
I9999
sg16
F0.598
sg17
Nsg18
F0.000651
sg19
Nsg20
Nsg21
F0.412
sg22
Nsg23
Nsg24
F-8.895
ssg25
I01
sba(iSong
Song
p2186
(dp2187
g3
(dp2188
g5
F0.81
sg6
V1979
p2189
sg8
F119.969
sg9
F0.367
sg10
S'country'
p2190
sg12
F0.027
sg13
VHigh Dive Heart
p2191
sg15
I9999
sg16
F0.688
sg17
Nsg18
I0
sg19
Nsg20
Nsg21
F0.213
sg22
Nsg23
Nsg24
F-7.469
ssg25
I01
sba(iSong
Song
p2192
(dp2193
g3
(dp2194
g5
F0.46
sg6
VNowhere Fast
p2195
sg8
F101.974
sg9
F0.488
sg10
S'country'
p2196
sg12
F0.0286
sg13
VOld Dominion
p2197
sg15
I9999
sg16
F0.788
sg17
Nsg18
F4.52e-06
sg19
Nsg20
Nsg21
F0.48
sg22
Nsg23
Nsg24
F-7.319
ssg25
I01
sba(iSong
Song
p2198
(dp2199
g3
(dp2200
g5
F0.884
sg6
VOld Time's Sake
p2201
sg8
F88.592
sg9
F0.182
sg10
S'country'
p2202
sg12
F0.038
sg13
VCharlie Worsham
p2203
sg15
I9999
sg16
F0.476
sg17
Nsg18
F0.00086
sg19
Nsg20
Nsg21
F0.146
sg22
Nsg23
Nsg24
F-16.375
ssg25
I01
sba(iSong
Song
p2204
(dp2205
g3
(dp2206
g5
F0.907
sg6
VJust In Case - Acoustic
p2207
sg8
F99.805
sg9
F0.345
sg10
S'country'
p2208
sg12
F0.0326
sg13
VCatherine McGrath
p2209
sg15
I9999
sg16
F0.611
sg17
Nsg18
I0
sg19
Nsg20
Nsg21
F0.251
sg22
Nsg23
Nsg24
F-6.629
ssg25
I01
sba(iSong
Song
p2210
(dp2211
g3
(dp2212
g5
F0.859
sg6
VAll Is Well
p2213
sg8
F99.938
sg9
F0.419
sg10
S'country'
p2214
sg12
F0.0337
sg13
VAustin Basham
p2215
sg15
I9999
sg16
F0.34
sg17
Nsg18
F0.00211
sg19
Nsg20
Nsg21
F0.263
sg22
Nsg23
Nsg24
F-12.244
ssg25
I01
sba(iSong
Song
p2216
(dp2217
g3
(dp2218
g5
F0.796
sg6
VThe Time I've Wasted
p2219
sg8
F145.027
sg9
F0.25
sg10
S'country'
p2220
sg12
F0.0304
sg13
VLori McKenna
p2221
sg15
I9999
sg16
F0.473
sg17
Nsg18
F8.83e-05
sg19
Nsg20
Nsg21
F0.261
sg22
Nsg23
Nsg24
F-11.263
ssg25
I01
sba(iSong
Song
p2222
(dp2223
g3
(dp2224
g5
F0.921
sg6
VWhiskey And You
p2225
sg8
F127.262
sg9
F0.0597
sg10
S'country'
p2226
sg12
F0.0616
sg13
VChris Stapleton
p2227
sg15
I9999
sg16
F0.579
sg17
Nsg18
F8.39e-06
sg19
Nsg20
Nsg21
F0.264
sg22
Nsg23
Nsg24
F-14.554
ssg25
I01
sba(iSong
Song
p2228
(dp2229
g3
(dp2230
g5
F0.283
sg6
VBluebonnets (Julia's Song)
p2231
sg8
F92.978
sg9
F0.434
sg10
S'country'
p2232
sg12
F0.0237
sg13
VAaron Watson
p2233
sg15
I9999
sg16
F0.61
sg17
Nsg18
I0
sg19
Nsg20
Nsg21
F0.29
sg22
Nsg23
Nsg24
F-7.131
ssg25
I01
sba(iSong
Song
p2234
(dp2235
g3
(dp2236
g5
F0.064
sg6
VHalley's Comet - Radio Mix
p2237
sg8
F172.922
sg9
F0.42
sg10
S'country'
p2238
sg12
F0.0342
sg13
VSarah Darling
p2239
sg15
I9999
sg16
F0.339
sg17
Nsg18
I0
sg19
Nsg20
Nsg21
F0.205
sg22
Nsg23
Nsg24
F-8.172
ssg25
I01
sba(iSong
Song
p2240
(dp2241
g3
(dp2242
g5
F0.575
sg6
VThe House That Built Me
p2243
sg8
F81.12
sg9
F0.3
sg10
S'country'
p2244
sg12
F0.0289
sg13
VMiranda Lambert
p2245
sg15
I9999
sg16
F0.515
sg17
Nsg18
F8.46e-06
sg19
Nsg20
Nsg21
F0.206
sg22
Nsg23
Nsg24
F-8.005
ssg25
I01
sba(iSong
Song
p2246
(dp2247
g3
(dp2248
g5
F0.37
sg6
VForever Girl
p2249
sg8
F140.161
sg9
F0.439
sg10
S'country'
p2250
sg12
F0.0273
sg13
VJon Langston
p2251
sg15
I9999
sg16
F0.581
sg17
Nsg18
I0
sg19
Nsg20
Nsg21
F0.324
sg22
Nsg23
Nsg24
F-5.817
ssg25
I01
sba(iSong
Song
p2252
(dp2253
g3
(dp2254
g5
F0.738
sg6
VShiver And Shake
p2255
sg8
F144.006
sg9
F0.384
sg10
S'country'
p2256
sg12
F0.0349
sg13
VRyan Adams
p2257
sg15
I9999
sg16
F0.387
sg17
Nsg18
F5.96e-05
sg19
Nsg20
Nsg21
F0.132
sg22
Nsg23
Nsg24
F-14.786
ssg25
I01
sba(iSong
Song
p2258
(dp2259
g3
(dp2260
g5
F0.376
sg6
VNumb
p2261
sg8
F102.918
sg9
F0.397
sg10
S'country'
p2262
sg12
F0.0265
sg13
VTyminski
p2263
sg15
I9999
sg16
F0.49
sg17
Nsg18
I0
sg19
Nsg20
Nsg21
F0.0743
sg22
Nsg23
Nsg24
F-9.705
ssg25
I01
sba(iSong
Song
p2264
(dp2265
g3
(dp2266
g5
F0.701
sg6
VRun of Good Luck
p2267
sg8
F130.507
sg9
F0.166
sg10
S'country'
p2268
sg12
F0.0347
sg13
VRob Baird
p2269
sg15
I9999
sg16
F0.544
sg17
Nsg18
F2.95e-06
sg19
Nsg20
Nsg21
F0.306
sg22
Nsg23
Nsg24
F-12.926
ssg25
I01
sba(iSong
Song
p2270
(dp2271
g3
(dp2272
g5
F0.885
sg6
VWords
p2273
sg8
F101.573
sg9
F0.325
sg10
S'country'
p2274
sg12
F0.0302
sg13
VSara Evans
p2275
sg15
I9999
sg16
F0.576
sg17
Nsg18
I0
sg19
Nsg20
Nsg21
F0.404
sg22
Nsg23
Nsg24
F-9.428
ssg25
I01
sba(iSong
Song
p2276
(dp2277
g3
(dp2278
g5
F0.625
sg6
VBrighter Shade of Blue
p2279
sg8
F84.984
sg9
F0.438
sg10
S'country'
p2280
sg12
F0.0265
sg13
VJordan DePaul
p2281
sg15
I9999
sg16
F0.489
sg17
Nsg18
F8e-05
sg19
Nsg20
Nsg21
F0.188
sg22
Nsg23
Nsg24
F-8.748
ssg25
I01
sba(iSong
Song
p2282
(dp2283
g3
(dp2284
g5
F0.437
sg6
VYou and Tequila
p2285
sg8
F135.839
sg9
F0.454
sg10
S'country'
p2286
sg12
F0.0256
sg13
VKenny Chesney
p2287
sg15
I9999
sg16
F0.691
sg17
Nsg18
F0.00227
sg19
Nsg20
Nsg21
F0.35
sg22
Nsg23
Nsg24
F-9.13
ssg25
I01
sba(iSong
Song
p2288
(dp2289
g3
(dp2290
g5
F0.901
sg6
VWithout A Word
p2291
sg8
F136.311
sg9
F0.171
sg10
S'country'
p2292
sg12
F0.0303
sg13
VSara Watkins
p2293
sg15
I9999
sg16
F0.579
sg17
Nsg18
F0.000308
sg19
Nsg20
Nsg21
F0.389
sg22
Nsg23
Nsg24
F-14.495
ssg25
I01
sba(iSong
Song
p2294
(dp2295
g3
(dp2296
g5
F0.671
sg6
VStay My Love
p2297
sg8
F75.898
sg9
F0.402
sg10
S'country'
p2298
sg12
F0.0257
sg13
VUna Healy
p2299
sg15
I9999
sg16
F0.481
sg17
Nsg18
I0
sg19
Nsg20
Nsg21
F0.287
sg22
Nsg23
Nsg24
F-6.844
ssg25
I01
sba(iSong
Song
p2300
(dp2301
g3
(dp2302
g5
F0.302
sg6
VShe Don't Love You
p2303
sg8
F151.37
sg9
F0.338
sg10
S'country'
p2304
sg12
F0.029
sg13
VEric Paslay
p2305
sg15
I9999
sg16
F0.342
sg17
Nsg18
F1.07e-06
sg19
Nsg20
Nsg21
F0.172
sg22
Nsg23
Nsg24
F-8.414
ssg25
I01
sba(iSong
Song
p2306
(dp2307
g3
(dp2308
g5
F0.861
sg6
VTin Man
p2309
sg8
F79.456
sg9
F0.372
sg10
S'country'
p2310
sg12
F0.03
sg13
VMiranda Lambert
p2311
sg15
I9999
sg16
F0.425
sg17
Nsg18
F0.0148
sg19
Nsg20
Nsg21
F0.292
sg22
Nsg23
Nsg24
F-10.92
ssg25
I01
sba(iSong
Song
p2312
(dp2313
g3
(dp2314
g5
F0.885
sg6
VBurning House
p2315
sg8
F140.904
sg9
F0.248
sg10
S'country'
p2316
sg12
F0.0317
sg13
VCam
p2317
sg15
I9999
sg16
F0.729
sg17
Nsg18
F2e-05
sg19
Nsg20
Nsg21
F0.43
sg22
Nsg23
Nsg24
F-8.772
ssg25
I01
sba(iSong
Song
p2318
(dp2319
g3
(dp2320
g5
F0.708
sg6
VThe Love That We Need
p2321
sg8
F181.019
sg9
F0.365
sg10
S'country'
p2322
sg12
F0.0451
sg13
VHayes Carll
p2323
sg15
I9999
sg16
F0.369
sg17
Nsg18
F0.0343
sg19
Nsg20
Nsg21
F0.222
sg22
Nsg23
Nsg24
F-9.869
ssg25
I01
sba(iSong
Song
p2324
(dp2325
g3
(dp2326
g5
F0.825
sg6
VNo Peace In Quiet
p2327
sg8
F75.999
sg9
F0.34
sg10
S'country'
p2328
sg12
F0.0277
sg13
VDelta Rae
p2329
sg15
I9999
sg16
F0.35
sg17
Nsg18
F1.01e-05
sg19
Nsg20
Nsg21
F0.293
sg22
Nsg23
Nsg24
F-8.841
ssg25
I01
sba(iSong
Song
p2330
(dp2331
g3
(dp2332
g5
F0.869
sg6
VThe Hard Way
p2333
sg8
F158.349
sg9
F0.244
sg10
S'country'
p2334
sg12
F0.0318
sg13
VSierra Hull
p2335
sg15
I9999
sg16
F0.403
sg17
Nsg18
F5.29e-06
sg19
Nsg20
Nsg21
F0.355
sg22
Nsg23
Nsg24
F-12.152
ssg25
I01
sba(iSong
Song
p2336
(dp2337
g3
(dp2338
g5
F0.865
sg6
VEither Way
p2339
sg8
F129.004
sg9
F0.0628
sg10
S'country'
p2340
sg12
F0.0417
sg13
VChris Stapleton
p2341
sg15
I9999
sg16
F0.641
sg17
Nsg18
F4.08e-06
sg19
Nsg20
Nsg21
F0.275
sg22
Nsg23
Nsg24
F-14.155
ssg25
I01
sba(iSong
Song
p2342
(dp2343
g3
(dp2344
g5
F0.00925
sg6
VTake It All Back 2.0
p2345
sg8
F148.071
sg9
F0.801
sg10
S'country'
p2346
sg12
F0.0305
sg13
VJudah & the Lion
p2347
sg15
I9999
sg16
F0.446
sg17
Nsg18
F8.84e-05
sg19
Nsg20
Nsg21
F0.765
sg22
Nsg23
Nsg24
F-6.397
ssg25
I01
sba(iSong
Song
p2348
(dp2349
g3
(dp2350
g5
F0.335
sg6
VMiles Away
p2351
sg8
F161.743
sg9
F0.49
sg10
S'country'
p2352
sg12
F0.0308
sg13
VKrysta Nick
p2353
sg15
I9999
sg16
F0.546
sg17
Nsg18
I0
sg19
Nsg20
Nsg21
F0.373
sg22
Nsg23
Nsg24
I-7
ssg25
I01
sba(iSong
Song
p2354
(dp2355
g3
(dp2356
g5
F0.771
sg6
VGiving It All (To You)
p2357
sg8
F114.337
sg9
F0.32
sg10
S'country'
p2358
sg12
F0.028
sg13
VHaley & Michaels
p2359
sg15
I9999
sg16
F0.636
sg17
Nsg18
I0
sg19
Nsg20
Nsg21
F0.2
sg22
Nsg23
Nsg24
F-9.953
ssg25
I01
sba(iSong
Song
p2360
(dp2361
g3
(dp2362
g5
F0.869
sg6
VPushin' Time
p2363
sg8
F77.756
sg9
F0.179
sg10
S'country'
p2364
sg12
F0.0323
sg13
VMiranda Lambert
p2365
sg15
I9999
sg16
F0.503
sg17
Nsg18
F2.21e-05
sg19
Nsg20
Nsg21
F0.321
sg22
Nsg23
Nsg24
F-13.064
ssg25
I01
sba(iSong
Song
p2366
(dp2367
g3
(dp2368
g5
F0.245
sg6
VA Woman Like You
p2369
sg8
F160.048
sg9
F0.584
sg10
S'country'
p2370
sg12
F0.0305
sg13
VLee Brice
p2371
sg15
I9999
sg16
F0.592
sg17
Nsg18
I0
sg19
Nsg20
Nsg21
F0.371
sg22
Nsg23
Nsg24
F-7.422
ssg25
I01
sba(iSong
Song
p2372
(dp2373
g3
(dp2374
g5
F0.0784
sg6
VIt's Your Move
p2375
sg8
F126.116
sg9
F0.435
sg10
S'country'
p2376
sg12
F0.0288
sg13
VJosh Kelley
p2377
sg15
I9999
sg16
F0.436
sg17
Nsg18
I0
sg19
Nsg20
Nsg21
F0.384
sg22
Nsg23
Nsg24
F-7.474
ssg25
I01
sba(iSong
Song
p2378
(dp2379
g3
(dp2380
g5
F0.558
sg6
VNothing Like You
p2381
sg8
F77.037
sg9
F0.496
sg10
S'country'
p2382
sg12
F0.0309
sg13
VDave Barnes
p2383
sg15
I9999
sg16
F0.608
sg17
Nsg18
F1.15e-05
sg19
Nsg20
Nsg21
F0.506
sg22
Nsg23
Nsg24
F-8.929
ssg25
I01
sba(iSong
Song
p2384
(dp2385
g3
(dp2386
g5
F0.679
sg6
VWait Up For Me
p2387
sg8
I83
sg9
F0.236
sg10
S'country'
p2388
sg12
F0.0296
sg13
VAmos Lee
p2389
sg15
I9999
sg16
F0.654
sg17
Nsg18
F0.00495
sg19
Nsg20
Nsg21
F0.262
sg22
Nsg23
Nsg24
F-15.625
ssg25
I01
sba(iSong
Song
p2390
(dp2391
g3
(dp2392
g5
F0.741
sg6
VWaters
p2393
sg8
F119.863
sg9
F0.264
sg10
S'country'
p2394
sg12
F0.0316
sg13
VJJ Shiplett
p2395
sg15
I9999
sg16
F0.576
sg17
Nsg18
I0
sg19
Nsg20
Nsg21
F0.283
sg22
Nsg23
Nsg24
F-10.217
ssg25
I01
sba(iSong
Song
p2396
(dp2397
g3
(dp2398
g5
F0.697
sg6
VFingertips
p2399
sg8
F115.137
sg9
F0.324
sg10
S'country'
p2400
sg12
F0.0442
sg13
VRyan O'Shaughnessy
p2401
sg15
I9999
sg16
F0.491
sg17
Nsg18
I0
sg19
Nsg20
Nsg21
F0.123
sg22
Nsg23
Nsg24
F-10.627
ssg25
I01
sba(iSong
Song
p2402
(dp2403
g3
(dp2404
g5
F0.768
sg6
VLouise
p2405
sg8
F89.897
sg9
F0.381
sg10
S'country'
p2406
sg12
F0.0321
sg13
VMipso
p2407
sg15
I9999
sg16
F0.639
sg17
Nsg18
F2.25e-06
sg19
Nsg20
Nsg21
F0.489
sg22
Nsg23
Nsg24
F-9.428
ssg25
I01
sba(iSong
Song
p2408
(dp2409
g3
(dp2410
g5
F0.148
sg6
VPieces of You
p2411
sg8
F62.003
sg9
F0.642
sg10
S'country'
p2412
sg12
F0.0305
sg13
VChris Carmack
p2413
sg15
I9999
sg16
F0.505
sg17
Nsg18
F3.15e-05
sg19
Nsg20
Nsg21
F0.167
sg22
Nsg23
Nsg24
F-3.694
ssg25
I01
sba(iSong
Song
p2414
(dp2415
g3
(dp2416
g5
F0.714
sg6
VWhen You Say Nothing At All
p2417
sg8
F169.642
sg9
F0.242
sg10
S'country'
p2418
sg12
F0.0291
sg13
VAlison Krauss & Union Station
p2419
sg15
I9999
sg16
F0.509
sg17
Nsg18
F0.000365
sg19
Nsg20
Nsg21
F0.448
sg22
Nsg23
Nsg24
F-13.353
ssg25
I01
sba(iSong
Song
p2420
(dp2421
g3
(dp2422
g5
F0.131
sg6
VWhat If I Stay
p2423
sg8
F94.021
sg9
F0.653
sg10
S'country'
p2424
sg12
F0.0275
sg13
VChris Young
p2425
sg15
I9999
sg16
F0.58
sg17
Nsg18
F4.65e-05
sg19
Nsg20
Nsg21
F0.232
sg22
Nsg23
Nsg24
F-6.051
ssg25
I01
sba(iSong
Song
p2426
(dp2427
g3
(dp2428
g5
F0.751
sg6
VDreamer
p2429
sg8
F154.028
sg9
F0.383
sg10
S'country'
p2430
sg12
F0.0407
sg13
VIsbells
p2431
sg15
I9999
sg16
F0.627
sg17
Nsg18
F0.0289
sg19
Nsg20
Nsg21
F0.421
sg22
Nsg23
Nsg24
F-13.143
ssg25
I01
sba(iSong
Song
p2432
(dp2433
g3
(dp2434
g5
F0.00791
sg6
VThis Town Still Talks About You
p2435
sg8
F95.957
sg9
F0.47
sg10
S'country'
p2436
sg12
F0.0242
sg13
VNatalie Hemby
p2437
sg15
I9999
sg16
F0.522
sg17
Nsg18
F1.54e-06
sg19
Nsg20
Nsg21
F0.344
sg22
Nsg23
Nsg24
F-9.52
ssg25
I01
sba(iSong
Song
p2438
(dp2439
g3
(dp2440
g5
F0.493
sg6
VSwimming Alone
p2441
sg8
F160.067
sg9
F0.493
sg10
S'country'
p2442
sg12
F0.0295
sg13
VLiz Rose
p2443
sg15
I9999
sg16
F0.572
sg17
Nsg18
F4.48e-06
sg19
Nsg20
Nsg21
F0.171
sg22
Nsg23
Nsg24
F-6.859
ssg25
I01
sba(iSong
Song
p2444
(dp2445
g3
(dp2446
g5
F0.659
sg6
VWhere Cowboys Ride
p2447
sg8
F82.302
sg9
F0.374
sg10
S'country'
p2448
sg12
F0.0339
sg13
VSarah Darling
p2449
sg15
I9999
sg16
F0.405
sg17
Nsg18
F4.15e-05
sg19
Nsg20
Nsg21
F0.194
sg22
Nsg23
Nsg24
F-10.118
ssg25
I01
sba(iSong
Song
p2450
(dp2451
g3
(dp2452
g5
F0.141
sg6
VDancing Shoes
p2453
sg8
F138.032
sg9
F0.415
sg10
S'country'
p2454
sg12
F0.0277
sg13
VGreen River Ordinance
p2455
sg15
I9999
sg16
F0.594
sg17
Nsg18
F1.58e-06
sg19
Nsg20
Nsg21
F0.205
sg22
Nsg23
Nsg24
F-6.99
ssg25
I01
sba(iSong
Song
p2456
(dp2457
g3
(dp2458
g5
F0.673
sg6
VWoulda Left Me Too
p2459
sg8
F147.912
sg9
F0.452
sg10
S'country'
p2460
sg12
F0.0603
sg13
VRyan Griffin
p2461
sg15
I9999
sg16
F0.564
sg17
Nsg18
F0.00105
sg19
Nsg20
Nsg21
F0.173
sg22
Nsg23
Nsg24
F-8.588
ssg25
I01
sba(iSong
Song
p2462
(dp2463
g3
(dp2464
g5
F0.857
sg6
VComing Down the Mountain
p2465
sg8
F140.013
sg9
F0.344
sg10
S'country'
p2466
sg12
F0.0278
sg13
VMipso
p2467
sg15
I9999
sg16
F0.582
sg17
Nsg18
F0.0871
sg19
Nsg20
Nsg21
F0.374
sg22
Nsg23
Nsg24
F-9.148
ssg25
I01
sba(iSong
Song
p2468
(dp2469
g3
(dp2470
g5
F0.807
sg6
VTo The Moon And Back
p2471
sg8
F83.421
sg9
F0.473
sg10
S'country'
p2472
sg12
F0.0307
sg13
VLuke Bryan
p2473
sg15
I9999
sg16
F0.407
sg17
Nsg18
F0.0672
sg19
Nsg20
Nsg21
F0.269
sg22
Nsg23
Nsg24
F-10.297
ssg25
I01
sba(iSong
Song
p2474
(dp2475
g3
(dp2476
g5
F0.835
sg6
VBlacked Out
p2477
sg8
F156.014
sg9
F0.391
sg10
S'country'
p2478
sg12
F0.0323
sg13
VChris Young
p2479
sg15
I9999
sg16
F0.598
sg17
Nsg18
F1.48e-05
sg19
Nsg20
Nsg21
F0.644
sg22
Nsg23
Nsg24
F-11.544
ssg25
I01
sba(iSong
Song
p2480
(dp2481
g3
(dp2482
g5
F0.744
sg6
VThis Town Is Killing Me
p2483
sg8
F75.984
sg9
F0.18
sg10
S'country'
p2484
sg12
F0.0316
sg13
VCaitlyn Smith
p2485
sg15
I9999
sg16
F0.48
sg17
Nsg18
I0
sg19
Nsg20
Nsg21
F0.242
sg22
Nsg23
Nsg24
F-10.2
ssg25
I01
sba(iSong
Song
p2486
(dp2487
g3
(dp2488
g5
F0.569
sg6
VGirl Goin' Nowhere
p2489
sg8
F79.896
sg9
F0.158
sg10
S'country'
p2490
sg12
F0.0615
sg13
VAshley McBryde
p2491
sg15
I9999
sg16
F0.428
sg17
Nsg18
F9.64e-05
sg19
Nsg20
Nsg21
F0.159
sg22
Nsg23
Nsg24
F-12.812
ssg25
I01
sba(iSong
Song
p2492
(dp2493
g3
(dp2494
g5
F0.00275
sg6
VStay Downtown
p2495
sg8
F77.807
sg9
F0.758
sg10
S'country'
p2496
sg12
F0.0451
sg13
VCole Swindell
p2497
sg15
I9999
sg16
F0.336
sg17
Nsg18
I0
sg19
Nsg20
Nsg21
F0.236
sg22
Nsg23
Nsg24
F-4.187
ssg25
I01
sba(iSong
Song
p2498
(dp2499
g3
(dp2500
g5
F0.0896
sg6
VI'd Be Jealous Too
p2501
sg8
F100.934
sg9
F0.718
sg10
S'country'
p2502
sg12
F0.0293
sg13
VDustin Lynch
p2503
sg15
I9999
sg16
F0.716
sg17
Nsg18
I0
sg19
Nsg20
Nsg21
F0.537
sg22
Nsg23
Nsg24
F-5.355
ssg25
I01
sba(iSong
Song
p2504
(dp2505
g3
(dp2506
g5
F0.0178
sg6
VA Girl Like You
p2507
sg8
F104.989
sg9
F0.777
sg10
S'country'
p2508
sg12
F0.0329
sg13
VEaston Corbin
p2509
sg15
I9999
sg16
F0.74
sg17
Nsg18
F1.27e-06
sg19
Nsg20
Nsg21
F0.834
sg22
Nsg23
Nsg24
F-4.405
ssg25
I01
sba(iSong
Song
p2510
(dp2511
g3
(dp2512
g5
F0.353
sg6
VWhole Lot in Love
p2513
sg8
F112.027
sg9
F0.715
sg10
S'country'
p2514
sg12
F0.0377
sg13
VAustin Burke
p2515
sg15
I9999
sg16
F0.791
sg17
Nsg18
I0
sg19
Nsg20
Nsg21
F0.593
sg22
Nsg23
Nsg24
F-5.809
ssg25
I01
sba(iSong
Song
p2516
(dp2517
g3
(dp2518
g5
F0.0528
sg6
VFound You
p2519
sg8
F164.144
sg9
F0.821
sg10
S'country'
p2520
sg12
F0.0404
sg13
VKane Brown
p2521
sg15
I9999
sg16
F0.46
sg17
Nsg18
I0
sg19
Nsg20
Nsg21
F0.438
sg22
Nsg23
Nsg24
F-5.333
ssg25
I01
sba(iSong
Song
p2522
(dp2523
g3
(dp2524
g5
F0.214
sg6
VI Could Use a Love Song
p2525
sg8
F92.097
sg9
F0.634
sg10
S'country'
p2526
sg12
F0.0468
sg13
VMaren Morris
p2527
sg15
I9999
sg16
F0.638
sg17
Nsg18
I0
sg19
Nsg20
Nsg21
F0.473
sg22
Nsg23
Nsg24
F-6.474
ssg25
I01
sba(iSong
Song
p2528
(dp2529
g3
(dp2530
g5
F0.113
sg6
VMarry Me
p2531
sg8
F85.008
sg9
F0.408
sg10
S'country'
p2532
sg12
F0.0237
sg13
VThomas Rhett
p2533
sg15
I9999
sg16
F0.588
sg17
Nsg18
I0
sg19
Nsg20
Nsg21
F0.484
sg22
Nsg23
Nsg24
F-8.662
ssg25
I01
sba(iSong
Song
p2534
(dp2535
g3
(dp2536
g5
F0.496
sg6
VYou Broke Up with Me
p2537
sg8
F120.013
sg9
F0.711
sg10
S'country'
p2538
sg12
F0.061
sg13
VWalker Hayes
p2539
sg15
I9999
sg16
F0.846
sg17
Nsg18
I0
sg19
Nsg20
Nsg21
F0.883
sg22
Nsg23
Nsg24
F-7.939
ssg25
I01
sba(iSong
Song
p2540
(dp2541
g3
(dp2542
g5
F0.0441
sg6
VSingles You Up
p2543
sg8
F200.054
sg9
F0.9
sg10
S'country'
p2544
sg12
F0.0488
sg13
VJordan Davis
p2545
sg15
I9999
sg16
F0.489
sg17
Nsg18
I0
sg19
Nsg20
Nsg21
F0.611
sg22
Nsg23
Nsg24
F-3.563
ssg25
I01
sba(iSong
Song
p2546
(dp2547
g3
(dp2548
g5
F0.0617
sg6
VHeartache On The Dance Floor
p2549
sg8
F116.005
sg9
F0.824
sg10
S'country'
p2550
sg12
F0.0458
sg13
VJon Pardi
p2551
sg15
I9999
sg16
F0.594
sg17
Nsg18
I0
sg19
Nsg20
Nsg21
F0.671
sg22
Nsg23
Nsg24
F-4.252
ssg25
I01
sba(iSong
Song
p2552
(dp2553
g3
(dp2554
g5
F0.00909
sg6
VWhat Guy Wouldn't
p2555
sg8
F120.071
sg9
F0.836
sg10
S'country'
p2556
sg12
F0.055
sg13
VWaterloo Revival
p2557
sg15
I9999
sg16
F0.543
sg17
Nsg18
I0
sg19
Nsg20
Nsg21
F0.695
sg22
Nsg23
Nsg24
F-5.477
ssg25
I01
sba(iSong
Song
p2558
(dp2559
g3
(dp2560
g5
F0.00898
sg6
VWhat Ifs
p2561
sg8
F125.976
sg9
F0.799
sg10
S'country'
p2562
sg12
F0.0275
sg13
VKane Brown
p2563
sg15
I9999
sg16
F0.612
sg17
Nsg18
I0
sg19
Nsg20
Nsg21
F0.687
sg22
Nsg23
Nsg24
F-4.603
ssg25
I01
sba(iSong
Song
p2564
(dp2565
g3
(dp2566
g5
F0.013
sg6
VWhen It Rains It Pours
p2567
sg8
F128.027
sg9
F0.801
sg10
S'country'
p2568
sg12
F0.0303
sg13
VLuke Combs
p2569
sg15
I9999
sg16
F0.551
sg17
Nsg18
F6.03e-06
sg19
Nsg20
Nsg21
F0.625
sg22
Nsg23
Nsg24
F-5.069
ssg25
I01
sba(iSong
Song
p2570
(dp2571
g3
(dp2572
g5
F0.52
sg6
VBe with Me
p2573
sg8
F104.031
sg9
F0.862
sg10
S'country'
p2574
sg12
F0.0275
sg13
VOld Dominion
p2575
sg15
I9999
sg16
F0.657
sg17
Nsg18
I0
sg19
Nsg20
Nsg21
F0.849
sg22
Nsg23
Nsg24
F-5.048
ssg25
I01
sba(iSong
Song
p2576
(dp2577
g3
(dp2578
g5
F0.397
sg6
VIn Case You Didn't Know
p2579
sg8
F147.976
sg9
F0.544
sg10
S'country'
p2580
sg12
F0.0315
sg13
VBrett Young
p2581
sg15
I9999
sg16
F0.596
sg17
Nsg18
I0
sg19
Nsg20
Nsg21
F0.393
sg22
Nsg23
Nsg24
F-7.294
ssg25
I01
sba(iSong
Song
p2582
(dp2583
g3
(dp2584
g5
F0.302
sg6
VSpeakers, Bleachers And Preachers
p2585
sg8
F96.02
sg9
F0.625
sg10
S'country'
p2586
sg12
F0.0258
sg13
VBrandon Lay
p2587
sg15
I9999
sg16
F0.603
sg17
Nsg18
I0
sg19
Nsg20
Nsg21
F0.651
sg22
Nsg23
Nsg24
F-6.563
ssg25
I01
sba(iSong
Song
p2588
(dp2589
g3
(dp2590
g5
F0.0362
sg6
VHooked
p2591
sg8
F132.054
sg9
F0.721
sg10
S'country'
p2592
sg12
F0.0356
sg13
VDylan Scott
p2593
sg15
I9999
sg16
F0.597
sg17
Nsg18
I0
sg19
Nsg20
Nsg21
F0.437
sg22
Nsg23
Nsg24
F-6.422
ssg25
I01
sba(iSong
Song
p2594
(dp2595
g3
(dp2596
g5
F0.193
sg6
VWhen the Good Guys Win
p2597
sg8
F142.044
sg9
F0.853
sg10
S'country'
p2598
sg12
F0.0365
sg13
VGranger Smith
p2599
sg15
I9999
sg16
F0.619
sg17
Nsg18
I0
sg19
Nsg20
Nsg21
F0.864
sg22
Nsg23
Nsg24
F-4.889
ssg25
I01
sba(iSong
Song
p2600
(dp2601
g3
(dp2602
g5
F0.122
sg6
VDo I Make You Wanna
p2603
sg8
F89.953
sg9
F0.751
sg10
S'country'
p2604
sg12
F0.0299
sg13
VBilly Currington
p2605
sg15
I9999
sg16
F0.549
sg17
Nsg18
I0
sg19
Nsg20
Nsg21
F0.493
sg22
Nsg23
Nsg24
F-5.423
ssg25
I01
sba(iSong
Song
p2606
(dp2607
g3
(dp2608
g5
F0.463
sg6
VBody Like A Back Road
p2609
sg8
F98.963
sg9
F0.469
sg10
S'country'
p2610
sg12
F0.0326
sg13
VSam Hunt
p2611
sg15
I9999
sg16
F0.731
sg17
Nsg18
F1.04e-06
sg19
Nsg20
Nsg21
F0.631
sg22
Nsg23
Nsg24
F-7.226
ssg25
I01
sba(iSong
Song
p2612
(dp2613
g3
(dp2614
g5
F0.0351
sg6
VStupid
p2615
sg8
F92.021
sg9
F0.868
sg10
S'country'
p2616
sg12
F0.0384
sg13
VLevi Hummon
p2617
sg15
I9999
sg16
F0.588
sg17
Nsg18
I0
sg19
Nsg20
Nsg21
F0.559
sg22
Nsg23
Nsg24
F-4.904
ssg25
I01
sba(iSong
Song
p2618
(dp2619
g3
(dp2620
g5
F0.263
sg6
VHeaven
p2621
sg8
F80.009
sg9
F0.556
sg10
S'country'
p2622
sg12
F0.0306
sg13
VKane Brown
p2623
sg15
I9999
sg16
F0.677
sg17
Nsg18
I0
sg19
Nsg20
Nsg21
F0.521
sg22
Nsg23
Nsg24
F-6.544
ssg25
I01
sba(iSong
Song
p2624
(dp2625
g3
(dp2626
g5
F0.119
sg6
VYours
p2627
sg8
F134.058
sg9
F0.722
sg10
S'country'
p2628
sg12
F0.034
sg13
VRussell Dickerson
p2629
sg15
I9999
sg16
F0.555
sg17
Nsg18
I0
sg19
Nsg20
Nsg21
F0.559
sg22
Nsg23
Nsg24
F-6.005
ssg25
I01
sba(iSong
Song
p2630
(dp2631
g3
(dp2632
g5
F0.65
sg6
VThe Rest of Our Life
p2633
sg8
F119.921
sg9
F0.468
sg10
S'country'
p2634
sg12
F0.0291
sg13
VTim McGraw
p2635
sg15
I9999
sg16
F0.617
sg17
Nsg18
I0
sg19
Nsg20
Nsg21
F0.333
sg22
Nsg23
Nsg24
F-6.908
ssg25
I01
sba(iSong
Song
p2636
(dp2637
g3
(dp2638
g5
F0.161
sg6
VThis Night Back
p2639
sg8
F160.167
sg9
F0.863
sg10
S'country'
p2640
sg12
F0.04
sg13
VCanaan Smith
p2641
sg15
I9999
sg16
F0.587
sg17
Nsg18
I0
sg19
Nsg20
Nsg21
F0.537
sg22
Nsg23
Nsg24
F-4.803
ssg25
I01
sba(iSong
Song
p2642
(dp2643
g3
(dp2644
g5
F0.0527
sg6
VGetting Over You
p2645
sg8
F170.139
sg9
F0.784
sg10
S'country'
p2646
sg12
F0.0344
sg13
VJackie Lee
p2647
sg15
I9999
sg16
F0.442
sg17
Nsg18
I0
sg19
Nsg20
Nsg21
F0.552
sg22
Nsg23
Nsg24
F-4.001
ssg25
I01
sba(iSong
Song
p2648
(dp2649
g3
(dp2650
g5
F0.0446
sg6
VRound Here Buzz
p2651
sg8
F76.08
sg9
F0.427
sg10
S'country'
p2652
sg12
F0.0336
sg13
VEric Church
p2653
sg15
I9999
sg16
F0.639
sg17
Nsg18
F2.32e-05
sg19
Nsg20
Nsg21
F0.457
sg22
Nsg23
Nsg24
F-9.013
ssg25
I01
sba(iSong
Song
p2654
(dp2655
g3
(dp2656
g5
F0.0159
sg6
VMan Enough Now
p2657
sg8
F156.107
sg9
F0.577
sg10
S'country'
p2658
sg12
F0.0331
sg13
VChris Bandi
p2659
sg15
I9999
sg16
F0.591
sg17
Nsg18
I0
sg19
Nsg20
Nsg21
F0.502
sg22
Nsg23
Nsg24
F-6.107
ssg25
I01
sba(iSong
Song
p2660
(dp2661
g3
(dp2662
g5
F0.144
sg6
VAll On Me
p2663
sg8
F80.996
sg9
F0.658
sg10
S'country'
p2664
sg12
F0.0281
sg13
VDevin Dawson
p2665
sg15
I9999
sg16
F0.631
sg17
Nsg18
I0
sg19
Nsg20
Nsg21
F0.7
sg22
Nsg23
Nsg24
F-5.313
ssg25
I01
sba(iSong
Song
p2666
(dp2667
g3
(dp2668
g5
F0.182
sg6
VFemale
p2669
sg8
F84.999
sg9
F0.474
sg10
S'country'
p2670
sg12
F0.0351
sg13
VKeith Urban
p2671
sg15
I9999
sg16
F0.562
sg17
Nsg18
F9.8e-05
sg19
Nsg20
Nsg21
F0.345
sg22
Nsg23
Nsg24
F-8.762
ssg25
I01
sba(iSong
Song
p2672
(dp2673
g3
(dp2674
g5
F0.38
sg6
VGreatest Love Story
p2675
sg8
F147.975
sg9
F0.621
sg10
S'country'
p2676
sg12
F0.0524
sg13
VLANCO
p2677
sg15
I9999
sg16
F0.665
sg17
Nsg18
I0
sg19
Nsg20
Nsg21
F0.632
sg22
Nsg23
Nsg24
F-8.571
ssg25
I01
sba(iSong
Song
p2678
(dp2679
g3
(dp2680
g5
F0.143
sg6
VKiss Somebody
p2681
sg8
F178.01
sg9
F0.681
sg10
S'country'
p2682
sg12
F0.075
sg13
VMorgan Evans
p2683
sg15
I9999
sg16
F0.492
sg17
Nsg18
I0
sg19
Nsg20
Nsg21
F0.511
sg22
Nsg23
Nsg24
F-7.038
ssg25
I01
sba(iSong
Song
p2684
(dp2685
g3
(dp2686
g5
F0.0886
sg6
VLegends
p2687
sg8
F112.047
sg9
F0.644
sg10
S'country'
p2688
sg12
F0.0322
sg13
VKelsea Ballerini
p2689
sg15
I9999
sg16
F0.603
sg17
Nsg18
I0
sg19
Nsg20
Nsg21
F0.244
sg22
Nsg23
Nsg24
F-6.447
ssg25
I01
sba(iSong
Song
p2690
(dp2691
g3
(dp2692
g5
F0.593
sg6
VWritten in the Sand
p2693
sg8
F83.985
sg9
F0.437
sg10
S'country'
p2694
sg12
F0.0575
sg13
VOld Dominion
p2695
sg15
I9999
sg16
F0.725
sg17
Nsg18
I0
sg19
Nsg20
Nsg21
F0.759
sg22
Nsg23
Nsg24
F-9.602
ssg25
I01
sba(iSong
Song
p2696
(dp2697
g3
(dp2698
g5
F0.265
sg6
VThe Long Way
p2699
sg8
F88.872
sg9
F0.637
sg10
S'country'
p2700
sg12
F0.0401
sg13
VBrett Eldredge
p2701
sg15
I9999
sg16
F0.488
sg17
Nsg18
I0
sg19
Nsg20
Nsg21
F0.23
sg22
Nsg23
Nsg24
F-7.63
ssg25
I01
sba(iSong
Song
p2702
(dp2703
g3
(dp2704
g5
F0.049
sg6
VAlmost Over You
p2705
sg8
F101.069
sg9
F0.892
sg10
S'country'
p2706
sg12
F0.0525
sg13
VJessie James Decker
p2707
sg15
I9999
sg16
F0.556
sg17
Nsg18
F0.00053
sg19
Nsg20
Nsg21
F0.264
sg22
Nsg23
Nsg24
F-2.841
ssg25
I01
sba(iSong
Song
p2708
(dp2709
g3
(dp2710
g5
F0.368
sg6
VTake Back Home Girl (Feat. Tori Kelly)
p2711
sg8
F159.708
sg9
F0.78
sg10
S'country'
p2712
sg12
F0.064
sg13
VChris Lane
p2713
sg15
I9999
sg16
F0.494
sg17
Nsg18
I0
sg19
Nsg20
Nsg21
F0.664
sg22
Nsg23
Nsg24
F-3.825
ssg25
I01
sba(iSong
Song
p2714
(dp2715
g3
(dp2716
g5
F0.189
sg6
VHappens Like That
p2717
sg8
F81.045
sg9
F0.807
sg10
S'country'
p2718
sg12
F0.0825
sg13
VGranger Smith
p2719
sg15
I9999
sg16
F0.557
sg17
Nsg18
I0
sg19
Nsg20
Nsg21
F0.578
sg22
Nsg23
Nsg24
F-5.428
ssg25
I01
sba(iSong
Song
p2720
(dp2721
g3
(dp2722
g5
F0.0913
sg6
VUp Down (Feat. Florida Georgia Line)
p2723
sg8
F129.928
sg9
F0.881
sg10
S'country'
p2724
sg12
F0.0349
sg13
VMorgan Wallen
p2725
sg15
I9999
sg16
F0.59
sg17
Nsg18
I0
sg19
Nsg20
Nsg21
F0.734
sg22
Nsg23
Nsg24
F-2.898
ssg25
I01
sba(iSong
Song
p2726
(dp2727
g3
(dp2728
g5
F0.032
sg6
VUnforgettable
p2729
sg8
F130.02
sg9
F0.738
sg10
S'country'
p2730
sg12
F0.0303
sg13
VThomas Rhett
p2731
sg15
I9999
sg16
F0.663
sg17
Nsg18
F0.000225
sg19
Nsg20
Nsg21
F0.825
sg22
Nsg23
Nsg24
F-5.48
ssg25
I01
sba(iSong
Song
p2732
(dp2733
g3
(dp2734
g5
F0.081
sg6
VI Got You
p2735
sg8
F91.93
sg9
F0.88
sg10
S'country'
p2736
sg12
F0.0731
sg13
VJosh Mirenda
p2737
sg15
I9999
sg16
F0.49
sg17
Nsg18
I0
sg19
Nsg20
Nsg21
F0.493
sg22
Nsg23
Nsg24
F-5.185
ssg25
I01
sba(iSong
Song
p2738
(dp2739
g3
(dp2740
g5
F0.00379
sg6
VNothin Like Us
p2741
sg8
F74.972
sg9
F0.856
sg10
S'country'
p2742
sg12
F0.0629
sg13
VJosh Gracin
p2743
sg15
I9999
sg16
F0.527
sg17
Nsg18
I0
sg19
Nsg20
Nsg21
F0.573
sg22
Nsg23
Nsg24
F-4.239
ssg25
I01
sba(iSong
Song
p2744
(dp2745
g3
(dp2746
g5
F0.042
sg6
VLook At You
p2747
sg8
F104.027
sg9
F0.625
sg10
S'country'
p2748
sg12
F0.0284
sg13
VSeth Ennis
p2749
sg15
I9999
sg16
F0.687
sg17
Nsg18
I0
sg19
Nsg20
Nsg21
F0.866
sg22
Nsg23
Nsg24
F-6.942
ssg25
I01
sba(iSong
Song
p2750
(dp2751
g3
(dp2752
g5
F0.163
sg6
VI'll Name the Dogs
p2753
sg8
F168.063
sg9
F0.852
sg10
S'country'
p2754
sg12
F0.0933
sg13
VBlake Shelton
p2755
sg15
I9999
sg16
F0.47
sg17
Nsg18
F2.04e-06
sg19
Nsg20
Nsg21
F0.773
sg22
Nsg23
Nsg24
F-5.874
ssg25
I01
sba(iSong
Song
p2756
(dp2757
g3
(dp2758
g5
F0.047
sg6
VMeant to Be (feat. Florida Georgia Line)
p2759
sg8
F154.084
sg9
F0.783
sg10
S'country'
p2760
sg12
F0.0856
sg13
VBebe Rexha
p2761
sg15
I9999
sg16
F0.643
sg17
Nsg18
I0
sg19
Nsg20
Nsg21
F0.579
sg22
Nsg23
Nsg24
F-6.458
ssg25
I01
sba(iSong
Song
p2762
(dp2763
g3
(dp2764
g5
F0.179
sg6
VLike I Loved You
p2765
sg8
F76.02
sg9
F0.573
sg10
S'country'
p2766
sg12
F0.0292
sg13
VBrett Young
p2767
sg15
I9999
sg16
F0.579
sg17
Nsg18
I0
sg19
Nsg20
Nsg21
F0.637
sg22
Nsg23
Nsg24
F-5.991
ssg25
I01
sba(iSong
Song
p2768
(dp2769
g3
(dp2770
g5
F0.000907
sg6
VCraving You
p2771
sg8
F104.986
sg9
F0.841
sg10
S'country'
p2772
sg12
F0.0353
sg13
VThomas Rhett
p2773
sg15
I9999
sg16
F0.612
sg17
Nsg18
I0
sg19
Nsg20
Nsg21
F0.499
sg22
Nsg23
Nsg24
F-3.795
ssg25
I01
sba(iSong
Song
p2774
(dp2775
g3
(dp2776
g5
F0.0275
sg6
VThree Chords & The Truth
p2777
sg8
F166.074
sg9
F0.889
sg10
S'country'
p2778
sg12
F0.0462
sg13
VChase Rice
p2779
sg15
I9999
sg16
F0.44
sg17
Nsg18
I0
sg19
Nsg20
Nsg21
F0.409
sg22
Nsg23
Nsg24
F-4.723
ssg25
I01
sba(iSong
Song
p2780
(dp2781
g3
(dp2782
g5
F0.0677
sg6
VLosing Sleep
p2783
sg8
F92.003
sg9
F0.628
sg10
S'country'
p2784
sg12
F0.0431
sg13
VChris Young
p2785
sg15
I9999
sg16
F0.587
sg17
Nsg18
F1.88e-06
sg19
Nsg20
Nsg21
F0.649
sg22
Nsg23
Nsg24
F-5.703
ssg25
I01
sba(iSong
Song
p2786
(dp2787
g3
(dp2788
g5
F0.129
sg6
VLight It Up
p2789
sg8
F130.029
sg9
F0.935
sg10
S'country'
p2790
sg12
F0.0855
sg13
VLuke Bryan
p2791
sg15
I9999
sg16
F0.596
sg17
Nsg18
I0
sg19
Nsg20
Nsg21
F0.678
sg22
Nsg23
Nsg24
F-2.794
ssg25
I01
sba(iSong
Song
p2792
(dp2793
g3
(dp2794
g5
F0.00733
sg6
VSunday Morning
p2795
sg8
F90.005
sg9
F0.716
sg10
S'country'
p2796
sg12
F0.0342
sg13
VParmalee
p2797
sg15
I9999
sg16
F0.584
sg17
Nsg18
I0
sg19
Nsg20
Nsg21
F0.525
sg22
Nsg23
Nsg24
F-4.737
ssg25
I01
sba(iSong
Song
p2798
(dp2799
g3
(dp2800
g5
F0.083
sg6
VIt Don't Hurt Like It Used To
p2801
sg8
F161.981
sg9
F0.824
sg10
S'country'
p2802
sg12
F0.0524
sg13
VBilly Currington
p2803
sg15
I9999
sg16
F0.503
sg17
Nsg18
I0
sg19
Nsg20
Nsg21
F0.448
sg22
Nsg23
Nsg24
F-4.039
ssg25
I01
sba(iSong
Song
p2804
(dp2805
g3
(dp2806
g5
F0.0352
sg6
VBackroad Song
p2807
sg8
F174.006
sg9
F0.833
sg10
S'country'
p2808
sg12
F0.0437
sg13
VGranger Smith
p2809
sg15
I9999
sg16
F0.488
sg17
Nsg18
F0.0172
sg19
Nsg20
Nsg21
F0.751
sg22
Nsg23
Nsg24
F-6.571
ssg25
I01
sba(iSong
Song
p2810
(dp2811
g3
(dp2812
g5
F0.0216
sg6
VHighway Don't Care
p2813
sg8
F158.061
sg9
F0.79
sg10
S'country'
p2814
sg12
F0.039
sg13
VTim McGraw
p2815
sg15
I9999
sg16
F0.47
sg17
Nsg18
I0
sg19
Nsg20
Nsg21
F0.495
sg22
Nsg23
Nsg24
F-5.352
ssg25
I01
sba(iSong
Song
p2816
(dp2817
g3
(dp2818
g5
F0.0538
sg6
VTalladega
p2819
sg8
I144
sg9
F0.672
sg10
S'country'
p2820
sg12
F0.0294
sg13
VEric Church
p2821
sg15
I9999
sg16
F0.584
sg17
Nsg18
F0.0481
sg19
Nsg20
Nsg21
F0.556
sg22
Nsg23
Nsg24
F-8.309
ssg25
I01
sba(iSong
Song
p2822
(dp2823
g3
(dp2824
g5
F0.00407
sg6
VRound Here
p2825
sg8
F141.977
sg9
F0.956
sg10
S'country'
p2826
sg12
F0.0379
sg13
VFlorida Georgia Line
p2827
sg15
I9999
sg16
F0.523
sg17
Nsg18
I0
sg19
Nsg20
Nsg21
F0.888
sg22
Nsg23
Nsg24
F-3.053
ssg25
I01
sba(iSong
Song
p2828
(dp2829
g3
(dp2830
g5
F0.12
sg6
VYours
p2831
sg8
F133.975
sg9
F0.796
sg10
S'country'
p2832
sg12
F0.0313
sg13
VRussell Dickerson
p2833
sg15
I9999
sg16
F0.568
sg17
Nsg18
I0
sg19
Nsg20
Nsg21
F0.573
sg22
Nsg23
Nsg24
F-5.308
ssg25
I01
sba(iSong
Song
p2834
(dp2835
g3
(dp2836
g5
F0.0266
sg6
VMind Reader
p2837
sg8
F162.053
sg9
F0.8
sg10
S'country'
p2838
sg12
F0.0413
sg13
VDustin Lynch
p2839
sg15
I9999
sg16
F0.394
sg17
Nsg18
I0
sg19
Nsg20
Nsg21
F0.525
sg22
Nsg23
Nsg24
F-4.17
ssg25
I01
sba(iSong
Song
p2840
(dp2841
g3
(dp2842
g5
F0.166
sg6
VRebound
p2843
sg8
F135.97
sg9
F0.795
sg10
S'country'
p2844
sg12
F0.0302
sg13
VDrew Baldridge
p2845
sg15
I9999
sg16
F0.599
sg17
Nsg18
F4.23e-06
sg19
Nsg20
Nsg21
F0.566
sg22
Nsg23
Nsg24
F-4.47
ssg25
I01
sba(iSong
Song
p2846
(dp2847
g3
(dp2848
g5
F0.013
sg6
VSleep Without You
p2849
sg8
F88.541
sg9
F0.716
sg10
S'country'
p2850
sg12
F0.0432
sg13
VBrett Young
p2851
sg15
I9999
sg16
F0.631
sg17
Nsg18
I0
sg19
Nsg20
Nsg21
F0.647
sg22
Nsg23
Nsg24
F-5.713
ssg25
I01
sba(iSong
Song
p2852
(dp2853
g3
(dp2854
g5
F0.255
sg6
VSure Be Cool If You Did
p2855
sg8
F136.802
sg9
F0.726
sg10
S'country'
p2856
sg12
F0.035
sg13
VBlake Shelton
p2857
sg15
I9999
sg16
F0.576
sg17
Nsg18
I0
sg19
Nsg20
Nsg21
F0.582
sg22
Nsg23
Nsg24
F-4.625
ssg25
I01
sba(iSong
Song
p2858
(dp2859
g3
(dp2860
g5
F0.0406
sg6
VMay We All
p2861
sg8
F75.019
sg9
F0.915
sg10
S'country'
p2862
sg12
F0.0389
sg13
VFlorida Georgia Line
p2863
sg15
I9999
sg16
F0.488
sg17
Nsg18
I0
sg19
Nsg20
Nsg21
F0.646
sg22
Nsg23
Nsg24
F-4.255
ssg25
I01
sba(iSong
Song
p2864
(dp2865
g3
(dp2866
g5
F0.178
sg6
VRecord Year
p2867
sg8
F159.96
sg9
F0.655
sg10
S'country'
p2868
sg12
F0.12
sg13
VEric Church
p2869
sg15
I9999
sg16
F0.585
sg17
Nsg18
I0
sg19
Nsg20
Nsg21
F0.574
sg22
Nsg23
Nsg24
F-8.151
ssg25
I01
sba(iSong
Song
p2870
(dp2871
g3
(dp2872
g5
F0.606
sg6
VBlue Ain't Your Color
p2873
sg8
F82.407
sg9
F0.417
sg10
S'country'
p2874
sg12
F0.0363
sg13
VKeith Urban
p2875
sg15
I9999
sg16
F0.686
sg17
Nsg18
F1.79e-06
sg19
Nsg20
Nsg21
F0.451
sg22
Nsg23
Nsg24
F-7.787
ssg25
I01
sba(iSong
Song
p2876
(dp2877
g3
(dp2878
g5
F0.0919
sg6
VHead Over Boots
p2879
sg8
F108.078
sg9
F0.669
sg10
S'country'
p2880
sg12
F0.0237
sg13
VJon Pardi
p2881
sg15
I9999
sg16
F0.637
sg17
Nsg18
I0
sg19
Nsg20
Nsg21
F0.638
sg22
Nsg23
Nsg24
F-4.608
ssg25
I01
sba(iSong
Song
p2882
(dp2883
g3
(dp2884
g5
F0.0318
sg6
VT-Shirt
p2885
sg8
F95.996
sg9
F0.857
sg10
S'country'
p2886
sg12
F0.0397
sg13
VThomas Rhett
p2887
sg15
I9999
sg16
F0.647
sg17
Nsg18
I0
sg19
Nsg20
Nsg21
F0.771
sg22
Nsg23
Nsg24
F-5.381
ssg25
I01
sba(iSong
Song
p2888
(dp2889
g3
(dp2890
g5
F0.00167
sg6
VHoney Bee
p2891
sg8
F205.57
sg9
F0.849
sg10
S'country'
p2892
sg12
F0.0385
sg13
VBlake Shelton
p2893
sg15
I9999
sg16
F0.481
sg17
Nsg18
F1.49e-06
sg19
Nsg20
Nsg21
F0.723
sg22
Nsg23
Nsg24
F-5.131
ssg25
I01
sba(iSong
Song
p2894
(dp2895
g3
(dp2896
g5
F0.0661
sg6
VDirt
p2897
sg8
F121.976
sg9
F0.875
sg10
S'country'
p2898
sg12
F0.0487
sg13
VFlorida Georgia Line
p2899
sg15
I9999
sg16
F0.554
sg17
Nsg18
F1.59e-05
sg19
Nsg20
Nsg21
F0.543
sg22
Nsg23
Nsg24
F-4.185
ssg25
I01
sba(iSong
Song
p2900
(dp2901
g3
(dp2902
g5
F0.305
sg6
VSnapback
p2903
sg8
F100.991
sg9
F0.793
sg10
S'country'
p2904
sg12
F0.0333
sg13
VOld Dominion
p2905
sg15
I9999
sg16
F0.687
sg17
Nsg18
F3.23e-06
sg19
Nsg20
Nsg21
F0.673
sg22
Nsg23
Nsg24
F-3.577
ssg25
I01
sba(iSong
Song
p2906
(dp2907
g3
(dp2908
g5
F0.456
sg6
VWagon Wheel
p2909
sg8
F148.102
sg9
F0.663
sg10
S'country'
p2910
sg12
F0.0306
sg13
VDarius Rucker
p2911
sg15
I9999
sg16
F0.529
sg17
Nsg18
I0
sg19
Nsg20
Nsg21
F0.592
sg22
Nsg23
Nsg24
F-7.138
ssg25
I01
sba(iSong
Song
p2912
(dp2913
g3
(dp2914
g5
F0.0371
sg6
VRunnin' Outta Moonlight
p2915
sg8
F172.05
sg9
F0.801
sg10
S'country'
p2916
sg12
F0.0393
sg13
VRandy Houser
p2917
sg15
I9999
sg16
F0.532
sg17
Nsg18
F7.07e-06
sg19
Nsg20
Nsg21
F0.799
sg22
Nsg23
Nsg24
F-3.759
ssg25
I01
sba(iSong
Song
p2918
(dp2919
g3
(dp2920
g5
F0.0575
sg6
VNight Train
p2921
sg8
F158.037
sg9
F0.708
sg10
S'country'
p2922
sg12
F0.0291
sg13
VJason Aldean
p2923
sg15
I9999
sg16
F0.493
sg17
Nsg18
I0
sg19
Nsg20
Nsg21
F0.547
sg22
Nsg23
Nsg24
F-5.196
ssg25
I01
sba(iSong
Song
p2924
(dp2925
g3
(dp2926
g5
F0.00172
sg6
VAnything Goes
p2927
sg8
F154.038
sg9
F0.977
sg10
S'country'
p2928
sg12
F0.045
sg13
VFlorida Georgia Line
p2929
sg15
I9999
sg16
F0.462
sg17
Nsg18
I0
sg19
Nsg20
Nsg21
F0.746
sg22
Nsg23
Nsg24
F-3.805
ssg25
I01
sba(iSong
Song
p2930
(dp2931
g3
(dp2932
g5
F0.017
sg6
VSangria
p2933
sg8
F115.984
sg9
F0.724
sg10
S'country'
p2934
sg12
F0.0265
sg13
VBlake Shelton
p2935
sg15
I9999
sg16
F0.646
sg17
Nsg18
F1.39e-06
sg19
Nsg20
Nsg21
F0.54
sg22
Nsg23
Nsg24
F-6.96
ssg25
I01
sba(iSong
Song
p2936
(dp2937
g3
(dp2938
g5
F0.0539
sg6
VI Want Crazy - Encore
p2939
sg8
F103.029
sg9
F0.878
sg10
S'country'
p2940
sg12
F0.0387
sg13
VHunter Hayes
p2941
sg15
I9999
sg16
F0.562
sg17
Nsg18
I0
sg19
Nsg20
Nsg21
F0.558
sg22
Nsg23
Nsg24
F-4.806
ssg25
I01
sba(iSong
Song
p2942
(dp2943
g3
(dp2944
g5
F0.0282
sg6
VI'm Comin' Over
p2945
sg8
F127.997
sg9
F0.845
sg10
S'country'
p2946
sg12
F0.035
sg13
VChris Young
p2947
sg15
I9999
sg16
F0.575
sg17
Nsg18
I0
sg19
Nsg20
Nsg21
F0.376
sg22
Nsg23
Nsg24
F-3.838
ssg25
I01
sba(iSong
Song
p2948
(dp2949
g3
(dp2950
g5
F0.275
sg6
VI Like The Sound Of That
p2951
sg8
F89.964
sg9
F0.813
sg10
S'country'
p2952
sg12
F0.0368
sg13
VRascal Flatts
p2953
sg15
I9999
sg16
F0.609
sg17
Nsg18
I0
sg19
Nsg20
Nsg21
F0.54
sg22
Nsg23
Nsg24
F-5.599
ssg25
I01
sba(iSong
Song
p2954
(dp2955
g3
(dp2956
g5
F0.00512
sg6
VDrunk On A Plane
p2957
sg8
F205.958
sg9
F0.754
sg10
S'country'
p2958
sg12
F0.0323
sg13
VDierks Bentley
p2959
sg15
I9999
sg16
F0.439
sg17
Nsg18
F7.45e-06
sg19
Nsg20
Nsg21
F0.668
sg22
Nsg23
Nsg24
F-5.566
ssg25
I01
sba(iSong
Song
p2960
(dp2961
g3
(dp2962
g5
F0.101
sg6
VConfession
p2963
sg8
F104.986
sg9
F0.873
sg10
S'country'
p2964
sg12
F0.0348
sg13
VFlorida Georgia Line
p2965
sg15
I9999
sg16
F0.556
sg17
Nsg18
F0.000131
sg19
Nsg20
Nsg21
F0.48
sg22
Nsg23
Nsg24
F-5.056
ssg25
I01
sba(iSong
Song
p2966
(dp2967
g3
(dp2968
g5
F0.241
sg6
VNight's On Fire
p2969
sg8
F164.077
sg9
F0.779
sg10
S'country'
p2970
sg12
F0.0454
sg13
VDavid Nail
p2971
sg15
I9999
sg16
F0.543
sg17
Nsg18
I0
sg19
Nsg20
Nsg21
F0.758
sg22
Nsg23
Nsg24
F-4.131
ssg25
I01
sba(iSong
Song
p2972
(dp2973
g3
(dp2974
g5
F0.0471
sg6
VEvery Storm (Runs Out Of Rain)
p2975
sg8
F107.001
sg9
F0.722
sg10
S'country'
p2976
sg12
F0.0341
sg13
VGary Allan
p2977
sg15
I9999
sg16
F0.533
sg17
Nsg18
F8.99e-06
sg19
Nsg20
Nsg21
F0.396
sg22
Nsg23
Nsg24
F-6.817
ssg25
I01
sba(iSong
Song
p2978
(dp2979
g3
(dp2980
g5
F0.000937
sg6
VThink of You
p2981
sg8
F111.959
sg9
F0.893
sg10
S'country'
p2982
sg12
F0.0375
sg13
VChris Young
p2983
sg15
I9999
sg16
F0.616
sg17
Nsg18
I0
sg19
Nsg20
Nsg21
F0.567
sg22
Nsg23
Nsg24
F-3.588
ssg25
I01
sba(iSong
Song
p2984
(dp2985
g3
(dp2986
g5
F0.0832
sg6
VPlay It Again
p2987
sg8
F144.056
sg9
F0.898
sg10
S'country'
p2988
sg12
F0.0696
sg13
VLuke Bryan
p2989
sg15
I9999
sg16
F0.51
sg17
Nsg18
I0
sg19
Nsg20
Nsg21
F0.596
sg22
Nsg23
Nsg24
F-3.15
ssg25
I01
sba(iSong
Song
p2990
(dp2991
g3
(dp2992
g5
F0.129
sg6
VHouse Party
p2993
sg8
F103.952
sg9
F0.854
sg10
S'country'
p2994
sg12
F0.0503
sg13
VSam Hunt
p2995
sg15
I9999
sg16
F0.749
sg17
Nsg18
I0
sg19
Nsg20
Nsg21
F0.842
sg22
Nsg23
Nsg24
F-5.245
ssg25
I01
sba(iSong
Song
p2996
(dp2997
g3
(dp2998
g5
F0.385
sg6
VH.O.L.Y.
p2999
sg8
F78.003
sg9
F0.685
sg10
S'country'
p3000
sg12
F0.0351
sg13
VFlorida Georgia Line
p3001
sg15
I9999
sg16
F0.525
sg17
Nsg18
I0
sg19
Nsg20
Nsg21
F0.54
sg22
Nsg23
Nsg24
F-3.954
ssg25
I01
sba(iSong
Song
p3002
(dp3003
g3
(dp3004
g5
F0.693
sg6
VHumble And Kind
p3005
sg8
F101.053
sg9
F0.486
sg10
S'country'
p3006
sg12
F0.0289
sg13
VTim McGraw
p3007
sg15
I9999
sg16
F0.349
sg17
Nsg18
F1.73e-06
sg19
Nsg20
Nsg21
F0.158
sg22
Nsg23
Nsg24
F-7.232
ssg25
I01
sba(iSong
Song
p3008
(dp3009
g3
(dp3010
g5
F0.0119
sg6
VHard To Love
p3011
sg8
F103.017
sg9
F0.722
sg10
S'country'
p3012
sg12
F0.0332
sg13
VLee Brice
p3013
sg15
I9999
sg16
F0.638
sg17
Nsg18
F0.00808
sg19
Nsg20
Nsg21
F0.469
sg22
Nsg23
Nsg24
F-6.177
ssg25
I01
sba(iSong
Song
p3014
(dp3015
g3
(dp3016
g5
F0.0718
sg6
VBreak Up with Him
p3017
sg8
F152.086
sg9
F0.65
sg10
S'country'
p3018
sg12
F0.0347
sg13
VOld Dominion
p3019
sg15
I9999
sg16
F0.615
sg17
Nsg18
I0
sg19
Nsg20
Nsg21
F0.548
sg22
Nsg23
Nsg24
F-4.944
ssg25
I01
sba(iSong
Song
p3020
(dp3021
g3
(dp3022
g5
F0.0102
sg6
VYours If You Want It
p3023
sg8
F113.054
sg9
F0.91
sg10
S'country'
p3024
sg12
F0.0566
sg13
VRascal Flatts
p3025
sg15
I9999
sg16
F0.533
sg17
Nsg18
I0
sg19
Nsg20
Nsg21
F0.494
sg22
Nsg23
Nsg24
F-3.087
ssg25
I01
sba(iSong
Song
p3026
(dp3027
g3
(dp3028
g5
F0.381
sg6
VDie A Happy Man
p3029
sg8
F83.096
sg9
F0.383
sg10
S'country'
p3030
sg12
F0.0304
sg13
VThomas Rhett
p3031
sg15
I9999
sg16
F0.66
sg17
Nsg18
I0
sg19
Nsg20
Nsg21
F0.381
sg22
Nsg23
Nsg24
F-9.377
ssg25
I01
sba(iSong
Song
p3032
(dp3033
g3
(dp3034
g5
F0.014
sg6
VParachute
p3035
sg8
F113.033
sg9
F0.749
sg10
S'country'
p3036
sg12
F0.0297
sg13
VChris Stapleton
p3037
sg15
I9999
sg16
F0.639
sg17
Nsg18
F3.52e-05
sg19
Nsg20
Nsg21
F0.648
sg22
Nsg23
Nsg24
F-7.327
ssg25
I01
sba(iSong
Song
p3038
(dp3039
g3
(dp3040
g5
F0.0435
sg6
VAutomatic
p3041
sg8
F95.993
sg9
F0.703
sg10
S'country'
p3042
sg12
F0.0256
sg13
VMiranda Lambert
p3043
sg15
I9999
sg16
F0.591
sg17
Nsg18
F2.34e-06
sg19
Nsg20
Nsg21
F0.402
sg22
Nsg23
Nsg24
F-6.211
ssg25
I01
sba(iSong
Song
p3044
(dp3045
g3
(dp3046
g5
F0.0408
sg6
VStay A Little Longer
p3047
sg8
F97.006
sg9
F0.882
sg10
S'country'
p3048
sg12
F0.0294
sg13
VBrothers Osborne
p3049
sg15
I9999
sg16
F0.553
sg17
Nsg18
F0.241
sg19
Nsg20
Nsg21
F0.529
sg22
Nsg23
Nsg24
F-5.515
ssg25
I01
sba(iSong
Song
p3050
(dp3051
g3
(dp3052
g5
F0.168
sg6
VMake You Miss Me
p3053
sg8
F146.026
sg9
F0.468
sg10
S'country'
p3054
sg12
F0.0314
sg13
VSam Hunt
p3055
sg15
I9999
sg16
F0.612
sg17
Nsg18
I0
sg19
Nsg20
Nsg21
F0.165
sg22
Nsg23
Nsg24
F-6.597
ssg25
I01
sba(iSong
Song
p3056
(dp3057
g3
(dp3058
g5
F0.119
sg6
VTil Tomorrow
p3059
sg8
F156.98
sg9
F0.834
sg10
S'country'
p3060
sg12
F0.0553
sg13
VWalker McGuire
p3061
sg15
I9999
sg16
F0.46
sg17
Nsg18
F9.12e-06
sg19
Nsg20
Nsg21
F0.29
sg22
Nsg23
Nsg24
F-4.749
ssg25
I01
sba(iSong
Song
p3062
(dp3063
g3
(dp3064
g5
F0.1
sg6
VSpringsteen
p3065
sg8
F104.023
sg9
F0.809
sg10
S'country'
p3066
sg12
F0.0255
sg13
VEric Church
p3067
sg15
I9999
sg16
F0.692
sg17
Nsg18
F9.77e-05
sg19
Nsg20
Nsg21
F0.927
sg22
Nsg23
Nsg24
F-5.935
ssg25
I01
sba(iSong
Song
p3068
(dp3069
g3
(dp3070
g5
F0.0127
sg6
VLove You Like That
p3071
sg8
F145.129
sg9
F0.756
sg10
S'country'
p3072
sg12
F0.0287
sg13
VCanaan Smith
p3073
sg15
I9999
sg16
F0.561
sg17
Nsg18
F8.34e-05
sg19
Nsg20
Nsg21
F0.702
sg22
Nsg23
Nsg24
F-5.056
ssg25
I01
sba(iSong
Song
p3074
(dp3075
g3
(dp3076
g5
F0.00265
sg6
VGet Your Shine On
p3077
sg8
F96.993
sg9
F0.93
sg10
S'country'
p3078
sg12
F0.0372
sg13
VFlorida Georgia Line
p3079
sg15
I9999
sg16
F0.508
sg17
Nsg18
F2.64e-06
sg19
Nsg20
Nsg21
F0.607
sg22
Nsg23
Nsg24
F-4.518
ssg25
I01
sba(iSong
Song
p3080
(dp3081
g3
(dp3082
g5
F0.399
sg6
VI Don't Dance
p3083
sg8
F92.036
sg9
F0.559
sg10
S'country'
p3084
sg12
F0.0321
sg13
VLee Brice
p3085
sg15
I9999
sg16
F0.587
sg17
Nsg18
F6.69e-06
sg19
Nsg20
Nsg21
F0.19
sg22
Nsg23
Nsg24
F-7.742
ssg25
I01
sba(iSong
Song
p3086
(dp3087
g3
(dp3088
g5
F0.125
sg6
VSong for Another Time
p3089
sg8
F166.048
sg9
F0.805
sg10
S'country'
p3090
sg12
F0.0332
sg13
VOld Dominion
p3091
sg15
I9999
sg16
F0.497
sg17
Nsg18
I0
sg19
Nsg20
Nsg21
F0.696
sg22
Nsg23
Nsg24
F-3.995
ssg25
I01
sba(iSong
Song
p3092
(dp3093
g3
(dp3094
g5
F0.0914
sg6
VFix
p3095
sg8
F100.011
sg9
F0.896
sg10
S'country'
p3096
sg12
F0.0375
sg13
VChris Lane
p3097
sg15
I9999
sg16
F0.532
sg17
Nsg18
I0
sg19
Nsg20
Nsg21
F0.696
sg22
Nsg23
Nsg24
F-1.954
ssg25
I01
sba(iSong
Song
p3098
(dp3099
g3
(dp3100
g5
F0.0721
sg6
VEverything's Gonna Be Alright
p3101
sg8
F89.98
sg9
F0.587
sg10
S'country'
p3102
sg12
F0.0298
sg13
VDavid Lee Murphy
p3103
sg15
I9999
sg16
F0.764
sg17
Nsg18
F6.45e-06
sg19
Nsg20
Nsg21
F0.494
sg22
Nsg23
Nsg24
F-7.002
ssg25
I01
sba(iSong
Song
p3104
(dp3105
g3
(dp3106
g5
F0.253
sg6
VDon't Waste the Night
p3107
sg8
F109.945
sg9
F0.699
sg10
S'country'
p3108
sg12
F0.0323
sg13
VLevi Hummon
p3109
sg15
I9999
sg16
F0.568
sg17
Nsg18
I0
sg19
Nsg20
Nsg21
F0.553
sg22
Nsg23
Nsg24
F-4.866
ssg25
I01
sba(iSong
Song
p3110
(dp3111
g3
(dp3112
g5
F0.0125
sg6
VGuns & Roses
p3113
sg8
F156.028
sg9
F0.882
sg10
S'country'
p3114
sg12
F0.0646
sg13
VDrew Baldridge
p3115
sg15
I9999
sg16
F0.633
sg17
Nsg18
I0
sg19
Nsg20
Nsg21
F0.722
sg22
Nsg23
Nsg24
F-5.12
ssg25
I01
sba(iSong
Song
p3116
(dp3117
g3
(dp3118
g5
F0.00585
sg6
VOne Number Away
p3119
sg8
F144.075
sg9
F0.781
sg10
S'country'
p3120
sg12
F0.0311
sg13
VLuke Combs
p3121
sg15
I9999
sg16
F0.544
sg17
Nsg18
I0
sg19
Nsg20
Nsg21
F0.527
sg22
Nsg23
Nsg24
F-6.16
ssg25
I01
sba(iSong
Song
p3122
(dp3123
g3
(dp3124
g5
F0.401
sg6
VSway
p3125
sg8
F97.004
sg9
F0.724
sg10
S'country'
p3126
sg12
F0.0273
sg13
VDanielle Bradbery
p3127
sg15
I9999
sg16
F0.695
sg17
Nsg18
I0
sg19
Nsg20
Nsg21
F0.606
sg22
Nsg23
Nsg24
F-4.521
ssg25
I01
sba(iSong
Song
p3128
(dp3129
g3
(dp3130
g5
F0.144
sg6
VAll On Me
p3131
sg8
F80.996
sg9
F0.658
sg10
S'country'
p3132
sg12
F0.0281
sg13
VDevin Dawson
p3133
sg15
I9999
sg16
F0.631
sg17
Nsg18
I0
sg19
Nsg20
Nsg21
F0.7
sg22
Nsg23
Nsg24
F-5.313
ssg25
I01
sba(iSong
Song
p3134
(dp3135
g3
(dp3136
g5
F0.0351
sg6
VStupid
p3137
sg8
F92.021
sg9
F0.868
sg10
S'country'
p3138
sg12
F0.0384
sg13
VLevi Hummon
p3139
sg15
I9999
sg16
F0.588
sg17
Nsg18
I0
sg19
Nsg20
Nsg21
F0.559
sg22
Nsg23
Nsg24
F-4.904
ssg25
I01
sba(iSong
Song
p3140
(dp3141
g3
(dp3142
g5
F0.0913
sg6
VUp Down (Feat. Florida Georgia Line)
p3143
sg8
F129.928
sg9
F0.881
sg10
S'country'
p3144
sg12
F0.0349
sg13
VMorgan Wallen
p3145
sg15
I9999
sg16
F0.59
sg17
Nsg18
I0
sg19
Nsg20
Nsg21
F0.734
sg22
Nsg23
Nsg24
F-2.898
ssg25
I01
sba(iSong
Song
p3146
(dp3147
g3
(dp3148
g5
F0.334
sg6
VGet to You
p3149
sg8
F167.938
sg9
F0.565
sg10
S'country'
p3150
sg12
F0.0326
sg13
VMichael Ray
p3151
sg15
I9999
sg16
F0.486
sg17
Nsg18
F0.00041
sg19
Nsg20
Nsg21
F0.21
sg22
Nsg23
Nsg24
F-5.655
ssg25
I01
sba(iSong
Song
p3152
(dp3153
g3
(dp3154
g5
F0.0466
sg6
VSeeing Blind
p3155
sg8
F93.957
sg9
F0.571
sg10
S'country'
p3156
sg12
F0.0405
sg13
VNiall Horan
p3157
sg15
I9999
sg16
F0.709
sg17
Nsg18
I0
sg19
Nsg20
Nsg21
F0.51
sg22
Nsg23
Nsg24
F-7.617
ssg25
I01
sba(iSong
Song
p3158
(dp3159
g3
(dp3160
g5
F0.259
sg6
VThey Can't See
p3161
sg8
F93.907
sg9
F0.571
sg10
S'country'
p3162
sg12
F0.0326
sg13
VMichael Tyler
p3163
sg15
I9999
sg16
F0.638
sg17
Nsg18
I0
sg19
Nsg20
Nsg21
F0.629
sg22
Nsg23
Nsg24
F-6.722
ssg25
I01
sba(iSong
Song
p3164
(dp3165
g3
(dp3166
g5
F0.0525
sg6
VAll Over
p3167
sg8
F89.987
sg9
F0.776
sg10
S'country'
p3168
sg12
F0.0641
sg13
VCale Dodds
p3169
sg15
I9999
sg16
F0.576
sg17
Nsg18
I0
sg19
Nsg20
Nsg21
F0.577
sg22
Nsg23
Nsg24
F-4.975
ssg25
I01
sba(iSong
Song
p3170
(dp3171
g3
(dp3172
g5
F0.143
sg6
VKiss Somebody
p3173
sg8
F178.01
sg9
F0.681
sg10
S'country'
p3174
sg12
F0.075
sg13
VMorgan Evans
p3175
sg15
I9999
sg16
F0.492
sg17
Nsg18
I0
sg19
Nsg20
Nsg21
F0.511
sg22
Nsg23
Nsg24
F-7.038
ssg25
I01
sba(iSong
Song
p3176
(dp3177
g3
(dp3178
g5
F0.0208
sg6
VBlue Jean Baby
p3179
sg8
F86.992
sg9
F0.701
sg10
S'country'
p3180
sg12
F0.0347
sg13
VJimmie Allen
p3181
sg15
I9999
sg16
F0.642
sg17
Nsg18
I0
sg19
Nsg20
Nsg21
F0.834
sg22
Nsg23
Nsg24
F-6.383
ssg25
I01
sba(iSong
Song
p3182
(dp3183
g3
(dp3184
g5
F0.0738
sg6
VSleeves
p3185
sg8
F95.122
sg9
F0.622
sg10
S'country'
p3186
sg12
F0.0362
sg13
VJake Rose
p3187
sg15
I9999
sg16
F0.716
sg17
Nsg18
I0
sg19
Nsg20
Nsg21
F0.367
sg22
Nsg23
Nsg24
F-6.416
ssg25
I01
sba(iSong
Song
p3188
(dp3189
g3
(dp3190
g5
F0.0141
sg6
VHow Does It Sound
p3191
sg8
F82.007
sg9
F0.761
sg10
S'country'
p3192
sg12
F0.0287
sg13
VDylan Schneider
p3193
sg15
I9999
sg16
F0.536
sg17
Nsg18
I0
sg19
Nsg20
Nsg21
F0.495
sg22
Nsg23
Nsg24
F-5.532
ssg25
I01
sba(iSong
Song
p3194
(dp3195
g3
(dp3196
g5
F0.0362
sg6
VHooked
p3197
sg8
F132.054
sg9
F0.721
sg10
S'country'
p3198
sg12
F0.0356
sg13
VDylan Scott
p3199
sg15
I9999
sg16
F0.597
sg17
Nsg18
I0
sg19
Nsg20
Nsg21
F0.437
sg22
Nsg23
Nsg24
F-6.422
ssg25
I01
sba(iSong
Song
p3200
(dp3201
g3
(dp3202
g5
F0.219
sg6
VPut It in a Song
p3203
sg8
F122.502
sg9
F0.753
sg10
S'country'
p3204
sg12
F0.0856
sg13
VTaylor Acorn
p3205
sg15
I9999
sg16
F0.426
sg17
Nsg18
I0
sg19
Nsg20
Nsg21
F0.706
sg22
Nsg23
Nsg24
F-3.628
ssg25
I01
sba(iSong
Song
p3206
(dp3207
g3
(dp3208
g5
F0.263
sg6
VHeaven
p3209
sg8
F80.009
sg9
F0.556
sg10
S'country'
p3210
sg12
F0.0306
sg13
VKane Brown
p3211
sg15
I9999
sg16
F0.677
sg17
Nsg18
I0
sg19
Nsg20
Nsg21
F0.521
sg22
Nsg23
Nsg24
F-6.544
ssg25
I01
sba(iSong
Song
p3212
(dp3213
g3
(dp3214
g5
F0.0205
sg6
VSomebody to Thank
p3215
sg8
F135.966
sg9
F0.675
sg10
S'country'
p3216
sg12
F0.0263
sg13
VLogan Mize
p3217
sg15
I9999
sg16
F0.615
sg17
Nsg18
I0
sg19
Nsg20
Nsg21
F0.512
sg22
Nsg23
Nsg24
F-4.717
ssg25
I01
sba(iSong
Song
p3218
(dp3219
g3
(dp3220
g5
F0.0383
sg6
VDiane
p3221
sg8
F141.045
sg9
F0.869
sg10
S'country'
p3222
sg12
F0.125
sg13
VCam
p3223
sg15
I9999
sg16
F0.545
sg17
Nsg18
I0
sg19
Nsg20
Nsg21
F0.204
sg22
Nsg23
Nsg24
F-1.832
ssg25
I01
sba(iSong
Song
p3224
(dp3225
g3
(dp3226
g5
F0.0274
sg6
VSame Beer Different Day
p3227
sg8
F117.009
sg9
F0.865
sg10
S'country'
p3228
sg12
F0.0417
sg13
VAustin Jenckes
p3229
sg15
I9999
sg16
F0.604
sg17
Nsg18
F0.00766
sg19
Nsg20
Nsg21
F0.354
sg22
Nsg23
Nsg24
F-5.773
ssg25
I01
sba(iSong
Song
p3230
(dp3231
g3
(dp3232
g5
F0.203
sg6
VAirplane
p3233
sg8
F138.094
sg9
F0.761
sg10
S'country'
p3234
sg12
F0.0373
sg13
VCJ Solar
p3235
sg15
I9999
sg16
F0.481
sg17
Nsg18
I0
sg19
Nsg20
Nsg21
F0.505
sg22
Nsg23
Nsg24
F-3.782
ssg25
I01
sba(iSong
Song
p3236
(dp3237
g3
(dp3238
g5
F0.0528
sg6
VFound You
p3239
sg8
F164.144
sg9
F0.821
sg10
S'country'
p3240
sg12
F0.0404
sg13
VKane Brown
p3241
sg15
I9999
sg16
F0.46
sg17
Nsg18
I0
sg19
Nsg20
Nsg21
F0.438
sg22
Nsg23
Nsg24
F-5.333
ssg25
I01
sba(iSong
Song
p3242
(dp3243
g3
(dp3244
g5
F0.0441
sg6
VSingles You Up
p3245
sg8
F200.054
sg9
F0.9
sg10
S'country'
p3246
sg12
F0.0488
sg13
VJordan Davis
p3247
sg15
I9999
sg16
F0.489
sg17
Nsg18
I0
sg19
Nsg20
Nsg21
F0.611
sg22
Nsg23
Nsg24
F-3.563
ssg25
I01
sba(iSong
Song
p3248
(dp3249
g3
(dp3250
g5
F0.168
sg6
VProof Is on Your Lips
p3251
sg8
F143.926
sg9
F0.807
sg10
S'country'
p3252
sg12
F0.033
sg13
VRyan Robinette
p3253
sg15
I9999
sg16
F0.455
sg17
Nsg18
I0
sg19
Nsg20
Nsg21
F0.685
sg22
Nsg23
Nsg24
F-5.053
ssg25
I01
sba(iSong
Song
p3254
(dp3255
g3
(dp3256
g5
F0.534
sg6
VLet Me Help You With That
p3257
sg8
F117.907
sg9
F0.449
sg10
S'country'
p3258
sg12
F0.0362
sg13
VPayton Smith
p3259
sg15
I9999
sg16
F0.685
sg17
Nsg18
I0
sg19
Nsg20
Nsg21
F0.253
sg22
Nsg23
Nsg24
F-7.797
ssg25
I01
sba(iSong
Song
p3260
(dp3261
g3
(dp3262
g5
F0.216
sg6
VOut of My System
p3263
sg8
F92.134
sg9
F0.897
sg10
S'country'
p3264
sg12
F0.0964
sg13
VCale Dodds
p3265
sg15
I9999
sg16
F0.57
sg17
Nsg18
I0
sg19
Nsg20
Nsg21
F0.547
sg22
Nsg23
Nsg24
F-4.62
ssg25
I01
sba(iSong
Song
p3266
(dp3267
g3
(dp3268
g5
F0.269
sg6
VThankful For
p3269
sg8
F106.937
sg9
F0.911
sg10
S'country'
p3270
sg12
F0.0487
sg13
VAdam Sanders
p3271
sg15
I9999
sg16
F0.555
sg17
Nsg18
I0
sg19
Nsg20
Nsg21
F0.768
sg22
Nsg23
Nsg24
F-3.174
ssg25
I01
sba(iSong
Song
p3272
(dp3273
g3
(dp3274
g5
F0.0109
sg6
VRollin' - Single Mix
p3275
sg8
F101.984
sg9
F0.927
sg10
S'country'
p3276
sg12
F0.0434
sg13
VJackson Michelson
p3277
sg15
I9999
sg16
F0.682
sg17
Nsg18
F2.26e-06
sg19
Nsg20
Nsg21
F0.82
sg22
Nsg23
Nsg24
F-4.328
ssg25
I01
sba(iSong
Song
p3278
(dp3279
g3
(dp3280
g5
F0.302
sg6
VSpeakers, Bleachers And Preachers
p3281
sg8
F96.02
sg9
F0.625
sg10
S'country'
p3282
sg12
F0.0258
sg13
VBrandon Lay
p3283
sg15
I9999
sg16
F0.603
sg17
Nsg18
I0
sg19
Nsg20
Nsg21
F0.651
sg22
Nsg23
Nsg24
F-6.563
ssg25
I01
sba(iSong
Song
p3284
(dp3285
g3
(dp3286
g5
F0.216
sg6
VWe Were That Song
p3287
sg8
F102.956
sg9
F0.911
sg10
S'country'
p3288
sg12
F0.05
sg13
VBrett Kissel
p3289
sg15
I9999
sg16
F0.618
sg17
Nsg18
I0
sg19
Nsg20
Nsg21
F0.501
sg22
Nsg23
Nsg24
F-3.323
ssg25
I01
sba(iSong
Song
p3290
(dp3291
g3
(dp3292
g5
F0.323
sg6
VEyes On You
p3293
sg8
F97.155
sg9
F0.652
sg10
S'country'
p3294
sg12
F0.0281
sg13
VChase Rice
p3295
sg15
I9999
sg16
F0.606
sg17
Nsg18
I0
sg19
Nsg20
Nsg21
F0.476
sg22
Nsg23
Nsg24
F-6.982
ssg25
I01
sba(iSong
Song
p3296
(dp3297
g3
(dp3298
g5
F0.047
sg6
VMeant to Be (feat. Florida Georgia Line)
p3299
sg8
F154.084
sg9
F0.783
sg10
S'country'
p3300
sg12
F0.0856
sg13
VBebe Rexha
p3301
sg15
I9999
sg16
F0.643
sg17
Nsg18
I0
sg19
Nsg20
Nsg21
F0.579
sg22
Nsg23
Nsg24
F-6.458
ssg25
I01
sba(iSong
Song
p3302
(dp3303
g3
(dp3304
g5
F0.031
sg6
VEnds of the Earth
p3305
sg8
F85.966
sg9
F0.774
sg10
S'country'
p3306
sg12
F0.04
sg13
VBrandon Ray
p3307
sg15
I9999
sg16
F0.541
sg17
Nsg18
F1.91e-06
sg19
Nsg20
Nsg21
F0.671
sg22
Nsg23
Nsg24
F-6.105
ssg25
I01
sba(iSong
Song
p3308
(dp3309
g3
(dp3310
g5
F0.178
sg6
VI Got This
p3311
sg8
F115.006
sg9
F0.701
sg10
S'country'
p3312
sg12
F0.0367
sg13
VJerrod Niemann
p3313
sg15
I9999
sg16
F0.803
sg17
Nsg18
F0.000106
sg19
Nsg20
Nsg21
F0.799
sg22
Nsg23
Nsg24
F-7.45
ssg25
I01
sba(iSong
Song
p3314
(dp3315
g3
(dp3316
g5
F0.353
sg6
VWhole Lot in Love
p3317
sg8
F112.027
sg9
F0.715
sg10
S'country'
p3318
sg12
F0.0377
sg13
VAustin Burke
p3319
sg15
I9999
sg16
F0.791
sg17
Nsg18
I0
sg19
Nsg20
Nsg21
F0.593
sg22
Nsg23
Nsg24
F-5.809
ssg25
I01
sba(iSong
Song
p3320
(dp3321
g3
(dp3322
g5
F0.00733
sg6
VSunday Morning
p3323
sg8
F90.005
sg9
F0.716
sg10
S'country'
p3324
sg12
F0.0342
sg13
VParmalee
p3325
sg15
I9999
sg16
F0.584
sg17
Nsg18
I0
sg19
Nsg20
Nsg21
F0.525
sg22
Nsg23
Nsg24
F-4.737
ssg25
I01
sba(iSong
Song
p3326
(dp3327
g3
(dp3328
g5
F0.0806
sg6
VWild West
p3329
sg8
F139.7
sg9
F0.589
sg10
S'country'
p3330
sg12
F0.032
sg13
VRunaway June
p3331
sg15
I9999
sg16
F0.462
sg17
Nsg18
I0
sg19
Nsg20
Nsg21
F0.238
sg22
Nsg23
Nsg24
F-5.264
ssg25
I01
sba(iSong
Song
p3332
(dp3333
g3
(dp3334
g5
F0.0652
sg6
VI Still Pick Up
p3335
sg8
F200.029
sg9
F0.819
sg10
S'country'
p3336
sg12
F0.0613
sg13
VJohn King
p3337
sg15
I9999
sg16
F0.474
sg17
Nsg18
I0
sg19
Nsg20
Nsg21
F0.793
sg22
Nsg23
Nsg24
F-4.446
ssg25
I01
sba(iSong
Song
p3338
(dp3339
g3
(dp3340
g5
F0.211
sg6
VMore
p3341
sg8
F120.027
sg9
F0.883
sg10
S'country'
p3342
sg12
F0.0551
sg13
VHunter Hayes
p3343
sg15
I9999
sg16
F0.56
sg17
Nsg18
I0
sg19
Nsg20
Nsg21
F0.575
sg22
Nsg23
Nsg24
F-4.938
ssg25
I01
sba(iSong
Song
p3344
(dp3345
g3
(dp3346
g5
F0.496
sg6
VYou Broke Up with Me
p3347
sg8
F120.013
sg9
F0.711
sg10
S'country'
p3348
sg12
F0.061
sg13
VWalker Hayes
p3349
sg15
I9999
sg16
F0.846
sg17
Nsg18
I0
sg19
Nsg20
Nsg21
F0.883
sg22
Nsg23
Nsg24
F-7.939
ssg25
I01
sba(iSong
Song
p3350
(dp3351
g3
(dp3352
g5
F0.081
sg6
VI Got You
p3353
sg8
F91.93
sg9
F0.88
sg10
S'country'
p3354
sg12
F0.0731
sg13
VJosh Mirenda
p3355
sg15
I9999
sg16
F0.49
sg17
Nsg18
I0
sg19
Nsg20
Nsg21
F0.493
sg22
Nsg23
Nsg24
F-5.185
ssg25
I01
sba(iSong
Song
p3356
(dp3357
g3
(dp3358
g5
F0.414
sg6
VIt All Looks Good from Here
p3359
sg8
F78.023
sg9
F0.901
sg10
S'country'
p3360
sg12
F0.042
sg13
VWilson Brothers Band
p3361
sg15
I9999
sg16
F0.483
sg17
Nsg18
F1.59e-06
sg19
Nsg20
Nsg21
F0.597
sg22
Nsg23
Nsg24
F-1.781
ssg25
I01
sba(iSong
Song
p3362
(dp3363
g3
(dp3364
g5
F0.025
sg6
VNo Problem
p3365
sg8
F164.032
sg9
F0.898
sg10
S'country'
p3366
sg12
F0.0365
sg13
VDylan Schneider
p3367
sg15
I9999
sg16
F0.489
sg17
Nsg18
F4.11e-06
sg19
Nsg20
Nsg21
F0.763
sg22
Nsg23
Nsg24
F-4.369
ssg25
I01
sba(iSong
Song
p3368
(dp3369
g3
(dp3370
g5
F0.163
sg6
VStill Believe in Crazy Love
p3371
sg8
F106.063
sg9
F0.661
sg10
S'country'
p3372
sg12
F0.0312
sg13
VRyan Kinder
p3373
sg15
I9999
sg16
F0.57
sg17
Nsg18
F0.00388
sg19
Nsg20
Nsg21
F0.247
sg22
Nsg23
Nsg24
F-6.595
ssg25
I01
sba(iSong
Song
p3374
(dp3375
g3
(dp3376
g5
F0.108
sg6
VWhen You're Gone
p3377
sg8
F161.974
sg9
F0.715
sg10
S'country'
p3378
sg12
F0.0375
sg13
VSmithfield
p3379
sg15
I9999
sg16
F0.592
sg17
Nsg18
I0
sg19
Nsg20
Nsg21
F0.671
sg22
Nsg23
Nsg24
F-5.164
ssg25
I01
sba(iSong
Song
p3380
(dp3381
g3
(dp3382
g5
F0.368
sg6
VTake Back Home Girl (Feat. Tori Kelly)
p3383
sg8
F159.708
sg9
F0.78
sg10
S'country'
p3384
sg12
F0.064
sg13
VChris Lane
p3385
sg15
I9999
sg16
F0.494
sg17
Nsg18
I0
sg19
Nsg20
Nsg21
F0.664
sg22
Nsg23
Nsg24
F-3.825
ssg25
I01
sba(iSong
Song
p3386
(dp3387
g3
(dp3388
g5
F0.107
sg6
VMysteries of the World
p3389
sg8
F143.947
sg9
F0.742
sg10
S'country'
p3390
sg12
F0.0291
sg13
VWalker McGuire
p3391
sg15
I9999
sg16
F0.548
sg17
Nsg18
I0
sg19
Nsg20
Nsg21
F0.3
sg22
Nsg23
Nsg24
F-4.768
ssg25
I01
sba(iSong
Song
p3392
(dp3393
g3
(dp3394
g5
F0.178
sg6
VStill Crazy
p3395
sg8
F144.032
sg9
F0.569
sg10
S'country'
p3396
sg12
F0.0812
sg13
VJeffrey East
p3397
sg15
I9999
sg16
F0.767
sg17
Nsg18
I0
sg19
Nsg20
Nsg21
F0.683
sg22
Nsg23
Nsg24
F-7.069
ssg25
I01
sba(iSong
Song
p3398
(dp3399
g3
(dp3400
g5
F0.0141
sg6
VDevil and You
p3401
sg8
F160.007
sg9
F0.883
sg10
S'country'
p3402
sg12
F0.0697
sg13
VOlivia Lane
p3403
sg15
I9999
sg16
F0.583
sg17
Nsg18
F2.09e-05
sg19
Nsg20
Nsg21
F0.713
sg22
Nsg23
Nsg24
F-4.421
ssg25
I01
sba(iSong
Song
p3404
(dp3405
g3
(dp3406
g5
F0.042
sg6
VLook At You
p3407
sg8
F104.027
sg9
F0.625
sg10
S'country'
p3408
sg12
F0.0284
sg13
VSeth Ennis
p3409
sg15
I9999
sg16
F0.687
sg17
Nsg18
I0
sg19
Nsg20
Nsg21
F0.866
sg22
Nsg23
Nsg24
F-6.942
ssg25
I01
sba(iSong
Song
p3410
(dp3411
g3
(dp3412
g5
F0.049
sg6
VAlmost Over You
p3413
sg8
F101.069
sg9
F0.892
sg10
S'country'
p3414
sg12
F0.0525
sg13
VJessie James Decker
p3415
sg15
I9999
sg16
F0.556
sg17
Nsg18
F0.00053
sg19
Nsg20
Nsg21
F0.264
sg22
Nsg23
Nsg24
F-2.841
ssg25
I01
sba(iSong
Song
p3416
(dp3417
g3
(dp3418
g5
F0.161
sg6
VRun
p3419
sg8
F96.972
sg9
F0.787
sg10
S'country'
p3420
sg12
F0.0338
sg13
VJosh Dorr
p3421
sg15
I9999
sg16
F0.609
sg17
Nsg18
F1.63e-06
sg19
Nsg20
Nsg21
F0.564
sg22
Nsg23
Nsg24
F-5.305
ssg25
I01
sba(iSong
Song
p3422
(dp3423
g3
(dp3424
g5
F0.209
sg6
VHome for the Weekend
p3425
sg8
F102.032
sg9
F0.712
sg10
S'country'
p3426
sg12
F0.0307
sg13
VRoss Ellis
p3427
sg15
I9999
sg16
F0.669
sg17
Nsg18
I0
sg19
Nsg20
Nsg21
F0.636
sg22
Nsg23
Nsg24
F-5.701
ssg25
I01
sba(iSong
Song
p3428
(dp3429
g3
(dp3430
g5
F0.463
sg6
VBody Like A Back Road
p3431
sg8
F98.963
sg9
F0.469
sg10
S'country'
p3432
sg12
F0.0326
sg13
VSam Hunt
p3433
sg15
I9999
sg16
F0.731
sg17
Nsg18
F1.04e-06
sg19
Nsg20
Nsg21
F0.631
sg22
Nsg23
Nsg24
F-7.226
ssg25
I01
sba(iSong
Song
p3434
(dp3435
g3
(dp3436
g5
F0.0294
sg6
VUnforgettable
p3437
sg8
F130.074
sg9
F0.745
sg10
S'country'
p3438
sg12
F0.0307
sg13
VThomas Rhett
p3439
sg15
I9999
sg16
F0.66
sg17
Nsg18
F0.0002
sg19
Nsg20
Nsg21
F0.828
sg22
Nsg23
Nsg24
F-5.499
ssg25
I01
sba(iSong
Song
p3440
(dp3441
g3
(dp3442
g5
F0.00898
sg6
VWhat Ifs
p3443
sg8
F125.976
sg9
F0.799
sg10
S'country'
p3444
sg12
F0.0275
sg13
VKane Brown
p3445
sg15
I9999
sg16
F0.612
sg17
Nsg18
I0
sg19
Nsg20
Nsg21
F0.687
sg22
Nsg23
Nsg24
F-4.603
ssg25
I01
sba(iSong
Song
p3446
(dp3447
g3
(dp3448
g5
F0.357
sg6
VIn Case You Didn't Know
p3449
sg8
F148.003
sg9
F0.542
sg10
S'country'
p3450
sg12
F0.0304
sg13
VBrett Young
p3451
sg15
I9999
sg16
F0.599
sg17
Nsg18
I0
sg19
Nsg20
Nsg21
F0.383
sg22
Nsg23
Nsg24
F-7.274
ssg25
I01
sba(iSong
Song
p3452
(dp3453
g3
(dp3454
g5
F0.013
sg6
VWhen It Rains It Pours
p3455
sg8
F128.027
sg9
F0.801
sg10
S'country'
p3456
sg12
F0.0303
sg13
VLuke Combs
p3457
sg15
I9999
sg16
F0.551
sg17
Nsg18
F6.03e-06
sg19
Nsg20
Nsg21
F0.625
sg22
Nsg23
Nsg24
F-5.069
ssg25
I01
sba(iSong
Song
p3458
(dp3459
g3
(dp3460
g5
F0.189
sg6
VHappens Like That
p3461
sg8
F81.045
sg9
F0.807
sg10
S'country'
p3462
sg12
F0.0825
sg13
VGranger Smith
p3463
sg15
I9999
sg16
F0.557
sg17
Nsg18
I0
sg19
Nsg20
Nsg21
F0.578
sg22
Nsg23
Nsg24
F-5.428
ssg25
I01
sba(iSong
Song
p3464
(dp3465
g3
(dp3466
g5
F0.0617
sg6
VHeartache On The Dance Floor
p3467
sg8
F116.005
sg9
F0.824
sg10
S'country'
p3468
sg12
F0.0458
sg13
VJon Pardi
p3469
sg15
I9999
sg16
F0.594
sg17
Nsg18
I0
sg19
Nsg20
Nsg21
F0.671
sg22
Nsg23
Nsg24
F-4.252
ssg25
I01
sba(iSong
Song
p3470
(dp3471
g3
(dp3472
g5
F0.000907
sg6
VCraving You
p3473
sg8
F104.986
sg9
F0.841
sg10
S'country'
p3474
sg12
F0.0353
sg13
VThomas Rhett
p3475
sg15
I9999
sg16
F0.612
sg17
Nsg18
I0
sg19
Nsg20
Nsg21
F0.499
sg22
Nsg23
Nsg24
F-3.795
ssg25
I01
sba(iSong
Song
p3476
(dp3477
g3
(dp3478
g5
F0.0677
sg6
VLosing Sleep
p3479
sg8
F92.003
sg9
F0.628
sg10
S'country'
p3480
sg12
F0.0431
sg13
VChris Young
p3481
sg15
I9999
sg16
F0.587
sg17
Nsg18
F1.88e-06
sg19
Nsg20
Nsg21
F0.649
sg22
Nsg23
Nsg24
F-5.703
ssg25
I01
sba(iSong
Song
p3482
(dp3483
g3
(dp3484
g5
F0.38
sg6
VGreatest Love Story
p3485
sg8
F147.975
sg9
F0.621
sg10
S'country'
p3486
sg12
F0.0524
sg13
VLANCO
p3487
sg15
I9999
sg16
F0.665
sg17
Nsg18
I0
sg19
Nsg20
Nsg21
F0.632
sg22
Nsg23
Nsg24
F-8.571
ssg25
I01
sba(iSong
Song
p3488
(dp3489
g3
(dp3490
g5
F0.0244
sg6
VSmall Town Boy
p3491
sg8
F73.033
sg9
F0.747
sg10
S'country'
p3492
sg12
F0.0292
sg13
VDustin Lynch
p3493
sg15
I9999
sg16
F0.553
sg17
Nsg18
I0
sg19
Nsg20
Nsg21
F0.711
sg22
Nsg23
Nsg24
F-5.905
ssg25
I01
sba(iSong
Song
p3494
(dp3495
g3
(dp3496
g5
F0.0186
sg6
VHurricane
p3497
sg8
F151.948
sg9
F0.821
sg10
S'country'
p3498
sg12
F0.0416
sg13
VLuke Combs
p3499
sg15
I9999
sg16
F0.444
sg17
Nsg18
F3.09e-06
sg19
Nsg20
Nsg21
F0.452
sg22
Nsg23
Nsg24
F-5.91
ssg25
I01
sba(iSong
Song
p3500
(dp3501
g3
(dp3502
g5
F0.566
sg6
VJolene
p3503
sg8
F110.578
sg9
F0.537
sg10
S'country'
p3504
sg12
F0.0363
sg13
VDolly Parton
p3505
sg15
I9999
sg16
F0.674
sg17
Nsg18
I0
sg19
Nsg20
Nsg21
F0.809
sg22
Nsg23
Nsg24
F-10.971
ssg25
I01
sba(iSong
Song
p3506
(dp3507
g3
(dp3508
g5
F0.122
sg6
VDo I Make You Wanna
p3509
sg8
F89.953
sg9
F0.751
sg10
S'country'
p3510
sg12
F0.0299
sg13
VBilly Currington
p3511
sg15
I9999
sg16
F0.549
sg17
Nsg18
I0
sg19
Nsg20
Nsg21
F0.493
sg22
Nsg23
Nsg24
F-5.423
ssg25
I01
sba(iSong
Song
p3512
(dp3513
g3
(dp3514
g5
F0.381
sg6
VDie A Happy Man
p3515
sg8
F83.096
sg9
F0.383
sg10
S'country'
p3516
sg12
F0.0304
sg13
VThomas Rhett
p3517
sg15
I9999
sg16
F0.66
sg17
Nsg18
I0
sg19
Nsg20
Nsg21
F0.381
sg22
Nsg23
Nsg24
F-9.377
ssg25
I01
sba(iSong
Song
p3518
(dp3519
g3
(dp3520
g5
F0.129
sg6
VLight It Up
p3521
sg8
F130.029
sg9
F0.935
sg10
S'country'
p3522
sg12
F0.0855
sg13
VLuke Bryan
p3523
sg15
I9999
sg16
F0.596
sg17
Nsg18
I0
sg19
Nsg20
Nsg21
F0.678
sg22
Nsg23
Nsg24
F-2.794
ssg25
I01
sba(iSong
Song
p3524
(dp3525
g3
(dp3526
g5
F0.496
sg6
VYou Broke Up with Me
p3527
sg8
F120.013
sg9
F0.711
sg10
S'country'
p3528
sg12
F0.061
sg13
VWalker Hayes
p3529
sg15
I9999
sg16
F0.846
sg17
Nsg18
I0
sg19
Nsg20
Nsg21
F0.883
sg22
Nsg23
Nsg24
F-7.939
ssg25
I01
sba(iSong
Song
p3530
(dp3531
g3
(dp3532
g5
F0.368
sg6
VTake Back Home Girl (Feat. Tori Kelly)
p3533
sg8
F159.708
sg9
F0.78
sg10
S'country'
p3534
sg12
F0.064
sg13
VChris Lane
p3535
sg15
I9999
sg16
F0.494
sg17
Nsg18
I0
sg19
Nsg20
Nsg21
F0.664
sg22
Nsg23
Nsg24
F-3.825
ssg25
I01
sba(iSong
Song
p3536
(dp3537
g3
(dp3538
g5
F0.179
sg6
VLike I Loved You
p3539
sg8
F76.02
sg9
F0.573
sg10
S'country'
p3540
sg12
F0.0292
sg13
VBrett Young
p3541
sg15
I9999
sg16
F0.579
sg17
Nsg18
I0
sg19
Nsg20
Nsg21
F0.637
sg22
Nsg23
Nsg24
F-5.991
ssg25
I01
sba(iSong
Song
p3542
(dp3543
g3
(dp3544
g5
F0.606
sg6
VBlue Ain't Your Color
p3545
sg8
F82.407
sg9
F0.417
sg10
S'country'
p3546
sg12
F0.0363
sg13
VKeith Urban
p3547
sg15
I9999
sg16
F0.686
sg17
Nsg18
F1.79e-06
sg19
Nsg20
Nsg21
F0.451
sg22
Nsg23
Nsg24
F-7.787
ssg25
I01
sba(iSong
Song
p3548
(dp3549
g3
(dp3550
g5
F0.385
sg6
VH.O.L.Y.
p3551
sg8
F78.003
sg9
F0.685
sg10
S'country'
p3552
sg12
F0.0351
sg13
VFlorida Georgia Line
p3553
sg15
I9999
sg16
F0.525
sg17
Nsg18
I0
sg19
Nsg20
Nsg21
F0.54
sg22
Nsg23
Nsg24
F-3.954
ssg25
I01
sba(iSong
Song
p3554
(dp3555
g3
(dp3556
g5
F0.593
sg6
VWritten in the Sand
p3557
sg8
F83.985
sg9
F0.437
sg10
S'country'
p3558
sg12
F0.0575
sg13
VOld Dominion
p3559
sg15
I9999
sg16
F0.725
sg17
Nsg18
I0
sg19
Nsg20
Nsg21
F0.759
sg22
Nsg23
Nsg24
F-9.602
ssg25
I01
sba(iSong
Song
p3560
(dp3561
g3
(dp3562
g5
F0.144
sg6
VAll On Me
p3563
sg8
F80.996
sg9
F0.658
sg10
S'country'
p3564
sg12
F0.0281
sg13
VDevin Dawson
p3565
sg15
I9999
sg16
F0.631
sg17
Nsg18
I0
sg19
Nsg20
Nsg21
F0.7
sg22
Nsg23
Nsg24
F-5.313
ssg25
I01
sba(iSong
Song
p3566
(dp3567
g3
(dp3568
g5
F0.713
sg6
VHurt
p3569
sg8
F91.469
sg9
F0.376
sg10
S'country'
p3570
sg12
F0.0288
sg13
VJohnny Cash
p3571
sg15
I9999
sg16
F0.545
sg17
Nsg18
F0.000389
sg19
Nsg20
Nsg21
F0.169
sg22
Nsg23
Nsg24
F-8.344
ssg25
I01
sba(iSong
Song
p3572
(dp3573
g3
(dp3574
g5
F0.163
sg6
VI'll Name the Dogs
p3575
sg8
F168.063
sg9
F0.852
sg10
S'country'
p3576
sg12
F0.0933
sg13
VBlake Shelton
p3577
sg15
I9999
sg16
F0.47
sg17
Nsg18
F2.04e-06
sg19
Nsg20
Nsg21
F0.773
sg22
Nsg23
Nsg24
F-5.874
ssg25
I01
sba(iSong
Song
p3578
(dp3579
g3
(dp3580
g5
F0.0528
sg6
VFound You
p3581
sg8
F164.144
sg9
F0.821
sg10
S'country'
p3582
sg12
F0.0404
sg13
VKane Brown
p3583
sg15
I9999
sg16
F0.46
sg17
Nsg18
I0
sg19
Nsg20
Nsg21
F0.438
sg22
Nsg23
Nsg24
F-5.333
ssg25
I01
sba(iSong
Song
p3584
(dp3585
g3
(dp3586
g5
F0.182
sg6
VFemale
p3587
sg8
F84.999
sg9
F0.474
sg10
S'country'
p3588
sg12
F0.0351
sg13
VKeith Urban
p3589
sg15
I9999
sg16
F0.562
sg17
Nsg18
F9.8e-05
sg19
Nsg20
Nsg21
F0.345
sg22
Nsg23
Nsg24
F-8.762
ssg25
I01
sba(iSong
Song
p3590
(dp3591
g3
(dp3592
g5
F0.127
sg6
VYours
p3593
sg8
F134.047
sg9
F0.725
sg10
S'country'
p3594
sg12
F0.034
sg13
VRussell Dickerson
p3595
sg15
I9999
sg16
F0.551
sg17
Nsg18
I0
sg19
Nsg20
Nsg21
F0.575
sg22
Nsg23
Nsg24
F-6.005
ssg25
I01
sba(iSong
Song
p3596
(dp3597
g3
(dp3598
g5
F0.263
sg6
VHeaven
p3599
sg8
F80.009
sg9
F0.556
sg10
S'country'
p3600
sg12
F0.0306
sg13
VKane Brown
p3601
sg15
I9999
sg16
F0.677
sg17
Nsg18
I0
sg19
Nsg20
Nsg21
F0.521
sg22
Nsg23
Nsg24
F-6.544
ssg25
I01
sba(iSong
Song
p3602
(dp3603
g3
(dp3604
g5
F0.214
sg6
VI Could Use a Love Song
p3605
sg8
F92.097
sg9
F0.634
sg10
S'country'
p3606
sg12
F0.0468
sg13
VMaren Morris
p3607
sg15
I9999
sg16
F0.638
sg17
Nsg18
I0
sg19
Nsg20
Nsg21
F0.473
sg22
Nsg23
Nsg24
F-6.474
ssg25
I01
sba(iSong
Song
p3608
(dp3609
g3
(dp3610
g5
F0.0558
sg6
VLegends
p3611
sg8
F112.029
sg9
F0.728
sg10
S'country'
p3612
sg12
F0.032
sg13
VKelsea Ballerini
p3613
sg15
I9999
sg16
F0.575
sg17
Nsg18
I0
sg19
Nsg20
Nsg21
F0.242
sg22
Nsg23
Nsg24
F-5.846
ssg25
I01
sba(iSong
Song
p3614
(dp3615
g3
(dp3616
g5
F0.214
sg6
VSmooth
p3617
sg8
F161.049
sg9
F0.848
sg10
S'country'
p3618
sg12
F0.0538
sg13
VFlorida Georgia Line
p3619
sg15
I9999
sg16
F0.471
sg17
Nsg18
F1.84e-05
sg19
Nsg20
Nsg21
F0.332
sg22
Nsg23
Nsg24
F-5.355
ssg25
I01
sba(iSong
Song
p3620
(dp3621
g3
(dp3622
g5
F0.17
sg6
VTennessee Whiskey
p3623
sg8
F101.624
sg9
F0.369
sg10
S'country'
p3624
sg12
F0.0317
sg13
VChris Stapleton
p3625
sg15
I9999
sg16
F0.472
sg17
Nsg18
F0.00618
sg19
Nsg20
Nsg21
F0.452
sg22
Nsg23
Nsg24
F-10.916
ssg25
I01
sba(iSong
Song
p3626
(dp3627
g3
(dp3628
g5
F0.0406
sg6
VMay We All
p3629
sg8
F75.019
sg9
F0.915
sg10
S'country'
p3630
sg12
F0.0389
sg13
VFlorida Georgia Line
p3631
sg15
I9999
sg16
F0.488
sg17
Nsg18
I0
sg19
Nsg20
Nsg21
F0.646
sg22
Nsg23
Nsg24
F-4.255
ssg25
I01
sba(iSong
Song
p3632
(dp3633
g3
(dp3634
g5
F0.168
sg6
VMake You Miss Me
p3635
sg8
F146.026
sg9
F0.468
sg10
S'country'
p3636
sg12
F0.0314
sg13
VSam Hunt
p3637
sg15
I9999
sg16
F0.612
sg17
Nsg18
I0
sg19
Nsg20
Nsg21
F0.165
sg22
Nsg23
Nsg24
F-6.597
ssg25
I01
sba(iSong
Song
p3638
(dp3639
g3
(dp3640
g5
F0.0661
sg6
VHead Over Boots
p3641
sg8
F108.016
sg9
F0.676
sg10
S'country'
p3642
sg12
F0.027
sg13
VJon Pardi
p3643
sg15
I9999
sg16
F0.557
sg17
Nsg18
I0
sg19
Nsg20
Nsg21
F0.678
sg22
Nsg23
Nsg24
F-4.457
ssg25
I01
sba(iSong
Song
p3644
(dp3645
g3
(dp3646
g5
F0.265
sg6
VThe Long Way
p3647
sg8
F88.865
sg9
F0.637
sg10
S'country'
p3648
sg12
F0.0401
sg13
VBrett Eldredge
p3649
sg15
I9999
sg16
F0.488
sg17
Nsg18
I0
sg19
Nsg20
Nsg21
F0.23
sg22
Nsg23
Nsg24
F-7.63
ssg25
I01
sba(iSong
Song
p3650
(dp3651
g3
(dp3652
g5
F0.456
sg6
VWagon Wheel
p3653
sg8
F148.102
sg9
F0.663
sg10
S'country'
p3654
sg12
F0.0306
sg13
VDarius Rucker
p3655
sg15
I9999
sg16
F0.529
sg17
Nsg18
I0
sg19
Nsg20
Nsg21
F0.592
sg22
Nsg23
Nsg24
F-7.138
ssg25
I01
sba(iSong
Song
p3656
(dp3657
g3
(dp3658
g5
F0.0832
sg6
VPlay It Again
p3659
sg8
F144.056
sg9
F0.898
sg10
S'country'
p3660
sg12
F0.0696
sg13
VLuke Bryan
p3661
sg15
I9999
sg16
F0.51
sg17
Nsg18
I0
sg19
Nsg20
Nsg21
F0.596
sg22
Nsg23
Nsg24
F-3.15
ssg25
I01
sba(iSong
Song
p3662
(dp3663
g3
(dp3664
g5
F0.14
sg6
VStar Of The Show
p3665
sg8
F101.988
sg9
F0.624
sg10
S'country'
p3666
sg12
F0.027
sg13
VThomas Rhett
p3667
sg15
I9999
sg16
F0.691
sg17
Nsg18
I0
sg19
Nsg20
Nsg21
F0.662
sg22
Nsg23
Nsg24
F-5.874
ssg25
I01
sba(iSong
Song
p3668
(dp3669
g3
(dp3670
g5
F0.0352
sg6
VBackroad Song
p3671
sg8
F174.006
sg9
F0.833
sg10
S'country'
p3672
sg12
F0.0437
sg13
VGranger Smith
p3673
sg15
I9999
sg16
F0.488
sg17
Nsg18
F0.0172
sg19
Nsg20
Nsg21
F0.751
sg22
Nsg23
Nsg24
F-6.571
ssg25
I01
sba(iSong
Song
p3674
(dp3675
g3
(dp3676
g5
F0.193
sg6
VWhen the Good Guys Win
p3677
sg8
F142.044
sg9
F0.853
sg10
S'country'
p3678
sg12
F0.0365
sg13
VGranger Smith
p3679
sg15
I9999
sg16
F0.619
sg17
Nsg18
I0
sg19
Nsg20
Nsg21
F0.864
sg22
Nsg23
Nsg24
F-4.889
ssg25
I01
sba(iSong
Song
p3680
(dp3681
g3
(dp3682
g5
F0.263
sg6
VHometown Girl
p3683
sg8
F155.934
sg9
F0.79
sg10
S'country'
p3684
sg12
F0.035
sg13
VJosh Turner
p3685
sg15
I9999
sg16
F0.505
sg17
Nsg18
F0.0884
sg19
Nsg20
Nsg21
F0.445
sg22
Nsg23
Nsg24
F-5.442
ssg25
I01
sba(iSong
Song
p3686
(dp3687
g3
(dp3688
g5
F0.0441
sg6
VSingles You Up
p3689
sg8
F200.054
sg9
F0.9
sg10
S'country'
p3690
sg12
F0.0488
sg13
VJordan Davis
p3691
sg15
I9999
sg16
F0.489
sg17
Nsg18
I0
sg19
Nsg20
Nsg21
F0.611
sg22
Nsg23
Nsg24
F-3.563
ssg25
I01
sba(iSong
Song
p3692
(dp3693
g3
(dp3694
g5
F0.116
sg6
VDirt On My Boots
p3695
sg8
F90.008
sg9
F0.783
sg10
S'country'
p3696
sg12
F0.0276
sg13
VJon Pardi
p3697
sg15
I9999
sg16
F0.685
sg17
Nsg18
I0
sg19
Nsg20
Nsg21
F0.525
sg22
Nsg23
Nsg24
F-4.152
ssg25
I01
sba(iSong
Song
p3698
(dp3699
g3
(dp3700
g5
F0.0913
sg6
VUp Down (Feat. Florida Georgia Line)
p3701
sg8
F129.928
sg9
F0.881
sg10
S'country'
p3702
sg12
F0.0349
sg13
VMorgan Wallen
p3703
sg15
I9999
sg16
F0.59
sg17
Nsg18
I0
sg19
Nsg20
Nsg21
F0.734
sg22
Nsg23
Nsg24
F-2.898
ssg25
I01
sba(iSong
Song
p3704
(dp3705
g3
(dp3706
g5
F0.645
sg6
VChicken Fried
p3707
sg8
F169.864
sg9
F0.713
sg10
S'country'
p3708
sg12
F0.0417
sg13
VZac Brown Band
p3709
sg15
I9999
sg16
F0.566
sg17
Nsg18
I0
sg19
Nsg20
Nsg21
F0.807
sg22
Nsg23
Nsg24
F-4.25
ssg25
I01
sba(iSong
Song
p3710
(dp3711
g3
(dp3712
g5
F0.0362
sg6
VHooked
p3713
sg8
F132.054
sg9
F0.721
sg10
S'country'
p3714
sg12
F0.0356
sg13
VDylan Scott
p3715
sg15
I9999
sg16
F0.597
sg17
Nsg18
I0
sg19
Nsg20
Nsg21
F0.437
sg22
Nsg23
Nsg24
F-6.422
ssg25
I01
sba(iSong
Song
p3716
(dp3717
g3
(dp3718
g5
F0.129
sg6
VHouse Party
p3719
sg8
F103.952
sg9
F0.854
sg10
S'country'
p3720
sg12
F0.0503
sg13
VSam Hunt
p3721
sg15
I9999
sg16
F0.749
sg17
Nsg18
I0
sg19
Nsg20
Nsg21
F0.842
sg22
Nsg23
Nsg24
F-5.245
ssg25
I01
sba(iSong
Song
p3722
(dp3723
g3
(dp3724
g5
F0.333
sg6
VGod, Your Mama, And Me
p3725
sg8
F168.032
sg9
F0.802
sg10
S'country'
p3726
sg12
F0.054
sg13
VFlorida Georgia Line
p3727
sg15
I9999
sg16
F0.439
sg17
Nsg18
I0
sg19
Nsg20
Nsg21
F0.725
sg22
Nsg23
Nsg24
F-3.644
ssg25
I01
sba.