(lp0
(lp1
cnumpy.core.multiarray
scalar
p2
(cnumpy
dtype
p3
(S'S16'
p4
I0
I1
tp5
Rp6
(I3
S'|'
p7
NNNI16
I1
I0
tp8
bS'Enchanted Garden'
p9
tp10
Rp11
ag2
(g3
(S'S11'
p12
I0
I1
tp13
Rp14
(I3
S'|'
p15
NNNI11
I1
I0
tp16
bS'Paul Taylor'
p17
tp18
Rp19
ag2
(g3
(S'f8'
p20
I0
I1
tp21
Rp22
(I3
S'<'
p23
NNNI-1
I-1
I0
tp24
bS'\x84\xcc\x95\xee%E\xe5?'
p25
tp26
Rp27
ag2
(g22
S'=\xe2Q@\x03y\xdb?'
p28
tp29
Rp30
ag2
(g22
S'\xa6\x0f]P_7q@'
p31
tp32
Rp33
ag2
(g22
S'P\x8d\x97n\x12\x83\x0c@'
p34
tp35
Rp36
ag2
(g22
S'\x02+\x87\x16\xd9Np@'
p37
tp38
Rp39
aF0.109
aF0.657
aF0.662
aF0.00757
aF-4.07
aF0.0385
aF82.983
aF0.356
aa(lp40
g2
(g3
(S'S22'
p41
I0
I1
tp42
Rp43
(I3
S'|'
p44
NNNI22
I1
I0
tp45
bS'Oops!...I Did It Again'
p46
tp47
Rp48
ag2
(g3
(S'S14'
p49
I0
I1
tp50
Rp51
(I3
S'|'
p52
NNNI14
I1
I0
tp53
bS'Britney Spears'
p54
tp55
Rp56
ag2
(g22
S'\x0e&s\xc6\x81P\xee?'
p57
tp58
Rp59
ag2
(g22
S'\xfc\xec\x81\xd1\xa6n\xe3?'
p60
tp61
Rp62
ag2
(g22
S's\x85w\xb9\x88`j@'
p63
tp64
Rp65
ag2
(g22
S'?5^\xbaI\x0c\xd2?'
p66
tp67
Rp68
ag2
(g22
S'H\xe1z\x14\xae\xfbi@'
p69
tp70
Rp71
aF0.3
aF0.751
aF0.834
aF1.77e-05
aF-5.444
aF0.0437
aF95.053
aF0.894
aa(lp72
g2
(g3
(S'S7'
p73
I0
I1
tp74
Rp75
(I3
S'|'
p76
NNNI7
I1
I0
tp77
bS'Marbles'
p78
tp79
Rp80
ag2
(g3
(S'S5'
p81
I0
I1
tp82
Rp83
(I3
S'|'
p84
NNNI5
I1
I0
tp85
bS'Spunk'
p86
tp87
Rp88
ag2
(g22
S'\x8b\x9f\xf40\xa0g\xdc?'
p89
tp90
Rp91
ag2
(g22
S'\xa1mN%DW\xd6?'
p92
tp93
Rp94
ag2
(g22
S'3\xc4\xb1.nga@'
p95
tp96
Rp97
ag2
(g22
S'\x00\x00\x00\x00\x00\x00\x00\x00'
p98
tp99
Rp100
ag2
(g22
S'\x0e-\xb2\x9d\xef[`@'
p101
tp102
Rp103
aF0.0456
aF0.488
aF0.477
aF8.75e-05
aF-13.353
aF0.311
aF60.214
aF0.653
aa(lp104
g2
(g3
(S'S23'
p105
I0
I1
tp106
Rp107
(I3
S'|'
p108
NNNI23
I1
I0
tp109
bS"Knowing You'll Be There"
p110
tp111
Rp112
ag2
(g3
(S'S18'
p113
I0
I1
tp114
Rp115
(I3
S'|'
p116
NNNI18
I1
I0
tp117
bS'Gaither Vocal Band'
p118
tp119
Rp120
ag2
(g22
S'\xa1x\xd4\xb6J"\xe4?'
p121
tp122
Rp123
ag2
(g22
S'\xc1M\x98\xaa\x8c"\xd7?'
p124
tp125
Rp126
ag2
(g22
S'\xba\xbd\xa41\xdaKq@'
p127
tp128
Rp129
ag2
(g22
S'L7\x89A`\xe5\xd0?'
p130
tp131
Rp132
ag2
(g22
S'\xc7K7\x89A\x88p@'
p133
tp134
Rp135
aF0.578
aF0.485
aF0.403
aF0.000345
aF-9.114
aF0.0238
aF84.986
aF0.212
aa(lp136
g2
(g3
(S'S11'
p137
I0
I1
tp138
Rp139
(I3
S'|'
p140
NNNI11
I1
I0
tp141
bS'Rock Steady'
p142
tp143
Rp144
ag2
(g3
(S'S11'
p145
I0
I1
tp146
Rp147
(I3
S'|'
p148
NNNI11
I1
I0
tp149
bS'Bad Company'
p150
tp151
Rp152
ag2
(g22
S'3[1\xf0RL\xe6?'
p153
tp154
Rp155
ag2
(g22
S"'{\xaa\t\xba\xda\xde?"
p156
tp157
Rp158
ag2
(g22
S'h\xb3\xeas\xb5:o@'
p159
tp160
Rp161
ag2
(g22
S'\x00\x00\x00\x00\x00\x00\x00\x00'
p162
tp163
Rp164
ag2
(g22
S'\x1f\x85\xebQ\xb8:o@'
p165
tp166
Rp167
aF0.193
aF0.681
aF0.623
aF2.98e-06
aF-10.322
aF0.0324
aF99.482
aF0.812
aa(lp168
g2
(g3
(S'S25'
p169
I0
I1
tp170
Rp171
(I3
S'|'
p172
NNNI25
I1
I0
tp173
bS'Turn Your Eyes Upon Jesus'
p174
tp175
Rp176
ag2
(g3
(S'S14'
p177
I0
I1
tp178
Rp179
(I3
S'|'
p180
NNNI14
I1
I0
tp181
bS'Kathy Troccoli'
p182
tp183
Rp184
ag2
(g22
S'c\xa1 I\xbd\x13\xe1?'
p185
tp186
Rp187
ag2
(g22
S'\x16\x8e\xe59\xa2i\xd7?'
p188
tp189
Rp190
ag2
(g22
S'\xd0\xd5V\xec/Ah@'
p191
tp192
Rp193
ag2
(g22
S'\x00\x00\x00\x00\x00\x00\x00\x00'
p194
tp195
Rp196
ag2
(g22
S'\xe9&1\x08\xac8g@'
p197
tp198
Rp199
aF0.936
aF0.232
aF0.0895
aF0.0105
aF-20.148
aF0.0338
aF184.004
aF0.193
aa(lp200
g2
(g3
(S'S15'
p201
I0
I1
tp202
Rp203
(I3
S'|'
p204
NNNI15
I1
I0
tp205
bS'For All We Know'
p206
tp207
Rp208
ag2
(g3
(S'S20'
p209
I0
I1
tp210
Rp211
(I3
S'|'
p212
NNNI20
I1
I0
tp213
bS'Ann Hampton Callaway'
p214
tp215
Rp216
ag2
(g22
S'\xc0\x17\xa4\n~7\xe0?'
p217
tp218
Rp219
ag2
(g22
S'M\x06Y^\x04N\xd8?'
p220
tp221
Rp222
ag2
(g22
S'\x8b72\x8f|\x0bs@'
p223
tp224
Rp225
ag2
(g22
S'y\xe9&1\x08\xac\xbc?'
p226
tp227
Rp228
ag2
(g22
S'\xf0\xa7\xc6K73r@'
p229
tp230
Rp231
aF0.969
aF0.377
aF0.113
aF0.000386
aF-15.279
aF0.0369
aF173.002
aF0.201
aa(lp232
g2
(g3
(S'S13'
p233
I0
I1
tp234
Rp235
(I3
S'|'
p236
NNNI13
I1
I0
tp237
bS'Cielito lindo'
p238
tp239
Rp240
ag2
(g3
(S'S25'
p241
I0
I1
tp242
Rp243
(I3
S'|'
p244
NNNI25
I1
I0
tp245
bS'Mariachi Silvestre Vargas'
p246
tp247
Rp248
ag2
(g22
S'\xfb\x07z\xf6\x85\xb4\xd2?'
p249
tp250
Rp251
ag2
(g22
S'\xe7\x1c\xbd8\xe5\xe2\xcf?'
p252
tp253
Rp254
ag2
(g22
S'\\U\xf6]\x11Cg@'
p255
tp256
Rp257
ag2
(g22
S'\xe9&1\x08\xac\x1c\xe2?'
p258
tp259
Rp260
ag2
(g22
S'{\x14\xaeG\xe1bf@'
p261
tp262
Rp263
aF0.907
aF0.264
aF0.295
aF0.458
aF-11.729
aF0.0327
aF177.397
aF0.328
aa(lp264
g2
(g3
(S'S15'
p265
I0
I1
tp266
Rp267
(I3
S'|'
p268
NNNI15
I1
I0
tp269
bS'So(u)l Invictus'
p270
tp271
Rp272
ag2
(g3
(S'S9'
p273
I0
I1
tp274
Rp275
(I3
S'|'
p276
NNNI9
I1
I0
tp277
bS'Nightfall'
p278
tp279
Rp280
ag2
(g22
S'\x82\xd0P\xc3\xc1`\xe1?'
p281
tp282
Rp283
ag2
(g22
S'\xcd*{A\x87\x9d\xd6?'
p284
tp285
Rp286
ag2
(g22
S'r\xc4Z|\n\xdcg@'
p287
tp288
Rp289
ag2
(g22
S'1\x08\xac\x1cZd\xbb?'
p290
tp291
Rp292
ag2
(g22
S'R\xb8\x1e\x85\xebag@'
p293
tp294
Rp295
aF1.75e-05
aF0.427
aF0.9
aF0.913
aF-5.151
aF0.0399
aF104.964
aF0.446
aa(lp296
g2
(g3
(S'S16'
p297
I0
I1
tp298
Rp299
(I3
S'|'
p300
NNNI16
I1
I0
tp301
bS"Fat Albert's Car"
p302
tp303
Rp304
ag2
(g3
(S'S10'
p305
I0
I1
tp306
Rp307
(I3
S'|'
p308
NNNI10
I1
I0
tp309
bS'Bill Cosby'
p310
tp311
Rp312
ag2
(g22
S'\x04=\x94YX\xbe\xe2?'
p313
tp314
Rp315
ag2
(g22
S'\x95J\xc5(\xec\x90\xd8?'
p316
tp317
Rp318
ag2
(g22
S'+\xc1\xe2pf%\x7f@'
p319
tp320
Rp321
ag2
(g22
S'm\xe7\xfb\xa9\xf1\xd2\xdd?'
p322
tp323
Rp324
ag2
(g22
S'\xc7K7\x89A\x86~@'
p325
tp326
Rp327
aF0.924
aF0.457
aF0.409
aF1.82e-05
aF-16.835
aF0.937
aF65.939
aF0.363
aa(lp328
g2
(g3
(S'S23'
p329
I0
I1
tp330
Rp331
(I3
S'|'
p332
NNNI23
I1
I0
tp333
bS'Murder In The Graveyard'
p334
tp335
Rp336
ag2
(g3
(S'S20'
p337
I0
I1
tp338
Rp339
(I3
S'|'
p340
NNNI20
I1
I0
tp341
bS'Screaming Lord Sutch'
p342
tp343
Rp344
ag2
(g22
S'\xd7:\xa6\x8e\xa9\xce\xe0?'
p345
tp346
Rp347
ag2
(g22
S'\t99q\xeb\xa3\xd5?'
p348
tp349
Rp350
ag2
(g22
S'}\x96\xe7\xc1\xdd\x01g@'
p351
tp352
Rp353
ag2
(g22
S'u\x93\x18\x04V\x0e\xf1?'
p354
tp355
Rp356
ag2
(g22
S'V\x0e-\xb2\x9d[f@'
p357
tp358
Rp359
aF0.314
aF0.562
aF0.965
aF4.37e-06
aF-8.96
aF0.116
aF143.377
aF0.58
aa(lp360
g2
(g3
(S'S11'
p361
I0
I1
tp362
Rp363
(I3
S'|'
p364
NNNI11
I1
I0
tp365
bS'On The Wing'
p366
tp367
Rp368
ag2
(g3
(S'S8'
p369
I0
I1
tp370
Rp371
(I3
S'|'
p372
NNNI8
I1
I0
tp373
bS'Owl City'
p374
tp375
Rp376
ag2
(g22
S'\x12;\xdf!\x9ev\xe9?'
p377
tp378
Rp379
ag2
(g22
S'\x9eZ\x0c\xc1Z1\xe6?'
p380
tp381
Rp382
ag2
(g22
S'du\xab\xe7\xa4\xd2r@'
p383
tp384
Rp385
ag2
(g22
S'\xe9&1\x08\xac\x1c\xba?'
p386
tp387
Rp388
ag2
(g22
S'\xc7K7\x89A\nr@'
p389
tp390
Rp391
aF0.000439
aF0.607
aF0.729
aF0.000202
aF-6.64
aF0.0327
aF115.031
aF0.0971
aa(lp392
g2
(g3
(S'S13'
p393
I0
I1
tp394
Rp395
(I3
S'|'
p396
NNNI13
I1
I0
tp397
bS'Un Gran Vacio'
p398
tp399
Rp400
ag2
(g3
(S'S15'
p401
I0
I1
tp402
Rp403
(I3
S'|'
p404
NNNI15
I1
I0
tp405
bS'Michael Salgado'
p406
tp407
Rp408
ag2
(g22
S'\x0f\xf1Z\x94~P\xe3?'
p409
tp410
Rp411
ag2
(g22
S'\x91\xeeU\xef\x83Z\xd4?'
p412
tp413
Rp414
ag2
(g22
S'%\x06\x81\x95C\xd3e@'
p415
tp416
Rp417
ag2
(g22
S'\x00\x00\x00\x00\x00\x00\x00\x00'
p418
tp419
Rp420
ag2
(g22
S'\x1b/\xdd$\x06qd@'
p421
tp422
Rp423
aF0.278
aF0.669
aF0.841
aF2.79e-05
aF-6.163
aF0.0419
aF155.036
aF0.908
aa(lp424
g2
(g3
(S'S8'
p425
I0
I1
tp426
Rp427
(I3
S'|'
p428
NNNI8
I1
I0
tp429
bS'The Door'
p430
tp431
Rp432
ag2
(g3
(S'S8'
p433
I0
I1
tp434
Rp435
(I3
S'|'
p436
NNNI8
I1
I0
tp437
bS"Keb' Mo'"
p438
tp439
Rp440
ag2
(g22
S'C\x18\xc6\x9bj:\xe4?'
p441
tp442
Rp443
ag2
(g22
S'\x83\xb2\x90\xf8\xda9\xde?'
p444
tp445
Rp446
ag2
(g22
S'\xab\xe7\xa4\xf7\x8d\x8fm@'
p447
tp448
Rp449
ag2
(g22
S'\x00\x00\x00\x00\x00\x00\x00\x00'
p450
tp451
Rp452
ag2
(g22
S'\x7fj\xbct\x93\xb8k@'
p453
tp454
Rp455
aF0.0408
aF0.705
aF0.669
aF0.00497
aF-6.66
aF0.0462
aF99.872
aF0.501
aa(lp456
g2
(g3
(S'S49'
p457
I0
I1
tp458
Rp459
(I3
S'|'
p460
NNNI49
I1
I0
tp461
bS'Remember (The Beauty Of Simplicity Album Version)'
p462
tp463
Rp464
ag2
(g3
(S'S8'
p465
I0
I1
tp466
Rp467
(I3
S'|'
p468
NNNI8
I1
I0
tp469
bS'Telecast'
p470
tp471
Rp472
ag2
(g22
S'\xaf\xb8\xc7\x1eB7\xe2?'
p473
tp474
Rp475
ag2
(g22
S'\xa0C\x086\x01a\xdb?'
p476
tp477
Rp478
ag2
(g22
S';\xaa\x9a \xea\x1el@'
p479
tp480
Rp481
ag2
(g22
S'\xd5x\xe9&1\x08\xd4?'
p482
tp483
Rp484
ag2
(g22
S'j\xbct\x93\x18Lk@'
p485
tp486
Rp487
aF0.11
aF0.537
aF0.644
aF9.36e-05
aF-6.109
aF0.0251
aF95.989
aF0.504
aa(lp488
g2
(g3
(S'S12'
p489
I0
I1
tp490
Rp491
(I3
S'|'
p492
NNNI12
I1
I0
tp493
bS'On Probation'
p494
tp495
Rp496
ag2
(g3
(S'S6'
p497
I0
I1
tp498
Rp499
(I3
S'|'
p500
NNNI6
I1
I0
tp501
bS'Youves'
p502
tp503
Rp504
ag2
(g22
S'\x17F9v/\xa8\xe0?'
p505
tp506
Rp507
ag2
(g22
S'\xac\xe2\x03\x01\x97\x96\xd1?'
p508
tp509
Rp510
ag2
(g22
S'\x82\x8b\x155\x98fm@'
p511
tp512
Rp513
ag2
(g22
S'\x00\x00\x00\x00\x00\x00\x00\x00'
p514
tp515
Rp516
ag2
(g22
S'\xe1z\x14\xaeG}l@'
p517
tp518
Rp519
aF0.000394
aF0.558
aF0.814
aI0
aF-6.757
aF0.0739
aI142
aF0.855
aa(lp520
g2
(g3
(S'S12'
p521
I0
I1
tp522
Rp523
(I3
S'|'
p524
NNNI12
I1
I0
tp525
bS'Let It Be Me'
p526
tp527
Rp528
ag2
(g3
(S'S14'
p529
I0
I1
tp530
Rp531
(I3
S'|'
p532
NNNI14
I1
I0
tp533
bS'Dionne Warwick'
p534
tp535
Rp536
ag2
(g22
S'.\xd3\x89J\xdf\xbb\xe4?'
p537
tp538
Rp539
ag2
(g22
S'\x98\xd5\x0ft\xbe\xc1\xde?'
p540
tp541
Rp542
ag2
(g22
S'\xf2\x07\x03\xcf\xbdRl@'
p543
tp544
Rp545
ag2
(g22
S'L7\x89A`\xe5\xd0?'
p546
tp547
Rp548
ag2
(g22
S'\x9c\xc4 \xb0rTk@'
p549
tp550
Rp551
aF0.666
aF0.259
aF0.332
aF0.000925
aF-10.54
aF0.0301
aF175.554
aF0.227
aa(lp552
g2
(g3
(S'S20'
p553
I0
I1
tp554
Rp555
(I3
S'|'
p556
NNNI20
I1
I0
tp557
bS'Unworthy of His Love'
p558
tp559
Rp560
ag2
(g3
(S'S14'
p561
I0
I1
tp562
Rp563
(I3
S'|'
p564
NNNI14
I1
I0
tp565
bS'Oak Ridge Boys'
p566
tp567
Rp568
ag2
(g22
S'\x8fDJm\xca{\xe1?'
p569
tp570
Rp571
ag2
(g22
S'\xe5\xcbB\xc0\x0f\xc8\xd9?'
p572
tp573
Rp574
ag2
(g22
S'\x04\x04s\xf4\xf8\r]@'
p575
tp576
Rp577
ag2
(g22
S'\x00\x00\x00\x00\x00\x00\x00\x00'
p578
tp579
Rp580
ag2
(g22
S'\xc5 \xb0rh\x81Z@'
p581
tp582
Rp583
aF0.965
aF0.34
aF0.18
aI0
aF-14.34
aF0.0338
aF90.835
aF0.384
aa(lp584
g2
(g3
(S'S17'
p585
I0
I1
tp586
Rp587
(I3
S'|'
p588
NNNI17
I1
I0
tp589
bS"Armageddon's Raid"
p590
tp591
Rp592
ag2
(g3
(S'S9'
p593
I0
I1
tp594
Rp595
(I3
S'|'
p596
NNNI9
I1
I0
tp597
bS'Belphegor'
p598
tp599
Rp600
ag2
(g22
S'\xb1\x0c\x03\xf5o\xdf\xe5?'
p601
tp602
Rp603
ag2
(g22
S'RD\xe9\xb9\xfeF\xde?'
p604
tp605
Rp606
ag2
(g22
S'\x12\xdar.ELs@'
p607
tp608
Rp609
ag2
(g22
S'\x08\xac\x1cZd;\xf1?'
p610
tp611
Rp612
ag2
(g22
S'\n\xd7\xa3p=\xf0r@'
p613
tp614
Rp615
aF5.66e-06
aF0.37
aF0.967
aF0.876
aF-1.641
aF0.13
aF117.087
aF0.0427
aa(lp616
g2
(g3
(S'S7'
p617
I0
I1
tp618
Rp619
(I3
S'|'
p620
NNNI7
I1
I0
tp621
bS'De rien'
p622
tp623
Rp624
ag2
(g3
(S'S20'
p625
I0
I1
tp626
Rp627
(I3
S'|'
p628
NNNI20
I1
I0
tp629
bS'Les Ogres De Barback'
p630
tp631
Rp632
ag2
(g22
S'A\xc64\x922\xe0\xe4?'
p633
tp634
Rp635
ag2
(g22
S'\xacMi;\x9d\x07\xdc?'
p636
tp637
Rp638
ag2
(g22
S'\xc6\xbf\xcf\xb8p\xbbg@'
p639
tp640
Rp641
ag2
(g22
S'\x00\x00\x00\x00\x00\x00\x00\x00'
p642
tp643
Rp644
ag2
(g22
S'\xd3Mb\x10X\x01f@'
p645
tp646
Rp647
aF0.867
aF0.423
aF0.48
aF3.34e-06
aF-10.627
aF0.0395
aF201.256
aF0.511
aa(lp648
g2
(g3
(S'S15'
p649
I0
I1
tp650
Rp651
(I3
S'|'
p652
NNNI15
I1
I0
tp653
bS'Me quedo sin ti'
p654
tp655
Rp656
ag2
(g3
(S'S18'
p657
I0
I1
tp658
Rp659
(I3
S'|'
p660
NNNI18
I1
I0
tp661
bS'Julio Iglesias Jr.'
p662
tp663
Rp664
ag2
(g22
S'\xbb$4\xff\x08\xec\xdd?'
p665
tp666
Rp667
ag2
(g22
S'p9C;\x9b\x1e\xd3?'
p668
tp669
Rp670
ag2
(g22
S'0\x12\xdar.\x90n@'
p671
tp672
Rp673
ag2
(g22
S'\xaa\xf1\xd2Mb\x10\x12@'
p674
tp675
Rp676
ag2
(g22
S'\xbct\x93\x18\x04Jm@'
p677
tp678
Rp679
aF0.182
aF0.575
aF0.839
aI0
aF-5.238
aF0.0287
aF100.516
aF0.525
aa(lp680
g2
(g3
(S'S10'
p681
I0
I1
tp682
Rp683
(I3
S'|'
p684
NNNI10
I1
I0
tp685
bS'Lo Decidio'
p686
tp687
Rp688
ag2
(g3
(S'S15'
p689
I0
I1
tp690
Rp691
(I3
S'|'
p692
NNNI15
I1
I0
tp693
bS'Orquesta Aragon'
p694
tp695
Rp696
ag2
(g22
S'\x97Xf\xbd\x86G\xe0?'
p697
tp698
Rp699
ag2
(g22
S'W\x0e\xcd\x9e\xbdN\xd5?'
p700
tp701
Rp702
ag2
(g22
S'\x13I\xf42\x8a\x11d@'
p703
tp704
Rp705
ag2
(g22
S'\xfe\xd4x\xe9&1\xc8?'
p706
tp707
Rp708
ag2
(g22
S'\x87\x16\xd9\xce\xf7Wc@'
p709
tp710
Rp711
aF0.713
aF0.582
aF0.459
aI0
aF-6.137
aF0.0297
aF117.088
aF0.817
aa(lp712
g2
(g3
(S'S11'
p713
I0
I1
tp714
Rp715
(I3
S'|'
p716
NNNI11
I1
I0
tp717
bS'Here We Are'
p718
tp719
Rp720
ag2
(g3
(S'S11'
p721
I0
I1
tp722
Rp723
(I3
S'|'
p724
NNNI11
I1
I0
tp725
bS'Dallas Holm'
p726
tp727
Rp728
ag2
(g22
S'\xc6ss~]\x82\xdc?'
p729
tp730
Rp731
ag2
(g22
S'\xa2B\xdc\xcb&i\xd2?'
p732
tp733
Rp734
ag2
(g22
S'\x8c\xd6Q\xd5\x04\xe0p@'
p735
tp736
Rp737
ag2
(g22
S'\x08\xac\x1cZd;\x01@'
p738
tp739
Rp740
ag2
(g22
S'-\xb2\x9d\xef\xa7Zp@'
p741
tp742
Rp743
aF0.194
aF0.469
aF0.31
aF1.97e-06
aF-15.889
aF0.0262
aF83.616
aF0.34
aa(lp744
g2
(g3
(S'S18'
p745
I0
I1
tp746
Rp747
(I3
S'|'
p748
NNNI18
I1
I0
tp749
bS'Guns And The Young'
p750
tp751
Rp752
ag2
(g3
(S'S23'
p753
I0
I1
tp754
Rp755
(I3
S'|'
p756
NNNI23
I1
I0
tp757
bS'Mighty Mighty Bosstones'
p758
tp759
Rp760
ag2
(g22
S' \x93\x9c\xd1Z`\xe6?'
p761
tp762
Rp763
ag2
(g22
S'{\xedht\xd2u\xde?'
p764
tp765
Rp766
ag2
(g22
S'\x1f\xd7\x86\x8aq\xd7a@'
p767
tp768
Rp769
ag2
(g22
S'\x8d\x97n\x12\x83\xc0\xd2?'
p770
tp771
Rp772
ag2
(g22
S'\xbct\x93\x18\x04\xce`@'
p773
tp774
Rp775
aF0.018
aF0.388
aF0.923
aI0
aF-7.779
aF0.341
aF141.957
aF0.511
aa(lp776
g2
(g3
(S'S38'
p777
I0
I1
tp778
Rp779
(I3
S'|'
p780
NNNI38
I1
I0
tp781
bS'Judgement Begins With The House Of God'
p782
tp783
Rp784
ag2
(g3
(S'S10'
p785
I0
I1
tp786
Rp787
(I3
S'|'
p788
NNNI10
I1
I0
tp789
bS'STEVE CAMP'
p790
tp791
Rp792
ag2
(g22
S'\xbcL\xacH\xd4\xdd\xe0?'
p793
tp794
Rp795
ag2
(g22
S'ok]`\x97\x1f\xd4?'
p796
tp797
Rp798
ag2
(g22
S'~\x1d8gD\xefk@'
p799
tp800
Rp801
ag2
(g22
S'9\xb4\xc8v\xbe\x9f\xda?'
p802
tp803
Rp804
ag2
(g22
S'\x08\xac\x1cZd\x7fj@'
p805
tp806
Rp807
aF0.817
aF0.393
aF0.166
aI0
aF-17.398
aF0.0368
aF110.026
aF0.144
aa(lp808
g2
(g3
(S'S35'
p809
I0
I1
tp810
Rp811
(I3
S'|'
p812
NNNI35
I1
I0
tp813
bS'Jesus Loves Me (Now More Than Ever)'
p814
tp815
Rp816
ag2
(g3
(S'S9'
p817
I0
I1
tp818
Rp819
(I3
S'|'
p820
NNNI9
I1
I0
tp821
bS'Russ Taff'
p822
tp823
Rp824
ag2
(g22
S'\x0c0\x15J+\xe3\xde?'
p825
tp826
Rp827
ag2
(g22
S'\xe7\xbe\x04\x9d\xe8,\xd7?'
p828
tp829
Rp830
ag2
(g22
S'\xc7\xba\xb8\x8d\x06\xd7c@'
p831
tp832
Rp833
ag2
(g22
S'sh\x91\xed|?\xc5?'
p834
tp835
Rp836
ag2
(g22
S'L7\x89A`\xa1b@'
p837
tp838
Rp839
aF0.753
aF0.573
aF0.432
aI0
aF-8.515
aF0.0327
aF145.855
aF0.563
aa(lp840
g2
(g3
(S'S27'
p841
I0
I1
tp842
Rp843
(I3
S'|'
p844
NNNI27
I1
I0
tp845
bS'Somebody Has Stolen My Girl'
p846
tp847
Rp848
ag2
(g3
(S'S15'
p849
I0
I1
tp850
Rp851
(I3
S'|'
p852
NNNI15
I1
I0
tp853
bS'Cornel Campbell'
p854
tp855
Rp856
ag2
(g22
S'\xb4\xe9\xfc\x01\xe6\xc8\xe2?'
p857
tp858
Rp859
ag2
(g22
S'8\xe7\x97\t\xd3\x86\xd8?'
p860
tp861
Rp862
ag2
(g22
S'J$\xd1\xcb(Sf@'
p863
tp864
Rp865
ag2
(g22
S'\xbct\x93\x18\x04V\xe6?'
p866
tp867
Rp868
ag2
(g22
S'\x0c\x02+\x87\x16\xc9d@'
p869
tp870
Rp871
aF0.42
aF0.717
aF0.303
aF1.54e-06
aF-14.025
aF0.236
aF80.822
aF0.728
aa(lp872
g2
(g3
(S'S20'
p873
I0
I1
tp874
Rp875
(I3
S'|'
p876
NNNI20
I1
I0
tp877
bS'Ho Capito Che Ti Amo'
p878
tp879
Rp880
ag2
(g3
(S'S28'
p881
I0
I1
tp882
Rp883
(I3
S'|'
p884
NNNI28
I1
I0
tp885
bS'Brazilian Tropical Orchestra'
p886
tp887
Rp888
ag2
(g22
S'\x89;y\x13^1\xd8?'
p889
tp890
Rp891
ag2
(g22
S'\x11U8_\xde\xb8\xd5?'
p892
tp893
Rp894
ag2
(g22
S'\n\xf4\x89<I\x8e_@'
p895
tp896
Rp897
ag2
(g22
S'?5^\xbaI\x0c\xd2?'
p898
tp899
Rp900
ag2
(g22
S'?5^\xbaI\xa4]@'
p901
tp902
Rp903
aF0.272
aF0.529
aF0.311
aF0.587
aF-15.355
aF0.0254
aF89.737
aF0.373
aa(lp904
g2
(g3
(S'S28'
p905
I0
I1
tp906
Rp907
(I3
S'|'
p908
NNNI28
I1
I0
tp909
bS'I Do (Chris The Greek Remix)'
p910
tp911
Rp912
ag2
(g3
(S'S8'
p913
I0
I1
tp914
Rp915
(I3
S'|'
p916
NNNI8
I1
I0
tp917
bS'Tina Ann'
p918
tp919
Rp920
ag2
(g22
S'\t\x9c\xbc\xedq\xcb\xe0?'
p921
tp922
Rp923
ag2
(g22
S'\x94\x9ep\x18\xffQ\xd8?'
p924
tp925
Rp926
ag2
(g22
S'\x90\xda\xc4\xc9\xfd\xb0m@'
p927
tp928
Rp929
ag2
(g22
S'\x00\x00\x00\x00\x00\x00\x00\x00'
p930
tp931
Rp932
ag2
(g22
S'\xa2E\xb6\xf3\xfd\xc4l@'
p933
tp934
Rp935
aF0.00257
aF0.715
aF0.938
aF0.195
aF-6.908
aF0.0516
aI134
aF0.639
aa(lp936
g2
(g3
(S'S16'
p937
I0
I1
tp938
Rp939
(I3
S'|'
p940
NNNI16
I1
I0
tp941
bS'Hold Up My Heart'
p942
tp943
Rp944
ag2
(g3
(S'S12'
p945
I0
I1
tp946
Rp947
(I3
S'|'
p948
NNNI12
I1
I0
tp949
bS'Brooke White'
p950
tp951
Rp952
ag2
(g22
S'\xc1\xd1\xc3\x06W\\\xe6?'
p953
tp954
Rp955
ag2
(g22
S'\x00\x131Y\xf03\xdc?'
p956
tp957
Rp958
ag2
(g22
S'\xd6\xa8\x87ht9m@'
p959
tp960
Rp961
ag2
(g22
S'b\x10X9\xb4\xc8\xde?'
p962
tp963
Rp964
ag2
(g22
S'!\xb0rh\x91Mk@'
p965
tp966
Rp967
aF0.423
aF0.334
aF0.567
aI0
aF-6.83
aF0.0353
aF178.679
aF0.43
aa(lp968
g2
(g3
(S'S27'
p969
I0
I1
tp970
Rp971
(I3
S'|'
p972
NNNI27
I1
I0
tp973
bS'A Sailboat In The Moonlight'
p974
tp975
Rp976
ag2
(g3
(S'S12'
p977
I0
I1
tp978
Rp979
(I3
S'|'
p980
NNNI12
I1
I0
tp981
bS'Arthur Tracy'
p982
tp983
Rp984
ag2
(g22
S'\x9e\x9b\x0c6O\x90\xd1?'
p985
tp986
Rp987
ag2
(g22
S'\xbc\xd9\xc9\x9f\xe7\t\xd1?'
p988
tp989
Rp990
ag2
(g22
S'\xcf\x14:\xaf\xb1\xbce@'
p991
tp992
Rp993
ag2
(g22
S'Zd;\xdfO\x8d\x01@'
p994
tp995
Rp996
ag2
(g22
S'\x04V\x0e-\xb2\xe5d@'
p997
tp998
Rp999
aF0.982
aF0.362
aF0.172
aF0.0705
aF-15.122
aF0.0428
aF67.36
aF0.178
aa(lp1000
g2
(g3
(S'S15'
p1001
I0
I1
tp1002
Rp1003
(I3
S'|'
p1004
NNNI15
I1
I0
tp1005
bS'Ciudad desierta'
p1006
tp1007
Rp1008
ag2
(g3
(S'S10'
p1009
I0
I1
tp1010
Rp1011
(I3
S'|'
p1012
NNNI10
I1
I0
tp1013
bS'Alex Ubago'
p1014
tp1015
Rp1016
ag2
(g22
S'\xbdrJ\xebq\x9b\xe2?'
p1017
tp1018
Rp1019
ag2
(g22
S'\xd3\xbd\xbe\xa3\xfc\xba\xd2?'
p1020
tp1021
Rp1022
ag2
(g22
S'\\U\xf6]\x11Cg@'
p1023
tp1024
Rp1025
ag2
(g22
S'\x81\x95C\x8bl\xe7\xcb?'
p1026
tp1027
Rp1028
ag2
(g22
S'\x1f\x85\xebQ\xb8\xd2e@'
p1029
tp1030
Rp1031
aF0.214
aF0.513
aF0.763
aF1.45e-06
aF-5.562
aF0.0305
aF135.016
aF0.488
aa(lp1032
g2
(g3
(S'S30'
p1033
I0
I1
tp1034
Rp1035
(I3
S'|'
p1036
NNNI30
I1
I0
tp1037
bS'Directions to my special place'
p1038
tp1039
Rp1040
ag2
(g3
(S'S10'
p1041
I0
I1
tp1042
Rp1043
(I3
S'|'
p1044
NNNI10
I1
I0
tp1045
bS'themselves'
p1046
tp1047
Rp1048
ag2
(g22
S'\xca\x8cb\x04\xd3\x1a\xe4?'
p1049
tp1050
Rp1051
ag2
(g22
S'u\x80\x1ci\x06r\xdb?'
p1052
tp1053
Rp1054
ag2
(g22
S'\xc4\xb1.n\xa3!q@'
p1055
tp1056
Rp1057
ag2
(g22
S'\x00\x00\x00\x00\x00\x00\x00\x00'
p1058
tp1059
Rp1060
ag2
(g22
S'T\xe3\xa5\x9b\xc4\x86p@'
p1061
tp1062
Rp1063
aF0.309
aF0.629
aF0.486
aI0
aF-12.909
aF0.39
aF95.011
aF0.798
aa(lp1064
g2
(g3
(S'S10'
p1065
I0
I1
tp1066
Rp1067
(I3
S'|'
p1068
NNNI10
I1
I0
tp1069
bS'Eoarchaean'
p1070
tp1071
Rp1072
ag2
(g3
(S'S9'
p1073
I0
I1
tp1074
Rp1075
(I3
S'|'
p1076
NNNI9
I1
I0
tp1077
bS'The Ocean'
p1078
tp1079
Rp1080
ag2
(g22
S'\xe1\xa2\xd4D\x8b]\xe4?'
p1081
tp1082
Rp1083
ag2
(g22
S'\x07\xb9\x87*\xbf\xca\xdd?'
p1084
tp1085
Rp1086
ag2
(g22
S'\x93\x18\x04V\x8e\xdeq@'
p1087
tp1088
Rp1089
ag2
(g22
S'\x00\x00\x00\x00\x00\x00\xc0?'
p1090
tp1091
Rp1092
ag2
(g22
S'\xc3\xf5(\\\x8f\xdeq@'
p1093
tp1094
Rp1095
aF0.00172
aF0.418
aF0.981
aF7.24e-06
aF-4.335
aF0.103
aF139.956
aF0.215
aa(lp1096
g2
(g3
(S'S10'
p1097
I0
I1
tp1098
Rp1099
(I3
S'|'
p1100
NNNI10
I1
I0
tp1101
bS'Mesmerized'
p1102
tp1103
Rp1104
ag2
(g3
(S'S11'
p1105
I0
I1
tp1106
Rp1107
(I3
S'|'
p1108
NNNI11
I1
I0
tp1109
bS'Miguel Migs'
p1110
tp1111
Rp1112
ag2
(g22
S'\xd4@\xa9_2\x11\xe5?'
p1113
tp1114
Rp1115
ag2
(g22
S'\xbe\xa3\xd9D\xd8g\xd9?'
p1116
tp1117
Rp1118
ag2
(g22
S'8\xa1\x10\x01\x87iu@'
p1119
tp1120
Rp1121
ag2
(g22
S')\\\x8f\xc2\xf5(\x10@'
p1122
tp1123
Rp1124
ag2
(g22
S'\xecQ\xb8\x1e\x85iu@'
p1125
tp1126
Rp1127
aF0.0217
aF0.807
aF0.818
aF0.228
aF-4.595
aF0.0721
aF124.96
aF0.629
aa(lp1128
g2
(g3
(S'S13'
p1129
I0
I1
tp1130
Rp1131
(I3
S'|'
p1132
NNNI13
I1
I0
tp1133
bS'See The Light'
p1134
tp1135
Rp1136
ag2
(g3
(S'S20'
p1137
I0
I1
tp1138
Rp1139
(I3
S'|'
p1140
NNNI20
I1
I0
tp1141
bS'The Jeff Healey Band'
p1142
tp1143
Rp1144
ag2
(g22
S'\xad\xf8\x9a\x89x\xf0\xe6?'
p1145
tp1146
Rp1147
ag2
(g22
S'n(2\xc0\xd8\x82\xda?'
p1148
tp1149
Rp1150
ag2
(g22
S'>\xae\r\x15c\xb5p@'
p1151
tp1152
Rp1153
ag2
(g22
S'\x00\x00\x00\x00\x00\x00\x00\x00'
p1154
tp1155
Rp1156
ag2
(g22
S'\xfe\xd4x\xe9&Cp@'
p1157
tp1158
Rp1159
aF0.111
aF0.413
aF0.971
aF0.000145
aF-5.746
aF0.125
aF111.938
aF0.294
aa(lp1160
g2
(g3
(S'S14'
p1161
I0
I1
tp1162
Rp1163
(I3
S'|'
p1164
NNNI14
I1
I0
tp1165
bS'Love & Romance'
p1166
tp1167
Rp1168
ag2
(g3
(S'S14'
p1169
I0
I1
tp1170
Rp1171
(I3
S'|'
p1172
NNNI14
I1
I0
tp1173
bS'Willie Barcena'
p1174
tp1175
Rp1176
ag2
(g22
S'2\xf5\xd0\x96\xa5_\xd6?'
p1177
tp1178
Rp1179
ag2
(g22
S'\x88=\xa7v\xdcn\xd4?'
p1180
tp1181
Rp1182
ag2
(g22
S'\xd1\xcb(\x96[xd@'
p1183
tp1184
Rp1185
ag2
(g22
S'\xecQ\xb8\x1e\x85\xeb\x07@'
p1186
tp1187
Rp1188
ag2
(g22
S'fffff\xd2c@'
p1189
tp1190
Rp1191
aF0.857
aF0.51
aF0.584
aI0
aF-15.907
aF0.911
aF85.101
aF0.387
aa(lp1192
g2
(g3
(S'S11'
p1193
I0
I1
tp1194
Rp1195
(I3
S'|'
p1196
NNNI11
I1
I0
tp1197
bS'Flame It Up'
p1198
tp1199
Rp1200
ag2
(g3
(S'S9'
p1201
I0
I1
tp1202
Rp1203
(I3
S'|'
p1204
NNNI9
I1
I0
tp1205
bS'DJ Rashad'
p1206
tp1207
Rp1208
ag2
(g22
S'M\xff^|z\xc7\xd9?'
p1209
tp1210
Rp1211
ag2
(g22
S'\x99\x14\xc9\xb5lz\xd7?'
p1212
tp1213
Rp1214
ag2
(g22
S'h\xae\xd3HKVg@'
p1215
tp1216
Rp1217
ag2
(g22
S'-\xb2\x9d\xef\xa7\xc6\xcb?'
p1218
tp1219
Rp1220
ag2
(g22
S'\xfc\xa9\xf1\xd2MVg@'
p1221
tp1222
Rp1223
aF0.000136
aF0.795
aF0.452
aF0.788
aF-6.627
aF0.206
aF159.665
aF0.673
aa(lp1224
g2
(g3
(S'S24'
p1225
I0
I1
tp1226
Rp1227
(I3
S'|'
p1228
NNNI24
I1
I0
tp1229
bS'Prosperity In The U.S.A.'
p1230
tp1231
Rp1232
ag2
(g3
(S'S13'
p1233
I0
I1
tp1234
Rp1235
(I3
S'|'
p1236
NNNI13
I1
I0
tp1237
bS'Yuppie Pricks'
p1238
tp1239
Rp1240
ag2
(g22
S'\x18\xcb\xb5S\xfa\xd2\xde?'
p1241
tp1242
Rp1243
ag2
(g22
S'\x8d\x01O\xa1z\xde\xd6?'
p1244
tp1245
Rp1246
ag2
(g22
S'\xe1\x0b\x93\xa9\x82\x15e@'
p1247
tp1248
Rp1249
ag2
(g22
S'\xe3\xa5\x9b\xc4 \xb0\xb2?'
p1250
tp1251
Rp1252
ag2
(g22
S'\xd3Mb\x10X\xddc@'
p1253
tp1254
Rp1255
aF4.58e-05
aF0.448
aF0.912
aF0.00563
aF-3.713
aF0.0323
aF160.016
aF0.758
aa(lp1256
g2
(g3
(S'S21'
p1257
I0
I1
tp1258
Rp1259
(I3
S'|'
p1260
NNNI21
I1
I0
tp1261
bS'Boulevard St. Germain'
p1262
tp1263
Rp1264
ag2
(g3
(S'S10'
p1265
I0
I1
tp1266
Rp1267
(I3
S'|'
p1268
NNNI10
I1
I0
tp1269
bS'Bloomfield'
p1270
tp1271
Rp1272
ag2
(g22
S'\x91Ai\x9c\xd7L\xe0?'
p1273
tp1274
Rp1275
ag2
(g22
S'\xea\x839\x88C\xc3\xd6?'
p1276
tp1277
Rp1278
ag2
(g22
S'!\xea>\x00)\x1bv@'
p1279
tp1280
Rp1281
ag2
(g22
S'P\x8d\x97n\x12\x83\xd0?'
p1282
tp1283
Rp1284
ag2
(g22
S'\x83\xc0\xca\xa1E\xf4t@'
p1285
tp1286
Rp1287
aF0.0315
aF0.747
aF0.707
aF0.86
aF-10.008
aF0.0503
aF180.031
aF0.369
aa(lp1288
g2
(g3
(S'S18'
p1289
I0
I1
tp1290
Rp1291
(I3
S'|'
p1292
NNNI18
I1
I0
tp1293
bS'Hun Qian De Nu Ren'
p1294
tp1295
Rp1296
ag2
(g3
(S'S10'
p1297
I0
I1
tp1298
Rp1299
(I3
S'|'
p1300
NNNI10
I1
I0
tp1301
bS'Hacken Lee'
p1302
tp1303
Rp1304
ag2
(g22
S';"\x9c\xc6`6\xdf?'
p1305
tp1306
Rp1307
ag2
(g22
S'\xcc\x95\x1c\xad\xf2\xe2\xd5?'
p1308
tp1309
Rp1310
ag2
(g22
S'\x87\x8aq\xfe\xa6\x18~@'
p1311
tp1312
Rp1313
ag2
(g22
S'\x00\x00\x00\x00\x00\x00\x00\x00'
p1314
tp1315
Rp1316
ag2
(g22
S'\x04V\x0e-\xb2\xb7}@'
p1317
tp1318
Rp1319
aF0.529
aF0.541
aF0.399
aI0
aF-11.781
aF0.28
aF132.705
aF0.38
aa(lp1320
g2
(g3
(S'S13'
p1321
I0
I1
tp1322
Rp1323
(I3
S'|'
p1324
NNNI13
I1
I0
tp1325
bS'Burning Skies'
p1326
tp1327
Rp1328
ag2
(g3
(S'S13'
p1329
I0
I1
tp1330
Rp1331
(I3
S'|'
p1332
NNNI13
I1
I0
tp1333
bS'Tones On Tail'
p1334
tp1335
Rp1336
ag2
(g22
S'\x16Ta2]\xd6\xe2?'
p1337
tp1338
Rp1339
ag2
(g22
S'm\xa3\xf4\x95G\xac\xd8?'
p1340
tp1341
Rp1342
ag2
(g22
S'c\xb9\xa5\xd5\x902x@'
p1343
tp1344
Rp1345
ag2
(g22
S'\x8bl\xe7\xfb\xa9\xf1\xda?'
p1346
tp1347
Rp1348
ag2
(g22
S'33333Cv@'
p1349
tp1350
Rp1351
aF0.00215
aF0.168
aF0.503
aF0.602
aF-11.039
aF0.0351
aF92.363
aF0.371
aa(lp1352
g2
(g3
(S'S7'
p1353
I0
I1
tp1354
Rp1355
(I3
S'|'
p1356
NNNI7
I1
I0
tp1357
bS'Greener'
p1358
tp1359
Rp1360
ag2
(g3
(S'S20'
p1361
I0
I1
tp1362
Rp1363
(I3
S'|'
p1364
NNNI20
I1
I0
tp1365
bS'ARRESTED DEVELOPMENT'
p1366
tp1367
Rp1368
ag2
(g22
S'\xbb\x86\xbc\x93\x90o\xe6?'
p1369
tp1370
Rp1371
ag2
(g22
S'\x88*J\x99\x98\x96\xda?'
p1372
tp1373
Rp1374
ag2
(g22
S'E/\xa3Xn/u@'
p1375
tp1376
Rp1377
ag2
(g22
S'\x00\x00\x00\x00\x00\x00\xc0?'
p1378
tp1379
Rp1380
ag2
(g22
S'\xa0\x1a/\xdd$\x0cu@'
p1381
tp1382
Rp1383
aF0.0967
aF0.702
aF0.5
aF1.22e-05
aF-7.706
aF0.166
aF98.038
aF0.463
aa(lp1384
g2
(g3
(S'S17'
p1385
I0
I1
tp1386
Rp1387
(I3
S'|'
p1388
NNNI17
I1
I0
tp1389
bS'Secret Handshakes'
p1390
tp1391
Rp1392
ag2
(g3
(S'S10'
p1393
I0
I1
tp1394
Rp1395
(I3
S'|'
p1396
NNNI10
I1
I0
tp1397
bS'The Ataris'
p1398
tp1399
Rp1400
ag2
(g22
S'\x85Sn0\xc7}\xea?'
p1401
tp1402
Rp1403
ag2
(g22
S'\xaewv\xac\xf4\x8d\xe0?'
p1404
tp1405
Rp1406
ag2
(g22
S'"\xfd\xf6u\xe0\xdck@'
p1407
tp1408
Rp1409
ag2
(g22
S'\x12\x83\xc0\xca\xa1E\xde?'
p1410
tp1411
Rp1412
ag2
(g22
S'\xbe\x9f\x1a/\xdd\xdck@'
p1413
tp1414
Rp1415
aF0.0191
aF0.244
aF0.636
aF0.000225
aF-3.799
aF0.0393
aF135.201
aF0.402
aa(lp1416
g2
(g3
(S'S31'
p1417
I0
I1
tp1418
Rp1419
(I3
S'|'
p1420
NNNI31
I1
I0
tp1421
bS'Your Love Takes Good Care Of Me'
p1422
tp1423
Rp1424
ag2
(g3
(S'S15'
p1425
I0
I1
tp1426
Rp1427
(I3
S'|'
p1428
NNNI15
I1
I0
tp1429
bS'The Jordanaires'
p1430
tp1431
Rp1432
ag2
(g22
S'A\x80\xf1(\xbdw\xd8?'
p1433
tp1434
Rp1435
ag2
(g22
S'X\xd2\x06\xbb\xe3%\xd2?'
p1436
tp1437
Rp1438
ag2
(g22
S'\x9aB\xe75v\xef^@'
p1439
tp1440
Rp1441
ag2
(g22
S'\x00\x00\x00\x00\x00\x00\x00\x00'
p1442
tp1443
Rp1444
ag2
(g22
S'\x08\xac\x1cZd\x03^@'
p1445
tp1446
Rp1447
aF0.964
aF0.623
aF0.109
aF0.0507
aF-22.852
aF0.0289
aF109.363
aF0.485
aa(lp1448
g2
(g3
(S'S9'
p1449
I0
I1
tp1450
Rp1451
(I3
S'|'
p1452
NNNI9
I1
I0
tp1453
bS'Shrinking'
p1454
tp1455
Rp1456
ag2
(g3
(S'S9'
p1457
I0
I1
tp1458
Rp1459
(I3
S'|'
p1460
NNNI9
I1
I0
tp1461
bS'Dictafone'
p1462
tp1463
Rp1464
ag2
(g22
S'\x91\x1f\n\x06\x15\x87\xe0?'
p1465
tp1466
Rp1467
ag2
(g22
S'\x1cR\x17\xf9_\x04\xc1?'
p1468
tp1469
Rp1470
ag2
(g22
S'\xa4\x88\x0c\xabx\xc5o@'
p1471
tp1472
Rp1473
ag2
(g22
S'}?5^\xba\xc9\x1f@'
p1474
tp1475
Rp1476
ag2
(g22
S'-\xb2\x9d\xef\xa76n@'
p1477
tp1478
Rp1479
aF0.431
aF0.757
aF0.5
aF0.00283
aF-6.306
aF0.0583
aF129.98
aF0.77
aa(lp1480
g2
(g3
(S'S2'
p1481
I0
I1
tp1482
Rp1483
(I3
S'|'
p1484
NNNI2
I1
I0
tp1485
bS'40'
p1486
tp1487
Rp1488
ag2
(g3
(S'S2'
p1489
I0
I1
tp1490
Rp1491
(I3
S'|'
p1492
NNNI2
I1
I0
tp1493
bS'U2'
p1494
tp1495
Rp1496
ag2
(g22
S'\xcd\x8c\x9d`+\xfe\xea?'
p1497
tp1498
Rp1499
ag2
(g22
S'\xd2o\x08E\x8d\x02\xe8?'
p1500
tp1501
Rp1502
ag2
(g22
S'\xf7\xcc\x92\x00\xb5my@'
p1503
tp1504
Rp1505
ag2
(g22
S'\x00\x00\x00\x00\x00\x00\x00\x00'
p1506
tp1507
Rp1508
ag2
(g22
S'-\xb2\x9d\xef\xa7\x16x@'
p1509
tp1510
Rp1511
aF0.133
aF0.258
aF0.672
aF0.0373
aF-9.607
aF0.0495
aF142.493
aF0.325
aa(lp1512
g2
(g3
(S'S10'
p1513
I0
I1
tp1514
Rp1515
(I3
S'|'
p1516
NNNI10
I1
I0
tp1517
bS'Sleepy Lad'
p1518
tp1519
Rp1520
ag2
(g3
(S'S17'
p1521
I0
I1
tp1522
Rp1523
(I3
S'|'
p1524
NNNI17
I1
I0
tp1525
bS'Maximilian Hecker'
p1526
tp1527
Rp1528
ag2
(g22
S'h#DA9\xe0\xe3?'
p1529
tp1530
Rp1531
ag2
(g22
S'\x8c\xcf;p?\xe2\xdb?'
p1532
tp1533
Rp1534
ag2
(g22
S']\x16\x13\x9b\x8f\xc7e@'
p1535
tp1536
Rp1537
ag2
(g22
S'#\xdb\xf9~j<\x1b@'
p1538
tp1539
Rp1540
ag2
(g22
S'\xa0\x1a/\xdd$zd@'
p1541
tp1542
Rp1543
aF0.911
aF0.48
aF0.357
aF0.869
aF-13.146
aF0.0274
aF76.981
aF0.301
aa(lp1544
g2
(g3
(S'S41'
p1545
I0
I1
tp1546
Rp1547
(I3
S'|'
p1548
NNNI41
I1
I0
tp1549
bS'My Plastic Heart (Plastic Operator Remix)'
p1550
tp1551
Rp1552
ag2
(g3
(S'S5'
p1553
I0
I1
tp1554
Rp1555
(I3
S'|'
p1556
NNNI5
I1
I0
tp1557
bS'Frost'
p1558
tp1559
Rp1560
ag2
(g22
S'oZ^\x93\x13\xe8\xe3?'
p1561
tp1562
Rp1563
ag2
(g22
S'(sE\xb4>\xf4\xdd?'
p1564
tp1565
Rp1566
ag2
(g22
S'F\xce\xc2\x9e\xf6\x03u@'
p1567
tp1568
Rp1569
ag2
(g22
S'B`\xe5\xd0"\xdb\x00@'
p1570
tp1571
Rp1572
ag2
(g22
S'F\xb6\xf3\xfd\xd4\xa6s@'
p1573
tp1574
Rp1575
aF0.0148
aF0.615
aF0.565
aF0.311
aF-12.657
aF0.0454
aF127.02
aF0.882
aa(lp1576
g2
(g3
(S'S6'
p1577
I0
I1
tp1578
Rp1579
(I3
S'|'
p1580
NNNI6
I1
I0
tp1581
bS'Exodus'
p1582
tp1583
Rp1584
ag2
(g3
(S'S9'
p1585
I0
I1
tp1586
Rp1587
(I3
S'|'
p1588
NNNI9
I1
I0
tp1589
bS'Sunscreem'
p1590
tp1591
Rp1592
ag2
(g22
S'\xe2\xf2\x82\xc8\xca~\xe1?'
p1593
tp1594
Rp1595
ag2
(g22
S'W\x9eZ\x10.\xb7\xd8?'
p1596
tp1597
Rp1598
ag2
(g22
S'\x9c\xa2#\xb9\xfc\rm@'
p1599
tp1600
Rp1601
ag2
(g22
S'\x00\x00\x00\x00\x00\x00\x00\x00'
p1602
tp1603
Rp1604
ag2
(g22
S'D\x8bl\xe7\xfb\rm@'
p1605
tp1606
Rp1607
aF0.0103
aF0.651
aF0.9
aF0.845
aF-9.655
aF0.0516
aF133.053
aF0.23
aa(lp1608
g2
(g3
(S'S14'
p1609
I0
I1
tp1610
Rp1611
(I3
S'|'
p1612
NNNI14
I1
I0
tp1613
bS'True Fuschnick'
p1614
tp1615
Rp1616
ag2
(g3
(S'S13'
p1617
I0
I1
tp1618
Rp1619
(I3
S'|'
p1620
NNNI13
I1
I0
tp1621
bS'FU-Schnickens'
p1622
tp1623
Rp1624
ag2
(g22
S'/\x14\xc4\xd7\xeeg\xe0?'
p1625
tp1626
Rp1627
ag2
(g22
S'"\x86">b\xb8\xd7?'
p1628
tp1629
Rp1630
ag2
(g22
S'\x7fM\xd6\xa8\x87\xbdm@'
p1631
tp1632
Rp1633
ag2
(g22
S'\x91\xed|?5^\xca?'
p1634
tp1635
Rp1636
ag2
(g22
S'33333\xcfl@'
p1637
tp1638
Rp1639
aF0.0538
aF0.86
aF0.753
aI0
aF-9.132
aF0.296
aF101.937
aF0.699
aa(lp1640
g2
(g3
(S'S8'
p1641
I0
I1
tp1642
Rp1643
(I3
S'|'
p1644
NNNI8
I1
I0
tp1645
bS'Sickness'
p1646
tp1647
Rp1648
ag2
(g3
(S'S14'
p1649
I0
I1
tp1650
Rp1651
(I3
S'|'
p1652
NNNI14
I1
I0
tp1653
bS'Agnostic Front'
p1654
tp1655
Rp1656
ag2
(g22
S'\x06\x1a\xdc\xfc5r\xe6?'
p1657
tp1658
Rp1659
ag2
(g22
S'\xcf\xda\xc6\xf4I#\xe0?'
p1660
tp1661
Rp1662
ag2
(g22
S'Kvl\x04\xe2\x0bW@'
p1663
tp1664
Rp1665
ag2
(g22
S'\x00\x00\x00\x00\x00\x00\x00\x00'
p1666
tp1667
Rp1668
ag2
(g22
S'\x96C\x8bl\xe7\x0bW@'
p1669
tp1670
Rp1671
aF0.00694
aF0.427
aF0.968
aI0
aF-2.562
aF0.106
aF151.438
aF0.711
aa(lp1672
g2
(g3
(S'S14'
p1673
I0
I1
tp1674
Rp1675
(I3
S'|'
p1676
NNNI14
I1
I0
tp1677
bS'Inertiatic Esp'
p1678
tp1679
Rp1680
ag2
(g3
(S'S14'
p1681
I0
I1
tp1682
Rp1683
(I3
S'|'
p1684
NNNI14
I1
I0
tp1685
bS'The Mars Volta'
p1686
tp1687
Rp1688
ag2
(g22
S'\x04\xd9]\xd3\x95\xc0\xeb?'
p1689
tp1690
Rp1691
ag2
(g22
S'\xdd\xca\xd6\x99H\x87\xe1?'
p1692
tp1693
Rp1694
ag2
(g22
S'\xbe0\x99*\x98\xa7p@'
p1695
tp1696
Rp1697
ag2
(g22
S'\xfa~j\xbct\x93\x02@'
p1698
tp1699
Rp1700
ag2
(g22
S';\xdfO\x8d\x97Fp@'
p1701
tp1702
Rp1703
aF0.00364
aF0.227
aF0.853
aF0.000106
aF-3.424
aF0.0949
aF169.51
aF0.419
aa(lp1704
g2
(g3
(S'S9'
p1705
I0
I1
tp1706
Rp1707
(I3
S'|'
p1708
NNNI9
I1
I0
tp1709
bS'Heartless'
p1710
tp1711
Rp1712
ag2
(g3
(S'S5'
p1713
I0
I1
tp1714
Rp1715
(I3
S'|'
p1716
NNNI5
I1
I0
tp1717
bS'Hoods'
p1718
tp1719
Rp1720
ag2
(g22
S'\xf2\xaa\x930:\x81\xe9?'
p1721
tp1722
Rp1723
ag2
(g22
S'i3mp\xbd\xa9\xda?'
p1724
tp1725
Rp1726
ag2
(g22
S'\xf2A\xcff\xd5\xe9e@'
p1727
tp1728
Rp1729
ag2
(g22
S'\x00\x00\x00\x00\x00\x00\x00\x00'
p1730
tp1731
Rp1732
ag2
(g22
S'!\xb0rh\x91\xc5c@'
p1733
tp1734
Rp1735
aF0.000345
aF0.294
aF0.986
aF0.0996
aF-4.882
aF0.193
aF119.929
aF0.15
aa(lp1736
g2
(g3
(S'S20'
p1737
I0
I1
tp1738
Rp1739
(I3
S'|'
p1740
NNNI20
I1
I0
tp1741
bS"U Don't Have To Call"
p1742
tp1743
Rp1744
ag2
(g3
(S'S10'
p1745
I0
I1
tp1746
Rp1747
(I3
S'|'
p1748
NNNI10
I1
I0
tp1749
bS'Streetwize'
p1750
tp1751
Rp1752
ag2
(g22
S'\xc8\xd6f\xb0\x04\xd6\xda?'
p1753
tp1754
Rp1755
ag2
(g22
S'\xb3\xe1Ld+u\xd4?'
p1756
tp1757
Rp1758
ag2
(g22
S'\n\xbf\xd4\xcf\x1b\xe2r@'
p1759
tp1760
Rp1761
ag2
(g22
S'\x04V\x0e-\xb2\x9d\xcf?'
p1762
tp1763
Rp1764
ag2
(g22
S'\xe5\xd0"\xdb\xf98r@'
p1765
tp1766
Rp1767
aF0.0398
aF0.818
aF0.508
aF0.00138
aF-7.879
aF0.0403
aF101.413
aF0.721
aa(lp1768
g2
(g3
(S'S19'
p1769
I0
I1
tp1770
Rp1771
(I3
S'|'
p1772
NNNI19
I1
I0
tp1773
bS'Foolish Little Girl'
p1774
tp1775
Rp1776
ag2
(g3
(S'S13'
p1777
I0
I1
tp1778
Rp1779
(I3
S'|'
p1780
NNNI13
I1
I0
tp1781
bS'The Shirelles'
p1782
tp1783
Rp1784
ag2
(g22
S'T\x06E\x10\x8d1\xe5?'
p1785
tp1786
Rp1787
ag2
(g22
S'\x0c\x0c\x86*\xcaC\xd8?'
p1788
tp1789
Rp1790
ag2
(g22
S'\xa46qr\xbf\x8a`@'
p1791
tp1792
Rp1793
ag2
(g22
S'\x00\x00\x00\x00\x00\x00\x00\x00'
p1794
tp1795
Rp1796
ag2
(g22
S'X9\xb4\xc8v\xb6_@'
p1797
tp1798
Rp1799
aF0.452
aF0.739
aF0.743
aI0
aF-5.926
aF0.0321
aF111.07
aF0.922
aa(lp1800
g2
(g3
(S'S18'
p1801
I0
I1
tp1802
Rp1803
(I3
S'|'
p1804
NNNI18
I1
I0
tp1805
bS'Get Up (Diplo Mix)'
p1806
tp1807
Rp1808
ag2
(g3
(S'S13'
p1809
I0
I1
tp1810
Rp1811
(I3
S'|'
p1812
NNNI13
I1
I0
tp1813
bS'Bingo Players'
p1814
tp1815
Rp1816
ag2
(g22
S'\x14\x0b\xb1\xad\xa6\xa4\xd9?'
p1817
tp1818
Rp1819
ag2
(g22
S'\xbcJ\x84\x81vC\xce?'
p1820
tp1821
Rp1822
ag2
(g22
S"'f\xbd\x18\xcaoe@"
p1823
tp1824
Rp1825
ag2
(g22
S'\x00\x00\x00\x00\x00\x00\x00\x00'
p1826
tp1827
Rp1828
ag2
(g22
S'\xac\x1cZd;\x03e@'
p1829
tp1830
Rp1831
aF0.00447
aF0.959
aF0.696
aF2.62e-06
aF-4.171
aF0.335
aF128.008
aF0.639
aa(lp1832
g2
(g3
(S'S18'
p1833
I0
I1
tp1834
Rp1835
(I3
S'|'
p1836
NNNI18
I1
I0
tp1837
bS'Inaudible Melodies'
p1838
tp1839
Rp1840
ag2
(g3
(S'S12'
p1841
I0
I1
tp1842
Rp1843
(I3
S'|'
p1844
NNNI12
I1
I0
tp1845
bS'Jack Johnson'
p1846
tp1847
Rp1848
ag2
(g22
S'}\xe2I%\xd7\x9f\xea?'
p1849
tp1850
Rp1851
ag2
(g22
S'L\xc7m\xfaL6\xe6?'
p1852
tp1853
Rp1854
ag2
(g22
S'^\x11\xfco%\xe3i@'
p1855
tp1856
Rp1857
ag2
(g22
S'%\x06\x81\x95C\x8b\t@'
p1858
tp1859
Rp1860
ag2
(g22
S'\xf2\xd2Mb\x10ti@'
p1861
tp1862
Rp1863
aF0.605
aF0.811
aF0.289
aF0.0288
aF-13.92
aF0.0759
aF142.97
aF0.35
aa(lp1864
g2
(g3
(S'S14'
p1865
I0
I1
tp1866
Rp1867
(I3
S'|'
p1868
NNNI14
I1
I0
tp1869
bS'A Veces Vuelvo'
p1870
tp1871
Rp1872
ag2
(g3
(S'S14'
p1873
I0
I1
tp1874
Rp1875
(I3
S'|'
p1876
NNNI14
I1
I0
tp1877
bS'Catupecu Machu'
p1878
tp1879
Rp1880
ag2
(g22
S'g\xe7\xebQ$\xbb\xe3?'
p1881
tp1882
Rp1883
ag2
(g22
S'B\x11\xaa\x17\xebk\xdc?'
p1884
tp1885
Rp1886
ag2
(g22
S'\xa7\xe8H.\xff\xa2p@'
p1887
tp1888
Rp1889
ag2
(g22
S'\x8d\x97n\x12\x83\xc0\xd2?'
p1890
tp1891
Rp1892
ag2
(g22
S'#\xdb\xf9~j p@'
p1893
tp1894
Rp1895
aF0.0189
aF0.596
aF0.83
aI0
aF-4.256
aF0.0353
aF126.565
aF0.607
aa(lp1896
g2
(g3
(S'S32'
p1897
I0
I1
tp1898
Rp1899
(I3
S'|'
p1900
NNNI32
I1
I0
tp1901
bS'Isle Of Inishmore - Part 1 (Air)'
p1902
tp1903
Rp1904
ag2
(g3
(S'S12'
p1905
I0
I1
tp1906
Rp1907
(I3
S'|'
p1908
NNNI12
I1
I0
tp1909
bS'Kathy Mattea'
p1910
tp1911
Rp1912
ag2
(g22
S'\x06\xc7|+\xeaN\xe3?'
p1913
tp1914
Rp1915
ag2
(g22
S'\xfe\xae\xed\xcc!\x04\xdb?'
p1916
tp1917
Rp1918
ag2
(g22
S'$\x0b\x98\xc0\xad5_@'
p1919
tp1920
Rp1921
ag2
(g22
S'{\x14\xaeG\xe1z\xc4?'
p1922
tp1923
Rp1924
ag2
(g22
S'^\xbaI\x0c\x02\xab\\@'
p1925
tp1926
Rp1927
aF0.639
aF0.323
aF0.205
aF0.573
aF-14.136
aF0.0301
aF65.189
aF0.238
aa(lp1928
g2
(g3
(S'S18'
p1929
I0
I1
tp1930
Rp1931
(I3
S'|'
p1932
NNNI18
I1
I0
tp1933
bS'What Would You Do?'
p1934
tp1935
Rp1936
ag2
(g3
(S'S9'
p1937
I0
I1
tp1938
Rp1939
(I3
S'|'
p1940
NNNI9
I1
I0
tp1941
bS'City High'
p1942
tp1943
Rp1944
ag2
(g22
S"+\xcc'\xc8o\xa6\xe4?"
p1945
tp1946
Rp1947
ag2
(g22
S'\xf1\x1e\x8etv\xab\xd9?'
p1948
tp1949
Rp1950
ag2
(g22
S'z\x19\xc5rK\xdde@'
p1951
tp1952
Rp1953
ag2
(g22
S'\xb4\xc8v\xbe\x9f\x1a\xcf?'
p1954
tp1955
Rp1956
ag2
(g22
S'\x0c\x02+\x87\x16\x85e@'
p1957
tp1958
Rp1959
aF0.278
aF0.732
aF0.793
aI0
aF-7.053
aF0.24
aF95.918
aF0.821
aa(lp1960
g2
(g3
(S'S11'
p1961
I0
I1
tp1962
Rp1963
(I3
S'|'
p1964
NNNI11
I1
I0
tp1965
bS'Mambo Bacan'
p1966
tp1967
Rp1968
ag2
(g3
(S'S11'
p1969
I0
I1
tp1970
Rp1971
(I3
S'|'
p1972
NNNI11
I1
I0
tp1973
bS'Line Renaud'
p1974
tp1975
Rp1976
ag2
(g22
S'tX\nP\xf5\x17\xde?'
p1977
tp1978
Rp1979
ag2
(g22
S'\x8a\xd4\x91\xe0M|\xd4?'
p1980
tp1981
Rp1982
ag2
(g22
S'\xd7i\xa4\xa5\xf2\xbdc@'
p1983
tp1984
Rp1985
ag2
(g22
S'\x00\x00\x00\x00\x00\x00\x00\x00'
p1986
tp1987
Rp1988
ag2
(g22
S'\xc9v\xbe\x9f\x1a\xbfb@'
p1989
tp1990
Rp1991
aF0.786
aF0.62
aF0.493
aF1.73e-06
aF-9.766
aF0.0449
aF122.657
aF0.875
aa(lp1992
g2
(g3
(S'S8'
p1993
I0
I1
tp1994
Rp1995
(I3
S'|'
p1996
NNNI8
I1
I0
tp1997
bS'For Free'
p1998
tp1999
Rp2000
ag2
(g3
(S'S11'
p2001
I0
I1
tp2002
Rp2003
(I3
S'|'
p2004
NNNI11
I1
I0
tp2005
bS'Hal Russell'
p2006
tp2007
Rp2008
ag2
(g22
S'\x1c\xd1\xa0\xce\x1c{\xd3?'
p2009
tp2010
Rp2011
ag2
(g22
S'\x00\x00\x00\x00\x00\x00\x00\x00'
p2012
tp2013
Rp2014
ag2
(g22
S'du\xab\xe7\xa4\xd2x@'
p2015
tp2016
Rp2017
ag2
(g22
S"'1\x08\xac\x1cZ\xe4?"
p2018
tp2019
Rp2020
ag2
(g22
S'\xcb\xa1E\xb6\xf3\x1fx@'
p2021
tp2022
Rp2023
aF0.547
aF0.367
aF0.332
aF0.000209
aF-18.593
aF0.0804
aF81.967
aF0.154
aa(lp2024
g2
(g3
(S'S13'
p2025
I0
I1
tp2026
Rp2027
(I3
S'|'
p2028
NNNI13
I1
I0
tp2029
bS'Wings Of Love'
p2030
tp2031
Rp2032
ag2
(g3
(S'S29'
p2033
I0
I1
tp2034
Rp2035
(I3
S'|'
p2036
NNNI29
I1
I0
tp2037
bS'Zagar feat. Underground Divas'
p2038
tp2039
Rp2040
ag2
(g22
S'@\x0e\x12\r\x9a|\xe2?'
p2041
tp2042
Rp2043
ag2
(g22
S'R\x82\xad\xc6\xee\x90\xd9?'
p2044
tp2045
Rp2046
ag2
(g22
S'\xc3\x81\x90,`Sq@'
p2047
tp2048
Rp2049
ag2
(g22
S'\x00\x00\x00\x00\x00\x00\x00\x00'
p2050
tp2051
Rp2052
ag2
(g22
S'\n\xd7\xa3p=&q@'
p2053
tp2054
Rp2055
aF0.00703
aF0.548
aF0.946
aF0.0224
aF-5.625
aF0.0669
aF111.945
aF0.376
aa(lp2056
g2
(g3
(S'S10'
p2057
I0
I1
tp2058
Rp2059
(I3
S'|'
p2060
NNNI10
I1
I0
tp2061
bS'Sugar Bush'
p2062
tp2063
Rp2064
ag2
(g3
(S'S14'
p2065
I0
I1
tp2066
Rp2067
(I3
S'|'
p2068
NNNI14
I1
I0
tp2069
bS'Bert Kaempfert'
p2070
tp2071
Rp2072
ag2
(g22
S'jm5U%P\xe1?'
p2073
tp2074
Rp2075
ag2
(g22
S'x\xa30s\xad\x1f\xdb?'
p2076
tp2077
Rp2078
ag2
(g22
S'\x98n\x12\x83\xc0-i@'
p2079
tp2080
Rp2081
ag2
(g22
S'\x0c\x02+\x87\x16\xd9\xce?'
p2082
tp2083
Rp2084
ag2
(g22
S'\xaeG\xe1z\x14\x96h@'
p2085
tp2086
Rp2087
aF0.706
aF0.672
aF0.282
aF0.487
aF-16.415
aF0.0599
aF160.938
aF0.831
aa(lp2088
g2
(g3
(S'S30'
p2089
I0
I1
tp2090
Rp2091
(I3
S'|'
p2092
NNNI30
I1
I0
tp2093
bS'Haughtiness And Puerile Dreams'
p2094
tp2095
Rp2096
ag2
(g3
(S'S11'
p2097
I0
I1
tp2098
Rp2099
(I3
S'|'
p2100
NNNI11
I1
I0
tp2101
bS'Autumnblaze'
p2102
tp2103
Rp2104
ag2
(g22
S'\xc4\x1au\xa3\xe9\x9b\xdf?'
p2105
tp2106
Rp2107
ag2
(g22
S'\x02\xae\xd7\x1cr\xc0\xd6?'
p2108
tp2109
Rp2110
ag2
(g22
S"\xd4\x9a\xe6\x1d'\\q@"
p2111
tp2112
Rp2113
ag2
(g22
S'\x00\x00\x00\x00\x00\x00\x00\x00'
p2114
tp2115
Rp2116
ag2
(g22
S'\xd3Mb\x10X\xd1p@'
p2117
tp2118
Rp2119
aF4.15e-06
aF0.325
aF0.931
aF0.784
aF-5.809
aF0.0526
aF160.025
aF0.351
aa(lp2120
g2
(g3
(S'S16'
p2121
I0
I1
tp2122
Rp2123
(I3
S'|'
p2124
NNNI16
I1
I0
tp2125
bS"Gettin' Together"
p2126
tp2127
Rp2128
ag2
(g3
(S'S29'
p2129
I0
I1
tp2130
Rp2131
(I3
S'|'
p2132
NNNI29
I1
I0
tp2133
bS'Tommy James And The Shondells'
p2134
tp2135
Rp2136
ag2
(g22
S'FD\xd8p@\xda\xe3?'
p2137
tp2138
Rp2139
ag2
(g22
S'B\xb6;\xfe\x94\x00\xd9?'
p2140
tp2141
Rp2142
ag2
(g22
S'\xbe\xd9\xe6\xc6\xf4\x03a@'
p2143
tp2144
Rp2145
ag2
(g22
S'\xc3\xf5(\\\x8f\xc2\xd5?'
p2146
tp2147
Rp2148
ag2
(g22
S'\x12\x83\xc0\xca\xa1]_@'
p2149
tp2150
Rp2151
aF0.541
aF0.705
aF0.814
aF4.56e-05
aF-10.893
aF0.0653
aF143.006
aF0.963
aa(lp2152
g2
(g3
(S'S13'
p2153
I0
I1
tp2154
Rp2155
(I3
S'|'
p2156
NNNI13
I1
I0
tp2157
bS'Piano E Viola'
p2158
tp2159
Rp2160
ag2
(g3
(S'S12'
p2161
I0
I1
tp2162
Rp2163
(I3
S'|'
p2164
NNNI12
I1
I0
tp2165
bS'Pery Ribeiro'
p2166
tp2167
Rp2168
ag2
(g22
S'\xd3\x14R\xf0\xad\xaa\xd8?'
p2169
tp2170
Rp2171
ag2
(g22
S'd\x94\x18;\xf5\xf9\xd3?'
p2172
tp2173
Rp2174
ag2
(g22
S'7l[\x94\xd9uh@'
p2175
tp2176
Rp2177
ag2
(g22
S'R\xb8\x1e\x85\xebQ\xd8?'
p2178
tp2179
Rp2180
ag2
(g22
S'J\x0c\x02+\x87\xfef@'
p2181
tp2182
Rp2183
aF0.763
aF0.515
aF0.35
aI0
aF-10.843
aF0.0348
aF118.301
aF0.263
aa(lp2184
g2
(g3
(S'S4'
p2185
I0
I1
tp2186
Rp2187
(I3
S'|'
p2188
NNNI4
I1
I0
tp2189
bS'Soul'
p2190
tp2191
Rp2192
ag2
(g3
(S'S21'
p2193
I0
I1
tp2194
Rp2195
(I3
S'|'
p2196
NNNI21
I1
I0
tp2197
bS'Pedro Luis e a Parede'
p2198
tp2199
Rp2200
ag2
(g22
S'\x7f$\xc6\x92\xd6\xb5\xde?'
p2201
tp2202
Rp2203
ag2
(g22
S'\x0c!\xa0\xbc!&\xd7?'
p2204
tp2205
Rp2206
ag2
(g22
S'"\x89^F\xb1\xael@'
p2207
tp2208
Rp2209
ag2
(g22
S'\xfe\xd4x\xe9&1\xd0?'
p2210
tp2211
Rp2212
ag2
(g22
S'\xa8\xc6K7\x89]l@'
p2213
tp2214
Rp2215
aF0.451
aF0.69
aF0.782
aF0.00208
aF-5.593
aF0.131
aF79.51
aF0.593
aa(lp2216
g2
(g3
(S'S13'
p2217
I0
I1
tp2218
Rp2219
(I3
S'|'
p2220
NNNI13
I1
I0
tp2221
bS'Heart Trouble'
p2222
tp2223
Rp2224
ag2
(g3
(S'S15'
p2225
I0
I1
tp2226
Rp2227
(I3
S'|'
p2228
NNNI15
I1
I0
tp2229
bS'Martina McBride'
p2230
tp2231
Rp2232
ag2
(g22
S'\xc0N\x0e\xcf\x05\xad\xe3?'
p2233
tp2234
Rp2235
ag2
(g22
S'\x9f5\x08<\x98\x1a\xe4?'
p2236
tp2237
Rp2238
ag2
(g22
S'm\x1c\xb1\x16\x9f\xcdh@'
p2239
tp2240
Rp2241
ag2
(g22
S'\xd5x\xe9&1\x08\xf2?'
p2242
tp2243
Rp2244
ag2
(g22
S'33333kg@'
p2245
tp2246
Rp2247
aF0.0416
aF0.516
aF0.894
aF0.000105
aF-6.571
aF0.0419
aF175.918
aF0.84
aa(lp2248
g2
(g3
(S'S20'
p2249
I0
I1
tp2250
Rp2251
(I3
S'|'
p2252
NNNI20
I1
I0
tp2253
bS'Good Rocking Tonight'
p2254
tp2255
Rp2256
ag2
(g3
(S'S9'
p2257
I0
I1
tp2258
Rp2259
(I3
S'|'
p2260
NNNI9
I1
I0
tp2261
bS'Roy Brown'
p2262
tp2263
Rp2264
ag2
(g22
S'\xbc\x8f\x06\xfd\x84\xab\xdd?'
p2265
tp2266
Rp2267
ag2
(g22
S'\xec\x0c\xdb\x86\xeb\x88\xd7?'
p2268
tp2269
Rp2270
ag2
(g22
S'\xb4\xc8v\xbe\x9fbl@'
p2271
tp2272
Rp2273
ag2
(g22
S'\x12\x83\xc0\xca\xa1E\xde?'
p2274
tp2275
Rp2276
ag2
(g22
S'%\x06\x81\x95C\xd7j@'
p2277
tp2278
Rp2279
aF0.913
aF0.488
aF0.716
aF0.0189
aF-10.015
aF0.177
aF165.429
aF0.513
aa(lp2280
g2
(g3
(S'S40'
p2281
I0
I1
tp2282
Rp2283
(I3
S'|'
p2284
NNNI40
I1
I0
tp2285
bS'Save Me (Rolling Stone Original Version)'
p2286
tp2287
Rp2288
ag2
(g3
(S'S13'
p2289
I0
I1
tp2290
Rp2291
(I3
S'|'
p2292
NNNI13
I1
I0
tp2293
bS'Unwritten Law'
p2294
tp2295
Rp2296
ag2
(g22
S'\x8b)\x12\x01\xbeo\xe4?'
p2297
tp2298
Rp2299
ag2
(g22
S'\xe6\x07\x93\xa9u~\xdd?'
p2300
tp2301
Rp2302
ag2
(g22
S'\xe6?\xa4\xdf\xbe\xf5h@'
p2303
tp2304
Rp2305
ag2
(g22
S'\xe9&1\x08\xac\x1c\x04@'
p2306
tp2307
Rp2308
ag2
(g22
S'm\xe7\xfb\xa9\xf1\x8ah@'
p2309
tp2310
Rp2311
aF0.527
aF0.522
aF0.325
aI0
aF-11.785
aF0.0416
aF78.931
aF0.513
aa(lp2312
g2
(g3
(S'S26'
p2313
I0
I1
tp2314
Rp2315
(I3
S'|'
p2316
NNNI26
I1
I0
tp2317
bS'Unemployed Black Astronaut'
p2318
tp2319
Rp2320
ag2
(g3
(S'S9'
p2321
I0
I1
tp2322
Rp2323
(I3
S'|'
p2324
NNNI9
I1
I0
tp2325
bS'Busdriver'
p2326
tp2327
Rp2328
ag2
(g22
S'\x92\xea+\xa1\xad\xc6\xe3?'
p2329
tp2330
Rp2331
ag2
(g22
S'\x16\x9f\x02\xf5\xd1]\xd6?'
p2332
tp2333
Rp2334
ag2
(g22
S'\x15od\x1e\xf9\x16n@'
p2335
tp2336
Rp2337
ag2
(g22
S'\x14\xaeG\xe1z\x14\xce?'
p2338
tp2339
Rp2340
ag2
(g22
S'L7\x89A`\xbdl@'
p2341
tp2342
Rp2343
aF0.121
aF0.791
aF0.685
aI0
aF-10.021
aF0.224
aF92.988
aF0.363
aa(lp2344
g2
(g3
(S'S10'
p2345
I0
I1
tp2346
Rp2347
(I3
S'|'
p2348
NNNI10
I1
I0
tp2349
bS'Contigo Si'
p2350
tp2351
Rp2352
ag2
(g3
(S'S14'
p2353
I0
I1
tp2354
Rp2355
(I3
S'|'
p2356
NNNI14
I1
I0
tp2357
bS'La 5A Estacion'
p2358
tp2359
Rp2360
ag2
(g22
S'\xd2\xb7\x15D\xf2\xbe\xdd?'
p2361
tp2362
Rp2363
ag2
(g22
S'a\x13\x97\xcc\xd2]\xd5?'
p2364
tp2365
Rp2366
ag2
(g22
S'\xf91\xe6\xae%j`@'
p2367
tp2368
Rp2369
ag2
(g22
S'\x00\x00\x00\x00\x00\x00\x00\x00'
p2370
tp2371
Rp2372
ag2
(g22
S'\xf0\xa7\xc6K79_@'
p2373
tp2374
Rp2375
aF0.735
aF0.693
aF0.389
aI0
aF-5.887
aF0.0278
aF99.788
aF0.478
aa(lp2376
g2
(g3
(S'S22'
p2377
I0
I1
tp2378
Rp2379
(I3
S'|'
p2380
NNNI22
I1
I0
tp2381
bS"Autumn's Ablaze (Live)"
p2382
tp2383
Rp2384
ag2
(g3
(S'S10'
p2385
I0
I1
tp2386
Rp2387
(I3
S'|'
p2388
NNNI10
I1
I0
tp2389
bS'Primordial'
p2390
tp2391
Rp2392
ag2
(g22
S'tptM\x85\x08\xe8?'
p2393
tp2394
Rp2395
ag2
(g22
S'[\xb1\xf3\xfd\xac\xc3\xda?'
p2396
tp2397
Rp2398
ag2
(g22
S'\xb0\xe6\x00\xc1\x9cA~@'
p2399
tp2400
Rp2401
ag2
(g22
S'\x00\x00\x00\x00\x00\x00\x00\x00'
p2402
tp2403
Rp2404
ag2
(g22
S'V\x0e-\xb2\x9dA~@'
p2405
tp2406
Rp2407
aF0.263
aF0.204
aF0.66
aF0.38
aF-12.478
aF0.0807
aF92.44
aF0.373
aa(lp2408
g2
(g3
(S'S10'
p2409
I0
I1
tp2410
Rp2411
(I3
S'|'
p2412
NNNI10
I1
I0
tp2413
bS'Main Title'
p2414
tp2415
Rp2416
ag2
(g3
(S'S15'
p2417
I0
I1
tp2418
Rp2419
(I3
S'|'
p2420
NNNI15
I1
I0
tp2421
bS'Christophe Beck'
p2422
tp2423
Rp2424
ag2
(g22
S'\xc4\xfe\xef\x9f\xeb\x98\xde?'
p2425
tp2426
Rp2427
ag2
(g22
S'r\x94\xac\xc6\x7f7\xd8?'
p2428
tp2429
Rp2430
ag2
(g22
S'\xb5O\xc7c\x06\xceV@'
p2431
tp2432
Rp2433
ag2
(g22
S'\xd1"\xdb\xf9~j\xdc?'
p2434
tp2435
Rp2436
ag2
(g22
S'\xb4\xc8v\xbe\x9f\xa2S@'
p2437
tp2438
Rp2439
aF0.636
aF0.413
aF0.22
aF0.893
aF-26.142
aF0.0551
aF117.594
aF0.0346
aa(lp2440
g2
(g3
(S'S27'
p2441
I0
I1
tp2442
Rp2443
(I3
S'|'
p2444
NNNI27
I1
I0
tp2445
bS'Trumpet Blues And Cantabile'
p2446
tp2447
Rp2448
ag2
(g3
(S'S8'
p2449
I0
I1
tp2450
Rp2451
(I3
S'|'
p2452
NNNI8
I1
I0
tp2453
bS'Mike Vax'
p2454
tp2455
Rp2456
ag2
(g22
S'N_!\xccS\x1f\xd4?'
p2457
tp2458
Rp2459
ag2
(g22
S'_v\xd0-7\xe7\xcb?'
p2460
tp2461
Rp2462
ag2
(g22
S'\xac\x1cZd;Bc@'
p2463
tp2464
Rp2465
ag2
(g22
S'\x8bl\xe7\xfb\xa9\xf1\xda?'
p2466
tp2467
Rp2468
ag2
(g22
S'\xf2\xd2Mb\x10tb@'
p2469
tp2470
Rp2471
aF0.501
aF0.429
aF0.369
aF0.774
aF-10.118
aF0.032
aF108.147
aF0.524
aa(lp2472
g2
(g3
(S'S10'
p2473
I0
I1
tp2474
Rp2475
(I3
S'|'
p2476
NNNI10
I1
I0
tp2477
bS'Raggy Road'
p2478
tp2479
Rp2480
ag2
(g3
(S'S8'
p2481
I0
I1
tp2482
Rp2483
(I3
S'|'
p2484
NNNI8
I1
I0
tp2485
bS'Capleton'
p2486
tp2487
Rp2488
ag2
(g22
S"O4#\xed'1\xe5?"
p2489
tp2490
Rp2491
ag2
(g22
S'\xb3\xf9\xbf\x8cQ>\xda?'
p2492
tp2493
Rp2494
ag2
(g22
S'<\xa5\x83\xf5\x7f\xb8U@'
p2495
tp2496
Rp2497
ag2
(g22
S'\x00\x00\x00\x00\x00\x00\x00\x00'
p2498
tp2499
Rp2500
ag2
(g22
S'\x8d\x97n\x12\x83\xb8U@'
p2501
tp2502
Rp2503
aF0.241
aF0.549
aF0.696
aI0
aF-5.845
aF0.284
aF73.932
aF0.889
aa(lp2504
g2
(g3
(S'S33'
p2505
I0
I1
tp2506
Rp2507
(I3
S'|'
p2508
NNNI33
I1
I0
tp2509
bS"You'll Need Somebody On Your Bond"
p2510
tp2511
Rp2512
ag2
(g3
(S'S20'
p2513
I0
I1
tp2514
Rp2515
(I3
S'|'
p2516
NNNI20
I1
I0
tp2517
bS'Blind Willie Johnson'
p2518
tp2519
Rp2520
ag2
(g22
S'\x14\xefj\x89\xaa`\xe2?'
p2521
tp2522
Rp2523
ag2
(g22
S'\x97\x01g\xfeZ\xac\xd9?'
p2524
tp2525
Rp2526
ag2
(g22
S'\xf1\x80\xb2)Weg@'
p2527
tp2528
Rp2529
ag2
(g22
S'\x8d\x97n\x12\x83\xc0\x08@'
p2530
tp2531
Rp2532
ag2
(g22
S'\x85\xebQ\xb8\x1e]f@'
p2533
tp2534
Rp2535
aF0.994
aF0.543
aF0.218
aF0.179
aF-14.185
aF0.0435
aF159.819
aF0.572
aa(lp2536
g2
(g3
(S'S14'
p2537
I0
I1
tp2538
Rp2539
(I3
S'|'
p2540
NNNI14
I1
I0
tp2541
bS'Cross Currents'
p2542
tp2543
Rp2544
ag2
(g3
(S'S15'
p2545
I0
I1
tp2546
Rp2547
(I3
S'|'
p2548
NNNI15
I1
I0
tp2549
bS'Richard Souther'
p2550
tp2551
Rp2552
ag2
(g22
S'\x06E-:Y\xe0\xda?'
p2553
tp2554
Rp2555
ag2
(g22
S'\xd1N\x00m\xee+\xd5?'
p2556
tp2557
Rp2558
ag2
(g22
S'\x16\x13\x9b\x8f\xeb\x10q@'
p2559
tp2560
Rp2561
ag2
(g22
S'\x00\x00\x00\x00\x00\x00\x00\x00'
p2562
tp2563
Rp2564
ag2
(g22
S'\\\x8f\xc2\xf5(*p@'
p2565
tp2566
Rp2567
aF0.208
aF0.537
aF0.477
aF0.0888
aF-14.903
aF0.0325
aF88.743
aF0.767
aa(lp2568
g2
(g3
(S'S16'
p2569
I0
I1
tp2570
Rp2571
(I3
S'|'
p2572
NNNI16
I1
I0
tp2573
bS'No. 6 The Coombe'
p2574
tp2575
Rp2576
ag2
(g3
(S'S14'
p2577
I0
I1
tp2578
Rp2579
(I3
S'|'
p2580
NNNI14
I1
I0
tp2581
bS'The Chieftains'
p2582
tp2583
Rp2584
ag2
(g22
S'\x7f\xba\x1c&\x984\xe5?'
p2585
tp2586
Rp2587
ag2
(g22
S'\xa0\xe1\xd4\x8c\nA\xd8?'
p2588
tp2589
Rp2590
ag2
(g22
S'tF\x94\xf6\x06\xe5l@'
p2591
tp2592
Rp2593
ag2
(g22
S'\x89A`\xe5\xd0"\x12@'
p2594
tp2595
Rp2596
ag2
(g22
S'\xa2E\xb6\xf3\xfdTl@'
p2597
tp2598
Rp2599
aF0.85
aF0.35
aF0.429
aF0.559
aF-10.419
aF0.0397
aF104.827
aF0.449
aa(lp2600
g2
(g3
(S'S11'
p2601
I0
I1
tp2602
Rp2603
(I3
S'|'
p2604
NNNI11
I1
I0
tp2605
bS"Don't Speak"
p2606
tp2607
Rp2608
ag2
(g3
(S'S5'
p2609
I0
I1
tp2610
Rp2611
(I3
S'|'
p2612
NNNI5
I1
I0
tp2613
bS'Kinky'
p2614
tp2615
Rp2616
ag2
(g22
S't\xe7N{~\xab\xe7?'
p2617
tp2618
Rp2619
ag2
(g22
S'\nR\xb9r\x0f\xb7\xe1?'
p2620
tp2621
Rp2622
ag2
(g22
S'\x14y\x92t\xcd s@'
p2623
tp2624
Rp2625
ag2
(g22
S'\xaa\xf1\xd2Mb\x10\x04@'
p2626
tp2627
Rp2628
ag2
(g22
S'7\x89A`\xe5\x8er@'
p2629
tp2630
Rp2631
aF0.025
aF0.659
aF0.841
aF0.0402
aF-8.527
aF0.0317
aF132.266
aF0.244
aa(lp2632
g2
(g3
(S'S10'
p2633
I0
I1
tp2634
Rp2635
(I3
S'|'
p2636
NNNI10
I1
I0
tp2637
bS'Death Song'
p2638
tp2639
Rp2640
ag2
(g3
(S'S22'
p2641
I0
I1
tp2642
Rp2643
(I3
S'|'
p2644
NNNI22
I1
I0
tp2645
bS'The Last Days Of Jesus'
p2646
tp2647
Rp2648
ag2
(g22
S'\xae>\xd9\x0b.\xc2\xe0?'
p2649
tp2650
Rp2651
ag2
(g22
S'+L\xc3\xbf\xf8\xac\xd6?'
p2652
tp2653
Rp2654
ag2
(g22
S'\xb9\xaa\xec\xbb"Ir@'
p2655
tp2656
Rp2657
ag2
(g22
S'\n\xd7\xa3p=\n\xb7?'
p2658
tp2659
Rp2660
ag2
(g22
S')\\\x8f\xc2\xf5\xfep@'
p2661
tp2662
Rp2663
aF0.00105
aF0.478
aF0.788
aF0.0445
aF-8.362
aF0.0828
aF144.626
aF0.391
aa(lp2664
g2
(g3
(S'S17'
p2665
I0
I1
tp2666
Rp2667
(I3
S'|'
p2668
NNNI17
I1
I0
tp2669
bS'Everyday Stranger'
p2670
tp2671
Rp2672
ag2
(g3
(S'S36'
p2673
I0
I1
tp2674
Rp2675
(I3
S'|'
p2676
NNNI36
I1
I0
tp2677
bS'Dub Pistols feat. TK & Ashley Slater'
p2678
tp2679
Rp2680
ag2
(g22
S'?\x0cR\xf5\xfa\x00\xe6?'
p2681
tp2682
Rp2683
ag2
(g22
S'\xe2\x13\xd6\xceA\xb1\xda?'
p2684
tp2685
Rp2686
ag2
(g22
S'\xff\t.V\xd4\x87t@'
p2687
tp2688
Rp2689
ag2
(g22
S'\xa6\x9b\xc4 \xb0r\t@'
p2690
tp2691
Rp2692
ag2
(g22
S'7\x89A`\xe5Nr@'
p2693
tp2694
Rp2695
aF0.000682
aF0.633
aF0.907
aF0.358
aF-6.014
aF0.0315
aF100.036
aF0.402
aa(lp2696
g2
(g3
(S'S19'
p2697
I0
I1
tp2698
Rp2699
(I3
S'|'
p2700
NNNI19
I1
I0
tp2701
bS'Every Breath I Take'
p2702
tp2703
Rp2704
ag2
(g3
(S'S11'
p2705
I0
I1
tp2706
Rp2707
(I3
S'|'
p2708
NNNI11
I1
I0
tp2709
bS'Gene Pitney'
p2710
tp2711
Rp2712
ag2
(g22
S'\x8cV,_\x1c\xce\xe1?'
p2713
tp2714
Rp2715
ag2
(g22
S'\xed\xaa\x83W\xd5a\xd9?'
p2716
tp2717
Rp2718
ag2
(g22
S'\xd3\xbc\xe3\x14\x1d\xcbd@'
p2719
tp2720
Rp2721
ag2
(g22
S'\xcb\xa1E\xb6\xf3\xfd\xd4?'
p2722
tp2723
Rp2724
ag2
(g22
S'5^\xbaI\x0cRc@'
p2725
tp2726
Rp2727
aF0.726
aF0.498
aF0.622
aF0.856
aF-9.146
aF0.0423
aF92.913
aF0.708
aa(lp2728
g2
(g3
(S'S9'
p2729
I0
I1
tp2730
Rp2731
(I3
S'|'
p2732
NNNI9
I1
I0
tp2733
bS'Here I Am'
p2734
tp2735
Rp2736
ag2
(g3
(S'S3'
p2737
I0
I1
tp2738
Rp2739
(I3
S'|'
p2740
NNNI3
I1
I0
tp2741
bS'FFH'
p2742
tp2743
Rp2744
ag2
(g22
S'\rL\x1e:h=\xe3?'
p2745
tp2746
Rp2747
ag2
(g22
S'\xab\xc6\x15au\x81\xdd?'
p2748
tp2749
Rp2750
ag2
(g22
S'\xc8$#ga}p@'
p2751
tp2752
Rp2753
ag2
(g22
S'J\x0c\x02+\x87\x16\x13@'
p2754
tp2755
Rp2756
ag2
(g22
S'\xe1z\x14\xaeG]o@'
p2757
tp2758
Rp2759
aF0.126
aF0.388
aF0.615
aI0
aF-6.186
aF0.0294
aF138.518
aF0.129
aa(lp2760
g2
(g3
(S'S24'
p2761
I0
I1
tp2762
Rp2763
(I3
S'|'
p2764
NNNI24
I1
I0
tp2765
bS'Down And Out In Paradise'
p2766
tp2767
Rp2768
ag2
(g3
(S'S15'
p2769
I0
I1
tp2770
Rp2771
(I3
S'|'
p2772
NNNI15
I1
I0
tp2773
bS'John Mellencamp'
p2774
tp2775
Rp2776
ag2
(g22
S'2P\xbfG"\xb0\xe7?'
p2777
tp2778
Rp2779
ag2
(g22
S"'\xa7\x04\x85c\x89\xe0?"
p2780
tp2781
Rp2782
ag2
(g22
S'\x1d \x98\xa3\xc7\x1bk@'
p2783
tp2784
Rp2785
ag2
(g22
S'L7\x89A`\xe5\xb0?'
p2786
tp2787
Rp2788
ag2
(g22
S'\x0c\x02+\x87\x16\xb5i@'
p2789
tp2790
Rp2791
aF0.0529
aF0.75
aF0.959
aF4.63e-06
aF-3.147
aF0.0635
aF135.194
aF0.881
aa(lp2792
g2
(g3
(S'S44'
p2793
I0
I1
tp2794
Rp2795
(I3
S'|'
p2796
NNNI44
I1
I0
tp2797
bS'Chalifot (Suits) (Live) (ft. Lioara Itzchak)'
p2798
tp2799
Rp2800
ag2
(g3
(S'S12'
p2801
I0
I1
tp2802
Rp2803
(I3
S'|'
p2804
NNNI12
I1
I0
tp2805
bS'Hadag Nahash'
p2806
tp2807
Rp2808
ag2
(g22
S'\x95e\xf7\xd1\xec\xc3\xde?'
p2809
tp2810
Rp2811
ag2
(g22
S'\xcf\xab\x9f\xc79Y\xd9?'
p2812
tp2813
Rp2814
ag2
(g22
S'\x94\xf6\x06_\x98.u@'
p2815
tp2816
Rp2817
ag2
(g22
S'\x00\x00\x00\x00\x00\x00\x00\x00'
p2818
tp2819
Rp2820
ag2
(g22
S';\xdfO\x8d\x97.u@'
p2821
tp2822
Rp2823
aF0.0741
aF0.526
aF0.834
aF4.59e-06
aF-5.517
aF0.0656
aF83.988
aF0.507
aa(lp2824
g2
(g3
(S'S12'
p2825
I0
I1
tp2826
Rp2827
(I3
S'|'
p2828
NNNI12
I1
I0
tp2829
bS'Bomba Camara'
p2830
tp2831
Rp2832
ag2
(g3
(S'S23'
p2833
I0
I1
tp2834
Rp2835
(I3
S'|'
p2836
NNNI23
I1
I0
tp2837
bS'Richie Ray & Bobby Cruz'
p2838
tp2839
Rp2840
ag2
(g22
S'\x9a"\xd6a\x8eB\xe0?'
p2841
tp2842
Rp2843
ag2
(g22
S'\x91\x0e@w4\x11\xd7?'
p2844
tp2845
Rp2846
ag2
(g22
S'\xfb\x969]\x16,w@'
p2847
tp2848
Rp2849
ag2
(g22
S'\xe3\xa5\x9b\xc4 \xb0\xc2?'
p2850
tp2851
Rp2852
ag2
(g22
S'\xc3\xf5(\\\x8f\xd0v@'
p2853
tp2854
Rp2855
aF0.677
aF0.532
aF0.894
aF0.0727
aF-4.425
aF0.0429
aF107.753
aF0.836
aa(lp2856
g2
(g3
(S'S18'
p2857
I0
I1
tp2858
Rp2859
(I3
S'|'
p2860
NNNI18
I1
I0
tp2861
bS'Kill Your Darlings'
p2862
tp2863
Rp2864
ag2
(g3
(S'S7'
p2865
I0
I1
tp2866
Rp2867
(I3
S'|'
p2868
NNNI7
I1
I0
tp2869
bS'Soulwax'
p2870
tp2871
Rp2872
ag2
(g22
S'\xf0\xab\xaa@\xe4\xb2\xe9?'
p2873
tp2874
Rp2875
ag2
(g22
S'\x16\xf6\x08H\xf5\x0e\xe0?'
p2876
tp2877
Rp2878
ag2
(g22
S"\xb4v\xdb\x85\xe6'i@"
p2879
tp2880
Rp2881
ag2
(g22
S'\x12\x83\xc0\xca\xa1E\xea?'
p2882
tp2883
Rp2884
ag2
(g22
S'\xa8\xc6K7\x89\xe1g@'
p2885
tp2886
Rp2887
aF0.000961
aF0.421
aF0.85
aF5.49e-05
aF-7.69
aF0.0391
aF111.379
aF0.386
aa(lp2888
g2
(g3
(S'S9'
p2889
I0
I1
tp2890
Rp2891
(I3
S'|'
p2892
NNNI9
I1
I0
tp2893
bS'Here I Am'
p2894
tp2895
Rp2896
ag2
(g3
(S'S14'
p2897
I0
I1
tp2898
Rp2899
(I3
S'|'
p2900
NNNI14
I1
I0
tp2901
bS'Phantom Planet'
p2902
tp2903
Rp2904
ag2
(g22
S'8\x89>1\xb7r\xe8?'
p2905
tp2906
Rp2907
ag2
(g22
S'\x8c\xf4\x82\xf4L[\xe1?'
p2908
tp2909
Rp2910
ag2
(g22
S'\x11\xdf\x89Y/*^@'
p2911
tp2912
Rp2913
ag2
(g22
S'\x02+\x87\x16\xd9\xce\x02@'
p2914
tp2915
Rp2916
ag2
(g22
S'\xaeG\xe1z\x14^[@'
p2917
tp2918
Rp2919
aF0.148
aF0.686
aF0.479
aF0.888
aF-8.99
aF0.0614
aF105.68
aF0.105
aa(lp2920
g2
(g3
(S'S11'
p2921
I0
I1
tp2922
Rp2923
(I3
S'|'
p2924
NNNI11
I1
I0
tp2925
bS'Be my Lover'
p2926
tp2927
Rp2928
ag2
(g3
(S'S8'
p2929
I0
I1
tp2930
Rp2931
(I3
S'|'
p2932
NNNI8
I1
I0
tp2933
bS'Hysterie'
p2934
tp2935
Rp2936
ag2
(g22
S'\x14\xea\xb6\x81\xe4\x87\xd8?'
p2937
tp2938
Rp2939
ag2
(g22
S'n\x90B\xd5\x8b\x02\xd5?'
p2940
tp2941
Rp2942
ag2
(g22
S'\xdfO\x8d\x97n\xb6w@'
p2943
tp2944
Rp2945
ag2
(g22
S'\x00\x00\x00\x00\x00\x00\x00\x00'
p2946
tp2947
Rp2948
ag2
(g22
S'\xdd$\x06\x81\x95gw@'
p2949
tp2950
Rp2951
aF5.34e-05
aF0.649
aF0.642
aF0.044
aF-6.932
aF0.0469
aF131.993
aF0.282
aa(lp2952
g2
(g3
(S'S16'
p2953
I0
I1
tp2954
Rp2955
(I3
S'|'
p2956
NNNI16
I1
I0
tp2957
bS'This Very Moment'
p2958
tp2959
Rp2960
ag2
(g3
(S'S14'
p2961
I0
I1
tp2962
Rp2963
(I3
S'|'
p2964
NNNI14
I1
I0
tp2965
bS'Set Your Goals'
p2966
tp2967
Rp2968
ag2
(g22
S'\x84\x96\x01\xb0x]\xea?'
p2969
tp2970
Rp2971
ag2
(g22
S'5\xc6\xd1\x94\x8c\x97\xe1?'
p2972
tp2973
Rp2974
ag2
(g22
S"\\Z\r\x89{'c@"
p2975
tp2976
Rp2977
ag2
(g22
S';\xdfO\x8d\x97n\xb2?'
p2978
tp2979
Rp2980
ag2
(g22
S'\x9e\xef\xa7\xc6K\x0ba@'
p2981
tp2982
Rp2983
aF0.00259
aF0.267
aF0.941
aF5.88e-05
aF-3.698
aF0.0705
aF132.66
aF0.377
aa(lp2984
g2
(g3
(S'S7'
p2985
I0
I1
tp2986
Rp2987
(I3
S'|'
p2988
NNNI7
I1
I0
tp2989
bS'La Otra'
p2990
tp2991
Rp2992
ag2
(g3
(S'S8'
p2993
I0
I1
tp2994
Rp2995
(I3
S'|'
p2996
NNNI8
I1
I0
tp2997
bS'Marisela'
p2998
tp2999
Rp3000
ag2
(g22
S'\xdde\x9b/oB\xe2?'
p3001
tp3002
Rp3003
ag2
(g22
S'3\x06\xdc0\xbf\xf3\xd8?'
p3004
tp3005
Rp3006
ag2
(g22
S'\xd1?\xc1\xc5\x8a\xa6k@'
p3007
tp3008
Rp3009
ag2
(g22
S'\xfa~j\xbct\x93\xd0?'
p3010
tp3011
Rp3012
ag2
(g22
S'\xa4p=\n\xd7Oj@'
p3013
tp3014
Rp3015
aF0.738
aF0.533
aF0.544
aI0
aF-5.494
aF0.0295
aF133.973
aF0.372
aa(lp3016
g2
(g3
(S'S7'
p3017
I0
I1
tp3018
Rp3019
(I3
S'|'
p3020
NNNI7
I1
I0
tp3021
bS'Feeling'
p3022
tp3023
Rp3024
ag2
(g3
(S'S17'
p3025
I0
I1
tp3026
Rp3027
(I3
S'|'
p3028
NNNI17
I1
I0
tp3029
bS'Jaco & Mixxmaster'
p3030
tp3031
Rp3032
ag2
(g22
S'\x19\xb8\xc3c\xc6r\xd6?'
p3033
tp3034
Rp3035
ag2
(g22
S');n\x06GE\xc9?'
p3036
tp3037
Rp3038
ag2
(g22
S'\x89^F\xb1\xdc\x9f{@'
p3039
tp3040
Rp3041
ag2
(g22
S'\x00\x00\x00\x00\x00\x00\x00\x00'
p3042
tp3043
Rp3044
ag2
(g22
S'\xb4\xc8v\xbe\x9f${@'
p3045
tp3046
Rp3047
aF0.39
aF0.548
aF0.724
aI0
aF-6.681
aF0.275
aF110.066
aF0.481
aa(lp3048
g2
(g3
(S'S13'
p3049
I0
I1
tp3050
Rp3051
(I3
S'|'
p3052
NNNI13
I1
I0
tp3053
bS'Gotta Cut Out'
p3054
tp3055
Rp3056
ag2
(g3
(S'S16'
p3057
I0
I1
tp3058
Rp3059
(I3
S'|'
p3060
NNNI16
I1
I0
tp3061
bS'Jimmy McCracklin'
p3062
tp3063
Rp3064
ag2
(g22
S"\n\x03-\x91\xa2'\xdb?"
p3065
tp3066
Rp3067
ag2
(g22
S'\x84\x1f|c~\xf1\xd4?'
p3068
tp3069
Rp3070
ag2
(g22
S'/\x17\xf1\x9d\x98tb@'
p3071
tp3072
Rp3073
ag2
(g22
S'\xcb\xa1E\xb6\xf3\xfd\xd4?'
p3074
tp3075
Rp3076
ag2
(g22
S'y\xe9&1\x08\xd0a@'
p3077
tp3078
Rp3079
aF0.827
aF0.657
aF0.538
aF0.000534
aF-9.244
aF0.036
aF101.404
aF0.925
aa(lp3080
g2
(g3
(S'S11'
p3081
I0
I1
tp3082
Rp3083
(I3
S'|'
p3084
NNNI11
I1
I0
tp3085
bS'True Nature'
p3086
tp3087
Rp3088
ag2
(g3
(S'S16'
p3089
I0
I1
tp3090
Rp3091
(I3
S'|'
p3092
NNNI16
I1
I0
tp3093
bS"Jane's Addiction"
p3094
tp3095
Rp3096
ag2
(g22
S':\x0b\xd2\x97\xd5\xc7\xe6?'
p3097
tp3098
Rp3099
ag2
(g22
S'Qc~>\x0e \xe1?'
p3100
tp3101
Rp3102
ag2
(g22
S'\xcd\x92\x005\xb5\xb3l@'
p3103
tp3104
Rp3105
ag2
(g22
S'\xd3Mb\x10X9\xd4?'
p3106
tp3107
Rp3108
ag2
(g22
S'fffffZk@'
p3109
tp3110
Rp3111
aF0.000689
aF0.421
aF0.973
aF9.03e-05
aF-3.458
aF0.108
aF92.064
aF0.261
aa(lp3112
g2
(g3
(S'S23'
p3113
I0
I1
tp3114
Rp3115
(I3
S'|'
p3116
NNNI23
I1
I0
tp3117
bS'Your Touch Versus Death'
p3118
tp3119
Rp3120
ag2
(g3
(S'S16'
p3121
I0
I1
tp3122
Rp3123
(I3
S'|'
p3124
NNNI16
I1
I0
tp3125
bS'Every Time I Die'
p3126
tp3127
Rp3128
ag2
(g22
S'p\x86\x0f\xbf!\xf5\xea?'
p3129
tp3130
Rp3131
ag2
(g22
S'\x06(\xe8]L\x13\xe2?'
p3132
tp3133
Rp3134
ag2
(g22
S'\xc0\x04n\xdd\xcd\xedj@'
p3135
tp3136
Rp3137
ag2
(g22
S'\x9e\xef\xa7\xc6Kw%@'
p3138
tp3139
Rp3140
ag2
(g22
S'\n\xd7\xa3p=&i@'
p3141
tp3142
Rp3143
aF0.000233
aF0.271
aF0.931
aF0.515
aF-9.761
aF0.0788
aF97.242
aF0.145
aa(lp3144
g2
(g3
(S'S23'
p3145
I0
I1
tp3146
Rp3147
(I3
S'|'
p3148
NNNI23
I1
I0
tp3149
bS'Foreign Prince Of Tokyo'
p3150
tp3151
Rp3152
ag2
(g3
(S'S13'
p3153
I0
I1
tp3154
Rp3155
(I3
S'|'
p3156
NNNI13
I1
I0
tp3157
bS'Vodka Collins'
p3158
tp3159
Rp3160
ag2
(g22
S'\x0c\xb5.\x8b\xc0Z\xda?'
p3161
tp3162
Rp3163
ag2
(g22
S'\xcd\x1b\x9c\xa5\x9d\x02\xda?'
p3164
tp3165
Rp3166
ag2
(g22
S'b\x84\xf0h\xe3>o@'
p3167
tp3168
Rp3169
ag2
(g22
S'\xcd\xcc\xcc\xcc\xcc\xcc\xe8?'
p3170
tp3171
Rp3172
ag2
(g22
S"'1\x08\xac\x1c\xa6n@"
p3173
tp3174
Rp3175
aF0.728
aF0.584
aF0.624
aF0.0504
aF-6.648
aF0.0333
aF122.924
aF0.747
aa(lp3176
g2
(g3
(S'S19'
p3177
I0
I1
tp3178
Rp3179
(I3
S'|'
p3180
NNNI19
I1
I0
tp3181
bS'King Tee Production'
p3182
tp3183
Rp3184
ag2
(g3
(S'S8'
p3185
I0
I1
tp3186
Rp3187
(I3
S'|'
p3188
NNNI8
I1
I0
tp3189
bS'King Tee'
p3190
tp3191
Rp3192
ag2
(g22
S'I}4R.\xba\xdf?'
p3193
tp3194
Rp3195
ag2
(g22
S'mvD7E\xd5\xd7?'
p3196
tp3197
Rp3198
ag2
(g22
S'\xea[\xe6tY2c@'
p3199
tp3200
Rp3201
ag2
(g22
S'V\x0e-\xb2\x9d\xef\xd7?'
p3202
tp3203
Rp3204
ag2
(g22
S'\xaa\xf1\xd2Mb\xc8b@'
p3205
tp3206
Rp3207
aF0.0701
aF0.872
aF0.521
aI0
aF-14.078
aF0.263
aF108.251
aF0.736
aa(lp3208
g2
(g3
(S'S58'
p3209
I0
I1
tp3210
Rp3211
(I3
S'|'
p3212
NNNI58
I1
I0
tp3213
bS'Blessed Assurance (I Love To Tell The Story Album Version)'
p3214
tp3215
Rp3216
ag2
(g3
(S'S10'
p3217
I0
I1
tp3218
Rp3219
(I3
S'|'
p3220
NNNI10
I1
I0
tp3221
bS'Mark Lowry'
p3222
tp3223
Rp3224
ag2
(g22
S'rP\x84g|\x9c\xdf?'
p3225
tp3226
Rp3227
ag2
(g22
S'7o_\xdd\xc3t\xd4?'
p3228
tp3229
Rp3230
ag2
(g22
S'\xb1\xe1\xe9\x952]p@'
p3231
tp3232
Rp3233
ag2
(g22
S'X9\xb4\xc8v\xbe\xcf?'
p3234
tp3235
Rp3236
ag2
(g22
S'fffff\x9ao@'
p3237
tp3238
Rp3239
aF0.47
aF0.295
aF0.586
aI0
aF-5.349
aF0.029
aF106.86
aF0.457
aa(lp3240
g2
(g3
(S'S12'
p3241
I0
I1
tp3242
Rp3243
(I3
S'|'
p3244
NNNI12
I1
I0
tp3245
bS"It's So Fine"
p3246
tp3247
Rp3248
ag2
(g3
(S'S13'
p3249
I0
I1
tp3250
Rp3251
(I3
S'|'
p3252
NNNI13
I1
I0
tp3253
bS'Jackie Wilson'
p3254
tp3255
Rp3256
ag2
(g22
S'.Ff(\xbe/\xe6?'
p3257
tp3258
Rp3259
ag2
(g22
S'\xbc\xf6q>\x95\xd7\xda?'
p3260
tp3261
Rp3262
ag2
(g22
S'\x02\xbc\x05\x12\x14\x1e`@'
p3263
tp3264
Rp3265
ag2
(g22
S'\x00\x00\x00\x00\x00\x00\x00\x00'
p3266
tp3267
Rp3268
ag2
(g22
S'\xaeG\xe1z\x14\x1e`@'
p3269
tp3270
Rp3271
aF0.315
aF0.674
aF0.433
aI0
aF-9.301
aF0.0769
aF137.548
aF0.8
aa(lp3272
g2
(g3
(S'S13'
p3273
I0
I1
tp3274
Rp3275
(I3
S'|'
p3276
NNNI13
I1
I0
tp3277
bS'The Bull Frog'
p3278
tp3279
Rp3280
ag2
(g3
(S'S11'
p3281
I0
I1
tp3282
Rp3283
(I3
S'|'
p3284
NNNI11
I1
I0
tp3285
bS'Edmundo Ros'
p3286
tp3287
Rp3288
ag2
(g22
S'\x88\nc\x85v\xac\xdc?'
p3289
tp3290
Rp3291
ag2
(g22
S')\xae\xe1@o\xb6\xd4?'
p3292
tp3293
Rp3294
ag2
(g22
S'}\x96\xe7\xc1\xdd\x01c@'
p3295
tp3296
Rp3297
ag2
(g22
S'\xdd$\x06\x81\x95C\xef?'
p3298
tp3299
Rp3300
ag2
(g22
S'\x9c\xc4 \xb0rdb@'
p3301
tp3302
Rp3303
aF0.861
aF0.78
aF0.528
aF0.404
aF-14.769
aF0.0586
aF116.24
aF0.824
aa(lp3304
g2
(g3
(S'S11'
p3305
I0
I1
tp3306
Rp3307
(I3
S'|'
p3308
NNNI11
I1
I0
tp3309
bS'House Music'
p3310
tp3311
Rp3312
ag2
(g3
(S'S7'
p3313
I0
I1
tp3314
Rp3315
(I3
S'|'
p3316
NNNI7
I1
I0
tp3317
bS'Save As'
p3318
tp3319
Rp3320
ag2
(g22
S'dn,\xef\xaf\xc8\xd3?'
p3321
tp3322
Rp3323
ag2
(g22
S'\x00\x00\x00\x00\x00\x00\x00\x00'
p3324
tp3325
Rp3326
ag2
(g22
S'r\xc4Z|\n\x1du@'
p3327
tp3328
Rp3329
ag2
(g22
S'\x00\x00\x00\x00\x00\x00\x00\x00'
p3330
tp3331
Rp3332
ag2
(g22
S'\xfe\xd4x\xe9&\xa1t@'
p3333
tp3334
Rp3335
aF0.00291
aF0.688
aF0.8
aF0.883
aF-7.324
aF0.0292
aF125.011
aF0.23
aa(lp3336
g2
(g3
(S'S14'
p3337
I0
I1
tp3338
Rp3339
(I3
S'|'
p3340
NNNI14
I1
I0
tp3341
bS'Danser seule 2'
p3342
tp3343
Rp3344
ag2
(g3
(S'S9'
p3345
I0
I1
tp3346
Rp3347
(I3
S'|'
p3348
NNNI9
I1
I0
tp3349
bS'Klimperei'
p3350
tp3351
Rp3352
ag2
(g22
S'THC\xcb\x10G\xd9?'
p3353
tp3354
Rp3355
ag2
(g22
S'\xa6)?\x83x\xd8\xd3?'
p3356
tp3357
Rp3358
ag2
(g22
S'\xa3\x1e\xa2\xd1\x1d\xb4)@'
p3359
tp3360
Rp3361
ag2
(g22
S'\x00\x00\x00\x00\x00\x00\x00\x00'
p3362
tp3363
Rp3364
ag2
(g22
S'Nb\x10X9\xb4)@'
p3365
tp3366
Rp3367
aF0.199
aI0
aF0.476
aF0.98
aF-3.829
aI0
aI0
aI0
aa(lp3368
g2
(g3
(S'S15'
p3369
I0
I1
tp3370
Rp3371
(I3
S'|'
p3372
NNNI15
I1
I0
tp3373
bS'Deus Ex Machina'
p3374
tp3375
Rp3376
ag2
(g3
(S'S13'
p3377
I0
I1
tp3378
Rp3379
(I3
S'|'
p3380
NNNI13
I1
I0
tp3381
bS'William Orbit'
p3382
tp3383
Rp3384
ag2
(g22
S'\x0f%\xcdL[\x99\xe5?'
p3385
tp3386
Rp3387
ag2
(g22
S'\xaa>\xa6kn2\xdb?'
p3388
tp3389
Rp3390
ag2
(g22
S'm\x90IF\xce<u@'
p3391
tp3392
Rp3393
ag2
(g22
S'\xe9&1\x08\xac\x1c\xba?'
p3394
tp3395
Rp3396
ag2
(g22
S'%\x06\x81\x95C\x8dt@'
p3397
tp3398
Rp3399
aF0.86
aF0.285
aF0.0306
aF0.888
aF-36.536
aF0.0385
aF91.387
aF0.0305
aa(lp3400
g2
(g3
(S'S22'
p3401
I0
I1
tp3402
Rp3403
(I3
S'|'
p3404
NNNI22
I1
I0
tp3405
bS'Flight of the Elephant'
p3406
tp3407
Rp3408
ag2
(g3
(S'S9'
p3409
I0
I1
tp3410
Rp3411
(I3
S'|'
p3412
NNNI9
I1
I0
tp3413
bS'Workhorse'
p3414
tp3415
Rp3416
ag2
(g22
S'\xdb\x9d\xb5\xcdQ\xa8\xde?'
p3417
tp3418
Rp3419
ag2
(g22
S'|\xa4uK\xb5N\xd4?'
p3420
tp3421
Rp3422
ag2
(g22
S' c\xeeZ\xc2-w@'
p3423
tp3424
Rp3425
ag2
(g22
S'\x00\x00\x00\x00\x00\x00\x00\x00'
p3426
tp3427
Rp3428
ag2
(g22
S'\xf6(\\\x8f\xc2-w@'
p3429
tp3430
Rp3431
aF0.00564
aF0.527
aF0.436
aF0.899
aF-8.567
aF0.0248
aF60.04
aF0.221
aa(lp3432
g2
(g3
(S'S10'
p3433
I0
I1
tp3434
Rp3435
(I3
S'|'
p3436
NNNI10
I1
I0
tp3437
bS'No Quarter'
p3438
tp3439
Rp3440
ag2
(g3
(S'S7'
p3441
I0
I1
tp3442
Rp3443
(I3
S'|'
p3444
NNNI7
I1
I0
tp3445
bS'Crowbar'
p3446
tp3447
Rp3448
ag2
(g22
S'\xd0\x82\xc6\xe8K4\xe6?'
p3449
tp3450
Rp3451
ag2
(g22
S'\xfb\x0c\xc2f,n\xdf?'
p3452
tp3453
Rp3454
ag2
(g22
S'\x90kC\xc5\xb8\xebp@'
p3455
tp3456
Rp3457
ag2
(g22
S'\x19\x04V\x0e-\xb2\xd5?'
p3458
tp3459
Rp3460
ag2
(g22
S'-\xb2\x9d\xef\xa7Vp@'
p3461
tp3462
Rp3463
aF0.000241
aF0.398
aF0.726
aF0.107
aF-8.262
aF0.0397
aF95.065
aF0.377
aa(lp3464
g2
(g3
(S'S5'
p3465
I0
I1
tp3466
Rp3467
(I3
S'|'
p3468
NNNI5
I1
I0
tp3469
bS'Storm'
p3470
tp3471
Rp3472
ag2
(g3
(S'S12'
p3473
I0
I1
tp3474
Rp3475
(I3
S'|'
p3476
NNNI12
I1
I0
tp3477
bS'The Pharcyde'
p3478
tp3479
Rp3480
ag2
(g22
S'\xe5\xa2\xde\xdb\xac1\xe8?'
p3481
tp3482
Rp3483
ag2
(g22
S'\x94\x9fh\xe59t\xdf?'
p3484
tp3485
Rp3486
ag2
(g22
S'\xc8$#ga<k@'
p3487
tp3488
Rp3489
ag2
(g22
S'\x00\x00\x00\x00\x00\x00\x00\x00'
p3490
tp3491
Rp3492
ag2
(g22
S'\xaa\xf1\xd2Mb<k@'
p3493
tp3494
Rp3495
aF0.0342
aF0.908
aF0.633
aF0.194
aF-4.142
aF0.0872
aF97.611
aF0.866
aa(lp3496
g2
(g3
(S'S15'
p3497
I0
I1
tp3498
Rp3499
(I3
S'|'
p3500
NNNI15
I1
I0
tp3501
bS'How We Get Down'
p3502
tp3503
Rp3504
ag2
(g3
(S'S7'
p3505
I0
I1
tp3506
Rp3507
(I3
S'|'
p3508
NNNI7
I1
I0
tp3509
bS'Bad Azz'
p3510
tp3511
Rp3512
ag2
(g22
S'n\x16\xdf\xbcl\xaa\xe1?'
p3513
tp3514
Rp3515
ag2
(g22
S'\xd6uF\xd8\x1b\xd9\xd5?'
p3516
tp3517
Rp3518
ag2
(g22
S'\xc8\xeaV\xcfI\xe6p@'
p3519
tp3520
Rp3521
ag2
(g22
S'\x87\x16\xd9\xce\xf7S\xc3?'
p3522
tp3523
Rp3524
ag2
(g22
S'?5^\xbaI\xe6p@'
p3525
tp3526
Rp3527
aF0.357
aF0.863
aF0.764
aI0
aF-4.615
aF0.326
aF103.087
aF0.464
aa(lp3528
g2
(g3
(S'S11'
p3529
I0
I1
tp3530
Rp3531
(I3
S'|'
p3532
NNNI11
I1
I0
tp3533
bS'Hello Hello'
p3534
tp3535
Rp3536
ag2
(g3
(S'S16'
p3537
I0
I1
tp3538
Rp3539
(I3
S'|'
p3540
NNNI16
I1
I0
tp3541
bS'Abrar - Ul - Haq'
p3542
tp3543
Rp3544
ag2
(g22
S'\x8e\xd2O\x87\x03M\xdc?'
p3545
tp3546
Rp3547
ag2
(g22
S'\xd5\\\xb2\xdd~y\xda?'
p3548
tp3549
Rp3550
ag2
(g22
S'du\xab\xe7\xa4\xd2r@'
p3551
tp3552
Rp3553
ag2
(g22
S'P\x8d\x97n\x12\x83\xec?'
p3554
tp3555
Rp3556
ag2
(g22
S'\xa8\xc6K7\x89\x1fr@'
p3557
tp3558
Rp3559
aF0.00763
aF0.737
aF0.82
aF0.614
aF-7.518
aF0.0943
aF89.123
aF0.829
aa(lp3560
g2
(g3
(S'S36'
p3561
I0
I1
tp3562
Rp3563
(I3
S'|'
p3564
NNNI36
I1
I0
tp3565
bS'Prayer For The Dying (Live In Paris)'
p3566
tp3567
Rp3568
ag2
(g3
(S'S4'
p3569
I0
I1
tp3570
Rp3571
(I3
S'|'
p3572
NNNI4
I1
I0
tp3573
bS'Seal'
p3574
tp3575
Rp3576
ag2
(g22
S"\xb32\x06\x10n'\xe2?"
p3577
tp3578
Rp3579
ag2
(g22
S'M+\x7f\xcew\x8f\xe2?'
p3580
tp3581
Rp3582
ag2
(g22
S'!\x02\x0e\xa1J\x02s@'
p3583
tp3584
Rp3585
ag2
(g22
S'\x00\x00\x00\x00\x00\x00\x00\x00'
p3586
tp3587
Rp3588
ag2
(g22
S'?5^\xbaI\x02s@'
p3589
tp3590
Rp3591
aF0.11
aF0.265
aF0.84
aF3.28e-05
aF-6.57
aF0.0458
aF101.506
aF0.394
aa(lp3592
g2
(g3
(S'S6'
p3593
I0
I1
tp3594
Rp3595
(I3
S'|'
p3596
NNNI6
I1
I0
tp3597
bS'Hunted'
p3598
tp3599
Rp3600
ag2
(g3
(S'S13'
p3601
I0
I1
tp3602
Rp3603
(I3
S'|'
p3604
NNNI13
I1
I0
tp3605
bS'Scott Glasgow'
p3606
tp3607
Rp3608
ag2
(g22
S'\x1a\x8d\xff\x1f\xe3\xa8\xdc?'
p3609
tp3610
Rp3611
ag2
(g22
S'c*\x10i\xb4\xae\xd2?'
p3612
tp3613
Rp3614
ag2
(g22
S'\x1e\x16jM\xf3Rc@'
p3615
tp3616
Rp3617
ag2
(g22
S'\x89A`\xe5\xd0"\x03@'
p3618
tp3619
Rp3620
ag2
(g22
S'\x98n\x12\x83\xc0.b@'
p3621
tp3622
Rp3623
aF0.284
aF0.188
aF0.102
aF0.757
aF-26.276
aF0.038
aF90.487
aF0.0395
aa(lp3624
g2
(g3
(S'S13'
p3625
I0
I1
tp3626
Rp3627
(I3
S'|'
p3628
NNNI13
I1
I0
tp3629
bS"I'll Be Yours"
p3630
tp3631
Rp3632
ag2
(g3
(S'S11'
p3633
I0
I1
tp3634
Rp3635
(I3
S'|'
p3636
NNNI11
I1
I0
tp3637
bS'Faron Young'
p3638
tp3639
Rp3640
ag2
(g22
S'\xa09O\n(\xe5\xe2?'
p3641
tp3642
Rp3643
ag2
(g22
S'\xda\xf3f\x11\xba\xd0\xda?'
p3644
tp3645
Rp3646
ag2
(g22
S'A}\xcb\x9c.\x17e@'
p3647
tp3648
Rp3649
ag2
(g22
S'\x00\x00\x00\x00\x00\x00\x00\x00'
p3650
tp3651
Rp3652
ag2
(g22
S'-\xb2\x9d\xef\xa7\x12d@'
p3653
tp3654
Rp3655
aF0.751
aF0.598
aF0.148
aI0
aF-12.435
aF0.0305
aF89.53
aF0.468
aa(lp3656
g2
(g3
(S'S18'
p3657
I0
I1
tp3658
Rp3659
(I3
S'|'
p3660
NNNI18
I1
I0
tp3661
bS'Isle of St. Helena'
p3662
tp3663
Rp3664
ag2
(g3
(S'S28'
p3665
I0
I1
tp3666
Rp3667
(I3
S'|'
p3668
NNNI28
I1
I0
tp3669
bS'Mary Black & General Humbert'
p3670
tp3671
Rp3672
ag2
(g22
S'\x02;\xa0z\x8d\x1b\xe3?'
p3673
tp3674
Rp3675
ag2
(g22
S'\x9f\x0e\xabs\x82\x19\xd8?'
p3676
tp3677
Rp3678
ag2
(g22
S'\xe5\xed\x08\xa7\x05\xfcr@'
p3679
tp3680
Rp3681
ag2
(g22
S'\x0e-\xb2\x9d\xef\xa7\xc6?'
p3682
tp3683
Rp3684
ag2
(g22
S'\x85\xebQ\xb8\x1e\xb7r@'
p3685
tp3686
Rp3687
aF0.938
aF0.586
aF0.139
aF0.93
aF-22.365
aF0.0381
aF125.886
aF0.197
aa.