(lp0
(lp1
cnumpy.core.multiarray
scalar
p2
(cnumpy
dtype
p3
(S'S28'
p4
I0
I1
tp5
Rp6
(I3
S'|'
p7
NNNI28
I1
I0
tp8
bS'Party Til The Cows Come Home'
p9
tp10
Rp11
ag2
(g3
(S'S12'
p12
I0
I1
tp13
Rp14
(I3
S'|'
p15
NNNI12
I1
I0
tp16
bS'Elvin Bishop'
p17
tp18
Rp19
ag2
(g3
(S'f8'
p20
I0
I1
tp21
Rp22
(I3
S'<'
p23
NNNI-1
I-1
I0
tp24
bS'jG\xc3\xac\x08\xdf\xe1?'
p25
tp26
Rp27
ag2
(g22
S'\x98\x87|$\xd6\x1a\xda?'
p28
tp29
Rp30
ag2
(g22
S'\x94\xfb\x1d\x8a\x02\xd2o@'
p31
tp32
Rp33
ag2
(g22
S'\x00\x00\x00\x00\x00\x00\x00\x00'
p34
tp35
Rp36
ag2
(g22
S'\xbct\x93\x18\x04\xd2o@'
p37
tp38
Rp39
aF0.0726
aF0.558
aF0.801
aI0
aF-4.719
aF0.0294
aF149.642
aF0.683
aa(lp40
g2
(g3
(S'S12'
p41
I0
I1
tp42
Rp43
(I3
S'|'
p44
NNNI12
I1
I0
tp45
bS'La Excursion'
p46
tp47
Rp48
ag2
(g3
(S'S27'
p49
I0
I1
tp50
Rp51
(I3
S'|'
p52
NNNI27
I1
I0
tp53
bS'1. Futurologischer Congress'
p54
tp55
Rp56
ag2
(g22
S":\x89'b\x1e\xfc\xd7?"
p57
tp58
Rp59
ag2
(g22
S';\xa8\xac\xd3Sr\xd0?'
p60
tp61
Rp62
ag2
(g22
S'O\xccz1\x94\xdfZ@'
p63
tp64
Rp65
ag2
(g22
S'\x00\x00\x00\x00\x00\x00\x00\x00'
p66
tp67
Rp68
ag2
(g22
S'\xd7\xa3p=\n\xffX@'
p69
tp70
Rp71
aF0.483
aF0.391
aF0.487
aF0.0145
aF-11.152
aF0.0448
aF80.223
aF0.473
aa(lp72
g2
(g3
(S'S11'
p73
I0
I1
tp74
Rp75
(I3
S'|'
p76
NNNI11
I1
I0
tp77
bS'Into A Swan'
p78
tp79
Rp80
ag2
(g3
(S'S8'
p81
I0
I1
tp82
Rp83
(I3
S'|'
p84
NNNI8
I1
I0
tp85
bS'Siouxsie'
p86
tp87
Rp88
ag2
(g22
S'\x94K&\xb5XM\xe4?'
p89
tp90
Rp91
ag2
(g22
S'\xe8\xecUI]\x14\xdb?'
p92
tp93
Rp94
ag2
(g22
S'\x16\xc1\xffV\xb2Qm@'
p95
tp96
Rp97
ag2
(g22
S'y\xe9&1\x08\xac\xf0?'
p98
tp99
Rp100
ag2
(g22
S'\x06\x81\x95C\x8bHl@'
p101
tp102
Rp103
aF0.0973
aF0.608
aF0.854
aF0.000108
aF-6.473
aF0.0349
aF114.927
aF0.809
aa(lp104
g2
(g3
(S'S12'
p105
I0
I1
tp106
Rp107
(I3
S'|'
p108
NNNI12
I1
I0
tp109
bS'To The Stars'
p110
tp111
Rp112
ag2
(g3
(S'S13'
p113
I0
I1
tp114
Rp115
(I3
S'|'
p116
NNNI13
I1
I0
tp117
bS'Claire Hamill'
p118
tp119
Rp120
ag2
(g22
S'h\x07\x8c\xf0\xd2\x81\xe0?'
p121
tp122
Rp123
ag2
(g22
S'K\x93\xe9\x8e\x99\x99\xd6?'
p124
tp125
Rp126
ag2
(g22
S"'f\xbd\x18\xca\xed^@"
p127
tp128
Rp129
ag2
(g22
S'\x17\xd9\xce\xf7S\xe3\xd5?'
p130
tp131
Rp132
ag2
(g22
S'\xd1"\xdb\xf9~\x1a\\@'
p133
tp134
Rp135
aF0.779
aF0.434
aF0.351
aI0
aF-12.061
aF0.0357
aF88.272
aF0.575
aa(lp136
g2
(g3
(S'S17'
p137
I0
I1
tp138
Rp139
(I3
S'|'
p140
NNNI17
I1
I0
tp141
bS'The Joes Mobilize'
p142
tp143
Rp144
ag2
(g3
(S'S14'
p145
I0
I1
tp146
Rp147
(I3
S'|'
p148
NNNI14
I1
I0
tp149
bS'Alan Silvestri'
p150
tp151
Rp152
ag2
(g22
S'K7V\x8a=#\xe4?'
p153
tp154
Rp155
ag2
(g22
S'gp\x0c\xe6\x93\xd9\xdc?'
p156
tp157
Rp158
ag2
(g22
S'>\xcb\xf3\xe0\xee\x80\x7f@'
p159
tp160
Rp161
ag2
(g22
S'\x00\x00\x00\x00\x00\x00\x00\x00'
p162
tp163
Rp164
ag2
(g22
S'!\xb0rh\x91\x15\x7f@'
p165
tp166
Rp167
aF0.15
aF0.295
aF0.606
aF0.868
aF-10.926
aF0.0635
aF155.182
aF0.06
aa(lp168
g2
(g3
(S'S21'
p169
I0
I1
tp170
Rp171
(I3
S'|'
p172
NNNI21
I1
I0
tp173
bS'I Got To Quit My Baby'
p174
tp175
Rp176
ag2
(g3
(S'S14'
p177
I0
I1
tp178
Rp179
(I3
S'|'
p180
NNNI14
I1
I0
tp181
bS'Sunnyland Slim'
p182
tp183
Rp184
ag2
(g22
S'\xc4\xc2L/;\x17\xdf?'
p185
tp186
Rp187
ag2
(g22
S'\xdd\x05\xb3Y\xc0M\xd5?'
p188
tp189
Rp190
ag2
(g22
S')\xe8\xf6\x92\xc6xb@'
p191
tp192
Rp193
ag2
(g22
S'\x98n\x12\x83\xc0\xca\xe5?'
p194
tp195
Rp196
ag2
(g22
S'\xe9&1\x08\xac\xdca@'
p197
tp198
Rp199
aF0.282
aF0.55
aF0.434
aF0.059
aF-11.442
aF0.0478
aF149.788
aF0.862
aa(lp200
g2
(g3
(S'S10'
p201
I0
I1
tp202
Rp203
(I3
S'|'
p204
NNNI10
I1
I0
tp205
bS'So Unhappy'
p206
tp207
Rp208
ag2
(g3
(S'S12'
p209
I0
I1
tp210
Rp211
(I3
S'|'
p212
NNNI12
I1
I0
tp213
bS'Byther Smith'
p214
tp215
Rp216
ag2
(g22
S'(\x8e~!\xc0\xc5\xdd?'
p217
tp218
Rp219
ag2
(g22
S'\x05\t\xbd\x9b\xa9/\xd7?'
p220
tp221
Rp222
ag2
(g22
S'B>\xe8\xd9\xac\xdcp@'
p223
tp224
Rp225
ag2
(g22
S'\x0c\x02+\x87\x16\xd9\xce?'
p226
tp227
Rp228
ag2
(g22
S'\x83\xc0\xca\xa1E"p@'
p229
tp230
Rp231
aF0.748
aF0.386
aF0.493
aF0.00792
aF-9.647
aF0.0431
aF184.69
aF0.727
aa(lp232
g2
(g3
(S'S8'
p233
I0
I1
tp234
Rp235
(I3
S'|'
p236
NNNI8
I1
I0
tp237
bS'Ammonite'
p238
tp239
Rp240
ag2
(g3
(S'S10'
p241
I0
I1
tp242
Rp243
(I3
S'|'
p244
NNNI10
I1
I0
tp245
bS'Zeromancer'
p246
tp247
Rp248
ag2
(g22
S'\xe6L\xbb\xc2\xe7\x9f\xe4?'
p249
tp250
Rp251
ag2
(g22
S'\r\xa4\x8fQ\xa9\xf5\xd9?'
p252
tp253
Rp254
ag2
(g22
S'$\xd1\xcb(\x16\xa5v@'
p255
tp256
Rp257
ag2
(g22
S'\x85\xebQ\xb8\x1e\x85\x08@'
p258
tp259
Rp260
ag2
(g22
S'\xcb\xa1E\xb6\xf3\xe5u@'
p261
tp262
Rp263
aF0.0632
aF0.557
aF0.708
aF0.107
aF-6.821
aF0.0274
aF90.023
aF0.258
aa(lp264
g2
(g3
(S'S9'
p265
I0
I1
tp266
Rp267
(I3
S'|'
p268
NNNI9
I1
I0
tp269
bS'The Sweep'
p270
tp271
Rp272
ag2
(g3
(S'S17'
p273
I0
I1
tp274
Rp275
(I3
S'|'
p276
NNNI17
I1
I0
tp277
bS'Two Man Advantage'
p278
tp279
Rp280
ag2
(g22
S'\xba.{A\xa9h\xe1?'
p281
tp282
Rp283
ag2
(g22
S'\xd7\x18\x98\xe40\x9c\xd7?'
p284
tp285
Rp286
ag2
(g22
S';6\x02\xf1\xbajI@'
p287
tp288
Rp289
ag2
(g22
S'\x00\x00\x00\x00\x00\x00\x00\x00'
p290
tp291
Rp292
ag2
(g22
S'\x98n\x12\x83\xc0jI@'
p293
tp294
Rp295
aF0.00968
aF0.388
aF0.979
aF2.56e-05
aF-6.051
aF0.228
aF106.237
aF0.494
aa(lp296
g2
(g3
(S'S10'
p297
I0
I1
tp298
Rp299
(I3
S'|'
p300
NNNI10
I1
I0
tp301
bS'I Love You'
p302
tp303
Rp304
ag2
(g3
(S'S3'
p305
I0
I1
tp306
Rp307
(I3
S'|'
p308
NNNI3
I1
I0
tp309
bS'Ayo'
p310
tp311
Rp312
ag2
(g22
S'\xa9Z\xfb\x0c\x0f\xb9\xe0?'
p313
tp314
Rp315
ag2
(g22
S'h?$\x19D\x00\xd9?'
p316
tp317
Rp318
ag2
(g22
S'\x8eX\x8bO\x01\xa8l@'
p319
tp320
Rp321
ag2
(g22
S'\x00\x00\x00\x00\x00\x00\x00\x00'
p322
tp323
Rp324
ag2
(g22
S'Nb\x10X9Hj@'
p325
tp326
Rp327
aF0.0335
aF0.815
aF0.294
aF3.01e-06
aF-16.841
aF0.047
aF127.993
aF0.841
aa(lp328
g2
(g3
(S'S7'
p329
I0
I1
tp330
Rp331
(I3
S'|'
p332
NNNI7
I1
I0
tp333
bS'Alkohol'
p334
tp335
Rp336
ag2
(g3
(S'S15'
p337
I0
I1
tp338
Rp339
(I3
S'|'
p340
NNNI15
I1
I0
tp341
bS'SKOLD vs. KMFDM'
p342
tp343
Rp344
ag2
(g22
S'\xc6\x1cQ\xfb\xabP\xdf?'
p345
tp346
Rp347
ag2
(g22
S'$R\x94Z6\xd2\xd6?'
p348
tp349
Rp350
ag2
(g22
S'=\xb8;k7~t@'
p351
tp352
Rp353
ag2
(g22
S'\x00\x00\x00\x00\x00\x00\x00\x00'
p354
tp355
Rp356
ag2
(g22
S'1\x08\xac\x1cZ\xccs@'
p357
tp358
Rp359
aF0.00248
aF0.635
aF0.819
aF0.0512
aF-6.243
aF0.0548
aF127.051
aF0.495
aa(lp360
g2
(g3
(S'S9'
p361
I0
I1
tp362
Rp363
(I3
S'|'
p364
NNNI9
I1
I0
tp365
bS'Very Well'
p366
tp367
Rp368
ag2
(g3
(S'S13'
p369
I0
I1
tp370
Rp371
(I3
S'|'
p372
NNNI13
I1
I0
tp373
bS'Wailing Souls'
p374
tp375
Rp376
ag2
(g22
S'\xdb\xaa\x83\xf6\x01\xfc\xe2?'
p377
tp378
Rp379
ag2
(g22
S'\xa6m<\xbd\xfa\xcf\xd7?'
p380
tp381
Rp382
ag2
(g22
S'e\xc7F ^\xccj@'
p383
tp384
Rp385
ag2
(g22
S'ffffff\xf0?'
p386
tp387
Rp388
ag2
(g22
S'\xe9&1\x08\xac(i@'
p389
tp390
Rp391
aF0.147
aF0.897
aF0.522
aF0.00613
aF-9.604
aF0.121
aF124.741
aF0.91
aa(lp392
g2
(g3
(S'S26'
p393
I0
I1
tp394
Rp395
(I3
S'|'
p396
NNNI26
I1
I0
tp397
bS'Village Attack/ The Arrest'
p398
tp399
Rp400
ag2
(g3
(S'S6'
p401
I0
I1
tp402
Rp403
(I3
S'|'
p404
NNNI6
I1
I0
tp405
bS'Kitaro'
p406
tp407
Rp408
ag2
(g22
S'\xae\xbf\xa9\x9b\xf8`\xe5?'
p409
tp410
Rp411
ag2
(g22
S'\xce\r:\x83\x9af\xdd?'
p412
tp413
Rp414
ag2
(g22
S'\n\x80\xf1\x0c\x1a`T@'
p415
tp416
Rp417
ag2
(g22
S'\x00\x00\x00\x00\x00\x00\x00\x00'
p418
tp419
Rp420
ag2
(g22
S'o\x12\x83\xc0\xcayR@'
p421
tp422
Rp423
aF0.0794
aF0.33
aF0.755
aF0.81
aF-14.048
aF0.0585
aF142.997
aF0.342
aa(lp424
g2
(g3
(S'S14'
p425
I0
I1
tp426
Rp427
(I3
S'|'
p428
NNNI14
I1
I0
tp429
bS'Lesson Learned'
p430
tp431
Rp432
ag2
(g3
(S'S15'
p433
I0
I1
tp434
Rp435
(I3
S'|'
p436
NNNI15
I1
I0
tp437
bS'Alice In Chains'
p438
tp439
Rp440
ag2
(g22
S'\x94qd\xdb\x97{\xe9?'
p441
tp442
Rp443
ag2
(g22
S'O\x9f_&K\xa7\xe2?'
p444
tp445
Rp446
ag2
(g22
S'1\x08\xac\x1cZ\x08p@'
p447
tp448
Rp449
ag2
(g22
S'\x00\x00\x00\x00\x00\x00\x00\x00'
p450
tp451
Rp452
ag2
(g22
S'sh\x91\xed|\xb3n@'
p453
tp454
Rp455
aF9.27e-06
aF0.44
aF0.95
aF0.0077
aF-3.639
aF0.0533
aF108.023
aF0.323
aa(lp456
g2
(g3
(S'S31'
p457
I0
I1
tp458
Rp459
(I3
S'|'
p460
NNNI31
I1
I0
tp461
bS'(I Heard That) Lonesome Whistle'
p462
tp463
Rp464
ag2
(g3
(S'S11'
p465
I0
I1
tp466
Rp467
(I3
S'|'
p468
NNNI11
I1
I0
tp469
bS'Bobby Darin'
p470
tp471
Rp472
ag2
(g22
S"\xf2'R\xca\x89\x8a\xe6?"
p473
tp474
Rp475
ag2
(g22
S'\xac\xad\xa9\xf6\x12\x0b\xde?'
p476
tp477
Rp478
ag2
(g22
S'\x8db\xb9\xa5\xd5pd@'
p479
tp480
Rp481
ag2
(g22
S'\xfc\xa9\xf1\xd2Mb\xe4?'
p482
tp483
Rp484
ag2
(g22
S'\xf8S\xe3\xa5\x9b(c@'
p485
tp486
Rp487
aF0.89
aF0.552
aF0.298
aI0
aF-12.086
aF0.0291
aF89.118
aF0.58
aa(lp488
g2
(g3
(S'S25'
p489
I0
I1
tp490
Rp491
(I3
S'|'
p492
NNNI25
I1
I0
tp493
bS'Here Comes The Hotstepper'
p494
tp495
Rp496
ag2
(g3
(S'S10'
p497
I0
I1
tp498
Rp499
(I3
S'|'
p500
NNNI10
I1
I0
tp501
bS'Ini Kamoze'
p502
tp503
Rp504
ag2
(g22
S'\x9bt\x11M\xfe\xe5\xe3?'
p505
tp506
Rp507
ag2
(g22
S'\xcc\r\xe7\xd39A\xe0?'
p508
tp509
Rp510
ag2
(g22
S'}\x91\xd0\x96s\x1do@'
p511
tp512
Rp513
ag2
(g22
S'\x96C\x8bl\xe7\xfb\xd1?'
p514
tp515
Rp516
ag2
(g22
S'\x8f\xc2\xf5(\\\x8bn@'
p517
tp518
Rp519
aF0.0141
aF0.889
aF0.454
aF0.000186
aF-8.598
aF0.221
aF100.36
aF0.436
aa(lp520
g2
(g3
(S'S21'
p521
I0
I1
tp522
Rp523
(I3
S'|'
p524
NNNI21
I1
I0
tp525
bS"Can't Shake That Girl"
p526
tp527
Rp528
ag2
(g3
(S'S13'
p529
I0
I1
tp530
Rp531
(I3
S'|'
p532
NNNI13
I1
I0
tp533
bS'The Real Kids'
p534
tp535
Rp536
ag2
(g22
S'\xb3\x8d"3}\x08\xdf?'
p537
tp538
Rp539
ag2
(g22
S'Q-\xc2\xaea\x12\xd6?'
p540
tp541
Rp542
ag2
(g22
S'Wx\x97\x8b\xf8\x81b@'
p543
tp544
Rp545
ag2
(g22
S'\x00\x00\x00\x00\x00\x00\x00\x00'
p546
tp547
Rp548
ag2
(g22
S'\x04V\x0e-\xb2\rb@'
p549
tp550
Rp551
aF0.0238
aF0.574
aF0.884
aF2.44e-06
aF-6.885
aF0.0429
aF134.185
aF0.844
aa(lp552
g2
(g3
(S'S10'
p553
I0
I1
tp554
Rp555
(I3
S'|'
p556
NNNI10
I1
I0
tp557
bS'Es dificil'
p558
tp559
Rp560
ag2
(g3
(S'S12'
p561
I0
I1
tp562
Rp563
(I3
S'|'
p564
NNNI12
I1
I0
tp565
bS'De La Ghetto'
p566
tp567
Rp568
ag2
(g22
S'\x1a\xd7?_\xe2\xda\xd9?'
p569
tp570
Rp571
ag2
(g22
S'm\x1e\\\xd2\xf3\x10\xdd?'
p572
tp573
Rp574
ag2
(g22
S'z\xdf\xf8\xda3\x87q@'
p575
tp576
Rp577
ag2
(g22
S'\xc7K7\x89A`\x1b@'
p578
tp579
Rp580
ag2
(g22
S'!\xb0rh\x91\xa3p@'
p581
tp582
Rp583
aF0.0225
aF0.668
aF0.731
aF0.000497
aF-5.942
aF0.11
aF193.986
aF0.406
aa(lp584
g2
(g3
(S'S18'
p585
I0
I1
tp586
Rp587
(I3
S'|'
p588
NNNI18
I1
I0
tp589
bS'The Sweetest Curse'
p590
tp591
Rp592
ag2
(g3
(S'S8'
p593
I0
I1
tp594
Rp595
(I3
S'|'
p596
NNNI8
I1
I0
tp597
bS'Baroness'
p598
tp599
Rp600
ag2
(g22
S'\xc2\xa4s\x89\xb3\xa6\xe7?'
p601
tp602
Rp603
ag2
(g22
S'\xc9\x00\xc9\xa9\xf0&\xde?'
p604
tp605
Rp606
ag2
(g22
S'F\xd3\xd9\xc9`\xe8p@'
p607
tp608
Rp609
ag2
(g22
S'\x00\x00\x00\x00\x00\x00\x00\x00'
p610
tp611
Rp612
ag2
(g22
S'\xaa\xf1\xd2Mb\xe8p@'
p613
tp614
Rp615
aF0.000459
aF0.181
aF0.94
aF0.24
aF-7.737
aF0.101
aF180.034
aF0.17
aa(lp616
g2
(g3
(S'S10'
p617
I0
I1
tp618
Rp619
(I3
S'|'
p620
NNNI10
I1
I0
tp621
bS"We're Back"
p622
tp623
Rp624
ag2
(g3
(S'S20'
p625
I0
I1
tp626
Rp627
(I3
S'|'
p628
NNNI20
I1
I0
tp629
bS'DMX / Eve / Jadakiss'
p630
tp631
Rp632
ag2
(g22
S'R\xf7\x8f#jP\xea?'
p633
tp634
Rp635
ag2
(g22
S'u\xeb\n\x9c2H\xe0?'
p636
tp637
Rp638
ag2
(g22
S'\x02\x9f\x1fF\x88\x93p@'
p639
tp640
Rp641
ag2
(g22
S'\xfa~j\xbct\x93\xb8?'
p642
tp643
Rp644
ag2
(g22
S'\xfa~j\xbct\xc3o@'
p645
tp646
Rp647
aF0.0329
aF0.669
aF0.959
aI0
aF-2.362
aF0.293
aF92.673
aF0.474
aa(lp648
g2
(g3
(S'S13'
p649
I0
I1
tp650
Rp651
(I3
S'|'
p652
NNNI13
I1
I0
tp653
bS'Talk Like POP'
p654
tp655
Rp656
ag2
(g3
(S'S11'
p657
I0
I1
tp658
Rp659
(I3
S'|'
p660
NNNI11
I1
I0
tp661
bS'Melt Banana'
p662
tp663
Rp664
ag2
(g22
S'51\xcby\xbbt\xe4?'
p665
tp666
Rp667
ag2
(g22
S'J\xc6\xb1\xeb\x17}\xda?'
p668
tp669
Rp670
ag2
(g22
S'\xfbyS\x91\n\xcfI@'
p671
tp672
Rp673
ag2
(g22
S'\xc5 \xb0rh\x91\xe1?'
p674
tp675
Rp676
ag2
(g22
S'\xc9v\xbe\x9f\x1a\xcfI@'
p677
tp678
Rp679
aF0.253
aF0.619
aF0.831
aF0.956
aF-3.808
aF0.58
aF91.917
aF0.528
aa(lp680
g2
(g3
(S'S14'
p681
I0
I1
tp682
Rp683
(I3
S'|'
p684
NNNI14
I1
I0
tp685
bS'Fuego Caliente'
p686
tp687
Rp688
ag2
(g3
(S'S8'
p689
I0
I1
tp690
Rp691
(I3
S'|'
p692
NNNI8
I1
I0
tp693
bS'M.I.K.E.'
p694
tp695
Rp696
ag2
(g22
S'\xc3\xbd\x1c\xf6\xb7\xa8\xe3?'
p697
tp698
Rp699
ag2
(g22
S'\xc0Z\xcdA\x98\x05\xda?'
p700
tp701
Rp702
ag2
(g22
S'gDio\xf0\x15\x80@'
p703
tp704
Rp705
ag2
(g22
S'\x1dZd;\xdfO\xcd?'
p706
tp707
Rp708
ag2
(g22
S'\xd3Mb\x10X1\x7f@'
p709
tp710
Rp711
aF0.000157
aF0.606
aF0.84
aF0.913
aF-11.139
aF0.0506
aF140.008
aF0.294
aa(lp712
g2
(g3
(S'S15'
p713
I0
I1
tp714
Rp715
(I3
S'|'
p716
NNNI15
I1
I0
tp717
bS'Un Tipo Como Yo'
p718
tp719
Rp720
ag2
(g3
(S'S14'
p721
I0
I1
tp722
Rp723
(I3
S'|'
p724
NNNI14
I1
I0
tp725
bS'Willie Rosario'
p726
tp727
Rp728
ag2
(g22
S'\xf3\xeaH\xddz\xca\xe1?'
p729
tp730
Rp731
ag2
(g22
S'nR\xd8\xc0\x99\xa3\xd5?'
p732
tp733
Rp734
ag2
(g22
S' )"\xc3\xaa\x96q@'
p735
tp736
Rp737
ag2
(g22
S'\x8bl\xe7\xfb\xa9\xf1\xc2?'
p738
tp739
Rp740
ag2
(g22
S'\xe7\xfb\xa9\xf1\xd2Eq@'
p741
tp742
Rp743
aF0.282
aF0.659
aF0.821
aF7.01e-05
aF-5.409
aF0.0418
aF97.862
aF0.903
aa(lp744
g2
(g3
(S'S18'
p745
I0
I1
tp746
Rp747
(I3
S'|'
p748
NNNI18
I1
I0
tp749
bS'The Thrill Is Gone'
p750
tp751
Rp752
ag2
(g3
(S'S32'
p753
I0
I1
tp754
Rp755
(I3
S'|'
p756
NNNI32
I1
I0
tp757
bS'Jude Taylor & His Burning Flames'
p758
tp759
Rp760
ag2
(g22
S'\x12\n\xf4\x0fB\x1b\xd6?'
p761
tp762
Rp763
ag2
(g22
S'[\xee\x90\xaf\x84\xec\xcd?'
p764
tp765
Rp766
ag2
(g22
S'\x94\xde7\xbevGp@'
p767
tp768
Rp769
ag2
(g22
S'\x00\x00\x00\x00\x00\x00\x00\x00'
p770
tp771
Rp772
ag2
(g22
S'T\xe3\xa5\x9b\xc4\x0ep@'
p773
tp774
Rp775
aF0.058
aF0.758
aF0.871
aI0
aF-3.567
aF0.0407
aF149.966
aF0.966
aa(lp776
g2
(g3
(S'S17'
p777
I0
I1
tp778
Rp779
(I3
S'|'
p780
NNNI17
I1
I0
tp781
bS'Slave To The Wage'
p782
tp783
Rp784
ag2
(g3
(S'S7'
p785
I0
I1
tp786
Rp787
(I3
S'|'
p788
NNNI7
I1
I0
tp789
bS'Placebo'
p790
tp791
Rp792
ag2
(g22
S'^tD\x1c\xa8\xbe\xe9?'
p793
tp794
Rp795
ag2
(g22
S'\xcb\x12\xdc\xee\x0f\xc4\xe2?'
p796
tp797
Rp798
ag2
(g22
S'82\x8f\xfc\xc1\xden@'
p799
tp800
Rp801
ag2
(g22
S'\xc3\xf5(\\\x8f\xc2\xd5?'
p802
tp803
Rp804
ag2
(g22
S'\x14\xaeG\xe1zhm@'
p805
tp806
Rp807
aF0.00031
aF0.513
aF0.962
aF0.686
aF-5.93
aF0.0752
aF142.211
aF0.488
aa(lp808
g2
(g3
(S'S14'
p809
I0
I1
tp810
Rp811
(I3
S'|'
p812
NNNI14
I1
I0
tp813
bS'Hit The Lights'
p814
tp815
Rp816
ag2
(g3
(S'S9'
p817
I0
I1
tp818
Rp819
(I3
S'|'
p820
NNNI9
I1
I0
tp821
bS'Metallica'
p822
tp823
Rp824
ag2
(g22
S'6\x1b\xaf\x1b\xb3D\xeb?'
p825
tp826
Rp827
ag2
(g22
S'l\xaapB\x7f\xf8\xe8?'
p828
tp829
Rp830
ag2
(g22
S'\xd0D\xd8\xf0\xf4\x8ao@'
p831
tp832
Rp833
ag2
(g22
S'\x00\x00\x00\x00\x00\x00\x00\x00'
p834
tp835
Rp836
ag2
(g22
S"'1\x08\xac\x1c\x9en@"
p837
tp838
Rp839
aF4.3e-05
aF0.249
aF0.97
aF0.224
aF-5.535
aF0.21
aF160.687
aF0.287
aa(lp840
g2
(g3
(S'S22'
p841
I0
I1
tp842
Rp843
(I3
S'|'
p844
NNNI22
I1
I0
tp845
bS'Cancion Para Mi Muerte'
p846
tp847
Rp848
ag2
(g3
(S'S11'
p849
I0
I1
tp850
Rp851
(I3
S'|'
p852
NNNI11
I1
I0
tp853
bS'Sui Generis'
p854
tp855
Rp856
ag2
(g22
S'\x99\x9b\x19;\xe7q\xe2?'
p857
tp858
Rp859
ag2
(g22
S'\x08\xa9\xd4\xb7\xc1\xd5\xdc?'
p860
tp861
Rp862
ag2
(g22
S'\xdd\xd2jH\xdcPm@'
p863
tp864
Rp865
ag2
(g22
S'\xc7K7\x89A`\xd5?'
p866
tp867
Rp868
ag2
(g22
S'#\xdb\xf9~j\xdcl@'
p869
tp870
Rp871
aF0.624
aF0.457
aF0.516
aF0.000426
aF-9.805
aF0.0299
aF131.122
aF0.495
aa(lp872
g2
(g3
(S'S17'
p873
I0
I1
tp874
Rp875
(I3
S'|'
p876
NNNI17
I1
I0
tp877
bS'Have You Seen Her'
p878
tp879
Rp880
ag2
(g3
(S'S17'
p881
I0
I1
tp882
Rp883
(I3
S'|'
p884
NNNI17
I1
I0
tp885
bS'The Red Telephone'
p886
tp887
Rp888
ag2
(g22
S'\xdcy\x95{\xed8\xdd?'
p889
tp890
Rp891
ag2
(g22
S'\x10Y\x1c\xa6\xd5\xdb\xc7?'
p892
tp893
Rp894
ag2
(g22
S'\xb3\x98\xd8|\xdc\x18q@'
p895
tp896
Rp897
ag2
(g22
S'X9\xb4\xc8v\xbe\xdf?'
p898
tp899
Rp900
ag2
(g22
S'\xc9v\xbe\x9f\x1acp@'
p901
tp902
Rp903
aF0.152
aF0.32
aF0.707
aF0.0192
aF-6.617
aF0.0323
aF115.869
aF0.167
aa(lp904
g2
(g3
(S'S13'
p905
I0
I1
tp906
Rp907
(I3
S'|'
p908
NNNI13
I1
I0
tp909
bS"Don't Tell Me"
p910
tp911
Rp912
ag2
(g3
(S'S6'
p913
I0
I1
tp914
Rp915
(I3
S'|'
p916
NNNI6
I1
I0
tp917
bS'T-Bone'
p918
tp919
Rp920
ag2
(g22
S'\x05\xf8k\xbb\xa0\x99\xe5?'
p921
tp922
Rp923
ag2
(g22
S'X\xe0\xb5\xe6r9\xdd?'
p924
tp925
Rp926
ag2
(g22
S'[\x99\xf0K\xfd\xa2l@'
p927
tp928
Rp929
ag2
(g22
S'L7\x89A`\xe5\xd0?'
p930
tp931
Rp932
ag2
(g22
S'\xee|?5^\xa6k@'
p933
tp934
Rp935
aF0.116
aF0.605
aF0.879
aF1.84e-06
aF-7.89
aF0.0661
aF104.977
aF0.711
aa(lp936
g2
(g3
(S'S6'
p937
I0
I1
tp938
Rp939
(I3
S'|'
p940
NNNI6
I1
I0
tp941
bS'Karuna'
p942
tp943
Rp944
ag2
(g3
(S'S12'
p945
I0
I1
tp946
Rp947
(I3
S'|'
p948
NNNI12
I1
I0
tp949
bS'Bill Douglas'
p950
tp951
Rp952
ag2
(g22
S'3\x13\xd0\x1a\x95T\xdf?'
p953
tp954
Rp955
ag2
(g22
S'\x03(\xe3E\x19\xfa\xd5?'
p956
tp957
Rp958
ag2
(g22
S'\x80\x82\x8b\x155\xb1t@'
p959
tp960
Rp961
ag2
(g22
S'\xf8S\xe3\xa5\x9b\xc4\xc0?'
p962
tp963
Rp964
ag2
(g22
S'5^\xbaI\x0c\x8as@'
p965
tp966
Rp967
aF0.995
aF0.477
aF0.0635
aF0.927
aF-18.981
aF0.0519
aF68.637
aF0.193
aa(lp968
g2
(g3
(S'S13'
p969
I0
I1
tp970
Rp971
(I3
S'|'
p972
NNNI13
I1
I0
tp973
bS'Closing Scene'
p974
tp975
Rp976
ag2
(g3
(S'S15'
p977
I0
I1
tp978
Rp979
(I3
S'|'
p980
NNNI15
I1
I0
tp981
bS'The Radio Dept.'
p982
tp983
Rp984
ag2
(g22
S'_\x89\x88D\x9d\xa9\xe7?'
p985
tp986
Rp987
ag2
(g22
S'\x8bs=RFm\xe0?'
p988
tp989
Rp990
ag2
(g22
S"\xd0'\xf2$i\x00p@"
p991
tp992
Rp993
ag2
(g22
S'\xf4\xfd\xd4x\xe9&\xb1?'
p994
tp995
Rp996
ag2
(g22
S'fffff\x9an@'
p997
tp998
Rp999
aF0.841
aF0.662
aF0.47
aF0.857
aF-5.817
aF0.0357
aF132.015
aF0.632
aa(lp1000
g2
(g3
(S'S8'
p1001
I0
I1
tp1002
Rp1003
(I3
S'|'
p1004
NNNI8
I1
I0
tp1005
bS'Feelings'
p1006
tp1007
Rp1008
ag2
(g3
(S'S16'
p1009
I0
I1
tp1010
Rp1011
(I3
S'|'
p1012
NNNI16
I1
I0
tp1013
bS'Shy FX & T Power'
p1014
tp1015
Rp1016
ag2
(g22
S'\x03\x80\x91\x14M\xca\xe0?'
p1017
tp1018
Rp1019
ag2
(g22
S'g9\xbd\xe6i\x8e\xd7?'
p1020
tp1021
Rp1022
ag2
(g22
S'\x8d\xee v&\xc7w@'
p1023
tp1024
Rp1025
ag2
(g22
S'\x00\x00\x00\x00\x00\x00\x00\x00'
p1026
tp1027
Rp1028
ag2
(g22
S'\xb6\xf3\xfd\xd4x\xf7v@'
p1029
tp1030
Rp1031
aF0.0037
aF0.718
aF0.821
aF9.29e-05
aF-5.581
aF0.0884
aF87.012
aF0.653
aa(lp1032
g2
(g3
(S'S14'
p1033
I0
I1
tp1034
Rp1035
(I3
S'|'
p1036
NNNI14
I1
I0
tp1037
bS'If You Love Me'
p1038
tp1039
Rp1040
ag2
(g3
(S'S13'
p1041
I0
I1
tp1042
Rp1043
(I3
S'|'
p1044
NNNI13
I1
I0
tp1045
bS'Becky Baeling'
p1046
tp1047
Rp1048
ag2
(g22
S'v\xc3MB\xcc8\xe0?'
p1049
tp1050
Rp1051
ag2
(g22
S'J^\xed\x054n\xd5?'
p1052
tp1053
Rp1054
ag2
(g22
S'\x8e#\xd6\xe2S\xf5n@'
p1055
tp1056
Rp1057
ag2
(g22
S'\xb8\x1e\x85\xebQ\xb8\xde?'
p1058
tp1059
Rp1060
ag2
(g22
S'\xdfO\x8d\x97n\xb2l@'
p1061
tp1062
Rp1063
aF0.0319
aF0.618
aF0.779
aI0
aF-4.356
aF0.0522
aF130.023
aF0.628
aa(lp1064
g2
(g3
(S'S18'
p1065
I0
I1
tp1066
Rp1067
(I3
S'|'
p1068
NNNI18
I1
I0
tp1069
bS'Still There For Me'
p1070
tp1071
Rp1072
ag2
(g3
(S'S8'
p1073
I0
I1
tp1074
Rp1075
(I3
S'|'
p1076
NNNI8
I1
I0
tp1077
bS"Keb' Mo'"
p1078
tp1079
Rp1080
ag2
(g22
S'C\x18\xc6\x9bj:\xe4?'
p1081
tp1082
Rp1083
ag2
(g22
S'\x83\xb2\x90\xf8\xda9\xde?'
p1084
tp1085
Rp1086
ag2
(g22
S'\x94\xfb\x1d\x8a\x02\xd2g@'
p1087
tp1088
Rp1089
ag2
(g22
S'\x00\x00\x00\x00\x00\x00\x00\x00'
p1090
tp1091
Rp1092
ag2
(g22
S'\xbct\x93\x18\x04ff@'
p1093
tp1094
Rp1095
aF0.609
aF0.71
aF0.276
aF2.74e-05
aF-10.755
aF0.0247
aF89.966
aF0.353
aa(lp1096
g2
(g3
(S'S6'
p1097
I0
I1
tp1098
Rp1099
(I3
S'|'
p1100
NNNI6
I1
I0
tp1101
bS'Allein'
p1102
tp1103
Rp1104
ag2
(g3
(S'S3'
p1105
I0
I1
tp1106
Rp1107
(I3
S'|'
p1108
NNNI3
I1
I0
tp1109
bS'UKW'
p1110
tp1111
Rp1112
ag2
(g22
S'\xc2\x9e\xf4I\x83\x16\xde?'
p1113
tp1114
Rp1115
ag2
(g22
S'\x99K\xc1\xfc,\xcd\xd4?'
p1116
tp1117
Rp1118
ag2
(g22
S'\xd5x\xe9&1\xacp@'
p1119
tp1120
Rp1121
ag2
(g22
S'\x00\x00\x00\x00\x00\x00\x00\x00'
p1122
tp1123
Rp1124
ag2
(g22
S'\xa2E\xb6\xf3\xfd6p@'
p1125
tp1126
Rp1127
aF0.226
aF0.528
aF0.572
aF0.00134
aF-6.809
aF0.0426
aF146.084
aF0.462
aa(lp1128
g2
(g3
(S'S15'
p1129
I0
I1
tp1130
Rp1131
(I3
S'|'
p1132
NNNI15
I1
I0
tp1133
bS'La Vida En Rosa'
p1134
tp1135
Rp1136
ag2
(g3
(S'S19'
p1137
I0
I1
tp1138
Rp1139
(I3
S'|'
p1140
NNNI19
I1
I0
tp1141
bS'S. Solis y Orquesta'
p1142
tp1143
Rp1144
ag2
(g22
S'|\xf4\x84\x04\xcb\x02\xac?'
p1145
tp1146
Rp1147
ag2
(g22
S'\x00\x00\x00\x00\x00\x00\x00\x00'
p1148
tp1149
Rp1150
ag2
(g22
S'\x81\xcf\x0f#\x84\xc6f@'
p1151
tp1152
Rp1153
ag2
(g22
S'\x9c\xc4 \xb0rh\x03@'
p1154
tp1155
Rp1156
ag2
(g22
S'\xd7\xa3p=\n\x83e@'
p1157
tp1158
Rp1159
aF0.764
aF0.261
aF0.213
aF0.00371
aF-11.05
aF0.041
aF93.705
aF0.147
aa(lp1160
g2
(g3
(S'S11'
p1161
I0
I1
tp1162
Rp1163
(I3
S'|'
p1164
NNNI11
I1
I0
tp1165
bS'Crying Time'
p1166
tp1167
Rp1168
ag2
(g3
(S'S41'
p1169
I0
I1
tp1170
Rp1171
(I3
S'|'
p1172
NNNI41
I1
I0
tp1173
bS'Commander Cody And His Lost Planet Airmen'
p1174
tp1175
Rp1176
ag2
(g22
S'BF\x99<\x7f\xf2\xdd?'
p1177
tp1178
Rp1179
ag2
(g22
S'\x88t\xf7\xd2kk\xd7?'
p1180
tp1181
Rp1182
ag2
(g22
S'\x984F\xeb\xa8\x96g@'
p1183
tp1184
Rp1185
ag2
(g22
S'\x00\x00\x00\x00\x00\x00\x00\x00'
p1186
tp1187
Rp1188
ag2
(g22
S'sh\x91\xed|+g@'
p1189
tp1190
Rp1191
aF0.295
aF0.569
aF0.388
aI0
aF-11.593
aF0.0334
aF106.251
aF0.562
aa(lp1192
g2
(g3
(S'S24'
p1193
I0
I1
tp1194
Rp1195
(I3
S'|'
p1196
NNNI24
I1
I0
tp1197
bS'You Can Always Come Home'
p1198
tp1199
Rp1200
ag2
(g3
(S'S12'
p1201
I0
I1
tp1202
Rp1203
(I3
S'|'
p1204
NNNI12
I1
I0
tp1205
bS'Commissioned'
p1206
tp1207
Rp1208
ag2
(g22
S'\x0f\x9e\x8c\xe7\xd1 \xe0?'
p1209
tp1210
Rp1211
ag2
(g22
S'F\xbc`\x81gQ\xda?'
p1212
tp1213
Rp1214
ag2
(g22
S'\x9f\xb0\xc4\x03Jmu@'
p1215
tp1216
Rp1217
ag2
(g22
S'\x1b/\xdd$\x06\x81\xc5?'
p1218
tp1219
Rp1220
ag2
(g22
S'\x1dZd;\xdf\x17t@'
p1221
tp1222
Rp1223
aF0.0718
aF0.691
aF0.635
aF9.96e-05
aF-9.013
aF0.0682
aF157.871
aF0.557
aa(lp1224
g2
(g3
(S'S23'
p1225
I0
I1
tp1226
Rp1227
(I3
S'|'
p1228
NNNI23
I1
I0
tp1229
bS'Little Bitty Pretty One'
p1230
tp1231
Rp1232
ag2
(g3
(S'S9'
p1233
I0
I1
tp1234
Rp1235
(I3
S'|'
p1236
NNNI9
I1
I0
tp1237
bS'Dee Clark'
p1238
tp1239
Rp1240
ag2
(g22
S'\xfac\x13u\xa9\x13\xe1?'
p1241
tp1242
Rp1243
ag2
(g22
S'\x13\xc2\xe4\xa8\x0c\xfc\xd5?'
p1244
tp1245
Rp1246
ag2
(g22
S'y#\xf3\xc8\x1f\xa6a@'
p1247
tp1248
Rp1249
ag2
(g22
S'\x00\x00\x00\x00\x00\x00\x00\x00'
p1250
tp1251
Rp1252
ag2
(g22
S'\x00\x00\x00\x00\x00\xb4`@'
p1253
tp1254
Rp1255
aF0.81
aF0.5
aF0.631
aF0.0022
aF-12.306
aF0.25
aF93.222
aF0.67
aa(lp1256
g2
(g3
(S'S14'
p1257
I0
I1
tp1258
Rp1259
(I3
S'|'
p1260
NNNI14
I1
I0
tp1261
bS'Shooting Stars'
p1262
tp1263
Rp1264
ag2
(g3
(S'S9'
p1265
I0
I1
tp1266
Rp1267
(I3
S'|'
p1268
NNNI9
I1
I0
tp1269
bS'Cauterize'
p1270
tp1271
Rp1272
ag2
(g22
S'0w\xc7j\x8b6\xe1?'
p1273
tp1274
Rp1275
ag2
(g22
S'\xb6\xf4Zq\x0b\xbc\xda?'
p1276
tp1277
Rp1278
ag2
(g22
S'p\x94\xbc:\xc7\rn@'
p1279
tp1280
Rp1281
ag2
(g22
S'-\xb2\x9d\xef\xa7\xc6\xe3?'
p1282
tp1283
Rp1284
ag2
(g22
S'\xac\x1cZd;\xbfl@'
p1285
tp1286
Rp1287
aF0.000129
aF0.491
aF0.916
aF0.0246
aF-4.002
aF0.0417
aF97.171
aF0.329
aa(lp1288
g2
(g3
(S'S30'
p1289
I0
I1
tp1290
Rp1291
(I3
S'|'
p1292
NNNI30
I1
I0
tp1293
bS'The Cookie Bakers of the Night'
p1294
tp1295
Rp1296
ag2
(g3
(S'S14'
p1297
I0
I1
tp1298
Rp1299
(I3
S'|'
p1300
NNNI14
I1
I0
tp1301
bS'Laurie Berkner'
p1302
tp1303
Rp1304
ag2
(g22
S'\x85\x06\x9f\x13\x14\xdf\xe1?'
p1305
tp1306
Rp1307
ag2
(g22
S'X\x83\xf4z\xb9\x15\xd8?'
p1308
tp1309
Rp1310
ag2
(g22
S'H\xa7\xae|\x96.m@'
p1311
tp1312
Rp1313
ag2
(g22
S'\x0e-\xb2\x9d\xef\xa7\xc6?'
p1314
tp1315
Rp1316
ag2
(g22
S'\xd7\xa3p=\n\xc7l@'
p1317
tp1318
Rp1319
aF0.611
aF0.645
aF0.333
aF3.38e-06
aF-7.381
aF0.105
aF143.88
aF0.529
aa(lp1320
g2
(g3
(S'S7'
p1321
I0
I1
tp1322
Rp1323
(I3
S'|'
p1324
NNNI7
I1
I0
tp1325
bS'Whip It'
p1326
tp1327
Rp1328
ag2
(g3
(S'S8'
p1329
I0
I1
tp1330
Rp1331
(I3
S'|'
p1332
NNNI8
I1
I0
tp1333
bS'DJ Slugo'
p1334
tp1335
Rp1336
ag2
(g22
S'\xda]N\x12D\xe6\xe1?'
p1337
tp1338
Rp1339
ag2
(g22
S'i\x90\x1e\x83\xb1\x93\xd9?'
p1340
tp1341
Rp1342
ag2
(g22
S'\xd4\xb7\xcc\xe9\xb2\xe6h@'
p1343
tp1344
Rp1345
ag2
(g22
S'\x00\x00\x00\x00\x00\x00\x00\x00'
p1346
tp1347
Rp1348
ag2
(g22
S'\xa6\x9b\xc4 \xb0\xe6h@'
p1349
tp1350
Rp1351
aF9.38e-05
aF0.761
aF0.933
aF0.923
aF-10.14
aF0.0945
aF150.018
aF0.198
aa(lp1352
g2
(g3
(S'S12'
p1353
I0
I1
tp1354
Rp1355
(I3
S'|'
p1356
NNNI12
I1
I0
tp1357
bS'The Blessing'
p1358
tp1359
Rp1360
ag2
(g3
(S'S3'
p1361
I0
I1
tp1362
Rp1363
(I3
S'|'
p1364
NNNI3
I1
I0
tp1365
bS'Joi'
p1366
tp1367
Rp1368
ag2
(g22
S'>PD\x19w\xba\xe5?'
p1369
tp1370
Rp1371
ag2
(g22
S'Z\xfcu\xa1\x84\x18\xd7?'
p1372
tp1373
Rp1374
ag2
(g22
S'1%\x92\xe8\xe5\xd3t@'
p1375
tp1376
Rp1377
ag2
(g22
S'{\x14\xaeG\xe1z\xc4?'
p1378
tp1379
Rp1380
ag2
(g22
S'\xa4p=\n\xd7Mt@'
p1381
tp1382
Rp1383
aF0.0576
aF0.521
aF0.967
aF0.889
aF-3.985
aF0.0664
aF192.008
aF0.272
aa(lp1384
g2
(g3
(S'S21'
p1385
I0
I1
tp1386
Rp1387
(I3
S'|'
p1388
NNNI21
I1
I0
tp1389
bS'Citizen Of The Planet'
p1390
tp1391
Rp1392
ag2
(g3
(S'S17'
p1393
I0
I1
tp1394
Rp1395
(I3
S'|'
p1396
NNNI17
I1
I0
tp1397
bS'Simon & Garfunkel'
p1398
tp1399
Rp1400
ag2
(g22
S'Y\x8d\xe4\xba\xdf|\xe9?'
p1401
tp1402
Rp1403
ag2
(g22
S'\xc3E\xb4\x10\x95T\xe0?'
p1404
tp1405
Rp1406
ag2
(g22
S'\xae\x9e\x93\xde7Kh@'
p1407
tp1408
Rp1409
ag2
(g22
S'\xc3\xf5(\\\x8f\xc2\xd5?'
p1410
tp1411
Rp1412
ag2
(g22
S'^\xbaI\x0c\x02\xfbf@'
p1413
tp1414
Rp1415
aF0.0977
aF0.665
aF0.594
aF1.16e-05
aF-10.638
aF0.0293
aF105.934
aF0.748
aa(lp1416
g2
(g3
(S'S22'
p1417
I0
I1
tp1418
Rp1419
(I3
S'|'
p1420
NNNI22
I1
I0
tp1421
bS'Something For The Pain'
p1422
tp1423
Rp1424
ag2
(g3
(S'S11'
p1425
I0
I1
tp1426
Rp1427
(I3
S'|'
p1428
NNNI11
I1
I0
tp1429
bS'Robben Ford'
p1430
tp1431
Rp1432
ag2
(g22
S'\x1cR\xe1`\xb0Z\xe3?'
p1433
tp1434
Rp1435
ag2
(g22
S'N\xe74\xe8r\x91\xd8?'
p1436
tp1437
Rp1438
ag2
(g22
S'\x99d\xe4,\xec\xa5r@'
p1439
tp1440
Rp1441
ag2
(g22
S'R\xb8\x1e\x85\xebQ\xd0?'
p1442
tp1443
Rp1444
ag2
(g22
S'\xc7K7\x89A\x92q@'
p1445
tp1446
Rp1447
aF0.0352
aF0.73
aF0.676
aF0.0313
aF-5.876
aF0.0315
aF111.846
aF0.513
aa(lp1448
g2
(g3
(S'S13'
p1449
I0
I1
tp1450
Rp1451
(I3
S'|'
p1452
NNNI13
I1
I0
tp1453
bS'Soul Searcher'
p1454
tp1455
Rp1456
ag2
(g3
(S'S15'
p1457
I0
I1
tp1458
Rp1459
(I3
S'|'
p1460
NNNI15
I1
I0
tp1461
bS'Joe Lynn Turner'
p1462
tp1463
Rp1464
ag2
(g22
S'\xcf\x19\x1f\xaea\xd7\xe3?'
p1465
tp1466
Rp1467
ag2
(g22
S"o'\x84\x99\xc2[\xd7?"
p1468
tp1469
Rp1470
ag2
(g22
S'\x88\xf4\xdb\xd7\x81\xf9n@'
p1471
tp1472
Rp1473
ag2
(g22
S'V\x0e-\xb2\x9d\xef\x08@'
p1474
tp1475
Rp1476
ag2
(g22
S'\x0c\x02+\x87\x16\rm@'
p1477
tp1478
Rp1479
aF0.0125
aF0.393
aF0.675
aI0
aF-13.387
aF0.0354
aF172.85
aF0.731
aa(lp1480
g2
(g3
(S'S33'
p1481
I0
I1
tp1482
Rp1483
(I3
S'|'
p1484
NNNI33
I1
I0
tp1485
bS'Skeletons (Live Acoustic Version)'
p1486
tp1487
Rp1488
ag2
(g3
(S'S16'
p1489
I0
I1
tp1490
Rp1491
(I3
S'|'
p1492
NNNI16
I1
I0
tp1493
bS'Rickie Lee Jones'
p1494
tp1495
Rp1496
ag2
(g22
S'\xa4PWk\xaeu\xe5?'
p1497
tp1498
Rp1499
ag2
(g22
S'3H\x94e\xd1\x19\xe0?'
p1500
tp1501
Rp1502
ag2
(g22
S'\xc0\x95\xec\xd8\x08\xa4k@'
p1503
tp1504
Rp1505
ag2
(g22
S'\x00\x00\x00\x00\x00\x00\x00\x00'
p1506
tp1507
Rp1508
ag2
(g22
S'\x8bl\xe7\xfb\xa9ij@'
p1509
tp1510
Rp1511
aF0.93
aF0.447
aF0.026
aF6.25e-06
aF-22.085
aF0.0429
aF81.718
aF0.337
aa(lp1512
g2
(g3
(S'S11'
p1513
I0
I1
tp1514
Rp1515
(I3
S'|'
p1516
NNNI11
I1
I0
tp1517
bS'Imagination'
p1518
tp1519
Rp1520
ag2
(g3
(S'S8'
p1521
I0
I1
tp1522
Rp1523
(I3
S'|'
p1524
NNNI8
I1
I0
tp1525
bS'Hysterie'
p1526
tp1527
Rp1528
ag2
(g22
S'\x14\xea\xb6\x81\xe4\x87\xd8?'
p1529
tp1530
Rp1531
ag2
(g22
S'\xb3\x05\xb0\xbf,[\xd0?'
p1532
tp1533
Rp1534
ag2
(g22
S'\x83\xc0\xca\xa1EZx@'
p1535
tp1536
Rp1537
ag2
(g22
S'\xd5x\xe9&1\x08\xdc?'
p1538
tp1539
Rp1540
ag2
(g22
S'\xaeG\xe1z\x14\x04x@'
p1541
tp1542
Rp1543
aF0.000195
aF0.679
aF0.991
aF0.000601
aF-5.543
aF0.0489
aF134.011
aF0.945
aa(lp1544
g2
(g3
(S'S10'
p1545
I0
I1
tp1546
Rp1547
(I3
S'|'
p1548
NNNI10
I1
I0
tp1549
bS'Flashflood'
p1550
tp1551
Rp1552
ag2
(g3
(S'S10'
p1553
I0
I1
tp1554
Rp1555
(I3
S'|'
p1556
NNNI10
I1
I0
tp1557
bS'Aesop Rock'
p1558
tp1559
Rp1560
ag2
(g22
S'\xb3\x87\x8bC\x8a\xb4\xea?'
p1561
tp1562
Rp1563
ag2
(g22
S'NK\r\xf0B\x8c\xde?'
p1564
tp1565
Rp1566
ag2
(g22
S'\xdd\xd2jH\xdcPm@'
p1567
tp1568
Rp1569
ag2
(g22
S'{\x14\xaeG\xe1z\xc4?'
p1570
tp1571
Rp1572
ag2
(g22
S'fffff\xbal@'
p1573
tp1574
Rp1575
aF0.0624
aF0.505
aF0.899
aF3.02e-06
aF-5.892
aF0.418
aF168.311
aF0.23
aa(lp1576
g2
(g3
(S'S14'
p1577
I0
I1
tp1578
Rp1579
(I3
S'|'
p1580
NNNI14
I1
I0
tp1581
bS'Old Times Sake'
p1582
tp1583
Rp1584
ag2
(g3
(S'S12'
p1585
I0
I1
tp1586
Rp1587
(I3
S'|'
p1588
NNNI12
I1
I0
tp1589
bS'Shelby Lynne'
p1590
tp1591
Rp1592
ag2
(g22
S'v\x17\xf3\x9c/\xf1\xe5?'
p1593
tp1594
Rp1595
ag2
(g22
S'\x81\x04\x19[-\\\xe1?'
p1596
tp1597
Rp1598
ag2
(g22
S'5\x98\x86\xe1\xa3/r@'
p1599
tp1600
Rp1601
ag2
(g22
S'\x0e-\xb2\x9d\xef\xa7\xc6?'
p1602
tp1603
Rp1604
ag2
(g22
S'\\\x8f\xc2\xf5(.p@'
p1605
tp1606
Rp1607
aF0.57
aF0.717
aF0.184
aF0.0005
aF-14.876
aF0.0338
aF61.14
aF0.192
aa(lp1608
g2
(g3
(S'S11'
p1609
I0
I1
tp1610
Rp1611
(I3
S'|'
p1612
NNNI11
I1
I0
tp1613
bS'Wasted Love'
p1614
tp1615
Rp1616
ag2
(g3
(S'S9'
p1617
I0
I1
tp1618
Rp1619
(I3
S'|'
p1620
NNNI9
I1
I0
tp1621
bS'Tora Tora'
p1622
tp1623
Rp1624
ag2
(g22
S';i\xb8\xb4\xf8\xd9\xe1?'
p1625
tp1626
Rp1627
ag2
(g22
S'y\x8c\xc6\xf6/\xab\xd7?'
p1628
tp1629
Rp1630
ag2
(g22
S'K\xea\x044\x11\xbcl@'
p1631
tp1632
Rp1633
ag2
(g22
S'\x10X9\xb4\xc8v\xd6?'
p1634
tp1635
Rp1636
ag2
(g22
S'\xcd\xcc\xcc\xcc\xccLl@'
p1637
tp1638
Rp1639
aF0.0223
aF0.318
aF0.895
aF0.000394
aF-7.57
aF0.0691
aF140.791
aF0.306
aa(lp1640
g2
(g3
(S'S25'
p1641
I0
I1
tp1642
Rp1643
(I3
S'|'
p1644
NNNI25
I1
I0
tp1645
bS'Eleanor Put Your Boots On'
p1646
tp1647
Rp1648
ag2
(g3
(S'S15'
p1649
I0
I1
tp1650
Rp1651
(I3
S'|'
p1652
NNNI15
I1
I0
tp1653
bS'Franz Ferdinand'
p1654
tp1655
Rp1656
ag2
(g22
S'\xcaq\x98o\xfa\xb3\xe9?'
p1657
tp1658
Rp1659
ag2
(g22
S'\x83\xf0M]\x1e\xa8\xe2?'
p1660
tp1661
Rp1662
ag2
(g22
S'\x15:\xaf\xb1Kdh@'
p1663
tp1664
Rp1665
ag2
(g22
S'w\xbe\x9f\x1a/\xdd\xf0?'
p1666
tp1667
Rp1668
ag2
(g22
S'`\xe5\xd0"\xdb\xe5e@'
p1669
tp1670
Rp1671
aF0.597
aF0.428
aF0.501
aF0.000231
aF-6.364
aF0.0372
aF76.953
aF0.146
aa(lp1672
g2
(g3
(S'S12'
p1673
I0
I1
tp1674
Rp1675
(I3
S'|'
p1676
NNNI12
I1
I0
tp1677
bS'Canta Brasil'
p1678
tp1679
Rp1680
ag2
(g3
(S'S9'
p1681
I0
I1
tp1682
Rp1683
(I3
S'|'
p1684
NNNI9
I1
I0
tp1685
bS'Gal Costa'
p1686
tp1687
Rp1688
ag2
(g22
S'OA\x15o\xfd\x10\xe7?'
p1689
tp1690
Rp1691
ag2
(g22
S'K\xde\xd1Sk\xff\xdb?'
p1692
tp1693
Rp1694
ag2
(g22
S'*\x1d\xac\xffs+h@'
p1695
tp1696
Rp1697
ag2
(g22
S'\x0c\x02+\x87\x16\xd9\xce?'
p1698
tp1699
Rp1700
ag2
(g22
S'J\x0c\x02+\x87\xb2g@'
p1701
tp1702
Rp1703
aF0.233
aF0.523
aF0.539
aF6.97e-06
aF-16.149
aF0.373
aF125.601
aF0.766
aa(lp1704
g2
(g3
(S'S19'
p1705
I0
I1
tp1706
Rp1707
(I3
S'|'
p1708
NNNI19
I1
I0
tp1709
bS'Sally In the Garden'
p1710
tp1711
Rp1712
ag2
(g3
(S'S12'
p1713
I0
I1
tp1714
Rp1715
(I3
S'|'
p1716
NNNI12
I1
I0
tp1717
bS'Kathy Mattea'
p1718
tp1719
Rp1720
ag2
(g22
S'\x06\xc7|+\xeaN\xe3?'
p1721
tp1722
Rp1723
ag2
(g22
S'\xfe\xae\xed\xcc!\x04\xdb?'
p1724
tp1725
Rp1726
ag2
(g22
S'X\xc5\x1b\x99GRF@'
p1727
tp1728
Rp1729
ag2
(g22
S'\x00\x00\x00\x00\x00\x00\x00\x00'
p1730
tp1731
Rp1732
ag2
(g22
S'\xfc\xa9\xf1\xd2MRF@'
p1733
tp1734
Rp1735
aF0.965
aF0.599
aF0.199
aF0.924
aF-15.699
aF0.127
aF146.451
aF0.667
aa(lp1736
g2
(g3
(S'S17'
p1737
I0
I1
tp1738
Rp1739
(I3
S'|'
p1740
NNNI17
I1
I0
tp1741
bS'Steamroller Blues'
p1742
tp1743
Rp1744
ag2
(g3
(S'S12'
p1745
I0
I1
tp1746
Rp1747
(I3
S'|'
p1748
NNNI12
I1
I0
tp1749
bS'James Taylor'
p1750
tp1751
Rp1752
ag2
(g22
S'\xbc\xcc\x8a\xb5\xccr\xea?'
p1753
tp1754
Rp1755
ag2
(g22
S'\xd0\xab=kr\x1a\xe4?'
p1756
tp1757
Rp1758
ag2
(g22
S'\x0b\x98\xc0\xad\xbbMt@'
p1759
tp1760
Rp1761
ag2
(g22
S'\x00\x00\x00\x00\x00\x00\x00\x00'
p1762
tp1763
Rp1764
ag2
(g22
S'H\xe1z\x14\xae\xa3s@'
p1765
tp1766
Rp1767
aF0.103
aF0.548
aF0.523
aF0.00503
aF-10.236
aF0.0354
aF102.66
aF0.353
aa(lp1768
g2
(g3
(S'S5'
p1769
I0
I1
tp1770
Rp1771
(I3
S'|'
p1772
NNNI5
I1
I0
tp1773
bS'Heute'
p1774
tp1775
Rp1776
ag2
(g3
(S'S15'
p1777
I0
I1
tp1778
Rp1779
(I3
S'|'
p1780
NNNI15
I1
I0
tp1781
bS'Der Moderne Man'
p1782
tp1783
Rp1784
ag2
(g22
S'~\x86c\x15t\xd1\xda?'
p1785
tp1786
Rp1787
ag2
(g22
S'\xf0\xb1O\xe7\xa3\xd0\xd2?'
p1788
tp1789
Rp1790
ag2
(g22
S'\xc63h\xe8\x9f\xe9f@'
p1791
tp1792
Rp1793
ag2
(g22
S'\x1f\x85\xebQ\xb8\x1e\xc5?'
p1794
tp1795
Rp1796
ag2
(g22
S'7\x89A`\xe5\xfce@'
p1797
tp1798
Rp1799
aF0.0114
aF0.523
aF0.906
aF0.918
aF-8.804
aF0.0521
aF147.499
aF0.916
aa(lp1800
g2
(g3
(S'S19'
p1801
I0
I1
tp1802
Rp1803
(I3
S'|'
p1804
NNNI19
I1
I0
tp1805
bS'Sous la Tour Eiffel'
p1806
tp1807
Rp1808
ag2
(g3
(S'S5'
p1809
I0
I1
tp1810
Rp1811
(I3
S'|'
p1812
NNNI5
I1
I0
tp1813
bS'Taboo'
p1814
tp1815
Rp1816
ag2
(g22
S'\xe3%~\x01\xd6A\xe0?'
p1817
tp1818
Rp1819
ag2
(g22
S'\xc6^\xe0<u\xbc\xd5?'
p1820
tp1821
Rp1822
ag2
(g22
S'u\x8e\x01\xd9k\xdbr@'
p1823
tp1824
Rp1825
ag2
(g22
S'\x89A`\xe5\xd0"\xcb?'
p1826
tp1827
Rp1828
ag2
(g22
S'\xd9\xce\xf7S\xe3\x9fr@'
p1829
tp1830
Rp1831
aF0.0246
aF0.737
aF0.993
aF0.00275
aF-6.612
aF0.0324
aF131.981
aF0.968
aa(lp1832
g2
(g3
(S'S9'
p1833
I0
I1
tp1834
Rp1835
(I3
S'|'
p1836
NNNI9
I1
I0
tp1837
bS'Sometimes'
p1838
tp1839
Rp1840
ag2
(g3
(S'S21'
p1841
I0
I1
tp1842
Rp1843
(I3
S'|'
p1844
NNNI21
I1
I0
tp1845
bS'Tanto Metro & Devonte'
p1846
tp1847
Rp1848
ag2
(g22
S'm\xfa\xd8\xf5\xc4\x93\xe3?'
p1849
tp1850
Rp1851
ag2
(g22
S'HX\xe2\xbc\xee\x8c\xd5?'
p1852
tp1853
Rp1854
ag2
(g22
S'p\x99\xd3e1\xf2i@'
p1855
tp1856
Rp1857
ag2
(g22
S'\x93\x18\x04V\x0e-\x07@'
p1858
tp1859
Rp1860
ag2
(g22
S'\xf0\xa7\xc6K7!i@'
p1861
tp1862
Rp1863
aF0.0275
aF0.754
aF0.702
aI0
aF-8.033
aF0.0429
aF95.998
aF0.736
aa(lp1864
g2
(g3
(S'S37'
p1865
I0
I1
tp1866
Rp1867
(I3
S'|'
p1868
NNNI37
I1
I0
tp1869
bS"Wa'ahila (Instrumental - Bonus Track)"
p1870
tp1871
Rp1872
ag2
(g3
(S'S8'
p1873
I0
I1
tp1874
Rp1875
(I3
S'|'
p1876
NNNI8
I1
I0
tp1877
bS'Ray Kane'
p1878
tp1879
Rp1880
ag2
(g22
S'\x9a<\xeb\x15a\xe0\xda?'
p1881
tp1882
Rp1883
ag2
(g22
S'\xe8{\xfd\xbe\xef\xe8\xd1?'
p1884
tp1885
Rp1886
ag2
(g22
S'w-!\x1f\xf4\xecZ@'
p1887
tp1888
Rp1889
ag2
(g22
S'\x85\xebQ\xb8\x1e\x85\xd3?'
p1890
tp1891
Rp1892
ag2
(g22
S'\x96C\x8bl\xe7\x8bX@'
p1893
tp1894
Rp1895
aF0.993
aF0.548
aF0.249
aF0.897
aF-15.926
aF0.0285
aF81.83
aF0.185
aa(lp1896
g2
(g3
(S'S30'
p1897
I0
I1
tp1898
Rp1899
(I3
S'|'
p1900
NNNI30
I1
I0
tp1901
bS'My Life Would Suck Without You'
p1902
tp1903
Rp1904
ag2
(g3
(S'S14'
p1905
I0
I1
tp1906
Rp1907
(I3
S'|'
p1908
NNNI14
I1
I0
tp1909
bS'Kelly Clarkson'
p1910
tp1911
Rp1912
ag2
(g22
S'U\xbd\xc0:_\xfa\xe5?'
p1913
tp1914
Rp1915
ag2
(g22
S'HQ\x1d"@\xe7\xe5?'
p1916
tp1917
Rp1918
ag2
(g22
S'\x01M\x84\rO\xd4l@'
p1919
tp1920
Rp1921
ag2
(g22
S'\xfa~j\xbct\x93\xd0?'
p1922
tp1923
Rp1924
ag2
(g22
S'\xdb\xf9~j\xbcHk@'
p1925
tp1926
Rp1927
aF0.0014
aF0.526
aF0.882
aI0
aF-4.006
aF0.0509
aF144.982
aF0.424
aa(lp1928
g2
(g3
(S'S10'
p1929
I0
I1
tp1930
Rp1931
(I3
S'|'
p1932
NNNI10
I1
I0
tp1933
bS'Bed Crumbs'
p1934
tp1935
Rp1936
ag2
(g3
(S'S12'
p1937
I0
I1
tp1938
Rp1939
(I3
S'|'
p1940
NNNI12
I1
I0
tp1941
bS'Fudge Tunnel'
p1942
tp1943
Rp1944
ag2
(g22
S'k\xed\xcf\xd3H\xda\xe0?'
p1945
tp1946
Rp1947
ag2
(g22
S'\xcb\x9f\xb7\x83\xc5\x8c\xd6?'
p1948
tp1949
Rp1950
ag2
(g22
S'\xb8;k\xb7]<_@'
p1951
tp1952
Rp1953
ag2
(g22
S'\x8f\xc2\xf5(\\\x8f\xda?'
p1954
tp1955
Rp1956
ag2
(g22
S'\x14\xaeG\xe1z\x14^@'
p1957
tp1958
Rp1959
aF2.92e-06
aF0.2
aF0.914
aF0.864
aF-13.251
aF0.0485
aF105.183
aF0.247
aa(lp1960
g2
(g3
(S'S14'
p1961
I0
I1
tp1962
Rp1963
(I3
S'|'
p1964
NNNI14
I1
I0
tp1965
bS"J'l'ai pas dit"
p1966
tp1967
Rp1968
ag2
(g3
(S'S10'
p1969
I0
I1
tp1970
Rp1971
(I3
S'|'
p1972
NNNI10
I1
I0
tp1973
bS'Edgar Bori'
p1974
tp1975
Rp1976
ag2
(g22
S'\xf8S\x9a\xa2\x1f\x1a\xdc?'
p1977
tp1978
Rp1979
ag2
(g22
S'cq\xf8\x1f\x00Y\xd5?'
p1980
tp1981
Rp1982
ag2
(g22
S'|\xf2\xb0P\xeb\x89p@'
p1983
tp1984
Rp1985
ag2
(g22
S'\xa2E\xb6\xf3\xfd\xd4\xc8?'
p1986
tp1987
Rp1988
ag2
(g22
S'\xc9v\xbe\x9f\x1a\tp@'
p1989
tp1990
Rp1991
aF0.761
aF0.666
aF0.42
aF0.000296
aF-7.414
aF0.0433
aF118.091
aF0.517
aa(lp1992
g2
(g3
(S'S32'
p1993
I0
I1
tp1994
Rp1995
(I3
S'|'
p1996
NNNI32
I1
I0
tp1997
bS'No More Blues (Chega de Saudade)'
p1998
tp1999
Rp2000
ag2
(g3
(S'S12'
p2001
I0
I1
tp2002
Rp2003
(I3
S'|'
p2004
NNNI12
I1
I0
tp2005
bS'Eliane Elias'
p2006
tp2007
Rp2008
ag2
(g22
S'\x1f\xe2\x1b\x9den\xe5?'
p2009
tp2010
Rp2011
ag2
(g22
S'F1\x12p\xf2b\xdb?'
p2012
tp2013
Rp2014
ag2
(g22
S'7\x8eX\x8b\xcfft@'
p2015
tp2016
Rp2017
ag2
(g22
S'\x00\x00\x00\x00\x00\x00\x00\x00'
p2018
tp2019
Rp2020
ag2
(g22
S'\x02+\x87\x16\xd9\x04s@'
p2021
tp2022
Rp2023
aF0.659
aF0.456
aF0.394
aF0.825
aF-18.609
aF0.0306
aF113.519
aF0.703
aa(lp2024
g2
(g3
(S'S4'
p2025
I0
I1
tp2026
Rp2027
(I3
S'|'
p2028
NNNI4
I1
I0
tp2029
bS'Wave'
p2030
tp2031
Rp2032
ag2
(g3
(S'S10'
p2033
I0
I1
tp2034
Rp2035
(I3
S'|'
p2036
NNNI10
I1
I0
tp2037
bS'Dave Eggar'
p2038
tp2039
Rp2040
ag2
(g22
S'\xf4\xa7\xb6\t\xb8\xd2\xdc?'
p2041
tp2042
Rp2043
ag2
(g22
S'\xae\xefzU\xf0"\xd1?'
p2044
tp2045
Rp2046
ag2
(g22
S'LTo\rl!l@'
p2047
tp2048
Rp2049
ag2
(g22
S'\x9e\xef\xa7\xc6K7\t@'
p2050
tp2051
Rp2052
ag2
(g22
S'\x96C\x8bl\xe7ci@'
p2053
tp2054
Rp2055
aF0.986
aF0.212
aF0.0209
aF0.905
aF-22.091
aF0.0463
aF202.326
aF0.11
aa(lp2056
g2
(g3
(S'S12'
p2057
I0
I1
tp2058
Rp2059
(I3
S'|'
p2060
NNNI12
I1
I0
tp2061
bS"What'd I Say"
p2062
tp2063
Rp2064
ag2
(g3
(S'S13'
p2065
I0
I1
tp2066
Rp2067
(I3
S'|'
p2068
NNNI13
I1
I0
tp2069
bS'Donnie Brooks'
p2070
tp2071
Rp2072
ag2
(g22
S'e\x9exU9\xd2\xd8?'
p2073
tp2074
Rp2075
ag2
(g22
S'\xd0"m(n?\xd1?'
p2076
tp2077
Rp2078
ag2
(g22
S'\xa7\xae|\x96\xe7\xcae@'
p2079
tp2080
Rp2081
ag2
(g22
S'X9\xb4\xc8v\xbe\xaf?'
p2082
tp2083
Rp2084
ag2
(g22
S'\x8bl\xe7\xfb\xa9\x85d@'
p2085
tp2086
Rp2087
aF0.37
aF0.642
aF0.849
aF0.000397
aF-9.969
aF0.142
aF113.201
aF0.762
aa(lp2088
g2
(g3
(S'S30'
p2089
I0
I1
tp2090
Rp2091
(I3
S'|'
p2092
NNNI30
I1
I0
tp2093
bS"Ja (Hanno's Poppersmonstermix)"
p2094
tp2095
Rp2096
ag2
(g3
(S'S12'
p2097
I0
I1
tp2098
Rp2099
(I3
S'|'
p2100
NNNI12
I1
I0
tp2101
bS'2raumwohnung'
p2102
tp2103
Rp2104
ag2
(g22
S'T\xc1\xcaI\x13D\xe5?'
p2105
tp2106
Rp2107
ag2
(g22
S'-\xf1\x93\xbe\xc7q\xd9?'
p2108
tp2109
Rp2110
ag2
(g22
S'\xcdX4\x9d\x9d]v@'
p2111
tp2112
Rp2113
ag2
(g22
S'\x00\x00\x00\x00\x00\x00\x00\x00'
p2114
tp2115
Rp2116
ag2
(g22
S'h\x91\xed|?ku@'
p2117
tp2118
Rp2119
aF0.0881
aF0.815
aF0.416
aF0.647
aF-9.413
aF0.056
aF126.004
aF0.328
aa(lp2120
g2
(g3
(S'S21'
p2121
I0
I1
tp2122
Rp2123
(I3
S'|'
p2124
NNNI21
I1
I0
tp2125
bS'Winter (Four Seasons)'
p2126
tp2127
Rp2128
ag2
(g3
(S'S6'
p2129
I0
I1
tp2130
Rp2131
(I3
S'|'
p2132
NNNI6
I1
I0
tp2133
bS'Ulytau'
p2134
tp2135
Rp2136
ag2
(g22
S'\x8a\xad=\xf7(\x05\xdc?'
p2137
tp2138
Rp2139
ag2
(g22
S'\x88\x1es\xd2\x12\x84\xd5?'
p2140
tp2141
Rp2142
ag2
(g22
S'&p\xebn\x9e8m@'
p2143
tp2144
Rp2145
ag2
(g22
S'R\xb8\x1e\x85\xebQ\xd8?'
p2146
tp2147
Rp2148
ag2
(g22
S'\n\xd7\xa3p=\xbal@'
p2149
tp2150
Rp2151
aF0.048
aF0.554
aF0.737
aF0.729
aF-5.389
aF0.0324
aF140.066
aF0.571
aa(lp2152
g2
(g3
(S'S10'
p2153
I0
I1
tp2154
Rp2155
(I3
S'|'
p2156
NNNI10
I1
I0
tp2157
bS'Hallelujah'
p2158
tp2159
Rp2160
ag2
(g3
(S'S10'
p2161
I0
I1
tp2162
Rp2163
(I3
S'|'
p2164
NNNI10
I1
I0
tp2165
bS'The Nelons'
p2166
tp2167
Rp2168
ag2
(g22
S'\xd82\x97\xe52j\xd8?'
p2169
tp2170
Rp2171
ag2
(g22
S'\xda}/?\xe7i\xd6?'
p2172
tp2173
Rp2174
ag2
(g22
S'X9\xb4\xc8v\x06i@'
p2175
tp2176
Rp2177
ag2
(g22
S'\x00\x00\x00\x00\x00\x00\x00\x00'
p2178
tp2179
Rp2180
ag2
(g22
S'X9\xb4\xc8v\x06i@'
p2181
tp2182
Rp2183
aF0.949
aF0.447
aF0.203
aI0
aF-8.187
aF0.0393
aF113.582
aF0.293
aa(lp2184
g2
(g3
(S'S16'
p2185
I0
I1
tp2186
Rp2187
(I3
S'|'
p2188
NNNI16
I1
I0
tp2189
bS'Creeper Kamikaze'
p2190
tp2191
Rp2192
ag2
(g3
(S'S9'
p2193
I0
I1
tp2194
Rp2195
(I3
S'|'
p2196
NNNI9
I1
I0
tp2197
bS'The Exies'
p2198
tp2199
Rp2200
ag2
(g22
S'\xc8&`J]\x7f\xe9?'
p2201
tp2202
Rp2203
ag2
(g22
S'\x15\x8d\xb0\xea5\x02\xdd?'
p2204
tp2205
Rp2206
ag2
(g22
S'p\x08Uj\xf6;i@'
p2207
tp2208
Rp2209
ag2
(g22
S'\x00\x00\x00\x00\x00\x00\x00\x00'
p2210
tp2211
Rp2212
ag2
(g22
S'q=\n\xd7\xa3\x0cg@'
p2213
tp2214
Rp2215
aF0.0176
aF0.471
aF0.765
aI0
aF-4.83
aF0.0335
aF113.034
aF0.293
aa(lp2216
g2
(g3
(S'S5'
p2217
I0
I1
tp2218
Rp2219
(I3
S'|'
p2220
NNNI5
I1
I0
tp2221
bS'Error'
p2222
tp2223
Rp2224
ag2
(g3
(S'S13'
p2225
I0
I1
tp2226
Rp2227
(I3
S'|'
p2228
NNNI13
I1
I0
tp2229
bS'Babylon Disco'
p2230
tp2231
Rp2232
ag2
(g22
S'ry\x80\xf6\xac\xfd\xdc?'
p2233
tp2234
Rp2235
ag2
(g22
S'YG\xe2\xda\x81\xff\xd4?'
p2236
tp2237
Rp2238
ag2
(g22
S'\xf9f\x9b\x1b\xd3\x1cj@'
p2239
tp2240
Rp2241
ag2
(g22
S'\x00\x00\x00\x00\x00\x00\x00\x00'
p2242
tp2243
Rp2244
ag2
(g22
S"'1\x08\xac\x1c\xb2i@"
p2245
tp2246
Rp2247
aF0.000142
aF0.257
aF0.797
aF0.893
aF-11.055
aF0.11
aF179.966
aF0.0649
aa(lp2248
g2
(g3
(S'S14'
p2249
I0
I1
tp2250
Rp2251
(I3
S'|'
p2252
NNNI14
I1
I0
tp2253
bS'Fausse monnaie'
p2254
tp2255
Rp2256
ag2
(g3
(S'S10'
p2257
I0
I1
tp2258
Rp2259
(I3
S'|'
p2260
NNNI10
I1
I0
tp2261
bS'Gus Viseur'
p2262
tp2263
Rp2264
ag2
(g22
S'\xbc1\x17euz\xdb?'
p2265
tp2266
Rp2267
ag2
(g22
S'\xac\xea\x13\x92O\xc7\xd1?'
p2268
tp2269
Rp2270
ag2
(g22
S'nQf\x83L\x80f@'
p2271
tp2272
Rp2273
ag2
(g22
S'\n\xd7\xa3p=\n\xeb?'
p2274
tp2275
Rp2276
ag2
(g22
S'\xb6\xf3\xfd\xd4x\xede@'
p2277
tp2278
Rp2279
aF0.949
aF0.65
aF0.38
aF0.505
aF-10.342
aF0.0733
aF178.836
aF0.85
aa(lp2280
g2
(g3
(S'S16'
p2281
I0
I1
tp2282
Rp2283
(I3
S'|'
p2284
NNNI16
I1
I0
tp2285
bS'Chariots Of Fire'
p2286
tp2287
Rp2288
ag2
(g3
(S'S4'
p2289
I0
I1
tp2290
Rp2291
(I3
S'|'
p2292
NNNI4
I1
I0
tp2293
bS'Dino'
p2294
tp2295
Rp2296
ag2
(g22
S'\x01b\xcc\xbb2\x8e\xe4?'
p2297
tp2298
Rp2299
ag2
(g22
S'\x85+\xa0\x00w:\xda?'
p2300
tp2301
Rp2302
ag2
(g22
S'\xe1E_A\x9a\xacn@'
p2303
tp2304
Rp2305
ag2
(g22
S'\x06\x81\x95C\x8bl\xc7?'
p2306
tp2307
Rp2308
ag2
(g22
S'\xc5 \xb0rh\xb5l@'
p2309
tp2310
Rp2311
aF0.524
aF0.476
aF0.155
aF0.918
aF-20.471
aF0.0346
aF125.191
aF0.0474
aa(lp2312
g2
(g3
(S'S18'
p2313
I0
I1
tp2314
Rp2315
(I3
S'|'
p2316
NNNI18
I1
I0
tp2317
bS'I Live to Be Hated'
p2318
tp2319
Rp2320
ag2
(g3
(S'S8'
p2321
I0
I1
tp2322
Rp2323
(I3
S'|'
p2324
NNNI8
I1
I0
tp2325
bS'GG Allin'
p2326
tp2327
Rp2328
ag2
(g22
S'b\x0c\xe5\xf6Z<\xe4?'
p2329
tp2330
Rp2331
ag2
(g22
S'\x9d\xb8\x19G\xd3\x98\xd8?'
p2332
tp2333
Rp2334
ag2
(g22
S'\xdb\xc4\xc9\xfd\x0em^@'
p2335
tp2336
Rp2337
ag2
(g22
S'\x00\x00\x00\x00\x00\x00\x00\x00'
p2338
tp2339
Rp2340
ag2
(g22
S'\xfc\xa9\xf1\xd2M\x12]@'
p2341
tp2342
Rp2343
aF0.876
aF0.277
aF0.649
aF0.719
aF-7.679
aF0.0466
aF139.982
aF0.451
aa(lp2344
g2
(g3
(S'S19'
p2345
I0
I1
tp2346
Rp2347
(I3
S'|'
p2348
NNNI19
I1
I0
tp2349
bS'The Majesty Of Rock'
p2350
tp2351
Rp2352
ag2
(g3
(S'S10'
p2353
I0
I1
tp2354
Rp2355
(I3
S'|'
p2356
NNNI10
I1
I0
tp2357
bS'Spinal Tap'
p2358
tp2359
Rp2360
ag2
(g22
S'C]12~I\xe0?'
p2361
tp2362
Rp2363
ag2
(g22
S'1DrY\xe9\xe4\xd5?'
p2364
tp2365
Rp2366
ag2
(g22
S'\x17\xbc\xe8+Hmm@'
p2367
tp2368
Rp2369
ag2
(g22
S'\xc9v\xbe\x9f\x1a/\xdd?'
p2370
tp2371
Rp2372
ag2
(g22
S'fffff\xc2l@'
p2373
tp2374
Rp2375
aF0.000487
aF0.514
aF0.949
aF0.0601
aF-4.904
aF0.109
aF128.052
aF0.464
aa(lp2376
g2
(g3
(S'S21'
p2377
I0
I1
tp2378
Rp2379
(I3
S'|'
p2380
NNNI21
I1
I0
tp2381
bS'Blaue Matrosen (live)'
p2382
tp2383
Rp2384
ag2
(g3
(S'S15'
p2385
I0
I1
tp2386
Rp2387
(I3
S'|'
p2388
NNNI15
I1
I0
tp2389
bS'Der Moderne Man'
p2390
tp2391
Rp2392
ag2
(g22
S'~\x86c\x15t\xd1\xda?'
p2393
tp2394
Rp2395
ag2
(g22
S'\xf0\xb1O\xe7\xa3\xd0\xd2?'
p2396
tp2397
Rp2398
ag2
(g22
S'\x8f\xc7\x0cT\xc6\xf1c@'
p2399
tp2400
Rp2401
ag2
(g22
S'\x00\x00\x00\x00\x00\x00\x00\x00'
p2402
tp2403
Rp2404
ag2
(g22
S'\xf6(\\\x8f\xc2\xf1c@'
p2405
tp2406
Rp2407
aF0.795
aF0.322
aF0.713
aI0
aF-8.703
aF0.0743
aF104.841
aF0.464
aa(lp2408
g2
(g3
(S'S13'
p2409
I0
I1
tp2410
Rp2411
(I3
S'|'
p2412
NNNI13
I1
I0
tp2413
bS'Strange Thing'
p2414
tp2415
Rp2416
ag2
(g3
(S'S9'
p2417
I0
I1
tp2418
Rp2419
(I3
S'|'
p2420
NNNI9
I1
I0
tp2421
bS'Buzzcocks'
p2422
tp2423
Rp2424
ag2
(g22
S'\xfc>\xac\x04\x0fj\xe6?'
p2425
tp2426
Rp2427
ag2
(g22
S'\xdd\xa2\x93\xec\xe3\xeb\xe0?'
p2428
tp2429
Rp2430
ag2
(g22
S'*oG8-fk@'
p2431
tp2432
Rp2433
ag2
(g22
S'\x00\x00\x00\x00\x00\x00\x00\x00'
p2434
tp2435
Rp2436
ag2
(g22
S'\x85\xebQ\xb8\x1e\x8dj@'
p2437
tp2438
Rp2439
aF3.54e-06
aF0.297
aF0.96
aF0.543
aF-7.103
aF0.0695
aF168.625
aF0.462
aa(lp2440
g2
(g3
(S'S15'
p2441
I0
I1
tp2442
Rp2443
(I3
S'|'
p2444
NNNI15
I1
I0
tp2445
bS'Journey To Love'
p2446
tp2447
Rp2448
ag2
(g3
(S'S14'
p2449
I0
I1
tp2450
Rp2451
(I3
S'|'
p2452
NNNI14
I1
I0
tp2453
bS'Stanley Clarke'
p2454
tp2455
Rp2456
ag2
(g22
S'1[\xa9\xe4`\r\xe5?'
p2457
tp2458
Rp2459
ag2
(g22
S'\xf1\x83\xafI\xb2\xc0\xdd?'
p2460
tp2461
Rp2462
ag2
(g22
S'4\xd7i\xa4%\xabq@'
p2463
tp2464
Rp2465
ag2
(g22
S'\x1b/\xdd$\x06\x81\x03@'
p2466
tp2467
Rp2468
ag2
(g22
S'=\n\xd7\xa3pYp@'
p2469
tp2470
Rp2471
aF0.6
aF0.623
aF0.346
aF0.286
aF-15.779
aF0.0342
aF126.267
aF0.468
aa(lp2472
g2
(g3
(S'S10'
p2473
I0
I1
tp2474
Rp2475
(I3
S'|'
p2476
NNNI10
I1
I0
tp2477
bS'Alguna Vez'
p2478
tp2479
Rp2480
ag2
(g3
(S'S12'
p2481
I0
I1
tp2482
Rp2483
(I3
S'|'
p2484
NNNI12
I1
I0
tp2485
bS'La Portuaria'
p2486
tp2487
Rp2488
ag2
(g22
S'`SC\xe4\x7f\xbb\xe0?'
p2489
tp2490
Rp2491
ag2
(g22
S'\xe1\n\xf3\xac\xe6\x90\xd3?'
p2492
tp2493
Rp2494
ag2
(g22
S'nQf\x83L\x80b@'
p2495
tp2496
Rp2497
ag2
(g22
S'\x87\x16\xd9\xce\xf7S\xdb?'
p2498
tp2499
Rp2500
ag2
(g22
S'\xdfO\x8d\x97n\x0eb@'
p2501
tp2502
Rp2503
aF0.0095
aF0.593
aF0.77
aF0.226
aF-14.145
aF0.039
aF112.04
aF0.957
aa(lp2504
g2
(g3
(S'S13'
p2505
I0
I1
tp2506
Rp2507
(I3
S'|'
p2508
NNNI13
I1
I0
tp2509
bS'Rotting Fumes'
p2510
tp2511
Rp2512
ag2
(g3
(S'S7'
p2513
I0
I1
tp2514
Rp2515
(I3
S'|'
p2516
NNNI7
I1
I0
tp2517
bS'Hemdale'
p2518
tp2519
Rp2520
ag2
(g22
S'\xd1y\xe3w\xcd\xa9\xdc?'
p2521
tp2522
Rp2523
ag2
(g22
S"5D\xf3'\x8a\xc3\xd4?"
p2524
tp2525
Rp2526
ag2
(g22
S'\x82\x8b\x155\x98\xe4Z@'
p2527
tp2528
Rp2529
ag2
(g22
S'\x00\x00\x00\x00\x00\x00\x00\x00'
p2530
tp2531
Rp2532
ag2
(g22
S'\xe9&1\x08\xacLZ@'
p2533
tp2534
Rp2535
aF0.000703
aF0.32
aF0.606
aF0.873
aF-9.987
aF0.255
aF171.983
aF0.218
aa(lp2536
g2
(g3
(S'S11'
p2537
I0
I1
tp2538
Rp2539
(I3
S'|'
p2540
NNNI11
I1
I0
tp2541
bS'Revelations'
p2542
tp2543
Rp2544
ag2
(g3
(S'S36'
p2545
I0
I1
tp2546
Rp2547
(I3
S'|'
p2548
NNNI36
I1
I0
tp2549
bS'Jesse Malin and The St. Marks Social'
p2550
tp2551
Rp2552
ag2
(g22
S'\xbe\xe5+zL)\xe8?'
p2553
tp2554
Rp2555
ag2
(g22
S'p\xdeK]\x92Y\xdd?'
p2556
tp2557
Rp2558
ag2
(g22
S'\xc9v\xbe\x9f\x1awn@'
p2559
tp2560
Rp2561
ag2
(g22
S'\x1f\x85\xebQ\xb8\x1e\xc5?'
p2562
tp2563
Rp2564
ag2
(g22
S'R\xb8\x1e\x85\xeb\xf1m@'
p2565
tp2566
Rp2567
aF0.0145
aF0.475
aF0.925
aF0.000167
aF-4.79
aF0.0525
aF126.028
aF0.376
aa(lp2568
g2
(g3
(S'S11'
p2569
I0
I1
tp2570
Rp2571
(I3
S'|'
p2572
NNNI11
I1
I0
tp2573
bS"It's Not Me"
p2574
tp2575
Rp2576
ag2
(g3
(S'S12'
p2577
I0
I1
tp2578
Rp2579
(I3
S'|'
p2580
NNNI12
I1
I0
tp2581
bS'3 Doors Down'
p2582
tp2583
Rp2584
ag2
(g22
S'O2\xbc\x88\xd2\xe4\xea?'
p2585
tp2586
Rp2587
ag2
(g22
S'\x0e\xce\xde\xef\xb0{\xe3?'
p2588
tp2589
Rp2590
ag2
(g22
S'm\x1c\xb1\x16\x9f\xcdl@'
p2591
tp2592
Rp2593
ag2
(g22
S'\x89A`\xe5\xd0"\xcb?'
p2594
tp2595
Rp2596
ag2
(g22
S'\x8bl\xe7\xfb\xa9\x05l@'
p2597
tp2598
Rp2599
aF0.00243
aF0.501
aF0.795
aF0.000649
aF-4.087
aF0.0364
aF87.107
aF0.374
aa(lp2600
g2
(g3
(S'S24'
p2601
I0
I1
tp2602
Rp2603
(I3
S'|'
p2604
NNNI24
I1
I0
tp2605
bS"Ma Rainey's Black Bottom"
p2606
tp2607
Rp2608
ag2
(g3
(S'S9'
p2609
I0
I1
tp2610
Rp2611
(I3
S'|'
p2612
NNNI9
I1
I0
tp2613
bS'Ma Rainey'
p2614
tp2615
Rp2616
ag2
(g22
S'q\xb2\xb9\x87@:\xe0?'
p2617
tp2618
Rp2619
ag2
(g22
S'[\xae\x97g#\xad\xd8?'
p2620
tp2621
Rp2622
ag2
(g22
S'\xdc\x9d\xb5\xdb.\x9eg@'
p2623
tp2624
Rp2625
ag2
(g22
S'\xbe\x9f\x1a/\xdd$\xd6?'
p2626
tp2627
Rp2628
ag2
(g22
S'\x19\x04V\x0e-\x9eg@'
p2629
tp2630
Rp2631
aF0.99
aF0.683
aF0.208
aF0.0178
aF-11.837
aF0.0638
aF98.94
aF0.79
aa(lp2632
g2
(g3
(S'S9'
p2633
I0
I1
tp2634
Rp2635
(I3
S'|'
p2636
NNNI9
I1
I0
tp2637
bS'I Want It'
p2638
tp2639
Rp2640
ag2
(g3
(S'S11'
p2641
I0
I1
tp2642
Rp2643
(I3
S'|'
p2644
NNNI11
I1
I0
tp2645
bS'Zombie Girl'
p2646
tp2647
Rp2648
ag2
(g22
S'\xd3P9\xd3\nt\xe4?'
p2649
tp2650
Rp2651
ag2
(g22
S'\xf6]\x0e\xe0\x97`\xdc?'
p2652
tp2653
Rp2654
ag2
(g22
S'\x9c3\xa2\xb4\xb7Hp@'
p2655
tp2656
Rp2657
ag2
(g22
S'\xe3\xa5\x9b\xc4 \xb0\xb2?'
p2658
tp2659
Rp2660
ag2
(g22
S'J\x0c\x02+\x87\x86o@'
p2661
tp2662
Rp2663
aF0.0531
aF0.514
aF0.959
aF0.33
aF-5.517
aF0.0422
aF129.991
aF0.408
aa(lp2664
g2
(g3
(S'S36'
p2665
I0
I1
tp2666
Rp2667
(I3
S'|'
p2668
NNNI36
I1
I0
tp2669
bS"Story Of An Artist (Don't Be Scared)"
p2670
tp2671
Rp2672
ag2
(g3
(S'S15'
p2673
I0
I1
tp2674
Rp2675
(I3
S'|'
p2676
NNNI15
I1
I0
tp2677
bS'Daniel Johnston'
p2678
tp2679
Rp2680
ag2
(g22
S'*\xc8]\xf7\x88\xd3\xe6?'
p2681
tp2682
Rp2683
ag2
(g22
S'\xfe\x94\xd4\xb1\xadO\xde?'
p2684
tp2685
Rp2686
ag2
(g22
S'\x85\xcek\xec\x92xs@'
p2687
tp2688
Rp2689
ag2
(g22
S'y\xe9&1\x08\xac\xbc?'
p2690
tp2691
Rp2692
ag2
(g22
S'1\x08\xac\x1cZ s@'
p2693
tp2694
Rp2695
aF0.985
aF0.421
aF0.371
aF0.0153
aF-9.701
aF0.039
aF103.574
aF0.652
aa(lp2696
g2
(g3
(S'S10'
p2697
I0
I1
tp2698
Rp2699
(I3
S'|'
p2700
NNNI10
I1
I0
tp2701
bS'Murder One'
p2702
tp2703
Rp2704
ag2
(g3
(S'S20'
p2705
I0
I1
tp2706
Rp2707
(I3
S'|'
p2708
NNNI20
I1
I0
tp2709
bS'Bone Thugs-N-Harmony'
p2710
tp2711
Rp2712
ag2
(g22
S'\xb6T\xcdn\x0b\x1c\xea?'
p2713
tp2714
Rp2715
ag2
(g22
S'\x00@-q\xb1\xc3\xe1?'
p2716
tp2717
Rp2718
ag2
(g22
S'r\xbfCQ\xa0\xf7o@'
p2719
tp2720
Rp2721
ag2
(g22
S'+\x87\x16\xd9\xce\xf7\xc3?'
p2722
tp2723
Rp2724
ag2
(g22
S'\xaa\xf1\xd2Mb\x80o@'
p2725
tp2726
Rp2727
aF0.32
aF0.734
aF0.672
aI0
aF-4.732
aF0.0908
aF75.986
aF0.447
aa(lp2728
g2
(g3
(S'S28'
p2729
I0
I1
tp2730
Rp2731
(I3
S'|'
p2732
NNNI28
I1
I0
tp2733
bS'I Destructor (Lenny Dee Mix)'
p2734
tp2735
Rp2736
ag2
(g3
(S'S13'
p2737
I0
I1
tp2738
Rp2739
(I3
S'|'
p2740
NNNI13
I1
I0
tp2741
bS'Ultraviolence'
p2742
tp2743
Rp2744
ag2
(g22
S'b\x95\x08\x13\x01\xff\xdf?'
p2745
tp2746
Rp2747
ag2
(g22
S'\xb2V\x7f\xbe\xfa\xf6\xd7?'
p2748
tp2749
Rp2750
ag2
(g22
S'\x1em\x1c\xb1\x96\xf6v@'
p2751
tp2752
Rp2753
ag2
(g22
S'+\x87\x16\xd9\xce\xf7\xb3?'
p2754
tp2755
Rp2756
ag2
(g22
S'?5^\xbaIXv@'
p2757
tp2758
Rp2759
aF0.0066
aF0.531
aF0.823
aF0.898
aF-9.167
aF0.0766
aF174.533
aF0.0393
aa(lp2760
g2
(g3
(S'S22'
p2761
I0
I1
tp2762
Rp2763
(I3
S'|'
p2764
NNNI22
I1
I0
tp2765
bS'D Shuffle Jam (Part 2)'
p2766
tp2767
Rp2768
ag2
(g3
(S'S17'
p2769
I0
I1
tp2770
Rp2771
(I3
S'|'
p2772
NNNI17
I1
I0
tp2773
bS'Christian McBride'
p2774
tp2775
Rp2776
ag2
(g22
S'\xb8Z\x08\nm\xcb\xe2?'
p2777
tp2778
Rp2779
ag2
(g22
S'_\xde&u\xfd\xf7\xda?'
p2780
tp2781
Rp2782
ag2
(g22
S'\x16\xde\xe5"~\xa0\x85@'
p2783
tp2784
Rp2785
ag2
(g22
S'\x00\x00\x00\x00\x00\x00\x00\x00'
p2786
tp2787
Rp2788
ag2
(g22
S'\xbaI\x0c\x02+G\x85@'
p2789
tp2790
Rp2791
aF0.0932
aF0.663
aF0.492
aF0.237
aF-9.416
aF0.204
aF121.907
aF0.587
aa(lp2792
g2
(g3
(S'S16'
p2793
I0
I1
tp2794
Rp2795
(I3
S'|'
p2796
NNNI16
I1
I0
tp2797
bS'On My Feet Again'
p2798
tp2799
Rp2800
ag2
(g3
(S'S6'
p2801
I0
I1
tp2802
Rp2803
(I3
S'|'
p2804
NNNI6
I1
I0
tp2805
bS'Utopia'
p2806
tp2807
Rp2808
ag2
(g22
S'o-\xae\xa0\xedg\xe1?'
p2809
tp2810
Rp2811
ag2
(g22
S"'\x9c\x8e.\n\x8a\xdb?"
p2812
tp2813
Rp2814
ag2
(g22
S' \xd2o_\x07\xf3m@'
p2815
tp2816
Rp2817
ag2
(g22
S'\x98n\x12\x83\xc0\xca\xd9?'
p2818
tp2819
Rp2820
ag2
(g22
S'\xf6(\\\x8f\xc2\xf9l@'
p2821
tp2822
Rp2823
aF0.0571
aF0.465
aF0.865
aF0.002
aF-9.989
aF0.0595
aF114.31
aF0.83
aa(lp2824
g2
(g3
(S'S7'
p2825
I0
I1
tp2826
Rp2827
(I3
S'|'
p2828
NNNI7
I1
I0
tp2829
bS'If I...'
p2830
tp2831
Rp2832
ag2
(g3
(S'S10'
p2833
I0
I1
tp2834
Rp2835
(I3
S'|'
p2836
NNNI10
I1
I0
tp2837
bS'Foxy Brown'
p2838
tp2839
Rp2840
ag2
(g22
S'Q\x0f\xb6/\x89\x01\xe6?'
p2841
tp2842
Rp2843
ag2
(g22
S'u\x9d<"%\x07\xda?'
p2844
tp2845
Rp2846
ag2
(g22
S'[\xeb\x8b\x84\xb6\xddk@'
p2847
tp2848
Rp2849
ag2
(g22
S'\x00\x00\x00\x00\x00\x00\x00\x00'
p2850
tp2851
Rp2852
ag2
(g22
S'\x9a\x99\x99\x99\x99\tk@'
p2853
tp2854
Rp2855
aF0.125
aF0.889
aF0.562
aI0
aF-10.487
aF0.27
aF93.021
aF0.484
aa(lp2856
g2
(g3
(S'S5'
p2857
I0
I1
tp2858
Rp2859
(I3
S'|'
p2860
NNNI5
I1
I0
tp2861
bS'Ju Ju'
p2862
tp2863
Rp2864
ag2
(g3
(S'S23'
p2865
I0
I1
tp2866
Rp2867
(I3
S'|'
p2868
NNNI23
I1
I0
tp2869
bS'String Trio Of New York'
p2870
tp2871
Rp2872
ag2
(g22
S'n\x01\xc4\x97C\x93\xd1?'
p2873
tp2874
Rp2875
ag2
(g22
S'\x00\x00\x00\x00\x00\x00\x00\x00'
p2876
tp2877
Rp2878
ag2
(g22
S'N\xd1\x91\\\xfe\x86x@'
p2879
tp2880
Rp2881
ag2
(g22
S'j\xbct\x93\x18\x84\x1c@'
p2882
tp2883
Rp2884
ag2
(g22
S'\xee|?5^\xd4v@'
p2885
tp2886
Rp2887
aF0.482
aF0.591
aF0.177
aF0.707
aF-18.24
aF0.0822
aF99.294
aF0.409
aa(lp2888
g2
(g3
(S'S17'
p2889
I0
I1
tp2890
Rp2891
(I3
S'|'
p2892
NNNI17
I1
I0
tp2893
bS'Deep Sea Creature'
p2894
tp2895
Rp2896
ag2
(g3
(S'S8'
p2897
I0
I1
tp2898
Rp2899
(I3
S'|'
p2900
NNNI8
I1
I0
tp2901
bS'Mastodon'
p2902
tp2903
Rp2904
ag2
(g22
S'\xec\xd7\xd8\xea\x8a\xf9\xe8?'
p2905
tp2906
Rp2907
ag2
(g22
S'\xca\xa6Ofu`\xe2?'
p2908
tp2909
Rp2910
ag2
(g22
S'\xd8*\xc1\xe2p\x83q@'
p2911
tp2912
Rp2913
ag2
(g22
S'\x10X9\xb4\xc8v\xce?'
p2914
tp2915
Rp2916
ag2
(g22
S'\x9c\xc4 \xb0r8q@'
p2917
tp2918
Rp2919
aF6.53e-06
aF0.269
aF0.993
aF0.134
aF-3.219
aF0.171
aF87.795
aF0.218
aa(lp2920
g2
(g3
(S'S7'
p2921
I0
I1
tp2922
Rp2923
(I3
S'|'
p2924
NNNI7
I1
I0
tp2925
bS'Theresa'
p2926
tp2927
Rp2928
ag2
(g3
(S'S8'
p2929
I0
I1
tp2930
Rp2931
(I3
S'|'
p2932
NNNI8
I1
I0
tp2933
bS'Portable'
p2934
tp2935
Rp2936
ag2
(g22
S'\xba\xbc&\x7f\x1c\r\xe1?'
p2937
tp2938
Rp2939
ag2
(g22
S'\x86\xd3\x12|6c\xd3?'
p2940
tp2941
Rp2942
ag2
(g22
S';\x19\x1c%\xaf\xa9v@'
p2943
tp2944
Rp2945
ag2
(g22
S'\x91\xed|?5^\xba?'
p2946
tp2947
Rp2948
ag2
(g22
S'H\xe1z\x14\xae\xf1t@'
p2949
tp2950
Rp2951
aF0.0437
aF0.912
aF0.308
aF0.771
aF-18.026
aF0.34
aF115.957
aF0.486
aa(lp2952
g2
(g3
(S'S9'
p2953
I0
I1
tp2954
Rp2955
(I3
S'|'
p2956
NNNI9
I1
I0
tp2957
bS'Danny Boy'
p2958
tp2959
Rp2960
ag2
(g3
(S'S12'
p2961
I0
I1
tp2962
Rp2963
(I3
S'|'
p2964
NNNI12
I1
I0
tp2965
bS'Hank Locklin'
p2966
tp2967
Rp2968
ag2
(g22
S'\xfe\xe8C\x1c\x1fX\xe4?'
p2969
tp2970
Rp2971
ag2
(g22
S'8\xa1\xaa\x02\xb2H\xd8?'
p2972
tp2973
Rp2974
ag2
(g22
S'\x8f\x8d@\xbc\xaeZb@'
p2975
tp2976
Rp2977
ag2
(g22
S'!\xb0rh\x91\xed\x01@'
p2978
tp2979
Rp2980
ag2
(g22
S'\xb4\xc8v\xbe\x9f\x96a@'
p2981
tp2982
Rp2983
aF0.87
aF0.33
aF0.231
aF1.08e-05
aF-11.016
aF0.027
aF91.729
aF0.356
aa(lp2984
g2
(g3
(S'S19'
p2985
I0
I1
tp2986
Rp2987
(I3
S'|'
p2988
NNNI19
I1
I0
tp2989
bS'Pak shte te obicham'
p2990
tp2991
Rp2992
ag2
(g3
(S'S12'
p2993
I0
I1
tp2994
Rp2995
(I3
S'|'
p2996
NNNI12
I1
I0
tp2997
bS'Lili Ivanova'
p2998
tp2999
Rp3000
ag2
(g22
S'\\\xcb\xe6|#\x96\xd6?'
p3001
tp3002
Rp3003
ag2
(g22
S')U\n~\xd7\x9c\xd1?'
p3004
tp3005
Rp3006
ag2
(g22
S'\x93\x005\xb5l\xb6o@'
p3007
tp3008
Rp3009
ag2
(g22
S'\x00\x00\x00\x00\x00\x00\x00\x00'
p3010
tp3011
Rp3012
ag2
(g22
S'\x91\xed|?5Vo@'
p3013
tp3014
Rp3015
aF0.0887
aF0.777
aF0.873
aF1.38e-06
aF-6.044
aF0.0426
aF123.996
aF0.898
aa(lp3016
g2
(g3
(S'S9'
p3017
I0
I1
tp3018
Rp3019
(I3
S'|'
p3020
NNNI9
I1
I0
tp3021
bS'Old Broom'
p3022
tp3023
Rp3024
ag2
(g3
(S'S13'
p3025
I0
I1
tp3026
Rp3027
(I3
S'|'
p3028
NNNI13
I1
I0
tp3029
bS'Wailing Souls'
p3030
tp3031
Rp3032
ag2
(g22
S'\xdb\xaa\x83\xf6\x01\xfc\xe2?'
p3033
tp3034
Rp3035
ag2
(g22
S'\xa6m<\xbd\xfa\xcf\xd7?'
p3036
tp3037
Rp3038
ag2
(g22
S'\xea!\x1a\xddA\x9bi@'
p3039
tp3040
Rp3041
ag2
(g22
S'T\xe3\xa5\x9b\xc4 \xe4?'
p3042
tp3043
Rp3044
ag2
(g22
S'\xa4p=\n\xd73h@'
p3045
tp3046
Rp3047
aF0.0274
aF0.84
aF0.371
aF0.000246
aF-13.48
aF0.134
aF145.884
aF0.865
aa(lp3048
g2
(g3
(S'S23'
p3049
I0
I1
tp3050
Rp3051
(I3
S'|'
p3052
NNNI23
I1
I0
tp3053
bS'Good Looking Girl Blues'
p3054
tp3055
Rp3056
ag2
(g3
(S'S11'
p3057
I0
I1
tp3058
Rp3059
(I3
S'|'
p3060
NNNI11
I1
I0
tp3061
bS'Furry Lewis'
p3062
tp3063
Rp3064
ag2
(g22
S'\x8e\xd2\x9b\xc7\xecQ\xe2?'
p3065
tp3066
Rp3067
ag2
(g22
S'\xc9\x15\xe6\x862\x8e\xd7?'
p3068
tp3069
Rp3070
ag2
(g22
S"'f\xbd\x18\xcaoe@"
p3071
tp3072
Rp3073
ag2
(g22
S'\xb6\xf3\xfd\xd4x\xe9\xc6?'
p3074
tp3075
Rp3076
ag2
(g22
S'\xb2\x9d\xef\xa7\xc6oe@'
p3077
tp3078
Rp3079
aF0.979
aF0.581
aF0.197
aF0.000107
aF-11.41
aF0.0438
aF137.371
aF0.381
aa(lp3080
g2
(g3
(S'S11'
p3081
I0
I1
tp3082
Rp3083
(I3
S'|'
p3084
NNNI11
I1
I0
tp3085
bS'Cajun Blood'
p3086
tp3087
Rp3088
ag2
(g3
(S'S13'
p3089
I0
I1
tp3090
Rp3091
(I3
S'|'
p3092
NNNI13
I1
I0
tp3093
bS'Jo-El Sonnier'
p3094
tp3095
Rp3096
ag2
(g22
S'\x1c!Y\xfb\xa7\xe1\xdd?'
p3097
tp3098
Rp3099
ag2
(g22
S'w\xac\xce\x15\x97}\xd4?'
p3100
tp3101
Rp3102
ag2
(g22
S'o\rl\x95` m@'
p3103
tp3104
Rp3105
ag2
(g22
S'\xfa~j\xbct\x93\x00@'
p3106
tp3107
Rp3108
ag2
(g22
S'm\xe7\xfb\xa9\xf1\x1ek@'
p3109
tp3110
Rp3111
aF0.219
aF0.347
aF0.526
aF0.000236
aF-5.193
aF0.0431
aF175.705
aF0.24
aa(lp3112
g2
(g3
(S'S8'
p3113
I0
I1
tp3114
Rp3115
(I3
S'|'
p3116
NNNI8
I1
I0
tp3117
bS'Jamboree'
p3118
tp3119
Rp3120
ag2
(g3
(S'S51'
p3121
I0
I1
tp3122
Rp3123
(I3
S'|'
p3124
NNNI51
I1
I0
tp3125
bS'Naughty By Nature;Naughty By Nature featuring Zhane'
p3126
tp3127
Rp3128
ag2
(g22
S'o\x97\xa0,\x7f\xc0\xe5?'
p3129
tp3130
Rp3131
ag2
(g22
S'B\xf5\\\x88\xa0Y\xdd?'
p3132
tp3133
Rp3134
ag2
(g22
S'S?o*R\xbdj@'
p3135
tp3136
Rp3137
ag2
(g22
S'sh\x91\xed|?\xc5?'
p3138
tp3139
Rp3140
ag2
(g22
S'\xbaI\x0c\x02+ci@'
p3141
tp3142
Rp3143
aF0.102
aF0.862
aF0.642
aI0
aF-13.652
aF0.101
aF99.201
aF0.765
aa(lp3144
g2
(g3
(S'S16'
p3145
I0
I1
tp3146
Rp3147
(I3
S'|'
p3148
NNNI16
I1
I0
tp3149
bS'Poikamies (2009)'
p3150
tp3151
Rp3152
ag2
(g3
(S'S12'
p3153
I0
I1
tp3154
Rp3155
(I3
S'|'
p3156
NNNI12
I1
I0
tp3157
bS'Murskahumppa'
p3158
tp3159
Rp3160
ag2
(g22
S'\xf6\xc5y\x87\x9e\xe5\xdb?'
p3161
tp3162
Rp3163
ag2
(g22
S"\x9f}\xd3.\x88'\xd1?"
p3164
tp3165
Rp3166
ag2
(g22
S'\xfaa\x84\xf0h8b@'
p3167
tp3168
Rp3169
ag2
(g22
S'\x00\x00\x00\x00\x00\x00\x00\x00'
p3170
tp3171
Rp3172
ag2
(g22
S'\x06\x81\x95C\x8b\xe8a@'
p3173
tp3174
Rp3175
aF0.000193
aF0.283
aF0.858
aF0.647
aF-7.542
aF0.0528
aF130.688
aF0.514
aa(lp3176
g2
(g3
(S'S21'
p3177
I0
I1
tp3178
Rp3179
(I3
S'|'
p3180
NNNI21
I1
I0
tp3181
bS"Til The Victory's Won"
p3182
tp3183
Rp3184
ag2
(g3
(S'S22'
p3185
I0
I1
tp3186
Rp3187
(I3
S'|'
p3188
NNNI22
I1
I0
tp3189
bS'Vanessa Bell Armstrong'
p3190
tp3191
Rp3192
ag2
(g22
S'%\x804=\xec\\\xe2?'
p3193
tp3194
Rp3195
ag2
(g22
S"2\x96\xcc\x05E'\xda?"
p3196
tp3197
Rp3198
ag2
(g22
S'c\xb9\xa5\xd5\x90\xf1l@'
p3199
tp3200
Rp3201
ag2
(g22
S'+\x87\x16\xd9\xce\xf7\xb3?'
p3202
tp3203
Rp3204
ag2
(g22
S'9\xb4\xc8v\xbe3l@'
p3205
tp3206
Rp3207
aF0.0204
aF0.782
aF0.637
aI0
aF-2.133
aF0.0338
aF121.019
aF0.172
aa(lp3208
g2
(g3
(S'S11'
p3209
I0
I1
tp3210
Rp3211
(I3
S'|'
p3212
NNNI11
I1
I0
tp3213
bS'Tell Me Why'
p3214
tp3215
Rp3216
ag2
(g3
(S'S14'
p3217
I0
I1
tp3218
Rp3219
(I3
S'|'
p3220
NNNI14
I1
I0
tp3221
bS'Dave Hollister'
p3222
tp3223
Rp3224
ag2
(g22
S's\xd2\x04\xc9\xf3\x99\xe3?'
p3225
tp3226
Rp3227
ag2
(g22
S'\xddB3\xb8\x13k\xdd?'
p3228
tp3229
Rp3230
ag2
(g22
S'i\x00o\x81\x84\x15s@'
p3231
tp3232
Rp3233
ag2
(g22
S'\x00\x00\x00\x00\x00\x00\x00\x00'
p3234
tp3235
Rp3236
ag2
(g22
S'}?5^\xba5r@'
p3237
tp3238
Rp3239
aF0.3
aF0.486
aF0.574
aI0
aF-7.087
aF0.0436
aF119.751
aF0.3
aa(lp3240
g2
(g3
(S'S7'
p3241
I0
I1
tp3242
Rp3243
(I3
S'|'
p3244
NNNI7
I1
I0
tp3245
bS'Lullaby'
p3246
tp3247
Rp3248
ag2
(g3
(S'S11'
p3249
I0
I1
tp3250
Rp3251
(I3
S'|'
p3252
NNNI11
I1
I0
tp3253
bS'Seamus Egan'
p3254
tp3255
Rp3256
ag2
(g22
S'(J\xf9\x04\x1e\x8a\xde?'
p3257
tp3258
Rp3259
ag2
(g22
S'\x07\xf8\xe9\xef5\xfd\xd4?'
p3260
tp3261
Rp3262
ag2
(g22
S'\xb2\x11\x88\xd7\xf5\xa6i@'
p3263
tp3264
Rp3265
ag2
(g22
S'%\x06\x81\x95C\x8b\xcc?'
p3266
tp3267
Rp3268
ag2
(g22
S'P\x8d\x97n\x12\x7fh@'
p3269
tp3270
Rp3271
aF0.901
aF0.512
aF0.0714
aF0.81
aF-18.277
aF0.038
aF119.275
aF0.231
aa(lp3272
g2
(g3
(S'S7'
p3273
I0
I1
tp3274
Rp3275
(I3
S'|'
p3276
NNNI7
I1
I0
tp3277
bS'Love Me'
p3278
tp3279
Rp3280
ag2
(g3
(S'S18'
p3281
I0
I1
tp3282
Rp3283
(I3
S'|'
p3284
NNNI18
I1
I0
tp3285
bS'Angelo Badalamenti'
p3286
tp3287
Rp3288
ag2
(g22
S'\xe2d\xb1\xe7S\\\xe6?'
p3289
tp3290
Rp3291
ag2
(g22
S'\xc0\xac\xbb\xf6\x9d\x90\xd9?'
p3292
tp3293
Rp3294
ag2
(g22
S'\xadL\xf8\xa5~\x10e@'
p3295
tp3296
Rp3297
ag2
(g22
S'\xf4\xfd\xd4x\xe9&\xb1?'
p3298
tp3299
Rp3300
ag2
(g22
S'\x12\x83\xc0\xca\xa1ad@'
p3301
tp3302
Rp3303
aF0.933
aF0.17
aF0.254
aF0.937
aF-18.232
aF0.0405
aF85.565
aF0.0327
aa(lp3304
g2
(g3
(S'S11'
p3305
I0
I1
tp3306
Rp3307
(I3
S'|'
p3308
NNNI11
I1
I0
tp3309
bS'Good Loving'
p3310
tp3311
Rp3312
ag2
(g3
(S'S11'
p3313
I0
I1
tp3314
Rp3315
(I3
S'|'
p3316
NNNI11
I1
I0
tp3317
bS'C.C. Adcock'
p3318
tp3319
Rp3320
ag2
(g22
S'\xc6\x05e\xf3\xc0\x18\xdb?'
p3321
tp3322
Rp3323
ag2
(g22
S'\xb0\x12\xff\xf5\x0e}\xd7?'
p3324
tp3325
Rp3326
ag2
(g22
S'b\xa1\xd64\xefD^@'
p3327
tp3328
Rp3329
ag2
(g22
S'+\x87\x16\xd9\xce\xf7\xb3?'
p3330
tp3331
Rp3332
ag2
(g22
S'B`\xe5\xd0"\xc3]@'
p3333
tp3334
Rp3335
aF0.0269
aF0.436
aF0.918
aF0.0093
aF-6.82
aF0.0514
aF172.588
aF0.826
aa(lp3336
g2
(g3
(S'S6'
p3337
I0
I1
tp3338
Rp3339
(I3
S'|'
p3340
NNNI6
I1
I0
tp3341
bS'Damien'
p3342
tp3343
Rp3344
ag2
(g3
(S'S3'
p3345
I0
I1
tp3346
Rp3347
(I3
S'|'
p3348
NNNI3
I1
I0
tp3349
bS'DMX'
p3350
tp3351
Rp3352
ag2
(g22
S'R\xf7\x8f#jP\xea?'
p3353
tp3354
Rp3355
ag2
(g22
S'u\xeb\n\x9c2H\xe0?'
p3356
tp3357
Rp3358
ag2
(g22
S'\x0b)?\xa9\xf6\xc2k@'
p3359
tp3360
Rp3361
ag2
(g22
S'\x00\x00\x00\x00\x00\x00\x00\x00'
p3362
tp3363
Rp3364
ag2
(g22
S'\n\xd7\xa3p=\x06k@'
p3365
tp3366
Rp3367
aF0.273
aF0.823
aF0.726
aI0
aF-7.895
aF0.324
aF96.869
aF0.416
aa(lp3368
g2
(g3
(S'S22'
p3369
I0
I1
tp3370
Rp3371
(I3
S'|'
p3372
NNNI22
I1
I0
tp3373
bS"The President's Speech"
p3374
tp3375
Rp3376
ag2
(g3
(S'S12'
p3377
I0
I1
tp3378
Rp3379
(I3
S'|'
p3380
NNNI12
I1
I0
tp3381
bS'James Horner'
p3382
tp3383
Rp3384
ag2
(g22
S'q*\xcf\x10\x9f\xbe\xe5?'
p3385
tp3386
Rp3387
ag2
(g22
S'\xe9\x91\x1b\x1a\x1fz\xdf?'
p3388
tp3389
Rp3390
ag2
(g22
S'B>\xe8\xd9\xac\xdcp@'
p3391
tp3392
Rp3393
ag2
(g22
S'\xf4\xfd\xd4x\xe9&\x04@'
p3394
tp3395
Rp3396
ag2
(g22
S'\\\x8f\xc2\xf5(\xe4n@'
p3397
tp3398
Rp3399
aF0.911
aF0.147
aF0.00548
aF0.974
aF-37.995
aF0.0414
aF76.191
aF0.0313
aa(lp3400
g2
(g3
(S'S9'
p3401
I0
I1
tp3402
Rp3403
(I3
S'|'
p3404
NNNI9
I1
I0
tp3405
bS'Trong Com'
p3406
tp3407
Rp3408
ag2
(g3
(S'S6'
p3409
I0
I1
tp3410
Rp3411
(I3
S'|'
p3412
NNNI6
I1
I0
tp3413
bS'Kitaro'
p3414
tp3415
Rp3416
ag2
(g22
S'\xae\xbf\xa9\x9b\xf8`\xe5?'
p3417
tp3418
Rp3419
ag2
(g22
S'\xce\r:\x83\x9af\xdd?'
p3420
tp3421
Rp3422
ag2
(g22
S'\x83QI\x9d\x80\xc2E@'
p3423
tp3424
Rp3425
ag2
(g22
S'\x00\x00\x00\x00\x00\x00\x00\x00'
p3426
tp3427
Rp3428
ag2
(g22
S'\xc3\xf5(\\\x8f\xc2E@'
p3429
tp3430
Rp3431
aF0.993
aF0.493
aF0.137
aF6e-05
aF-22.166
aF0.158
aF110.501
aF0.64
aa(lp3432
g2
(g3
(S'S11'
p3433
I0
I1
tp3434
Rp3435
(I3
S'|'
p3436
NNNI11
I1
I0
tp3437
bS'Doble Bombo'
p3438
tp3439
Rp3440
ag2
(g3
(S'S11'
p3441
I0
I1
tp3442
Rp3443
(I3
S'|'
p3444
NNNI11
I1
I0
tp3445
bS'Las Ketchup'
p3446
tp3447
Rp3448
ag2
(g22
S'\x9dl)\xa2\xb6\xfb\xe2?'
p3449
tp3450
Rp3451
ag2
(g22
S'\xa6\xed8Q\xa1D\xd7?'
p3452
tp3453
Rp3454
ag2
(g22
S'\x06/\xfa\n\xd2ye@'
p3455
tp3456
Rp3457
ag2
(g22
S'\x1b/\xdd$\x06\x81\xc5?'
p3458
tp3459
Rp3460
ag2
(g22
S'+\x87\x16\xd9\xce\xfbd@'
p3461
tp3462
Rp3463
aF0.0159
aF0.525
aF0.859
aI0
aF-3.686
aF0.0726
aF168.007
aF0.676
aa(lp3464
g2
(g3
(S'S7'
p3465
I0
I1
tp3466
Rp3467
(I3
S'|'
p3468
NNNI7
I1
I0
tp3469
bS'Mudhump'
p3470
tp3471
Rp3472
ag2
(g3
(S'S18'
p3473
I0
I1
tp3474
Rp3475
(I3
S'|'
p3476
NNNI18
I1
I0
tp3477
bS'C-Side & Petit Mal'
p3478
tp3479
Rp3480
ag2
(g22
S'\xf5\xdd\xdc\x00\xea\xf0\xe1?'
p3481
tp3482
Rp3483
ag2
(g22
S'[\xcdN\xa9\xc6\x83\xd1?'
p3484
tp3485
Rp3486
ag2
(g22
S'\x7f\xd9=yX\x8fj@'
p3487
tp3488
Rp3489
ag2
(g22
S'\xf4\xfd\xd4x\xe9&\x08@'
p3490
tp3491
Rp3492
ag2
(g22
S'\x81\x95C\x8bl\xabi@'
p3493
tp3494
Rp3495
aF0.0414
aF0.782
aF0.637
aI0
aF-6.357
aF0.126
aF124.014
aF0.328
aa(lp3496
g2
(g3
(S'S19'
p3497
I0
I1
tp3498
Rp3499
(I3
S'|'
p3500
NNNI19
I1
I0
tp3501
bS'A Legend In My Time'
p3502
tp3503
Rp3504
ag2
(g3
(S'S10'
p3505
I0
I1
tp3506
Rp3507
(I3
S'|'
p3508
NNNI10
I1
I0
tp3509
bS'Don Gibson'
p3510
tp3511
Rp3512
ag2
(g22
S'?*\xf7B\xd3M\xe1?'
p3513
tp3514
Rp3515
ag2
(g22
S'Y\x06`\xa04L\xd8?'
p3516
tp3517
Rp3518
ag2
(g22
S'\xef\x8f\xf7\xaa\x95\x12c@'
p3519
tp3520
Rp3521
ag2
(g22
S'\x00\x00\x00\x00\x00\x00\x00\x00'
p3522
tp3523
Rp3524
ag2
(g22
S'\xe1z\x14\xaeG\xe9a@'
p3525
tp3526
Rp3527
aF0.885
aF0.536
aF0.299
aF3.2e-06
aF-12.108
aF0.0285
aF111.635
aF0.346
aa(lp3528
g2
(g3
(S'S28'
p3529
I0
I1
tp3530
Rp3531
(I3
S'|'
p3532
NNNI28
I1
I0
tp3533
bS'Serve The Ego (Hani Num Dub)'
p3534
tp3535
Rp3536
ag2
(g3
(S'S5'
p3537
I0
I1
tp3538
Rp3539
(I3
S'|'
p3540
NNNI5
I1
I0
tp3541
bS'Jewel'
p3542
tp3543
Rp3544
ag2
(g22
S"\xf2,c\xc0'\x99\xe8?"
p3545
tp3546
Rp3547
ag2
(g22
S'k\x8d\xaaJ\xd3\xb9\xda?'
p3548
tp3549
Rp3550
ag2
(g22
S'K\xc8\x07=[\x8f\x80@'
p3551
tp3552
Rp3553
ag2
(g22
S'\xcf\xf7S\xe3\xa5\x9b\xd4?'
p3554
tp3555
Rp3556
ag2
(g22
S'\xfa~j\xbctD\x80@'
p3557
tp3558
Rp3559
aF0.00058
aF0.807
aF0.94
aF0.805
aF-6.59
aF0.0593
aF128.001
aF0.614
aa(lp3560
g2
(g3
(S'S13'
p3561
I0
I1
tp3562
Rp3563
(I3
S'|'
p3564
NNNI13
I1
I0
tp3565
bS'Still In Love'
p3566
tp3567
Rp3568
ag2
(g3
(S'S25'
p3569
I0
I1
tp3570
Rp3571
(I3
S'|'
p3572
NNNI25
I1
I0
tp3573
bS'Nick Cave & The Bad Seeds'
p3574
tp3575
Rp3576
ag2
(g22
S'\xf2B\x0f\xe3l5\xe6?'
p3577
tp3578
Rp3579
ag2
(g22
S'\x1a\xfc\x02\x88\x9d\xae\xde?'
p3580
tp3581
Rp3582
ag2
(g22
S'\xa6\xd0y\x8d\xdd\xbbq@'
p3583
tp3584
Rp3585
ag2
(g22
S'\x06\x81\x95C\x8bl\xc7?'
p3586
tp3587
Rp3588
ag2
(g22
S'\xa6\x9b\xc4 \xb06q@'
p3589
tp3590
Rp3591
aF0.139
aF0.735
aF0.403
aF0.473
aF-11.599
aF0.037
aF115.658
aF0.453
aa(lp3592
g2
(g3
(S'S11'
p3593
I0
I1
tp3594
Rp3595
(I3
S'|'
p3596
NNNI11
I1
I0
tp3597
bS'Closed Eyes'
p3598
tp3599
Rp3600
ag2
(g3
(S'S14'
p3601
I0
I1
tp3602
Rp3603
(I3
S'|'
p3604
NNNI14
I1
I0
tp3605
bS'Bury Your Dead'
p3606
tp3607
Rp3608
ag2
(g22
S'\x16u\xfc\x95Hn\xea?'
p3609
tp3610
Rp3611
ag2
(g22
S'\xec\x80W\x95\xbe7\xe0?'
p3612
tp3613
Rp3614
ag2
(g22
S'\xa9\xbc\x1d\xe14*r@'
p3615
tp3616
Rp3617
ag2
(g22
S'\xf8S\xe3\xa5\x9b\xc4\xc0?'
p3618
tp3619
Rp3620
ag2
(g22
S'\\\x8f\xc2\xf5(\xb8q@'
p3621
tp3622
Rp3623
aF3.19e-05
aF0.145
aF0.653
aF0.552
aF-7.195
aF0.0483
aF99.905
aF0.245
aa(lp3624
g2
(g3
(S'S20'
p3625
I0
I1
tp3626
Rp3627
(I3
S'|'
p3628
NNNI20
I1
I0
tp3629
bS'Big Guys Throw Cones'
p3630
tp3631
Rp3632
ag2
(g3
(S'S18'
p3633
I0
I1
tp3634
Rp3635
(I3
S'|'
p3636
NNNI18
I1
I0
tp3637
bS'Our Time Down Here'
p3638
tp3639
Rp3640
ag2
(g22
S'\x7f\x84e\xa2\x10\x9a\xe0?'
p3641
tp3642
Rp3643
ag2
(g22
S'\xee\xb0\x10\xfd\x06\x80\xdb?'
p3644
tp3645
Rp3646
ag2
(g22
S'O\xccz1\x94\xdfR@'
p3647
tp3648
Rp3649
ag2
(g22
S'\x00\x00\x00\x00\x00\x00\x00\x00'
p3650
tp3651
Rp3652
ag2
(g22
S'd;\xdfO\x8d\xdfR@'
p3653
tp3654
Rp3655
aF5.98e-05
aF0.272
aF0.978
aF0.0527
aF-2.573
aF0.0573
aF115.282
aF0.778
aa(lp3656
g2
(g3
(S'S15'
p3657
I0
I1
tp3658
Rp3659
(I3
S'|'
p3660
NNNI15
I1
I0
tp3661
bS'Railroad Boogie'
p3662
tp3663
Rp3664
ag2
(g3
(S'S12'
p3665
I0
I1
tp3666
Rp3667
(I3
S'|'
p3668
NNNI12
I1
I0
tp3669
bS'Pee Wee King'
p3670
tp3671
Rp3672
ag2
(g22
S'K\xeb\x91\xa5\xd9\x1d\xda?'
p3673
tp3674
Rp3675
ag2
(g22
S'#\xda\xa8\x8e\x1f\x13\xd4?'
p3676
tp3677
Rp3678
ag2
(g22
S'h\xae\xd3HKVc@'
p3679
tp3680
Rp3681
ag2
(g22
S'\xaa\xf1\xd2Mb\x10\x02@'
p3682
tp3683
Rp3684
ag2
(g22
S'\xbe\x9f\x1a/\xddLb@'
p3685
tp3686
Rp3687
aF0.759
aF0.517
aF0.674
aI0
aF-4.824
aF0.043
aF171.33
aF0.861
aa(lp3688
g2
(g3
(S'S34'
p3689
I0
I1
tp3690
Rp3691
(I3
S'|'
p3692
NNNI34
I1
I0
tp3693
bS"I've Won (Introduction - Speaking)"
p3694
tp3695
Rp3696
ag2
(g3
(S'S10'
p3697
I0
I1
tp3698
Rp3699
(I3
S'|'
p3700
NNNI10
I1
I0
tp3701
bS'The Nelons'
p3702
tp3703
Rp3704
ag2
(g22
S'\xd82\x97\xe52j\xd8?'
p3705
tp3706
Rp3707
ag2
(g22
S'\xda}/?\xe7i\xd6?'
p3708
tp3709
Rp3710
ag2
(g22
S'\xc2\xa3\x8d#\xd6\xfcV@'
p3711
tp3712
Rp3713
ag2
(g22
S'\x00\x00\x00\x00\x00\x00\x00\x00'
p3714
tp3715
Rp3716
ag2
(g22
S'\xbe\x9f\x1a/\xdd\xfcV@'
p3717
tp3718
Rp3719
aF0.812
aF0.566
aF0.0283
aI0
aF-30.303
aF0.274
aF101.888
aF0.511
aa(lp3720
g2
(g3
(S'S13'
p3721
I0
I1
tp3722
Rp3723
(I3
S'|'
p3724
NNNI13
I1
I0
tp3725
bS'Sencillamente'
p3726
tp3727
Rp3728
ag2
(g3
(S'S18'
p3729
I0
I1
tp3730
Rp3731
(I3
S'|'
p3732
NNNI18
I1
I0
tp3733
bS'Bersuit Vergarabat'
p3734
tp3735
Rp3736
ag2
(g22
S'$\xc7\xec\xa85\xb2\xe3?'
p3737
tp3738
Rp3739
ag2
(g22
S'Q\xe4@fG&\xdc?'
p3740
tp3741
Rp3742
ag2
(g22
S'\x81C\xa8R\xb35s@'
p3743
tp3744
Rp3745
ag2
(g22
S';\xdfO\x8d\x97n\xd2?'
p3746
tp3747
Rp3748
ag2
(g22
S'5^\xbaI\x0c|r@'
p3749
tp3750
Rp3751
aF0.323
aF0.747
aF0.62
aF0.000939
aF-7.152
aF0.0269
aF136.025
aF0.965
aa(lp3752
g2
(g3
(S'S19'
p3753
I0
I1
tp3754
Rp3755
(I3
S'|'
p3756
NNNI19
I1
I0
tp3757
bS"Poppin' Them Thangs"
p3758
tp3759
Rp3760
ag2
(g3
(S'S6'
p3761
I0
I1
tp3762
Rp3763
(I3
S'|'
p3764
NNNI6
I1
I0
tp3765
bS'G-Unit'
p3766
tp3767
Rp3768
ag2
(g22
S')\x1e\x99PL\r\xeb?'
p3769
tp3770
Rp3771
ag2
(g22
S'\xc9O\xc5W\x0c\x1a\xe1?'
p3772
tp3773
Rp3774
ag2
(g22
S'\xb1\xc4\x03\xca\xa6Pn@'
p3775
tp3776
Rp3777
ag2
(g22
S'\x0c\x02+\x87\x16\xd9\xce?'
p3778
tp3779
Rp3780
ag2
(g22
S'Zd;\xdfOem@'
p3781
tp3782
Rp3783
aF0.252
aF0.768
aF0.813
aI0
aF-1.418
aF0.189
aF88.023
aF0.918
aa(lp3784
g2
(g3
(S'S14'
p3785
I0
I1
tp3786
Rp3787
(I3
S'|'
p3788
NNNI14
I1
I0
tp3789
bS'Bury Your Head'
p3790
tp3791
Rp3792
ag2
(g3
(S'S6'
p3793
I0
I1
tp3794
Rp3795
(I3
S'|'
p3796
NNNI6
I1
I0
tp3797
bS'Saosin'
p3798
tp3799
Rp3800
ag2
(g22
S'L\xf5\xb9\x8e\x97)\xe8?'
p3801
tp3802
Rp3803
ag2
(g22
S'j!\xd7GZ\n\xe2?'
p3804
tp3805
Rp3806
ag2
(g22
S'\x9c\xe1\x06|~\x89j@'
p3807
tp3808
Rp3809
ag2
(g22
S'\xe7\xfb\xa9\xf1\xd2M\x0b@'
p3810
tp3811
Rp3812
ag2
(g22
S'h\x91\xed|?\x19i@'
p3813
tp3814
Rp3815
aF0.000121
aF0.319
aF0.926
aF0.000978
aF-3.865
aF0.0487
aF166.051
aF0.359
aa(lp3816
g2
(g3
(S'S36'
p3817
I0
I1
tp3818
Rp3819
(I3
S'|'
p3820
NNNI36
I1
I0
tp3821
bS'American Journey/IV. Arts and Sports'
p3822
tp3823
Rp3824
ag2
(g3
(S'S13'
p3825
I0
I1
tp3826
Rp3827
(I3
S'|'
p3828
NNNI13
I1
I0
tp3829
bS'John Williams'
p3830
tp3831
Rp3832
ag2
(g22
S'\xaa\xad\xf3v\xb7\x91\xe6?'
p3833
tp3834
Rp3835
ag2
(g22
S'\xa7\x93\xb6\x92\xb4\x8d\xe0?'
p3836
tp3837
Rp3838
ag2
(g22
S'k\x9f\x8e\xc7\x0c\xa9c@'
p3839
tp3840
Rp3841
ag2
(g22
S'\x00\x00\x00\x00\x00\x00\x00\x00'
p3842
tp3843
Rp3844
ag2
(g22
S'\xc7K7\x89A\\c@'
p3845
tp3846
Rp3847
aF0.845
aF0.372
aF0.367
aF0.942
aF-16.568
aF0.0374
aF139.169
aF0.378
aa(lp3848
g2
(g3
(S'S14'
p3849
I0
I1
tp3850
Rp3851
(I3
S'|'
p3852
NNNI14
I1
I0
tp3853
bS'Shuncata Penda'
p3854
tp3855
Rp3856
ag2
(g3
(S'S7'
p3857
I0
I1
tp3858
Rp3859
(I3
S'|'
p3860
NNNI7
I1
I0
tp3861
bS'Pardesi'
p3862
tp3863
Rp3864
ag2
(g22
S'X\xbb[\x03\x83\xba\xd8?'
p3865
tp3866
Rp3867
ag2
(g22
S'\xc9l?Z\x0bh\xd0?'
p3868
tp3869
Rp3870
ag2
(g22
S's\xba,&6Ts@'
p3871
tp3872
Rp3873
ag2
(g22
S'\x0e-\xb2\x9d\xef\xa7\xc6?'
p3874
tp3875
Rp3876
ag2
(g22
S'\xecQ\xb8\x1e\x85\tr@'
p3877
tp3878
Rp3879
aF0.0951
aF0.677
aF0.866
aF3.57e-06
aF-13.257
aF0.0491
aF106.48
aF0.943
aa(lp3880
g2
(g3
(S'S7'
p3881
I0
I1
tp3882
Rp3883
(I3
S'|'
p3884
NNNI7
I1
I0
tp3885
bS'Sailing'
p3886
tp3887
Rp3888
ag2
(g3
(S'S11'
p3889
I0
I1
tp3890
Rp3891
(I3
S'|'
p3892
NNNI11
I1
I0
tp3893
bS'DJ Ostkurve'
p3894
tp3895
Rp3896
ag2
(g22
S'\xe8\x1ee#\x99\xb5\xd9?'
p3897
tp3898
Rp3899
ag2
(g22
S'\x00\x00\x00\x00\x00\x00\x00\x00'
p3900
tp3901
Rp3902
ag2
(g22
S'\xec\x12\xd5[\x03\xeei@'
p3903
tp3904
Rp3905
ag2
(g22
S'\x00\x00\x00\x00\x00\x00\x00\x00'
p3906
tp3907
Rp3908
ag2
(g22
S'fffff\xbeh@'
p3909
tp3910
Rp3911
aF0.000114
aF0.52
aF0.972
aF3.87e-05
aF-4.33
aF0.036
aF137.978
aF0.649
aa(lp3912
g2
(g3
(S'S12'
p3913
I0
I1
tp3914
Rp3915
(I3
S'|'
p3916
NNNI12
I1
I0
tp3917
bS'Hi Ho Silver'
p3918
tp3919
Rp3920
ag2
(g3
(S'S10'
p3921
I0
I1
tp3922
Rp3923
(I3
S'|'
p3924
NNNI10
I1
I0
tp3925
bS'Roy Rogers'
p3926
tp3927
Rp3928
ag2
(g22
S'\xe08\\!\xefT\xe0?'
p3929
tp3930
Rp3931
ag2
(g22
S'B.r%\xd6\xec\xd9?'
p3932
tp3933
Rp3934
ag2
(g22
S'5\xef8EGQc@'
p3935
tp3936
Rp3937
ag2
(g22
S'\x08\xac\x1cZd;\xeb?'
p3938
tp3939
Rp3940
ag2
(g22
S'-\xb2\x9d\xef\xa7vb@'
p3941
tp3942
Rp3943
aF0.992
aF0.825
aF0.185
aF0.00174
aF-10.675
aF0.0758
aF122.025
aF0.719
aa(lp3944
g2
(g3
(S'S12'
p3945
I0
I1
tp3946
Rp3947
(I3
S'|'
p3948
NNNI12
I1
I0
tp3949
bS'Slamka Spasa'
p3950
tp3951
Rp3952
ag2
(g3
(S'S4'
p3953
I0
I1
tp3954
Rp3955
(I3
S'|'
p3956
NNNI4
I1
I0
tp3957
bS'Reni'
p3958
tp3959
Rp3960
ag2
(g22
S'9l#\x8b~S\xe0?'
p3961
tp3962
Rp3963
ag2
(g22
S'\x93\x86\xc1J\x04\xbe\xd4?'
p3964
tp3965
Rp3966
ag2
(g22
S'k\x9aw\x9c\xa2\xc4k@'
p3967
tp3968
Rp3969
ag2
(g22
S'\x91\xed|?5^\xee?'
p3970
tp3971
Rp3972
ag2
(g22
S'\xb6\xf3\xfd\xd4xQk@'
p3973
tp3974
Rp3975
aF0.396
aF0.709
aF0.892
aI0
aF-3.265
aF0.0403
aF138.986
aF0.855
aa(lp3976
g2
(g3
(S'S14'
p3977
I0
I1
tp3978
Rp3979
(I3
S'|'
p3980
NNNI14
I1
I0
tp3981
bS"Kanaka 'o Mose"
p3982
tp3983
Rp3984
ag2
(g3
(S'S12'
p3985
I0
I1
tp3986
Rp3987
(I3
S'|'
p3988
NNNI12
I1
I0
tp3989
bS'Leonard Kwan'
p3990
tp3991
Rp3992
ag2
(g22
S'p\xf2\xa0\x89\x1b\xa0\xd8?'
p3993
tp3994
Rp3995
ag2
(g22
S'\x00\x00\x00\x00\x00\x00\x00\x00'
p3996
tp3997
Rp3998
ag2
(g22
S'U\xfbt<f]i@'
p3999
tp4000
Rp4001
ag2
(g22
S'\xbaI\x0c\x02+\x87\xc6?'
p4002
tp4003
Rp4004
ag2
(g22
S'b\x10X9\xb40g@'
p4005
tp4006
Rp4007
aF0.85
aF0.635
aF0.142
aF0.859
aF-22.25
aF0.0398
aF83.005
aF0.384
aa(lp4008
g2
(g3
(S'S26'
p4009
I0
I1
tp4010
Rp4011
(I3
S'|'
p4012
NNNI26
I1
I0
tp4013
bS'Between Eunice & Opelousas'
p4014
tp4015
Rp4016
ag2
(g3
(S'S32'
p4017
I0
I1
tp4018
Rp4019
(I3
S'|'
p4020
NNNI32
I1
I0
tp4021
bS'Steve Riley & The Mamou Playboys'
p4022
tp4023
Rp4024
ag2
(g22
S'\x18\xd7\xa3\x91\xa9\x06\xdd?'
p4025
tp4026
Rp4027
ag2
(g22
S'\xbe\xd1SR \x8f\xd1?'
p4028
tp4029
Rp4030
ag2
(g22
S'1\x08\xac\x1cZ\xc7f@'
p4031
tp4032
Rp4033
ag2
(g22
S'V\x0e-\xb2\x9d\xef\xd7?'
p4034
tp4035
Rp4036
ag2
(g22
S'#\xdb\xf9~j\x88e@'
p4037
tp4038
Rp4039
aF0.514
aF0.432
aF0.825
aF0.282
aF-6.101
aF0.0788
aF188.843
aF0.911
aa(lp4040
g2
(g3
(S'S12'
p4041
I0
I1
tp4042
Rp4043
(I3
S'|'
p4044
NNNI12
I1
I0
tp4045
bS'Monarchy Now'
p4046
tp4047
Rp4048
ag2
(g3
(S'S5'
p4049
I0
I1
tp4050
Rp4051
(I3
S'|'
p4052
NNNI5
I1
I0
tp4053
bS'Falco'
p4054
tp4055
Rp4056
ag2
(g22
S'\x13\x14 \x017\x95\xe5?'
p4057
tp4058
Rp4059
ag2
(g22
S'\xc11\xb1\xb7\x0b\x17\xdf?'
p4060
tp4061
Rp4062
ag2
(g22
S'\x8c\xd6Q\xd5\x04\x9fo@'
p4063
tp4064
Rp4065
ag2
(g22
S'\x8f\xc2\xf5(\\\x8f\xda?'
p4066
tp4067
Rp4068
ag2
(g22
S'sh\x91\xed|\xd3l@'
p4069
tp4070
Rp4071
aF0.0432
aF0.646
aF0.92
aF6.38e-05
aF-6.247
aF0.107
aF94.795
aF0.677
aa(lp4072
g2
(g3
(S'S6'
p4073
I0
I1
tp4074
Rp4075
(I3
S'|'
p4076
NNNI6
I1
I0
tp4077
bS'Shadow'
p4078
tp4079
Rp4080
ag2
(g3
(S'S15'
p4081
I0
I1
tp4082
Rp4083
(I3
S'|'
p4084
NNNI15
I1
I0
tp4085
bS'Warren Barfield'
p4086
tp4087
Rp4088
ag2
(g22
S'\x9e\n\xfa\xc3\xd6\xdc\xe4?'
p4089
tp4090
Rp4091
ag2
(g22
S'U\xb7\x12\x97\t\xeb\xdb?'
p4092
tp4093
Rp4094
ag2
(g22
S'\x86r\xa2]\x85\xf0i@'
p4095
tp4096
Rp4097
ag2
(g22
S'\x83\xc0\xca\xa1E\xb6\xc3?'
p4098
tp4099
Rp4100
ag2
(g22
S'Zd;\xdfO\xadh@'
p4101
tp4102
Rp4103
aF0.0159
aF0.69
aF0.761
aI0
aF-6.866
aF0.0442
aF117.961
aF0.774
aa(lp4104
g2
(g3
(S'S12'
p4105
I0
I1
tp4106
Rp4107
(I3
S'|'
p4108
NNNI12
I1
I0
tp4109
bS'Big Business'
p4110
tp4111
Rp4112
ag2
(g3
(S'S15'
p4113
I0
I1
tp4114
Rp4115
(I3
S'|'
p4116
NNNI15
I1
I0
tp4117
bS'Dilated Peoples'
p4118
tp4119
Rp4120
ag2
(g22
S'\xd6\xf4A|=\xc1\xe9?'
p4121
tp4122
Rp4123
ag2
(g22
S'r\n\x0c\xfeDM\xdd?'
p4124
tp4125
Rp4126
ag2
(g22
S'S?o*R\xbdb@'
p4127
tp4128
Rp4129
ag2
(g22
S'\x00\x00\x00\x00\x00\x00\x00\x00'
p4130
tp4131
Rp4132
ag2
(g22
S'\x9e\xef\xa7\xc6Ksb@'
p4133
tp4134
Rp4135
aF0.462
aF0.705
aF0.852
aF1.93e-06
aF-8.157
aF0.291
aF97.254
aF0.696
aa(lp4136
g2
(g3
(S'S10'
p4137
I0
I1
tp4138
Rp4139
(I3
S'|'
p4140
NNNI10
I1
I0
tp4141
bS'La Sitiera'
p4142
tp4143
Rp4144
ag2
(g3
(S'S17'
p4145
I0
I1
tp4146
Rp4147
(I3
S'|'
p4148
NNNI17
I1
I0
tp4149
bS'Orquesta Broadway'
p4150
tp4151
Rp4152
ag2
(g22
S'\x83\xfa=\xb2\xe6\x86\xd9?'
p4153
tp4154
Rp4155
ag2
(g22
S'\x15\xd3\xe40\xf3\xd3\xd5?'
p4156
tp4157
Rp4158
ag2
(g22
S'\x8cg\xd0\xd0?Ul@'
p4159
tp4160
Rp4161
ag2
(g22
S'\x00\x00\x00\x00\x00\x00\x00\x00'
p4162
tp4163
Rp4164
ag2
(g22
S'\xf8S\xe3\xa5\x9b\xb8j@'
p4165
tp4166
Rp4167
aF0.799
aF0.376
aF0.458
aI0
aF-7.842
aF0.03
aF96.559
aF0.767
aa(lp4168
g2
(g3
(S'S12'
p4169
I0
I1
tp4170
Rp4171
(I3
S'|'
p4172
NNNI12
I1
I0
tp4173
bS"I'm Not Done"
p4174
tp4175
Rp4176
ag2
(g3
(S'S9'
p4177
I0
I1
tp4178
Rp4179
(I3
S'|'
p4180
NNNI9
I1
I0
tp4181
bS'Fever Ray'
p4182
tp4183
Rp4184
ag2
(g22
S'\xdb\xf2\xf64O\xd7\xe6?'
p4185
tp4186
Rp4187
ag2
(g22
S'+Y\xb9\x98\xef\xee\xe0?'
p4188
tp4189
Rp4190
ag2
(g22
S'0G\x8f\xdf\xdb\x83q@'
p4191
tp4192
Rp4193
ag2
(g22
S'\x00\x00\x00\x00\x00\x00\x00\x00'
p4194
tp4195
Rp4196
ag2
(g22
S'\xb6\xf3\xfd\xd4x\tp@'
p4197
tp4198
Rp4199
aF0.118
aF0.493
aF0.82
aF0.0104
aF-6.769
aF0.0303
aF162.001
aF0.644
aa(lp4200
g2
(g3
(S'S10'
p4201
I0
I1
tp4202
Rp4203
(I3
S'|'
p4204
NNNI10
I1
I0
tp4205
bS'It Must Be'
p4206
tp4207
Rp4208
ag2
(g3
(S'S12'
p4209
I0
I1
tp4210
Rp4211
(I3
S'|'
p4212
NNNI12
I1
I0
tp4213
bS'David Martin'
p4214
tp4215
Rp4216
ag2
(g22
S'\xceR\x88j\xacf\xe4?'
p4217
tp4218
Rp4219
ag2
(g22
S'\x8fl&\xb9\x1a\xe1\xd3?'
p4220
tp4221
Rp4222
ag2
(g22
S'M\x15\x8cJ\xea\xe6q@'
p4223
tp4224
Rp4225
ag2
(g22
S'\x00\x00\x00\x00\x00\x00\x00\x00'
p4226
tp4227
Rp4228
ag2
(g22
S'y\xe9&1\x08\xbap@'
p4229
tp4230
Rp4231
aF0.412
aF0.436
aF0.502
aF1.67e-05
aF-9.406
aF0.028
aF134.003
aF0.207
aa(lp4232
g2
(g3
(S'S9'
p4233
I0
I1
tp4234
Rp4235
(I3
S'|'
p4236
NNNI9
I1
I0
tp4237
bS'The Truth'
p4238
tp4239
Rp4240
ag2
(g3
(S'S2'
p4241
I0
I1
tp4242
Rp4243
(I3
S'|'
p4244
NNNI2
I1
I0
tp4245
bS'MN'
p4246
tp4247
Rp4248
ag2
(g22
S'\xfb\x1f\xbd\x83>\r\xdd?'
p4249
tp4250
Rp4251
ag2
(g22
S'\x144\xc1\xcf\x87\x11\xd5?'
p4252
tp4253
Rp4254
ag2
(g22
S'V\x0e-\xb2\x1d\xa1w@'
p4255
tp4256
Rp4257
ag2
(g22
S';\xdfO\x8d\x97n\xf2?'
p4258
tp4259
Rp4260
ag2
(g22
S'/\xdd$\x06\x81\xc9v@'
p4261
tp4262
Rp4263
aF0.00259
aF0.789
aF0.674
aF0.925
aF-13.052
aF0.0612
aF136.994
aF0.119
aa(lp4264
g2
(g3
(S'S5'
p4265
I0
I1
tp4266
Rp4267
(I3
S'|'
p4268
NNNI5
I1
I0
tp4269
bS'Ignis'
p4270
tp4271
Rp4272
ag2
(g3
(S'S5'
p4273
I0
I1
tp4274
Rp4275
(I3
S'|'
p4276
NNNI5
I1
I0
tp4277
bS'Floor'
p4278
tp4279
Rp4280
ag2
(g22
S"w'\x95-\xb2\xb7\xe0?"
p4281
tp4282
Rp4283
ag2
(g22
S'k\x8d\xaaJ\xd3\xb9\xda?'
p4284
tp4285
Rp4286
ag2
(g22
S'\xa9\x9f7\x15\xa9\x1db@'
p4287
tp4288
Rp4289
ag2
(g22
S'\x96C\x8bl\xe7\xfb\x06@'
p4290
tp4291
Rp4292
ag2
(g22
S'q=\n\xd7\xa3\xb0a@'
p4293
tp4294
Rp4295
aF0.0161
aF0.259
aF0.914
aF0.889
aF-9.438
aF0.0563
aF144.659
aF0.536
aa(lp4296
g2
(g3
(S'S42'
p4297
I0
I1
tp4298
Rp4299
(I3
S'|'
p4300
NNNI42
I1
I0
tp4301
bS'So Many Books ... (The Word Album Version)'
p4302
tp4303
Rp4304
ag2
(g3
(S'S12'
p4305
I0
I1
tp4306
Rp4307
(I3
S'|'
p4308
NNNI12
I1
I0
tp4309
bS'Michael Card'
p4310
tp4311
Rp4312
ag2
(g22
S'\x9c9\xd4e\xcf\xdc\x8f?'
p4313
tp4314
Rp4315
ag2
(g22
S'\xac\x18\x1b\xcf"\x08\xd6?'
p4316
tp4317
Rp4318
ag2
(g22
S'\xb4\xc8v\xbe\x9fbd@'
p4319
tp4320
Rp4321
ag2
(g22
S'\xd1"\xdb\xf9~j\xdc?'
p4322
tp4323
Rp4324
ag2
(g22
S'\x85\xebQ\xb8\x1eAc@'
p4325
tp4326
Rp4327
aF0.102
aF0.632
aF0.783
aI0
aF-7.188
aF0.0313
aF122.472
aF0.905
aa(lp4328
g2
(g3
(S'S17'
p4329
I0
I1
tp4330
Rp4331
(I3
S'|'
p4332
NNNI17
I1
I0
tp4333
bS'What Would You Do'
p4334
tp4335
Rp4336
ag2
(g3
(S'S14'
p4337
I0
I1
tp4338
Rp4339
(I3
S'|'
p4340
NNNI14
I1
I0
tp4341
bS'Walter Jackson'
p4342
tp4343
Rp4344
ag2
(g22
S'$\xcc}\x9b\xfb\xfa\xdb?'
p4345
tp4346
Rp4347
ag2
(g22
S'\xf5\x82\x93R\xe6;\xd4?'
p4348
tp4349
Rp4350
ag2
(g22
S'\xe7\xfb\xa9\xf1\xd2\x95c@'
p4351
tp4352
Rp4353
ag2
(g22
S'\x04V\x0e-\xb2\x9d\xd7?'
p4354
tp4355
Rp4356
ag2
(g22
S'}?5^\xba\xf5b@'
p4357
tp4358
Rp4359
aF0.648
aF0.599
aF0.294
aF1.58e-05
aF-12.77
aF0.0294
aF78.497
aF0.456
aa(lp4360
g2
(g3
(S'S16'
p4361
I0
I1
tp4362
Rp4363
(I3
S'|'
p4364
NNNI16
I1
I0
tp4365
bS"Drummer's Circle"
p4366
tp4367
Rp4368
ag2
(g3
(S'S9'
p4369
I0
I1
tp4370
Rp4371
(I3
S'|'
p4372
NNNI9
I1
I0
tp4373
bS'Megadrums'
p4374
tp4375
Rp4376
ag2
(g22
S'f\x10\xd3{c\xf1\xd4?'
p4377
tp4378
Rp4379
ag2
(g22
S'\xc4N\xcc\xdcGP\xb0?'
p4380
tp4381
Rp4382
ag2
(g22
S'bJ$\xd1\xcb\xa7m@'
p4383
tp4384
Rp4385
ag2
(g22
S'\x00\x00\x00\x00\x00\x00\x00\x00'
p4386
tp4387
Rp4388
ag2
(g22
S'j\xbct\x93\x18\x08l@'
p4389
tp4390
Rp4391
aF0.871
aF0.6
aF0.464
aF0.886
aF-15.619
aF0.213
aF119.044
aF0.581
aa(lp4392
g2
(g3
(S'S4'
p4393
I0
I1
tp4394
Rp4395
(I3
S'|'
p4396
NNNI4
I1
I0
tp4397
bS'Kong'
p4398
tp4399
Rp4400
ag2
(g3
(S'S6'
p4401
I0
I1
tp4402
Rp4403
(I3
S'|'
p4404
NNNI6
I1
I0
tp4405
bS'Justin'
p4406
tp4407
Rp4408
ag2
(g22
S'*?w:\xb2\n\xe9?'
p4409
tp4410
Rp4411
ag2
(g22
S'\xd1\xb8a\xc4\xadv\xd5?'
p4412
tp4413
Rp4414
ag2
(g22
S'\xe2#bJ\xa4=q@'
p4415
tp4416
Rp4417
ag2
(g22
S'\x00\x00\x00\x00\x00\x00\x00\x00'
p4418
tp4419
Rp4420
ag2
(g22
S'fffff\x1cq@'
p4421
tp4422
Rp4423
aF0.563
aF0.603
aF0.338
aI0
aF-13.619
aF0.0297
aF133.975
aF0.341
aa(lp4424
g2
(g3
(S'S26'
p4425
I0
I1
tp4426
Rp4427
(I3
S'|'
p4428
NNNI26
I1
I0
tp4429
bS'Post-Toxic Finger Disorder'
p4430
tp4431
Rp4432
ag2
(g3
(S'S9'
p4433
I0
I1
tp4434
Rp4435
(I3
S'|'
p4436
NNNI9
I1
I0
tp4437
bS'Tim Exile'
p4438
tp4439
Rp4440
ag2
(g22
S'%\xe1S\xda&\xdb\xe3?'
p4441
tp4442
Rp4443
ag2
(g22
S'\xf3\xcf&zvQ\xd3?'
p4444
tp4445
Rp4446
ag2
(g22
S'\xadi\xdeq\x8a\x16T@'
p4447
tp4448
Rp4449
ag2
(g22
S'\x00\x00\x00\x00\x00\x00\x00\x00'
p4450
tp4451
Rp4452
ag2
(g22
S'J\x0c\x02+\x87\x16T@'
p4453
tp4454
Rp4455
aF0.00417
aF0.178
aF0.997
aF0.0525
aF-4.64
aF0.274
aF176.975
aF0.419
aa(lp4456
g2
(g3
(S'S10'
p4457
I0
I1
tp4458
Rp4459
(I3
S'|'
p4460
NNNI10
I1
I0
tp4461
bS'Lotus Kiss'
p4462
tp4463
Rp4464
ag2
(g3
(S'S11'
p4465
I0
I1
tp4466
Rp4467
(I3
S'|'
p4468
NNNI11
I1
I0
tp4469
bS'Alex Theory'
p4470
tp4471
Rp4472
ag2
(g22
S'I\xd1CL\x10\xae\xdc?'
p4473
tp4474
Rp4475
ag2
(g22
S'-|\x8b5\x871\xd4?'
p4476
tp4477
Rp4478
ag2
(g22
S';\xfc5Y#\xdes@'
p4479
tp4480
Rp4481
ag2
(g22
S'\x00\x00\x00\x00\x00\x00\x00\x00'
p4482
tp4483
Rp4484
ag2
(g22
S'\xe7\xfb\xa9\xf1\xd2Wr@'
p4485
tp4486
Rp4487
aF0.0945
aF0.443
aF0.531
aF0.892
aF-11.158
aF0.0272
aF100.496
aF0.418
aa(lp4488
g2
(g3
(S'S5'
p4489
I0
I1
tp4490
Rp4491
(I3
S'|'
p4492
NNNI5
I1
I0
tp4493
bS'Intro'
p4494
tp4495
Rp4496
ag2
(g3
(S'S19'
p4497
I0
I1
tp4498
Rp4499
(I3
S'|'
p4500
NNNI19
I1
I0
tp4501
bS'Bizzy Bone Presents'
p4502
tp4503
Rp4504
ag2
(g22
S';\x16\xb2\xd7?"\xe8?'
p4505
tp4506
Rp4507
ag2
(g22
S'\xf4\xeb\xce\xbc\xf2z\xde?'
p4508
tp4509
Rp4510
ag2
(g22
S'\xa2\xb47\xf8\xc2tI@'
p4511
tp4512
Rp4513
ag2
(g22
S'%\x06\x81\x95C\x8b\xcc?'
p4514
tp4515
Rp4516
ag2
(g22
S'\xfa~j\xbctCG@'
p4517
tp4518
Rp4519
aF0.757
aF0.698
aF0.456
aI0
aF-11.469
aF0.736
aF76.764
aF0.963
aa(lp4520
g2
(g3
(S'S15'
p4521
I0
I1
tp4522
Rp4523
(I3
S'|'
p4524
NNNI15
I1
I0
tp4525
bS'Church Hangover'
p4526
tp4527
Rp4528
ag2
(g3
(S'S12'
p4529
I0
I1
tp4530
Rp4531
(I3
S'|'
p4532
NNNI12
I1
I0
tp4533
bS'George Lopez'
p4534
tp4535
Rp4536
ag2
(g22
S'\xd9\xa2*\x00l`\xe5?'
p4537
tp4538
Rp4539
ag2
(g22
S'\x8d\xa8\x97\x85\xf7\x8a\xe0?'
p4540
tp4541
Rp4542
ag2
(g22
S'\x1b\xd8*\xc1\xe2\xeap@'
p4543
tp4544
Rp4545
ag2
(g22
S'\x00\x00\x00\x00\x00\x00\x00\x00'
p4546
tp4547
Rp4548
ag2
(g22
S'd;\xdfO\x8d\xc5p@'
p4549
tp4550
Rp4551
aF0.885
aF0.421
aF0.803
aF1.76e-05
aF-16.247
aF0.899
aF127.137
aF0.0872
aa(lp4552
g2
(g3
(S'S12'
p4553
I0
I1
tp4554
Rp4555
(I3
S'|'
p4556
NNNI12
I1
I0
tp4557
bS'No Survivors'
p4558
tp4559
Rp4560
ag2
(g3
(S'S9'
p4561
I0
I1
tp4562
Rp4563
(I3
S'|'
p4564
NNNI9
I1
I0
tp4565
bS'Speedball'
p4566
tp4567
Rp4568
ag2
(g22
S'\x02\xa2\xe2F\xc0%\xdf?'
p4569
tp4570
Rp4571
ag2
(g22
S'He\xdc693\xd7?'
p4572
tp4573
Rp4574
ag2
(g22
S'\x02\x829z\xfc\x86j@'
p4575
tp4576
Rp4577
ag2
(g22
S'=\n\xd7\xa3p=\xd2?'
p4578
tp4579
Rp4580
ag2
(g22
S'R\xb8\x1e\x85\xebui@'
p4581
tp4582
Rp4583
aF0.00183
aF0.269
aF0.875
aF2.23e-05
aF-9.041
aF0.0395
aF160.004
aF0.657
aa(lp4584
g2
(g3
(S'S20'
p4585
I0
I1
tp4586
Rp4587
(I3
S'|'
p4588
NNNI20
I1
I0
tp4589
bS'I Got Stripes (Live)'
p4590
tp4591
Rp4592
ag2
(g3
(S'S11'
p4593
I0
I1
tp4594
Rp4595
(I3
S'|'
p4596
NNNI11
I1
I0
tp4597
bS'Johnny Cash'
p4598
tp4599
Rp4600
ag2
(g22
S'\xfa\xee\x17\xab\xf6&\xea?'
p4601
tp4602
Rp4603
ag2
(g22
S'\xd6\xde\xb4\xc4\xd4\x86\xe7?'
p4604
tp4605
Rp4606
ag2
(g22
S'\xc5\x1b\x99G\xfe<\\@'
p4607
tp4608
Rp4609
ag2
(g22
S'\x00\x00\x00\x00\x00\x00\x00\x00'
p4610
tp4611
Rp4612
ag2
(g22
S'R\xb8\x1e\x85\xebAZ@'
p4613
tp4614
Rp4615
aF0.394
aF0.525
aF0.459
aI0
aF-15.718
aF0.298
aF125.55
aF0.612
aa(lp4616
g2
(g3
(S'S43'
p4617
I0
I1
tp4618
Rp4619
(I3
S'|'
p4620
NNNI43
I1
I0
tp4621
bS'The Contracting Perception Of Consciousness'
p4622
tp4623
Rp4624
ag2
(g3
(S'S12'
p4625
I0
I1
tp4626
Rp4627
(I3
S'|'
p4628
NNNI12
I1
I0
tp4629
bS'Rui Da Silva'
p4630
tp4631
Rp4632
ag2
(g22
S'\x93\x8d \xbe\x87\x01\xe4?'
p4633
tp4634
Rp4635
ag2
(g22
S'\x92F)\xb5\x1a\xe2\xd8?'
p4636
tp4637
Rp4638
ag2
(g22
S'V\xd4`\x1a\x06\n|@'
p4639
tp4640
Rp4641
ag2
(g22
S'\xc3\xf5(\\\x8f\xc2\xb5?'
p4642
tp4643
Rp4644
ag2
(g22
S'\xb0rh\x91\xedf{@'
p4645
tp4646
Rp4647
aF0.00672
aF0.887
aF0.523
aF0.651
aF-12.774
aF0.0795
aF123.011
aF0.761
aa(lp4648
g2
(g3
(S'S33'
p4649
I0
I1
tp4650
Rp4651
(I3
S'|'
p4652
NNNI33
I1
I0
tp4653
bS'Her Golden Robe In Silence Veiled'
p4654
tp4655
Rp4656
ag2
(g3
(S'S11'
p4657
I0
I1
tp4658
Rp4659
(I3
S'|'
p4660
NNNI11
I1
I0
tp4661
bS'Autumnblaze'
p4662
tp4663
Rp4664
ag2
(g22
S'\xc4\x1au\xa3\xe9\x9b\xdf?'
p4665
tp4666
Rp4667
ag2
(g22
S'\x02\xae\xd7\x1cr\xc0\xd6?'
p4668
tp4669
Rp4670
ag2
(g22
S'[\x99\xf0K\xfd\xe3q@'
p4671
tp4672
Rp4673
ag2
(g22
S'\x00\x00\x00\x00\x00\x00\x00\x00'
p4674
tp4675
Rp4676
ag2
(g22
S'\xc9v\xbe\x9f\x1auq@'
p4677
tp4678
Rp4679
aF0.0126
aF0.353
aF0.602
aF0.591
aF-11.948
aF0.0377
aF118.751
aF0.451
aa(lp4680
g2
(g3
(S'S22'
p4681
I0
I1
tp4682
Rp4683
(I3
S'|'
p4684
NNNI22
I1
I0
tp4685
bS'The Greed Of Our Stare'
p4686
tp4687
Rp4688
ag2
(g3
(S'S7'
p4689
I0
I1
tp4690
Rp4691
(I3
S'|'
p4692
NNNI7
I1
I0
tp4693
bS'Hatesex'
p4694
tp4695
Rp4696
ag2
(g22
S'\x0e\x1fHe\xb6\x85\xdd?'
p4697
tp4698
Rp4699
ag2
(g22
S'\x00\x00\x00\x00\x00\x00\x00\x00'
p4700
tp4701
Rp4702
ag2
(g22
S':@0G\x0f>s@'
p4703
tp4704
Rp4705
ag2
(g22
S'\x00\x00\x00\x00\x00\x00\x00\x00'
p4706
tp4707
Rp4708
ag2
(g22
S'\x14\xaeG\xe1z\xf6q@'
p4709
tp4710
Rp4711
aF0.000469
aF0.406
aF0.67
aF0.738
aF-8.308
aF0.0271
aF180.046
aF0.35
aa(lp4712
g2
(g3
(S'S13'
p4713
I0
I1
tp4714
Rp4715
(I3
S'|'
p4716
NNNI13
I1
I0
tp4717
bS'Same Old Song'
p4718
tp4719
Rp4720
ag2
(g3
(S'S18'
p4721
I0
I1
tp4722
Rp4723
(I3
S'|'
p4724
NNNI18
I1
I0
tp4725
bS'Kris Kristofferson'
p4726
tp4727
Rp4728
ag2
(g22
S'\xfd\x995A\xc5o\xe7?'
p4729
tp4730
Rp4731
ag2
(g22
S'Q\xe79\xc5#\xc2\xdf?'
p4732
tp4733
Rp4734
ag2
(g22
S'^\xd7/\xd8\rLh@'
p4735
tp4736
Rp4737
ag2
(g22
S'\x00\x00\x00\x00\x00\x00\x00\x00'
p4738
tp4739
Rp4740
ag2
(g22
S'\x1dZd;\xdfWg@'
p4741
tp4742
Rp4743
aF0.649
aF0.475
aF0.32
aI0
aF-13.057
aF0.0341
aF150.406
aF0.637
aa(lp4744
g2
(g3
(S'S9'
p4745
I0
I1
tp4746
Rp4747
(I3
S'|'
p4748
NNNI9
I1
I0
tp4749
bS'Walk Away'
p4750
tp4751
Rp4752
ag2
(g3
(S'S18'
p4753
I0
I1
tp4754
Rp4755
(I3
S'|'
p4756
NNNI18
I1
I0
tp4757
bS'Christina Aguilera'
p4758
tp4759
Rp4760
ag2
(g22
S'qm\x995\x85\x99\xea?'
p4761
tp4762
Rp4763
ag2
(g22
S'\x010\xd8\xd8O9\xe7?'
p4764
tp4765
Rp4766
ag2
(g22
S'\xcb\x9c.\x8b\x89\xbdu@'
p4767
tp4768
Rp4769
ag2
(g22
S'\x00\x00\x00\x00\x00\x00\x00\x00'
p4770
tp4771
Rp4772
ag2
(g22
S'\xa8\xc6K7\x89\xbdu@'
p4773
tp4774
Rp4775
aF0.523
aF0.432
aF0.421
aF1.8e-06
aF-6.053
aF0.102
aF152.358
aF0.116
aa(lp4776
g2
(g3
(S'S11'
p4777
I0
I1
tp4778
Rp4779
(I3
S'|'
p4780
NNNI11
I1
I0
tp4781
bS'Mais La Vie'
p4782
tp4783
Rp4784
ag2
(g3
(S'S21'
p4785
I0
I1
tp4786
Rp4787
(I3
S'|'
p4788
NNNI21
I1
I0
tp4789
bS'Maurane / Lara Fabian'
p4790
tp4791
Rp4792
ag2
(g22
S'\xb1"\xab\x9eM\x93\xe2?'
p4793
tp4794
Rp4795
ag2
(g22
S'X\xee\xa457h\xda?'
p4796
tp4797
Rp4798
ag2
(g22
S'F\xb6\xf3\xfd\xd4\xdbh@'
p4799
tp4800
Rp4801
ag2
(g22
S'\n\xd7\xa3p=\n\x14@'
p4802
tp4803
Rp4804
ag2
(g22
S'\x9c\xc4 \xb0r,f@'
p4805
tp4806
Rp4807
aF0.84
aF0.273
aF0.262
aI0
aF-12.198
aF0.0387
aF77.911
aF0.316
aa(lp4808
g2
(g3
(S'S14'
p4809
I0
I1
tp4810
Rp4811
(I3
S'|'
p4812
NNNI14
I1
I0
tp4813
bS"Doggin' Around"
p4814
tp4815
Rp4816
ag2
(g3
(S'S14'
p4817
I0
I1
tp4818
Rp4819
(I3
S'|'
p4820
NNNI14
I1
I0
tp4821
bS'Rita Chiarelli'
p4822
tp4823
Rp4824
ag2
(g22
S'\xb3\x80\x17\x00\xa0\xe8\xd9?'
p4825
tp4826
Rp4827
ag2
(g22
S'D\xa9\xd2vjo\xd2?'
p4828
tp4829
Rp4830
ag2
(g22
S'\x85|\xd0\xb3Y\xb9m@'
p4831
tp4832
Rp4833
ag2
(g22
S'\x98n\x12\x83\xc0\xca\xd9?'
p4834
tp4835
Rp4836
ag2
(g22
S'\xc9v\xbe\x9f\x1a\xa7l@'
p4837
tp4838
Rp4839
aF0.804
aF0.395
aF0.336
aF0.000715
aF-8.031
aF0.0422
aF178.993
aF0.36
aa(lp4840
g2
(g3
(S'S10'
p4841
I0
I1
tp4842
Rp4843
(I3
S'|'
p4844
NNNI10
I1
I0
tp4845
bS'Dem a Talk'
p4846
tp4847
Rp4848
ag2
(g3
(S'S7'
p4849
I0
I1
tp4850
Rp4851
(I3
S'|'
p4852
NNNI7
I1
I0
tp4853
bS'Kiprich'
p4854
tp4855
Rp4856
ag2
(g22
S'=\x01_\xbaT\xe2\xe1?'
p4857
tp4858
Rp4859
ag2
(g22
S'\xf7\x16\x92\x9dc\xe4\xd8?'
p4860
tp4861
Rp4862
ag2
(g22
S'\xd74\xef8E\x0bj@'
p4863
tp4864
Rp4865
ag2
(g22
S'\x00\x00\x00\x00\x00\x00\x00\x00'
p4866
tp4867
Rp4868
ag2
(g22
S'\xa4p=\n\xd7_i@'
p4869
tp4870
Rp4871
aF0.211
aF0.622
aF0.909
aI0
aF-4.799
aF0.234
aF111.726
aF0.817
aa(lp4872
g2
(g3
(S'S25'
p4873
I0
I1
tp4874
Rp4875
(I3
S'|'
p4876
NNNI25
I1
I0
tp4877
bS'Roger Milla (Stadium Mix)'
p4878
tp4879
Rp4880
ag2
(g3
(S'S10'
p4881
I0
I1
tp4882
Rp4883
(I3
S'|'
p4884
NNNI10
I1
I0
tp4885
bS'Pepe Kalle'
p4886
tp4887
Rp4888
ag2
(g22
S'\xbb_D\x8a\xd8\x9a\xd5?'
p4889
tp4890
Rp4891
ag2
(g22
S'\x00\x00\x00\x00\x00\x00\x00\x00'
p4892
tp4893
Rp4894
ag2
(g22
S'\n\xbf\xd4\xcf\x1b\xe2v@'
p4895
tp4896
Rp4897
ag2
(g22
S'\xfc\xa9\xf1\xd2Mb\xc0?'
p4898
tp4899
Rp4900
ag2
(g22
S'\xe7\xfb\xa9\xf1\xd2\xfdu@'
p4901
tp4902
Rp4903
aF0.207
aF0.627
aF0.843
aF0.718
aF-9.432
aF0.0354
aF140.167
aF0.939
aa(lp4904
g2
(g3
(S'S25'
p4905
I0
I1
tp4906
Rp4907
(I3
S'|'
p4908
NNNI25
I1
I0
tp4909
bS'Forever Consumed Oblivion'
p4910
tp4911
Rp4912
ag2
(g3
(S'S9'
p4913
I0
I1
tp4914
Rp4915
(I3
S'|'
p4916
NNNI9
I1
I0
tp4917
bS'Goatwhore'
p4918
tp4919
Rp4920
ag2
(g22
S'\xf4\x97\x1f\x9a\xa4\xbe\xe8?'
p4921
tp4922
Rp4923
ag2
(g22
S"'g?\xee\x08\x80\xdb?"
p4924
tp4925
Rp4926
ag2
(g22
S'X\xadL\xf8\xa54l@'
p4927
tp4928
Rp4929
ag2
(g22
S'\x00\x00\x00\x00\x00\x00\x00\x00'
p4930
tp4931
Rp4932
ag2
(g22
S'\xa8\xc6K7\x89ek@'
p4933
tp4934
Rp4935
aF1.4e-05
aF0.287
aF0.995
aF0.0492
aF-3.779
aF0.264
aF124.685
aF0.0646
aa(lp4936
g2
(g3
(S'S43'
p4937
I0
I1
tp4938
Rp4939
(I3
S'|'
p4940
NNNI43
I1
I0
tp4941
bS'Irresistible! (Maurel & Fauvrelle LESS Mix)'
p4942
tp4943
Rp4944
ag2
(g3
(S'S11'
p4945
I0
I1
tp4946
Rp4947
(I3
S'|'
p4948
NNNI11
I1
I0
tp4949
bS'Superchumbo'
p4950
tp4951
Rp4952
ag2
(g22
S'l$\xcc\x9a\xe4\x82\xe1?'
p4953
tp4954
Rp4955
ag2
(g22
S'\xe4\x12\xda\x08\xadX\xd7?'
p4956
tp4957
Rp4958
ag2
(g22
S'\x0c\x93\xa9\x82\xd1\t\x85@'
p4959
tp4960
Rp4961
ag2
(g22
S'\x00\x00\x00\x00\x00\x00\x00\x00'
p4962
tp4963
Rp4964
ag2
(g22
S'm\xe7\xfb\xa9\xf1a\x84@'
p4965
tp4966
Rp4967
aF0.0666
aF0.733
aF0.967
aF0.919
aF-8.106
aF0.0748
aF127.998
aF0.636
aa(lp4968
g2
(g3
(S'S11'
p4969
I0
I1
tp4970
Rp4971
(I3
S'|'
p4972
NNNI11
I1
I0
tp4973
bS'Red Balloon'
p4974
tp4975
Rp4976
ag2
(g3
(S'S19'
p4977
I0
I1
tp4978
Rp4979
(I3
S'|'
p4980
NNNI19
I1
I0
tp4981
bS'We Show Up On Radar'
p4982
tp4983
Rp4984
ag2
(g22
S'\x86+\xe9\x8a\xb7\x03\xde?'
p4985
tp4986
Rp4987
ag2
(g22
S'OL\x82\xa2\xdf\xa5\xd8?'
p4988
tp4989
Rp4990
ag2
(g22
S'\xa7\x96\xad\xf5E\x1e_@'
p4991
tp4992
Rp4993
ag2
(g22
S'sh\x91\xed|?\x02@'
p4994
tp4995
Rp4996
ag2
(g22
S'\x00\x00\x00\x00\x00\xb8\\@'
p4997
tp4998
Rp4999
aF0.228
aF0.453
aF0.399
aF0.793
aF-11.147
aF0.029
aF79.378
aF0.0649
aa(lp5000
g2
(g3
(S'S15'
p5001
I0
I1
tp5002
Rp5003
(I3
S'|'
p5004
NNNI15
I1
I0
tp5005
bS'El Arte De Amar'
p5006
tp5007
Rp5008
ag2
(g3
(S'S17'
p5009
I0
I1
tp5010
Rp5011
(I3
S'|'
p5012
NNNI17
I1
I0
tp5013
bS'Gabinete Caligari'
p5014
tp5015
Rp5016
ag2
(g22
S'\xd3\xc2\x98\xf2qg\xdf?'
p5017
tp5018
Rp5019
ag2
(g22
S'\rJH;>\xe4\xd4?'
p5020
tp5021
Rp5022
ag2
(g22
S'\x13~\xa9\x9f7\x05s@'
p5023
tp5024
Rp5025
ag2
(g22
S'\xa6\x9b\xc4 \xb0\xf2\x12@'
p5026
tp5027
Rp5028
ag2
(g22
S'Zd;\xdfO\x8dr@'
p5029
tp5030
Rp5031
aF4.5e-06
aF0.469
aF0.849
aF0.191
aF-10.081
aF0.0355
aF109.067
aF0.644
aa(lp5032
g2
(g3
(S'S13'
p5033
I0
I1
tp5034
Rp5035
(I3
S'|'
p5036
NNNI13
I1
I0
tp5037
bS'Pinini Reggae'
p5038
tp5039
Rp5040
ag2
(g3
(S'S4'
p5041
I0
I1
tp5042
Rp5043
(I3
S'|'
p5044
NNNI4
I1
I0
tp5045
bS'SUMO'
p5046
tp5047
Rp5048
ag2
(g22
S'\x9e\xcdA\xe9o\x02\xe3?'
p5049
tp5050
Rp5051
ag2
(g22
S'\xe4\xd75\xbb\xcb*\xde?'
p5052
tp5053
Rp5054
ag2
(g22
S'\xe2;1\xeb\xc5\xe3j@'
p5055
tp5056
Rp5057
ag2
(g22
S'\x10X9\xb4\xc8v\xbe?'
p5058
tp5059
Rp5060
ag2
(g22
S'\x91\xed|?5rj@'
p5061
tp5062
Rp5063
aF0.0153
aF0.862
aF0.64
aF5.32e-06
aF-5.844
aF0.118
aF101.784
aF0.962
aa(lp5064
g2
(g3
(S'S16'
p5065
I0
I1
tp5066
Rp5067
(I3
S'|'
p5068
NNNI16
I1
I0
tp5069
bS'Rio Grande Waltz'
p5070
tp5071
Rp5072
ag2
(g3
(S'S12'
p5073
I0
I1
tp5074
Rp5075
(I3
S'|'
p5076
NNNI12
I1
I0
tp5077
bS'Hank Locklin'
p5078
tp5079
Rp5080
ag2
(g22
S'\xfe\xe8C\x1c\x1fX\xe4?'
p5081
tp5082
Rp5083
ag2
(g22
S'8\xa1\xaa\x02\xb2H\xd8?'
p5084
tp5085
Rp5086
ag2
(g22
S'6<\xbdR\x96\xa7b@'
p5087
tp5088
Rp5089
ag2
(g22
S'\x00\x00\x00\x00\x00\x00\x00\x00'
p5090
tp5091
Rp5092
ag2
(g22
S'\x83\xc0\xca\xa1E\x0eb@'
p5093
tp5094
Rp5095
aF0.982
aF0.613
aF0.318
aF2.75e-06
aF-9.778
aF0.028
aF98.452
aF0.711
aa(lp5096
g2
(g3
(S'S17'
p5097
I0
I1
tp5098
Rp5099
(I3
S'|'
p5100
NNNI17
I1
I0
tp5101
bS'Honey I Sugar Pie'
p5102
tp5103
Rp5104
ag2
(g3
(S'S21'
p5105
I0
I1
tp5106
Rp5107
(I3
S'|'
p5108
NNNI21
I1
I0
tp5109
bS'Tanto Metro & Devonte'
p5110
tp5111
Rp5112
ag2
(g22
S'm\xfa\xd8\xf5\xc4\x93\xe3?'
p5113
tp5114
Rp5115
ag2
(g22
S'HX\xe2\xbc\xee\x8c\xd5?'
p5116
tp5117
Rp5118
ag2
(g22
S'\xa2zk`\xab\xeai@'
p5119
tp5120
Rp5121
ag2
(g22
S'\xfe\xd4x\xe9&1\xc8?'
p5122
tp5123
Rp5124
ag2
(g22
S'\xa2E\xb6\xf3\xfd8i@'
p5125
tp5126
Rp5127
aF0.0275
aF0.754
aF0.702
aI0
aF-8.033
aF0.0429
aF95.998
aF0.736
aa(lp5128
g2
(g3
(S'S18'
p5129
I0
I1
tp5130
Rp5131
(I3
S'|'
p5132
NNNI18
I1
I0
tp5133
bS'Phylyps Trak II/II'
p5134
tp5135
Rp5136
ag2
(g3
(S'S13'
p5137
I0
I1
tp5138
Rp5139
(I3
S'|'
p5140
NNNI13
I1
I0
tp5141
bS'Basic Channel'
p5142
tp5143
Rp5144
ag2
(g22
S'\xc2\x1eb\x1fe\xb7\xe1?'
p5145
tp5146
Rp5147
ag2
(g22
S'#\xa2\xe6-\x86\r\xd7?'
p5148
tp5149
Rp5150
ag2
(g22
S'\xb5\xe0E_\x01\xcd\x88@'
p5151
tp5152
Rp5153
ag2
(g22
S'\x00\x00\x00\x00\x00\x00\xc0?'
p5154
tp5155
Rp5156
ag2
(g22
S'w\xbe\x9f\x1a/-\x88@'
p5157
tp5158
Rp5159
aF1.83e-05
aF0.87
aF0.707
aF0.962
aF-11.659
aF0.119
aF127.888
aF0.147
aa(lp5160
g2
(g3
(S'S17'
p5161
I0
I1
tp5162
Rp5163
(I3
S'|'
p5164
NNNI17
I1
I0
tp5165
bS'Stand By Your Man'
p5166
tp5167
Rp5168
ag2
(g3
(S'S13'
p5169
I0
I1
tp5170
Rp5171
(I3
S'|'
p5172
NNNI13
I1
I0
tp5173
bS'Tammy Wynette'
p5174
tp5175
Rp5176
ag2
(g22
S'\x86s\x18\xeeRe\xe3?'
p5177
tp5178
Rp5179
ag2
(g22
S'\xdd\x7f\xb2\x91D0\xda?'
p5180
tp5181
Rp5182
ag2
(g22
S'x\xee=\\r\xf3c@'
p5183
tp5184
Rp5185
ag2
(g22
S'y\xe9&1\x08\xac\xcc?'
p5186
tp5187
Rp5188
ag2
(g22
S"'1\x08\xac\x1c\x1ac@"
p5189
tp5190
Rp5191
aF0.776
aF0.563
aF0.331
aF0.000846
aF-9.681
aF0.0283
aF105.761
aF0.608
aa(lp5192
g2
(g3
(S'S27'
p5193
I0
I1
tp5194
Rp5195
(I3
S'|'
p5196
NNNI27
I1
I0
tp5197
bS'Acension Final Chord Rising'
p5198
tp5199
Rp5200
ag2
(g3
(S'S11'
p5201
I0
I1
tp5202
Rp5203
(I3
S'|'
p5204
NNNI11
I1
I0
tp5205
bS'Terry Riley'
p5206
tp5207
Rp5208
ag2
(g22
S'8;\xcdg\x99\x83\xe3?'
p5209
tp5210
Rp5211
ag2
(g22
S'\xddi\xc4\n\x8d9\xda?'
p5212
tp5213
Rp5214
ag2
(g22
S'A\x0eJ\x98i\xcda@'
p5215
tp5216
Rp5217
ag2
(g22
S'\xe9&1\x08\xac\x9c!@'
p5218
tp5219
Rp5220
ag2
(g22
S'L7\x89A`\x8d`@'
p5221
tp5222
Rp5223
aF0.944
aF0.137
aF0.0341
aF0.991
aF-38.653
aF0.0489
aF141.749
aF0.0282
aa(lp5224
g2
(g3
(S'S18'
p5225
I0
I1
tp5226
Rp5227
(I3
S'|'
p5228
NNNI18
I1
I0
tp5229
bS'Slimy Little Troll'
p5230
tp5231
Rp5232
ag2
(g3
(S'S14'
p5233
I0
I1
tp5234
Rp5235
(I3
S'|'
p5236
NNNI14
I1
I0
tp5237
bS'Mack and Jamie'
p5238
tp5239
Rp5240
ag2
(g22
S'\x7f\xce\xaes\x1f\xb5\xd7?'
p5241
tp5242
Rp5243
ag2
(g22
S'\xf9\x9d\xc3N\x90\n\xd1?'
p5244
tp5245
Rp5246
ag2
(g22
S'}\x91\xd0\x96s\x9bP@'
p5247
tp5248
Rp5249
ag2
(g22
S'\x00\x00\x00\x00\x00\x00\x00\x00'
p5250
tp5251
Rp5252
ag2
(g22
S'w\xbe\x9f\x1a/\xbdO@'
p5253
tp5254
Rp5255
aF0.836
aF0.659
aF0.258
aI0
aF-13.83
aF0.941
aF81.549
aF0.77
aa(lp5256
g2
(g3
(S'S14'
p5257
I0
I1
tp5258
Rp5259
(I3
S'|'
p5260
NNNI14
I1
I0
tp5261
bS'De Kommissar 1'
p5262
tp5263
Rp5264
ag2
(g3
(S'S8'
p5265
I0
I1
tp5266
Rp5267
(I3
S'|'
p5268
NNNI8
I1
I0
tp5269
bS'Der Plan'
p5270
tp5271
Rp5272
ag2
(g22
S'r\x00\xfa\xa9"\xc2\xdf?'
p5273
tp5274
Rp5275
ag2
(g22
S'dK8\xe0V9\xd6?'
p5276
tp5277
Rp5278
ag2
(g22
S'\xc1\xad\xbby\xaa\xab:@'
p5279
tp5280
Rp5281
ag2
(g22
S'\x00\x00\x00\x00\x00\x00\x00\x00'
p5282
tp5283
Rp5284
ag2
(g22
S'\xb2\x9d\xef\xa7\xc6\xab:@'
p5285
tp5286
Rp5287
aF0.93
aF0.426
aF0.00355
aF0.0672
aF-17.072
aF0.0664
aF135.372
aI0
aa(lp5288
g2
(g3
(S'S13'
p5289
I0
I1
tp5290
Rp5291
(I3
S'|'
p5292
NNNI13
I1
I0
tp5293
bS'Ice Cream Man'
p5294
tp5295
Rp5296
ag2
(g3
(S'S13'
p5297
I0
I1
tp5298
Rp5299
(I3
S'|'
p5300
NNNI13
I1
I0
tp5301
bS'Martin Sexton'
p5302
tp5303
Rp5304
ag2
(g22
S'\xb5F\xa4\xa6\xb0\x84\xe4?'
p5305
tp5306
Rp5307
ag2
(g22
S'\x9fSo\x0c\xbd\xb6\xdc?'
p5308
tp5309
Rp5310
ag2
(g22
S'Q\xa5f\x0f4\x0ev@'
p5311
tp5312
Rp5313
ag2
(g22
S'\x00\x00\x00\x00\x00\x00\x00\x00'
p5314
tp5315
Rp5316
ag2
(g22
S'\xac\x1cZd;]u@'
p5317
tp5318
Rp5319
aF0.0416
aF0.628
aF0.659
aF0.000554
aF-8.664
aF0.0728
aF133.811
aF0.42
aa(lp5320
g2
(g3
(S'S43'
p5321
I0
I1
tp5322
Rp5323
(I3
S'|'
p5324
NNNI43
I1
I0
tp5325
bS'Crawling Up A Hill - version 2 - mono_ live'
p5326
tp5327
Rp5328
ag2
(g3
(S'S31'
p5329
I0
I1
tp5330
Rp5331
(I3
S'|'
p5332
NNNI31
I1
I0
tp5333
bS'John Mayall & The Bluesbreakers'
p5334
tp5335
Rp5336
ag2
(g22
S'.\xa2Vc\xc5\x0e\xe4?'
p5337
tp5338
Rp5339
ag2
(g22
S'\xdc\xbd\x08|]\xef\xd9?'
p5340
tp5341
Rp5342
ag2
(g22
S'%\x06\x81\x95C\xd3a@'
p5343
tp5344
Rp5345
ag2
(g22
S')\\\x8f\xc2\xf5(\x00@'
p5346
tp5347
Rp5348
ag2
(g22
S'%\x06\x81\x95C\xd3a@'
p5349
tp5350
Rp5351
aF0.291
aF0.369
aF0.523
aF0.00351
aF-9.144
aF0.0326
aF121.435
aF0.843
aa(lp5352
g2
(g3
(S'S23'
p5353
I0
I1
tp5354
Rp5355
(I3
S'|'
p5356
NNNI23
I1
I0
tp5357
bS'A Brazilian in New York'
p5358
tp5359
Rp5360
ag2
(g3
(S'S10'
p5361
I0
I1
tp5362
Rp5363
(I3
S'|'
p5364
NNNI10
I1
I0
tp5365
bS'Luiz Bonfa'
p5366
tp5367
Rp5368
ag2
(g22
S"p'y\xbf\xb9\x93\xe1?"
p5369
tp5370
Rp5371
ag2
(g22
S'HY\n58>\xd6?'
p5372
tp5373
Rp5374
ag2
(g22
S'\xd8d\x8dz\x88\x1as@'
p5375
tp5376
Rp5377
ag2
(g22
S'\x00\x00\x00\x00\x00\x00\xc0?'
p5378
tp5379
Rp5380
ag2
(g22
S'F\xb6\xf3\xfd\xd4\x9cr@'
p5381
tp5382
Rp5383
aF0.939
aF0.496
aF0.17
aF0.657
aF-18.303
aF0.0449
aF104.311
aF0.251
aa(lp5384
g2
(g3
(S'S6'
p5385
I0
I1
tp5386
Rp5387
(I3
S'|'
p5388
NNNI6
I1
I0
tp5389
bS'Epilog'
p5390
tp5391
Rp5392
ag2
(g3
(S'S6'
p5393
I0
I1
tp5394
Rp5395
(I3
S'|'
p5396
NNNI6
I1
I0
tp5397
bS'Neviss'
p5398
tp5399
Rp5400
ag2
(g22
S'n\x9a\xae\xbb\x84%\xdc?'
p5401
tp5402
Rp5403
ag2
(g22
S'@N\xe1\xf6\x17H\xd1?'
p5404
tp5405
Rp5406
ag2
(g22
S'\x83\x17}\x05i\xb2J@'
p5407
tp5408
Rp5409
ag2
(g22
S'b\x10X9\xb4\xc8\x05@'
p5410
tp5411
Rp5412
ag2
(g22
S'\xac\x1cZd;\x8fG@'
p5413
tp5414
Rp5415
aF0.934
aF0.814
aF0.0649
aF0.0209
aF-24.801
aF0.951
aF100.539
aF0.73
aa(lp5416
g2
(g3
(S'S24'
p5417
I0
I1
tp5418
Rp5419
(I3
S'|'
p5420
NNNI24
I1
I0
tp5421
bS'De Bombacha Y Alpargatas'
p5422
tp5423
Rp5424
ag2
(g3
(S'S14'
p5425
I0
I1
tp5426
Rp5427
(I3
S'|'
p5428
NNNI14
I1
I0
tp5429
bS'Chango Spasiuk'
p5430
tp5431
Rp5432
ag2
(g22
S'\xf3\r\xcd\xab\xd2\xf7\xdd?'
p5433
tp5434
Rp5435
ag2
(g22
S'\x97QB\x83:K\xda?'
p5436
tp5437
Rp5438
ag2
(g22
S'\xed\xd3\xf1\x98\x81r`@'
p5439
tp5440
Rp5441
ag2
(g22
S'\x06\x81\x95C\x8bl\xc7?'
p5442
tp5443
Rp5444
ag2
(g22
S'\xe1z\x14\xaeG\xb1^@'
p5445
tp5446
Rp5447
aF0.0272
aF0.653
aF0.523
aF0.858
aF-13.112
aF0.221
aF97.505
aF0.51
aa(lp5448
g2
(g3
(S'S15'
p5449
I0
I1
tp5450
Rp5451
(I3
S'|'
p5452
NNNI15
I1
I0
tp5453
bS'Moon Going Down'
p5454
tp5455
Rp5456
ag2
(g3
(S'S14'
p5457
I0
I1
tp5458
Rp5459
(I3
S'|'
p5460
NNNI14
I1
I0
tp5461
bS'Charley Patton'
p5462
tp5463
Rp5464
ag2
(g22
S'\x14\xefj\x89\xaa`\xe2?'
p5465
tp5466
Rp5467
ag2
(g22
S'Y\x9cr\xaa\xb9\t\xd8?'
p5468
tp5469
Rp5470
ag2
(g22
S'\xd2\xc6\x11k\xf1\x93h@'
p5471
tp5472
Rp5473
ag2
(g22
S'\x17\xd9\xce\xf7S\xe3\xc5?'
p5474
tp5475
Rp5476
ag2
(g22
S'\xfc\xa9\xf1\xd2M\xd2g@'
p5477
tp5478
Rp5479
aF0.994
aF0.618
aF0.275
aF0.418
aF-14.77
aF0.0394
aF108.894
aF0.483
aa(lp5480
g2
(g3
(S'S16'
p5481
I0
I1
tp5482
Rp5483
(I3
S'|'
p5484
NNNI16
I1
I0
tp5485
bS'Raising Children'
p5486
tp5487
Rp5488
ag2
(g3
(S'S8'
p5489
I0
I1
tp5490
Rp5491
(I3
S'|'
p5492
NNNI8
I1
I0
tp5493
bS'The Race'
p5494
tp5495
Rp5496
ag2
(g22
S'\x85\x7f\xd3\xf1\xbe\x84\xe2?'
p5497
tp5498
Rp5499
ag2
(g22
S'\x19\x07\x178-\xac\xd7?'
p5500
tp5501
Rp5502
ag2
(g22
S'\xcf\xdam\x17\x9a%l@'
p5503
tp5504
Rp5505
ag2
(g22
S'\x00\x00\x00\x00\x00\x00\x00\x00'
p5506
tp5507
Rp5508
ag2
(g22
S'\xa0\x1a/\xdd$\xc6j@'
p5509
tp5510
Rp5511
aF2.02e-05
aF0.498
aF0.902
aF0.000527
aF-4.841
aF0.05
aF117.956
aF0.328
aa(lp5512
g2
(g3
(S'S16'
p5513
I0
I1
tp5514
Rp5515
(I3
S'|'
p5516
NNNI16
I1
I0
tp5517
bS'No seamos tontos'
p5518
tp5519
Rp5520
ag2
(g3
(S'S5'
p5521
I0
I1
tp5522
Rp5523
(I3
S'|'
p5524
NNNI5
I1
I0
tp5525
bS'Yahir'
p5526
tp5527
Rp5528
ag2
(g22
S'\x1f\x19@\x98\x07(\xe3?'
p5529
tp5530
Rp5531
ag2
(g22
S'#n\x10+6\xcd\xcd?'
p5532
tp5533
Rp5534
ag2
(g22
S'3\xf9f\x9b\x1b\x1ak@'
p5535
tp5536
Rp5537
ag2
(g22
S'\xdb\xf9~j\xbct\x03@'
p5538
tp5539
Rp5540
ag2
(g22
S'D\x8bl\xe7\xfb\xc5i@'
p5541
tp5542
Rp5543
aF0.641
aF0.583
aF0.719
aI0
aF-5.598
aF0.0267
aF131.927
aF0.347
aa(lp5544
g2
(g3
(S'S22'
p5545
I0
I1
tp5546
Rp5547
(I3
S'|'
p5548
NNNI22
I1
I0
tp5549
bS'My First Day At School'
p5550
tp5551
Rp5552
ag2
(g3
(S'S15'
p5553
I0
I1
tp5554
Rp5555
(I3
S'|'
p5556
NNNI15
I1
I0
tp5557
bS'Brian Dullaghan'
p5558
tp5559
Rp5560
ag2
(g22
S'p=\xd2\xaf\xd7\xa6\xd2?'
p5561
tp5562
Rp5563
ag2
(g22
S'\x17\xcc\x82\xc3\xa2w\xd4?'
p5564
tp5565
Rp5566
ag2
(g22
S'\xe3\x8d\xcc#\x7f\x9c[@'
p5567
tp5568
Rp5569
ag2
(g22
S'\xcb\xa1E\xb6\xf3\xfd\xe0?'
p5570
tp5571
Rp5572
ag2
(g22
S'\x14\xaeG\xe1z\x9c[@'
p5573
tp5574
Rp5575
aF0.428
aF0.683
aF0.287
aF5.93e-05
aF-21.844
aF0.0446
aF61.495
aF0.654
aa(lp5576
g2
(g3
(S'S30'
p5577
I0
I1
tp5578
Rp5579
(I3
S'|'
p5580
NNNI30
I1
I0
tp5581
bS'Everything You Touch Is a Song'
p5582
tp5583
Rp5584
ag2
(g3
(S'S10'
p5585
I0
I1
tp5586
Rp5587
(I3
S'|'
p5588
NNNI10
I1
I0
tp5589
bS'The Winans'
p5590
tp5591
Rp5592
ag2
(g22
S'\xd8\x92\xe4\xa5\x84\xdb\xde?'
p5593
tp5594
Rp5595
ag2
(g22
S'\x9aS\xa5\xd5W\x07\xd6?'
p5596
tp5597
Rp5598
ag2
(g22
S'<\xf7\x1e.\xb9\xf9s@'
p5599
tp5600
Rp5601
ag2
(g22
S'\x08\xac\x1cZd;\xd7?'
p5602
tp5603
Rp5604
ag2
(g22
S'!\xb0rh\x91Qs@'
p5605
tp5606
Rp5607
aF0.894
aF0.484
aF0.414
aF1.58e-05
aF-8.107
aF0.04
aF102.376
aF0.161
aa(lp5608
g2
(g3
(S'S11'
p5609
I0
I1
tp5610
Rp5611
(I3
S'|'
p5612
NNNI11
I1
I0
tp5613
bS'First Blood'
p5614
tp5615
Rp5616
ag2
(g3
(S'S15'
p5617
I0
I1
tp5618
Rp5619
(I3
S'|'
p5620
NNNI15
I1
I0
tp5621
bS'Jerry Goldsmith'
p5622
tp5623
Rp5624
ag2
(g22
S'\xc0>cE\xc1\xd2\xe4?'
p5625
tp5626
Rp5627
ag2
(g22
S'/V\xd1\xac\xf5\x1f\xdb?'
p5628
tp5629
Rp5630
ag2
(g22
S'\xa3@\x9f\xc8\x93\x94q@'
p5631
tp5632
Rp5633
ag2
(g22
S'\x14\xaeG\xe1z\x14\xde?'
p5634
tp5635
Rp5636
ag2
(g22
S'/\xdd$\x06\x81\xc7p@'
p5637
tp5638
Rp5639
aF0.879
aF0.268
aF0.241
aF0.0355
aF-12.913
aF0.0334
aF87.679
aF0.12
aa(lp5640
g2
(g3
(S'S22'
p5641
I0
I1
tp5642
Rp5643
(I3
S'|'
p5644
NNNI22
I1
I0
tp5645
bS"Mary Jane's Last Dance"
p5646
tp5647
Rp5648
ag2
(g3
(S'S31'
p5649
I0
I1
tp5650
Rp5651
(I3
S'|'
p5652
NNNI31
I1
I0
tp5653
bS'Tom Petty And The Heartbreakers'
p5654
tp5655
Rp5656
ag2
(g22
S'\xab\x17\x8a\x03o\xf4\xe8?'
p5657
tp5658
Rp5659
ag2
(g22
S'\xc8f\xfdd\xed/\xe2?'
p5660
tp5661
Rp5662
ag2
(g22
S'\xe9}\xe3kO#q@'
p5663
tp5664
Rp5665
ag2
(g22
S'+\x87\x16\xd9\xce\xf7\x05@'
p5666
tp5667
Rp5668
ag2
(g22
S'\xaa\xf1\xd2Mblp@'
p5669
tp5670
Rp5671
aF0.0383
aF0.402
aF0.814
aF1.19e-06
aF-4.954
aF0.14
aF170.02
aF0.516
aa(lp5672
g2
(g3
(S'S16'
p5673
I0
I1
tp5674
Rp5675
(I3
S'|'
p5676
NNNI16
I1
I0
tp5677
bS'Daughter Of Zion'
p5678
tp5679
Rp5680
ag2
(g3
(S'S13'
p5681
I0
I1
tp5682
Rp5683
(I3
S'|'
p5684
NNNI13
I1
I0
tp5685
bS'Winston Reedy'
p5686
tp5687
Rp5688
ag2
(g22
S'\x05>w\xc5\x96\xbe\xdb?'
p5689
tp5690
Rp5691
ag2
(g22
S'\xce\x8a\x91\x06\xc5\x8d\xd2?'
p5692
tp5693
Rp5694
ag2
(g22
S'U\xf6]\x11\xfcxm@'
p5695
tp5696
Rp5697
ag2
(g22
S'\x00\x00\x00\x00\x00\x00\x00\x00'
p5698
tp5699
Rp5700
ag2
(g22
S'\xe1z\x14\xaeG\x05l@'
p5701
tp5702
Rp5703
aF0.0104
aF0.799
aF0.278
aF0.00543
aF-10.381
aF0.0814
aF82.018
aF0.609
aa(lp5704
g2
(g3
(S'S17'
p5705
I0
I1
tp5706
Rp5707
(I3
S'|'
p5708
NNNI17
I1
I0
tp5709
bS'Ni Gota De Rencor'
p5710
tp5711
Rp5712
ag2
(g3
(S'S13'
p5713
I0
I1
tp5714
Rp5715
(I3
S'|'
p5716
NNNI13
I1
I0
tp5717
bS'Pablo Montero'
p5718
tp5719
Rp5720
ag2
(g22
S'\xd0\x14h\xff_{\xe1?'
p5721
tp5722
Rp5723
ag2
(g22
S'\xe5\x93\r\xed\xb7\xd5\xd3?'
p5724
tp5725
Rp5726
ag2
(g22
S'\xda\xe1\xaf\xc9\x1a\xfeh@'
p5727
tp5728
Rp5729
ag2
(g22
S'\\\x8f\xc2\xf5(\\\xd7?'
p5730
tp5731
Rp5732
ag2
(g22
S'`\xe5\xd0"\xdbyh@'
p5733
tp5734
Rp5735
aF0.806
aF0.595
aF0.375
aI0
aF-7.333
aF0.0256
aF99.756
aF0.729
aa(lp5736
g2
(g3
(S'S5'
p5737
I0
I1
tp5738
Rp5739
(I3
S'|'
p5740
NNNI5
I1
I0
tp5741
bS'Maria'
p5742
tp5743
Rp5744
ag2
(g3
(S'S10'
p5745
I0
I1
tp5746
Rp5747
(I3
S'|'
p5748
NNNI10
I1
I0
tp5749
bS'Papa Wemba'
p5750
tp5751
Rp5752
ag2
(g22
S'\xc8W\x9e\x0f\xceW\xe1?'
p5753
tp5754
Rp5755
ag2
(g22
S'\xe8\x85\xd10\xa2\xbe\xda?'
p5756
tp5757
Rp5758
ag2
(g22
S'8\xa1\x10\x01\x87iq@'
p5759
tp5760
Rp5761
ag2
(g22
S"'1\x08\xac\x1cZ\xc4?"
p5762
tp5763
Rp5764
ag2
(g22
S'1\x08\xac\x1cZ\xfcp@'
p5765
tp5766
Rp5767
aF0.0529
aF0.506
aF0.62
aF9.15e-06
aF-14.099
aF0.0299
aF94.895
aF0.957
aa(lp5768
g2
(g3
(S'S16'
p5769
I0
I1
tp5770
Rp5771
(I3
S'|'
p5772
NNNI16
I1
I0
tp5773
bS'Come To Find Out'
p5774
tp5775
Rp5776
ag2
(g3
(S'S12'
p5777
I0
I1
tp5778
Rp5779
(I3
S'|'
p5780
NNNI12
I1
I0
tp5781
bS'John Hammond'
p5782
tp5783
Rp5784
ag2
(g22
S'\xde\xfa\x91\xd5\xf4\xe6\xe2?'
p5785
tp5786
Rp5787
ag2
(g22
S'/\x17\xfd\xaa\xf7\xfa\xdc?'
p5788
tp5789
Rp5790
ag2
(g22
S'vl\x04\xe2u\xean@'
p5791
tp5792
Rp5793
ag2
(g22
S'\xf8S\xe3\xa5\x9b\xc4\xc0?'
p5794
tp5795
Rp5796
ag2
(g22
S'1\x08\xac\x1cZ\xa8m@'
p5797
tp5798
Rp5799
aF0.687
aF0.503
aF0.399
aF6.04e-06
aF-7.468
aF0.0343
aF89.638
aF0.334
aa(lp5800
g2
(g3
(S'S12'
p5801
I0
I1
tp5802
Rp5803
(I3
S'|'
p5804
NNNI12
I1
I0
tp5805
bS'French Touch'
p5806
tp5807
Rp5808
ag2
(g3
(S'S16'
p5809
I0
I1
tp5810
Rp5811
(I3
S'|'
p5812
NNNI16
I1
I0
tp5813
bS'Richard Galliano'
p5814
tp5815
Rp5816
ag2
(g22
S'\xd4\x19\xa0x\x18I\xe2?'
p5817
tp5818
Rp5819
ag2
(g22
S'g6\x8f5D\x18\xdb?'
p5820
tp5821
Rp5822
ag2
(g22
S'\tm9\x97\xe2"i@'
p5823
tp5824
Rp5825
ag2
(g22
S'\x9c\xc4 \xb0rh\xc1?'
p5826
tp5827
Rp5828
ag2
(g22
S'j\xbct\x93\x18|g@'
p5829
tp5830
Rp5831
aF0.265
aF0.499
aF0.734
aF7.89e-05
aF-6.984
aF0.173
aF84.254
aF0.78
aa(lp5832
g2
(g3
(S'S7'
p5833
I0
I1
tp5834
Rp5835
(I3
S'|'
p5836
NNNI7
I1
I0
tp5837
bS'56 Days'
p5838
tp5839
Rp5840
ag2
(g3
(S'S11'
p5841
I0
I1
tp5842
Rp5843
(I3
S'|'
p5844
NNNI11
I1
I0
tp5845
bS'Pride Tiger'
p5846
tp5847
Rp5848
ag2
(g22
S'\xd3*\x9d\xbaW\x9b\xe2?'
p5849
tp5850
Rp5851
ag2
(g22
S'<\xc2\x18\x0b\xf6g\xd8?'
p5852
tp5853
Rp5854
ag2
(g22
S'\xde\x1f\xefU+\xa7l@'
p5855
tp5856
Rp5857
ag2
(g22
S"'1\x08\xac\x1cZ\xc4?"
p5858
tp5859
Rp5860
ag2
(g22
S'\x9c\xc4 \xb0r\x10l@'
p5861
tp5862
Rp5863
aF0.002
aF0.481
aF0.943
aI0
aF-2.041
aF0.0635
aF114.095
aF0.53
aa(lp5864
g2
(g3
(S'S22'
p5865
I0
I1
tp5866
Rp5867
(I3
S'|'
p5868
NNNI22
I1
I0
tp5869
bS'Victim Of Circumstance'
p5870
tp5871
Rp5872
ag2
(g3
(S'S15'
p5873
I0
I1
tp5874
Rp5875
(I3
S'|'
p5876
NNNI15
I1
I0
tp5877
bS'Ten Years After'
p5878
tp5879
Rp5880
ag2
(g22
S'`\x844\x98Q\xde\xe5?'
p5881
tp5882
Rp5883
ag2
(g22
S'\xf6F\x0b\x1b\xbb\xa3\xdd?'
p5884
tp5885
Rp5886
ag2
(g22
S'\x83\xc0\xca\xa1E\x19o@'
p5887
tp5888
Rp5889
ag2
(g22
S'\x00\x00\x00\x00\x00\x00\x00\x00'
p5890
tp5891
Rp5892
ag2
(g22
S'\xe1z\x14\xaeG\x19o@'
p5893
tp5894
Rp5895
aF0.0596
aF0.297
aF0.97
aF0.431
aF-8.815
aF0.0579
aF127.728
aF0.561
aa(lp5896
g2
(g3
(S'S8'
p5897
I0
I1
tp5898
Rp5899
(I3
S'|'
p5900
NNNI8
I1
I0
tp5901
bS'Airheads'
p5902
tp5903
Rp5904
ag2
(g3
(S'S5'
p5905
I0
I1
tp5906
Rp5907
(I3
S'|'
p5908
NNNI5
I1
I0
tp5909
bS'Sweet'
p5910
tp5911
Rp5912
ag2
(g22
S'\x88\x0c\xf3\x03V\xc2\xe4?'
p5913
tp5914
Rp5915
ag2
(g22
S'\xf6a\xcf\xf4\x1bF\xe0?'
p5916
tp5917
Rp5918
ag2
(g22
S'\x91~\xfb:p\xees@'
p5919
tp5920
Rp5921
ag2
(g22
S'\xc3\xf5(\\\x8f\xc2\xd5?'
p5922
tp5923
Rp5924
ag2
(g22
S')\\\x8f\xc2\xf5\x1es@'
p5925
tp5926
Rp5927
aF0.0921
aF0.439
aF0.72
aF3.69e-06
aF-4.789
aF0.027
aF84.136
aF0.352
aa(lp5928
g2
(g3
(S'S9'
p5929
I0
I1
tp5930
Rp5931
(I3
S'|'
p5932
NNNI9
I1
I0
tp5933
bS'Bubblegum'
p5934
tp5935
Rp5936
ag2
(g3
(S'S10'
p5937
I0
I1
tp5938
Rp5939
(I3
S'|'
p5940
NNNI10
I1
I0
tp5941
bS'Helen Love'
p5942
tp5943
Rp5944
ag2
(g22
S'\xb9\xbeo\xf2\xcb\x9e\xe2?'
p5945
tp5946
Rp5947
ag2
(g22
S'\x97n8\x84\\5\xd6?'
p5948
tp5949
Rp5950
ag2
(g22
S'\xaa\x9a \xea>9b@'
p5951
tp5952
Rp5953
ag2
(g22
S'\xfe\xd4x\xe9&1\xd0?'
p5954
tp5955
Rp5956
ag2
(g22
S'\xb2\x9d\xef\xa7\xc6\x7fa@'
p5957
tp5958
Rp5959
aF0.202
aF0.678
aF0.512
aF2.67e-06
aF-8.783
aF0.0376
aF78.044
aF0.675
aa(lp5960
g2
(g3
(S'S16'
p5961
I0
I1
tp5962
Rp5963
(I3
S'|'
p5964
NNNI16
I1
I0
tp5965
bS'Heart Half Empty'
p5966
tp5967
Rp5968
ag2
(g3
(S'S28'
p5969
I0
I1
tp5970
Rp5971
(I3
S'|'
p5972
NNNI28
I1
I0
tp5973
bS'Ty Herndon;Stephanie Bentley'
p5974
tp5975
Rp5976
ag2
(g22
S't\x07\x93\x04\xda\xf2\xe4?'
p5977
tp5978
Rp5979
ag2
(g22
S'\xd9\xf4\x96L\x80\xd9\xdc?'
p5980
tp5981
Rp5982
ag2
(g22
S'\xdc\xd7\x81sFvr@'
p5983
tp5984
Rp5985
ag2
(g22
S';\xdfO\x8d\x97n\xd2?'
p5986
tp5987
Rp5988
ag2
(g22
S'\x12\x83\xc0\xca\xa1\xc1q@'
p5989
tp5990
Rp5991
aF0.415
aF0.529
aF0.509
aI0
aF-8.926
aF0.0253
aF142.311
aF0.27
aa(lp5992
g2
(g3
(S'S9'
p5993
I0
I1
tp5994
Rp5995
(I3
S'|'
p5996
NNNI9
I1
I0
tp5997
bS'The Flame'
p5998
tp5999
Rp6000
ag2
(g3
(S'S8'
p6001
I0
I1
tp6002
Rp6003
(I3
S'|'
p6004
NNNI8
I1
I0
tp6005
bS'Chimaira'
p6006
tp6007
Rp6008
ag2
(g22
S'\xa1\xec!6d\xcc\xea?'
p6009
tp6010
Rp6011
ag2
(g22
S'\xbb\xca\x0c\x03@\x83\xde?'
p6012
tp6013
Rp6014
ag2
(g22
S'\x7f0\xf0\xdc\xfb2t@'
p6015
tp6016
Rp6017
ag2
(g22
S'\x00\x00\x00\x00\x00\x00\x00\x00'
p6018
tp6019
Rp6020
ag2
(g22
S'\xe5\xd0"\xdb\xf92t@'
p6021
tp6022
Rp6023
aF0.000308
aF0.471
aF0.971
aF5.21e-05
aF-5.253
aF0.143
aF150.055
aF0.116
aa(lp6024
g2
(g3
(S'S22'
p6025
I0
I1
tp6026
Rp6027
(I3
S'|'
p6028
NNNI22
I1
I0
tp6029
bS'I Will Always Love You'
p6030
tp6031
Rp6032
ag2
(g3
(S'S13'
p6033
I0
I1
tp6034
Rp6035
(I3
S'|'
p6036
NNNI13
I1
I0
tp6037
bS'Deborah Allen'
p6038
tp6039
Rp6040
ag2
(g22
S'WI\xc0\x11uX\xe0?'
p6041
tp6042
Rp6043
ag2
(g22
S'\n\x92\x03\xd6\x06\x8b\xd6?'
p6044
tp6045
Rp6046
ag2
(g22
S'\x98//\xc0>\xb2g@'
p6047
tp6048
Rp6049
ag2
(g22
S'\x00\x00\x00\x00\x00\x00\x00\x00'
p6050
tp6051
Rp6052
ag2
(g22
S'\x8bl\xe7\xfb\xa9]f@'
p6053
tp6054
Rp6055
aF0.771
aF0.382
aF0.14
aF2.49e-06
aF-9.727
aF0.0293
aF132.916
aF0.186
aa(lp6056
g2
(g3
(S'S13'
p6057
I0
I1
tp6058
Rp6059
(I3
S'|'
p6060
NNNI13
I1
I0
tp6061
bS'Be Good To Me'
p6062
tp6063
Rp6064
ag2
(g3
(S'S28'
p6065
I0
I1
tp6066
Rp6067
(I3
S'|'
p6068
NNNI28
I1
I0
tp6069
bS'Sonny Terry & Brownie McGhee'
p6070
tp6071
Rp6072
ag2
(g22
S'\x0cV_|L\x8c\xe0?'
p6073
tp6074
Rp6075
ag2
(g22
S'\x8c\xa9\xe0\xd9\x9d\x0c\xd7?'
p6076
tp6077
Rp6078
ag2
(g22
S'1\xd3\xf6\xaf\xac\x14e@'
p6079
tp6080
Rp6081
ag2
(g22
S'y\xe9&1\x08\xac\xcc?'
p6082
tp6083
Rp6084
ag2
(g22
S"'1\x08\xac\x1c\x82d@"
p6085
tp6086
Rp6087
aF0.657
aF0.552
aF0.293
aI0
aF-14.803
aF0.0363
aF86.514
aF0.558
aa(lp6088
g2
(g3
(S'S22'
p6089
I0
I1
tp6090
Rp6091
(I3
S'|'
p6092
NNNI22
I1
I0
tp6093
bS'Answer In The Question'
p6094
tp6095
Rp6096
ag2
(g3
(S'S4'
p6097
I0
I1
tp6098
Rp6099
(I3
S'|'
p6100
NNNI4
I1
I0
tp6101
bS'MxPx'
p6102
tp6103
Rp6104
ag2
(g22
S'\xfe\x076\x06\x95j\xe8?'
p6105
tp6106
Rp6107
ag2
(g22
S'\xbbx\xcc\x84\xa34\xe1?'
p6108
tp6109
Rp6110
ag2
(g22
S'\x9c\x16\xbc\xe8+<`@'
p6111
tp6112
Rp6113
ag2
(g22
S'\x0c\x02+\x87\x16\xd9\xce?'
p6114
tp6115
Rp6116
ag2
(g22
S'\\\x8f\xc2\xf5(<`@'
p6117
tp6118
Rp6119
aF0.00628
aF0.439
aF0.951
aI0
aF-3.265
aF0.0573
aF130.769
aF0.553
aa(lp6120
g2
(g3
(S'S37'
p6121
I0
I1
tp6122
Rp6123
(I3
S'|'
p6124
NNNI37
I1
I0
tp6125
bS'Lonesome Road (1995 Digital Remaster)'
p6126
tp6127
Rp6128
ag2
(g3
(S'S29'
p6129
I0
I1
tp6130
Rp6131
(I3
S'|'
p6132
NNNI29
I1
I0
tp6133
bS'Dean Elliott And His Big Band'
p6134
tp6135
Rp6136
ag2
(g22
S'\xec\xab\x10]1\xe8\xda?'
p6137
tp6138
Rp6139
ag2
(g22
S'\nf\x86\x81\xac\x8e\xd4?'
p6140
tp6141
Rp6142
ag2
(g22
S'{\xa0\x15\x18\xb2\xcab@'
p6143
tp6144
Rp6145
ag2
(g22
S'V\x0e-\xb2\x9d\xef\xd7?'
p6146
tp6147
Rp6148
ag2
(g22
S'\xd1"\xdb\xf9~*b@'
p6149
tp6150
Rp6151
aF0.127
aF0.822
aF0.604
aF0.00421
aF-10.969
aF0.188
aF119.961
aF0.777
aa(lp6152
g2
(g3
(S'S36'
p6153
I0
I1
tp6154
Rp6155
(I3
S'|'
p6156
NNNI36
I1
I0
tp6157
bS'Liquid Frequencies (liquid Soul Mix)'
p6158
tp6159
Rp6160
ag2
(g3
(S'S18'
p6161
I0
I1
tp6162
Rp6163
(I3
S'|'
p6164
NNNI18
I1
I0
tp6165
bS'liquid soul & freq'
p6166
tp6167
Rp6168
ag2
(g22
S'\xa2w\xdf\xdb\xd5 \xe4?'
p6169
tp6170
Rp6171
ag2
(g22
S'o\x12r\xce\xa9)\xd7?'
p6172
tp6173
Rp6174
ag2
(g22
S'}\xae\xb6b\xff)y@'
p6175
tp6176
Rp6177
ag2
(g22
S'D\x8bl\xe7\xfb\xa9\xd1?'
p6178
tp6179
Rp6180
ag2
(g22
S'Zd;\xdfO\xe9x@'
p6181
tp6182
Rp6183
aF0.893
aF0.0901
aF0.152
aF0.892
aF-22.501
aF0.0414
aF86.09
aF0.0355
aa(lp6184
g2
(g3
(S'S10'
p6185
I0
I1
tp6186
Rp6187
(I3
S'|'
p6188
NNNI10
I1
I0
tp6189
bS'Banana Man'
p6190
tp6191
Rp6192
ag2
(g3
(S'S12'
p6193
I0
I1
tp6194
Rp6195
(I3
S'|'
p6196
NNNI12
I1
I0
tp6197
bS'C.J. Chenier'
p6198
tp6199
Rp6200
ag2
(g22
S'\x80\xf0\xd1\\c\xb7\xe0?'
p6201
tp6202
Rp6203
ag2
(g22
S"\x06iW\x9f\xdc'\xd8?"
p6204
tp6205
Rp6206
ag2
(g22
S'T\xc6\xbf\xcf\xb8\xaag@'
p6207
tp6208
Rp6209
ag2
(g22
S'Nb\x10X9\xb4\xd8?'
p6210
tp6211
Rp6212
ag2
(g22
S'q=\n\xd7\xa3\xd8f@'
p6213
tp6214
Rp6215
aF0.305
aF0.459
aF0.661
aF0.0141
aF-8.016
aF0.0404
aF111.311
aF0.698
aa(lp6216
g2
(g3
(S'S14'
p6217
I0
I1
tp6218
Rp6219
(I3
S'|'
p6220
NNNI14
I1
I0
tp6221
bS'El Cara Bonita'
p6222
tp6223
Rp6224
ag2
(g3
(S'S15'
p6225
I0
I1
tp6226
Rp6227
(I3
S'|'
p6228
NNNI15
I1
I0
tp6229
bS'Mercedes Castro'
p6230
tp6231
Rp6232
ag2
(g22
S'BtS|\x08\xe3\xdb?'
p6233
tp6234
Rp6235
ag2
(g22
S'p\xe6\xe4"\xfc\xdf\xd7?'
p6236
tp6237
Rp6238
ag2
(g22
S'\xa2E\xb6\xf3\xfd7`@'
p6239
tp6240
Rp6241
ag2
(g22
S'\x00\x00\x00\x00\x00\x00\x00\x00'
p6242
tp6243
Rp6244
ag2
(g22
S'\xc5 \xb0rhA_@'
p6245
tp6246
Rp6247
aF0.714
aF0.777
aF0.586
aF6.06e-05
aF-6.859
aF0.0699
aF129.338
aF0.974
aa(lp6248
g2
(g3
(S'S9'
p6249
I0
I1
tp6250
Rp6251
(I3
S'|'
p6252
NNNI9
I1
I0
tp6253
bS'Chocolate'
p6254
tp6255
Rp6256
ag2
(g3
(S'S11'
p6257
I0
I1
tp6258
Rp6259
(I3
S'|'
p6260
NNNI11
I1
I0
tp6261
bS'Snow Patrol'
p6262
tp6263
Rp6264
ag2
(g22
S'g\xed\xa5\x14\xac/\xea?'
p6265
tp6266
Rp6267
ag2
(g22
S'\x82\xc2"2zZ\xe5?'
p6268
tp6269
Rp6270
ag2
(g22
S'\xc5=\x96>t\xb2f@'
p6271
tp6272
Rp6273
ag2
(g22
S'\xf8S\xe3\xa5\x9b\xc4\r@'
p6274
tp6275
Rp6276
ag2
(g22
S'\x04V\x0e-\xb2\xa1e@'
p6277
tp6278
Rp6279
aF0.000316
aF0.578
aF0.814
aF0.00578
aF-4.297
aF0.0323
aF118.166
aF0.439
aa(lp6280
g2
(g3
(S'S20'
p6281
I0
I1
tp6282
Rp6283
(I3
S'|'
p6284
NNNI20
I1
I0
tp6285
bS'Anillo de compromiso'
p6286
tp6287
Rp6288
ag2
(g3
(S'S17'
p6289
I0
I1
tp6290
Rp6291
(I3
S'|'
p6292
NNNI17
I1
I0
tp6293
bS'Antonio Bribiesca'
p6294
tp6295
Rp6296
ag2
(g22
S'\xa7TM^\xb4k\xd6?'
p6297
tp6298
Rp6299
ag2
(g22
S'R \xd0RP=\xd1?'
p6300
tp6301
Rp6302
ag2
(g22
S'S?o*R\xbdf@'
p6303
tp6304
Rp6305
ag2
(g22
S'\x00\x00\x00\x00\x00\x00\x00\x00'
p6306
tp6307
Rp6308
ag2
(g22
S'\xe5\xd0"\xdb\xf9"f@'
p6309
tp6310
Rp6311
aF0.936
aF0.64
aF0.283
aF0.89
aF-13.575
aF0.0709
aF141.75
aF0.446
aa(lp6312
g2
(g3
(S'S18'
p6313
I0
I1
tp6314
Rp6315
(I3
S'|'
p6316
NNNI18
I1
I0
tp6317
bS'For Your Eyes Only'
p6318
tp6319
Rp6320
ag2
(g3
(S'S8'
p6321
I0
I1
tp6322
Rp6323
(I3
S'|'
p6324
NNNI8
I1
I0
tp6325
bS'Pinchers'
p6326
tp6327
Rp6328
ag2
(g22
S'\xff\xc8\xb3\x13I\xde\xe1?'
p6329
tp6330
Rp6331
ag2
(g22
S'AV!(\xed\xcc\xd5?'
p6332
tp6333
Rp6334
ag2
(g22
S'e\x01\x13\xb8uch@'
p6335
tp6336
Rp6337
ag2
(g22
S'\x8bl\xe7\xfb\xa9\xf1\xc2?'
p6338
tp6339
Rp6340
ag2
(g22
S'\x19\x04V\x0e-\xaag@'
p6341
tp6342
Rp6343
aF0.0673
aF0.608
aF0.51
aI0
aF-7.078
aF0.0519
aF158.263
aF0.61
aa(lp6344
g2
(g3
(S'S17'
p6345
I0
I1
tp6346
Rp6347
(I3
S'|'
p6348
NNNI17
I1
I0
tp6349
bS'Welcome 2 Detroit'
p6350
tp6351
Rp6352
ag2
(g3
(S'S20'
p6353
I0
I1
tp6354
Rp6355
(I3
S'|'
p6356
NNNI20
I1
I0
tp6357
bS'Trick Trick / Eminem'
p6358
tp6359
Rp6360
ag2
(g22
S'L\x01\xc2[\xe4W\xe3?'
p6361
tp6362
Rp6363
ag2
(g22
S'@\xd6\xb1\xd1\xc7\xfd\xd8?'
p6364
tp6365
Rp6366
ag2
(g22
S'\xff\xe70_\xde\xd7q@'
p6367
tp6368
Rp6369
ag2
(g22
S'\x8bl\xe7\xfb\xa9\xf1\xb2?'
p6370
tp6371
Rp6372
ag2
(g22
S'\x8d\x97n\x12\x83*q@'
p6373
tp6374
Rp6375
aF0.14
aF0.583
aF0.779
aI0
aF-4.59
aF0.299
aF91.168
aF0.63
aa(lp6376
g2
(g3
(S'S7'
p6377
I0
I1
tp6378
Rp6379
(I3
S'|'
p6380
NNNI7
I1
I0
tp6381
bS'HISTORY'
p6382
tp6383
Rp6384
ag2
(g3
(S'S15'
p6385
I0
I1
tp6386
Rp6387
(I3
S'|'
p6388
NNNI15
I1
I0
tp6389
bS'Michael Jackson'
p6390
tp6391
Rp6392
ag2
(g22
S':\xf1\\\xd2\x88\xba\xeb?'
p6393
tp6394
Rp6395
ag2
(g22
S"'\xce<S\x8a\x87\xe8?"
p6396
tp6397
Rp6398
ag2
(g22
S'\x12\xbd\x8cb\xb9?o@'
p6399
tp6400
Rp6401
ag2
(g22
S'\xf8S\xe3\xa5\x9b\xc4\xc0?'
p6402
tp6403
Rp6404
ag2
(g22
S'\xe3\xa5\x9b\xc4 |n@'
p6405
tp6406
Rp6407
aF0.474
aF0.43
aF0.594
aI0
aF-7.74
aF0.12
aF93.906
aF0.456
aa(lp6408
g2
(g3
(S'S21'
p6409
I0
I1
tp6410
Rp6411
(I3
S'|'
p6412
NNNI21
I1
I0
tp6413
bS'Travel Song (Reprise)'
p6414
tp6415
Rp6416
ag2
(g3
(S'S17'
p6417
I0
I1
tp6418
Rp6419
(I3
S'|'
p6420
NNNI17
I1
I0
tp6421
bS'Dora The Explorer'
p6422
tp6423
Rp6424
ag2
(g22
S'\xb9S\xdc\x82\x15v\xe0?'
p6425
tp6426
Rp6427
ag2
(g22
S'\xf2\x93\x97e\x01{\xda?'
p6428
tp6429
Rp6430
ag2
(g22
S'!\x02\x0e\xa1J?Q@'
p6431
tp6432
Rp6433
ag2
(g22
S'\x00\x00\x00\x00\x00\x00\x00\x00'
p6434
tp6435
Rp6436
ag2
(g22
S'\xdb\xf9~j\xbcdO@'
p6437
tp6438
Rp6439
aF0.654
aF0.826
aF0.881
aF0.435
aF-6.637
aF0.0593
aF124.026
aF0.926
aa(lp6440
g2
(g3
(S'S19'
p6441
I0
I1
tp6442
Rp6443
(I3
S'|'
p6444
NNNI19
I1
I0
tp6445
bS'Midnight In Memphis'
p6446
tp6447
Rp6448
ag2
(g3
(S'S9'
p6449
I0
I1
tp6450
Rp6451
(I3
S'|'
p6452
NNNI9
I1
I0
tp6453
bS'J.J. Cale'
p6454
tp6455
Rp6456
ag2
(g22
S'\xa9n\x82G\xeb\x9f\xe5?'
p6457
tp6458
Rp6459
ag2
(g22
S'\xd5\xac\xb5\xf1\xb8\xde\xdb?'
p6460
tp6461
Rp6462
ag2
(g22
S'\xed\xf0\xd7d\r\x7fp@'
p6463
tp6464
Rp6465
ag2
(g22
S'\xa4p=\n\xd7\xa3\xc0?'
p6466
tp6467
Rp6468
ag2
(g22
S"'1\x08\xac\x1cNp@"
p6469
tp6470
Rp6471
aF0.169
aF0.774
aF0.428
aF0.676
aF-14.134
aF0.0345
aF111.328
aF0.866
aa(lp6472
g2
(g3
(S'S10'
p6473
I0
I1
tp6474
Rp6475
(I3
S'|'
p6476
NNNI10
I1
I0
tp6477
bS'Feelin You'
p6478
tp6479
Rp6480
ag2
(g3
(S'S8'
p6481
I0
I1
tp6482
Rp6483
(I3
S'|'
p6484
NNNI8
I1
I0
tp6485
bS'DJ Spinn'
p6486
tp6487
Rp6488
ag2
(g22
S'\x84\x9e\xe0\xe2k}\xe0?'
p6489
tp6490
Rp6491
ag2
(g22
S'Q\x07`\xf8\xe4\xb0\xd0?'
p6492
tp6493
Rp6494
ag2
(g22
S'\xdb\xbf\xb2\xd2$\x8fs@'
p6495
tp6496
Rp6497
ag2
(g22
S'\x00\x00\x00\x00\x00\x00\x00\x00'
p6498
tp6499
Rp6500
ag2
(g22
S'\x08\xac\x1cZd\xb3r@'
p6501
tp6502
Rp6503
aF0.00412
aF0.776
aF0.382
aF0.863
aF-6.089
aF0.322
aF160.08
aF0.704
aa(lp6504
g2
(g3
(S'S16'
p6505
I0
I1
tp6506
Rp6507
(I3
S'|'
p6508
NNNI16
I1
I0
tp6509
bS'This Time I Know'
p6510
tp6511
Rp6512
ag2
(g3
(S'S13'
p6513
I0
I1
tp6514
Rp6515
(I3
S'|'
p6516
NNNI13
I1
I0
tp6517
bS'Theodis Ealey'
p6518
tp6519
Rp6520
ag2
(g22
S'(\x07;0\xbfu\xe0?'
p6521
tp6522
Rp6523
ag2
(g22
S'|H]\xa9\xb9\x81\xd4?'
p6524
tp6525
Rp6526
ag2
(g22
S'\xf3\x02\xec\xa3Snl@'
p6527
tp6528
Rp6529
ag2
(g22
S'\x00\x00\x00\x00\x00\x00\x00\x00'
p6530
tp6531
Rp6532
ag2
(g22
S'\xd1"\xdb\xf9~\x1ak@'
p6533
tp6534
Rp6535
aF0.0651
aF0.758
aF0.638
aI0
aF-6.95
aF0.0273
aF99.233
aF0.672
aa(lp6536
g2
(g3
(S'S19'
p6537
I0
I1
tp6538
Rp6539
(I3
S'|'
p6540
NNNI19
I1
I0
tp6541
bS'God Will Make A Way'
p6542
tp6543
Rp6544
ag2
(g3
(S'S13'
p6545
I0
I1
tp6546
Rp6547
(I3
S'|'
p6548
NNNI13
I1
I0
tp6549
bS'Janet Paschal'
p6550
tp6551
Rp6552
ag2
(g22
S'\xe9\xfc\x95\x03\xa5{\xd8?'
p6553
tp6554
Rp6555
ag2
(g22
S'\xfb\xeb\xaa\xec\xe6r\xd5?'
p6556
tp6557
Rp6558
ag2
(g22
S'\x85\x99\xb6\x7f\xe5\xc5s@'
p6559
tp6560
Rp6561
ag2
(g22
S'\x00\x00\x00\x00\x00\x00\x00\x00'
p6562
tp6563
Rp6564
ag2
(g22
S'd;\xdfO\x8d\xffr@'
p6565
tp6566
Rp6567
aF0.75
aF0.363
aF0.265
aI0
aF-10.726
aF0.0348
aF115.879
aF0.185
aa(lp6568
g2
(g3
(S'S11'
p6569
I0
I1
tp6570
Rp6571
(I3
S'|'
p6572
NNNI11
I1
I0
tp6573
bS"Don't Leave"
p6574
tp6575
Rp6576
ag2
(g3
(S'S15'
p6577
I0
I1
tp6578
Rp6579
(I3
S'|'
p6580
NNNI15
I1
I0
tp6581
bS'Everyday Sunday'
p6582
tp6583
Rp6584
ag2
(g22
S'"\x17\xb0\x1a\\@\xe4?'
p6585
tp6586
Rp6587
ag2
(g22
S'%\xce\x8c\xb7jt\xdb?'
p6588
tp6589
Rp6590
ag2
(g22
S'\xce\xaa\xcf\xd5\xd6\xdbp@'
p6591
tp6592
Rp6593
ag2
(g22
S'\x06\x81\x95C\x8bl\xc7?'
p6594
tp6595
Rp6596
ag2
(g22
S'\xfa~j\xbctKo@'
p6597
tp6598
Rp6599
aF0.000175
aF0.464
aF0.696
aI0
aF-7.197
aF0.0288
aF102.988
aF0.235
aa(lp6600
g2
(g3
(S'S13'
p6601
I0
I1
tp6602
Rp6603
(I3
S'|'
p6604
NNNI13
I1
I0
tp6605
bS'He Jiu Bi Hun'
p6606
tp6607
Rp6608
ag2
(g3
(S'S10'
p6609
I0
I1
tp6610
Rp6611
(I3
S'|'
p6612
NNNI10
I1
I0
tp6613
bS'Hacken Lee'
p6614
tp6615
Rp6616
ag2
(g22
S';"\x9c\xc6`6\xdf?'
p6617
tp6618
Rp6619
ag2
(g22
S'\xcc\x95\x1c\xad\xf2\xe2\xd5?'
p6620
tp6621
Rp6622
ag2
(g22
S'\xb4<\x0f\xee\xce\x90g@'
p6623
tp6624
Rp6625
ag2
(g22
S'\x00\x00\x00\x00\x00\x00\x00\x00'
p6626
tp6627
Rp6628
ag2
(g22
S'\xcd\xcc\xcc\xcc\xcc\x90g@'
p6629
tp6630
Rp6631
aF0.461
aF0.567
aF0.497
aI0
aF-8.432
aF0.0298
aF116.645
aF0.402
aa(lp6632
g2
(g3
(S'S15'
p6633
I0
I1
tp6634
Rp6635
(I3
S'|'
p6636
NNNI15
I1
I0
tp6637
bS'Destroy Babylon'
p6638
tp6639
Rp6640
ag2
(g3
(S'S10'
p6641
I0
I1
tp6642
Rp6643
(I3
S'|'
p6644
NNNI10
I1
I0
tp6645
bS'Bad Brains'
p6646
tp6647
Rp6648
ag2
(g22
S'\x84\xf8`\\\xd5=\xe7?'
p6649
tp6650
Rp6651
ag2
(g22
S'MP\xdb\xc9\xf4\xc5\xe1?'
p6652
tp6653
Rp6654
ag2
(g22
S'\xcd\xe9\xb2\x98\xd8PU@'
p6655
tp6656
Rp6657
ag2
(g22
S'\x00\x00\x00\x00\x00\x00\x00\x00'
p6658
tp6659
Rp6660
ag2
(g22
S'F\xb6\xf3\xfd\xd4PU@'
p6661
tp6662
Rp6663
aF4.15e-05
aF0.283
aF0.985
aF0.549
aF-9.712
aF0.0706
aF90.046
aF0.161
aa(lp6664
g2
(g3
(S'S43'
p6665
I0
I1
tp6666
Rp6667
(I3
S'|'
p6668
NNNI43
I1
I0
tp6669
bS'Follow Your Dreams (The Plan Album Version)'
p6670
tp6671
Rp6672
ag2
(g3
(S'S4'
p6673
I0
I1
tp6674
Rp6675
(I3
S'|'
p6676
NNNI4
I1
I0
tp6677
bS'Raze'
p6678
tp6679
Rp6680
ag2
(g22
S'\xb2\xef\xe5\xd4\x15\x9c\xe1?'
p6681
tp6682
Rp6683
ag2
(g22
S'EB]\xd4f\x12\xda?'
p6684
tp6685
Rp6686
ag2
(g22
S'\x82\xff\xadd\xc7\x94h@'
p6687
tp6688
Rp6689
ag2
(g22
S'\x00\x00\x00\x00\x00\x00\x00\x00'
p6690
tp6691
Rp6692
ag2
(g22
S'\xb2\x9d\xef\xa7\xc6\x0fh@'
p6693
tp6694
Rp6695
aF0.0666
aF0.757
aF0.875
aF1.53e-05
aF-3.252
aF0.0376
aF108.841
aF0.94
aa(lp6696
g2
(g3
(S'S10'
p6697
I0
I1
tp6698
Rp6699
(I3
S'|'
p6700
NNNI10
I1
I0
tp6701
bS'Yippiyo-Ay'
p6702
tp6703
Rp6704
ag2
(g3
(S'S11'
p6705
I0
I1
tp6706
Rp6707
(I3
S'|'
p6708
NNNI11
I1
I0
tp6709
bS'The Presets'
p6710
tp6711
Rp6712
ag2
(g22
S'\x15\x15E\xff\x162\xe7?'
p6713
tp6714
Rp6715
ag2
(g22
S'\x80\xcc\xa3AJ\xc8\xe0?'
p6716
tp6717
Rp6718
ag2
(g22
S'\n\xba\xbd\xa4\xb1\xfdp@'
p6719
tp6720
Rp6721
ag2
(g22
S'+\x87\x16\xd9\xce\xf7\xb3?'
p6722
tp6723
Rp6724
ag2
(g22
S')\\\x8f\xc2\xf5\xbap@'
p6725
tp6726
Rp6727
aF0.0554
aF0.708
aF0.938
aF0.00234
aF-3.954
aF0.0566
aF119.997
aF0.413
aa(lp6728
g2
(g3
(S'S24'
p6729
I0
I1
tp6730
Rp6731
(I3
S'|'
p6732
NNNI24
I1
I0
tp6733
bS"Your God Isn't Listening"
p6734
tp6735
Rp6736
ag2
(g3
(S'S12'
p6737
I0
I1
tp6738
Rp6739
(I3
S'|'
p6740
NNNI12
I1
I0
tp6741
bS'Steve Wilson'
p6742
tp6743
Rp6744
ag2
(g22
S'i\xebQDMq\xdf?'
p6745
tp6746
Rp6747
ag2
(g22
S' \xb7\xf0o <\xdc?'
p6748
tp6749
Rp6750
ag2
(g22
S'\xc7.Q\xbd5Fp@'
p6751
tp6752
Rp6753
ag2
(g22
S'\xa0\x1a/\xdd$\x06\x00@'
p6754
tp6755
Rp6756
ag2
(g22
S'\xaeG\xe1z\x14jo@'
p6757
tp6758
Rp6759
aF0.156
aF0.566
aF0.399
aF0.000247
aF-14.498
aF0.0244
aF99.982
aF0.572
aa(lp6760
g2
(g3
(S'S13'
p6761
I0
I1
tp6762
Rp6763
(I3
S'|'
p6764
NNNI13
I1
I0
tp6765
bS'Talk About Us'
p6766
tp6767
Rp6768
ag2
(g3
(S'S14'
p6769
I0
I1
tp6770
Rp6771
(I3
S'|'
p6772
NNNI14
I1
I0
tp6773
bS'Jennifer Lopez'
p6774
tp6775
Rp6776
ag2
(g22
S'o\xdd\xdf\x9f\x93#\xea?'
p6777
tp6778
Rp6779
ag2
(g22
S'\xd9_p\xdb%,\xe2?'
p6780
tp6781
Rp6782
ag2
(g22
S'H\xc4\x94H";q@'
p6783
tp6784
Rp6785
ag2
(g22
S'\\\x8f\xc2\xf5(\\\xf7?'
p6786
tp6787
Rp6788
ag2
(g22
S'h\x91\xed|?\xd5p@'
p6789
tp6790
Rp6791
aF0.293
aF0.705
aF0.536
aI0
aF-6.707
aF0.0282
aF80.988
aF0.252
aa(lp6792
g2
(g3
(S'S16'
p6793
I0
I1
tp6794
Rp6795
(I3
S'|'
p6796
NNNI16
I1
I0
tp6797
bS'Gangster Of Love'
p6798
tp6799
Rp6800
ag2
(g3
(S'S13'
p6801
I0
I1
tp6802
Rp6803
(I3
S'|'
p6804
NNNI13
I1
I0
tp6805
bS'Chris Farlowe'
p6806
tp6807
Rp6808
ag2
(g22
S'3\xdb\xbb3zc\xe1?'
p6809
tp6810
Rp6811
ag2
(g22
S'd\x11x\x966\xab\xd5?'
p6812
tp6813
Rp6814
ag2
(g22
S'x\xb4q\xc4Z\\n@'
p6815
tp6816
Rp6817
ag2
(g22
S'\x00\x00\x00\x00\x00\x00\x00\x00'
p6818
tp6819
Rp6820
ag2
(g22
S'\x96C\x8bl\xe7\xabm@'
p6821
tp6822
Rp6823
aF0.134
aF0.674
aF0.673
aF1.89e-05
aF-9.901
aF0.0451
aF122.413
aF0.768
aa(lp6824
g2
(g3
(S'S21'
p6825
I0
I1
tp6826
Rp6827
(I3
S'|'
p6828
NNNI21
I1
I0
tp6829
bS"Road Warrior's Lament"
p6830
tp6831
Rp6832
ag2
(g3
(S'S18'
p6833
I0
I1
tp6834
Rp6835
(I3
S'|'
p6836
NNNI18
I1
I0
tp6837
bS'Kris Kristofferson'
p6838
tp6839
Rp6840
ag2
(g22
S'\xfd\x995A\xc5o\xe7?'
p6841
tp6842
Rp6843
ag2
(g22
S'Q\xe79\xc5#\xc2\xdf?'
p6844
tp6845
Rp6846
ag2
(g22
S'\x1c\xb6-\xca\xec:p@'
p6847
tp6848
Rp6849
ag2
(g22
S'\x10X9\xb4\xc8v\xbe?'
p6850
tp6851
Rp6852
ag2
(g22
S'\x89A`\xe5\xd0\xc6n@'
p6853
tp6854
Rp6855
aF0.488
aF0.469
aF0.19
aF0.000142
aF-17.451
aF0.0364
aF142.169
aF0.506
aa(lp6856
g2
(g3
(S'S7'
p6857
I0
I1
tp6858
Rp6859
(I3
S'|'
p6860
NNNI7
I1
I0
tp6861
bS'Brother'
p6862
tp6863
Rp6864
ag2
(g3
(S'S15'
p6865
I0
I1
tp6866
Rp6867
(I3
S'|'
p6868
NNNI15
I1
I0
tp6869
bS'Alice In Chains'
p6870
tp6871
Rp6872
ag2
(g22
S'\x94qd\xdb\x97{\xe9?'
p6873
tp6874
Rp6875
ag2
(g22
S'O\x9f_&K\xa7\xe2?'
p6876
tp6877
Rp6878
ag2
(g22
S'\x97\xca\xdb\x11\xce\xb5p@'
p6879
tp6880
Rp6881
ag2
(g22
S'\x10X9\xb4\xc8v\xbe?'
p6882
tp6883
Rp6884
ag2
(g22
S'\x9c\xc4 \xb0rDp@'
p6885
tp6886
Rp6887
aF0.557
aF0.405
aF0.365
aF0.00048
aF-10.927
aF0.0307
aF85.781
aF0.076
aa(lp6888
g2
(g3
(S'S15'
p6889
I0
I1
tp6890
Rp6891
(I3
S'|'
p6892
NNNI15
I1
I0
tp6893
bS'Ascolta mio dio'
p6894
tp6895
Rp6896
ag2
(g3
(S'S10'
p6897
I0
I1
tp6898
Rp6899
(I3
S'|'
p6900
NNNI10
I1
I0
tp6901
bS'The Charms'
p6902
tp6903
Rp6904
ag2
(g22
S'\x84\x18\xe7\xa1\x13\xec\xe3?'
p6905
tp6906
Rp6907
ag2
(g22
S'?5\xca\x1c\xb0y\xd4?'
p6908
tp6909
Rp6910
ag2
(g22
S'7qr\xbfCZ`@'
p6911
tp6912
Rp6913
ag2
(g22
S'\xe1z\x14\xaeG\xe1\xda?'
p6914
tp6915
Rp6916
ag2
(g22
S';\xdfO\x8d\x97\xee]@'
p6917
tp6918
Rp6919
aF0.557
aF0.669
aF0.848
aI0
aF-6.472
aF0.276
aF149.104
aF0.795
aa(lp6920
g2
(g3
(S'S10'
p6921
I0
I1
tp6922
Rp6923
(I3
S'|'
p6924
NNNI10
I1
I0
tp6925
bS'Exaltation'
p6926
tp6927
Rp6928
ag2
(g3
(S'S9'
p6929
I0
I1
tp6930
Rp6931
(I3
S'|'
p6932
NNNI9
I1
I0
tp6933
bS'Matisyahu'
p6934
tp6935
Rp6936
ag2
(g22
S'\xcd\xf1r\xbc6\x94\xea?'
p6937
tp6938
Rp6939
ag2
(g22
S'\xc5\x0f\xf4\xff9y\xe4?'
p6940
tp6941
Rp6942
ag2
(g22
S'\x04s\xf4\xf8\xbd\x1az@'
p6943
tp6944
Rp6945
ag2
(g22
S'\x00\x00\x00\x00\x00\x00\x00\x00'
p6946
tp6947
Rp6948
ag2
(g22
S'\xdb\xf9~j\xbc\x1az@'
p6949
tp6950
Rp6951
aF0.075
aF0.662
aF0.625
aF2.66e-05
aF-8.104
aF0.0512
aF90.534
aF0.586
aa(lp6952
g2
(g3
(S'S10'
p6953
I0
I1
tp6954
Rp6955
(I3
S'|'
p6956
NNNI10
I1
I0
tp6957
bS'El Mes Alt'
p6958
tp6959
Rp6960
ag2
(g3
(S'S4'
p6961
I0
I1
tp6962
Rp6963
(I3
S'|'
p6964
NNNI4
I1
I0
tp6965
bS'Sapo'
p6966
tp6967
Rp6968
ag2
(g22
S"\xf3\xb3';\x9f\xc6\xde?"
p6969
tp6970
Rp6971
ag2
(g22
S'\x1b\xc1\x83{\x0cd\xd8?'
p6972
tp6973
Rp6974
ag2
(g22
S'M\xa1\xf3\x1a\xbbwk@'
p6975
tp6976
Rp6977
ag2
(g22
S'y\xe9&1\x08\xac\xcc?'
p6978
tp6979
Rp6980
ag2
(g22
S'\xb6\xf3\xfd\xd4x\x1dk@'
p6981
tp6982
Rp6983
aF0.147
aF0.624
aF0.819
aF0.0127
aF-4.623
aF0.0678
aF140.621
aF0.621
aa(lp6984
g2
(g3
(S'S23'
p6985
I0
I1
tp6986
Rp6987
(I3
S'|'
p6988
NNNI23
I1
I0
tp6989
bS'Two Tickets To Paradise'
p6990
tp6991
Rp6992
ag2
(g3
(S'S11'
p6993
I0
I1
tp6994
Rp6995
(I3
S'|'
p6996
NNNI11
I1
I0
tp6997
bS'Eddie Money'
p6998
tp6999
Rp7000
ag2
(g22
S'\x05n;\xdeJ\x05\xe6?'
p7001
tp7002
Rp7003
ag2
(g22
S'e\xf6\xd8\x0c\x80\x96\xe0?'
p7004
tp7005
Rp7006
ag2
(g22
S'\x1b\xd8*\xc1\xe2\xa9g@'
p7007
tp7008
Rp7009
ag2
(g22
S'X9\xb4\xc8v\xbe\xaf?'
p7010
tp7011
Rp7012
ag2
(g22
S'T\xe3\xa5\x9b\xc4\x80f@'
p7013
tp7014
Rp7015
aF0.0056
aF0.623
aF0.68
aF0.000425
aF-13.255
aF0.0282
aF129.713
aF0.737
aa(lp7016
g2
(g3
(S'S17'
p7017
I0
I1
tp7018
Rp7019
(I3
S'|'
p7020
NNNI17
I1
I0
tp7021
bS'Shake Some Action'
p7022
tp7023
Rp7024
ag2
(g3
(S'S7'
p7025
I0
I1
tp7026
Rp7027
(I3
S'|'
p7028
NNNI7
I1
I0
tp7029
bS'Cracker'
p7030
tp7031
Rp7032
ag2
(g22
S'`\xce\xaa[\x95\x7f\xe4?'
p7033
tp7034
Rp7035
ag2
(g22
S'\xc11\xdcF\x0c\x1a\xdd?'
p7036
tp7037
Rp7038
ag2
(g22
S' A\xf1c\xcc}p@'
p7039
tp7040
Rp7041
ag2
(g22
S'\x8bl\xe7\xfb\xa9\xf1\xc2?'
p7042
tp7043
Rp7044
ag2
(g22
S'\x87\x16\xd9\xce\xf7\x13p@'
p7045
tp7046
Rp7047
aF0.00305
aF0.564
aF0.763
aF0.00229
aF-5.245
aF0.0277
aF136.182
aF0.632
aa(lp7048
g2
(g3
(S'S15'
p7049
I0
I1
tp7050
Rp7051
(I3
S'|'
p7052
NNNI15
I1
I0
tp7053
bS'Smooth Operator'
p7054
tp7055
Rp7056
ag2
(g3
(S'S4'
p7057
I0
I1
tp7058
Rp7059
(I3
S'|'
p7060
NNNI4
I1
I0
tp7061
bS'Sade'
p7062
tp7063
Rp7064
ag2
(g22
S'\xd10\xeaM\x10\xb0\xe8?'
p7065
tp7066
Rp7067
ag2
(g22
S'\xbd<\xe0h\x11\x8e\xe0?'
p7068
tp7069
Rp7070
ag2
(g22
S'Ral!H\xaer@'
p7071
tp7072
Rp7073
ag2
(g22
S'Nb\x10X9\xb4\xe4?'
p7074
tp7075
Rp7076
ag2
(g22
S'\xdfO\x8d\x97n\xf4q@'
p7077
tp7078
Rp7079
aF0.0758
aF0.687
aF0.684
aF0.000808
aF-5.181
aF0.032
aF119.193
aF0.96
aa(lp7080
g2
(g3
(S'S17'
p7081
I0
I1
tp7082
Rp7083
(I3
S'|'
p7084
NNNI17
I1
I0
tp7085
bS'Red Orange Yellow'
p7086
tp7087
Rp7088
ag2
(g3
(S'S11'
p7089
I0
I1
tp7090
Rp7091
(I3
S'|'
p7092
NNNI11
I1
I0
tp7093
bS'Photo Atlas'
p7094
tp7095
Rp7096
ag2
(g22
S'"VPhz\x06\xe3?'
p7097
tp7098
Rp7099
ag2
(g22
S'B\x13\x8d\x8e\xb6O\xd6?'
p7100
tp7101
Rp7102
ag2
(g22
S"|'f\xbd\x18\xb8g@"
p7103
tp7104
Rp7105
ag2
(g22
S'\x00\x00\x00\x00\x00\x00\x00\x00'
p7106
tp7107
Rp7108
ag2
(g22
S'\x08\xac\x1cZd\xaff@'
p7109
tp7110
Rp7111
aF0.000157
aF0.259
aF0.852
aF0.000164
aF-5.258
aF0.0829
aF167.684
aF0.441
aa(lp7112
g2
(g3
(S'S13'
p7113
I0
I1
tp7114
Rp7115
(I3
S'|'
p7116
NNNI13
I1
I0
tp7117
bS"Sarah Yellin'"
p7118
tp7119
Rp7120
ag2
(g3
(S'S12'
p7121
I0
I1
tp7122
Rp7123
(I3
S'|'
p7124
NNNI12
I1
I0
tp7125
bS'3 Doors Down'
p7126
tp7127
Rp7128
ag2
(g22
S'\xfd\xc1\xd3\xa0\xd2\xe4\xea?'
p7129
tp7130
Rp7131
ag2
(g22
S'\x17\xf6\xc8rO\x93\xe4?'
p7132
tp7133
Rp7134
ag2
(g22
S'\x93\xc6h\x1dU\x1fj@'
p7135
tp7136
Rp7137
ag2
(g22
S'\x00\x00\x00\x00\x00\x00\x00\x00'
p7138
tp7139
Rp7140
ag2
(g22
S'\x17\xd9\xce\xf7S\x1fj@'
p7141
tp7142
Rp7143
aF9.28e-05
aF0.537
aF0.869
aF4.35e-06
aF-5.163
aF0.0355
aF123.966
aF0.46
aa(lp7144
g2
(g3
(S'S13'
p7145
I0
I1
tp7146
Rp7147
(I3
S'|'
p7148
NNNI13
I1
I0
tp7149
bS'Bullet Frenzy'
p7150
tp7151
Rp7152
ag2
(g3
(S'S17'
p7153
I0
I1
tp7154
Rp7155
(I3
S'|'
p7156
NNNI17
I1
I0
tp7157
bS'Elliot Goldenthal'
p7158
tp7159
Rp7160
ag2
(g22
S'g{\x06\x95\x1a,\xe3?'
p7161
tp7162
Rp7163
ag2
(g22
S'Q=\xe1\xea\xd2&\xd9?'
p7164
tp7165
Rp7166
ag2
(g22
S'\xc4%\xc7\x9d\x92N\x83@'
p7167
tp7168
Rp7169
ag2
(g22
S'\xbe\x9f\x1a/\xdd\xa4\x14@'
p7170
tp7171
Rp7172
ag2
(g22
S'\xe3\xa5\x9b\xc4 \xdb\x81@'
p7173
tp7174
Rp7175
aF0.118
aF0.174
aF0.532
aF0.899
aF-13.42
aF0.0583
aF90.862
aF0.0991
aa(lp7176
g2
(g3
(S'S8'
p7177
I0
I1
tp7178
Rp7179
(I3
S'|'
p7180
NNNI8
I1
I0
tp7181
bS'Zalozniy'
p7182
tp7183
Rp7184
ag2
(g3
(S'S6'
p7185
I0
I1
tp7186
Rp7187
(I3
S'|'
p7188
NNNI6
I1
I0
tp7189
bS'Arkona'
p7190
tp7191
Rp7192
ag2
(g22
S' y\xdf\x9a\xab\xae\xe4?'
p7193
tp7194
Rp7195
ag2
(g22
S'}M\xd20\x9e~\xdd?'
p7196
tp7197
Rp7198
ag2
(g22
S'\x98\xa3\xc7\xefm\xe0n@'
p7199
tp7200
Rp7201
ag2
(g22
S'\x89A`\xe5\xd0"\xcb?'
p7202
tp7203
Rp7204
ag2
(g22
S'#\xdb\xf9~j\xe0n@'
p7205
tp7206
Rp7207
aF0.000698
aF0.29
aF0.796
aF4.49e-06
aF-4.508
aF0.0542
aF159.963
aF0.199
aa(lp7208
g2
(g3
(S'S18'
p7209
I0
I1
tp7210
Rp7211
(I3
S'|'
p7212
NNNI18
I1
I0
tp7213
bS'Rastafari Prophecy'
p7214
tp7215
Rp7216
ag2
(g3
(S'S11'
p7217
I0
I1
tp7218
Rp7219
(I3
S'|'
p7220
NNNI11
I1
I0
tp7221
bS'Horace Andy'
p7222
tp7223
Rp7224
ag2
(g22
S'\x93\xb8\x94O\xc4\x0b\xe4?'
p7225
tp7226
Rp7227
ag2
(g22
S'[\x1f\xe3\x14\x0f\xf4\xd7?'
p7228
tp7229
Rp7230
ag2
(g22
S'\xaaek}\x91\xc7q@'
p7231
tp7232
Rp7233
ag2
(g22
S'\x00\x00\x00\x00\x00\x00\x00\x00'
p7234
tp7235
Rp7236
ag2
(g22
S'\xdb\xf9~j\xbc\x16q@'
p7237
tp7238
Rp7239
aF0.0253
aF0.747
aF0.658
aF0.000175
aF-6.741
aF0.0858
aF151.452
aF0.668
aa(lp7240
g2
(g3
(S'S7'
p7241
I0
I1
tp7242
Rp7243
(I3
S'|'
p7244
NNNI7
I1
I0
tp7245
bS'Alimony'
p7246
tp7247
Rp7248
ag2
(g3
(S'S6'
p7249
I0
I1
tp7250
Rp7251
(I3
S'|'
p7252
NNNI6
I1
I0
tp7253
bS'Shaggy'
p7254
tp7255
Rp7256
ag2
(g22
S'AN\xf3\x11\x9f\xb6\xe8?'
p7257
tp7258
Rp7259
ag2
(g22
S'\xcf\x0b\x9d\xbb\x7fY\xe1?'
p7260
tp7261
Rp7262
ag2
(g22
S'\xa2\xd1\x1d\xc4\xce\tm@'
p7263
tp7264
Rp7265
ag2
(g22
S'\x1b/\xdd$\x06\x81\xb5?'
p7266
tp7267
Rp7268
ag2
(g22
S'\xa4p=\n\xd7\xf3k@'
p7269
tp7270
Rp7271
aF0.068
aF0.796
aF0.898
aI0
aF-7.375
aF0.163
aF89.969
aF0.939
aa(lp7272
g2
(g3
(S'S7'
p7273
I0
I1
tp7274
Rp7275
(I3
S'|'
p7276
NNNI7
I1
I0
tp7277
bS'Killing'
p7278
tp7279
Rp7280
ag2
(g3
(S'S11'
p7281
I0
I1
tp7282
Rp7283
(I3
S'|'
p7284
NNNI11
I1
I0
tp7285
bS'The Rapture'
p7286
tp7287
Rp7288
ag2
(g22
S'\xcc\xd8w\xfa\xdb\xfe\xe7?'
p7289
tp7290
Rp7291
ag2
(g22
S'&\xc3\xfd\xc8t\x87\xe0?'
p7292
tp7293
Rp7294
ag2
(g22
S'\xe0\xdb\xf4g?Gk@'
p7295
tp7296
Rp7297
ag2
(g22
S'\x00\x00\x00\x00\x00\x00\x00\x00'
p7298
tp7299
Rp7300
ag2
(g22
S'fffffbj@'
p7301
tp7302
Rp7303
aF0.00162
aF0.808
aF0.848
aF0.144
aF-8.166
aF0.055
aF120.024
aF0.29
aa(lp7304
g2
(g3
(S'S12'
p7305
I0
I1
tp7306
Rp7307
(I3
S'|'
p7308
NNNI12
I1
I0
tp7309
bS'On The Brink'
p7310
tp7311
Rp7312
ag2
(g3
(S'S11'
p7313
I0
I1
tp7314
Rp7315
(I3
S'|'
p7316
NNNI11
I1
I0
tp7317
bS'Dinosaur Jr'
p7318
tp7319
Rp7320
ag2
(g22
S'\n\x81h1V\xfe\xe7?'
p7321
tp7322
Rp7323
ag2
(g22
S'\xdd\x99\x9dUQ\xa6\xe1?'
p7324
tp7325
Rp7326
ag2
(g22
S'\x0e\x10\xcc\xd1\xe3Lh@'
p7327
tp7328
Rp7329
ag2
(g22
S'\xdfO\x8d\x97n\x12\xc3?'
p7330
tp7331
Rp7332
ag2
(g22
S'!\xb0rh\x91\xe9e@'
p7333
tp7334
Rp7335
aF0.00248
aF0.262
aF0.892
aF0.00409
aF-7.188
aF0.067
aF109.848
aF0.598
aa(lp7336
g2
(g3
(S'S18'
p7337
I0
I1
tp7338
Rp7339
(I3
S'|'
p7340
NNNI18
I1
I0
tp7341
bS'Consuelate Como Yo'
p7342
tp7343
Rp7344
ag2
(g3
(S'S11'
p7345
I0
I1
tp7346
Rp7347
(I3
S'|'
p7348
NNNI11
I1
I0
tp7349
bS'Los Van Van'
p7350
tp7351
Rp7352
ag2
(g22
S'\x9b\x00\xa2\x0f]W\xe3?'
p7353
tp7354
Rp7355
ag2
(g22
S'\xef\xc9\xea\n\x16\xa2\xd9?'
p7356
tp7357
Rp7358
ag2
(g22
S'&p\xebn\x9eyp@'
p7359
tp7360
Rp7361
ag2
(g22
S'\xe3\xa5\x9b\xc4 \xb0\xb2?'
p7362
tp7363
Rp7364
ag2
(g22
S'\xfc\xa9\xf1\xd2M\x96o@'
p7365
tp7366
Rp7367
aF0.365
aF0.534
aF0.765
aF0.0115
aF-5.499
aF0.091
aF96.488
aF0.708
aa(lp7368
g2
(g3
(S'S31'
p7369
I0
I1
tp7370
Rp7371
(I3
S'|'
p7372
NNNI31
I1
I0
tp7373
bS'Damit Du Dich in mich verliebst'
p7374
tp7375
Rp7376
ag2
(g3
(S'S4'
p7377
I0
I1
tp7378
Rp7379
(I3
S'|'
p7380
NNNI4
I1
I0
tp7381
bS'Lara'
p7382
tp7383
Rp7384
ag2
(g22
S'\xc8\x1c\x10C\x9f\xd7\xe1?'
p7385
tp7386
Rp7387
ag2
(g22
S'\xcdM-\x95\x07\xa5\xd3?'
p7388
tp7389
Rp7390
ag2
(g22
S'y\xe9&1\x08\x0fh@'
p7391
tp7392
Rp7393
ag2
(g22
S'L7\x89A`\xe5\xd0?'
p7394
tp7395
Rp7396
ag2
(g22
S'\xb4\xc8v\xbe\x9frg@'
p7397
tp7398
Rp7399
aF0.792
aF0.667
aF0.593
aI0
aF-5.559
aF0.0251
aF82.023
aF0.495
aa(lp7400
g2
(g3
(S'S14'
p7401
I0
I1
tp7402
Rp7403
(I3
S'|'
p7404
NNNI14
I1
I0
tp7405
bS'Drive By Music'
p7406
tp7407
Rp7408
ag2
(g3
(S'S10'
p7409
I0
I1
tp7410
Rp7411
(I3
S'|'
p7412
NNNI10
I1
I0
tp7413
bS'Outerspace'
p7414
tp7415
Rp7416
ag2
(g22
S'\x95dC\x85\xf6\x94\xe3?'
p7417
tp7418
Rp7419
ag2
(g22
S'\x9b\xb3\xe3\xbd\x98\xd4\xd7?'
p7420
tp7421
Rp7422
ag2
(g22
S'%u\x02\x9a\x08\x1di@'
p7423
tp7424
Rp7425
ag2
(g22
S'\n\xd7\xa3p=\n\xd7?'
p7426
tp7427
Rp7428
ag2
(g22
S'\xb6\xf3\xfd\xd4xEh@'
p7429
tp7430
Rp7431
aF0.242
aF0.791
aF0.821
aI0
aF-5.299
aF0.246
aF90.98
aF0.582
aa(lp7432
g2
(g3
(S'S7'
p7433
I0
I1
tp7434
Rp7435
(I3
S'|'
p7436
NNNI7
I1
I0
tp7437
bS'Ruby D.'
p7438
tp7439
Rp7440
ag2
(g3
(S'S14'
p7441
I0
I1
tp7442
Rp7443
(I3
S'|'
p7444
NNNI14
I1
I0
tp7445
bS'Les Sexareenos'
p7446
tp7447
Rp7448
ag2
(g22
S'\xb0\xea\x81dTk\xde?'
p7449
tp7450
Rp7451
ag2
(g22
S'9f\\\xce\xe7\x06\xd6?'
p7452
tp7453
Rp7454
ag2
(g22
S'\xa1\xa1\x7f\x82\x8b\xb9X@'
p7455
tp7456
Rp7457
ag2
(g22
S'\x00\x00\x00\x00\x00\x00\x00\x00'
p7458
tp7459
Rp7460
ag2
(g22
S'\xa8\xc6K7\x89\xb9X@'
p7461
tp7462
Rp7463
aF0.261
aF0.385
aF0.977
aF6.01e-05
aF-6.345
aF0.056
aF96.408
aF0.923
aa(lp7464
g2
(g3
(S'S11'
p7465
I0
I1
tp7466
Rp7467
(I3
S'|'
p7468
NNNI11
I1
I0
tp7469
bS'Bounce Back'
p7470
tp7471
Rp7472
ag2
(g3
(S'S8'
p7473
I0
I1
tp7474
Rp7475
(I3
S'|'
p7476
NNNI8
I1
I0
tp7477
bS'DJ Spinn'
p7478
tp7479
Rp7480
ag2
(g22
S'\x84\x9e\xe0\xe2k}\xe0?'
p7481
tp7482
Rp7483
ag2
(g22
S'Q\x07`\xf8\xe4\xb0\xd0?'
p7484
tp7485
Rp7486
ag2
(g22
S'p\x94\xbc:\xc7\rn@'
p7487
tp7488
Rp7489
ag2
(g22
S'\x00\x00\x00\x00\x00\x00\x00\x00'
p7490
tp7491
Rp7492
ag2
(g22
S'\x12\x83\xc0\xca\xa1\x8dl@'
p7493
tp7494
Rp7495
aF0.0118
aF0.872
aF0.513
aF0.027
aF-5.556
aF0.303
aF160.014
aF0.929
aa(lp7496
g2
(g3
(S'S10'
p7497
I0
I1
tp7498
Rp7499
(I3
S'|'
p7500
NNNI10
I1
I0
tp7501
bS'Empty Arms'
p7502
tp7503
Rp7504
ag2
(g3
(S'S37'
p7505
I0
I1
tp7506
Rp7507
(I3
S'|'
p7508
NNNI37
I1
I0
tp7509
bS'Stevie Ray Vaughan And Double Trouble'
p7510
tp7511
Rp7512
ag2
(g22
S'\xe5j`\xeaG{\xe7?'
p7513
tp7514
Rp7515
ag2
(g22
S'V\x0fv\xb7\x8ej\xe1?'
p7516
tp7517
Rp7518
ag2
(g22
S'\x11\xc7\xba\xb8\x8d\x08g@'
p7519
tp7520
Rp7521
ag2
(g22
S'\x08\xac\x1cZd;\xaf?'
p7522
tp7523
Rp7524
ag2
(g22
S'y\xe9&1\x08\x88f@'
p7525
tp7526
Rp7527
aF0.00525
aF0.347
aF0.78
aF0.00465
aF-10.823
aF0.112
aF147.855
aF0.669
aa(lp7528
g2
(g3
(S'S7'
p7529
I0
I1
tp7530
Rp7531
(I3
S'|'
p7532
NNNI7
I1
I0
tp7533
bS'Hey Joe'
p7534
tp7535
Rp7536
ag2
(g3
(S'S12'
p7537
I0
I1
tp7538
Rp7539
(I3
S'|'
p7540
NNNI12
I1
I0
tp7541
bS'The Creation'
p7542
tp7543
Rp7544
ag2
(g22
S'\xf2\xf9\xd3\xc8\x02\xc9\xe1?'
p7545
tp7546
Rp7547
ag2
(g22
S'\xd6\xed4\xcdb\xaf\xd6?'
p7548
tp7549
Rp7550
ag2
(g22
S'@M-[\xebHo@'
p7551
tp7552
Rp7553
ag2
(g22
S'\x1f\x85\xebQ\xb8\x1e\xc5?'
p7554
tp7555
Rp7556
ag2
(g22
S'\x83\xc0\xca\xa1E\x82n@'
p7557
tp7558
Rp7559
aF0.726
aF0.295
aF0.607
aI0
aF-7.921
aF0.0389
aF170.537
aF0.305
aa(lp7560
g2
(g3
(S'S23'
p7561
I0
I1
tp7562
Rp7563
(I3
S'|'
p7564
NNNI23
I1
I0
tp7565
bS'Fall Away Into Darkness'
p7566
tp7567
Rp7568
ag2
(g3
(S'S23'
p7569
I0
I1
tp7570
Rp7571
(I3
S'|'
p7572
NNNI23
I1
I0
tp7573
bS'The Balustrade Ensemble'
p7574
tp7575
Rp7576
ag2
(g22
S']\xb1\x1c\xe22\xb7\xdf?'
p7577
tp7578
Rp7579
ag2
(g22
S'e\xf8\xfc\xce\xbf\xba\xd2?'
p7580
tp7581
Rp7582
ag2
(g22
S'\xda\x1b|a2\xd6q@'
p7583
tp7584
Rp7585
ag2
(g22
S'\xf4\xfd\xd4x\xe9&\x08@'
p7586
tp7587
Rp7588
ag2
(g22
S'\xac\x1cZd;\x87p@'
p7589
tp7590
Rp7591
aF0.492
aF0.0647
aF0.253
aF0.673
aF-16.681
aF0.0387
aF73.932
aF0.0351
aa(lp7592
g2
(g3
(S'S12'
p7593
I0
I1
tp7594
Rp7595
(I3
S'|'
p7596
NNNI12
I1
I0
tp7597
bS'Neon Rainbow'
p7598
tp7599
Rp7600
ag2
(g3
(S'S12'
p7601
I0
I1
tp7602
Rp7603
(I3
S'|'
p7604
NNNI12
I1
I0
tp7605
bS'The Box Tops'
p7606
tp7607
Rp7608
ag2
(g22
S'\xe8Yj\x0b\x1f.\xe4?'
p7609
tp7610
Rp7611
ag2
(g22
S'S|OnP\xb8\xda?'
p7612
tp7613
Rp7614
ag2
(g22
S"\xbb'\x0f\x0b\xb5,f@"
p7615
tp7616
Rp7617
ag2
(g22
S'\x17\xd9\xce\xf7S\xe3\xc5?'
p7618
tp7619
Rp7620
ag2
(g22
S'\x1dZd;\xdfwe@'
p7621
tp7622
Rp7623
aF0.771
aF0.56
aF0.339
aF0.000589
aF-12.303
aF0.0338
aF116.868
aF0.443
aa(lp7624
g2
(g3
(S'S5'
p7625
I0
I1
tp7626
Rp7627
(I3
S'|'
p7628
NNNI5
I1
I0
tp7629
bS'Blues'
p7630
tp7631
Rp7632
ag2
(g3
(S'S13'
p7633
I0
I1
tp7634
Rp7635
(I3
S'|'
p7636
NNNI13
I1
I0
tp7637
bS'Terry Callier'
p7638
tp7639
Rp7640
ag2
(g22
S'\xb3"\x85\x10U\x9e\xe6?'
p7641
tp7642
Rp7643
ag2
(g22
S'\x15\r\x83Y\x94\xa2\xda?'
p7644
tp7645
Rp7646
ag2
(g22
S'0\x12\xdar.\x90f@'
p7647
tp7648
Rp7649
ag2
(g22
S'\x7fj\xbct\x93\x18\x0c@'
p7650
tp7651
Rp7652
ag2
(g22
S'\xb6\xf3\xfd\xd4x1e@'
p7653
tp7654
Rp7655
aF0.69
aF0.639
aF0.304
aF0.051
aF-14.709
aF0.0289
aF99.491
aF0.407
aa(lp7656
g2
(g3
(S'S17'
p7657
I0
I1
tp7658
Rp7659
(I3
S'|'
p7660
NNNI17
I1
I0
tp7661
bS'Risen From Within'
p7662
tp7663
Rp7664
ag2
(g3
(S'S7'
p7665
I0
I1
tp7666
Rp7667
(I3
S'|'
p7668
NNNI7
I1
I0
tp7669
bS'Astarte'
p7670
tp7671
Rp7672
ag2
(g22
S'\xa2n\xd8\xcb\xd3/\xe1?'
p7673
tp7674
Rp7675
ag2
(g22
S' \x05\xf5W:\x96\xd6?'
p7676
tp7677
Rp7678
ag2
(g22
S'5\xb5l\xad/\xbae@'
p7679
tp7680
Rp7681
ag2
(g22
S'\x0c\x02+\x87\x16\xd9\xce?'
p7682
tp7683
Rp7684
ag2
(g22
S'\\\x8f\xc2\xf5(\xc0d@'
p7685
tp7686
Rp7687
aF0.0282
aF0.535
aF0.67
aF0.0364
aF-6.222
aF0.0236
aF80.903
aF0.265
aa(lp7688
g2
(g3
(S'S6'
p7689
I0
I1
tp7690
Rp7691
(I3
S'|'
p7692
NNNI6
I1
I0
tp7693
bS'Humppa'
p7694
tp7695
Rp7696
ag2
(g3
(S'S11'
p7697
I0
I1
tp7698
Rp7699
(I3
S'|'
p7700
NNNI11
I1
I0
tp7701
bS'Elakelaiset'
p7702
tp7703
Rp7704
ag2
(g22
S'v}\xf8\xaa$E\xe0?'
p7705
tp7706
Rp7707
ag2
(g22
S'\xbb\xac\x9f\xc7\xde\xed\xd9?'
p7708
tp7709
Rp7710
ag2
(g22
S'=a\x89\x07\x94\xdaf@'
p7711
tp7712
Rp7713
ag2
(g22
S'\x00\x00\x00\x00\x00\x00\x00\x00'
p7714
tp7715
Rp7716
ag2
(g22
S';\xdfO\x8d\x97\xdaf@'
p7717
tp7718
Rp7719
aF0.125
aF0.393
aF0.984
aF0.00152
aF-2.85
aF0.0734
aF153.037
aF0.789
aa(lp7720
g2
(g3
(S'S15'
p7721
I0
I1
tp7722
Rp7723
(I3
S'|'
p7724
NNNI15
I1
I0
tp7725
bS'winning friends'
p7726
tp7727
Rp7728
ag2
(g3
(S'S6'
p7729
I0
I1
tp7730
Rp7731
(I3
S'|'
p7732
NNNI6
I1
I0
tp7733
bS'Prisma'
p7734
tp7735
Rp7736
ag2
(g22
S'[[\x94\xf4\x817\xe2?'
p7737
tp7738
Rp7739
ag2
(g22
S'\xf4A{\xc5-\x08\xda?'
p7740
tp7741
Rp7742
ag2
(g22
S'\xb3A&\x199uk@'
p7743
tp7744
Rp7745
ag2
(g22
S'\x00\x00\x00\x00\x00\x00\x00\x00'
p7746
tp7747
Rp7748
ag2
(g22
S'\xf0\xa7\xc6K7uk@'
p7749
tp7750
Rp7751
aF8.37e-05
aF0.409
aF0.786
aF0.553
aF-10.938
aF0.0379
aF128.655
aF0.328
aa(lp7752
g2
(g3
(S'S34'
p7753
I0
I1
tp7754
Rp7755
(I3
S'|'
p7756
NNNI34
I1
I0
tp7757
bS'You Are God (Broken Album Version)'
p7758
tp7759
Rp7760
ag2
(g3
(S'S12'
p7761
I0
I1
tp7762
Rp7763
(I3
S'|'
p7764
NNNI12
I1
I0
tp7765
bS'Darwin Hobbs'
p7766
tp7767
Rp7768
ag2
(g22
S'H\x8f\x8a\x916\xd9\xe0?'
p7769
tp7770
Rp7771
ag2
(g22
S'S\xe7\x10+o\x05\xda?'
p7772
tp7773
Rp7774
ag2
(g22
S'\xf8\x88\x98\x12\xc9\rv@'
p7775
tp7776
Rp7777
ag2
(g22
S'\x87\x16\xd9\xce\xf7S\xdb?'
p7778
tp7779
Rp7780
ag2
(g22
S'\x17\xd9\xce\xf7Swu@'
p7781
tp7782
Rp7783
aF0.702
aF0.381
aF0.382
aI0
aF-8.432
aF0.0579
aF145.989
aF0.244
aa(lp7784
g2
(g3
(S'S18'
p7785
I0
I1
tp7786
Rp7787
(I3
S'|'
p7788
NNNI18
I1
I0
tp7789
bS'Crimson And Clover'
p7790
tp7791
Rp7792
ag2
(g3
(S'S27'
p7793
I0
I1
tp7794
Rp7795
(I3
S'|'
p7796
NNNI27
I1
I0
tp7797
bS'Tommy James & The Shondells'
p7798
tp7799
Rp7800
ag2
(g22
S'FD\xd8p@\xda\xe3?'
p7801
tp7802
Rp7803
ag2
(g22
S'B\xb6;\xfe\x94\x00\xd9?'
p7804
tp7805
Rp7806
ag2
(g22
S'6\x93o\xb69Kt@'
p7807
tp7808
Rp7809
ag2
(g22
S'\x10X9\xb4\xc8v\xbe?'
p7810
tp7811
Rp7812
ag2
(g22
S')\\\x8f\xc2\xf5\xb4s@'
p7813
tp7814
Rp7815
aF0.255
aF0.412
aF0.59
aF0.0325
aF-12.277
aF0.0701
aF85.824
aF0.653
aa(lp7816
g2
(g3
(S'S13'
p7817
I0
I1
tp7818
Rp7819
(I3
S'|'
p7820
NNNI13
I1
I0
tp7821
bS'Outro Duction'
p7822
tp7823
Rp7824
ag2
(g3
(S'S13'
p7825
I0
I1
tp7826
Rp7827
(I3
S'|'
p7828
NNNI13
I1
I0
tp7829
bS'Marcus Miller'
p7830
tp7831
Rp7832
ag2
(g22
S'RB\xcc$\xda@\xe6?'
p7833
tp7834
Rp7835
ag2
(g22
S'\xe4\xad\xcf\xb2\x04`\xda?'
p7836
tp7837
Rp7838
ag2
(g22
S'\xb7E\x99\r2\x01J@'
p7839
tp7840
Rp7841
ag2
(g22
S'\xa2E\xb6\xf3\xfd\xd4\xd8?'
p7842
tp7843
Rp7844
ag2
(g22
S'\xfe\xd4x\xe9&\x01J@'
p7845
tp7846
Rp7847
aF0.00585
aF0.761
aF0.463
aF0.858
aF-13.165
aF0.241
aI98
aF0.0375
aa(lp7848
g2
(g3
(S'S11'
p7849
I0
I1
tp7850
Rp7851
(I3
S'|'
p7852
NNNI11
I1
I0
tp7853
bS'A Hard Road'
p7854
tp7855
Rp7856
ag2
(g3
(S'S33'
p7857
I0
I1
tp7858
Rp7859
(I3
S'|'
p7860
NNNI33
I1
I0
tp7861
bS'John And The Bluesbreakers Mayall'
p7862
tp7863
Rp7864
ag2
(g22
S'.\xa2Vc\xc5\x0e\xe4?'
p7865
tp7866
Rp7867
ag2
(g22
S'\xdc\xbd\x08|]\xef\xd9?'
p7868
tp7869
Rp7870
ag2
(g22
S'\xb0\x03\xe7\x8c(\rs@'
p7871
tp7872
Rp7873
ag2
(g22
S'\x89A`\xe5\xd0"\xcb?'
p7874
tp7875
Rp7876
ag2
(g22
S'\xd9\xce\xf7S\xe3\rr@'
p7877
tp7878
Rp7879
aF0.653
aF0.731
aF0.335
aF0.00018
aF-14.377
aF0.0324
aF83.286
aF0.717
aa(lp7880
g2
(g3
(S'S13'
p7881
I0
I1
tp7882
Rp7883
(I3
S'|'
p7884
NNNI13
I1
I0
tp7885
bS'Oh Oh Oh Baby'
p7886
tp7887
Rp7888
ag2
(g3
(S'S8'
p7889
I0
I1
tp7890
Rp7891
(I3
S'|'
p7892
NNNI8
I1
I0
tp7893
bS'Checkers'
p7894
tp7895
Rp7896
ag2
(g22
S'\xe1\xbd\t?Y\x10\xdd?'
p7897
tp7898
Rp7899
ag2
(g22
S'\x1b\xc8X\x0f\xa5#\xd5?'
p7900
tp7901
Rp7902
ag2
(g22
S'\x96x@\xd9\x94\xf6`@'
p7903
tp7904
Rp7905
ag2
(g22
S'\x00\x00\x00\x00\x00\x00\x00\x00'
p7906
tp7907
Rp7908
ag2
(g22
S'7\x89A`\xe58_@'
p7909
tp7910
Rp7911
aF0.927
aF0.55
aF0.465
aI0
aF-10.051
aF0.0628
aF134.367
aF0.771
aa(lp7912
g2
(g3
(S'S78'
p7913
I0
I1
tp7914
Rp7915
(I3
S'|'
p7916
NNNI78
I1
I0
tp7917
bS"Isn't That Just Like God (Low Key Performance Track Without Background Vocals)"
p7918
tp7919
Rp7920
ag2
(g3
(S'S12'
p7921
I0
I1
tp7922
Rp7923
(I3
S'|'
p7924
NNNI12
I1
I0
tp7925
bS'Babbie Mason'
p7926
tp7927
Rp7928
ag2
(g22
S'!\xd9\x10\x13\x19o\xd8?'
p7929
tp7930
Rp7931
ag2
(g22
S'\t\x06&&(\x94\xd3?'
p7932
tp7933
Rp7934
ag2
(g22
S'\x17\xb7\xd1\x00\xde\x88m@'
p7935
tp7936
Rp7937
ag2
(g22
S'\x9a\x99\x99\x99\x99\x99\x01@'
p7938
tp7939
Rp7940
ag2
(g22
S'\xaeG\xe1z\x14\xe6k@'
p7941
tp7942
Rp7943
aF0.785
aF0.73
aF0.162
aF0.903
aF-18.222
aF0.0481
aF141.028
aF0.0707
aa(lp7944
g2
(g3
(S'S20'
p7945
I0
I1
tp7946
Rp7947
(I3
S'|'
p7948
NNNI20
I1
I0
tp7949
bS'Laughed At The Judge'
p7950
tp7951
Rp7952
ag2
(g3
(S'S15'
p7953
I0
I1
tp7954
Rp7955
(I3
S'|'
p7956
NNNI15
I1
I0
tp7957
bS'The Grease Band'
p7958
tp7959
Rp7960
ag2
(g22
S'\xc6\xaf\x94\x00\x86\xbe\xd4?'
p7961
tp7962
Rp7963
ag2
(g22
S'\xc95\x9bv\x0by\xc8?'
p7964
tp7965
Rp7966
ag2
(g22
S'G\xac\xc5\xa7\x00Tt@'
p7967
tp7968
Rp7969
ag2
(g22
S'm\xe7\xfb\xa9\xf1\xd2\x05@'
p7970
tp7971
Rp7972
ag2
(g22
S'q=\n\xd7\xa3Ts@'
p7973
tp7974
Rp7975
aF0.103
aF0.635
aF0.43
aF0.687
aF-15.458
aF0.0375
aF124.07
aF0.599
aa(lp7976
g2
(g3
(S'S28'
p7977
I0
I1
tp7978
Rp7979
(I3
S'|'
p7980
NNNI28
I1
I0
tp7981
bS'Mele Wich Ayee (Shaan Remix)'
p7982
tp7983
Rp7984
ag2
(g3
(S'S11'
p7985
I0
I1
tp7986
Rp7987
(I3
S'|'
p7988
NNNI11
I1
I0
tp7989
bS'Bally Sagoo'
p7990
tp7991
Rp7992
ag2
(g22
S'\xaf{e\x90Q\x97\xe2?'
p7993
tp7994
Rp7995
ag2
(g22
S'c6W\x81\xb0Q\xd6?'
p7996
tp7997
Rp7998
ag2
(g22
S'\xf0\xa2\xaf MVw@'
p7999
tp8000
Rp8001
ag2
(g22
S'\x00\x00\x00\x00\x00\x00\x00\x00'
p8002
tp8003
Rp8004
ag2
(g22
S'\x8d\x97n\x12\x83tv@'
p8005
tp8006
Rp8007
aF0.0351
aF0.773
aF0.567
aF0.201
aF-13.135
aF0.112
aF111.958
aF0.679
aa(lp8008
g2
(g3
(S'S25'
p8009
I0
I1
tp8010
Rp8011
(I3
S'|'
p8012
NNNI25
I1
I0
tp8013
bS'Christina Christina Blues'
p8014
tp8015
Rp8016
ag2
(g3
(S'S20'
p8017
I0
I1
tp8018
Rp8019
(I3
S'|'
p8020
NNNI20
I1
I0
tp8021
bS'Champion Jack Dupree'
p8022
tp8023
Rp8024
ag2
(g22
S'~\xa9\x8b\x15\xff7\xe1?'
p8025
tp8026
Rp8027
ag2
(g22
S'\xc6\x8f\xe5xe\x10\xd4?'
p8028
tp8029
Rp8030
ag2
(g22
S'\xdb\xdc\x98\x9e\xb0\x19i@'
p8031
tp8032
Rp8033
ag2
(g22
S'\xd5x\xe9&1\x08\xe0?'
p8034
tp8035
Rp8036
ag2
(g22
S'H\xe1z\x14\xae\xd7g@'
p8037
tp8038
Rp8039
aF0.988
aF0.619
aF0.14
aF0.0666
aF-18.692
aF0.0478
aF95.478
aF0.208
aa(lp8040
g2
(g3
(S'S38'
p8041
I0
I1
tp8042
Rp8043
(I3
S'|'
p8044
NNNI38
I1
I0
tp8045
bS'Faithful and True (Collectors Version)'
p8046
tp8047
Rp8048
ag2
(g3
(S'S9'
p8049
I0
I1
tp8050
Rp8051
(I3
S'|'
p8052
NNNI9
I1
I0
tp8053
bS'Z.Z. Hill'
p8054
tp8055
Rp8056
ag2
(g22
S'cm3\xf2#a\xdf?'
p8057
tp8058
Rp8059
ag2
(g22
S'\xb5Z\xb5N\x0fg\xd5?'
p8060
tp8061
Rp8062
ag2
(g22
S'\xfe\xd4x\xe9&\xd5t@'
p8063
tp8064
Rp8065
ag2
(g22
S'\x17\xd9\xce\xf7S\xe3\x08@'
p8066
tp8067
Rp8068
ag2
(g22
S'F\xb6\xf3\xfd\xd4\x96t@'
p8069
tp8070
Rp8071
aF0.636
aF0.449
aF0.601
aF0.00237
aF-8.184
aF0.0286
aF146.983
aF0.677
aa(lp8072
g2
(g3
(S'S19'
p8073
I0
I1
tp8074
Rp8075
(I3
S'|'
p8076
NNNI19
I1
I0
tp8077
bS'Le Zoo De Vincennes'
p8078
tp8079
Rp8080
ag2
(g3
(S'S7'
p8081
I0
I1
tp8082
Rp8083
(I3
S'|'
p8084
NNNI7
I1
I0
tp8085
bS'Benabar'
p8086
tp8087
Rp8088
ag2
(g22
S'\x8c\xd3\xbftV\x7f\xe3?'
p8089
tp8090
Rp8091
ag2
(g22
S'\xea\xa1\x03\x1e9\xe0\xd7?'
p8092
tp8093
Rp8094
ag2
(g22
S'\xf1F\xe6\x91?\xcem@'
p8095
tp8096
Rp8097
ag2
(g22
S'\x1f\x85\xebQ\xb8\x9e\x13@'
p8098
tp8099
Rp8100
ag2
(g22
S'\xcb\xa1E\xb6\xf3El@'
p8101
tp8102
Rp8103
aF0.701
aF0.602
aF0.462
aF1.22e-05
aF-11.364
aF0.0633
aF131.784
aF0.449
aa(lp8104
g2
(g3
(S'S20'
p8105
I0
I1
tp8106
Rp8107
(I3
S'|'
p8108
NNNI20
I1
I0
tp8109
bS'Pass Through My Will'
p8110
tp8111
Rp8112
ag2
(g3
(S'S19'
p8113
I0
I1
tp8114
Rp8115
(I3
S'|'
p8116
NNNI19
I1
I0
tp8117
bS'John Michael Talbot'
p8118
tp8119
Rp8120
ag2
(g22
S'\x83\x06OD%\xdd\xe1?'
p8121
tp8122
Rp8123
ag2
(g22
S'\x93\xe9\x1c\xb1\x92 \xdc?'
p8124
tp8125
Rp8126
ag2
(g22
S'T5A\xd4}r\\@'
p8127
tp8128
Rp8129
ag2
(g22
S'\x00\x00\x00\x00\x00\x00\x00\x00'
p8130
tp8131
Rp8132
ag2
(g22
S'\x9c\xc4 \xb0r [@'
p8133
tp8134
Rp8135
aF0.806
aF0.291
aF0.235
aF0.0732
aF-13.044
aF0.0303
aF98.674
aF0.223
aa(lp8136
g2
(g3
(S'S28'
p8137
I0
I1
tp8138
Rp8139
(I3
S'|'
p8140
NNNI28
I1
I0
tp8141
bS"Don't Go Knockin' On My Door"
p8142
tp8143
Rp8144
ag2
(g3
(S'S14'
p8145
I0
I1
tp8146
Rp8147
(I3
S'|'
p8148
NNNI14
I1
I0
tp8149
bS'Britney Spears'
p8150
tp8151
Rp8152
ag2
(g22
S'\x0e&s\xc6\x81P\xee?'
p8153
tp8154
Rp8155
ag2
(g22
S'^f\xac\r\x863\xe4?'
p8156
tp8157
Rp8158
ag2
(g22
S'\xde\x8epZ\xf0\xf0k@'
p8159
tp8160
Rp8161
ag2
(g22
S'\x00\x00\x00\x00\x00\x00\x00\x00'
p8162
tp8163
Rp8164
ag2
(g22
S'u\x93\x18\x04V\xd6j@'
p8165
tp8166
Rp8167
aF0.23
aF0.808
aF0.761
aI0
aF-5.614
aF0.0512
aF110.965
aF0.92
aa(lp8168
g2
(g3
(S'S30'
p8169
I0
I1
tp8170
Rp8171
(I3
S'|'
p8172
NNNI30
I1
I0
tp8173
bS'Sacrifice for the Slaughtergod'
p8174
tp8175
Rp8176
ag2
(g3
(S'S13'
p8177
I0
I1
tp8178
Rp8179
(I3
S'|'
p8180
NNNI13
I1
I0
tp8181
bS'Skeletonwitch'
p8182
tp8183
Rp8184
ag2
(g22
S'\x7f\x9b\xbd{\xdf\x10\xe6?'
p8185
tp8186
Rp8187
ag2
(g22
S'\x89\xb5\xb4e\xe4\xed\xe0?'
p8188
tp8189
Rp8190
ag2
(g22
S'\\\x1b*\xc6\xf9\xabe@'
p8191
tp8192
Rp8193
ag2
(g22
S'\x00\x00\x00\x00\x00\x00\x00\x00'
p8194
tp8195
Rp8196
ag2
(g22
S'\xd9\xce\xf7S\xe3!e@'
p8197
tp8198
Rp8199
aF0.00483
aF0.18
aF0.972
aF0.747
aF-5.067
aF0.148
aF202.722
aF0.454
aa(lp8200
g2
(g3
(S'S21'
p8201
I0
I1
tp8202
Rp8203
(I3
S'|'
p8204
NNNI21
I1
I0
tp8205
bS'Si No Te Hubieras Ido'
p8206
tp8207
Rp8208
ag2
(g3
(S'S12'
p8209
I0
I1
tp8210
Rp8211
(I3
S'|'
p8212
NNNI12
I1
I0
tp8213
bS'Charlie Cruz'
p8214
tp8215
Rp8216
ag2
(g22
S'%\xf4\xc2\xbe\x0c\x12\xe1?'
p8217
tp8218
Rp8219
ag2
(g22
S'\xa8\x1a8;\n\x86\xd1?'
p8220
tp8221
Rp8222
ag2
(g22
S'\xdc\x11N\x0b^\rr@'
p8223
tp8224
Rp8225
ag2
(g22
S'%\x06\x81\x95C\x8b\xcc?'
p8226
tp8227
Rp8228
ag2
(g22
S'\xf0\xa7\xc6K7\xe1q@'
p8229
tp8230
Rp8231
aF0.448
aF0.74
aF0.954
aF0.000915
aF-2.161
aF0.047
aF100.326
aF0.83
aa(lp8232
g2
(g3
(S'S13'
p8233
I0
I1
tp8234
Rp8235
(I3
S'|'
p8236
NNNI13
I1
I0
tp8237
bS'I Worship You'
p8238
tp8239
Rp8240
ag2
(g3
(S'S14'
p8241
I0
I1
tp8242
Rp8243
(I3
S'|'
p8244
NNNI14
I1
I0
tp8245
bS'True Believers'
p8246
tp8247
Rp8248
ag2
(g22
S'_K[\xc7\xe7\x9e\xdf?'
p8249
tp8250
Rp8251
ag2
(g22
S"L\x9e\xd2,'\xff\xd4?"
p8252
tp8253
Rp8254
ag2
(g22
S'd\x92\x91\xb30\x9eq@'
p8255
tp8256
Rp8257
ag2
(g22
S'\x00\x00\x00\x00\x00\x00\x00\x00'
p8258
tp8259
Rp8260
ag2
(g22
S'\xa8\xc6K7\x89+q@'
p8261
tp8262
Rp8263
aF0.154
aF0.535
aF0.444
aI0
aF-8.368
aF0.0306
aF92.984
aF0.24
aa(lp8264
g2
(g3
(S'S9'
p8265
I0
I1
tp8266
Rp8267
(I3
S'|'
p8268
NNNI9
I1
I0
tp8269
bS'Jimi Baby'
p8270
tp8271
Rp8272
ag2
(g3
(S'S16'
p8273
I0
I1
tp8274
Rp8275
(I3
S'|'
p8276
NNNI16
I1
I0
tp8277
bS'Slightly Stoopid'
p8278
tp8279
Rp8280
ag2
(g22
S']\xd0\xbfg\xac\xb7\xeb?'
p8281
tp8282
Rp8283
ag2
(g22
S'\x15\x14~-\xf2@\xdf?'
p8284
tp8285
Rp8286
ag2
(g22
S']\xbf`7l\x9f]@'
p8287
tp8288
Rp8289
ag2
(g22
S'\x00\x00\x00\x00\x00\x00\x00\x00'
p8290
tp8291
Rp8292
ag2
(g22
S'\xbct\x93\x18\x04\x16[@'
p8293
tp8294
Rp8295
aF0.00549
aF0.369
aF0.595
aF0.478
aF-10.736
aF0.0468
aF171.986
aF0.35
aa(lp8296
g2
(g3
(S'S14'
p8297
I0
I1
tp8298
Rp8299
(I3
S'|'
p8300
NNNI14
I1
I0
tp8301
bS'Full Of Voices'
p8302
tp8303
Rp8304
ag2
(g3
(S'S17'
p8305
I0
I1
tp8306
Rp8307
(I3
S'|'
p8308
NNNI17
I1
I0
tp8309
bS'Maximilian Hecker'
p8310
tp8311
Rp8312
ag2
(g22
S'h#DA9\xe0\xe3?'
p8313
tp8314
Rp8315
ag2
(g22
S'\x8c\xcf;p?\xe2\xdb?'
p8316
tp8317
Rp8318
ag2
(g22
S'\x85|\xd0\xb3Y\xb9i@'
p8319
tp8320
Rp8321
ag2
(g22
S'\x91\xed|?5^\x03@'
p8322
tp8323
Rp8324
ag2
(g22
S'X9\xb4\xc8v\x1eh@'
p8325
tp8326
Rp8327
aF0.0874
aF0.254
aF0.799
aF0.0126
aF-8.418
aF0.0959
aF195.006
aF0.387
aa(lp8328
g2
(g3
(S'S20'
p8329
I0
I1
tp8330
Rp8331
(I3
S'|'
p8332
NNNI20
I1
I0
tp8333
bS'Fool For Your Loving'
p8334
tp8335
Rp8336
ag2
(g3
(S'S10'
p8337
I0
I1
tp8338
Rp8339
(I3
S'|'
p8340
NNNI10
I1
I0
tp8341
bS'Whitesnake'
p8342
tp8343
Rp8344
ag2
(g22
S'\xbb\xa2)\xa7^Q\xea?'
p8345
tp8346
Rp8347
ag2
(g22
S'e\xcf/\xd1o\x00\xe1?'
p8348
tp8349
Rp8350
ag2
(g22
S'\xda\xac\xfa\\mKo@'
p8351
tp8352
Rp8353
ag2
(g22
S'd;\xdfO\x8d\x97\t@'
p8354
tp8355
Rp8356
ag2
(g22
S'}?5^\xba\x01n@'
p8357
tp8358
Rp8359
aF0.00171
aF0.503
aF0.943
aF4.1e-05
aF-4.951
aF0.0403
aF125.861
aF0.536
aa(lp8360
g2
(g3
(S'S8'
p8361
I0
I1
tp8362
Rp8363
(I3
S'|'
p8364
NNNI8
I1
I0
tp8365
bS'If I Run'
p8366
tp8367
Rp8368
ag2
(g3
(S'S9'
p8369
I0
I1
tp8370
Rp8371
(I3
S'|'
p8372
NNNI9
I1
I0
tp8373
bS'Semisonic'
p8374
tp8375
Rp8376
ag2
(g22
S'\x0caLd\xce\xce\xe6?'
p8377
tp8378
Rp8379
ag2
(g22
S'\xe8\xb6\xe6\x86\xf4\x1f\xde?'
p8380
tp8381
Rp8382
ag2
(g22
S'\xc0\x04n\xdd\xcd.p@'
p8383
tp8384
Rp8385
ag2
(g22
S'\x17\xd9\xce\xf7S\xe3\xc5?'
p8386
tp8387
Rp8388
ag2
(g22
S'\x7fj\xbct\x93\x00o@'
p8389
tp8390
Rp8391
aF3.42e-05
aF0.456
aF0.859
aF0.533
aF-5.594
aF0.0354
aF92.945
aF0.546
aa(lp8392
g2
(g3
(S'S14'
p8393
I0
I1
tp8394
Rp8395
(I3
S'|'
p8396
NNNI14
I1
I0
tp8397
bS'Guardian Angel'
p8398
tp8399
Rp8400
ag2
(g3
(S'S9'
p8401
I0
I1
tp8402
Rp8403
(I3
S'|'
p8404
NNNI9
I1
I0
tp8405
bS'Novaspace'
p8406
tp8407
Rp8408
ag2
(g22
S'\xc2\xe5xBn\x04\xe6?'
p8409
tp8410
Rp8411
ag2
(g22
S']\xf4\xe7\xae\xe2\xd3\xd7?'
p8412
tp8413
Rp8414
ag2
(g22
S'c\xb9\xa5\xd5\x90\xf1l@'
p8415
tp8416
Rp8417
ag2
(g22
S'\x81\x95C\x8bl\xe7\xcb?'
p8418
tp8419
Rp8420
ag2
(g22
S'\xbe\x9f\x1a/\xdd`l@'
p8421
tp8422
Rp8423
aF0.389
aF0.607
aF0.551
aF2.95e-05
aF-7.146
aF0.0319
aF92.982
aF0.383
aa(lp8424
g2
(g3
(S'S9'
p8425
I0
I1
tp8426
Rp8427
(I3
S'|'
p8428
NNNI9
I1
I0
tp8429
bS'Melodioso'
p8430
tp8431
Rp8432
ag2
(g3
(S'S11'
p8433
I0
I1
tp8434
Rp8435
(I3
S'|'
p8436
NNNI11
I1
I0
tp8437
bS'Tom Barabas'
p8438
tp8439
Rp8440
ag2
(g22
S'\xceb\xb7\x7fr\xac\xdc?'
p8441
tp8442
Rp8443
ag2
(g22
S'\xf7e\xd80l?\xd7?'
p8444
tp8445
Rp8446
ag2
(g22
S'\xab!q\x8f\xa5&o@'
p8447
tp8448
Rp8449
ag2
(g22
S'Nb\x10X9\xb4\xd8?'
p8450
tp8451
Rp8452
ag2
(g22
S'T\xe3\xa5\x9b\xc4\x18n@'
p8453
tp8454
Rp8455
aF0.745
aF0.57
aF0.297
aF0.976
aF-13.157
aF0.0308
aF121.019
aF0.156
aa(lp8456
g2
(g3
(S'S8'
p8457
I0
I1
tp8458
Rp8459
(I3
S'|'
p8460
NNNI8
I1
I0
tp8461
bS'Hel Vete'
p8462
tp8463
Rp8464
ag2
(g3
(S'S9'
p8465
I0
I1
tp8466
Rp8467
(I3
S'|'
p8468
NNNI9
I1
I0
tp8469
bS'Finntroll'
p8470
tp8471
Rp8472
ag2
(g22
S'\xc1\xb7\xc0p\xb0]\xe4?'
p8473
tp8474
Rp8475
ag2
(g22
S'\x93\tS\xabVv\xdb?'
p8476
tp8477
Rp8478
ag2
(g22
S'l\x95`q8\xe0o@'
p8479
tp8480
Rp8481
ag2
(g22
S'\x00\x00\x00\x00\x00\x00\x00\x00'
p8482
tp8483
Rp8484
ag2
(g22
S'\xa0\x1a/\xdd$Bo@'
p8485
tp8486
Rp8487
aF2.93e-06
aF0.248
aF0.984
aF0.745
aF-5.87
aF0.169
aF112.43
aF0.364
aa(lp8488
g2
(g3
(S'S9'
p8489
I0
I1
tp8490
Rp8491
(I3
S'|'
p8492
NNNI9
I1
I0
tp8493
bS'Escuchame'
p8494
tp8495
Rp8496
ag2
(g3
(S'S12'
p8497
I0
I1
tp8498
Rp8499
(I3
S'|'
p8500
NNNI12
I1
I0
tp8501
bS'Carlos Ponce'
p8502
tp8503
Rp8504
ag2
(g22
S'2\xf6\xf0\x15JP\xe3?'
p8505
tp8506
Rp8507
ag2
(g22
S'\x1agD\xe0zn\xd3?'
p8508
tp8509
Rp8510
ag2
(g22
S'=\x9bU\x9f\xabqh@'
p8511
tp8512
Rp8513
ag2
(g22
S'7\x89A`\xe5\xd0\xc2?'
p8514
tp8515
Rp8516
ag2
(g22
S'P\x8d\x97n\x12\xcbg@'
p8517
tp8518
Rp8519
aF0.123
aF0.707
aF0.886
aI0
aF-6.693
aF0.0821
aF98.065
aF0.68
aa(lp8520
g2
(g3
(S'S17'
p8521
I0
I1
tp8522
Rp8523
(I3
S'|'
p8524
NNNI17
I1
I0
tp8525
bS'Sending A Message'
p8526
tp8527
Rp8528
ag2
(g3
(S'S11'
p8529
I0
I1
tp8530
Rp8531
(I3
S'|'
p8532
NNNI11
I1
I0
tp8533
bS'Colin James'
p8534
tp8535
Rp8536
ag2
(g22
S'o\xb0\xed\xd7L\xc4\xe0?'
p8537
tp8538
Rp8539
ag2
(g22
S'\x01\xd1\n\x8f,7\xdc?'
p8540
tp8541
Rp8542
ag2
(g22
S'\xc5\xfe\xb2{\xf26m@'
p8543
tp8544
Rp8545
ag2
(g22
S'\xa2E\xb6\xf3\xfd\xd4\x12@'
p8546
tp8547
Rp8548
ag2
(g22
S'sh\x91\xed|\xdbk@'
p8549
tp8550
Rp8551
aF0.202
aF0.562
aF0.762
aF0.000553
aF-7.289
aF0.0903
aF149.47
aF0.599
aa(lp8552
g2
(g3
(S'S21'
p8553
I0
I1
tp8554
Rp8555
(I3
S'|'
p8556
NNNI21
I1
I0
tp8557
bS'Auf Der Mundharmonika'
p8558
tp8559
Rp8560
ag2
(g3
(S'S16'
p8561
I0
I1
tp8562
Rp8563
(I3
S'|'
p8564
NNNI16
I1
I0
tp8565
bS'Marlene Dietrich'
p8566
tp8567
Rp8568
ag2
(g22
S'h\xe3.}\x9d\xbd\xe3?'
p8569
tp8570
Rp8571
ag2
(g22
S'\xda\x1b\x14+\x00\xa8\xda?'
p8572
tp8573
Rp8574
ag2
(g22
S'\x83L2r\x16\xebc@'
p8575
tp8576
Rp8577
ag2
(g22
S'V\x0e-\xb2\x9d\xef\xd7?'
p8578
tp8579
Rp8580
ag2
(g22
S'\x87\x16\xd9\xce\xf7Wc@'
p8581
tp8582
Rp8583
aF0.896
aF0.395
aF0.202
aF3.12e-05
aF-15.559
aF0.0343
aF56.607
aF0.383
aa(lp8584
g2
(g3
(S'S11'
p8585
I0
I1
tp8586
Rp8587
(I3
S'|'
p8588
NNNI11
I1
I0
tp8589
bS'Girls Girls'
p8590
tp8591
Rp8592
ag2
(g3
(S'S20'
p8593
I0
I1
tp8594
Rp8595
(I3
S'|'
p8596
NNNI20
I1
I0
tp8597
bS'Pinchers & Ganglords'
p8598
tp8599
Rp8600
ag2
(g22
S'\xff\xc8\xb3\x13I\xde\xe1?'
p8601
tp8602
Rp8603
ag2
(g22
S'AV!(\xed\xcc\xd5?'
p8604
tp8605
Rp8606
ag2
(g22
S'I\x9d\x80&\xc2em@'
p8607
tp8608
Rp8609
ag2
(g22
S'\x00\x00\x00\x00\x00\x00\x00\x00'
p8610
tp8611
Rp8612
ag2
(g22
S'\xc5 \xb0rh\xf9k@'
p8613
tp8614
Rp8615
aF0.0469
aF0.715
aF0.35
aI0
aF-13.846
aF0.121
aF81.682
aF0.752
aa(lp8616
g2
(g3
(S'S5'
p8617
I0
I1
tp8618
Rp8619
(I3
S'|'
p8620
NNNI5
I1
I0
tp8621
bS'6 6 6'
p8622
tp8623
Rp8624
ag2
(g3
(S'S34'
p8625
I0
I1
tp8626
Rp8627
(I3
S'|'
p8628
NNNI34
I1
I0
tp8629
bS'Ziggy Marley And The Melody Makers'
p8630
tp8631
Rp8632
ag2
(g22
S'Z\xd4\xdd?\xee\x03\xe8?'
p8633
tp8634
Rp8635
ag2
(g22
S'\xcd\x1d\xba\xbeQ;\xe1?'
p8636
tp8637
Rp8638
ag2
(g22
S'\x7fM\xd6\xa8\x87\xfet@'
p8639
tp8640
Rp8641
ag2
(g22
S'B`\xe5\xd0"\xdb\xb9?'
p8642
tp8643
Rp8644
ag2
(g22
S'L7\x89A`/t@'
p8645
tp8646
Rp8647
aF0.0507
aF0.716
aF0.373
aI0
aF-15.763
aF0.0348
aF145.227
aF0.823
aa(lp8648
g2
(g3
(S'S19'
p8649
I0
I1
tp8650
Rp8651
(I3
S'|'
p8652
NNNI19
I1
I0
tp8653
bS"Something's Missing"
p8654
tp8655
Rp8656
ag2
(g3
(S'S10'
p8657
I0
I1
tp8658
Rp8659
(I3
S'|'
p8660
NNNI10
I1
I0
tp8661
bS'John Mayer'
p8662
tp8663
Rp8664
ag2
(g22
S'C\n7"x\xd0\xea?'
p8665
tp8666
Rp8667
ag2
(g22
S'h=\x12\xadl8\xe9?'
p8668
tp8669
Rp8670
ag2
(g22
S'}y\x01\xf6Qwy@'
p8671
tp8672
Rp8673
ag2
(g22
S'\x00\x00\x00\x00\x00\x00\x00\x00'
p8674
tp8675
Rp8676
ag2
(g22
S'\xc7K7\x89A\xfcx@'
p8677
tp8678
Rp8679
aF0.0989
aF0.545
aF0.899
aF0.000581
aF-3.41
aF0.0302
aF152.027
aF0.531
aa(lp8680
g2
(g3
(S'S19'
p8681
I0
I1
tp8682
Rp8683
(I3
S'|'
p8684
NNNI19
I1
I0
tp8685
bS'Judge Boushay Blues'
p8686
tp8687
Rp8688
ag2
(g3
(S'S11'
p8689
I0
I1
tp8690
Rp8691
(I3
S'|'
p8692
NNNI11
I1
I0
tp8693
bS'Furry Lewis'
p8694
tp8695
Rp8696
ag2
(g22
S'\x8e\xd2\x9b\xc7\xecQ\xe2?'
p8697
tp8698
Rp8699
ag2
(g22
S'\xc9\x15\xe6\x862\x8e\xd7?'
p8700
tp8701
Rp8702
ag2
(g22
S'\x10X9\xb4\xc8\xbek@'
p8703
tp8704
Rp8705
ag2
(g22
S'\xee|?5^\xba\xf7?'
p8706
tp8707
Rp8708
ag2
(g22
S'\x04V\x0e-\xb2\x05k@'
p8709
tp8710
Rp8711
aF0.989
aF0.445
aF0.0318
aF0.0171
aF-27.998
aF0.0471
aF117.876
aF0.255
aa(lp8712
g2
(g3
(S'S8'
p8713
I0
I1
tp8714
Rp8715
(I3
S'|'
p8716
NNNI8
I1
I0
tp8717
bS'Sabotage'
p8718
tp8719
Rp8720
ag2
(g3
(S'S11'
p8721
I0
I1
tp8722
Rp8723
(I3
S'|'
p8724
NNNI11
I1
I0
tp8725
bS'Cancer Bats'
p8726
tp8727
Rp8728
ag2
(g22
S'\xdd\xcfZ\xb1\xd8\x12\xe6?'
p8729
tp8730
Rp8731
ag2
(g22
S'\xb6;\xbcW=\x15\xe1?'
p8732
tp8733
Rp8734
ag2
(g22
S'\xc4B\xadi\xde\x96f@'
p8735
tp8736
Rp8737
ag2
(g22
S'\x00\x00\x00\x00\x00\x00\x00\x00'
p8738
tp8739
Rp8740
ag2
(g22
S'm\xe7\xfb\xa9\xf1\xcad@'
p8741
tp8742
Rp8743
aF6.03e-05
aF0.38
aF0.955
aF0.697
aF-4.344
aF0.193
aF172.223
aF0.399
aa(lp8744
g2
(g3
(S'S24'
p8745
I0
I1
tp8746
Rp8747
(I3
S'|'
p8748
NNNI24
I1
I0
tp8749
bS'My Heart Went That-A-Way'
p8750
tp8751
Rp8752
ag2
(g3
(S'S10'
p8753
I0
I1
tp8754
Rp8755
(I3
S'|'
p8756
NNNI10
I1
I0
tp8757
bS'Roy Rogers'
p8758
tp8759
Rp8760
ag2
(g22
S'\xe08\\!\xefT\xe0?'
p8761
tp8762
Rp8763
ag2
(g22
S'B.r%\xd6\xec\xd9?'
p8764
tp8765
Rp8766
ag2
(g22
S'\n\xa2\xee\x03\x90\xd5f@'
p8767
tp8768
Rp8769
ag2
(g22
S'\x10X9\xb4\xc8v\xbe?'
p8770
tp8771
Rp8772
ag2
(g22
S'q=\n\xd7\xa3xe@'
p8773
tp8774
Rp8775
aF0.836
aF0.757
aF0.237
aF2.67e-05
aF-16.116
aF0.0714
aF92.68
aF0.761
aa(lp8776
g2
(g3
(S'S11'
p8777
I0
I1
tp8778
Rp8779
(I3
S'|'
p8780
NNNI11
I1
I0
tp8781
bS'The Epi-Pen'
p8782
tp8783
Rp8784
ag2
(g3
(S'S17'
p8785
I0
I1
tp8786
Rp8787
(I3
S'|'
p8788
NNNI17
I1
I0
tp8789
bS'Alexandre Desplat'
p8790
tp8791
Rp8792
ag2
(g22
S'\x99F\xab\xb0\x9d\x83\xe3?'
p8793
tp8794
Rp8795
ag2
(g22
S'\x9a\xb4\xee\xb9\xa3\xee\xe1?'
p8796
tp8797
Rp8798
ag2
(g22
S'\x8c\xa1\x9chW\xecm@'
p8799
tp8800
Rp8801
ag2
(g22
S'7\x89A`\xe5\xd0\x0b@'
p8802
tp8803
Rp8804
ag2
(g22
S'\xb4\xc8v\xbe\x9f\xeek@'
p8805
tp8806
Rp8807
aF0.298
aF0.237
aF0.242
aF0.669
aF-15.979
aF0.0456
aF140.428
aF0.029
aa(lp8808
g2
(g3
(S'S13'
p8809
I0
I1
tp8810
Rp8811
(I3
S'|'
p8812
NNNI13
I1
I0
tp8813
bS'Baat Ban Jaye'
p8814
tp8815
Rp8816
ag2
(g3
(S'S5'
p8817
I0
I1
tp8818
Rp8819
(I3
S'|'
p8820
NNNI5
I1
I0
tp8821
bS'Biddu'
p8822
tp8823
Rp8824
ag2
(g22
S'\x14\x04\xbe\xf3\x02\xb9\xd7?'
p8825
tp8826
Rp8827
ag2
(g22
S'\x12\xb3\x80\x07H\x06\xd3?'
p8828
tp8829
Rp8830
ag2
(g22
S'\n\xdc\xba\x9b\xa7lh@'
p8831
tp8832
Rp8833
ag2
(g22
S'\\\x8f\xc2\xf5(\\\xf1?'
p8834
tp8835
Rp8836
ag2
(g22
S'u\x93\x18\x04V:g@'
p8837
tp8838
Rp8839
aF0.644
aF0.696
aF0.613
aF0.698
aF-10.455
aF0.0305
aF108.812
aF0.978
aa(lp8840
g2
(g3
(S'S20'
p8841
I0
I1
tp8842
Rp8843
(I3
S'|'
p8844
NNNI20
I1
I0
tp8845
bS'People of cloud nine'
p8846
tp8847
Rp8848
ag2
(g3
(S'S4'
p8849
I0
I1
tp8850
Rp8851
(I3
S'|'
p8852
NNNI4
I1
I0
tp8853
bS'Uman'
p8854
tp8855
Rp8856
ag2
(g22
S'\xe0\xec\xcb\xa3w\x12\xe1?'
p8857
tp8858
Rp8859
ag2
(g22
S'\x99 \x1f%"\x8d\xd6?'
p8860
tp8861
Rp8862
ag2
(g22
S'\x88c]\xdcF\x84u@'
p8863
tp8864
Rp8865
ag2
(g22
S'\xc3\xf5(\\\x8f\xc2\x14@'
p8866
tp8867
Rp8868
ag2
(g22
S'\x85\xebQ\xb8\x1eyt@'
p8869
tp8870
Rp8871
aF0.845
aF0.496
aF0.409
aF0.752
aF-15.019
aF0.0396
aF199.775
aF0.0994
aa.