(lp0
(lp1
cnumpy.core.multiarray
scalar
p2
(cnumpy
dtype
p3
(S'S15'
p4
I0
I1
tp5
Rp6
(I3
S'|'
p7
NNNI15
I1
I0
tp8
bS'Can You Hear Me'
p9
tp10
Rp11
ag2
(g3
(S'S16'
p12
I0
I1
tp13
Rp14
(I3
S'|'
p15
NNNI16
I1
I0
tp16
bS'Enrique Iglesias'
p17
tp18
Rp19
ag2
(g3
(S'f8'
p20
I0
I1
tp21
Rp22
(I3
S'<'
p23
NNNI-1
I-1
I0
tp24
bS'\xdbH\xc1\xee\xb5y\xea?'
p25
tp26
Rp27
ag2
(g22
S'k\x880;\xfc\x17\xe8?'
p28
tp29
Rp30
ag2
(g22
S'\x0bc\x0bA\x0eZm@'
p31
tp32
Rp33
ag2
(g22
S'\xd7\xa3p=\n\xd7\xc3?'
p34
tp35
Rp36
ag2
(g22
S'\xd5x\xe9&1\xfck@'
p37
tp38
Rp39
aF0.0107
aF0.842
aF0.625
aI0
aF-3.625
aF0.0487
aF116.982
aF0.513
aa(lp40
g2
(g3
(S'S10'
p41
I0
I1
tp42
Rp43
(I3
S'|'
p44
NNNI10
I1
I0
tp45
bS'Like A Dog'
p46
tp47
Rp48
ag2
(g3
(S'S23'
p49
I0
I1
tp50
Rp51
(I3
S'|'
p52
NNNI23
I1
I0
tp53
bS'Long Beach Dub Allstars'
p54
tp55
Rp56
ag2
(g22
S'U\x81\xa2\xaf\xc7i\xe2?'
p57
tp58
Rp59
ag2
(g22
S'\xd9\xfc\xe73\xe1\xb5\xda?'
p60
tp61
Rp62
ag2
(g22
S'%\xaf\xce1 \xb4j@'
p63
tp64
Rp65
ag2
(g22
S'L7\x89A`\xe5\xb0?'
p66
tp67
Rp68
ag2
(g22
S"\x17\xd9\xce\xf7S'j@"
p69
tp70
Rp71
aF0.00108
aF0.802
aF0.596
aF0.000254
aF-7.199
aF0.0976
aF93.402
aF0.603
aa(lp72
g2
(g3
(S'S13'
p73
I0
I1
tp74
Rp75
(I3
S'|'
p76
NNNI13
I1
I0
tp77
bS'Saturday Love'
p78
tp79
Rp80
ag2
(g3
(S'S16'
p81
I0
I1
tp82
Rp83
(I3
S'|'
p84
NNNI16
I1
I0
tp85
bS"Alexander O'Neal"
p86
tp87
Rp88
ag2
(g22
S't\xbd1Z\xf1}\xe3?'
p89
tp90
Rp91
ag2
(g22
S'\xed\xd2\xddGo\x97\xdd?'
p92
tp93
Rp94
ag2
(g22
S'{\xbd\xfb\xe3=\xd7r@'
p95
tp96
Rp97
ag2
(g22
S'\xbe\x9f\x1a/\xdd$\x1c@'
p98
tp99
Rp100
ag2
(g22
S'\n\xd7\xa3p=\x96r@'
p101
tp102
Rp103
aF0.0756
aF0.869
aF0.394
aF0.00114
aF-12.174
aF0.0592
aF115.936
aF0.606
aa(lp104
g2
(g3
(S'S9'
p105
I0
I1
tp106
Rp107
(I3
S'|'
p108
NNNI9
I1
I0
tp109
bS'How Can I'
p110
tp111
Rp112
ag2
(g3
(S'S8'
p113
I0
I1
tp114
Rp115
(I3
S'|'
p116
NNNI8
I1
I0
tp117
bS'Jah Cure'
p118
tp119
Rp120
ag2
(g22
S'\xfc\x9d\xd8\xd7k\xa1\xe6?'
p121
tp122
Rp123
ag2
(g22
S'@\xc4\x8bx\xdd\xa0\xe0?'
p124
tp125
Rp126
ag2
(g22
S'\xd1\x05\xf5-s\x0fn@'
p127
tp128
Rp129
ag2
(g22
S'\x00\x00\x00\x00\x00\x00\x00\x00'
p130
tp131
Rp132
ag2
(g22
S'\x10X9\xb4\xc8vm@'
p133
tp134
Rp135
aF0.00335
aF0.628
aF0.609
aF2.8e-05
aF-5.569
aF0.0412
aF80.367
aF0.563
aa(lp136
g2
(g3
(S'S17'
p137
I0
I1
tp138
Rp139
(I3
S'|'
p140
NNNI17
I1
I0
tp141
bS'Easy To Lose Hope'
p142
tp143
Rp144
ag2
(g3
(S'S14'
p145
I0
I1
tp146
Rp147
(I3
S'|'
p148
NNNI14
I1
I0
tp149
bS'Eleanor McEvoy'
p150
tp151
Rp152
ag2
(g22
S'\xb7C\xf6\xa5\x10\xb0\xe1?'
p153
tp154
Rp155
ag2
(g22
S'*@i\x07\xcf\r\xd6?'
p156
tp157
Rp158
ag2
(g22
S'&\xaa\xb7\x06\xb6\x10v@'
p159
tp160
Rp161
ag2
(g22
S'!\xb0rh\x91\xed\xbc?'
p162
tp163
Rp164
ag2
(g22
S'\xc7K7\x89A\xaat@'
p165
tp166
Rp167
aF0.174
aF0.596
aF0.607
aF0.000108
aF-8.601
aF0.0329
aF91.999
aF0.45
aa(lp168
g2
(g3
(S'S14'
p169
I0
I1
tp170
Rp171
(I3
S'|'
p172
NNNI14
I1
I0
tp173
bS'Jarabe De Pico'
p174
tp175
Rp176
ag2
(g3
(S'S13'
p177
I0
I1
tp178
Rp179
(I3
S'|'
p180
NNNI13
I1
I0
tp181
bS'Pablo Montero'
p182
tp183
Rp184
ag2
(g22
S'\xd0\x14h\xff_{\xe1?'
p185
tp186
Rp187
ag2
(g22
S'\xe5\x93\r\xed\xb7\xd5\xd3?'
p188
tp189
Rp190
ag2
(g22
S'\x82\x90,`\x02Ki@'
p191
tp192
Rp193
ag2
(g22
S'\x14\xaeG\xe1z\x14\xd6?'
p194
tp195
Rp196
ag2
(g22
S'\x1dZd;\xdf\xc7h@'
p197
tp198
Rp199
aF0.701
aF0.586
aF0.605
aI0
aF-7.697
aF0.0354
aF152.366
aF0.939
aa(lp200
g2
(g3
(S'S15'
p201
I0
I1
tp202
Rp203
(I3
S'|'
p204
NNNI15
I1
I0
tp205
bS'Etre Le Premier'
p206
tp207
Rp208
ag2
(g3
(S'S20'
p209
I0
I1
tp210
Rp211
(I3
S'|'
p212
NNNI20
I1
I0
tp213
bS'Jean-Jacques Goldman'
p214
tp215
Rp216
ag2
(g22
S'i\xc5\xab\x89\xea\xc1\xe3?'
p217
tp218
Rp219
ag2
(g22
S':\xddEU\x93\xc0\xdc?'
p220
tp221
Rp222
ag2
(g22
S"W\xec/\xbb'\xb0m@"
p223
tp224
Rp225
ag2
(g22
S')\\\x8f\xc2\xf5(\x00@'
p226
tp227
Rp228
ag2
(g22
S'\xbe\x9f\x1a/\xdd`l@'
p229
tp230
Rp231
aF0.00178
aF0.345
aF0.774
aF0.000848
aF-8.384
aF0.0463
aF125.597
aF0.275
aa(lp232
g2
(g3
(S'S30'
p233
I0
I1
tp234
Rp235
(I3
S'|'
p236
NNNI30
I1
I0
tp237
bS'Road-Age at the Farmers Market'
p238
tp239
Rp240
ag2
(g3
(S'S20'
p241
I0
I1
tp242
Rp243
(I3
S'|'
p244
NNNI20
I1
I0
tp245
bS'Population Reduction'
p246
tp247
Rp248
ag2
(g22
S'=\x7f\xf3\xbc;X\xe2?'
p249
tp250
Rp251
ag2
(g22
S'H\xf9>\xf3\\\xed\xd2?'
p252
tp253
Rp254
ag2
(g22
S'\xab\xe7\xa4\xf7\x8d\x8fe@'
p255
tp256
Rp257
ag2
(g22
S'\x00\x00\x00\x00\x00\x00\x00\x00'
p258
tp259
Rp260
ag2
(g22
S'\xe9&1\x08\xac$e@'
p261
tp262
Rp263
aF3.24e-05
aF0.3
aF0.705
aF0.128
aF-8.046
aF0.137
aF138.969
aF0.476
aa(lp264
g2
(g3
(S'S17'
p265
I0
I1
tp266
Rp267
(I3
S'|'
p268
NNNI17
I1
I0
tp269
bS"L'antillais Donne"
p270
tp271
Rp272
ag2
(g3
(S'S15'
p273
I0
I1
tp274
Rp275
(I3
S'|'
p276
NNNI15
I1
I0
tp277
bS'Francky Vincent'
p278
tp279
Rp280
ag2
(g22
S'\xf0\xd3\x13\xd7\xda\x80\xe0?'
p281
tp282
Rp283
ag2
(g22
S'\xc6\xce\xf0FC$\xd3?'
p284
tp285
Rp286
ag2
(g22
S'\xa8\x8c\x7f\x9f\xf1[p@'
p287
tp288
Rp289
ag2
(g22
S'\x00\x00\x00\x00\x00\x00\x00\x00'
p290
tp291
Rp292
ag2
(g22
S'1\x08\xac\x1cZ\xcco@'
p293
tp294
Rp295
aF0.152
aF0.767
aF0.937
aF1.87e-06
aF-5.688
aF0.0696
aF114.804
aF0.879
aa(lp296
g2
(g3
(S'S17'
p297
I0
I1
tp298
Rp299
(I3
S'|'
p300
NNNI17
I1
I0
tp301
bS'Dayz Of Our Livez'
p302
tp303
Rp304
ag2
(g3
(S'S14'
p305
I0
I1
tp306
Rp307
(I3
S'|'
p308
NNNI14
I1
I0
tp309
bS'Agency 1.9.9.4'
p310
tp311
Rp312
ag2
(g22
S'Y&\x98D0U\xb3?'
p313
tp314
Rp315
ag2
(g22
S'\x00\x00\x00\x00\x00\x00\x00\x00'
p316
tp317
Rp318
ag2
(g22
S'\x88.\xa8o\x99\x90l@'
p319
tp320
Rp321
ag2
(g22
S'\x00\x00\x00\x00\x00\x00\x00\x00'
p322
tp323
Rp324
ag2
(g22
S'\xf8S\xe3\xa5\x9b\x90l@'
p325
tp326
Rp327
aF0.149
aF0.673
aF0.922
aF6.18e-06
aF-2.688
aF0.41
aF89.871
aF0.452
aa(lp328
g2
(g3
(S'S33'
p329
I0
I1
tp330
Rp331
(I3
S'|'
p332
NNNI33
I1
I0
tp333
bS"It Ain't The Meat It's The Motion"
p334
tp335
Rp336
ag2
(g3
(S'S13'
p337
I0
I1
tp338
Rp339
(I3
S'|'
p340
NNNI13
I1
I0
tp341
bS'Maria Muldaur'
p342
tp343
Rp344
ag2
(g22
S'\x9dG\x96\xabL\xc8\xe2?'
p345
tp346
Rp347
ag2
(g22
S'*q\xd7&\xc6\xa6\xdb?'
p348
tp349
Rp350
ag2
(g22
S'nLOX\xe2\x9bf@'
p351
tp352
Rp353
ag2
(g22
S'\xb0rh\x91\xed|\xdf?'
p354
tp355
Rp356
ag2
(g22
S'\xbaI\x0c\x02+\xe7e@'
p357
tp358
Rp359
aF0.426
aF0.658
aF0.448
aI0
aF-13.361
aF0.135
aF140.475
aF0.696
aa(lp360
g2
(g3
(S'S13'
p361
I0
I1
tp362
Rp363
(I3
S'|'
p364
NNNI13
I1
I0
tp365
bS'Inner Chamber'
p366
tp367
Rp368
ag2
(g3
(S'S7'
p369
I0
I1
tp370
Rp371
(I3
S'|'
p372
NNNI7
I1
I0
tp373
bS'Aeoliah'
p374
tp375
Rp376
ag2
(g22
S'|\x0e\xe1\x1e\xa6\x94\xe1?'
p377
tp378
Rp379
ag2
(g22
S'\x86\t(\xbc:H\xd8?'
p380
tp381
Rp382
ag2
(g22
S'H\xa7\xae|\x96.m@'
p383
tp384
Rp385
ag2
(g22
S'\x00\x00\x00\x00\x00\x00\x00\x00'
p386
tp387
Rp388
ag2
(g22
S'\n\xd7\xa3p=\x06k@'
p389
tp390
Rp391
aF0.99
aF0.144
aF0.0668
aF0.97
aF-26.923
aF0.0482
aF141.715
aF0.0293
aa(lp392
g2
(g3
(S'S15'
p393
I0
I1
tp394
Rp395
(I3
S'|'
p396
NNNI15
I1
I0
tp397
bS'La Fluta Magica'
p398
tp399
Rp400
ag2
(g3
(S'S7'
p401
I0
I1
tp402
Rp403
(I3
S'|'
p404
NNNI7
I1
I0
tp405
bS'Fajardo'
p406
tp407
Rp408
ag2
(g22
S'VI\nw\xce\xa1\xdb?'
p409
tp410
Rp411
ag2
(g22
S'G\x95\xa5\x8a\xdf\\\xd5?'
p412
tp413
Rp414
ag2
(g22
S'\xdb3K\x02\xd4\xb6]@'
p415
tp416
Rp417
ag2
(g22
S'\xcb\xa1E\xb6\xf3\xfd\xd4?'
p418
tp419
Rp420
ag2
(g22
S'\x02+\x87\x16\xd9\xb6]@'
p421
tp422
Rp423
aF0.508
aF0.496
aF0.464
aF0.029
aF-7.381
aF0.0364
aF123.324
aF0.667
aa(lp424
g2
(g3
(S'S3'
p425
I0
I1
tp426
Rp427
(I3
S'|'
p428
NNNI3
I1
I0
tp429
bS'Aho'
p430
tp431
Rp432
ag2
(g3
(S'S6'
p433
I0
I1
tp434
Rp435
(I3
S'|'
p436
NNNI6
I1
I0
tp437
bS'Meiway'
p438
tp439
Rp440
ag2
(g22
S'\xf9Jo\xfc\xf9\xdd\xd9?'
p441
tp442
Rp443
ag2
(g22
S'\x8f4\x1e\xb0X\xf7\xd2?'
p444
tp445
Rp446
ag2
(g22
S'V\xd4`\x1a\x06\nr@'
p447
tp448
Rp449
ag2
(g22
S'\x00\x00\x00\x00\x00\x00\x00\x00'
p450
tp451
Rp452
ag2
(g22
S'\x1f\x85\xebQ\xb8Vq@'
p453
tp454
Rp455
aF0.334
aF0.704
aF0.812
aF0.0194
aF-4.157
aF0.0324
aF92.996
aF0.556
aa(lp456
g2
(g3
(S'S8'
p457
I0
I1
tp458
Rp459
(I3
S'|'
p460
NNNI8
I1
I0
tp461
bS'Problems'
p462
tp463
Rp464
ag2
(g3
(S'S13'
p465
I0
I1
tp466
Rp467
(I3
S'|'
p468
NNNI13
I1
I0
tp469
bS'The Real Kids'
p470
tp471
Rp472
ag2
(g22
S'\xb3\x8d"3}\x08\xdf?'
p473
tp474
Rp475
ag2
(g22
S'Q-\xc2\xaea\x12\xd6?'
p476
tp477
Rp478
ag2
(g22
S'@\x87\xf9\xf2\x02\xe0`@'
p479
tp480
Rp481
ag2
(g22
S'+\x87\x16\xd9\xce\xf7\xb3?'
p482
tp483
Rp484
ag2
(g22
S'\xee|?5^V`@'
p485
tp486
Rp487
aF0.282
aF0.537
aF0.918
aF3.77e-05
aF-5.248
aF0.0411
aF156.541
aF0.908
aa(lp488
g2
(g3
(S'S30'
p489
I0
I1
tp490
Rp491
(I3
S'|'
p492
NNNI30
I1
I0
tp493
bS"I've Got The World On A String"
p494
tp495
Rp496
ag2
(g3
(S'S17'
p497
I0
I1
tp498
Rp499
(I3
S'|'
p500
NNNI17
I1
I0
tp501
bS'Charlie Byrd Trio'
p502
tp503
Rp504
ag2
(g22
S'\xa3\x81pE\xd68\xe0?'
p505
tp506
Rp507
ag2
(g22
S'7\\\xd5\x94\x9f\xdc\xca?'
p508
tp509
Rp510
ag2
(g22
S'\xda\xe1\xaf\xc9\x1a\xfel@'
p511
tp512
Rp513
ag2
(g22
S'\xcd\xcc\xcc\xcc\xcc\xcc\xe0?'
p514
tp515
Rp516
ag2
(g22
S'L7\x89A`\xd5j@'
p517
tp518
Rp519
aF0.841
aF0.752
aF0.111
aF0.0116
aF-18.537
aF0.0504
aF110.107
aF0.389
aa(lp520
g2
(g3
(S'S24'
p521
I0
I1
tp522
Rp523
(I3
S'|'
p524
NNNI24
I1
I0
tp525
bS'Performance (Remastered)'
p526
tp527
Rp528
ag2
(g3
(S'S13'
p529
I0
I1
tp530
Rp531
(I3
S'|'
p532
NNNI13
I1
I0
tp533
bS'Happy Mondays'
p534
tp535
Rp536
ag2
(g22
S'\xb5S0\x11\xc6\xd3\xe5?'
p537
tp538
Rp539
ag2
(g22
S'*\xd5]\x0b\x97$\xdb?'
p540
tp541
Rp542
ag2
(g22
S'\xb7\xee\xe6\xa9\x0ehn@'
p543
tp544
Rp545
ag2
(g22
S'\x00\x00\x00\x00\x00\x00\x00\x00'
p546
tp547
Rp548
ag2
(g22
S'B`\xe5\xd0"Cm@'
p549
tp550
Rp551
aF1.53e-05
aF0.488
aF0.809
aF0.533
aF-9.868
aF0.0482
aF109.288
aF0.816
aa(lp552
g2
(g3
(S'S19'
p553
I0
I1
tp554
Rp555
(I3
S'|'
p556
NNNI19
I1
I0
tp557
bS"Rockin' At Midnight"
p558
tp559
Rp560
ag2
(g3
(S'S9'
p561
I0
I1
tp562
Rp563
(I3
S'|'
p564
NNNI9
I1
I0
tp565
bS'Roy Brown'
p566
tp567
Rp568
ag2
(g22
S'\xbc\x8f\x06\xfd\x84\xab\xdd?'
p569
tp570
Rp571
ag2
(g22
S'\xec\x0c\xdb\x86\xeb\x88\xd7?'
p572
tp573
Rp574
ag2
(g22
S'k+\xf6\x97\xddzd@'
p575
tp576
Rp577
ag2
(g22
S'\xfe\xd4x\xe9&1\xc8?'
p578
tp579
Rp580
ag2
(g22
S'\xa8\xc6K7\x89\xe5c@'
p581
tp582
Rp583
aF0.936
aF0.596
aF0.516
aI0
aF-6.574
aF0.0881
aF158.463
aF0.752
aa(lp584
g2
(g3
(S'S12'
p585
I0
I1
tp586
Rp587
(I3
S'|'
p588
NNNI12
I1
I0
tp589
bS'Know Thyself'
p590
tp591
Rp592
ag2
(g3
(S'S4'
p593
I0
I1
tp594
Rp595
(I3
S'|'
p596
NNNI4
I1
I0
tp597
bS'Atom'
p598
tp599
Rp600
ag2
(g22
S'L\x85\x18.7\x16\xe0?'
p601
tp602
Rp603
ag2
(g22
S'\xea\xc7\x07i+a\xd4?'
p604
tp605
Rp606
ag2
(g22
S'B\t3m\xff\xe8i@'
p607
tp608
Rp609
ag2
(g22
S'\xc7K7\x89A`\x0c@'
p610
tp611
Rp612
ag2
(g22
S'\xa2E\xb6\xf3\xfd\xe8i@'
p613
tp614
Rp615
aF0.058
aF0.486
aF0.475
aF0.396
aF-12.354
aF0.0351
aF138.058
aF0.0781
aa(lp616
g2
(g3
(S'S16'
p617
I0
I1
tp618
Rp619
(I3
S'|'
p620
NNNI16
I1
I0
tp621
bS'Que Viva El Amor'
p622
tp623
Rp624
ag2
(g3
(S'S14'
p625
I0
I1
tp626
Rp627
(I3
S'|'
p628
NNNI14
I1
I0
tp629
bS'Flor Silvestre'
p630
tp631
Rp632
ag2
(g22
S'\xb7\xd1\x8a#9\xea\xda?'
p633
tp634
Rp635
ag2
(g22
S'\xb3\xba\xf6%\x85\x11\xd4?'
p636
tp637
Rp638
ag2
(g22
S'X9\xb4\xc8v\x84^@'
p639
tp640
Rp641
ag2
(g22
S'\x00\x00\x00\x00\x00\x00\x00\x00'
p642
tp643
Rp644
ag2
(g22
S'\xcd\xcc\xcc\xcc\xccD]@'
p645
tp646
Rp647
aF0.814
aF0.539
aF0.286
aI0
aF-7.355
aF0.042
aF141.531
aF0.662
aa(lp648
g2
(g3
(S'S13'
p649
I0
I1
tp650
Rp651
(I3
S'|'
p652
NNNI13
I1
I0
tp653
bS'The Last Song'
p654
tp655
Rp656
ag2
(g3
(S'S15'
p657
I0
I1
tp658
Rp659
(I3
S'|'
p660
NNNI15
I1
I0
tp661
bS"The Fool'S Nose"
p662
tp663
Rp664
ag2
(g22
S'S8\xbc\x99eF\xc9?'
p665
tp666
Rp667
ag2
(g22
S'\x00\x00\x00\x00\x00\x00\x00\x00'
p668
tp669
Rp670
ag2
(g22
S'j\xd9Z_$@i@'
p671
tp672
Rp673
ag2
(g22
S'\x83\xc0\xca\xa1E\xb6\x06@'
p674
tp675
Rp676
ag2
(g22
S'9\xb4\xc8v\xbe\xafg@'
p677
tp678
Rp679
aF0.0941
aF0.376
aF0.0071
aF0.914
aF-17.189
aF0.0314
aF86.123
aF0.778
aa(lp680
g2
(g3
(S'S6'
p681
I0
I1
tp682
Rp683
(I3
S'|'
p684
NNNI6
I1
I0
tp685
bS'Tocame'
p686
tp687
Rp688
ag2
(g3
(S'S8'
p689
I0
I1
tp690
Rp691
(I3
S'|'
p692
NNNI8
I1
I0
tp693
bS'Gisselle'
p694
tp695
Rp696
ag2
(g22
S'\xeb\xce\xbe\xd6\x9e\xc5\xdf?'
p697
tp698
Rp699
ag2
(g22
S'\xd0\xc3S\xce#2\xd3?'
p700
tp701
Rp702
ag2
(g22
S'\x7f\xdeT\xa4\xc2sn@'
p703
tp704
Rp705
ag2
(g22
S'\x08\xac\x1cZd;\xd7?'
p706
tp707
Rp708
ag2
(g22
S'\xaeG\xe1z\x14\x12n@'
p709
tp710
Rp711
aF0.4
aF0.8
aF0.916
aI0
aF-2.772
aF0.0646
aF136.916
aF0.894
aa(lp712
g2
(g3
(S'S4'
p713
I0
I1
tp714
Rp715
(I3
S'|'
p716
NNNI4
I1
I0
tp717
bS'Anya'
p718
tp719
Rp720
ag2
(g3
(S'S15'
p721
I0
I1
tp722
Rp723
(I3
S'|'
p724
NNNI15
I1
I0
tp725
bS'Marvin Hamlisch'
p726
tp727
Rp728
ag2
(g22
S'\xe58\xcc\x9f1\x80\xdf?'
p729
tp730
Rp731
ag2
(g22
S'\x82e;Z\x07\x14\xd6?'
p732
tp733
Rp734
ag2
(g22
S'H\xa7\xae|\x96.i@'
p735
tp736
Rp737
ag2
(g22
S'7\x89A`\xe5\xd0\xda?'
p738
tp739
Rp740
ag2
(g22
S'\xaeG\xe1z\x14\xe2g@'
p741
tp742
Rp743
aF0.981
aF0.306
aF0.0847
aF0.842
aF-24.117
aF0.0433
aF75.911
aF0.138
aa(lp744
g2
(g3
(S'S35'
p745
I0
I1
tp746
Rp747
(I3
S'|'
p748
NNNI35
I1
I0
tp749
bS'Grandma (Screwed & Chopped Version)'
p750
tp751
Rp752
ag2
(g3
(S'S10'
p753
I0
I1
tp754
Rp755
(I3
S'|'
p756
NNNI10
I1
I0
tp757
bS'Mike Jones'
p758
tp759
Rp760
ag2
(g22
S'1ID{6e\xe9?'
p761
tp762
Rp763
ag2
(g22
S'C\xfd\x1d\x1c\xcbH\xdb?'
p764
tp765
Rp766
ag2
(g22
S'(a\xa6\xed_\xccv@'
p767
tp768
Rp769
ag2
(g22
S'\x00\x00\x00\x00\x00\x00\x00\x00'
p770
tp771
Rp772
ag2
(g22
S'\x14\xaeG\xe1z\xa6v@'
p773
tp774
Rp775
aF0.0154
aF0.665
aF0.73
aF1.82e-05
aF-8.171
aF0.113
aF142.762
aF0.329
aa(lp776
g2
(g3
(S'S14'
p777
I0
I1
tp778
Rp779
(I3
S'|'
p780
NNNI14
I1
I0
tp781
bS'Fairytale Land'
p782
tp783
Rp784
ag2
(g3
(S'S17'
p785
I0
I1
tp786
Rp787
(I3
S'|'
p788
NNNI17
I1
I0
tp789
bS'Dora The Explorer'
p790
tp791
Rp792
ag2
(g22
S'\xb9S\xdc\x82\x15v\xe0?'
p793
tp794
Rp795
ag2
(g22
S'\xf2\x93\x97e\x01{\xda?'
p796
tp797
Rp798
ag2
(g22
S'wJ\x07\xeb\xfftP@'
p799
tp800
Rp801
ag2
(g22
S'b\x10X9\xb4\xc8\x05@'
p802
tp803
Rp804
ag2
(g22
S'V\x0e-\xb2\x9d\xffN@'
p805
tp806
Rp807
aF0.616
aF0.62
aF0.871
aF0.000255
aF-3.595
aF0.0498
aF119.663
aF0.94
aa(lp808
g2
(g3
(S'S42'
p809
I0
I1
tp810
Rp811
(I3
S'|'
p812
NNNI42
I1
I0
tp813
bS"Heart it Races (Yacht's I Should Coco Mix)"
p814
tp815
Rp816
ag2
(g3
(S'S24'
p817
I0
I1
tp818
Rp819
(I3
S'|'
p820
NNNI24
I1
I0
tp821
bS'Architecture In Helsinki'
p822
tp823
Rp824
ag2
(g22
S'\xf0\xec\xd8\x96 \xda\xe9?'
p825
tp826
Rp827
ag2
(g22
S'\x14[\xd6\xa2r*\xe0?'
p828
tp829
Rp830
ag2
(g22
S'i\xc6\xa2\xe9l~q@'
p831
tp832
Rp833
ag2
(g22
S'\x00\x00\x00\x00\x00\x00\x00\x00'
p834
tp835
Rp836
ag2
(g22
S'\xb6\xf3\xfd\xd4x\xfdp@'
p837
tp838
Rp839
aF0.151
aF0.879
aF0.76
aF0.000245
aF-6.918
aF0.0983
aF110.003
aF0.688
aa(lp840
g2
(g3
(S'S10'
p841
I0
I1
tp842
Rp843
(I3
S'|'
p844
NNNI10
I1
I0
tp845
bS'Crawlspace'
p846
tp847
Rp848
ag2
(g3
(S'S12'
p849
I0
I1
tp850
Rp851
(I3
S'|'
p852
NNNI12
I1
I0
tp853
bS'Beastie Boys'
p854
tp855
Rp856
ag2
(g22
S'\x8cM\xdc\xcc\xcbL\xeb?'
p857
tp858
Rp859
ag2
(g22
S'\xaa^\xd0\xe4\x9d\xee\xe2?'
p860
tp861
Rp862
ag2
(g22
S'\xa1\x84\x99\xb6\x7f\xb3e@'
p863
tp864
Rp865
ag2
(g22
S'\x00\x00\x00\x00\x00\x00\x00\x00'
p866
tp867
Rp868
ag2
(g22
S'\x14\xaeG\xe1z4d@'
p869
tp870
Rp871
aF0.256
aF0.907
aF0.699
aF1.09e-05
aF-6.724
aF0.297
aI108
aF0.68
aa(lp872
g2
(g3
(S'S4'
p873
I0
I1
tp874
Rp875
(I3
S'|'
p876
NNNI4
I1
I0
tp877
bS'Juno'
p878
tp879
Rp880
ag2
(g3
(S'S4'
p881
I0
I1
tp882
Rp883
(I3
S'|'
p884
NNNI4
I1
I0
tp885
bS'Zuma'
p886
tp887
Rp888
ag2
(g22
S'\xce\x82:\xd5\xfe\xe6\xe0?'
p889
tp890
Rp891
ag2
(g22
S'\xcb\x059\xfcYi\xd5?'
p892
tp893
Rp894
ag2
(g22
S'\x9e{\x0f\x97\xdc\xfc\x86@'
p895
tp896
Rp897
ag2
(g22
S"j\xbct\x93\x18D'@"
p898
tp899
Rp900
ag2
(g22
S'\xc1\xca\xa1E\xb6\xac\x86@'
p901
tp902
Rp903
aF0.0904
aF0.434
aF0.624
aF0.00761
aF-8.494
aF0.0438
aF156.015
aF0.328
aa(lp904
g2
(g3
(S'S17'
p905
I0
I1
tp906
Rp907
(I3
S'|'
p908
NNNI17
I1
I0
tp909
bS"Jolie Blon's Gone"
p910
tp911
Rp912
ag2
(g3
(S'S13'
p913
I0
I1
tp914
Rp915
(I3
S'|'
p916
NNNI13
I1
I0
tp917
bS'Harry Choates'
p918
tp919
Rp920
ag2
(g22
S'\x04\xa7GT\x96=\xd9?'
p921
tp922
Rp923
ag2
(g22
S'\xee\xdfJ\x07\xd8\xfa\xd1?'
p924
tp925
Rp926
ag2
(g22
S'\xaa\x9a \xea>9f@'
p927
tp928
Rp929
ag2
(g22
S'\xc5 \xb0rh\x91\xdd?'
p930
tp931
Rp932
ag2
(g22
S'7\x89A`\xe5\x84e@'
p933
tp934
Rp935
aF0.942
aF0.439
aF0.385
aF0.0212
aF-9.028
aF0.0301
aF179.079
aF0.927
aa(lp936
g2
(g3
(S'S4'
p937
I0
I1
tp938
Rp939
(I3
S'|'
p940
NNNI4
I1
I0
tp941
bS'1969'
p942
tp943
Rp944
ag2
(g3
(S'S20'
p945
I0
I1
tp946
Rp947
(I3
S'|'
p948
NNNI20
I1
I0
tp949
bS'Iggy And The Stooges'
p950
tp951
Rp952
ag2
(g22
S'?\xb6\x7f\xac|q\xe7?'
p953
tp954
Rp955
ag2
(g22
S'\xf9\xc5\x01\xd3\xae\xcf\xdf?'
p956
tp957
Rp958
ag2
(g22
S'1\x94\x13\xed*\x99k@'
p959
tp960
Rp961
ag2
(g22
S'\x00\x00\x00\x00\x00\x00\x00\x00'
p962
tp963
Rp964
ag2
(g22
S'\xfe\xd4x\xe9&\x99k@'
p965
tp966
Rp967
aF0.000619
aF0.487
aF0.635
aF0.0294
aF-11.617
aF0.0522
aF106.894
aF0.729
aa(lp968
g2
(g3
(S'S7'
p969
I0
I1
tp970
Rp971
(I3
S'|'
p972
NNNI7
I1
I0
tp973
bS'Stumble'
p974
tp975
Rp976
ag2
(g3
(S'S6'
p977
I0
I1
tp978
Rp979
(I3
S'|'
p980
NNNI6
I1
I0
tp981
bS'R.E.M.'
p982
tp983
Rp984
ag2
(g22
S'\xc3\xe9\xdf\x01\xa5a\xe7?'
p985
tp986
Rp987
ag2
(g22
S'X\xceA=u\xf6\xe3?'
p988
tp989
Rp990
ag2
(g22
S'\xdc\xf4g?\xd2Au@'
p991
tp992
Rp993
ag2
(g22
S'\x12\x83\xc0\xca\xa1E\xe2?'
p994
tp995
Rp996
ag2
(g22
S'y\xe9&1\x08\x86t@'
p997
tp998
Rp999
aF0.000577
aF0.448
aF0.889
aF0.651
aF-7.931
aF0.047
aF153.382
aF0.92
aa(lp1000
g2
(g3
(S'S31'
p1001
I0
I1
tp1002
Rp1003
(I3
S'|'
p1004
NNNI31
I1
I0
tp1005
bS"Till We Ain't Strangers Anymore"
p1006
tp1007
Rp1008
ag2
(g3
(S'S8'
p1009
I0
I1
tp1010
Rp1011
(I3
S'|'
p1012
NNNI8
I1
I0
tp1013
bS'Bon Jovi'
p1014
tp1015
Rp1016
ag2
(g22
S'\x07s\x98\xcd\x86\xdb\xea?'
p1017
tp1018
Rp1019
ag2
(g22
S'\xbaFo\xa7(\x01\xe7?'
p1020
tp1021
Rp1022
ag2
(g22
S'\x85\x94\x9fT{\xe1s@'
p1023
tp1024
Rp1025
ag2
(g22
S'\x00\x00\x00\x00\x00\x00\x00\x00'
p1026
tp1027
Rp1028
ag2
(g22
S'\x8bl\xe7\xfb\xa9\x91s@'
p1029
tp1030
Rp1031
aF0.0613
aF0.38
aF0.478
aF1.18e-06
aF-5.661
aF0.0272
aF139.416
aF0.206
aa(lp1032
g2
(g3
(S'S98'
p1033
I0
I1
tp1034
Rp1035
(I3
S'|'
p1036
NNNI98
I1
I0
tp1037
bS'Reels: Old Joes / the Cliffs of Moher / the clips of mohair / the slightly less-well-informed maid'
p1038
tp1039
Rp1040
ag2
(g3
(S'S25'
p1041
I0
I1
tp1042
Rp1043
(I3
S'|'
p1044
NNNI25
I1
I0
tp1045
bS'Dale Russ / Finn MacGinty'
p1046
tp1047
Rp1048
ag2
(g22
S'\r\xfd!\xff\xa4\xaf\xa1?'
p1049
tp1050
Rp1051
ag2
(g22
S'\x00\x00\x00\x00\x00\x00\x00\x00'
p1052
tp1053
Rp1054
ag2
(g22
S'\xcdX4\x9d\x9d]p@'
p1055
tp1056
Rp1057
ag2
(g22
S'\x06\x81\x95C\x8bl\xc7?'
p1058
tp1059
Rp1060
ag2
(g22
S'j\xbct\x93\x18|o@'
p1061
tp1062
Rp1063
aF0.874
aF0.492
aF0.601
aF2.12e-06
aF-3.875
aF0.0468
aF123.344
aF0.876
aa(lp1064
g2
(g3
(S'S8'
p1065
I0
I1
tp1066
Rp1067
(I3
S'|'
p1068
NNNI8
I1
I0
tp1069
bS'Die Slow'
p1070
tp1071
Rp1072
ag2
(g3
(S'S11'
p1073
I0
I1
tp1074
Rp1075
(I3
S'|'
p1076
NNNI11
I1
I0
tp1077
bS'Sheek Louch'
p1078
tp1079
Rp1080
ag2
(g22
S'j\x02\xf9\xf9\xe7\xc2\xe5?'
p1081
tp1082
Rp1083
ag2
(g22
S'\xdc\x08\xaa)\xd2\xc9\xdc?'
p1084
tp1085
Rp1086
ag2
(g22
S'\xb9\xc2\xbb\\\xc4)P@'
p1087
tp1088
Rp1089
ag2
(g22
S'\xfe\xd4x\xe9&1\xc8?'
p1090
tp1091
Rp1092
ag2
(g22
S'\xa2E\xb6\xf3\xfd\xe4L@'
p1093
tp1094
Rp1095
aF0.0683
aF0.616
aF0.773
aI0
aF-4.557
aF0.385
aF113.076
aF0.574
aa(lp1096
g2
(g3
(S'S7'
p1097
I0
I1
tp1098
Rp1099
(I3
S'|'
p1100
NNNI7
I1
I0
tp1101
bS'Armando'
p1102
tp1103
Rp1104
ag2
(g3
(S'S16'
p1105
I0
I1
tp1106
Rp1107
(I3
S'|'
p1108
NNNI16
I1
I0
tp1109
bS'Renato Borghetti'
p1110
tp1111
Rp1112
ag2
(g22
S'\x8aL\xcf\x19c\xa1\xdd?'
p1113
tp1114
Rp1115
ag2
(g22
S'h\x07\xce\xd5\x9dR\xd4?'
p1116
tp1117
Rp1118
ag2
(g22
S'\x04s\xf4\xf8\xbd\xd9b@'
p1119
tp1120
Rp1121
ag2
(g22
S'\x7fj\xbct\x93\x18\xe4?'
p1122
tp1123
Rp1124
ag2
(g22
S'{\x14\xaeG\xe1fb@'
p1125
tp1126
Rp1127
aF0.483
aF0.696
aF0.642
aF0.259
aF-4.559
aF0.171
aF170.697
aF0.916
aa(lp1128
g2
(g3
(S'S14'
p1129
I0
I1
tp1130
Rp1131
(I3
S'|'
p1132
NNNI14
I1
I0
tp1133
bS'Death Or Glory'
p1134
tp1135
Rp1136
ag2
(g3
(S'S9'
p1137
I0
I1
tp1138
Rp1139
(I3
S'|'
p1140
NNNI9
I1
I0
tp1141
bS'The Clash'
p1142
tp1143
Rp1144
ag2
(g22
S'\x8c\xff\xa3\xfdT\xd3\xe8?'
p1145
tp1146
Rp1147
ag2
(g22
S'\xe2\x80\x05\x8c\xea<\xe3?'
p1148
tp1149
Rp1150
ag2
(g22
S'\xed\xd3\xf1\x98\x81rl@'
p1151
tp1152
Rp1153
ag2
(g22
S'\x00\x00\x00\x00\x00\x00\x00\x00'
p1154
tp1155
Rp1156
ag2
(g22
S'\xd1"\xdb\xf9~rl@'
p1157
tp1158
Rp1159
aF0.0572
aF0.677
aF0.842
aI0
aF-7.28
aF0.0415
aF137.589
aF0.767
aa(lp1160
g2
(g3
(S'S16'
p1161
I0
I1
tp1162
Rp1163
(I3
S'|'
p1164
NNNI16
I1
I0
tp1165
bS'Drum Machine Joy'
p1166
tp1167
Rp1168
ag2
(g3
(S'S4'
p1169
I0
I1
tp1170
Rp1171
(I3
S'|'
p1172
NNNI4
I1
I0
tp1173
bS'MxPx'
p1174
tp1175
Rp1176
ag2
(g22
S'\xfe\x076\x06\x95j\xe8?'
p1177
tp1178
Rp1179
ag2
(g22
S'\xbbx\xcc\x84\xa34\xe1?'
p1180
tp1181
Rp1182
ag2
(g22
S'e\xc2/\xf5\xf3\xe7j@'
p1183
tp1184
Rp1185
ag2
(g22
S'\x00\x00\x00\x00\x00\x00\x00\x00'
p1186
tp1187
Rp1188
ag2
(g22
S'\x9c\xc4 \xb0r\xa8i@'
p1189
tp1190
Rp1191
aF0.00133
aF0.185
aF0.69
aF3.56e-06
aF-5.097
aF0.0365
aF193.658
aF0.777
aa(lp1192
g2
(g3
(S'S32'
p1193
I0
I1
tp1194
Rp1195
(I3
S'|'
p1196
NNNI32
I1
I0
tp1197
bS'Walking The Cow (Hi How Are You)'
p1198
tp1199
Rp1200
ag2
(g3
(S'S15'
p1201
I0
I1
tp1202
Rp1203
(I3
S'|'
p1204
NNNI15
I1
I0
tp1205
bS'Daniel Johnston'
p1206
tp1207
Rp1208
ag2
(g22
S'*\xc8]\xf7\x88\xd3\xe6?'
p1209
tp1210
Rp1211
ag2
(g22
S'\xfe\x94\xd4\xb1\xadO\xde?'
p1212
tp1213
Rp1214
ag2
(g22
S'\xaf_\xb0\x1b\xb6\xcfj@'
p1215
tp1216
Rp1217
ag2
(g22
S'\x00\x00\x00\x00\x00\x00\x00\x00'
p1218
tp1219
Rp1220
ag2
(g22
S'\xc7K7\x89Alj@'
p1221
tp1222
Rp1223
aF0.989
aF0.579
aF0.288
aF0.944
aF-17.692
aF0.0737
aF141.897
aF0.895
aa(lp1224
g2
(g3
(S'S15'
p1225
I0
I1
tp1226
Rp1227
(I3
S'|'
p1228
NNNI15
I1
I0
tp1229
bS"I'm Just A Girl"
p1230
tp1231
Rp1232
ag2
(g3
(S'S4'
p1233
I0
I1
tp1234
Rp1235
(I3
S'|'
p1236
NNNI4
I1
I0
tp1237
bS'Kofi'
p1238
tp1239
Rp1240
ag2
(g22
S'\xb48|\xe4\xf27\xe2?'
p1241
tp1242
Rp1243
ag2
(g22
S'@\xa7\xbaN\xbbE\xd9?'
p1244
tp1245
Rp1246
ag2
(g22
S'\xd7/\xd8\r\xdb&f@'
p1247
tp1248
Rp1249
ag2
(g22
S'\x00\x00\x00\x00\x00\x00\x00\x00'
p1250
tp1251
Rp1252
ag2
(g22
S'\xa6\x9b\xc4 \xb0\xb6d@'
p1253
tp1254
Rp1255
aF0.0333
aF0.852
aF0.481
aF3.59e-05
aF-7.545
aF0.0825
aF81.954
aF0.672
aa(lp1256
g2
(g3
(S'S12'
p1257
I0
I1
tp1258
Rp1259
(I3
S'|'
p1260
NNNI12
I1
I0
tp1261
bS'Prijateljica'
p1262
tp1263
Rp1264
ag2
(g3
(S'S10'
p1265
I0
I1
tp1266
Rp1267
(I3
S'|'
p1268
NNNI10
I1
I0
tp1269
bS'Donna Ares'
p1270
tp1271
Rp1272
ag2
(g22
S'!\x8f\xacm\xbd\x96\xdc?'
p1273
tp1274
Rp1275
ag2
(g22
S'\xb0N\xfbj\x92l\xd8?'
p1276
tp1277
Rp1278
ag2
(g22
S'\xed\xd8\x08\xc4\xebVh@'
p1279
tp1280
Rp1281
ag2
(g22
S'\x00\x00\x00\x00\x00\x00\xd8?'
p1282
tp1283
Rp1284
ag2
(g22
S'\xc7K7\x89A\x8cg@'
p1285
tp1286
Rp1287
aF0.607
aF0.692
aF0.768
aI0
aF-5.596
aF0.218
aF173.967
aF0.861
aa(lp1288
g2
(g3
(S'S22'
p1289
I0
I1
tp1290
Rp1291
(I3
S'|'
p1292
NNNI22
I1
I0
tp1293
bS'Phantoms In The Mirror'
p1294
tp1295
Rp1296
ag2
(g3
(S'S8'
p1297
I0
I1
tp1298
Rp1299
(I3
S'|'
p1300
NNNI8
I1
I0
tp1301
bS'W.A.S.P.'
p1302
tp1303
Rp1304
ag2
(g22
S'C\xed\xf9~\xa8G\xe7?'
p1305
tp1306
Rp1307
ag2
(g22
S'W\xe1\xb2\x0fK1\xe1?'
p1308
tp1309
Rp1310
ag2
(g22
S'b\xa1\xd64oKq@'
p1311
tp1312
Rp1313
ag2
(g22
S'j\xbct\x93\x18\x04\xf0?'
p1314
tp1315
Rp1316
ag2
(g22
S')\\\x8f\xc2\xf5\x82p@'
p1317
tp1318
Rp1319
aF0.0029
aF0.507
aF0.992
aF0.909
aF-6.097
aF0.114
aF117.03
aF0.208
aa(lp1320
g2
(g3
(S'S10'
p1321
I0
I1
tp1322
Rp1323
(I3
S'|'
p1324
NNNI10
I1
I0
tp1325
bS'Encouraged'
p1326
tp1327
Rp1328
ag2
(g3
(S'S11'
p1329
I0
I1
tp1330
Rp1331
(I3
S'|'
p1332
NNNI11
I1
I0
tp1333
bS'John P. Kee'
p1334
tp1335
Rp1336
ag2
(g22
S'\xc5P\x91\xcf{z\xe3?'
p1337
tp1338
Rp1339
ag2
(g22
S'\xa1`k\xa9n?\xdc?'
p1340
tp1341
Rp1342
ag2
(g22
S'\x89A`\xe5P\xd4r@'
p1343
tp1344
Rp1345
ag2
(g22
S'\x0e-\xb2\x9d\xef\xa7\xc6?'
p1346
tp1347
Rp1348
ag2
(g22
S'\x1b/\xdd$\x06]r@'
p1349
tp1350
Rp1351
aF0.383
aF0.656
aF0.767
aI0
aF-7.42
aF0.0364
aF92.521
aF0.837
aa(lp1352
g2
(g3
(S'S14'
p1353
I0
I1
tp1354
Rp1355
(I3
S'|'
p1356
NNNI14
I1
I0
tp1357
bS'Etre Une Femme'
p1358
tp1359
Rp1360
ag2
(g3
(S'S13'
p1361
I0
I1
tp1362
Rp1363
(I3
S'|'
p1364
NNNI13
I1
I0
tp1365
bS'Nolwenn Leroy'
p1366
tp1367
Rp1368
ag2
(g22
S'\x94\x18\xfc\xdc\xc3?\xe6?'
p1369
tp1370
Rp1371
ag2
(g22
S'\xe1\xad\xa0z\xec\xc3\xd9?'
p1372
tp1373
Rp1374
ag2
(g22
S"\x03>?\x8c\x10'i@"
p1375
tp1376
Rp1377
ag2
(g22
S'\x04V\x0e-\xb2\x9d\xcf?'
p1378
tp1379
Rp1380
ag2
(g22
S'9\xb4\xc8v\xbe7g@'
p1381
tp1382
Rp1383
aF0.257
aF0.637
aF0.528
aF1.62e-05
aF-5.953
aF0.025
aF89.755
aF0.289
aa(lp1384
g2
(g3
(S'S10'
p1385
I0
I1
tp1386
Rp1387
(I3
S'|'
p1388
NNNI10
I1
I0
tp1389
bS'Never Tell'
p1390
tp1391
Rp1392
ag2
(g3
(S'S14'
p1393
I0
I1
tp1394
Rp1395
(I3
S'|'
p1396
NNNI14
I1
I0
tp1397
bS'The Primitives'
p1398
tp1399
Rp1400
ag2
(g22
S'\xb9\x80\x1cnq\x06\xe3?'
p1401
tp1402
Rp1403
ag2
(g22
S'Li\x92\xafu\xcb\xd8?'
p1404
tp1405
Rp1406
ag2
(g22
S'\x84\x81\xe7\xde\xc3\x9de@'
p1407
tp1408
Rp1409
ag2
(g22
S'\x00\x00\x00\x00\x00\x00\x00\x00'
p1410
tp1411
Rp1412
ag2
(g22
S'd;\xdfO\x8d+d@'
p1413
tp1414
Rp1415
aF0.012
aF0.507
aF0.891
aF0.00382
aF-11.468
aF0.0421
aF99.678
aF0.924
aa(lp1416
g2
(g3
(S'S13'
p1417
I0
I1
tp1418
Rp1419
(I3
S'|'
p1420
NNNI13
I1
I0
tp1421
bS"Passin' Me By"
p1422
tp1423
Rp1424
ag2
(g3
(S'S12'
p1425
I0
I1
tp1426
Rp1427
(I3
S'|'
p1428
NNNI12
I1
I0
tp1429
bS'The Pharcyde'
p1430
tp1431
Rp1432
ag2
(g22
S'\xe5\xa2\xde\xdb\xac1\xe8?'
p1433
tp1434
Rp1435
ag2
(g22
S'\x94\x9fh\xe59t\xdf?'
p1436
tp1437
Rp1438
ag2
(g22
S'\x93\x005\xb5l\xf7r@'
p1439
tp1440
Rp1441
ag2
(g22
S'\xf4\xfd\xd4x\xe9&\xb1?'
p1442
tp1443
Rp1444
ag2
(g22
S'\x83\xc0\xca\xa1E\xber@'
p1445
tp1446
Rp1447
aF0.0829
aF0.76
aF0.828
aI0
aF-5.862
aF0.264
aF87.072
aF0.594
aa(lp1448
g2
(g3
(S'S16'
p1449
I0
I1
tp1450
Rp1451
(I3
S'|'
p1452
NNNI16
I1
I0
tp1453
bS'Chasing Monsters'
p1454
tp1455
Rp1456
ag2
(g3
(S'S11'
p1457
I0
I1
tp1458
Rp1459
(I3
S'|'
p1460
NNNI11
I1
I0
tp1461
bS'John Wesley'
p1462
tp1463
Rp1464
ag2
(g22
S'P\x1d\x0cL\x17\xf0\xe1?'
p1465
tp1466
Rp1467
ag2
(g22
S'\x7f\xeb\xa7\xb6\x80\xfa\xdc?'
p1468
tp1469
Rp1470
ag2
(g22
S'\xfb:p\xce\x08\xe5p@'
p1471
tp1472
Rp1473
ag2
(g22
S'\xbct\x93\x18\x04V\xde?'
p1474
tp1475
Rp1476
ag2
(g22
S'\xb2\x9d\xef\xa7\xc61p@'
p1477
tp1478
Rp1479
aF0.151
aF0.449
aF0.562
aF3.33e-05
aF-7.975
aF0.0326
aF148.167
aF0.143
aa(lp1480
g2
(g3
(S'S8'
p1481
I0
I1
tp1482
Rp1483
(I3
S'|'
p1484
NNNI8
I1
I0
tp1485
bS'SPONT.AN'
p1486
tp1487
Rp1488
ag2
(g3
(S'S7'
p1489
I0
I1
tp1490
Rp1491
(I3
S'|'
p1492
NNNI7
I1
I0
tp1493
bS'AUDIO.3'
p1494
tp1495
Rp1496
ag2
(g22
S'\t\xb3\x9b\xdb\x19t\xcf?'
p1497
tp1498
Rp1499
ag2
(g22
S'\xde#y\x05\xef\xe9\xcb?'
p1500
tp1501
Rp1502
ag2
(g22
S'\x1c\x99G\xfe`.n@'
p1503
tp1504
Rp1505
ag2
(g22
S'\xe7\xfb\xa9\xf1\xd2M\x00@'
p1506
tp1507
Rp1508
ag2
(g22
S'\x96C\x8bl\xe7om@'
p1509
tp1510
Rp1511
aF0.161
aF0.805
aF0.658
aF3.33e-06
aF-10.276
aF0.257
aF92.997
aF0.868
aa(lp1512
g2
(g3
(S'S19'
p1513
I0
I1
tp1514
Rp1515
(I3
S'|'
p1516
NNNI19
I1
I0
tp1517
bS'Policias Y Ladrones'
p1518
tp1519
Rp1520
ag2
(g3
(S'S38'
p1521
I0
I1
tp1522
Rp1523
(I3
S'|'
p1524
NNNI38
I1
I0
tp1525
bS'Pedro Garcia & His Del Prado Orchestra'
p1526
tp1527
Rp1528
ag2
(g22
S'_\xdfK\xc8\x0c\xcc\xa4?'
p1529
tp1530
Rp1531
ag2
(g22
S'\x00\x00\x00\x00\x00\x00\x00\x00'
p1532
tp1533
Rp1534
ag2
(g22
S'\xb0\x03\xe7\x8c(\xccg@'
p1535
tp1536
Rp1537
ag2
(g22
S'\x00\x00\x00\x00\x00\x00\x00\x00'
p1538
tp1539
Rp1540
ag2
(g22
S'\\\x8f\xc2\xf5(\xccg@'
p1541
tp1542
Rp1543
aF0.646
aF0.508
aF0.46
aI0
aF-6.895
aF0.0356
aF152.037
aF0.187
aa(lp1544
g2
(g3
(S'S11'
p1545
I0
I1
tp1546
Rp1547
(I3
S'|'
p1548
NNNI11
I1
I0
tp1549
bS'But You Are'
p1550
tp1551
Rp1552
ag2
(g3
(S'S11'
p1553
I0
I1
tp1554
Rp1555
(I3
S'|'
p1556
NNNI11
I1
I0
tp1557
bS'Lauren Wood'
p1558
tp1559
Rp1560
ag2
(g22
S'\x95\xc9\xeePw{\xdf?'
p1561
tp1562
Rp1563
ag2
(g22
S'\xca\xfb\xef \xc7\x8a\xd8?'
p1564
tp1565
Rp1566
ag2
(g22
S'\xa8\xa9ek}\xe6i@'
p1567
tp1568
Rp1569
ag2
(g22
S'\x9a\x99\x99\x99\x99\x99\xc9?'
p1570
tp1571
Rp1572
ag2
(g22
S'\x89A`\xe5\xd0bi@'
p1573
tp1574
Rp1575
aF0.0373
aF0.66
aF0.839
aF3.14e-06
aF-5.179
aF0.0475
aF119.068
aF0.62
aa(lp1576
g2
(g3
(S'S13'
p1577
I0
I1
tp1578
Rp1579
(I3
S'|'
p1580
NNNI13
I1
I0
tp1581
bS'English House'
p1582
tp1583
Rp1584
ag2
(g3
(S'S11'
p1585
I0
I1
tp1586
Rp1587
(I3
S'|'
p1588
NNNI11
I1
I0
tp1589
bS'Fleet Foxes'
p1590
tp1591
Rp1592
ag2
(g22
S'z591\xa6(\xe9?'
p1593
tp1594
Rp1595
ag2
(g22
S'\x1b\xc1\x04a\x03\x86\xe1?'
p1596
tp1597
Rp1598
ag2
(g22
S'~t\xea\xca\xe7\x92q@'
p1599
tp1600
Rp1601
ag2
(g22
S';\xdfO\x8d\x97n\xb2?'
p1602
tp1603
Rp1604
ag2
(g22
S'+\x87\x16\xd9\xce;p@'
p1605
tp1606
Rp1607
aF0.173
aF0.579
aF0.566
aF0.477
aF-9.893
aF0.0274
aF97.973
aF0.372
aa(lp1608
g2
(g3
(S'S7'
p1609
I0
I1
tp1610
Rp1611
(I3
S'|'
p1612
NNNI7
I1
I0
tp1613
bS'Angeles'
p1614
tp1615
Rp1616
ag2
(g3
(S'S12'
p1617
I0
I1
tp1618
Rp1619
(I3
S'|'
p1620
NNNI12
I1
I0
tp1621
bS'Elliot Smith'
p1622
tp1623
Rp1624
ag2
(g22
S'\x00\x00\x00\x00\x00\x00\x00\x00'
p1625
tp1626
Rp1627
ag2
(g22
S'\x00\x00\x00\x00\x00\x00\x00\x00'
p1628
tp1629
Rp1630
ag2
(g22
S'd;\xdfO\x8d\xfae@'
p1631
tp1632
Rp1633
ag2
(g22
S'P\x8d\x97n\x12\x83\x1e@'
p1634
tp1635
Rp1636
ag2
(g22
S'\x87\x16\xd9\xce\xf7\xfbd@'
p1637
tp1638
Rp1639
aF0.85
aF0.523
aF0.303
aF0.305
aF-13.287
aF0.0467
aF118.235
aF0.6
aa(lp1640
g2
(g3
(S'S15'
p1641
I0
I1
tp1642
Rp1643
(I3
S'|'
p1644
NNNI15
I1
I0
tp1645
bS'Hot Rod Lincoln'
p1646
tp1647
Rp1648
ag2
(g3
(S'S19'
p1649
I0
I1
tp1650
Rp1651
(I3
S'|'
p1652
NNNI19
I1
I0
tp1653
bS'Asleep At The Wheel'
p1654
tp1655
Rp1656
ag2
(g22
S'\x1cT\xfc$\x18V\xe3?'
p1657
tp1658
Rp1659
ag2
(g22
S'{\xd2\xcf\xadf\x81\xdd?'
p1660
tp1661
Rp1662
ag2
(g22
S'\xff\xcfa\xbe\xbc\xf0x@'
p1663
tp1664
Rp1665
ag2
(g22
S'\x14\xaeG\xe1z\x14\xce?'
p1666
tp1667
Rp1668
ag2
(g22
S'\xd5x\xe9&1tx@'
p1669
tp1670
Rp1671
aF0.276
aF0.801
aF0.568
aF8.22e-06
aF-13.97
aF0.0597
aF122.951
aF0.966
aa(lp1672
g2
(g3
(S'S31'
p1673
I0
I1
tp1674
Rp1675
(I3
S'|'
p1676
NNNI31
I1
I0
tp1677
bS'Pretty Smiles & Shattered Teeth'
p1678
tp1679
Rp1680
ag2
(g3
(S'S13'
p1681
I0
I1
tp1682
Rp1683
(I3
S'|'
p1684
NNNI13
I1
I0
tp1685
bS'Soilent Green'
p1686
tp1687
Rp1688
ag2
(g22
S'\xc7\x8f\xb5\x1bZw\xdd?'
p1689
tp1690
Rp1691
ag2
(g22
S'\x8aC\xeb\xddoO\xdc?'
p1692
tp1693
Rp1694
ag2
(g22
S'\x1c\x99G\xfe`oq@'
p1695
tp1696
Rp1697
ag2
(g22
S'\x00\x00\x00\x00\x00\x00\x00\x00'
p1698
tp1699
Rp1700
ag2
(g22
S'\x00\x00\x00\x00\x00,q@'
p1701
tp1702
Rp1703
aF6.26e-05
aF0.291
aF0.981
aF0.533
aF-5.43
aF0.191
aF132.405
aF0.272
aa(lp1704
g2
(g3
(S'S12'
p1705
I0
I1
tp1706
Rp1707
(I3
S'|'
p1708
NNNI12
I1
I0
tp1709
bS"Pa'lla pa'ca"
p1710
tp1711
Rp1712
ag2
(g3
(S'S12'
p1713
I0
I1
tp1714
Rp1715
(I3
S'|'
p1716
NNNI12
I1
I0
tp1717
bS'Juan Carmona'
p1718
tp1719
Rp1720
ag2
(g22
S'\xd0\x85\x0f\x8aeL\xda?'
p1721
tp1722
Rp1723
ag2
(g22
S'\x08\x86\xf1\xee\xec\x02\xd4?'
p1724
tp1725
Rp1726
ag2
(g22
S'\xc0\xcf\xb8p ;m@'
p1727
tp1728
Rp1729
ag2
(g22
S'\x8d\x97n\x12\x83\xc0\xee?'
p1730
tp1731
Rp1732
ag2
(g22
S'\xfc\xa9\xf1\xd2M\x82l@'
p1733
tp1734
Rp1735
aF0.895
aF0.609
aF0.519
aF0.0517
aF-8.729
aF0.0469
aF135.645
aF0.523
aa(lp1736
g2
(g3
(S'S8'
p1737
I0
I1
tp1738
Rp1739
(I3
S'|'
p1740
NNNI8
I1
I0
tp1741
bS'2 Glocks'
p1742
tp1743
Rp1744
ag2
(g3
(S'S20'
p1745
I0
I1
tp1746
Rp1747
(I3
S'|'
p1748
NNNI20
I1
I0
tp1749
bS'Bone Thugs-N-Harmony'
p1750
tp1751
Rp1752
ag2
(g22
S'\xb6T\xcdn\x0b\x1c\xea?'
p1753
tp1754
Rp1755
ag2
(g22
S'\x00@-q\xb1\xc3\xe1?'
p1756
tp1757
Rp1758
ag2
(g22
S'*\x00\xc63\xe8\xa0p@'
p1759
tp1760
Rp1761
ag2
(g22
S'\x1b/\xdd$\x06\x81\xc5?'
p1762
tp1763
Rp1764
ag2
(g22
S'\xe1z\x14\xaeGkp@'
p1765
tp1766
Rp1767
aF0.0103
aF0.897
aF0.555
aF5.41e-06
aF-5.6
aF0.147
aF94.056
aF0.818
aa(lp1768
g2
(g3
(S'S21'
p1769
I0
I1
tp1770
Rp1771
(I3
S'|'
p1772
NNNI21
I1
I0
tp1773
bS'Gold Flames Of Angels'
p1774
tp1775
Rp1776
ag2
(g3
(S'S13'
p1777
I0
I1
tp1778
Rp1779
(I3
S'|'
p1780
NNNI13
I1
I0
tp1781
bS'Human Disease'
p1782
tp1783
Rp1784
ag2
(g22
S':5\xc8R\xa5\xd4\xda?'
p1785
tp1786
Rp1787
ag2
(g22
S'\r"\xb9\x84\xa4\xfe\xd2?'
p1788
tp1789
Rp1790
ag2
(g22
S'\xd8d\x8dz\x88\xd9g@'
p1791
tp1792
Rp1793
ag2
(g22
S'\x00\x00\x00\x00\x00\x00\x00\x00'
p1794
tp1795
Rp1796
ag2
(g22
S'\x00\x00\x00\x00\x00\xa0f@'
p1797
tp1798
Rp1799
aF0.0497
aF0.421
aF0.879
aF1.42e-05
aF-6.142
aF0.0374
aF139.917
aF0.369
aa(lp1800
g2
(g3
(S'S11'
p1801
I0
I1
tp1802
Rp1803
(I3
S'|'
p1804
NNNI11
I1
I0
tp1805
bS'Like A Star'
p1806
tp1807
Rp1808
ag2
(g3
(S'S11'
p1809
I0
I1
tp1810
Rp1811
(I3
S'|'
p1812
NNNI11
I1
I0
tp1813
bS'Joe McBride'
p1814
tp1815
Rp1816
ag2
(g22
S'\x085\xc3\x1d&\x84\xdf?'
p1817
tp1818
Rp1819
ag2
(g22
S'\xcf\x1a\xe7\xa0N\xb1\xd5?'
p1820
tp1821
Rp1822
ag2
(g22
S'\xf0\xa2\xaf MVs@'
p1823
tp1824
Rp1825
ag2
(g22
S'\xfa~j\xbct\x93\xb8?'
p1826
tp1827
Rp1828
ag2
(g22
S'%\x06\x81\x95C)s@'
p1829
tp1830
Rp1831
aF0.755
aF0.698
aF0.49
aF0.00164
aF-13.818
aF0.0538
aF115.907
aF0.385
aa(lp1832
g2
(g3
(S'S10'
p1833
I0
I1
tp1834
Rp1835
(I3
S'|'
p1836
NNNI10
I1
I0
tp1837
bS'Wanderlust'
p1838
tp1839
Rp1840
ag2
(g3
(S'S8'
p1841
I0
I1
tp1842
Rp1843
(I3
S'|'
p1844
NNNI8
I1
I0
tp1845
bS'Baroness'
p1846
tp1847
Rp1848
ag2
(g22
S'\xc2\xa4s\x89\xb3\xa6\xe7?'
p1849
tp1850
Rp1851
ag2
(g22
S'\xc9\x00\xc9\xa9\xf0&\xde?'
p1852
tp1853
Rp1854
ag2
(g22
S'u\x8e\x01\xd9k\xdbp@'
p1855
tp1856
Rp1857
ag2
(g22
S'\x00\x00\x00\x00\x00\x00\x00\x00'
p1858
tp1859
Rp1860
ag2
(g22
S'\xd5x\xe9&1\x1ap@'
p1861
tp1862
Rp1863
aF5.99e-05
aF0.232
aF0.893
aF0.512
aF-5.954
aF0.0533
aF163.002
aF0.553
aa(lp1864
g2
(g3
(S'S12'
p1865
I0
I1
tp1866
Rp1867
(I3
S'|'
p1868
NNNI12
I1
I0
tp1869
bS'Country Girl'
p1870
tp1871
Rp1872
ag2
(g3
(S'S11'
p1873
I0
I1
tp1874
Rp1875
(I3
S'|'
p1876
NNNI11
I1
I0
tp1877
bS'Dottie West'
p1878
tp1879
Rp1880
ag2
(g22
S'\xccb\xc4\xf2$A\xe0?'
p1881
tp1882
Rp1883
ag2
(g22
S'\xd5\xd0\x16\xd6\xa2q\xd5?'
p1884
tp1885
Rp1886
ag2
(g22
S'\xb9p $\x0bqg@'
p1887
tp1888
Rp1889
ag2
(g22
S'd;\xdfO\x8d\x97\x07@'
p1890
tp1891
Rp1892
ag2
(g22
S"'1\x08\xac\x1c\xaef@"
p1893
tp1894
Rp1895
aF0.876
aF0.428
aF0.217
aF0.000297
aF-14.71
aF0.0286
aF87.012
aF0.289
aa(lp1896
g2
(g3
(S'S19'
p1897
I0
I1
tp1898
Rp1899
(I3
S'|'
p1900
NNNI19
I1
I0
tp1901
bS'The Murder Prologue'
p1902
tp1903
Rp1904
ag2
(g3
(S'S9'
p1905
I0
I1
tp1906
Rp1907
(I3
S'|'
p1908
NNNI9
I1
I0
tp1909
bS'Steve Vai'
p1910
tp1911
Rp1912
ag2
(g22
S'y7\xd3\t\xbd\xa9\xe4?'
p1913
tp1914
Rp1915
ag2
(g22
S'X\xa0\xf8\x17\x13h\xe1?'
p1916
tp1917
Rp1918
ag2
(g22
S'\xf6EB[\xceyQ@'
p1919
tp1920
Rp1921
ag2
(g22
S'\x00\x00\x00\x00\x00\x00\x00\x00'
p1922
tp1923
Rp1924
ag2
(g22
S'o\x12\x83\xc0\xcaqN@'
p1925
tp1926
Rp1927
aF0.0206
aF0.152
aF0.539
aF0.372
aF-8.173
aF0.0387
aF93.906
aF0.0906
aa(lp1928
g2
(g3
(S'S10'
p1929
I0
I1
tp1930
Rp1931
(I3
S'|'
p1932
NNNI10
I1
I0
tp1933
bS'C.C. Ryder'
p1934
tp1935
Rp1936
ag2
(g3
(S'S12'
p1937
I0
I1
tp1938
Rp1939
(I3
S'|'
p1940
NNNI12
I1
I0
tp1941
bS'Roy Buchanan'
p1942
tp1943
Rp1944
ag2
(g22
S'BF\xb7\x9ap^\xe3?'
p1945
tp1946
Rp1947
ag2
(g22
S'+\xe5\x1e\xc6)L\xd9?'
p1948
tp1949
Rp1950
ag2
(g22
S'u\x8e\x01\xd9k\xdbv@'
p1951
tp1952
Rp1953
ag2
(g22
S'B`\xe5\xd0"\xdb\xd1?'
p1954
tp1955
Rp1956
ag2
(g22
S'\xf8S\xe3\xa5\x9b\xfcu@'
p1957
tp1958
Rp1959
aF0.189
aF0.467
aF0.435
aF0.26
aF-8.131
aF0.03
aF110.9
aF0.614
aa(lp1960
g2
(g3
(S'S16'
p1961
I0
I1
tp1962
Rp1963
(I3
S'|'
p1964
NNNI16
I1
I0
tp1965
bS'Ay ! Mi Sombrero'
p1966
tp1967
Rp1968
ag2
(g3
(S'S9'
p1969
I0
I1
tp1970
Rp1971
(I3
S'|'
p1972
NNNI9
I1
I0
tp1973
bS'Jo Privat'
p1974
tp1975
Rp1976
ag2
(g22
S'\xfb\x08\xbfX\x95\r\xd9?'
p1977
tp1978
Rp1979
ag2
(g22
S'\x12\xa2V\xfb\xce\x88\xd4?'
p1980
tp1981
Rp1982
ag2
(g22
S'1\xce\xdf\x84B\xae^@'
p1983
tp1984
Rp1985
ag2
(g22
S'\x08\xac\x1cZd;\xd7?'
p1986
tp1987
Rp1988
ag2
(g22
S'\x83\xc0\xca\xa1E\xae^@'
p1989
tp1990
Rp1991
aF0.495
aF0.73
aF0.35
aF0.000379
aF-10.968
aF0.0407
aF121.979
aF0.961
aa(lp1992
g2
(g3
(S'S13'
p1993
I0
I1
tp1994
Rp1995
(I3
S'|'
p1996
NNNI13
I1
I0
tp1997
bS'Moscow Nights'
p1998
tp1999
Rp2000
ag2
(g3
(S'S12'
p2001
I0
I1
tp2002
Rp2003
(I3
S'|'
p2004
NNNI12
I1
I0
tp2005
bS'The Mustangs'
p2006
tp2007
Rp2008
ag2
(g22
S'`\x8f{\xc1\x1f\xa8\xdb?'
p2009
tp2010
Rp2011
ag2
(g22
S'\x9d\x83h\xec=4\xd7?'
p2012
tp2013
Rp2014
ag2
(g22
S'\xe5\xb8S:X\x08d@'
p2015
tp2016
Rp2017
ag2
(g22
S'\x00\x00\x00\x00\x00\x00\x00\x00'
p2018
tp2019
Rp2020
ag2
(g22
S'\xe7\xfb\xa9\xf1\xd2-c@'
p2021
tp2022
Rp2023
aF0.305
aF0.516
aF0.51
aF0.941
aF-9.065
aF0.0311
aF128.939
aF0.888
aa(lp2024
g2
(g3
(S'S9'
p2025
I0
I1
tp2026
Rp2027
(I3
S'|'
p2028
NNNI9
I1
I0
tp2029
bS'Execution'
p2030
tp2031
Rp2032
ag2
(g3
(S'S11'
p2033
I0
I1
tp2034
Rp2035
(I3
S'|'
p2036
NNNI11
I1
I0
tp2037
bS'First Blood'
p2038
tp2039
Rp2040
ag2
(g22
S'\x01\n]\x03+2\xe5?'
p2041
tp2042
Rp2043
ag2
(g22
S'\xa4\xfc\xd3"q\xe3\xd8?'
p2044
tp2045
Rp2046
ag2
(g22
S'\xe8\xa4\xf7\x8d\xaf\xb7q@'
p2047
tp2048
Rp2049
ag2
(g22
S'\x00\x00\x00\x00\x00\x00\x00\x00'
p2050
tp2051
Rp2052
ag2
(g22
S'\x12\x83\xc0\xca\xa17p@'
p2053
tp2054
Rp2055
aF0.00229
aF0.335
aF0.963
aF0.0122
aF-2.295
aF0.151
aF160.431
aF0.406
aa(lp2056
g2
(g3
(S'S15'
p2057
I0
I1
tp2058
Rp2059
(I3
S'|'
p2060
NNNI15
I1
I0
tp2061
bS'Red is the Rose'
p2062
tp2063
Rp2064
ag2
(g3
(S'S10'
p2065
I0
I1
tp2066
Rp2067
(I3
S'|'
p2068
NNNI10
I1
I0
tp2069
bS'Joe Heaney'
p2070
tp2071
Rp2072
ag2
(g22
S'\x1b\x92\xf3\x93[\xaf\xd9?'
p2073
tp2074
Rp2075
ag2
(g22
S'{T7q\x12x\xd2?'
p2076
tp2077
Rp2078
ag2
(g22
S'\x8cg\xd0\xd0?Uh@'
p2079
tp2080
Rp2081
ag2
(g22
S'\xc3\xf5(\\\x8f\xc2\xd5?'
p2082
tp2083
Rp2084
ag2
(g22
S'\xb8\x1e\x85\xebQ\xa0g@'
p2085
tp2086
Rp2087
aF0.931
aF0.492
aF0.0288
aI0
aF-18.746
aF0.0916
aF79.597
aF0.379
aa(lp2088
g2
(g3
(S'S13'
p2089
I0
I1
tp2090
Rp2091
(I3
S'|'
p2092
NNNI13
I1
I0
tp2093
bS'Lonesome Road'
p2094
tp2095
Rp2096
ag2
(g3
(S'S16'
p2097
I0
I1
tp2098
Rp2099
(I3
S'|'
p2100
NNNI16
I1
I0
tp2101
bS'Junior Kimbrough'
p2102
tp2103
Rp2104
ag2
(g22
S'\xe6ua}\xde\xde\xe5?'
p2105
tp2106
Rp2107
ag2
(g22
S'\x0c\xf9\xc1\x94\xfbU\xdb?'
p2108
tp2109
Rp2110
ag2
(g22
S'\xfe\x0eE\x81>lr@'
p2111
tp2112
Rp2113
ag2
(g22
S'q=\n\xd7\xa3p\x02@'
p2114
tp2115
Rp2116
ag2
(g22
S"h\x91\xed|?'r@"
p2117
tp2118
Rp2119
aF0.966
aF0.43
aF0.268
aF0.24
aF-11.926
aF0.0292
aF62.563
aF0.255
aa(lp2120
g2
(g3
(S'S14'
p2121
I0
I1
tp2122
Rp2123
(I3
S'|'
p2124
NNNI14
I1
I0
tp2125
bS'Electrasonic V'
p2126
tp2127
Rp2128
ag2
(g3
(S'S23'
p2129
I0
I1
tp2130
Rp2131
(I3
S'|'
p2132
NNNI23
I1
I0
tp2133
bS'Los Fabulosos Cadillacs'
p2134
tp2135
Rp2136
ag2
(g22
S'\x17"o\x8a\xe9\xc4\xe8?'
p2137
tp2138
Rp2139
ag2
(g22
S'\xea\xe16\x15\xfc\xb1\xe0?'
p2140
tp2141
Rp2142
ag2
(g22
S'Y4\x9d\x9d\x0c"a@'
p2143
tp2144
Rp2145
ag2
(g22
S'H\xe1z\x14\xaeG\xd1?'
p2146
tp2147
Rp2148
ag2
(g22
S'h\x91\xed|?]_@'
p2149
tp2150
Rp2151
aF0.0584
aF0.814
aF0.854
aF0.0103
aF-4.634
aF0.0483
aF118.702
aF0.906
aa(lp2152
g2
(g3
(S'S14'
p2153
I0
I1
tp2154
Rp2155
(I3
S'|'
p2156
NNNI14
I1
I0
tp2157
bS'Shades Of Love'
p2158
tp2159
Rp2160
ag2
(g3
(S'S11'
p2161
I0
I1
tp2162
Rp2163
(I3
S'|'
p2164
NNNI11
I1
I0
tp2165
bS'Tom Barabas'
p2166
tp2167
Rp2168
ag2
(g22
S'\xceb\xb7\x7fr\xac\xdc?'
p2169
tp2170
Rp2171
ag2
(g22
S"'q\xa4\x0c\x1b1\xd9?"
p2172
tp2173
Rp2174
ag2
(g22
S'\xda\xfe\x95\x95\xa6\nu@'
p2175
tp2176
Rp2177
ag2
(g22
S'u\x93\x18\x04V\x0e\xed?'
p2178
tp2179
Rp2180
ag2
(g22
S'\xa4p=\n\xd7\tt@'
p2181
tp2182
Rp2183
aF0.743
aF0.672
aF0.572
aF0.473
aF-12.913
aF0.0269
aF138.002
aF0.59
aa(lp2184
g2
(g3
(S'S16'
p2185
I0
I1
tp2186
Rp2187
(I3
S'|'
p2188
NNNI16
I1
I0
tp2189
bS'Que Vas A Hacer?'
p2190
tp2191
Rp2192
ag2
(g3
(S'S21'
p2193
I0
I1
tp2194
Rp2195
(I3
S'|'
p2196
NNNI21
I1
I0
tp2197
bS'Daddy Yankee / May-Be'
p2198
tp2199
Rp2200
ag2
(g22
S'\xaaG\xcb;f\x16\xed?'
p2201
tp2202
Rp2203
ag2
(g22
S'cd(\xfe\r\x00\xe2?'
p2204
tp2205
Rp2206
ag2
(g22
S'R\x0f\xd1\xe8\x0e\xefh@'
p2207
tp2208
Rp2209
ag2
(g22
S'\x00\x00\x00\x00\x00\x00\x00\x00'
p2210
tp2211
Rp2212
ag2
(g22
S'Nb\x10X9\x94h@'
p2213
tp2214
Rp2215
aF0.0123
aF0.769
aF0.689
aF0.0188
aF-6.276
aF0.0877
aF92.019
aF0.591
aa(lp2216
g2
(g3
(S'S9'
p2217
I0
I1
tp2218
Rp2219
(I3
S'|'
p2220
NNNI9
I1
I0
tp2221
bS'Slow Down'
p2222
tp2223
Rp2224
ag2
(g3
(S'S18'
p2225
I0
I1
tp2226
Rp2227
(I3
S'|'
p2228
NNNI18
I1
I0
tp2229
bS'Carlton Livingston'
p2230
tp2231
Rp2232
ag2
(g22
S'u\xf8\x17\x9c\xa0\x1e\xdf?'
p2233
tp2234
Rp2235
ag2
(g22
S'\xeb\xb2\xa2\x82\x05/\xd8?'
p2236
tp2237
Rp2238
ag2
(g22
S'\xba\xa0\xbeeN?i@'
p2239
tp2240
Rp2241
ag2
(g22
S'\xfe\xd4x\xe9&1\xc8?'
p2242
tp2243
Rp2244
ag2
(g22
S'\xe1z\x14\xaeG\xcdh@'
p2245
tp2246
Rp2247
aF0.935
aF0.677
aF0.28
aF0.27
aF-13.165
aF0.24
aF135.845
aF0.455
aa(lp2248
g2
(g3
(S'S11'
p2249
I0
I1
tp2250
Rp2251
(I3
S'|'
p2252
NNNI11
I1
I0
tp2253
bS'Born To Run'
p2254
tp2255
Rp2256
ag2
(g3
(S'S11'
p2257
I0
I1
tp2258
Rp2259
(I3
S'|'
p2260
NNNI11
I1
I0
tp2261
bS'Suzi Quatro'
p2262
tp2263
Rp2264
ag2
(g22
S'\xd3\x04@PX\x13\xe4?'
p2265
tp2266
Rp2267
ag2
(g22
S'\x9f\x92T\xe3n\x06\xda?'
p2268
tp2269
Rp2270
ag2
(g22
S'\xd9\x08\xc4\xebz\xd3r@'
p2271
tp2272
Rp2273
ag2
(g22
S'\x14\xaeG\xe1z\x14\xd6?'
p2274
tp2275
Rp2276
ag2
(g22
S'5^\xbaI\x0c\xdeq@'
p2277
tp2278
Rp2279
aF0.00964
aF0.634
aF0.757
aF0.00142
aF-7.038
aF0.0285
aF137.507
aF0.859
aa(lp2280
g2
(g3
(S'S15'
p2281
I0
I1
tp2282
Rp2283
(I3
S'|'
p2284
NNNI15
I1
I0
tp2285
bS'This is My Year'
p2286
tp2287
Rp2288
ag2
(g3
(S'S7'
p2289
I0
I1
tp2290
Rp2291
(I3
S'|'
p2292
NNNI7
I1
I0
tp2293
bS'Mac Dre'
p2294
tp2295
Rp2296
ag2
(g22
S'\x9b\x0b\xc9\xf4\x07\x04\xe8?'
p2297
tp2298
Rp2299
ag2
(g22
S'\xb6\n\xc23\xe0\x86\xe0?'
p2300
tp2301
Rp2302
ag2
(g22
S'\xdc\x11N\x0b^\rp@'
p2303
tp2304
Rp2305
ag2
(g22
S'\x93\x18\x04V\x0e-\xda?'
p2306
tp2307
Rp2308
ag2
(g22
S'\xc5 \xb0rh\x05o@'
p2309
tp2310
Rp2311
aF0.0107
aF0.781
aF0.633
aF1.89e-06
aF-10.276
aF0.0779
aF169.974
aF0.937
aa(lp2312
g2
(g3
(S'S10'
p2313
I0
I1
tp2314
Rp2315
(I3
S'|'
p2316
NNNI10
I1
I0
tp2317
bS'Soleariyas'
p2318
tp2319
Rp2320
ag2
(g3
(S'S12'
p2321
I0
I1
tp2322
Rp2323
(I3
S'|'
p2324
NNNI12
I1
I0
tp2325
bS'Juan Carmona'
p2326
tp2327
Rp2328
ag2
(g22
S'\xd0\x85\x0f\x8aeL\xda?'
p2329
tp2330
Rp2331
ag2
(g22
S'\x08\x86\xf1\xee\xec\x02\xd4?'
p2332
tp2333
Rp2334
ag2
(g22
S'E/\xa3Xn/u@'
p2335
tp2336
Rp2337
ag2
(g22
S'\x00\x00\x00\x00\x00\x00\x00\x00'
p2338
tp2339
Rp2340
ag2
(g22
S'}?5^\xba7t@'
p2341
tp2342
Rp2343
aF0.948
aF0.448
aF0.361
aF0.914
aF-13.769
aF0.0425
aF110.088
aF0.243
aa(lp2344
g2
(g3
(S'S33'
p2345
I0
I1
tp2346
Rp2347
(I3
S'|'
p2348
NNNI33
I1
I0
tp2349
bS"Il a suffit d'une chanson d'amour"
p2350
tp2351
Rp2352
ag2
(g3
(S'S14'
p2353
I0
I1
tp2354
Rp2355
(I3
S'|'
p2356
NNNI14
I1
I0
tp2357
bS'Christian adam'
p2358
tp2359
Rp2360
ag2
(g22
S'\x8b\xea\\\x9dT^\xd6?'
p2361
tp2362
Rp2363
ag2
(g22
S'\x06L\x92v\x83P\xce?'
p2364
tp2365
Rp2366
ag2
(g22
S'=\x9bU\x9f\xabqd@'
p2367
tp2368
Rp2369
ag2
(g22
S'R\xb8\x1e\x85\xebQ\xd8?'
p2370
tp2371
Rp2372
ag2
(g22
S'\x8d\x97n\x12\x83\xf0b@'
p2373
tp2374
Rp2375
aF0.52
aF0.384
aF0.518
aI0
aF-11.739
aF0.0439
aF140.883
aF0.666
aa(lp2376
g2
(g3
(S'S16'
p2377
I0
I1
tp2378
Rp2379
(I3
S'|'
p2380
NNNI16
I1
I0
tp2381
bS'Gamilia Patinada'
p2382
tp2383
Rp2384
ag2
(g3
(S'S16'
p2385
I0
I1
tp2386
Rp2387
(I3
S'|'
p2388
NNNI16
I1
I0
tp2389
bS'Nikos Kalaintzis'
p2390
tp2391
Rp2392
ag2
(g22
S'\x9c\xeb\xba\xbc\x12\x8f\xca?'
p2393
tp2394
Rp2395
ag2
(g22
S'\x00\x00\x00\x00\x00\x00\x00\x00'
p2396
tp2397
Rp2398
ag2
(g22
S'\xac\xe2\x8d\xcc#\xaba@'
p2399
tp2400
Rp2401
ag2
(g22
S'\x00\x00\x00\x00\x00\x00\x00\x00'
p2402
tp2403
Rp2404
ag2
(g22
S'\x9c\xc4 \xb0r|`@'
p2405
tp2406
Rp2407
aF0.97
aF0.497
aF0.432
aF0.938
aF-14.484
aF0.0479
aF153.725
aF0.961
aa(lp2408
g2
(g3
(S'S28'
p2409
I0
I1
tp2410
Rp2411
(I3
S'|'
p2412
NNNI28
I1
I0
tp2413
bS"I'm So Bored With The U.S.A."
p2414
tp2415
Rp2416
ag2
(g3
(S'S9'
p2417
I0
I1
tp2418
Rp2419
(I3
S'|'
p2420
NNNI9
I1
I0
tp2421
bS'The Clash'
p2422
tp2423
Rp2424
ag2
(g22
S'\x8c\xff\xa3\xfdT\xd3\xe8?'
p2425
tp2426
Rp2427
ag2
(g22
S'\xe2\x80\x05\x8c\xea<\xe3?'
p2428
tp2429
Rp2430
ag2
(g22
S'P\xc2L\xdb\xbf\x98a@'
p2431
tp2432
Rp2433
ag2
(g22
S'\x00\x00\x00\x00\x00\x00\x00\x00'
p2434
tp2435
Rp2436
ag2
(g22
S'\x8d\x97n\x12\x83\xd4`@'
p2437
tp2438
Rp2439
aF0.000454
aF0.31
aF0.862
aF0.0156
aF-6.943
aF0.0509
aF196.682
aF0.599
aa(lp2440
g2
(g3
(S'S14'
p2441
I0
I1
tp2442
Rp2443
(I3
S'|'
p2444
NNNI14
I1
I0
tp2445
bS'If Money Talks'
p2446
tp2447
Rp2448
ag2
(g3
(S'S21'
p2449
I0
I1
tp2450
Rp2451
(I3
S'|'
p2452
NNNI21
I1
I0
tp2453
bS'Jason & The Scorchers'
p2454
tp2455
Rp2456
ag2
(g22
S'\xcc \xcc\x15.\x04\xe0?'
p2457
tp2458
Rp2459
ag2
(g22
S'\x1a\xf4\xb8\x9d\xd1\x8b\xda?'
p2460
tp2461
Rp2462
ag2
(g22
S'c\x7f\xd9=yZc@'
p2463
tp2464
Rp2465
ag2
(g22
S'\xf8S\xe3\xa5\x9b\xc4\xc0?'
p2466
tp2467
Rp2468
ag2
(g22
S'H\xe1z\x14\xae\xf3b@'
p2469
tp2470
Rp2471
aF0.00413
aF0.897
aF0.634
aI0
aF-6.264
aF0.161
aF112.048
aF0.506
aa(lp2472
g2
(g3
(S'S18'
p2473
I0
I1
tp2474
Rp2475
(I3
S'|'
p2476
NNNI18
I1
I0
tp2477
bS'Good Girl Gone Bad'
p2478
tp2479
Rp2480
ag2
(g3
(S'S7'
p2481
I0
I1
tp2482
Rp2483
(I3
S'|'
p2484
NNNI7
I1
I0
tp2485
bS'Rihanna'
p2486
tp2487
Rp2488
ag2
(g22
S'Kk9 $_\xed?'
p2489
tp2490
Rp2491
ag2
(g22
S'\x07\x8bt\xf0\xfe\x0f\xed?'
p2492
tp2493
Rp2494
ag2
(g22
S'\xe6tYLl\xa8j@'
p2495
tp2496
Rp2497
ag2
(g22
S'\x1dZd;\xdfO\xcd?'
p2498
tp2499
Rp2500
ag2
(g22
S'fffff\xb6i@'
p2501
tp2502
Rp2503
aF0.0234
aF0.697
aF0.548
aI0
aF-6.376
aF0.0259
aF95.012
aF0.546
aa(lp2504
g2
(g3
(S'S17'
p2505
I0
I1
tp2506
Rp2507
(I3
S'|'
p2508
NNNI17
I1
I0
tp2509
bS'Laurie And Martin'
p2510
tp2511
Rp2512
ag2
(g3
(S'S11'
p2513
I0
I1
tp2514
Rp2515
(I3
S'|'
p2516
NNNI11
I1
I0
tp2517
bS'Max Steiner'
p2518
tp2519
Rp2520
ag2
(g22
S'\xb9#_\x90\x863\xde?'
p2521
tp2522
Rp2523
ag2
(g22
S'T\xa8\xcf\xe4]\xc0\xd6?'
p2524
tp2525
Rp2526
ag2
(g22
S'\xee_YiR\xbeI@'
p2527
tp2528
Rp2529
ag2
(g22
S'D\x8bl\xe7\xfb\xa9\xc1?'
p2530
tp2531
Rp2532
ag2
(g22
S'u\x93\x18\x04V\xbeI@'
p2533
tp2534
Rp2535
aF0.869
aF0.163
aF0.232
aF0.672
aF-13.494
aF0.0477
aF80.806
aF0.138
aa(lp2536
g2
(g3
(S'S15'
p2537
I0
I1
tp2538
Rp2539
(I3
S'|'
p2540
NNNI15
I1
I0
tp2541
bS'Shine For Jesus'
p2542
tp2543
Rp2544
ag2
(g3
(S'S21'
p2545
I0
I1
tp2546
Rp2547
(I3
S'|'
p2548
NNNI21
I1
I0
tp2549
bS'Sister Rosetta Tharpe'
p2550
tp2551
Rp2552
ag2
(g22
S'\xde\xe6\x14\xe8\x08\xb3\xe1?'
p2553
tp2554
Rp2555
ag2
(g22
S'Op(S\xfb\x0f\xd7?'
p2556
tp2557
Rp2558
ag2
(g22
S'\x8c\xd6Q\xd5\x04\x1d]@'
p2559
tp2560
Rp2561
ag2
(g22
S'h\x91\xed|?5\xbe?'
p2562
tp2563
Rp2564
ag2
(g22
S'w\xbe\x9f\x1a/e[@'
p2565
tp2566
Rp2567
aF0.987
aF0.608
aF0.317
aF0.922
aF-17.092
aF0.0584
aF96.754
aF0.873
aa(lp2568
g2
(g3
(S'S20'
p2569
I0
I1
tp2570
Rp2571
(I3
S'|'
p2572
NNNI20
I1
I0
tp2573
bS"Rollin' and Tumblin'"
p2574
tp2575
Rp2576
ag2
(g3
(S'S13'
p2577
I0
I1
tp2578
Rp2579
(I3
S'|'
p2580
NNNI13
I1
I0
tp2581
bS'R.L. Burnside'
p2582
tp2583
Rp2584
ag2
(g22
S'X4\x17\xdf\x12p\xe6?'
p2585
tp2586
Rp2587
ag2
(g22
S'=\xe6Lj?\xdd\xdd?'
p2588
tp2589
Rp2590
ag2
(g22
S'\xc7h\x1dUM\x9ch@'
p2591
tp2592
Rp2593
ag2
(g22
S'\x14\xaeG\xe1z\x14\xd6?'
p2594
tp2595
Rp2596
ag2
(g22
S'\xecQ\xb8\x1e\x85\x13h@'
p2597
tp2598
Rp2599
aF0.000705
aF0.612
aF0.911
aF0.114
aF-5.028
aF0.0514
aF106.009
aF0.844
aa(lp2600
g2
(g3
(S'S12'
p2601
I0
I1
tp2602
Rp2603
(I3
S'|'
p2604
NNNI12
I1
I0
tp2605
bS"He's Waitin'"
p2606
tp2607
Rp2608
ag2
(g3
(S'S3'
p2609
I0
I1
tp2610
Rp2611
(I3
S'|'
p2612
NNNI3
I1
I0
tp2613
bS'DMZ'
p2614
tp2615
Rp2616
ag2
(g22
S'\xd7<\xd8+Y\x14\xde?'
p2617
tp2618
Rp2619
ag2
(g22
S'< F\xa3\xcf\xf1\xd4?'
p2620
tp2621
Rp2622
ag2
(g22
S'\x89^F\xb1\xdc^f@'
p2623
tp2624
Rp2625
ag2
(g22
S'\x00\x00\x00\x00\x00\x00\x00\x00'
p2626
tp2627
Rp2628
ag2
(g22
S'\x02+\x87\x16\xd9^f@'
p2629
tp2630
Rp2631
aF0.306
aF0.379
aF0.917
aF8.61e-05
aF-6.769
aF0.0697
aF80.97
aF0.606
aa(lp2632
g2
(g3
(S'S20'
p2633
I0
I1
tp2634
Rp2635
(I3
S'|'
p2636
NNNI20
I1
I0
tp2637
bS'Sweet Lover Hangover'
p2638
tp2639
Rp2640
ag2
(g3
(S'S16'
p2641
I0
I1
tp2642
Rp2643
(I3
S'|'
p2644
NNNI16
I1
I0
tp2645
bS'Love and Rockets'
p2646
tp2647
Rp2648
ag2
(g22
S'<=\xbe\xa8(P\xe4?'
p2649
tp2650
Rp2651
ag2
(g22
S'Cl\xa0n\x9a\x85\xda?'
p2652
tp2653
Rp2654
ag2
(g22
S'\xbeM\x7f\xf6#ss@'
p2655
tp2656
Rp2657
ag2
(g22
S'\x00\x00\x00\x00\x00\x00\x00\x00'
p2658
tp2659
Rp2660
ag2
(g22
S';\xdfO\x8d\x97\xeeq@'
p2661
tp2662
Rp2663
aF0.00136
aF0.508
aF0.75
aF0.576
aF-9.302
aF0.0303
aF97.026
aF0.489
aa(lp2664
g2
(g3
(S'S12'
p2665
I0
I1
tp2666
Rp2667
(I3
S'|'
p2668
NNNI12
I1
I0
tp2669
bS'Gay Ranchero'
p2670
tp2671
Rp2672
ag2
(g3
(S'S26'
p2673
I0
I1
tp2674
Rp2675
(I3
S'|'
p2676
NNNI26
I1
I0
tp2677
bS'The Mystic Moods Orchestra'
p2678
tp2679
Rp2680
ag2
(g22
S'\xc2\x9a\xc4fU\xc3\xd4?'
p2681
tp2682
Rp2683
ag2
(g22
S'\xcdH\x00\xbf\xe8\xbb\xc5?'
p2684
tp2685
Rp2686
ag2
(g22
S'QN\xb4\xab\x90jb@'
p2687
tp2688
Rp2689
ag2
(g22
S'\xd5x\xe9&1\x08\t@'
p2690
tp2691
Rp2692
ag2
(g22
S'\xc3\xf5(\\\x8fjb@'
p2693
tp2694
Rp2695
aF0.434
aF0.464
aF0.345
aF0.185
aF-21.502
aF0.0429
aF124.041
aF0.581
aa(lp2696
g2
(g3
(S'S21'
p2697
I0
I1
tp2698
Rp2699
(I3
S'|'
p2700
NNNI21
I1
I0
tp2701
bS'Thank You For Calling'
p2702
tp2703
Rp2704
ag2
(g3
(S'S12'
p2705
I0
I1
tp2706
Rp2707
(I3
S'|'
p2708
NNNI12
I1
I0
tp2709
bS'Billy Walker'
p2710
tp2711
Rp2712
ag2
(g22
S'l\xc6\xdf\x1f\xdc\xad\xdc?'
p2713
tp2714
Rp2715
ag2
(g22
S'\xa5\xeaH9\x03\x05\xd3?'
p2716
tp2717
Rp2718
ag2
(g22
S'l!\xc8A\t\xb2`@'
p2719
tp2720
Rp2721
ag2
(g22
S'}?5^\xbaI\xcc?'
p2722
tp2723
Rp2724
ag2
(g22
S'\xb2\x9d\xef\xa7\xc6[`@'
p2725
tp2726
Rp2727
aF0.94
aF0.485
aF0.0799
aF7.96e-06
aF-14.692
aF0.0285
aF74.312
aF0.175
aa(lp2728
g2
(g3
(S'S49'
p2729
I0
I1
tp2730
Rp2731
(I3
S'|'
p2732
NNNI49
I1
I0
tp2733
bS'Christina The Astonishing (2010 Digital Remaster)'
p2734
tp2735
Rp2736
ag2
(g3
(S'S25'
p2737
I0
I1
tp2738
Rp2739
(I3
S'|'
p2740
NNNI25
I1
I0
tp2741
bS'Nick Cave & The Bad Seeds'
p2742
tp2743
Rp2744
ag2
(g22
S'u\x03\r\x99\x83\xcf\xe5?'
p2745
tp2746
Rp2747
ag2
(g22
S'\x1a\xfc\x02\x88\x9d\xae\xde?'
p2748
tp2749
Rp2750
ag2
(g22
S'\x18!<\xda8/r@'
p2751
tp2752
Rp2753
ag2
(g22
S'\x00\x00\x00\x00\x00\x00\x00\x00'
p2754
tp2755
Rp2756
ag2
(g22
S'H\xe1z\x14\xaeeq@'
p2757
tp2758
Rp2759
aF0.139
aF0.735
aF0.403
aF0.473
aF-11.599
aF0.037
aF115.658
aF0.453
aa(lp2760
g2
(g3
(S'S5'
p2761
I0
I1
tp2762
Rp2763
(I3
S'|'
p2764
NNNI5
I1
I0
tp2765
bS'Hello'
p2766
tp2767
Rp2768
ag2
(g3
(S'S16'
p2769
I0
I1
tp2770
Rp2771
(I3
S'|'
p2772
NNNI16
I1
I0
tp2773
bS'LL Cool J / Amil'
p2774
tp2775
Rp2776
ag2
(g22
S'\xf6?\xd7\x97\x97\xf9\xe7?'
p2777
tp2778
Rp2779
ag2
(g22
S'\xa4T\xd7\xca\x15k\xe1?'
p2780
tp2781
Rp2782
ag2
(g22
S'o\x12\x83\xc0\xca\x04m@'
p2783
tp2784
Rp2785
ag2
(g22
S'\x8bl\xe7\xfb\xa9\xf1\xc2?'
p2786
tp2787
Rp2788
ag2
(g22
S'7\x89A`\xe5Xk@'
p2789
tp2790
Rp2791
aF0.00727
aF0.774
aF0.628
aF0.009
aF-4.204
aF0.119
aF92.079
aF0.552
aa(lp2792
g2
(g3
(S'S11'
p2793
I0
I1
tp2794
Rp2795
(I3
S'|'
p2796
NNNI11
I1
I0
tp2797
bS'Ja Soc Aqui'
p2798
tp2799
Rp2800
ag2
(g3
(S'S10'
p2801
I0
I1
tp2802
Rp2803
(I3
S'|'
p2804
NNNI10
I1
I0
tp2805
bS'Gato Perez'
p2806
tp2807
Rp2808
ag2
(g22
S'T\x1aT\x02Fj\xda?'
p2809
tp2810
Rp2811
ag2
(g22
S'F\xd0\xd1\xb6\xd6\x89\xd3?'
p2812
tp2813
Rp2814
ag2
(g22
S' c\xeeZ\xc2-q@'
p2815
tp2816
Rp2817
ag2
(g22
S'\x00\x00\x00\x00\x00\x00\x00\x00'
p2818
tp2819
Rp2820
ag2
(g22
S'\x14\xaeG\xe1z\xeco@'
p2821
tp2822
Rp2823
aF0.633
aF0.596
aF0.749
aF0.0577
aF-9.542
aF0.0639
aF114.304
aF0.731
aa.