(lp0
(lp1
cnumpy.core.multiarray
scalar
p2
(cnumpy
dtype
p3
(S'S7'
p4
I0
I1
tp5
Rp6
(I3
S'|'
p7
NNNI7
I1
I0
tp8
bS'Abu-Pia'
p9
tp10
Rp11
ag2
(g3
(S'S10'
p12
I0
I1
tp13
Rp14
(I3
S'|'
p15
NNNI10
I1
I0
tp16
bS'Papa Wemba'
p17
tp18
Rp19
ag2
(g3
(S'f8'
p20
I0
I1
tp21
Rp22
(I3
S'<'
p23
NNNI-1
I-1
I0
tp24
bS'\xc8W\x9e\x0f\xceW\xe1?'
p25
tp26
Rp27
ag2
(g22
S'\xe8\x85\xd10\xa2\xbe\xda?'
p28
tp29
Rp30
ag2
(g22
S'U\x18[\x08\xf2iy@'
p31
tp32
Rp33
ag2
(g22
S'B`\xe5\xd0"\xdb\xe1?'
p34
tp35
Rp36
ag2
(g22
S'\xcd\xcc\xcc\xcc\xcc\xe6x@'
p37
tp38
Rp39
aF0.565
aF0.712
aF0.729
aF0.000102
aF-6.52
aF0.0519
aF119.712
aF0.91
aa(lp40
g2
(g3
(S'S8'
p41
I0
I1
tp42
Rp43
(I3
S'|'
p44
NNNI8
I1
I0
tp45
bS'Superman'
p46
tp47
Rp48
ag2
(g3
(S'S13'
p49
I0
I1
tp50
Rp51
(I3
S'|'
p52
NNNI13
I1
I0
tp53
bS'Unwritten Law'
p54
tp55
Rp56
ag2
(g22
S'\x8b)\x12\x01\xbeo\xe4?'
p57
tp58
Rp59
ag2
(g22
S'\xe6\x07\x93\xa9u~\xdd?'
p60
tp61
Rp62
ag2
(g22
S'3\xf9f\x9b\x1b\x1ak@'
p63
tp64
Rp65
ag2
(g22
S'\xc7K7\x89A`\xd5?'
p66
tp67
Rp68
ag2
(g22
S"'1\x08\xac\x1c\x1ak@"
p69
tp70
Rp71
aF4.74e-05
aF0.431
aF0.987
aF0.257
aF-4.891
aF0.0997
aF101.192
aF0.31
aa(lp72
g2
(g3
(S'S30'
p73
I0
I1
tp74
Rp75
(I3
S'|'
p76
NNNI30
I1
I0
tp77
bS'The Original Colossal Drag Rag'
p78
tp79
Rp80
ag2
(g3
(S'S23'
p81
I0
I1
tp82
Rp83
(I3
S'|'
p84
NNNI23
I1
I0
tp85
bS'The Even Dozen Jug Band'
p86
tp87
Rp88
ag2
(g22
S'\xabnw\xc0\xb8\x0f\xd6?'
p89
tp90
Rp91
ag2
(g22
S'\x08j9\xbf@~\xc7?'
p92
tp93
Rp94
ag2
(g22
S'_\x0c\xe5D\xbb\xfee@'
p95
tp96
Rp97
ag2
(g22
S'\x00\x00\x00\x00\x00\x00\x00\x00'
p98
tp99
Rp100
ag2
(g22
S'V\x0e-\xb2\x9d\xafe@'
p101
tp102
Rp103
aF0.755
aF0.676
aF0.751
aF0.928
aF-8.396
aF0.1
aF132.975
aF0.959
aa(lp104
g2
(g3
(S'S23'
p105
I0
I1
tp106
Rp107
(I3
S'|'
p108
NNNI23
I1
I0
tp109
bS'The People You Care For'
p110
tp111
Rp112
ag2
(g3
(S'S11'
p113
I0
I1
tp114
Rp115
(I3
S'|'
p116
NNNI11
I1
I0
tp117
bS'John Ottman'
p118
tp119
Rp120
ag2
(g22
S'\x12\x92uZ\x9a\xa6\xe2?'
p121
tp122
Rp123
ag2
(g22
S'_\x1a\xde\x0f\x00L\xdb?'
p124
tp125
Rp126
ag2
(g22
S'\x7fM\xd6\xa8\x87\xbdi@'
p127
tp128
Rp129
ag2
(g22
S'Zd;\xdfO\x8d\x03@'
p130
tp131
Rp132
ag2
(g22
S'B`\xe5\xd0"Oh@'
p133
tp134
Rp135
aF0.878
aF0.206
aF0.303
aF0.914
aF-14.514
aF0.0392
aF115.755
aF0.0368
aa(lp136
g2
(g3
(S'S5'
p137
I0
I1
tp138
Rp139
(I3
S'|'
p140
NNNI5
I1
I0
tp141
bS'Woman'
p142
tp143
Rp144
ag2
(g3
(S'S4'
p145
I0
I1
tp146
Rp147
(I3
S'|'
p148
NNNI4
I1
I0
tp149
bS'Free'
p150
tp151
Rp152
ag2
(g22
S'Y\xa9\xb3\x8b\x84\xd6\xe6?'
p153
tp154
Rp155
ag2
(g22
S'\xf01\x13\x11\x9e\xfd\xdd?'
p156
tp157
Rp158
ag2
(g22
S'[|\n\x80q\x18q@'
p159
tp160
Rp161
ag2
(g22
S'\x14\xaeG\xe1z\x94\x10@'
p162
tp163
Rp164
ag2
(g22
S'\x9c\xc4 \xb0r\x18q@'
p165
tp166
Rp167
aF0.0971
aF0.365
aF0.608
aI0
aF-5.988
aF0.0879
aF162.283
aF0.711
aa(lp168
g2
(g3
(S'S3'
p169
I0
I1
tp170
Rp171
(I3
S'|'
p172
NNNI3
I1
I0
tp173
bS'Gum'
p174
tp175
Rp176
ag2
(g3
(S'S4'
p177
I0
I1
tp178
Rp179
(I3
S'|'
p180
NNNI4
I1
I0
tp181
bS'Emit'
p182
tp183
Rp184
ag2
(g22
S'57c\x0enY\xdc?'
p185
tp186
Rp187
ag2
(g22
S'\x1c\x0f\xb2\xd9k\x9f\xd8?'
p188
tp189
Rp190
ag2
(g22
S'l!\xc8A\t\xb2h@'
p191
tp192
Rp193
ag2
(g22
S'\x00\x00\x00\x00\x00\x00\x00\x00'
p194
tp195
Rp196
ag2
(g22
S'b\x10X9\xb4\x10h@'
p197
tp198
Rp199
aF0.00339
aF0.519
aF0.89
aF0.000424
aF-2.96
aF0.0411
aF137.026
aF0.302
aa(lp200
g2
(g3
(S'S7'
p201
I0
I1
tp202
Rp203
(I3
S'|'
p204
NNNI7
I1
I0
tp205
bS'Shirley'
p206
tp207
Rp208
ag2
(g3
(S'S17'
p209
I0
I1
tp210
Rp211
(I3
S'|'
p212
NNNI17
I1
I0
tp213
bS"Lil' Band O' Gold"
p214
tp215
Rp216
ag2
(g22
S'\x17s\x0f\x8eC\xcd\xd6?'
p217
tp218
Rp219
ag2
(g22
S'\x00\x00\x00\x00\x00\x00\x00\x00'
p220
tp221
Rp222
ag2
(g22
S'\xaf_\xb0\x1b\xb6\xcfb@'
p223
tp224
Rp225
ag2
(g22
S'\xdfO\x8d\x97n\x12\xe7?'
p226
tp227
Rp228
ag2
(g22
S'D\x8bl\xe7\xfb\x89a@'
p229
tp230
Rp231
aF0.393
aF0.7
aF0.75
aF1.46e-06
aF-9.988
aF0.23
aF146.887
aF0.883
aa(lp232
g2
(g3
(S'S20'
p233
I0
I1
tp234
Rp235
(I3
S'|'
p236
NNNI20
I1
I0
tp237
bS'Anatomy of a Contest'
p238
tp239
Rp240
ag2
(g3
(S'S13'
p241
I0
I1
tp242
Rp243
(I3
S'|'
p244
NNNI13
I1
I0
tp245
bS'John Frizzell'
p246
tp247
Rp248
ag2
(g22
S'\xf1K\xc0\xe3\xa3\xb3\xdb?'
p249
tp250
Rp251
ag2
(g22
S'\xd2\x02\x9c\xafb{\xd7?'
p252
tp253
Rp254
ag2
(g22
S'\x12k\xf1)\x00\xfcR@'
p255
tp256
Rp257
ag2
(g22
S'\xaeG\xe1z\x14\xae\xd7?'
p258
tp259
Rp260
ag2
(g22
S'\x81\x95C\x8bl\x7fQ@'
p261
tp262
Rp263
aF0.865
aF0.438
aF0.204
aF0.323
aF-15.435
aF0.0474
aF146.937
aF0.841
aa(lp264
g2
(g3
(S'S11'
p265
I0
I1
tp266
Rp267
(I3
S'|'
p268
NNNI11
I1
I0
tp269
bS'Little Bird'
p270
tp271
Rp272
ag2
(g3
(S'S12'
p273
I0
I1
tp274
Rp275
(I3
S'|'
p276
NNNI12
I1
I0
tp277
bS'Annie Lennox'
p278
tp279
Rp280
ag2
(g22
S'-\xd8\x07\xb9\x81\xcf\xe9?'
p281
tp282
Rp283
ag2
(g22
S'\x06\xc39\x18\xee\xdf\xe3?'
p284
tp285
Rp286
ag2
(g22
S'\xce\x8d\xe9\tK\x10x@'
p287
tp288
Rp289
ag2
(g22
S'\xa4p=\n\xd7\xa3\x05@'
p290
tp291
Rp292
ag2
(g22
S'ffffftw@'
p293
tp294
Rp295
aF0.247
aF0.767
aF0.521
aF0.00124
aF-9.145
aF0.0351
aF124.995
aF0.672
aa(lp296
g2
(g3
(S'S11'
p297
I0
I1
tp298
Rp299
(I3
S'|'
p300
NNNI11
I1
I0
tp301
bS'Proletariat'
p302
tp303
Rp304
ag2
(g3
(S'S4'
p305
I0
I1
tp306
Rp307
(I3
S'|'
p308
NNNI4
I1
I0
tp309
bS'Tree'
p310
tp311
Rp312
ag2
(g22
S'\x9a\xb6!\x04\x9a\x93\xe2?'
p313
tp314
Rp315
ag2
(g22
S'/\xc0g\xe7\xf5S\xd4?'
p316
tp317
Rp318
ag2
(g22
S'\xc0\x95\xec\xd8\x08\xa4c@'
p319
tp320
Rp321
ag2
(g22
S'\xf2\xd2Mb\x10X\xd9?'
p322
tp323
Rp324
ag2
(g22
S'-\xb2\x9d\xef\xa7*c@'
p325
tp326
Rp327
aF0.0188
aF0.388
aF0.925
aI0
aF-8.614
aF0.321
aF147.165
aF0.257
aa(lp328
g2
(g3
(S'S11'
p329
I0
I1
tp330
Rp331
(I3
S'|'
p332
NNNI11
I1
I0
tp333
bS'Bring It On'
p334
tp335
Rp336
ag2
(g3
(S'S5'
p337
I0
I1
tp338
Rp339
(I3
S'|'
p340
NNNI5
I1
I0
tp341
bS'Goose'
p342
tp343
Rp344
ag2
(g22
S'l@\xe1\xfcLB\xe6?'
p345
tp346
Rp347
ag2
(g22
S'\xb0\x15Sj\xd1y\xdc?'
p348
tp349
Rp350
ag2
(g22
S'\xf8\xaa\x95\t\xbf\xbdx@'
p351
tp352
Rp353
ag2
(g22
S'\x9a\x99\x99\x99\x99\x99\xc9?'
p354
tp355
Rp356
ag2
(g22
S"^\xbaI\x0c\x02'x@"
p357
tp358
Rp359
aF0.00755
aF0.66
aF0.919
aF0.00621
aF-4.53
aF0.0521
aF119.953
aF0.66
aa(lp360
g2
(g3
(S'S6'
p361
I0
I1
tp362
Rp363
(I3
S'|'
p364
NNNI6
I1
I0
tp365
bS'Karola'
p366
tp367
Rp368
ag2
(g3
(S'S12'
p369
I0
I1
tp370
Rp371
(I3
S'|'
p372
NNNI12
I1
I0
tp373
bS'Remmy Ongala'
p374
tp375
Rp376
ag2
(g22
S'\xa4\xddn\x99\x80\x13\xdb?'
p377
tp378
Rp379
ag2
(g22
S';\xe5\xedn\x08\x80\xd1?'
p380
tp381
Rp382
ag2
(g22
S'Z\x9e\x07wg\xc8u@'
p383
tp384
Rp385
ag2
(g22
S'\x17\xd9\xce\xf7S\xe3\xc5?'
p386
tp387
Rp388
ag2
(g22
S'h\x91\xed|?\x11u@'
p389
tp390
Rp391
aF0.357
aF0.529
aF0.76
aF0.00721
aF-11.232
aF0.0582
aF126.055
aF0.905
aa(lp392
g2
(g3
(S'S17'
p393
I0
I1
tp394
Rp395
(I3
S'|'
p396
NNNI17
I1
I0
tp397
bS'Roll Old Jeremiah'
p398
tp399
Rp400
ag2
(g3
(S'S16'
p401
I0
I1
tp402
Rp403
(I3
S'|'
p404
NNNI16
I1
I0
tp405
bS'The Black Crowes'
p406
tp407
Rp408
ag2
(g22
S'\x8d\x14U\x80x\x84\xe9?'
p409
tp410
Rp411
ag2
(g22
S"'\xb8\xfdZ0*\xe1?"
p412
tp413
Rp414
ag2
(g22
S'Y\xc0\x04n]xp@'
p415
tp416
Rp417
ag2
(g22
S'\x00\x00\x00\x00\x00\x00\x00\x00'
p418
tp419
Rp420
ag2
(g22
S'\x1dZd;\xdf\xdfo@'
p421
tp422
Rp423
aF0.16
aF0.505
aF0.507
aF0.00525
aF-12.144
aF0.0292
aF89.204
aF0.766
aa(lp424
g2
(g3
(S'S26'
p425
I0
I1
tp426
Rp427
(I3
S'|'
p428
NNNI26
I1
I0
tp429
bS'Con un poquitito de suerte'
p430
tp431
Rp432
ag2
(g3
(S'S7'
p433
I0
I1
tp434
Rp435
(I3
S'|'
p436
NNNI7
I1
I0
tp437
bS'Leo Dan'
p438
tp439
Rp440
ag2
(g22
S'KZ\xe8)\xb9\x04\xe0?'
p441
tp442
Rp443
ag2
(g22
S'3\x8b\xa9\xa3\xfb\x90\xd8?'
p444
tp445
Rp446
ag2
(g22
S'\xe0Jvl\x04\x91b@'
p447
tp448
Rp449
ag2
(g22
S'\n\xd7\xa3p=\n\xb7?'
p450
tp451
Rp452
ag2
(g22
S'\x8f\xc2\xf5(\\\x17b@'
p453
tp454
Rp455
aF0.927
aF0.465
aF0.468
aF0.00201
aF-4.46
aF0.0347
aF110.655
aF0.179
aa(lp456
g2
(g3
(S'S25'
p457
I0
I1
tp458
Rp459
(I3
S'|'
p460
NNNI25
I1
I0
tp461
bS'Tis Monaxias Ta Monopatia'
p462
tp463
Rp464
ag2
(g3
(S'S10'
p465
I0
I1
tp466
Rp467
(I3
S'|'
p468
NNNI10
I1
I0
tp469
bS'Peggy Zina'
p470
tp471
Rp472
ag2
(g22
S'\x03\xa0\xfe\xd8\x83\xc7\xd4?'
p473
tp474
Rp475
ag2
(g22
S'\xe9\xe7\x17>\xc1w\xd3?'
p476
tp477
Rp478
ag2
(g22
S'\x87\xf9\xf2\x02\xec\xddj@'
p479
tp480
Rp481
ag2
(g22
S'R\xb8\x1e\x85\xebQ\xd8?'
p482
tp483
Rp484
ag2
(g22
S'\xd9\xce\xf7S\xe3\rj@'
p485
tp486
Rp487
aF0.532
aF0.512
aF0.535
aI0
aF-6.371
aF0.0311
aF140.012
aF0.355
aa(lp488
g2
(g3
(S'S18'
p489
I0
I1
tp490
Rp491
(I3
S'|'
p492
NNNI18
I1
I0
tp493
bS'Turkey And Dressin'
p494
tp495
Rp496
ag2
(g3
(S'S6'
p497
I0
I1
tp498
Rp499
(I3
S'|'
p500
NNNI6
I1
I0
tp501
bS'Casual'
p502
tp503
Rp504
ag2
(g22
S'DF\xaa\xf5\r\x9e\xe2?'
p505
tp506
Rp507
ag2
(g22
S'\xaa\x9at\xe7S\xba\xd9?'
p508
tp509
Rp510
ag2
(g22
S'\x1f\x11S"\x89ng@'
p511
tp512
Rp513
ag2
(g22
S'\xfe\xd4x\xe9&1\xd0?'
p514
tp515
Rp516
ag2
(g22
S'\xaeG\xe1z\x14Nf@'
p517
tp518
Rp519
aF0.0429
aF0.509
aF0.837
aI0
aF-5.613
aF0.301
aF91.313
aF0.741
aa(lp520
g2
(g3
(S'S6'
p521
I0
I1
tp522
Rp523
(I3
S'|'
p524
NNNI6
I1
I0
tp525
bS'Desire'
p526
tp527
Rp528
ag2
(g3
(S'S14'
p529
I0
I1
tp530
Rp531
(I3
S'|'
p532
NNNI14
I1
I0
tp533
bS'Rockabye Baby!'
p534
tp535
Rp536
ag2
(g22
S' \xb0\x0b\x9196\xe6?'
p537
tp538
Rp539
ag2
(g22
S'Bc\x89k\x97/\xdd?'
p540
tp541
Rp542
ag2
(g22
S'B`\xe5\xd0\xa2\x8cs@'
p543
tp544
Rp545
ag2
(g22
S'\x8bl\xe7\xfb\xa9\xf1\xc2?'
p546
tp547
Rp548
ag2
(g22
S'\xa4p=\n\xd7yq@'
p549
tp550
Rp551
aF0.814
aF0.763
aF0.471
aF0.857
aF-10.648
aF0.0651
aF100.044
aF0.504
aa(lp552
g2
(g3
(S'S11'
p553
I0
I1
tp554
Rp555
(I3
S'|'
p556
NNNI11
I1
I0
tp557
bS'New Meaning'
p558
tp559
Rp560
ag2
(g3
(S'S8'
p561
I0
I1
tp562
Rp563
(I3
S'|'
p564
NNNI8
I1
I0
tp565
bS'Mudhoney'
p566
tp567
Rp568
ag2
(g22
S'\x8a\xd6bs\x99\x86\xe5?'
p569
tp570
Rp571
ag2
(g22
S'\x02\xf8\xa4\xbe(}\xde?'
p572
tp573
Rp574
ag2
(g22
S'\xd9_vO\x1e\xf5c@'
p575
tp576
Rp577
ag2
(g22
S'\x1f\x85\xebQ\xb8\x1e\xc5?'
p578
tp579
Rp580
ag2
(g22
S'\x85\xebQ\xb8\x1e\xf5c@'
p581
tp582
Rp583
aF7.61e-05
aF0.282
aF0.956
aF0.913
aF-1.896
aF0.0546
aF145.17
aF0.573
aa(lp584
g2
(g3
(S'S17'
p585
I0
I1
tp586
Rp587
(I3
S'|'
p588
NNNI17
I1
I0
tp589
bS'Ocean Size [Demo]'
p590
tp591
Rp592
ag2
(g3
(S'S16'
p593
I0
I1
tp594
Rp595
(I3
S'|'
p596
NNNI16
I1
I0
tp597
bS"Jane's Addiction"
p598
tp599
Rp600
ag2
(g22
S':\x0b\xd2\x97\xd5\xc7\xe6?'
p601
tp602
Rp603
ag2
(g22
S'Qc~>\x0e \xe1?'
p604
tp605
Rp606
ag2
(g22
S'\xa2\x7f\x82\x8b\x15\x10q@'
p607
tp608
Rp609
ag2
(g22
S'\xbe\x9f\x1a/\xdd$\x0c@'
p610
tp611
Rp612
ag2
(g22
S'\xbe\x9f\x1a/\xdd\xa4p@'
p613
tp614
Rp615
aF0.00478
aF0.146
aF0.974
aF0.668
aF-4.862
aF0.417
aF187.008
aF0.198
aa(lp616
g2
(g3
(S'S9'
p617
I0
I1
tp618
Rp619
(I3
S'|'
p620
NNNI9
I1
I0
tp621
bS'Misty Bog'
p622
tp623
Rp624
ag2
(g3
(S'S17'
p625
I0
I1
tp626
Rp627
(I3
S'|'
p628
NNNI17
I1
I0
tp629
bS'Winifred Phillips'
p630
tp631
Rp632
ag2
(g22
S'\xc5\\%\x80M\xed\xda?'
p633
tp634
Rp635
ag2
(g22
S'\xb5UK\x83\xcc\xfa\xd4?'
p636
tp637
Rp638
ag2
(g22
S"\x97\xad\xf5EB'T@"
p639
tp640
Rp641
ag2
(g22
S'\x00\x00\x00\x00\x00\x00\x00\x00'
p642
tp643
Rp644
ag2
(g22
S'fffff\x96S@'
p645
tp646
Rp647
aF0.864
aF0.464
aF0.275
aF0.596
aF-11.786
aF0.0412
aF144.812
aF0.129
aa(lp648
g2
(g3
(S'S14'
p649
I0
I1
tp650
Rp651
(I3
S'|'
p652
NNNI14
I1
I0
tp653
bS'Clear Channels'
p654
tp655
Rp656
ag2
(g3
(S'S3'
p657
I0
I1
tp658
Rp659
(I3
S'|'
p660
NNNI3
I1
I0
tp661
bS'Roj'
p662
tp663
Rp664
ag2
(g22
S'D\xaf\x00\x7f\x87\xdf\xdd?'
p665
tp666
Rp667
ag2
(g22
S'\xecY\x11s\xa9\xd5\xd7?'
p668
tp669
Rp670
ag2
(g22
S'\xaf|\x96\xe7\xc1\xd1D@'
p671
tp672
Rp673
ag2
(g22
S'\x00\x00\x00\x00\x00\x00\x00\x00'
p674
tp675
Rp676
ag2
(g22
S'o\x12\x83\xc0\xca\xd1D@'
p677
tp678
Rp679
aF0.982
aF0.738
aF0.719
aF0.00126
aF-16.447
aF0.507
aF89.344
aF0.809
aa(lp680
g2
(g3
(S'S7'
p681
I0
I1
tp682
Rp683
(I3
S'|'
p684
NNNI7
I1
I0
tp685
bS'We Bite'
p686
tp687
Rp688
ag2
(g3
(S'S11'
p689
I0
I1
tp690
Rp691
(I3
S'|'
p692
NNNI11
I1
I0
tp693
bS'The Misfits'
p694
tp695
Rp696
ag2
(g22
S'\xfc\x84K\xe3\xb8Q\xeb?'
p697
tp698
Rp699
ag2
(g22
S' \x87\xa2\xe5\xb7\xa1\xe1?'
p700
tp701
Rp702
ag2
(g22
S'\x12\xdar.\xc5ER@'
p703
tp704
Rp705
ag2
(g22
S'1\x08\xac\x1cZd\xbb?'
p706
tp707
Rp708
ag2
(g22
S'R\xb8\x1e\x85\xeb\xc1Q@'
p709
tp710
Rp711
aF0.000158
aF0.371
aF0.841
aF0.00114
aF-5.432
aF0.0383
aF93.907
aF0.757
aa(lp712
g2
(g3
(S'S33'
p713
I0
I1
tp714
Rp715
(I3
S'|'
p716
NNNI33
I1
I0
tp717
bS"Spelling Beatnuts with Lil' Donny"
p718
tp719
Rp720
ag2
(g3
(S'S24'
p721
I0
I1
tp722
Rp723
(I3
S'|'
p724
NNNI24
I1
I0
tp725
bS"Beatnuts with Lil' Donny"
p726
tp727
Rp728
ag2
(g22
S'\x8c\xf3\x08c\xe2t\xe3?'
p729
tp730
Rp731
ag2
(g22
S'\xc0\x05B:\x03F\xd2?'
p732
tp733
Rp734
ag2
(g22
S'\x0b\xefr\x11\xdf\xa9S@'
p735
tp736
Rp737
ag2
(g22
S'\x9a\x99\x99\x99\x99\x99\xc9?'
p738
tp739
Rp740
ag2
(g22
S'`\xe5\xd0"\xdb\xa9S@'
p741
tp742
Rp743
aF0.195
aF0.679
aF0.8
aI0
aF-9.985
aF0.105
aF117.464
aF0.651
aa(lp744
g2
(g3
(S'S12'
p745
I0
I1
tp746
Rp747
(I3
S'|'
p748
NNNI12
I1
I0
tp749
bS'Guantanamera'
p750
tp751
Rp752
ag2
(g3
(S'S11'
p753
I0
I1
tp754
Rp755
(I3
S'|'
p756
NNNI11
I1
I0
tp757
bS'Wyclef Jean'
p758
tp759
Rp760
ag2
(g22
S'\x95\xf6q\x8b\xafS\xe9?'
p761
tp762
Rp763
ag2
(g22
S'8Q\xdb\x04\xbd\x95\xde?'
p764
tp765
Rp766
ag2
(g22
S'\xed\r\xbe0\x99\tj@'
p767
tp768
Rp769
ag2
(g22
S'\x91\xed|?5^\xca?'
p770
tp771
Rp772
ag2
(g22
S'9\xb4\xc8v\xbe\x17i@'
p773
tp774
Rp775
aF0.00195
aF0.833
aF0.431
aF0.000278
aF-8.992
aF0.178
aF87.97
aF0.385
aa(lp776
g2
(g3
(S'S17'
p777
I0
I1
tp778
Rp779
(I3
S'|'
p780
NNNI17
I1
I0
tp781
bS'Objection (Tango)'
p782
tp783
Rp784
ag2
(g3
(S'S7'
p785
I0
I1
tp786
Rp787
(I3
S'|'
p788
NNNI7
I1
I0
tp789
bS'Shakira'
p790
tp791
Rp792
ag2
(g22
S'W6\x13%*o\xeb?'
p793
tp794
Rp795
ag2
(g22
S'\x91r\xb7\x14b\xf3\xe6?'
p796
tp797
Rp798
ag2
(g22
S'b\x10X9\xb4\x10l@'
p799
tp800
Rp801
ag2
(g22
S'\x81\x95C\x8bl\xe7\x02@'
p802
tp803
Rp804
ag2
(g22
S'%\x06\x81\x95C\xbfk@'
p805
tp806
Rp807
aF0.0147
aF0.603
aF0.864
aI0
aF-5.282
aF0.0677
aF179.344
aF0.705
aa(lp808
g2
(g3
(S'S10'
p809
I0
I1
tp810
Rp811
(I3
S'|'
p812
NNNI10
I1
I0
tp813
bS'These Days'
p814
tp815
Rp816
ag2
(g3
(S'S13'
p817
I0
I1
tp818
Rp819
(I3
S'|'
p820
NNNI13
I1
I0
tp821
bS'Hushabye Baby'
p822
tp823
Rp824
ag2
(g22
S'\xad,\xe9\xf9\x96\x9e\xd6?'
p825
tp826
Rp827
ag2
(g22
S'y\x8f\x8f\xd8\x94d\xd7?'
p828
tp829
Rp830
ag2
(g22
S'?\xc6\xdc\xb5\x84[j@'
p831
tp832
Rp833
ag2
(g22
S'd;\xdfO\x8d\x17\x10@'
p834
tp835
Rp836
ag2
(g22
S'\xb0rh\x91\xed\xf0h@'
p837
tp838
Rp839
aF0.921
aF0.696
aF0.157
aF0.885
aF-17.856
aF0.074
aF148.056
aF0.69
aa(lp840
g2
(g3
(S'S24'
p841
I0
I1
tp842
Rp843
(I3
S'|'
p844
NNNI24
I1
I0
tp845
bS'Doomed To Walk The Earth'
p846
tp847
Rp848
ag2
(g3
(S'S15'
p849
I0
I1
tp850
Rp851
(I3
S'|'
p852
NNNI15
I1
I0
tp853
bS'Swallow The Sun'
p854
tp855
Rp856
ag2
(g22
S'\xf6{\xa2\xceY\xe1\xe4?'
p857
tp858
Rp859
ag2
(g22
S';\xb3u\xd6\xa7\x9a\xdf?'
p860
tp861
Rp862
ag2
(g22
S'\xff\xe70_\xde\xd7\x7f@'
p863
tp864
Rp865
ag2
(g22
S'\x00\x00\x00\x00\x00\x00\x00\x00'
p866
tp867
Rp868
ag2
(g22
S'\x1f\x85\xebQ\xb8\xf4}@'
p869
tp870
Rp871
aF0.0529
aF0.367
aF0.439
aF0.941
aF-7.933
aF0.0319
aF82.986
aF0.0338
aa(lp872
g2
(g3
(S'S13'
p873
I0
I1
tp874
Rp875
(I3
S'|'
p876
NNNI13
I1
I0
tp877
bS"Polly's Dress"
p878
tp879
Rp880
ag2
(g3
(S'S3'
p881
I0
I1
tp882
Rp883
(I3
S'|'
p884
NNNI3
I1
I0
tp885
bS'Hem'
p886
tp887
Rp888
ag2
(g22
S'\xb7\xd7\x16\\U;\xe4?'
p889
tp890
Rp891
ag2
(g22
S'Q\xc2\x80\x8d\x17\x05\xdd?'
p892
tp893
Rp894
ag2
(g22
S'S\\U\xf6]\xc3Q@'
p895
tp896
Rp897
ag2
(g22
S'\x1f\x85\xebQ\xb8\x1e\xd5?'
p898
tp899
Rp900
ag2
(g22
S'\x08\xac\x1cZd\xc3Q@'
p901
tp902
Rp903
aF0.99
aF0.429
aF0.147
aF0.66
aF-19.325
aF0.0426
aF56.517
aF0.202
aa(lp904
g2
(g3
(S'S56'
p905
I0
I1
tp906
Rp907
(I3
S'|'
p908
NNNI56
I1
I0
tp909
bS'Ballad Of The Boll Weevil (Remastered Version) (Take 10)'
p910
tp911
Rp912
ag2
(g3
(S'S14'
p913
I0
I1
tp914
Rp915
(I3
S'|'
p916
NNNI14
I1
I0
tp917
bS'Mance Lipscomb'
p918
tp919
Rp920
ag2
(g22
S'!\xd4}8\xc5\xda\xdc?'
p921
tp922
Rp923
ag2
(g22
S'\xc7,\x98)\xe0E\xd5?'
p924
tp925
Rp926
ag2
(g22
S'\x88\xf4\xdb\xd7\x81\xf9b@'
p927
tp928
Rp929
ag2
(g22
S'\x00\x00\x00\x00\x00\x00\x00\x00'
p930
tp931
Rp932
ag2
(g22
S'/\xdd$\x06\x81Yb@'
p933
tp934
Rp935
aF0.91
aF0.676
aF0.0973
aF0.00156
aF-21.134
aF0.108
aF135.89
aF0.548
aa(lp936
g2
(g3
(S'S26'
p937
I0
I1
tp938
Rp939
(I3
S'|'
p940
NNNI26
I1
I0
tp941
bS"What'Cha Gonna Do About It"
p942
tp943
Rp944
ag2
(g3
(S'S11'
p945
I0
I1
tp946
Rp947
(I3
S'|'
p948
NNNI11
I1
I0
tp949
bS'Small Faces'
p950
tp951
Rp952
ag2
(g22
S'\\\x85\x90N\xb2\xa1\xe2?'
p953
tp954
Rp955
ag2
(g22
S'K\x13\x1e\x03G\xbd\xdc?'
p956
tp957
Rp958
ag2
(g22
S'\xd5\x04Q\xf7\x01=`@'
p959
tp960
Rp961
ag2
(g22
S'Zd;\xdfO\r\x1b@'
p962
tp963
Rp964
ag2
(g22
S'9\xb4\xc8v\xbe\xaf^@'
p965
tp966
Rp967
aF0.298
aF0.653
aF0.85
aI0
aF-4.668
aF0.108
aF152.532
aF0.729
aa(lp968
g2
(g3
(S'S9'
p969
I0
I1
tp970
Rp971
(I3
S'|'
p972
NNNI9
I1
I0
tp973
bS'Polyester'
p974
tp975
Rp976
ag2
(g3
(S'S17'
p977
I0
I1
tp978
Rp979
(I3
S'|'
p980
NNNI17
I1
I0
tp981
bS'Maximilian Hecker'
p982
tp983
Rp984
ag2
(g22
S'h#DA9\xe0\xe3?'
p985
tp986
Rp987
ag2
(g22
S'\x8c\xcf;p?\xe2\xdb?'
p988
tp989
Rp990
ag2
(g22
S'\xb6\xbeHh\xcb\x99l@'
p991
tp992
Rp993
ag2
(g22
S'\x00\x00\x00\x00\x00\x00\x00\x00'
p994
tp995
Rp996
ag2
(g22
S'o\x12\x83\xc0\xca\x99l@'
p997
tp998
Rp999
aF0.726
aF0.421
aF0.351
aF0.000895
aF-10.497
aF0.0298
aF146.163
aF0.068
aa(lp1000
g2
(g3
(S'S11'
p1001
I0
I1
tp1002
Rp1003
(I3
S'|'
p1004
NNNI11
I1
I0
tp1005
bS'Breaking In'
p1006
tp1007
Rp1008
ag2
(g3
(S'S17'
p1009
I0
I1
tp1010
Rp1011
(I3
S'|'
p1012
NNNI17
I1
I0
tp1013
bS'Alexandre Desplat'
p1014
tp1015
Rp1016
ag2
(g22
S'\x99F\xab\xb0\x9d\x83\xe3?'
p1017
tp1018
Rp1019
ag2
(g22
S'\x9a\xb4\xee\xb9\xa3\xee\xe1?'
p1020
tp1021
Rp1022
ag2
(g22
S'\xf47\xa1\x10\x01!f@'
p1023
tp1024
Rp1025
ag2
(g22
S'\x9e\xef\xa7\xc6K7\x1a@'
p1026
tp1027
Rp1028
ag2
(g22
S'\x19\x04V\x0e-Zd@'
p1029
tp1030
Rp1031
aF0.659
aF0.569
aF0.263
aF0.875
aF-20.227
aF0.0408
aF92.038
aF0.036
aa(lp1032
g2
(g3
(S'S13'
p1033
I0
I1
tp1034
Rp1035
(I3
S'|'
p1036
NNNI13
I1
I0
tp1037
bS'The Dark Road'
p1038
tp1039
Rp1040
ag2
(g3
(S'S12'
p1041
I0
I1
tp1042
Rp1043
(I3
S'|'
p1044
NNNI12
I1
I0
tp1045
bS'White Willow'
p1046
tp1047
Rp1048
ag2
(g22
S'\xb1]M\x17\x85\x82\xe0?'
p1049
tp1050
Rp1051
ag2
(g22
S'\xb1>@\x86a8\xd5?'
p1052
tp1053
Rp1054
ag2
(g22
S'\x8c\xb9k\ty\x14p@'
p1055
tp1056
Rp1057
ag2
(g22
S'\xf2\xd2Mb\x10X\x00@'
p1058
tp1059
Rp1060
ag2
(g22
S'\xa6\x9b\xc4 \xb0\xd2n@'
p1061
tp1062
Rp1063
aF0.108
aF0.515
aF0.504
aF0.000127
aF-6.936
aF0.0277
aF112.959
aF0.143
aa(lp1064
g2
(g3
(S'S15'
p1065
I0
I1
tp1066
Rp1067
(I3
S'|'
p1068
NNNI15
I1
I0
tp1069
bS'Nude With Boots'
p1070
tp1071
Rp1072
ag2
(g3
(S'S7'
p1073
I0
I1
tp1074
Rp1075
(I3
S'|'
p1076
NNNI7
I1
I0
tp1077
bS'Melvins'
p1078
tp1079
Rp1080
ag2
(g22
S'\x1b\xc3,6AC\xe7?'
p1081
tp1082
Rp1083
ag2
(g22
S'_\xe1\xc4uH=\xdd?'
p1084
tp1085
Rp1086
ag2
(g22
S'\xb7zNz\xdf9k@'
p1087
tp1088
Rp1089
ag2
(g22
S'\x00\x00\x00\x00\x00\x00\x00\x00'
p1090
tp1091
Rp1092
ag2
(g22
S'\xa8\xc6K7\x89%h@'
p1093
tp1094
Rp1095
aF0.000576
aF0.469
aF0.716
aF0.0755
aF-7.43
aF0.0639
aF113.83
aF0.665
aa(lp1096
g2
(g3
(S'S25'
p1097
I0
I1
tp1098
Rp1099
(I3
S'|'
p1100
NNNI25
I1
I0
tp1101
bS'Here The Sun Never Shines'
p1102
tp1103
Rp1104
ag2
(g3
(S'S16'
p1105
I0
I1
tp1106
Rp1107
(I3
S'|'
p1108
NNNI16
I1
I0
tp1109
bS'The Funeral Pyre'
p1110
tp1111
Rp1112
ag2
(g22
S'\xd3h\xefS\xc5(\xe2?'
p1113
tp1114
Rp1115
ag2
(g22
S'\xfd\xd8\xe0y\xcc\x13\xd5?'
p1116
tp1117
Rp1118
ag2
(g22
S',\xf1\x80\xb2\xa9\xf3p@'
p1119
tp1120
Rp1121
ag2
(g22
S'\x00\x00\x00\x00\x00\x00\x00\x00'
p1122
tp1123
Rp1124
ag2
(g22
S'\x1dZd;\xdfOp@'
p1125
tp1126
Rp1127
aF1.58e-06
aF0.198
aF0.995
aF0.744
aF-5.821
aF0.162
aF112.198
aF0.0544
aa(lp1128
g2
(g3
(S'S27'
p1129
I0
I1
tp1130
Rp1131
(I3
S'|'
p1132
NNNI27
I1
I0
tp1133
bS'Waltzing Matilda My Darling'
p1134
tp1135
Rp1136
ag2
(g3
(S'S11'
p1137
I0
I1
tp1138
Rp1139
(I3
S'|'
p1140
NNNI11
I1
I0
tp1141
bS'Maria Forde'
p1142
tp1143
Rp1144
ag2
(g22
S'm\xde+\xaf4a\xd7?'
p1145
tp1146
Rp1147
ag2
(g22
S'\x99\xb9\xcd\xe3-v\xd0?'
p1148
tp1149
Rp1150
ag2
(g22
S'X\xc5\x1b\x99\xc7\\t@'
p1151
tp1152
Rp1153
ag2
(g22
S'R\xb8\x1e\x85\xebQ\x01@'
p1154
tp1155
Rp1156
ag2
(g22
S'\x81\x95C\x8bl\xdbr@'
p1157
tp1158
Rp1159
aF0.645
aF0.653
aF0.295
aF3.14e-06
aF-15.497
aF0.0295
aF119.264
aF0.355
aa(lp1160
g2
(g3
(S'S11'
p1161
I0
I1
tp1162
Rp1163
(I3
S'|'
p1164
NNNI11
I1
I0
tp1165
bS'Better Days'
p1166
tp1167
Rp1168
ag2
(g3
(S'S11'
p1169
I0
I1
tp1170
Rp1171
(I3
S'|'
p1172
NNNI11
I1
I0
tp1173
bS'Colin James'
p1174
tp1175
Rp1176
ag2
(g22
S'o\xb0\xed\xd7L\xc4\xe0?'
p1177
tp1178
Rp1179
ag2
(g22
S'\x01\xd1\n\x8f,7\xdc?'
p1180
tp1181
Rp1182
ag2
(g22
S'\xb3^\x0c\xe5\xc4\x81q@'
p1183
tp1184
Rp1185
ag2
(g22
S'\x1f\x85\xebQ\xb8\x1e\xc5?'
p1186
tp1187
Rp1188
ag2
(g22
S'\xe1z\x14\xaeG\xc1p@'
p1189
tp1190
Rp1191
aF0.338
aF0.678
aF0.499
aF6.38e-05
aF-8.661
aF0.0465
aF154.479
aF0.87
aa(lp1192
g2
(g3
(S'S15'
p1193
I0
I1
tp1194
Rp1195
(I3
S'|'
p1196
NNNI15
I1
I0
tp1197
bS'Crushing Belial'
p1198
tp1199
Rp1200
ag2
(g3
(S'S12'
p1201
I0
I1
tp1202
Rp1203
(I3
S'|'
p1204
NNNI12
I1
I0
tp1205
bS'Shadows Fall'
p1206
tp1207
Rp1208
ag2
(g22
S'\xd6*?\xf5Hx\xe7?'
p1209
tp1210
Rp1211
ag2
(g22
S"\xcb?\x9f\x15\xe0'\xdd?"
p1212
tp1213
Rp1214
ag2
(g22
S'z\xfc\xde\xa6\xbfRt@'
p1215
tp1216
Rp1217
ag2
(g22
S'\x00\x00\x00\x00\x00\x00\x00\x00'
p1218
tp1219
Rp1220
ag2
(g22
S'\x06\x81\x95C\x8b*t@'
p1221
tp1222
Rp1223
aF0.000517
aF0.291
aF0.88
aF0.0169
aF-7.783
aF0.054
aF97.103
aF0.331
aa(lp1224
g2
(g3
(S'S9'
p1225
I0
I1
tp1226
Rp1227
(I3
S'|'
p1228
NNNI9
I1
I0
tp1229
bS'Apologize'
p1230
tp1231
Rp1232
ag2
(g3
(S'S8'
p1233
I0
I1
tp1234
Rp1235
(I3
S'|'
p1236
NNNI8
I1
I0
tp1237
bS'DJ Nasty'
p1238
tp1239
Rp1240
ag2
(g22
S'\xf1JU\xc4\xbd\xa2\xe2?'
p1241
tp1242
Rp1243
ag2
(g22
S'\x07\xd1\x90\xb2\xfba\xd3?'
p1244
tp1245
Rp1246
ag2
(g22
S'\xc3\r\xf8\xfc0\xe4l@'
p1247
tp1248
Rp1249
ag2
(g22
S'\x00\x00\x00\x00\x00\x00\x00\x00'
p1250
tp1251
Rp1252
ag2
(g22
S'+\x87\x16\xd9\xce\x83l@'
p1253
tp1254
Rp1255
aF0.00568
aF0.766
aF0.924
aF0.000986
aF-3.574
aF0.051
aF130.002
aF0.791
aa(lp1256
g2
(g3
(S'S12'
p1257
I0
I1
tp1258
Rp1259
(I3
S'|'
p1260
NNNI12
I1
I0
tp1261
bS'Silver Bells'
p1262
tp1263
Rp1264
ag2
(g3
(S'S10'
p1265
I0
I1
tp1266
Rp1267
(I3
S'|'
p1268
NNNI10
I1
I0
tp1269
bS'John Davis'
p1270
tp1271
Rp1272
ag2
(g22
S'+\x85\x05\x9a4t\xe1?'
p1273
tp1274
Rp1275
ag2
(g22
S'\x01\x0f\xe1\x08\x05\xcf\xd8?'
p1276
tp1277
Rp1278
ag2
(g22
S'\x1eP6\xe5\n\xeah@'
p1279
tp1280
Rp1281
ag2
(g22
S'\x0e-\xb2\x9d\xef\xa7\xde?'
p1282
tp1283
Rp1284
ag2
(g22
S'\x19\x04V\x0e-\xe6g@'
p1285
tp1286
Rp1287
aF0.713
aF0.376
aF0.449
aF0.979
aF-9.891
aF0.0299
aF178.008
aF0.38
aa(lp1288
g2
(g3
(S'S9'
p1289
I0
I1
tp1290
Rp1291
(I3
S'|'
p1292
NNNI9
I1
I0
tp1293
bS'Lost Love'
p1294
tp1295
Rp1296
ag2
(g3
(S'S14'
p1297
I0
I1
tp1298
Rp1299
(I3
S'|'
p1300
NNNI14
I1
I0
tp1301
bS'Barry Goldberg'
p1302
tp1303
Rp1304
ag2
(g22
S'\xe6&\xe3\xec~\x1b\xd5?'
p1305
tp1306
Rp1307
ag2
(g22
S"\x8b\x18W'\x80e\xce?"
p1308
tp1309
Rp1310
ag2
(g22
S'>\xb3$@\xcd\x99p@'
p1311
tp1312
Rp1313
ag2
(g22
S'q=\n\xd7\xa3p\xcd?'
p1314
tp1315
Rp1316
ag2
(g22
S')\\\x8f\xc2\xf5,p@'
p1317
tp1318
Rp1319
aF0.174
aF0.142
aF0.685
aF0.0335
aF-4.265
aF0.0371
aF96.607
aF0.381
aa(lp1320
g2
(g3
(S'S11'
p1321
I0
I1
tp1322
Rp1323
(I3
S'|'
p1324
NNNI11
I1
I0
tp1325
bS"An M'agapas"
p1326
tp1327
Rp1328
ag2
(g3
(S'S20'
p1329
I0
I1
tp1330
Rp1331
(I3
S'|'
p1332
NNNI20
I1
I0
tp1333
bS'Konstantinos Galanos'
p1334
tp1335
Rp1336
ag2
(g22
S'< \x9bKZ*\xd1?'
p1337
tp1338
Rp1339
ag2
(g22
S'\x1d\xf9-\xa7Z\xcf\xd0?'
p1340
tp1341
Rp1342
ag2
(g22
S'X\xa85\xcd;Pl@'
p1343
tp1344
Rp1345
ag2
(g22
S'H\xe1z\x14\xaeG\xd1?'
p1346
tp1347
Rp1348
ag2
(g22
S'\xe3\xa5\x9b\xc4 4k@'
p1349
tp1350
Rp1351
aF0.436
aF0.638
aF0.65
aI0
aF-4.758
aF0.0308
aF113.019
aF0.726
aa(lp1352
g2
(g3
(S'S15'
p1353
I0
I1
tp1354
Rp1355
(I3
S'|'
p1356
NNNI15
I1
I0
tp1357
bS'Just Like Darts'
p1358
tp1359
Rp1360
ag2
(g3
(S'S13'
p1361
I0
I1
tp1362
Rp1363
(I3
S'|'
p1364
NNNI13
I1
I0
tp1365
bS'The Real Kids'
p1366
tp1367
Rp1368
ag2
(g22
S'\xb3\x8d"3}\x08\xdf?'
p1369
tp1370
Rp1371
ag2
(g22
S'Q-\xc2\xaea\x12\xd6?'
p1372
tp1373
Rp1374
ag2
(g22
S'\xfbt<f |p@'
p1375
tp1376
Rp1377
ag2
(g22
S'\xfa~j\xbct\x93\xb8?'
p1378
tp1379
Rp1380
ag2
(g22
S'\xb6\xf3\xfd\xd4x\tp@'
p1381
tp1382
Rp1383
aF0.000422
aF0.382
aF0.439
aF0.562
aF-17.319
aF0.0247
aF97.696
aF0.607
aa(lp1384
g2
(g3
(S'S12'
p1385
I0
I1
tp1386
Rp1387
(I3
S'|'
p1388
NNNI12
I1
I0
tp1389
bS'Kun rakastaa'
p1390
tp1391
Rp1392
ag2
(g3
(S'S8'
p1393
I0
I1
tp1394
Rp1395
(I3
S'|'
p1396
NNNI8
I1
I0
tp1397
bS'Frederik'
p1398
tp1399
Rp1400
ag2
(g22
S'\xfdr^;\xad\x96\xde?'
p1401
tp1402
Rp1403
ag2
(g22
S"=\x03\xa8\x99'I\xd6?"
p1404
tp1405
Rp1406
ag2
(g22
S's\x80`\x8e\x1e|f@'
p1407
tp1408
Rp1409
ag2
(g22
S')\\\x8f\xc2\xf5(\x00@'
p1410
tp1411
Rp1412
ag2
(g22
S'B`\xe5\xd0"\x17d@'
p1413
tp1414
Rp1415
aF0.605
aF0.33
aF0.776
aI0
aF-9.096
aF0.0808
aF174.728
aF0.782
aa(lp1416
g2
(g3
(S'S22'
p1417
I0
I1
tp1418
Rp1419
(I3
S'|'
p1420
NNNI22
I1
I0
tp1421
bS'Espoirs Perdus (Valse)'
p1422
tp1423
Rp1424
ag2
(g3
(S'S9'
p1425
I0
I1
tp1426
Rp1427
(I3
S'|'
p1428
NNNI9
I1
I0
tp1429
bS'Jo Privat'
p1430
tp1431
Rp1432
ag2
(g22
S'\xfb\x08\xbfX\x95\r\xd9?'
p1433
tp1434
Rp1435
ag2
(g22
S'\x12\xa2V\xfb\xce\x88\xd4?'
p1436
tp1437
Rp1438
ag2
(g22
S'\x8d]\xa2zk\x8cd@'
p1439
tp1440
Rp1441
ag2
(g22
S'Nb\x10X9\xb4\xd8?'
p1442
tp1443
Rp1444
ag2
(g22
S'\x10X9\xb4\xc8\x0ed@'
p1445
tp1446
Rp1447
aF0.343
aF0.604
aF0.394
aF0.816
aF-9.931
aF0.0747
aF196.785
aF0.923
aa(lp1448
g2
(g3
(S'S23'
p1449
I0
I1
tp1450
Rp1451
(I3
S'|'
p1452
NNNI23
I1
I0
tp1453
bS'The Song of the Riddles'
p1454
tp1455
Rp1456
ag2
(g3
(S'S13'
p1457
I0
I1
tp1458
Rp1459
(I3
S'|'
p1460
NNNI13
I1
I0
tp1461
bS'Willie Clancy'
p1462
tp1463
Rp1464
ag2
(g22
S'\x82\x01\xa9p\xbe(\xd6?'
p1465
tp1466
Rp1467
ag2
(g22
S'E\xbeN\xef\x8f:\xd2?'
p1468
tp1469
Rp1470
ag2
(g22
S'C9\xd1\xaeB\xb7k@'
p1471
tp1472
Rp1473
ag2
(g22
S'\x17\xd9\xce\xf7S\xe3\xe1?'
p1474
tp1475
Rp1476
ag2
(g22
S'\xe3\xa5\x9b\xc4 \xf8j@'
p1477
tp1478
Rp1479
aF0.955
aF0.649
aF0.0564
aI0
aF-18.081
aF0.503
aF64.432
aF0.559
aa(lp1480
g2
(g3
(S'S14'
p1481
I0
I1
tp1482
Rp1483
(I3
S'|'
p1484
NNNI14
I1
I0
tp1485
bS'Imaginary Love'
p1486
tp1487
Rp1488
ag2
(g3
(S'S8'
p1489
I0
I1
tp1490
Rp1491
(I3
S'|'
p1492
NNNI8
I1
I0
tp1493
bS'Mae West'
p1494
tp1495
Rp1496
ag2
(g22
S'\xe0\xc4\x85\xad\x9c\xed\xdd?'
p1497
tp1498
Rp1499
ag2
(g22
S'\xb8Z#\xfa\xf2\x96\xd4?'
p1500
tp1501
Rp1502
ag2
(g22
S'\xdbm\x17\x9a\xeb\xcfe@'
p1503
tp1504
Rp1505
ag2
(g22
S'\x00\x00\x00\x00\x00\x00\x00\x00'
p1506
tp1507
Rp1508
ag2
(g22
S'\xee|?5^\x96d@'
p1509
tp1510
Rp1511
aF0.991
aF0.409
aF0.119
aF0.133
aF-13.088
aF0.0433
aF80.768
aF0.311
aa(lp1512
g2
(g3
(S'S7'
p1513
I0
I1
tp1514
Rp1515
(I3
S'|'
p1516
NNNI7
I1
I0
tp1517
bS'Release'
p1518
tp1519
Rp1520
ag2
(g3
(S'S4'
p1521
I0
I1
tp1522
Rp1523
(I3
S'|'
p1524
NNNI4
I1
I0
tp1525
bS'LORE'
p1526
tp1527
Rp1528
ag2
(g22
S'\x85\x89j\xdemX\xe0?'
p1529
tp1530
Rp1531
ag2
(g22
S'\x8d\xea\xfe\xdeb9\xd9?'
p1532
tp1533
Rp1534
ag2
(g22
S'Qf\x83L\xb2\x92r@'
p1535
tp1536
Rp1537
ag2
(g22
S'\x00\x00\x00\x00\x00\x00\x00\x00'
p1538
tp1539
Rp1540
ag2
(g22
S'q=\n\xd7\xa3`r@'
p1541
tp1542
Rp1543
aF0.495
aF0.479
aF0.413
aF0.0048
aF-9.442
aF0.055
aF126.18
aF0.479
aa(lp1544
g2
(g3
(S'S16'
p1545
I0
I1
tp1546
Rp1547
(I3
S'|'
p1548
NNNI16
I1
I0
tp1549
bS'Where You Belong'
p1550
tp1551
Rp1552
ag2
(g3
(S'S20'
p1553
I0
I1
tp1554
Rp1555
(I3
S'|'
p1556
NNNI20
I1
I0
tp1557
bS'The Summer Obsession'
p1558
tp1559
Rp1560
ag2
(g22
S'\xa2\x16\xff&\xcbM\xe4?'
p1561
tp1562
Rp1563
ag2
(g22
S'\x04\xca3\x8b\x8cH\xd9?'
p1564
tp1565
Rp1566
ag2
(g22
S'\xfe\xf1^\xb5\xb2\xa0q@'
p1567
tp1568
Rp1569
ag2
(g22
S'\x00\x00\x00\x00\x00\x00\x00\x00'
p1570
tp1571
Rp1572
ag2
(g22
S'\xfc\xa9\xf1\xd2M\xe0p@'
p1573
tp1574
Rp1575
aF0.16
aF0.589
aF0.481
aF0.443
aF-6.833
aF0.0302
aF159.801
aF0.15
aa(lp1576
g2
(g3
(S'S15'
p1577
I0
I1
tp1578
Rp1579
(I3
S'|'
p1580
NNNI15
I1
I0
tp1581
bS'When Your Ready'
p1582
tp1583
Rp1584
ag2
(g3
(S'S7'
p1585
I0
I1
tp1586
Rp1587
(I3
S'|'
p1588
NNNI7
I1
I0
tp1589
bS'Dabbler'
p1590
tp1591
Rp1592
ag2
(g22
S'~\xe37\xdf\xa4\xf5\xdc?'
p1593
tp1594
Rp1595
ag2
(g22
S'\x00\x00\x00\x00\x00\x00\x00\x00'
p1596
tp1597
Rp1598
ag2
(g22
S"g'\x83\xa3\xe4\xa9s@"
p1599
tp1600
Rp1601
ag2
(g22
S'+\x87\x16\xd9\xce\xf7\xb3?'
p1602
tp1603
Rp1604
ag2
(g22
S'\xd7\xa3p=\n[s@'
p1605
tp1606
Rp1607
aF0.000146
aF0.762
aF0.88
aF0.915
aF-6.215
aF0.0696
aF129.997
aF0.949
aa(lp1608
g2
(g3
(S'S17'
p1609
I0
I1
tp1610
Rp1611
(I3
S'|'
p1612
NNNI17
I1
I0
tp1613
bS'American Lovebite'
p1614
tp1615
Rp1616
ag2
(g3
(S'S4'
p1617
I0
I1
tp1618
Rp1619
(I3
S'|'
p1620
NNNI4
I1
I0
tp1621
bS'Dons'
p1622
tp1623
Rp1624
ag2
(g22
S'\x16\x84%t\xafq\xe1?'
p1625
tp1626
Rp1627
ag2
(g22
S'\x1ci\xd4\xb2\x94\xfa\xd3?'
p1628
tp1629
Rp1630
ag2
(g22
S'\xadL\xf8\xa5~\x10i@'
p1631
tp1632
Rp1633
ag2
(g22
S'\xf8S\xe3\xa5\x9b\x04"@'
p1634
tp1635
Rp1636
ag2
(g22
S'}?5^\xbaig@'
p1637
tp1638
Rp1639
aF0.058
aF0.539
aF0.812
aI0
aF-8.35
aF0.033
aF132.044
aF0.533
aa(lp1640
g2
(g3
(S'S14'
p1641
I0
I1
tp1642
Rp1643
(I3
S'|'
p1644
NNNI14
I1
I0
tp1645
bS'We Three Kings'
p1646
tp1647
Rp1648
ag2
(g3
(S'S10'
p1649
I0
I1
tp1650
Rp1651
(I3
S'|'
p1652
NNNI10
I1
I0
tp1653
bS'The Roches'
p1654
tp1655
Rp1656
ag2
(g22
S'\rh@\xe7\xf9Z\xe2?'
p1657
tp1658
Rp1659
ag2
(g22
S'\x1f1\xfd\xba\xf6\xd2\xd7?'
p1660
tp1661
Rp1662
ag2
(g22
S'\xa4SW>K\x97t@'
p1663
tp1664
Rp1665
ag2
(g22
S'\x8f\xc2\xf5(\\\x8f\xe6?'
p1666
tp1667
Rp1668
ag2
(g22
S'\x9e\xef\xa7\xc6K\xabs@'
p1669
tp1670
Rp1671
aF0.346
aF0.49
aF0.426
aF0.000784
aF-13.129
aF0.0284
aF134.951
aF0.409
aa(lp1672
g2
(g3
(S'S16'
p1673
I0
I1
tp1674
Rp1675
(I3
S'|'
p1676
NNNI16
I1
I0
tp1677
bS'Sleepy Man Blues'
p1678
tp1679
Rp1680
ag2
(g3
(S'S11'
p1681
I0
I1
tp1682
Rp1683
(I3
S'|'
p1684
NNNI11
I1
I0
tp1685
bS'Bukka White'
p1686
tp1687
Rp1688
ag2
(g22
S'`6\x9ew\xaeQ\xe2?'
p1689
tp1690
Rp1691
ag2
(g22
S'\xc1R\x85\x08\xce*\xdb?'
p1692
tp1693
Rp1694
ag2
(g22
S'l\x95`q8\xe0c@'
p1695
tp1696
Rp1697
ag2
(g22
S'\x06\x81\x95C\x8bl\xf7?'
p1698
tp1699
Rp1700
ag2
(g22
S'\x0e-\xb2\x9d\xefwc@'
p1701
tp1702
Rp1703
aF0.98
aF0.647
aF0.215
aF1.19e-06
aF-12.24
aF0.0391
aF87.579
aF0.689
aa(lp1704
g2
(g3
(S'S16'
p1705
I0
I1
tp1706
Rp1707
(I3
S'|'
p1708
NNNI16
I1
I0
tp1709
bS'I Go to the Rock'
p1710
tp1711
Rp1712
ag2
(g3
(S'S10'
p1713
I0
I1
tp1714
Rp1715
(I3
S'|'
p1716
NNNI10
I1
I0
tp1717
bS'The Rambos'
p1718
tp1719
Rp1720
ag2
(g22
S'\xd3;\xff\xac%-\xdb?'
p1721
tp1722
Rp1723
ag2
(g22
S'\xb13\xdd\x1b,$\xd0?'
p1724
tp1725
Rp1726
ag2
(g22
S'\x14?\xc6\xdc\xb5Hl@'
p1727
tp1728
Rp1729
ag2
(g22
S'\xf0\xa7\xc6K7\x89\x00@'
p1730
tp1731
Rp1732
ag2
(g22
S'u\x93\x18\x04V\x12k@'
p1733
tp1734
Rp1735
aF0.769
aF0.512
aF0.545
aI0
aF-10.719
aF0.0959
aF127.589
aF0.421
aa(lp1736
g2
(g3
(S'S25'
p1737
I0
I1
tp1738
Rp1739
(I3
S'|'
p1740
NNNI25
I1
I0
tp1741
bS'The End. [Live In Mexico]'
p1742
tp1743
Rp1744
ag2
(g3
(S'S19'
p1745
I0
I1
tp1746
Rp1747
(I3
S'|'
p1748
NNNI19
I1
I0
tp1749
bS'My Chemical Romance'
p1750
tp1751
Rp1752
ag2
(g22
S'\xc2\xc1$S\xff\xac\xeb?'
p1753
tp1754
Rp1755
ag2
(g22
S'\xe0\xb2\r)\xb2\x83\xe8?'
p1756
tp1757
Rp1758
ag2
(g22
S'\xf0\x85\xc9T\xc1Ic@'
p1759
tp1760
Rp1761
ag2
(g22
S"\x0e-\xb2\x9d\xef'\x14@"
p1762
tp1763
Rp1764
ag2
(g22
S'\xf6(\\\x8f\xc2Ic@'
p1765
tp1766
Rp1767
aF0.0693
aF0.204
aF0.906
aF1.85e-05
aF-9.925
aF0.373
aF178.226
aF0.187
aa(lp1768
g2
(g3
(S'S6'
p1769
I0
I1
tp1770
Rp1771
(I3
S'|'
p1772
NNNI6
I1
I0
tp1773
bS'Magali'
p1774
tp1775
Rp1776
ag2
(g3
(S'S12'
p1777
I0
I1
tp1778
Rp1779
(I3
S'|'
p1780
NNNI12
I1
I0
tp1781
bS'Gloria Lasso'
p1782
tp1783
Rp1784
ag2
(g22
S'\xc0\x02\xa4w\x1df\xd8?'
p1785
tp1786
Rp1787
ag2
(g22
S'\x86\x9c\x0f\x05\xedL\xd3?'
p1788
tp1789
Rp1790
ag2
(g22
S'1\xd3\xf6\xaf\xac\x14i@'
p1791
tp1792
Rp1793
ag2
(g22
S'Nb\x10X9\xb4\xd8?'
p1794
tp1795
Rp1796
ag2
(g22
S'\xbct\x93\x18\x04\x82h@'
p1797
tp1798
Rp1799
aF0.64
aF0.629
aF0.315
aI0
aF-9.209
aF0.104
aF94.851
aF0.435
aa(lp1800
g2
(g3
(S'S17'
p1801
I0
I1
tp1802
Rp1803
(I3
S'|'
p1804
NNNI17
I1
I0
tp1805
bS'The Story Goes On'
p1806
tp1807
Rp1808
ag2
(g3
(S'S11'
p1809
I0
I1
tp1810
Rp1811
(I3
S'|'
p1812
NNNI11
I1
I0
tp1813
bS'The Steeles'
p1814
tp1815
Rp1816
ag2
(g22
S'tz\xb5Dg\xff\xdb?'
p1817
tp1818
Rp1819
ag2
(g22
S'{\xe5r\x1c\xa91\xd6?'
p1820
tp1821
Rp1822
ag2
(g22
S'\xfd\x13\\\xac\xa8Pp@'
p1823
tp1824
Rp1825
ag2
(g22
S'\x85\xebQ\xb8\x1e\x85\xcb?'
p1826
tp1827
Rp1828
ag2
(g22
S'\xac\x1cZd;\xdbo@'
p1829
tp1830
Rp1831
aF0.354
aF0.436
aF0.303
aI0
aF-10.219
aF0.0298
aF72.58
aF0.242
aa(lp1832
g2
(g3
(S'S16'
p1833
I0
I1
tp1834
Rp1835
(I3
S'|'
p1836
NNNI16
I1
I0
tp1837
bS'Main Street Eyes'
p1838
tp1839
Rp1840
ag2
(g3
(S'S8'
p1841
I0
I1
tp1842
Rp1843
(I3
S'|'
p1844
NNNI8
I1
I0
tp1845
bS'Iggy Pop'
p1846
tp1847
Rp1848
ag2
(g22
S'\x04\x85\x84\xb3\xa3?\xe9?'
p1849
tp1850
Rp1851
ag2
(g22
S'\x13\xbb\xdb\x0e\x8fZ\xe2?'
p1852
tp1853
Rp1854
ag2
(g22
S'\x9e^)\xcb\x10\xaek@'
p1855
tp1856
Rp1857
ag2
(g22
S'\x00\x00\x00\x00\x00\x00\x00\x00'
p1858
tp1859
Rp1860
ag2
(g22
S'T\xe3\xa5\x9b\xc4\x04k@'
p1861
tp1862
Rp1863
aF0.064
aF0.674
aF0.512
aF6.77e-06
aF-11.754
aF0.0283
aF131.983
aF0.731
aa(lp1864
g2
(g3
(S'S14'
p1865
I0
I1
tp1866
Rp1867
(I3
S'|'
p1868
NNNI14
I1
I0
tp1869
bS'Tu Mejor Amigo'
p1870
tp1871
Rp1872
ag2
(g3
(S'S13'
p1873
I0
I1
tp1874
Rp1875
(I3
S'|'
p1876
NNNI13
I1
I0
tp1877
bS'David Summers'
p1878
tp1879
Rp1880
ag2
(g22
S'2\xc5c\xd0\xe5-\xe0?'
p1881
tp1882
Rp1883
ag2
(g22
S'\x00j\xbc\x1a> \xd6?'
p1884
tp1885
Rp1886
ag2
(g22
S'\xe6tYLl\xa8j@'
p1887
tp1888
Rp1889
ag2
(g22
S'\x00\x00\x00\x00\x00\x00\x00\x00'
p1890
tp1891
Rp1892
ag2
(g22
S'/\xdd$\x06\x81\xbdg@'
p1893
tp1894
Rp1895
aF0.102
aF0.58
aF0.903
aF1.33e-06
aF-3.004
aF0.0316
aF142.424
aF0.794
aa(lp1896
g2
(g3
(S'S22'
p1897
I0
I1
tp1898
Rp1899
(I3
S'|'
p1900
NNNI22
I1
I0
tp1901
bS"Can't Make You Love Me"
p1902
tp1903
Rp1904
ag2
(g3
(S'S14'
p1905
I0
I1
tp1906
Rp1907
(I3
S'|'
p1908
NNNI14
I1
I0
tp1909
bS'Britney Spears'
p1910
tp1911
Rp1912
ag2
(g22
S'\x0e&s\xc6\x81P\xee?'
p1913
tp1914
Rp1915
ag2
(g22
S'^f\xac\r\x863\xe4?'
p1916
tp1917
Rp1918
ag2
(g22
S'\xb6\xbeHh\xcb\x99h@'
p1919
tp1920
Rp1921
ag2
(g22
S'\x9a\x99\x99\x99\x99\x99\xd1?'
p1922
tp1923
Rp1924
ag2
(g22
S'\x04V\x0e-\xb2%h@'
p1925
tp1926
Rp1927
aF0.119
aF0.81
aF0.924
aF8.73e-05
aF-4.02
aF0.0356
aF108.016
aF0.868
aa(lp1928
g2
(g3
(S'S55'
p1929
I0
I1
tp1930
Rp1931
(I3
S'|'
p1932
NNNI55
I1
I0
tp1933
bS"So Danco Samba (Jazz 'N' Samba) (1997 Digital Remaster)"
p1934
tp1935
Rp1936
ag2
(g3
(S'S12'
p1937
I0
I1
tp1938
Rp1939
(I3
S'|'
p1940
NNNI12
I1
I0
tp1941
bS'Wanda De Sah'
p1942
tp1943
Rp1944
ag2
(g22
S'\x00\x00\x00\x00\x00\x00\x00\x00'
p1945
tp1946
Rp1947
ag2
(g22
S'#a\xbdY\xa7\xf8\xd2?'
p1948
tp1949
Rp1950
ag2
(g22
S'"\x89^F\xb1\xae`@'
p1951
tp1952
Rp1953
ag2
(g22
S'\x00\x00\x00\x00\x00\x00\x00\x00'
p1954
tp1955
Rp1956
ag2
(g22
S'\xb0rh\x91\xed4`@'
p1957
tp1958
Rp1959
aF0.596
aF0.591
aF0.366
aI0
aF-15.714
aF0.0506
aF91.515
aF0.935
aa(lp1960
g2
(g3
(S'S10'
p1961
I0
I1
tp1962
Rp1963
(I3
S'|'
p1964
NNNI10
I1
I0
tp1965
bS'Misty Blue'
p1966
tp1967
Rp1968
ag2
(g3
(S'S16'
p1969
I0
I1
tp1970
Rp1971
(I3
S'|'
p1972
NNNI16
I1
I0
tp1973
bS'Billie Jo Spears'
p1974
tp1975
Rp1976
ag2
(g22
S'>(\xc72E\xc2\xe0?'
p1977
tp1978
Rp1979
ag2
(g22
S's\xd6\xd2\xcew\x9d\xd8?'
p1980
tp1981
Rp1982
ag2
(g22
S'\x0c\x1f\x11S"\xfac@'
p1983
tp1984
Rp1985
ag2
(g22
S'\xcd\xcc\xcc\xcc\xcc\xcc\xdc?'
p1986
tp1987
Rp1988
ag2
(g22
S'D\x8bl\xe7\xfb\xf1b@'
p1989
tp1990
Rp1991
aF0.854
aF0.284
aF0.198
aF0.000107
aF-15.652
aF0.0343
aF95.157
aF0.308
aa(lp1992
g2
(g3
(S'S12'
p1993
I0
I1
tp1994
Rp1995
(I3
S'|'
p1996
NNNI12
I1
I0
tp1997
bS'East to West'
p1998
tp1999
Rp2000
ag2
(g3
(S'S18'
p2001
I0
I1
tp2002
Rp2003
(I3
S'|'
p2004
NNNI18
I1
I0
tp2005
bS'Starski and Clutch'
p2006
tp2007
Rp2008
ag2
(g22
S'\x1c\x8e\xbf\xe7\x91<\xd9?'
p2009
tp2010
Rp2011
ag2
(g22
S'\xd1ts\xa8\x80.\xd0?'
p2012
tp2013
Rp2014
ag2
(g22
S'\x18!<\xda8/r@'
p2015
tp2016
Rp2017
ag2
(g22
S'\x00\x00\x00\x00\x00\x00\x00\x00'
p2018
tp2019
Rp2020
ag2
(g22
S'\xcd\xcc\xcc\xcc\xcc\xdeq@'
p2021
tp2022
Rp2023
aF0.0143
aF0.742
aF0.984
aF0.777
aF-6.557
aF0.0579
aF151.929
aF0.532
aa(lp2024
g2
(g3
(S'S42'
p2025
I0
I1
tp2026
Rp2027
(I3
S'|'
p2028
NNNI42
I1
I0
tp2029
bS"Nothing's The Same (2002 Digital Remaster)"
p2030
tp2031
Rp2032
ag2
(g3
(S'S10'
p2033
I0
I1
tp2034
Rp2035
(I3
S'|'
p2036
NNNI10
I1
I0
tp2037
bS'Gary Moore'
p2038
tp2039
Rp2040
ag2
(g22
S'<\x19QW\x14]\xe8?'
p2041
tp2042
Rp2043
ag2
(g22
S'\xde,\xd2\x0f$\xe5\xdd?'
p2044
tp2045
Rp2046
ag2
(g22
S'\xa2zk`\xab+s@'
p2047
tp2048
Rp2049
ag2
(g22
S'\x00\x00\x00\x00\x00\x00\x00\x00'
p2050
tp2051
Rp2052
ag2
(g22
S'\xbct\x93\x18\x04\xf2q@'
p2053
tp2054
Rp2055
aF0.699
aF0.207
aF0.201
aF0.279
aF-17.184
aF0.0304
aF168.194
aF0.0787
aa(lp2056
g2
(g3
(S'S8'
p2057
I0
I1
tp2058
Rp2059
(I3
S'|'
p2060
NNNI8
I1
I0
tp2061
bS'Facedown'
p2062
tp2063
Rp2064
ag2
(g3
(S'S11'
p2065
I0
I1
tp2066
Rp2067
(I3
S'|'
p2068
NNNI11
I1
I0
tp2069
bS'Matt Redman'
p2070
tp2071
Rp2072
ag2
(g22
S'C\xe3\xe3Hj\xca\xe7?'
p2073
tp2074
Rp2075
ag2
(g22
S'2@\xb3\x98F\x9d\xe0?'
p2076
tp2077
Rp2078
ag2
(g22
S'\xd5\xcf\x9b\x8a\xd4\x0eu@'
p2079
tp2080
Rp2081
ag2
(g22
S'\xc7K7\x89A`\xc5?'
p2082
tp2083
Rp2084
ag2
(g22
S'\xfc\xa9\xf1\xd2M\xdct@'
p2085
tp2086
Rp2087
aF0.378
aF0.364
aF0.421
aI0
aF-7.716
aF0.0269
aF156.027
aF0.173
aa(lp2088
g2
(g3
(S'S14'
p2089
I0
I1
tp2090
Rp2091
(I3
S'|'
p2092
NNNI14
I1
I0
tp2093
bS"I'm A Tomorrow"
p2094
tp2095
Rp2096
ag2
(g3
(S'S5'
p2097
I0
I1
tp2098
Rp2099
(I3
S'|'
p2100
NNNI5
I1
I0
tp2101
bS'Ec8or'
p2102
tp2103
Rp2104
ag2
(g22
S'\x83\xeb\xa1Lc!\xe0?'
p2105
tp2106
Rp2107
ag2
(g22
S'\x05c\xec(\xb7i\xd5?'
p2108
tp2109
Rp2110
ag2
(g22
S'\xa5\xa0\xdbK\x1a\xe7^@'
p2111
tp2112
Rp2113
ag2
(g22
S'\xd5x\xe9&1\x08\xdc?'
p2114
tp2115
Rp2116
ag2
(g22
S'\xb2\x9d\xef\xa7\xc6\x03^@'
p2117
tp2118
Rp2119
aF2.85e-05
aF0.376
aF0.983
aF0.95
aF-4.846
aF0.106
aF99.98
aF0.0373
aa(lp2120
g2
(g3
(S'S50'
p2121
I0
I1
tp2122
Rp2123
(I3
S'|'
p2124
NNNI50
I1
I0
tp2125
bS'I Believe In You (More Than A Story Album Version)'
p2126
tp2127
Rp2128
ag2
(g3
(S'S7'
p2129
I0
I1
tp2130
Rp2131
(I3
S'|'
p2132
NNNI7
I1
I0
tp2133
bS'Go Fish'
p2134
tp2135
Rp2136
ag2
(g22
S'#\xd5Q\x973\x82\xdf?'
p2137
tp2138
Rp2139
ag2
(g22
S'o^\x8e%\xa0O\xd6?'
p2140
tp2141
Rp2142
ag2
(g22
S'\xbfHh\xcb\xb9\x8eu@'
p2143
tp2144
Rp2145
ag2
(g22
S'+\x87\x16\xd9\xce\xf7\xb3?'
p2146
tp2147
Rp2148
ag2
(g22
S';\xdfO\x8d\x97Vs@'
p2149
tp2150
Rp2151
aF0.0858
aF0.671
aF0.329
aI0
aF-10.027
aF0.0388
aF115.953
aF0.39
aa(lp2152
g2
(g3
(S'S17'
p2153
I0
I1
tp2154
Rp2155
(I3
S'|'
p2156
NNNI17
I1
I0
tp2157
bS'She Will Be Loved'
p2158
tp2159
Rp2160
ag2
(g3
(S'S8'
p2161
I0
I1
tp2162
Rp2163
(I3
S'|'
p2164
NNNI8
I1
I0
tp2165
bS'Maroon 5'
p2166
tp2167
Rp2168
ag2
(g22
S'\xea\x1c\x84\xe7\xaa\xf9\xec?'
p2169
tp2170
Rp2171
ag2
(g22
S'q\x89\x18\xa1\xf8\xfc\xea?'
p2172
tp2173
Rp2174
ag2
(g22
S'fI\x80\x9a\xdaYp@'
p2175
tp2176
Rp2177
ag2
(g22
S'\x00\x00\x00\x00\x00\x00\x00\x00'
p2178
tp2179
Rp2180
ag2
(g22
S'\x1b/\xdd$\x06Ao@'
p2181
tp2182
Rp2183
aF0.0593
aF0.695
aF0.684
aI0
aF-5.403
aF0.0288
aF102.041
aF0.515
aa(lp2184
g2
(g3
(S'S8'
p2185
I0
I1
tp2186
Rp2187
(I3
S'|'
p2188
NNNI8
I1
I0
tp2189
bS'Valkyria'
p2190
tp2191
Rp2192
ag2
(g3
(S'S9'
p2193
I0
I1
tp2194
Rp2195
(I3
S'|'
p2196
NNNI9
I1
I0
tp2197
bS'YGGDRASIL'
p2198
tp2199
Rp2200
ag2
(g22
S'\xe2x\xdb\x9bJ\xb4\xe0?'
p2201
tp2202
Rp2203
ag2
(g22
S'B\xc5\x7f\xf8\xda6\xd6?'
p2204
tp2205
Rp2206
ag2
(g22
S'.\x1c\x08\xc9\x02Yn@'
p2207
tp2208
Rp2209
ag2
(g22
S'\x00\x00\x00\x00\x00\x00\x00\x00'
p2210
tp2211
Rp2212
ag2
(g22
S'\x96C\x8bl\xe7gm@'
p2213
tp2214
Rp2215
aF3.65e-06
aF0.186
aF0.901
aF0.887
aF-4.099
aF0.0675
aF164.976
aF0.0791
aa(lp2216
g2
(g3
(S'S13'
p2217
I0
I1
tp2218
Rp2219
(I3
S'|'
p2220
NNNI13
I1
I0
tp2221
bS"Side Steppin'"
p2222
tp2223
Rp2224
ag2
(g3
(S'S10'
p2225
I0
I1
tp2226
Rp2227
(I3
S'|'
p2228
NNNI10
I1
I0
tp2229
bS'Paul Brown'
p2230
tp2231
Rp2232
ag2
(g22
S'_(\x18\xf1\x89R\xe0?'
p2233
tp2234
Rp2235
ag2
(g22
S'\xae#h\xfb\x89p\xd9?'
p2236
tp2237
Rp2238
ag2
(g22
S'\xba\xda\x8a\xfde\xd6j@'
p2239
tp2240
Rp2241
ag2
(g22
S'\x00\x00\x00\x00\x00\x00\x00\x00'
p2242
tp2243
Rp2244
ag2
(g22
S'\x14\xaeG\xe1z\\i@'
p2245
tp2246
Rp2247
aF0.182
aF0.85
aF0.669
aF0.0749
aF-8.575
aF0.0322
aF113.996
aF0.872
aa(lp2248
g2
(g3
(S'S23'
p2249
I0
I1
tp2250
Rp2251
(I3
S'|'
p2252
NNNI23
I1
I0
tp2253
bS"I Don't Wanna be A Star"
p2254
tp2255
Rp2256
ag2
(g3
(S'S6'
p2257
I0
I1
tp2258
Rp2259
(I3
S'|'
p2260
NNNI6
I1
I0
tp2261
bS'Corona'
p2262
tp2263
Rp2264
ag2
(g22
S'Vf\x00\xd2?Y\xe3?'
p2265
tp2266
Rp2267
ag2
(g22
S'$3\xb4\xfc\xf6\x86\xd9?'
p2268
tp2269
Rp2270
ag2
(g22
S'\x9b\xe6\x1d\xa7\xe8mn@'
p2271
tp2272
Rp2273
ag2
(g22
S'H\xe1z\x14\xaeG\x0e@'
p2274
tp2275
Rp2276
ag2
(g22
S'\x14\xaeG\xe1z\xe0l@'
p2277
tp2278
Rp2279
aF0.0554
aF0.639
aF0.591
aF0.0145
aF-10.552
aF0.0325
aF132.015
aF0.427
aa(lp2280
g2
(g3
(S'S11'
p2281
I0
I1
tp2282
Rp2283
(I3
S'|'
p2284
NNNI11
I1
I0
tp2285
bS'Senegal Son'
p2286
tp2287
Rp2288
ag2
(g3
(S'S12'
p2289
I0
I1
tp2290
Rp2291
(I3
S'|'
p2292
NNNI12
I1
I0
tp2293
bS'Renee Rosnes'
p2294
tp2295
Rp2296
ag2
(g22
S'\xe3S\xd4\xee\xae\x0b\xdc?'
p2297
tp2298
Rp2299
ag2
(g22
S'G#G\xe0\x19\xcd\xd4?'
p2300
tp2301
Rp2302
ag2
(g22
S'+\xfb\xae\x08~\xbcv@'
p2303
tp2304
Rp2305
ag2
(g22
S'J\x0c\x02+\x87\x16\xd9?'
p2306
tp2307
Rp2308
ag2
(g22
S';\xdfO\x8d\x97bv@'
p2309
tp2310
Rp2311
aF0.643
aF0.53
aF0.395
aF0.802
aF-13.773
aF0.0491
aF104.659
aF0.388
aa(lp2312
g2
(g3
(S'S9'
p2313
I0
I1
tp2314
Rp2315
(I3
S'|'
p2316
NNNI9
I1
I0
tp2317
bS'Manzenera'
p2318
tp2319
Rp2320
ag2
(g3
(S'S8'
p2321
I0
I1
tp2322
Rp2323
(I3
S'|'
p2324
NNNI8
I1
I0
tp2325
bS'Adam Ant'
p2326
tp2327
Rp2328
ag2
(g22
S'\xc1^\xa4\x92\x17,\xe4?'
p2329
tp2330
Rp2331
ag2
(g22
S'p\xe2\x92\x8e\x1f\x12\xdd?'
p2332
tp2333
Rp2334
ag2
(g22
S'\x11\x8d\xee vqi@'
p2335
tp2336
Rp2337
ag2
(g22
S'+\x87\x16\xd9\xce\xf7\xb3?'
p2338
tp2339
Rp2340
ag2
(g22
S'\xac\x1cZd;Sh@'
p2341
tp2342
Rp2343
aF0.311
aF0.657
aF0.655
aF0.789
aF-10.155
aF0.058
aF136.169
aF0.506
aa(lp2344
g2
(g3
(S'S14'
p2345
I0
I1
tp2346
Rp2347
(I3
S'|'
p2348
NNNI14
I1
I0
tp2349
bS'Dinosaur Bones'
p2350
tp2351
Rp2352
ag2
(g3
(S'S9'
p2353
I0
I1
tp2354
Rp2355
(I3
S'|'
p2356
NNNI9
I1
I0
tp2357
bS'Showbread'
p2358
tp2359
Rp2360
ag2
(g22
S'}\nSa\x17[\xe6?'
p2361
tp2362
Rp2363
ag2
(g22
S'\x9bDg\xbd\xef~\xe1?'
p2364
tp2365
Rp2366
ag2
(g22
S'\xba\xa0\xbeeN\x80p@'
p2367
tp2368
Rp2369
ag2
(g22
S'\x00\x00\x00\x00\x00\x00\x00\x00'
p2370
tp2371
Rp2372
ag2
(g22
S'\x8f\xc2\xf5(\\\x19p@'
p2373
tp2374
Rp2375
aF0.00821
aF0.684
aF0.97
aF4.26e-05
aF-4.699
aF0.123
aF112.713
aF0.507
aa(lp2376
g2
(g3
(S'S19'
p2377
I0
I1
tp2378
Rp2379
(I3
S'|'
p2380
NNNI19
I1
I0
tp2381
bS'Lost In Translation'
p2382
tp2383
Rp2384
ag2
(g3
(S'S11'
p2385
I0
I1
tp2386
Rp2387
(I3
S'|'
p2388
NNNI11
I1
I0
tp2389
bS'Pitch Black'
p2390
tp2391
Rp2392
ag2
(g22
S'\xec\\0\xef}\xbb\xe2?'
p2393
tp2394
Rp2395
ag2
(g22
S'\x7f\x86\x08\xc7&}\xdb?'
p2396
tp2397
Rp2398
ag2
(g22
S'\x12\x83\xc0\xca\xa1\xe9x@'
p2399
tp2400
Rp2401
ag2
(g22
S'7\x89A`\xe5\xd0\xc2?'
p2402
tp2403
Rp2404
ag2
(g22
S'\xaa\xf1\xd2Mbpx@'
p2405
tp2406
Rp2407
aF0.083
aF0.777
aF0.48
aF0.775
aF-13.326
aF0.0448
aF100.005
aF0.535
aa(lp2408
g2
(g3
(S'S42'
p2409
I0
I1
tp2410
Rp2411
(I3
S'|'
p2412
NNNI42
I1
I0
tp2413
bS'I Wanna Sing (Autobiography Album Version)'
p2414
tp2415
Rp2416
ag2
(g3
(S'S15'
p2417
I0
I1
tp2418
Rp2419
(I3
S'|'
p2420
NNNI15
I1
I0
tp2421
bS'Scott Krippayne'
p2422
tp2423
Rp2424
ag2
(g22
S'>H\xe0\x88(\xd3\xe1?'
p2425
tp2426
Rp2427
ag2
(g22
S'5qP\xd2\xe6\x7f\xd4?'
p2428
tp2429
Rp2430
ag2
(g22
S'U\xfbt<f]m@'
p2431
tp2432
Rp2433
ag2
(g22
S'9\xb4\xc8v\xbe\x9f\xda?'
p2434
tp2435
Rp2436
ag2
(g22
S'\xc7K7\x89A\x98k@'
p2437
tp2438
Rp2439
aF0.00178
aF0.683
aF0.501
aI0
aF-7.492
aF0.0301
aF122.144
aF0.326
aa(lp2440
g2
(g3
(S'S18'
p2441
I0
I1
tp2442
Rp2443
(I3
S'|'
p2444
NNNI18
I1
I0
tp2445
bS'Cunoasterea Tacuta'
p2446
tp2447
Rp2448
ag2
(g3
(S'S13'
p2449
I0
I1
tp2450
Rp2451
(I3
S'|'
p2452
NNNI13
I1
I0
tp2453
bS'Negura Bunget'
p2454
tp2455
Rp2456
ag2
(g22
S'\x0fZ\x9b#\xf33\xe3?'
p2457
tp2458
Rp2459
ag2
(g22
S'I\xef\x82\xb7\x11t\xde?'
p2460
tp2461
Rp2462
ag2
(g22
S'\x8d\xd1:\xaa\x9a\xfbz@'
p2463
tp2464
Rp2465
ag2
(g22
S'\x06\x81\x95C\x8bl\xdf?'
p2466
tp2467
Rp2468
ag2
(g22
S'\xee|?5^\x94z@'
p2469
tp2470
Rp2471
aF0.00116
aF0.292
aF0.83
aF0.752
aF-3.617
aF0.0436
aF130.46
aF0.126
aa(lp2472
g2
(g3
(S'S17'
p2473
I0
I1
tp2474
Rp2475
(I3
S'|'
p2476
NNNI17
I1
I0
tp2477
bS'The Child Deirdre'
p2478
tp2479
Rp2480
ag2
(g3
(S'S26'
p2481
I0
I1
tp2482
Rp2483
(I3
S'|'
p2484
NNNI26
I1
I0
tp2485
bS'Mychael Danna & Jeff Danna'
p2486
tp2487
Rp2488
ag2
(g22
S'\x01\xb1|\xea\xabJ\xdb?'
p2489
tp2490
Rp2491
ag2
(g22
S'AU\x11\xa1A}\xd5?'
p2492
tp2493
Rp2494
ag2
(g22
S'\x90\x83\x12f\xda\x91n@'
p2495
tp2496
Rp2497
ag2
(g22
S'\x12\x83\xc0\xca\xa1E\xde?'
p2498
tp2499
Rp2500
ag2
(g22
S'^\xbaI\x0c\x02\x1bm@'
p2501
tp2502
Rp2503
aF0.975
aF0.173
aF0.129
aF0.964
aF-20.377
aF0.042
aF62.98
aF0.0339
aa(lp2504
g2
(g3
(S'S12'
p2505
I0
I1
tp2506
Rp2507
(I3
S'|'
p2508
NNNI12
I1
I0
tp2509
bS'Locaccmaccam'
p2510
tp2511
Rp2512
ag2
(g3
(S'S12'
p2513
I0
I1
tp2514
Rp2515
(I3
S'|'
p2516
NNNI12
I1
I0
tp2517
bS'Marc Perrone'
p2518
tp2519
Rp2520
ag2
(g22
S'\x91\x11\xcd\xe0W1\xdd?'
p2521
tp2522
Rp2523
ag2
(g22
S'\xf14\xcc\x9c G\xd2?'
p2524
tp2525
Rp2526
ag2
(g22
S'\xca\xe0(yu\xdca@'
p2527
tp2528
Rp2529
ag2
(g22
S"'1\x08\xac\x1cZ\xdc?"
p2530
tp2531
Rp2532
ag2
(g22
S'\xfc\xa9\xf1\xd2M\xe2_@'
p2533
tp2534
Rp2535
aF0.711
aF0.695
aF0.444
aF0.983
aF-16.613
aF0.0433
aF103.927
aF0.846
aa(lp2536
g2
(g3
(S'S16'
p2537
I0
I1
tp2538
Rp2539
(I3
S'|'
p2540
NNNI16
I1
I0
tp2541
bS'Too Many Choices'
p2542
tp2543
Rp2544
ag2
(g3
(S'S7'
p2545
I0
I1
tp2546
Rp2547
(I3
S'|'
p2548
NNNI7
I1
I0
tp2549
bS'Bad Azz'
p2550
tp2551
Rp2552
ag2
(g22
S'n\x16\xdf\xbcl\xaa\xe1?'
p2553
tp2554
Rp2555
ag2
(g22
S'\xd6uF\xd8\x1b\xd9\xd5?'
p2556
tp2557
Rp2558
ag2
(g22
S'\xec4\xd2R\xf9\xdeq@'
p2559
tp2560
Rp2561
ag2
(g22
S'\x00\x00\x00\x00\x00\x00\x00\x00'
p2562
tp2563
Rp2564
ag2
(g22
S'\xc3\xf5(\\\x8fhq@'
p2565
tp2566
Rp2567
aF0.0708
aF0.751
aF0.743
aF3.1e-06
aF-6.928
aF0.103
aF96.017
aF0.452
aa(lp2568
g2
(g3
(S'S11'
p2569
I0
I1
tp2570
Rp2571
(I3
S'|'
p2572
NNNI11
I1
I0
tp2573
bS'Byal ravnec'
p2574
tp2575
Rp2576
ag2
(g3
(S'S10'
p2577
I0
I1
tp2578
Rp2579
(I3
S'|'
p2580
NNNI10
I1
I0
tp2581
bS'Lot Lorien'
p2582
tp2583
Rp2584
ag2
(g22
S'\x1b\xbf\x9a\xcd\xa2\x88\xdb?'
p2585
tp2586
Rp2587
ag2
(g22
S'K\xfbPcIP\xd6?'
p2588
tp2589
Rp2590
ag2
(g22
S'y\x1e\xdc\x9d\xb5\x02w@'
p2591
tp2592
Rp2593
ag2
(g22
S'\x93\x18\x04V\x0e-\xda?'
p2594
tp2595
Rp2596
ag2
(g22
S'\xe9&1\x08\xac\xf6u@'
p2597
tp2598
Rp2599
aF0.534
aF0.334
aF0.599
aF0.328
aF-7.875
aF0.0329
aF163.011
aF0.398
aa(lp2600
g2
(g3
(S'S16'
p2601
I0
I1
tp2602
Rp2603
(I3
S'|'
p2604
NNNI16
I1
I0
tp2605
bS"I'm On Your Tail"
p2606
tp2607
Rp2608
ag2
(g3
(S'S12'
p2609
I0
I1
tp2610
Rp2611
(I3
S'|'
p2612
NNNI12
I1
I0
tp2613
bS'Paul Carrack'
p2614
tp2615
Rp2616
ag2
(g22
S'YI[Tg\xee\xe2?'
p2617
tp2618
Rp2619
ag2
(g22
S'\xcf\xdb\x1bk$\x08\xd8?'
p2620
tp2621
Rp2622
ag2
(g22
S'\x1c\x99G\xfe`ow@'
p2623
tp2624
Rp2625
ag2
(g22
S'J\x0c\x02+\x87\x16\x11@'
p2626
tp2627
Rp2628
ag2
(g22
S'\xfe\xd4x\xe9&\x9fv@'
p2629
tp2630
Rp2631
aF0.0759
aF0.671
aF0.702
aF0.000166
aF-12.231
aF0.0309
aF99.952
aF0.763
aa(lp2632
g2
(g3
(S'S17'
p2633
I0
I1
tp2634
Rp2635
(I3
S'|'
p2636
NNNI17
I1
I0
tp2637
bS"You'll Never Find"
p2638
tp2639
Rp2640
ag2
(g3
(S'S15'
p2641
I0
I1
tp2642
Rp2643
(I3
S'|'
p2644
NNNI15
I1
I0
tp2645
bS'The Impressions'
p2646
tp2647
Rp2648
ag2
(g22
S'\xd2&7\xd8XC\xe4?'
p2649
tp2650
Rp2651
ag2
(g22
S'\xd8V\x98W~A\xda?'
p2652
tp2653
Rp2654
ag2
(g22
S'\xc2\xddY\xbbm\x9aq@'
p2655
tp2656
Rp2657
ag2
(g22
S'\x00\x00\x00\x00\x00\x00\x00\x00'
p2658
tp2659
Rp2660
ag2
(g22
S'\x0c\x02+\x87\x16\x8dp@'
p2661
tp2662
Rp2663
aF0.223
aF0.747
aF0.836
aI0
aF-11.825
aF0.0453
aF122.432
aF0.777
aa(lp2664
g2
(g3
(S'S17'
p2665
I0
I1
tp2666
Rp2667
(I3
S'|'
p2668
NNNI17
I1
I0
tp2669
bS'2 Late 4 Goodbyes'
p2670
tp2671
Rp2672
ag2
(g3
(S'S15'
p2673
I0
I1
tp2674
Rp2675
(I3
S'|'
p2676
NNNI15
I1
I0
tp2677
bS'Jeff Scott Soto'
p2678
tp2679
Rp2680
ag2
(g22
S'\x1eV\x1a\xe7\xefe\xe3?'
p2681
tp2682
Rp2683
ag2
(g22
S'\xd9\xdf\xd5\xc6\xed\x11\xda?'
p2684
tp2685
Rp2686
ag2
(g22
S'\x8c\xd6Q\xd5\x04\xe0r@'
p2687
tp2688
Rp2689
ag2
(g22
S'7\x89A`\xe5\xd0\x1b@'
p2690
tp2691
Rp2692
ag2
(g22
S'X9\xb4\xc8v\x8aq@'
p2693
tp2694
Rp2695
aF0.0026
aF0.427
aF0.872
aI0
aF-4.724
aF0.0507
aF124.658
aF0.373
aa(lp2696
g2
(g3
(S'S14'
p2697
I0
I1
tp2698
Rp2699
(I3
S'|'
p2700
NNNI14
I1
I0
tp2701
bS'Ask The Angels'
p2702
tp2703
Rp2704
ag2
(g3
(S'S14'
p2705
I0
I1
tp2706
Rp2707
(I3
S'|'
p2708
NNNI14
I1
I0
tp2709
bS'The Distillers'
p2710
tp2711
Rp2712
ag2
(g22
S'0\x9e\xd4\xb4~\xcb\xe5?'
p2713
tp2714
Rp2715
ag2
(g22
S'\xa0\x01a\x06-D\xdf?'
p2716
tp2717
Rp2718
ag2
(g22
S'\x0b$(~\x8c\xdeg@'
p2719
tp2720
Rp2721
ag2
(g22
S'\x00\x00\x00\x00\x00\x00\x00\x00'
p2722
tp2723
Rp2724
ag2
(g22
S'\x0c\x02+\x87\x16uf@'
p2725
tp2726
Rp2727
aF0.119
aF0.306
aF0.928
aF2.2e-05
aF-3.134
aF0.0546
aF141.283
aF0.468
aa(lp2728
g2
(g3
(S'S21'
p2729
I0
I1
tp2730
Rp2731
(I3
S'|'
p2732
NNNI21
I1
I0
tp2733
bS'Harmony Of The Forest'
p2734
tp2735
Rp2736
ag2
(g3
(S'S6'
p2737
I0
I1
tp2738
Rp2739
(I3
S'|'
p2740
NNNI6
I1
I0
tp2741
bS'Kitaro'
p2742
tp2743
Rp2744
ag2
(g22
S'\xae\xbf\xa9\x9b\xf8`\xe5?'
p2745
tp2746
Rp2747
ag2
(g22
S'\xce\r:\x83\x9af\xdd?'
p2748
tp2749
Rp2750
ag2
(g22
S'\x19\xc5rK+\xe8w@'
p2751
tp2752
Rp2753
ag2
(g22
S'\x83\xc0\xca\xa1E\xb6\x04@'
p2754
tp2755
Rp2756
ag2
(g22
S'J\x0c\x02+\x87\x9eu@'
p2757
tp2758
Rp2759
aF0.588
aF0.435
aF0.35
aF0.102
aF-15.103
aF0.0324
aF98.595
aF0.241
aa(lp2760
g2
(g3
(S'S34'
p2761
I0
I1
tp2762
Rp2763
(I3
S'|'
p2764
NNNI34
I1
I0
tp2765
bS'It Took A Good Woman [Edited Demo]'
p2766
tp2767
Rp2768
ag2
(g3
(S'S8'
p2769
I0
I1
tp2770
Rp2771
(I3
S'|'
p2772
NNNI8
I1
I0
tp2773
bS'Tiny Tim'
p2774
tp2775
Rp2776
ag2
(g22
S'\x15\xf1Qj\xeb\xfd\xe2?'
p2777
tp2778
Rp2779
ag2
(g22
S'\xbc\xf9\x87\x83\xd6\xe9\xd9?'
p2780
tp2781
Rp2782
ag2
(g22
S'\xe4\xf76\xfd\xd9\x83a@'
p2783
tp2784
Rp2785
ag2
(g22
S'\x06\x81\x95C\x8bl\xc7?'
p2786
tp2787
Rp2788
ag2
(g22
S'\x02+\x87\x16\xd9\x0ea@'
p2789
tp2790
Rp2791
aF0.959
aF0.506
aF0.149
aI0
aF-14.97
aF0.0967
aF88.869
aF0.47
aa(lp2792
g2
(g3
(S'S5'
p2793
I0
I1
tp2794
Rp2795
(I3
S'|'
p2796
NNNI5
I1
I0
tp2797
bS'Still'
p2798
tp2799
Rp2800
ag2
(g3
(S'S14'
p2801
I0
I1
tp2802
Rp2803
(I3
S'|'
p2804
NNNI14
I1
I0
tp2805
bS'Jennifer Lopez'
p2806
tp2807
Rp2808
ag2
(g22
S'\x8c\xbc>\xc1\\\x11\xec?'
p2809
tp2810
Rp2811
ag2
(g22
S'@\xb2\xe4\x19\xff\xf2\xe1?'
p2812
tp2813
Rp2814
ag2
(g22
S'du\xab\xe7\xa4\x91k@'
p2815
tp2816
Rp2817
ag2
(g22
S'\x81\x95C\x8bl\xe7\xd3?'
p2818
tp2819
Rp2820
ag2
(g22
S'X9\xb4\xc8v\xbai@'
p2821
tp2822
Rp2823
aF0.0513
aF0.737
aF0.674
aF0.000947
aF-5.196
aF0.0352
aF95.691
aF0.393
aa(lp2824
g2
(g3
(S'S9'
p2825
I0
I1
tp2826
Rp2827
(I3
S'|'
p2828
NNNI9
I1
I0
tp2829
bS'Stick Out'
p2830
tp2831
Rp2832
ag2
(g3
(S'S11'
p2833
I0
I1
tp2834
Rp2835
(I3
S'|'
p2836
NNNI11
I1
I0
tp2837
bS'Melt Banana'
p2838
tp2839
Rp2840
ag2
(g22
S'51\xcby\xbbt\xe4?'
p2841
tp2842
Rp2843
ag2
(g22
S'J\xc6\xb1\xeb\x17}\xda?'
p2844
tp2845
Rp2846
ag2
(g22
S'\x07B\xb2\x80\t,E@'
p2847
tp2848
Rp2849
ag2
(g22
S'\x98n\x12\x83\xc0\xca\xd9?'
p2850
tp2851
Rp2852
ag2
(g22
S'\xac\x1cZd;\xafC@'
p2853
tp2854
Rp2855
aF0.000994
aF0.406
aF0.957
aF0.0254
aF-6.364
aF0.177
aF163.021
aF0.364
aa(lp2856
g2
(g3
(S'S13'
p2857
I0
I1
tp2858
Rp2859
(I3
S'|'
p2860
NNNI13
I1
I0
tp2861
bS'House Of Pain'
p2862
tp2863
Rp2864
ag2
(g3
(S'S9'
p2865
I0
I1
tp2866
Rp2867
(I3
S'|'
p2868
NNNI9
I1
I0
tp2869
bS'Van Halen'
p2870
tp2871
Rp2872
ag2
(g22
S'B\x16\xd1\xe0\x19\xd4\xe7?'
p2873
tp2874
Rp2875
ag2
(g22
S'YL\xf2\rE\x8f\xe2?'
p2876
tp2877
Rp2878
ag2
(g22
S'\x8a\x1fc\xeeZ\xe3h@'
p2879
tp2880
Rp2881
ag2
(g22
S'u\x93\x18\x04V\x0e\xd5?'
p2882
tp2883
Rp2884
ag2
(g22
S'y\xe9&1\x08\xbcf@'
p2885
tp2886
Rp2887
aF0.000713
aF0.321
aF0.974
aF0.0713
aF-4.826
aF0.0788
aF99.609
aF0.65
aa(lp2888
g2
(g3
(S'S17'
p2889
I0
I1
tp2890
Rp2891
(I3
S'|'
p2892
NNNI17
I1
I0
tp2893
bS'The Carrying Arms'
p2894
tp2895
Rp2896
ag2
(g3
(S'S11'
p2897
I0
I1
tp2898
Rp2899
(I3
S'|'
p2900
NNNI11
I1
I0
tp2901
bS'The Antlers'
p2902
tp2903
Rp2904
ag2
(g22
S'\xa6\x9c\x82\xe5\xd8=\xe7?'
p2905
tp2906
Rp2907
ag2
(g22
S'\xdc\x92\xbflt\xe2\xdd?'
p2908
tp2909
Rp2910
ag2
(g22
S'\xd3Mb\x10X\xffZ@'
p2911
tp2912
Rp2913
ag2
(g22
S'\x00\x00\x00\x00\x00\x00\x00\x00'
p2914
tp2915
Rp2916
ag2
(g22
S'o\x12\x83\xc0\xca\tY@'
p2917
tp2918
Rp2919
aF0.837
aF0.473
aF0.251
aF0.000217
aF-19.664
aF0.0734
aF150.06
aF0.42
aa(lp2920
g2
(g3
(S'S41'
p2921
I0
I1
tp2922
Rp2923
(I3
S'|'
p2924
NNNI41
I1
I0
tp2925
bS'Medley: Safe To The Rock / Hiding In Thee'
p2926
tp2927
Rp2928
ag2
(g3
(S'S18'
p2929
I0
I1
tp2930
Rp2931
(I3
S'|'
p2932
NNNI18
I1
I0
tp2933
bS'George Hamilton IV'
p2934
tp2935
Rp2936
ag2
(g22
S'\x9aJF\x947\xcf\xde?'
p2937
tp2938
Rp2939
ag2
(g22
S'\x9fw^\x16\xfc\x9d\xd4?'
p2940
tp2941
Rp2942
ag2
(g22
S'c\xb9\xa5\xd5\x902t@'
p2943
tp2944
Rp2945
ag2
(g22
S'\x1dZd;\xdfO\xcd?'
p2946
tp2947
Rp2948
ag2
(g22
S'\xe7\xfb\xa9\xf1\xd2\xbbs@'
p2949
tp2950
Rp2951
aF0.964
aF0.365
aF0.24
aF0.22
aF-15.351
aF0.034
aF90.004
aF0.202
aa(lp2952
g2
(g3
(S'S13'
p2953
I0
I1
tp2954
Rp2955
(I3
S'|'
p2956
NNNI13
I1
I0
tp2957
bS'We Blame Love'
p2958
tp2959
Rp2960
ag2
(g3
(S'S9'
p2961
I0
I1
tp2962
Rp2963
(I3
S'|'
p2964
NNNI9
I1
I0
tp2965
bS'Heaven 17'
p2966
tp2967
Rp2968
ag2
(g22
S'\x9a\xeb\x021\x910\xe4?'
p2969
tp2970
Rp2971
ag2
(g22
S'\x10\x07\x17v,\x8a\xdd?'
p2972
tp2973
Rp2974
ag2
(g22
S'\xf2^\xb52a\xf6q@'
p2975
tp2976
Rp2977
ag2
(g22
S'\x1f\x85\xebQ\xb8\x1e\xc5?'
p2978
tp2979
Rp2980
ag2
(g22
S'\xbe\x9f\x1a/\xdd\xb6q@'
p2981
tp2982
Rp2983
aF0.231
aF0.559
aF0.902
aI0
aF-7.997
aF0.395
aF132.927
aF0.223
aa(lp2984
g2
(g3
(S'S13'
p2985
I0
I1
tp2986
Rp2987
(I3
S'|'
p2988
NNNI13
I1
I0
tp2989
bS'I got A Woman'
p2990
tp2991
Rp2992
ag2
(g3
(S'S10'
p2993
I0
I1
tp2994
Rp2995
(I3
S'|'
p2996
NNNI10
I1
I0
tp2997
bS'Eddie Boyd'
p2998
tp2999
Rp3000
ag2
(g22
S'[d\xcd\xbf\x00\x00\xdd?'
p3001
tp3002
Rp3003
ag2
(g22
S'\x14L\x94\t\xb9\\\xd6?'
p3004
tp3005
Rp3006
ag2
(g22
S'\xe9e\x14\xcb-<r@'
p3007
tp3008
Rp3009
ag2
(g22
S'#\xdb\xf9~j\xbc\xd4?'
p3010
tp3011
Rp3012
ag2
(g22
S'\xac\x1cZd;\xefq@'
p3013
tp3014
Rp3015
aF0.984
aF0.645
aF0.3
aF0.692
aF-13.911
aF0.105
aF73.602
aF0.597
aa(lp3016
g2
(g3
(S'S18'
p3017
I0
I1
tp3018
Rp3019
(I3
S'|'
p3020
NNNI18
I1
I0
tp3021
bS"Jam-Master Jammin'"
p3022
tp3023
Rp3024
ag2
(g3
(S'S7'
p3025
I0
I1
tp3026
Rp3027
(I3
S'|'
p3028
NNNI7
I1
I0
tp3029
bS'RUN-DMC'
p3030
tp3031
Rp3032
ag2
(g22
S'\x13\x11\x9bB\xd0\xfb\xe5?'
p3033
tp3034
Rp3035
ag2
(g22
S'E8\xce\xa2\x83i\xe3?'
p3036
tp3037
Rp3038
ag2
(g22
S'3\xfe}\xc6\x85?p@'
p3039
tp3040
Rp3041
ag2
(g22
S'\x91\xed|?5^\xca?'
p3042
tp3043
Rp3044
ag2
(g22
S'\x06\x81\x95C\x8b\xc4o@'
p3045
tp3046
Rp3047
aF0.0243
aF0.943
aF0.839
aF6.45e-06
aF-4.842
aF0.106
aF99.844
aF0.388
aa(lp3048
g2
(g3
(S'S19'
p3049
I0
I1
tp3050
Rp3051
(I3
S'|'
p3052
NNNI19
I1
I0
tp3053
bS'The Moon Was Yellow'
p3054
tp3055
Rp3056
ag2
(g3
(S'S11'
p3057
I0
I1
tp3058
Rp3059
(I3
S'|'
p3060
NNNI11
I1
I0
tp3061
bS'Russ Morgan'
p3062
tp3063
Rp3064
ag2
(g22
S'\x83\x9aC\xdf6\x1a\xda?'
p3065
tp3066
Rp3067
ag2
(g22
S'\x02f\x89\xb1\xf1!\xd3?'
p3068
tp3069
Rp3070
ag2
(g22
S'*\xe3\xdfg\\\x94j@'
p3071
tp3072
Rp3073
ag2
(g22
S'\x10X9\xb4\xc8v\xbe?'
p3074
tp3075
Rp3076
ag2
(g22
S'\xfe\xd4x\xe9&9j@'
p3077
tp3078
Rp3079
aF0.935
aF0.458
aF0.267
aF0.885
aF-13.055
aF0.032
aF86.751
aF0.602
aa(lp3080
g2
(g3
(S'S11'
p3081
I0
I1
tp3082
Rp3083
(I3
S'|'
p3084
NNNI11
I1
I0
tp3085
bS'Boda de Oro'
p3086
tp3087
Rp3088
ag2
(g3
(S'S16'
p3089
I0
I1
tp3090
Rp3091
(I3
S'|'
p3092
NNNI16
I1
I0
tp3093
bS'Orquesta America'
p3094
tp3095
Rp3096
ag2
(g22
S'\xc7\xecr,R>\xd9?'
p3097
tp3098
Rp3099
ag2
(g22
S'\x0b\xd8.\x0e\xf6+\xd3?'
p3100
tp3101
Rp3102
ag2
(g22
S'!\xea>\x00)\x1bv@'
p3103
tp3104
Rp3105
ag2
(g22
S'%\x06\x81\x95C\x8b\xd4?'
p3106
tp3107
Rp3108
ag2
(g22
S'\xcb\xa1E\xb6\xf3\xbfu@'
p3109
tp3110
Rp3111
aF0.794
aF0.539
aF0.319
aF0.0878
aF-9.762
aF0.0349
aF110.452
aF0.361
aa(lp3112
g2
(g3
(S'S6'
p3113
I0
I1
tp3114
Rp3115
(I3
S'|'
p3116
NNNI6
I1
I0
tp3117
bS'Minner'
p3118
tp3119
Rp3120
ag2
(g3
(S'S18'
p3121
I0
I1
tp3122
Rp3123
(I3
S'|'
p3124
NNNI18
I1
I0
tp3125
bS'Mons Leidvin Takle'
p3126
tp3127
Rp3128
ag2
(g22
S"Fa='\x85a\xcc?"
p3129
tp3130
Rp3131
ag2
(g22
S'\xdb<\xa2\xac\xe0\x12\xd2?'
p3132
tp3133
Rp3134
ag2
(g22
S'uv28J\xf4q@'
p3135
tp3136
Rp3137
ag2
(g22
S'\x98n\x12\x83\xc0\xca\xe1?'
p3138
tp3139
Rp3140
ag2
(g22
S'q=\n\xd7\xa3Rq@'
p3141
tp3142
Rp3143
aF0.587
aF0.258
aF0.194
aF0.735
aF-15.97
aF0.034
aF135.621
aF0.135
aa(lp3144
g2
(g3
(S'S17'
p3145
I0
I1
tp3146
Rp3147
(I3
S'|'
p3148
NNNI17
I1
I0
tp3149
bS"Janie's Got A Gun"
p3150
tp3151
Rp3152
ag2
(g3
(S'S9'
p3153
I0
I1
tp3154
Rp3155
(I3
S'|'
p3156
NNNI9
I1
I0
tp3157
bS'Aerosmith'
p3158
tp3159
Rp3160
ag2
(g22
S'\xdd/{\xdf\xd1\xeb\xeb?'
p3161
tp3162
Rp3163
ag2
(g22
S'\xd4\xefy\xb5\x1c\x8b\xe3?'
p3164
tp3165
Rp3166
ag2
(g22
S'\x0bc\x0bA\x0e\x9bt@'
p3167
tp3168
Rp3169
ag2
(g22
S'\x10X9\xb4\xc8v\xd6?'
p3170
tp3171
Rp3172
ag2
(g22
S'\x1dZd;\xdf_s@'
p3173
tp3174
Rp3175
aF0.0557
aF0.632
aF0.822
aF0.000485
aF-5.737
aF0.0281
aF115.113
aF0.434
aa(lp3176
g2
(g3
(S'S16'
p3177
I0
I1
tp3178
Rp3179
(I3
S'|'
p3180
NNNI16
I1
I0
tp3181
bS'Talking To Trees'
p3182
tp3183
Rp3184
ag2
(g3
(S'S15'
p3185
I0
I1
tp3186
Rp3187
(I3
S'|'
p3188
NNNI15
I1
I0
tp3189
bS"The Cat's Miaow"
p3190
tp3191
Rp3192
ag2
(g22
S'\x9c\x03\xfaF.\xc8\xdf?'
p3193
tp3194
Rp3195
ag2
(g22
S'\xcdz\xe96&~\xd6?'
p3196
tp3197
Rp3198
ag2
(g22
S'\x80\x0e\xf3\xe5\x05\xc0Y@'
p3199
tp3200
Rp3201
ag2
(g22
S'{\x14\xaeG\xe1z\xc4?'
p3202
tp3203
Rp3204
ag2
(g22
S'\xfa~j\xbctCW@'
p3205
tp3206
Rp3207
aF0.834
aF0.502
aF0.435
aF0.937
aF-16.148
aF0.0318
aF139.748
aF0.601
aa(lp3208
g2
(g3
(S'S12'
p3209
I0
I1
tp3210
Rp3211
(I3
S'|'
p3212
NNNI12
I1
I0
tp3213
bS'Morning Bird'
p3214
tp3215
Rp3216
ag2
(g3
(S'S4'
p3217
I0
I1
tp3218
Rp3219
(I3
S'|'
p3220
NNNI4
I1
I0
tp3221
bS'Sade'
p3222
tp3223
Rp3224
ag2
(g22
S'\xd10\xeaM\x10\xb0\xe8?'
p3225
tp3226
Rp3227
ag2
(g22
S'\xbd<\xe0h\x11\x8e\xe0?'
p3228
tp3229
Rp3230
ag2
(g22
S'\xe80_^\x80Hm@'
p3231
tp3232
Rp3233
ag2
(g22
S'\x1dZd;\xdfO\x07@'
p3234
tp3235
Rp3236
ag2
(g22
S'F\xb6\xf3\xfd\xd4\xbck@'
p3237
tp3238
Rp3239
aF0.678
aF0.359
aF0.126
aF0.000483
aF-17.325
aF0.0405
aF175.466
aF0.0636
aa(lp3240
g2
(g3
(S'S13'
p3241
I0
I1
tp3242
Rp3243
(I3
S'|'
p3244
NNNI13
I1
I0
tp3245
bS'Feelin` Alone'
p3246
tp3247
Rp3248
ag2
(g3
(S'S22'
p3249
I0
I1
tp3250
Rp3251
(I3
S'|'
p3252
NNNI22
I1
I0
tp3253
bS'2-Gether feat. Sarinah'
p3254
tp3255
Rp3256
ag2
(g22
S'K\x0c\x0c\x97hC\xe1?'
p3257
tp3258
Rp3259
ag2
(g22
S'gmhz\xbdj\xd7?'
p3260
tp3261
Rp3262
ag2
(g22
S'\x11S"\x89^\xdag@'
p3263
tp3264
Rp3265
ag2
(g22
S'y\xe9&1\x08\xac\xcc?'
p3266
tp3267
Rp3268
ag2
(g22
S'\xc7K7\x89AXg@'
p3269
tp3270
Rp3271
aF0.00458
aF0.67
aF0.728
aF0.00756
aF-6.041
aF0.0318
aF128.02
aF0.517
aa(lp3272
g2
(g3
(S'S14'
p3273
I0
I1
tp3274
Rp3275
(I3
S'|'
p3276
NNNI14
I1
I0
tp3277
bS'Big Girl Blues'
p3278
tp3279
Rp3280
ag2
(g3
(S'S12'
p3281
I0
I1
tp3282
Rp3283
(I3
S'|'
p3284
NNNI12
I1
I0
tp3285
bS'Danny Barnes'
p3286
tp3287
Rp3288
ag2
(g22
S'`\xb2\xce\x04!f\xde?'
p3289
tp3290
Rp3291
ag2
(g22
S'\x19\xd6\xc7\x8f,\xdb\xdb?'
p3292
tp3293
Rp3294
ag2
(g22
S'\x81\x95C\x8bl/e@'
p3295
tp3296
Rp3297
ag2
(g22
S'd;\xdfO\x8d\x97\x07@'
p3298
tp3299
Rp3300
ag2
(g22
S'\xe7\xfb\xa9\xf1\xd2Id@'
p3301
tp3302
Rp3303
aF0.978
aF0.515
aF0.403
aF0.153
aF-9.383
aF0.0386
aF179.92
aF0.695
aa(lp3304
g2
(g3
(S'S5'
p3305
I0
I1
tp3306
Rp3307
(I3
S'|'
p3308
NNNI5
I1
I0
tp3309
bS'Tracy'
p3310
tp3311
Rp3312
ag2
(g3
(S'S8'
p3313
I0
I1
tp3314
Rp3315
(I3
S'|'
p3316
NNNI8
I1
I0
tp3317
bS'Goldfish'
p3318
tp3319
Rp3320
ag2
(g22
S'\x99\x9a\xf0D\x85\xda\xe2?'
p3321
tp3322
Rp3323
ag2
(g22
S'\x03\xdb\xb6\x06iN\xdc?'
p3324
tp3325
Rp3326
ag2
(g22
S'\xa6\xb8\xaa\xec\xbb\x93e@'
p3327
tp3328
Rp3329
ag2
(g22
S'\x00\x00\x00\x00\x00\x00\x00\x00'
p3330
tp3331
Rp3332
ag2
(g22
S'sh\x91\xed|Se@'
p3333
tp3334
Rp3335
aF0.148
aF0.54
aF0.475
aF0.0272
aF-6.949
aF0.0427
aF104.165
aF0.0856
aa(lp3336
g2
(g3
(S'S5'
p3337
I0
I1
tp3338
Rp3339
(I3
S'|'
p3340
NNNI5
I1
I0
tp3341
bS'Flute'
p3342
tp3343
Rp3344
ag2
(g3
(S'S20'
p3345
I0
I1
tp3346
Rp3347
(I3
S'|'
p3348
NNNI20
I1
I0
tp3349
bS'Les Ogres De Barback'
p3350
tp3351
Rp3352
ag2
(g22
S'A\xc64\x922\xe0\xe4?'
p3353
tp3354
Rp3355
ag2
(g22
S'\xacMi;\x9d\x07\xdc?'
p3356
tp3357
Rp3358
ag2
(g22
S'vl\x04\xe2u\xean@'
p3359
tp3360
Rp3361
ag2
(g22
S'\xfa~j\xbct\x93\xc8?'
p3362
tp3363
Rp3364
ag2
(g22
S'\xfa~j\xbct\x17n@'
p3365
tp3366
Rp3367
aF0.504
aF0.202
aF0.183
aF0.0883
aF-10.632
aF0.0414
aF77.694
aF0.122
aa(lp3368
g2
(g3
(S'S30'
p3369
I0
I1
tp3370
Rp3371
(I3
S'|'
p3372
NNNI30
I1
I0
tp3373
bS"Ain't Gone 'N' Give Up On Love"
p3374
tp3375
Rp3376
ag2
(g3
(S'S37'
p3377
I0
I1
tp3378
Rp3379
(I3
S'|'
p3380
NNNI37
I1
I0
tp3381
bS'Stevie Ray Vaughan And Double Trouble'
p3382
tp3383
Rp3384
ag2
(g22
S'\xa0\x10"\xd7\xa3\x0e\xe9?'
p3385
tp3386
Rp3387
ag2
(g22
S'V\x0fv\xb7\x8ej\xe1?'
p3388
tp3389
Rp3390
ag2
(g22
S'\x82\xe2\xc7\x98;\nw@'
p3391
tp3392
Rp3393
ag2
(g22
S'\x9e\xef\xa7\xc6K7\xc9?'
p3394
tp3395
Rp3396
ag2
(g22
S'\x17\xd9\xce\xf7SIv@'
p3397
tp3398
Rp3399
aF0.034
aF0.381
aF0.471
aF0.268
aF-10.812
aF0.0321
aF143.496
aF0.332
aa(lp3400
g2
(g3
(S'S54'
p3401
I0
I1
tp3402
Rp3403
(I3
S'|'
p3404
NNNI54
I1
I0
tp3405
bS'North American Ballads: No. 2 - Which Side Are You On?'
p3406
tp3407
Rp3408
ag2
(g3
(S'S13'
p3409
I0
I1
tp3410
Rp3411
(I3
S'|'
p3412
NNNI13
I1
I0
tp3413
bS'David Jalbert'
p3414
tp3415
Rp3416
ag2
(g22
S'\xd4\xa6\xc0o\xe7*\xe0?'
p3417
tp3418
Rp3419
ag2
(g22
S"?w\x85e'\n\xd4?"
p3420
tp3421
Rp3422
ag2
(g22
S'\xbc\x96\x90\x0f\xfaW\x81@'
p3423
tp3424
Rp3425
ag2
(g22
S'\xe5\xd0"\xdb\xf9~\xca?'
p3426
tp3427
Rp3428
ag2
(g22
S'%\x06\x81\x95C6\x81@'
p3429
tp3430
Rp3431
aF0.988
aF0.332
aF0.153
aF0.855
aF-20.56
aF0.0339
aF76.586
aF0.075
aa(lp3432
g2
(g3
(S'S9'
p3433
I0
I1
tp3434
Rp3435
(I3
S'|'
p3436
NNNI9
I1
I0
tp3437
bS"Savin' Me"
p3438
tp3439
Rp3440
ag2
(g3
(S'S10'
p3441
I0
I1
tp3442
Rp3443
(I3
S'|'
p3444
NNNI10
I1
I0
tp3445
bS'Nickelback'
p3446
tp3447
Rp3448
ag2
(g22
S'\xf2\xbb&\x0eS\x1e\xeb?'
p3449
tp3450
Rp3451
ag2
(g22
S'\xf0z\xf5u\x7f\xf5\xe8?'
p3452
tp3453
Rp3454
ag2
(g22
S'\xd4\x82\x17}\x054k@'
p3455
tp3456
Rp3457
ag2
(g22
S'\x00\x00\x00\x00\x00\x00\x00\x00'
p3458
tp3459
Rp3460
ag2
(g22
S'\xf0\xa7\xc6K7\xe5i@'
p3461
tp3462
Rp3463
aF0.000731
aF0.441
aF0.815
aI0
aF-4.088
aF0.0276
aF164.021
aF0.522
aa(lp3464
g2
(g3
(S'S14'
p3465
I0
I1
tp3466
Rp3467
(I3
S'|'
p3468
NNNI14
I1
I0
tp3469
bS'Turn It Around'
p3470
tp3471
Rp3472
ag2
(g3
(S'S15'
p3473
I0
I1
tp3474
Rp3475
(I3
S'|'
p3476
NNNI15
I1
I0
tp3477
bS'Tony Matterhorn'
p3478
tp3479
Rp3480
ag2
(g22
S'\xb7\xcb\x15\x1a\x1f?\xe5?'
p3481
tp3482
Rp3483
ag2
(g22
S'\x909\xd3\x813y\xdb?'
p3484
tp3485
Rp3486
ag2
(g22
S'\xc4\xb1.n\xa3\xe0i@'
p3487
tp3488
Rp3489
ag2
(g22
S'\n\xd7\xa3p=\n\xeb?'
p3490
tp3491
Rp3492
ag2
(g22
S'F\xb6\xf3\xfd\xd4@h@'
p3493
tp3494
Rp3495
aF0.511
aF0.878
aF0.672
aI0
aF-7.696
aF0.335
aF134.929
aF0.729
aa(lp3496
g2
(g3
(S'S12'
p3497
I0
I1
tp3498
Rp3499
(I3
S'|'
p3500
NNNI12
I1
I0
tp3501
bS'Gracieusette'
p3502
tp3503
Rp3504
ag2
(g3
(S'S10'
p3505
I0
I1
tp3506
Rp3507
(I3
S'|'
p3508
NNNI10
I1
I0
tp3509
bS'Gus Viseur'
p3510
tp3511
Rp3512
ag2
(g22
S'\xbc1\x17euz\xdb?'
p3513
tp3514
Rp3515
ag2
(g22
S'\xac\xea\x13\x92O\xc7\xd1?'
p3516
tp3517
Rp3518
ag2
(g22
S'\xaf\x08\xfe\xb7\x92\xb0c@'
p3519
tp3520
Rp3521
ag2
(g22
S'\xc3\xf5(\\\x8f\xc2\x02@'
p3522
tp3523
Rp3524
ag2
(g22
S'\x12\x83\xc0\xca\xa1ac@'
p3525
tp3526
Rp3527
aF0.43
aF0.765
aF0.375
aF0.848
aF-14.11
aF0.105
aF112.606
aF0.91
aa(lp3528
g2
(g3
(S'S12'
p3529
I0
I1
tp3530
Rp3531
(I3
S'|'
p3532
NNNI12
I1
I0
tp3533
bS'Why Baby Why'
p3534
tp3535
Rp3536
ag2
(g3
(S'S12'
p3537
I0
I1
tp3538
Rp3539
(I3
S'|'
p3540
NNNI12
I1
I0
tp3541
bS'Hank Locklin'
p3542
tp3543
Rp3544
ag2
(g22
S'\xfe\xe8C\x1c\x1fX\xe4?'
p3545
tp3546
Rp3547
ag2
(g22
S'8\xa1\xaa\x02\xb2H\xd8?'
p3548
tp3549
Rp3550
ag2
(g22
S'd;\xdfO\x8d\xfaa@'
p3551
tp3552
Rp3553
ag2
(g22
S'\xd3Mb\x10X9\xd4?'
p3554
tp3555
Rp3556
ag2
(g22
S'q=\n\xd7\xa38a@'
p3557
tp3558
Rp3559
aF0.78
aF0.605
aF0.381
aI0
aF-9.673
aF0.0477
aF150.999
aF0.812
aa(lp3560
g2
(g3
(S'S38'
p3561
I0
I1
tp3562
Rp3563
(I3
S'|'
p3564
NNNI38
I1
I0
tp3565
bS'Adios_ Amigos! (2003 Digital Remaster)'
p3566
tp3567
Rp3568
ag2
(g3
(S'S29'
p3569
I0
I1
tp3570
Rp3571
(I3
S'|'
p3572
NNNI29
I1
I0
tp3573
bS'J. Karjalainen & Mustat Lasit'
p3574
tp3575
Rp3576
ag2
(g22
S'\x07\xa2\xf0\xf41\xf2\xdf?'
p3577
tp3578
Rp3579
ag2
(g22
S'\x89\xfay|\xd5\xc5\xd7?'
p3580
tp3581
Rp3582
ag2
(g22
S'v7Ou\xc87e@'
p3583
tp3584
Rp3585
ag2
(g22
S'\x00\x00\x00\x00\x00\x00\x00\x00'
p3586
tp3587
Rp3588
ag2
(g22
S'\xe7\xfb\xa9\xf1\xd2\xe1c@'
p3589
tp3590
Rp3591
aF0.004
aF0.591
aF0.856
aF6.52e-06
aF-5.26
aF0.0327
aF124.024
aF0.663
aa(lp3592
g2
(g3
(S'S11'
p3593
I0
I1
tp3594
Rp3595
(I3
S'|'
p3596
NNNI11
I1
I0
tp3597
bS'Peace Dance'
p3598
tp3599
Rp3600
ag2
(g3
(S'S11'
p3601
I0
I1
tp3602
Rp3603
(I3
S'|'
p3604
NNNI11
I1
I0
tp3605
bS'Terry Riley'
p3606
tp3607
Rp3608
ag2
(g22
S'8;\xcdg\x99\x83\xe3?'
p3609
tp3610
Rp3611
ag2
(g22
S'\xddi\xc4\n\x8d9\xda?'
p3612
tp3613
Rp3614
ag2
(g22
S'\xe8\x9f\xe0bE\xd3u@'
p3615
tp3616
Rp3617
ag2
(g22
S'\xbaI\x0c\x02+\x87\x04@'
p3618
tp3619
Rp3620
ag2
(g22
S'\xee|?5^\x8au@'
p3621
tp3622
Rp3623
aF0.948
aF0.179
aF0.252
aF0.892
aF-25.649
aF0.0353
aF140.148
aF0.122
aa(lp3624
g2
(g3
(S'S18'
p3625
I0
I1
tp3626
Rp3627
(I3
S'|'
p3628
NNNI18
I1
I0
tp3629
bS'Between You And Me'
p3630
tp3631
Rp3632
ag2
(g3
(S'S12'
p3633
I0
I1
tp3634
Rp3635
(I3
S'|'
p3636
NNNI12
I1
I0
tp3637
bS'Joy Enriquez'
p3638
tp3639
Rp3640
ag2
(g22
S'\t\xeb\xa3\xc5t\x03\xe3?'
p3641
tp3642
Rp3643
ag2
(g22
S'\xa6\xf8k\x13\xc2\x97\xd5?'
p3644
tp3645
Rp3646
ag2
(g22
S'0du\xabgOp@'
p3647
tp3648
Rp3649
ag2
(g22
S'\x00\x00\x00\x00\x00\x00\x00\x00'
p3650
tp3651
Rp3652
ag2
(g22
S'V\x0e-\xb2\x9d\x07p@'
p3653
tp3654
Rp3655
aF0.0778
aF0.736
aF0.692
aF0.000784
aF-3.815
aF0.0423
aF96.104
aF0.718
aa(lp3656
g2
(g3
(S'S17'
p3657
I0
I1
tp3658
Rp3659
(I3
S'|'
p3660
NNNI17
I1
I0
tp3661
bS'La Chola Caderona'
p3662
tp3663
Rp3664
ag2
(g3
(S'S17'
p3665
I0
I1
tp3666
Rp3667
(I3
S'|'
p3668
NNNI17
I1
I0
tp3669
bS'Sonora Carruseles'
p3670
tp3671
Rp3672
ag2
(g22
S'\x92&\x8f\x90f\xee\xe1?'
p3673
tp3674
Rp3675
ag2
(g22
S'v\xcd\x11\xd9\x97\\\xd7?'
p3676
tp3677
Rp3678
ag2
(g22
S'\x0f(\x9br\x05ur@'
p3679
tp3680
Rp3681
ag2
(g22
S'\x0c\x02+\x87\x16\xd9\xce?'
p3682
tp3683
Rp3684
ag2
(g22
S'\xaeG\xe1z\x14(r@'
p3685
tp3686
Rp3687
aF0.384
aF0.646
aF0.909
aF0.127
aF-3.508
aF0.0331
aF95.942
aF0.754
aa(lp3688
g2
(g3
(S'S8'
p3689
I0
I1
tp3690
Rp3691
(I3
S'|'
p3692
NNNI8
I1
I0
tp3693
bS'10000 Km'
p3694
tp3695
Rp3696
ag2
(g3
(S'S12'
p3697
I0
I1
tp3698
Rp3699
(I3
S'|'
p3700
NNNI12
I1
I0
tp3701
bS'La Portuaria'
p3702
tp3703
Rp3704
ag2
(g22
S'`SC\xe4\x7f\xbb\xe0?'
p3705
tp3706
Rp3707
ag2
(g22
S'\xe1\n\xf3\xac\xe6\x90\xd3?'
p3708
tp3709
Rp3710
ag2
(g22
S'\xebV\xcfI\xefMo@'
p3711
tp3712
Rp3713
ag2
(g22
S'\xcd\xcc\xcc\xcc\xcc\xcc\xdc?'
p3714
tp3715
Rp3716
ag2
(g22
S'^\xbaI\x0c\x02\x8bn@'
p3717
tp3718
Rp3719
aF0.0758
aF0.779
aF0.821
aF0.000401
aF-4.987
aF0.0273
aI96
aF0.857
aa(lp3720
g2
(g3
(S'S16'
p3721
I0
I1
tp3722
Rp3723
(I3
S'|'
p3724
NNNI16
I1
I0
tp3725
bS'Comfortubly Numb'
p3726
tp3727
Rp3728
ag2
(g3
(S'S7'
p3729
I0
I1
tp3730
Rp3731
(I3
S'|'
p3732
NNNI7
I1
I0
tp3733
bS'Big One'
p3734
tp3735
Rp3736
ag2
(g22
S'%\xa8j\x82f-\xea?'
p3737
tp3738
Rp3739
ag2
(g22
S'\xde\xa5&\xc9\xebq\xe4?'
p3740
tp3741
Rp3742
ag2
(g22
S'H\xc4\x94H";\x7f@'
p3743
tp3744
Rp3745
ag2
(g22
S'\x00\x00\x00\x00\x00\x00\x00\x00'
p3746
tp3747
Rp3748
ag2
(g22
S'\xa2E\xb6\xf3\xfd0~@'
p3749
tp3750
Rp3751
aF0.152
aF0.264
aF0.837
aF0.00319
aF-5.471
aF0.0829
aF128.499
aF0.328
aa(lp3752
g2
(g3
(S'S7'
p3753
I0
I1
tp3754
Rp3755
(I3
S'|'
p3756
NNNI7
I1
I0
tp3757
bS'Outubro'
p3758
tp3759
Rp3760
ag2
(g3
(S'S5'
p3761
I0
I1
tp3762
Rp3763
(I3
S'|'
p3764
NNNI5
I1
I0
tp3765
bS'Irtio'
p3766
tp3767
Rp3768
ag2
(g22
S'\r/\xdd\xa4\x1e\xaa\xd8?'
p3769
tp3770
Rp3771
ag2
(g22
S'\xae\x11;\xdc\xab\xb1\xd2?'
p3772
tp3773
Rp3774
ag2
(g22
S'\xce\xaa\xcf\xd5\xd6\xdbt@'
p3775
tp3776
Rp3777
ag2
(g22
S'/\xdd$\x06\x81\x95\xe3?'
p3778
tp3779
Rp3780
ag2
(g22
S'\x00\x00\x00\x00\x00\xaas@'
p3781
tp3782
Rp3783
aF0.043
aF0.304
aF0.388
aF0.0113
aF-10.275
aF0.0288
aF199.902
aF0.317
aa(lp3784
g2
(g3
(S'S15'
p3785
I0
I1
tp3786
Rp3787
(I3
S'|'
p3788
NNNI15
I1
I0
tp3789
bS'Damn those eyes'
p3790
tp3791
Rp3792
ag2
(g3
(S'S4'
p3793
I0
I1
tp3794
Rp3795
(I3
S'|'
p3796
NNNI4
I1
I0
tp3797
bS'Kane'
p3798
tp3799
Rp3800
ag2
(g22
S'ii\xd7\x92\x95\xd8\xe2?'
p3801
tp3802
Rp3803
ag2
(g22
S'\xb2\x91\x1c\x91\x850\xd8?'
p3804
tp3805
Rp3806
ag2
(g22
S'\xa6\xf2v\x84\xd3kz@'
p3807
tp3808
Rp3809
ag2
(g22
S'\x00\x00\x00\x00\x00\x00\x00\x00'
p3810
tp3811
Rp3812
ag2
(g22
S'\xf2\xd2Mb\x10\xd6y@'
p3813
tp3814
Rp3815
aF0.000944
aF0.323
aF0.763
aI0
aF-5.037
aF0.0442
aF171.914
aF0.148
aa.