(lp0
(lp1
cnumpy.core.multiarray
scalar
p2
(cnumpy
dtype
p3
(S'S11'
p4
I0
I1
tp5
Rp6
(I3
S'|'
p7
NNNI11
I1
I0
tp8
bS'Fever Dream'
p9
tp10
Rp11
ag2
(g3
(S'S9'
p12
I0
I1
tp13
Rp14
(I3
S'|'
p15
NNNI9
I1
I0
tp16
bS'Steve Vai'
p17
tp18
Rp19
ag2
(g3
(S'f8'
p20
I0
I1
tp21
Rp22
(I3
S'<'
p23
NNNI-1
I-1
I0
tp24
bS'y7\xd3\t\xbd\xa9\xe4?'
p25
tp26
Rp27
ag2
(g22
S'X\xa0\xf8\x17\x13h\xe1?'
p28
tp29
Rp30
ag2
(g22
S'\x86\xacn\xf5\x9c\xc8v@'
p31
tp32
Rp33
ag2
(g22
S'333333\x04@'
p34
tp35
Rp36
ag2
(g22
S'\x1dZd;\xdfMv@'
p37
tp38
Rp39
aF0.0142
aF0.51
aF0.924
aF0.709
aF-6.381
aF0.0446
aF111.962
aF0.519
aa(lp40
g2
(g3
(S'S23'
p41
I0
I1
tp42
Rp43
(I3
S'|'
p44
NNNI23
I1
I0
tp45
bS'See You Later Alligator'
p46
tp47
Rp48
ag2
(g3
(S'S15'
p49
I0
I1
tp50
Rp51
(I3
S'|'
p52
NNNI15
I1
I0
tp53
bS'Zachary Richard'
p54
tp55
Rp56
ag2
(g22
S'\x0fB\x87\x13\xff\xcf\xde?'
p57
tp58
Rp59
ag2
(g22
S'\xf0\x92\x07\x04\x10\xaa\xd4?'
p60
tp61
Rp62
ag2
(g22
S'<\xa5\x83\xf5\x7f:h@'
p63
tp64
Rp65
ag2
(g22
S'q=\n\xd7\xa3p\x02@'
p66
tp67
Rp68
ag2
(g22
S'=\n\xd7\xa3p\xe5g@'
p69
tp70
Rp71
aF0.218
aF0.606
aF0.829
aI0
aF-11.122
aF0.0474
aF136.934
aF0.928
aa(lp72
g2
(g3
(S'S25'
p73
I0
I1
tp74
Rp75
(I3
S'|'
p76
NNNI25
I1
I0
tp77
bS"Love Makin' Mama (Take 2)"
p78
tp79
Rp80
ag2
(g3
(S'S19'
p81
I0
I1
tp82
Rp83
(I3
S'|'
p84
NNNI19
I1
I0
tp85
bS'Blind Willie McTell'
p86
tp87
Rp88
ag2
(g22
S'\xb3:9O\xf1\xec\xe2?'
p89
tp90
Rp91
ag2
(g22
S'\x9bu\x8a\xb6}\xa9\xd8?'
p92
tp93
Rp94
ag2
(g22
S'/\x8b\x89\xcd\xc7\xa2e@'
p95
tp96
Rp97
ag2
(g22
S'T\xe3\xa5\x9b\xc4 \xd0?'
p98
tp99
Rp100
ag2
(g22
S'q=\n\xd7\xa3xd@'
p101
tp102
Rp103
aF0.995
aF0.694
aF0.264
aF3.47e-05
aF-9.035
aF0.0922
aF130.264
aF0.775
aa(lp104
g2
(g3
(S'S11'
p105
I0
I1
tp106
Rp107
(I3
S'|'
p108
NNNI11
I1
I0
tp109
bS'Simple Plan'
p110
tp111
Rp112
ag2
(g3
(S'S7'
p113
I0
I1
tp114
Rp115
(I3
S'|'
p116
NNNI7
I1
I0
tp117
bS'Dominic'
p118
tp119
Rp120
ag2
(g22
S'\x92\xd4\xc3e\xc4\xaa\xe3?'
p121
tp122
Rp123
ag2
(g22
S'\x8f\x1e\x85>\x0f2\xda?'
p124
tp125
Rp126
ag2
(g22
S'\x9b\xacQ\x0f\xd1\xd6l@'
p127
tp128
Rp129
ag2
(g22
S'\x00\x00\x00\x00\x00\x00\x00\x00'
p130
tp131
Rp132
ag2
(g22
S'\x89A`\xe5\xd0\xd6l@'
p133
tp134
Rp135
aF5.72e-05
aF0.317
aF0.926
aF0.0479
aF-4.039
aF0.0597
aF131.767
aF0.414
aa(lp136
g2
(g3
(S'S20'
p137
I0
I1
tp138
Rp139
(I3
S'|'
p140
NNNI20
I1
I0
tp141
bS"Don't Break My Heart"
p142
tp143
Rp144
ag2
(g3
(S'S11'
p145
I0
I1
tp146
Rp147
(I3
S'|'
p148
NNNI11
I1
I0
tp149
bS'Suzi Quatro'
p150
tp151
Rp152
ag2
(g22
S'b\xffHo\xf3\x83\xd9?'
p153
tp154
Rp155
ag2
(g22
S'\xda\xec\x15B\xd2G\xce?'
p156
tp157
Rp158
ag2
(g22
S'\xdch\x00o\x81\xebe@'
p159
tp160
Rp161
ag2
(g22
S'\xd7\xa3p=\n\xd7\xd3?'
p162
tp163
Rp164
ag2
(g22
S'\x87\x16\xd9\xce\xf7se@'
p165
tp166
Rp167
aF0.857
aF0.679
aF0.466
aF0.0718
aF-12.93
aF0.0277
aF110.049
aF0.635
aa(lp168
g2
(g3
(S'S15'
p169
I0
I1
tp170
Rp171
(I3
S'|'
p172
NNNI15
I1
I0
tp173
bS'Platoon - Theme'
p174
tp175
Rp176
ag2
(g3
(S'S15'
p177
I0
I1
tp178
Rp179
(I3
S'|'
p180
NNNI15
I1
I0
tp181
bS'Georges Delerue'
p182
tp183
Rp184
ag2
(g22
S'\xee\xab\xa1*l+\xe2?'
p185
tp186
Rp187
ag2
(g22
S'\x1c\x8f\xfe\x80\xde\xe7\xd7?'
p188
tp189
Rp190
ag2
(g22
S'\xf3Y\x9e\x07\xf7\x11z@'
p191
tp192
Rp193
ag2
(g22
S'\x02+\x87\x16\xd9\xce\x02@'
p194
tp195
Rp196
ag2
(g22
S'\x10X9\xb4\xc8jy@'
p197
tp198
Rp199
aF0.846
aF0.131
aF0.164
aF0.936
aF-18.437
aF0.0406
aF86.207
aF0.0299
aa(lp200
g2
(g3
(S'S15'
p201
I0
I1
tp202
Rp203
(I3
S'|'
p204
NNNI15
I1
I0
tp205
bS'The Paper Remix'
p206
tp207
Rp208
ag2
(g3
(S'S5'
p209
I0
I1
tp210
Rp211
(I3
S'|'
p212
NNNI5
I1
I0
tp213
bS'Tunsi'
p214
tp215
Rp216
ag2
(g22
S'\xa3<\xa9\xb2\xcdR\xde?'
p217
tp218
Rp219
ag2
(g22
S'\xa1q\t(,E\xd4?'
p220
tp221
Rp222
ag2
(g22
S'\x85|\xd0\xb3Y\xb9m@'
p223
tp224
Rp225
ag2
(g22
S'\x08\xac\x1cZd;\xd7?'
p226
tp227
Rp228
ag2
(g22
S'\xd3Mb\x10X\xb9m@'
p229
tp230
Rp231
aF0.273
aF0.547
aF0.759
aI0
aF-8.115
aF0.421
aF92.508
aF0.728
aa(lp232
g2
(g3
(S'S12'
p233
I0
I1
tp234
Rp235
(I3
S'|'
p236
NNNI12
I1
I0
tp237
bS'Feeling Blue'
p238
tp239
Rp240
ag2
(g3
(S'S11'
p241
I0
I1
tp242
Rp243
(I3
S'|'
p244
NNNI11
I1
I0
tp245
bS'Eric Burdon'
p246
tp247
Rp248
ag2
(g22
S',\xd5<*\xf5;\xe3?'
p249
tp250
Rp251
ag2
(g22
S'\x807\x03?\xe7\xfc\xd6?'
p252
tp253
Rp254
ag2
(g22
S'_)\xcb\x10G\x0br@'
p255
tp256
Rp257
ag2
(g22
S'\xf6(\\\x8f\xc2\xf5\xc8?'
p258
tp259
Rp260
ag2
(g22
S'\xd5x\xe9&1\x82q@'
p261
tp262
Rp263
aF0.173
aF0.723
aF0.668
aF0.000851
aF-5.632
aF0.032
aF97.361
aF0.664
aa(lp264
g2
(g3
(S'S6'
p265
I0
I1
tp266
Rp267
(I3
S'|'
p268
NNNI6
I1
I0
tp269
bS'Atom x'
p270
tp271
Rp272
ag2
(g3
(S'S9'
p273
I0
I1
tp274
Rp275
(I3
S'|'
p276
NNNI9
I1
I0
tp277
bS'Dub Wiser'
p278
tp279
Rp280
ag2
(g22
S'\xd3#\xd7\xe9\xb1\xc1\xe0?'
p281
tp282
Rp283
ag2
(g22
S'J`\xe9\xe9\xec]\xd9?'
p284
tp285
Rp286
ag2
(g22
S',\xbc\xcbE\xfc@}@'
p287
tp288
Rp289
ag2
(g22
S'\x0c\x02+\x87\x16\xd9\xd6?'
p290
tp291
Rp292
ag2
(g22
S'J\x0c\x02+\x87\xae|@'
p293
tp294
Rp295
aF0.000621
aF0.616
aF0.916
aF0.811
aF-7.348
aF0.0318
aF130.025
aF0.901
aa(lp296
g2
(g3
(S'S16'
p297
I0
I1
tp298
Rp299
(I3
S'|'
p300
NNNI16
I1
I0
tp301
bS'Letter from Home'
p302
tp303
Rp304
ag2
(g3
(S'S11'
p305
I0
I1
tp306
Rp307
(I3
S'|'
p308
NNNI11
I1
I0
tp309
bS'Pat Metheny'
p310
tp311
Rp312
ag2
(g22
S'\xfd$\x94\xa4/;\xe7?'
p313
tp314
Rp315
ag2
(g22
S'\xeaD\x8d!\xd7\xb1\xdd?'
p316
tp317
Rp318
ag2
(g22
S':]\x16\x13\x9b\xc8d@'
p319
tp320
Rp321
ag2
(g22
S'\x8d\x97n\x12\x83\xc0\xd2?'
p322
tp323
Rp324
ag2
(g22
S'\x89A`\xe5\xd0Jb@'
p325
tp326
Rp327
aF0.965
aF0.383
aF0.0898
aF0.878
aF-21.063
aF0.0463
aF102.683
aF0.136
aa(lp328
g2
(g3
(S'S7'
p329
I0
I1
tp330
Rp331
(I3
S'|'
p332
NNNI7
I1
I0
tp333
bS'Out Deh'
p334
tp335
Rp336
ag2
(g3
(S'S14'
p337
I0
I1
tp338
Rp339
(I3
S'|'
p340
NNNI14
I1
I0
tp341
bS'Gregory Isaacs'
p342
tp343
Rp344
ag2
(g22
S'\xb6#\xc9\xec\xff\xb3\xe6?'
p345
tp346
Rp347
ag2
(g22
S'\xe4g\xd7\x82\x8b\xed\xdc?'
p348
tp349
Rp350
ag2
(g22
S'U0*\xa9\x13\x10k@'
p351
tp352
Rp353
ag2
(g22
S'R\xb8\x1e\x85\xebQ\xd8?'
p354
tp355
Rp356
ag2
(g22
S'j\xbct\x93\x18\x18j@'
p357
tp358
Rp359
aF0.466
aF0.891
aF0.218
aF0.00059
aF-12.074
aF0.0887
aF139.203
aF0.909
aa(lp360
g2
(g3
(S'S9'
p361
I0
I1
tp362
Rp363
(I3
S'|'
p364
NNNI9
I1
I0
tp365
bS'Glee Club'
p366
tp367
Rp368
ag2
(g3
(S'S30'
p369
I0
I1
tp370
Rp371
(I3
S'|'
p372
NNNI30
I1
I0
tp373
bS'When Dinosaurs Ruled The Earth'
p374
tp375
Rp376
ag2
(g22
S'\x9c\xb9\x9a\x8e\xadS\xe0?'
p377
tp378
Rp379
ag2
(g22
S'IK\xeaU\x8b\x82\xd6?'
p380
tp381
Rp382
ag2
(g22
S'\x84\rO\xaf\x94\xe9B@'
p383
tp384
Rp385
ag2
(g22
S'\x04V\x0e-\xb2\x9d\xd7?'
p386
tp387
Rp388
ag2
(g22
S'\x9a\x99\x99\x99\x99\xe9B@'
p389
tp390
Rp391
aF0.987
aF0.527
aF0.281
aF1.47e-06
aF-9.493
aF0.0341
aF88.051
aF0.366
aa(lp392
g2
(g3
(S'S8'
p393
I0
I1
tp394
Rp395
(I3
S'|'
p396
NNNI8
I1
I0
tp397
bS'3 Spirit'
p398
tp399
Rp400
ag2
(g3
(S'S20'
p401
I0
I1
tp402
Rp403
(I3
S'|'
p404
NNNI20
I1
I0
tp405
bS"Corderoy & U4IC DJ'S"
p406
tp407
Rp408
ag2
(g22
S'\xe5 \xaf\x93\xd6\xa1\xdf?'
p409
tp410
Rp411
ag2
(g22
S'\xd2T\xfaSt\xc3\xd7?'
p412
tp413
Rp414
ag2
(g22
S'B`\xe5\xd0"-\x80@'
p415
tp416
Rp417
ag2
(g22
S'R\xb8\x1e\x85\xebQ\xec?'
p418
tp419
Rp420
ag2
(g22
S'\xe7\xfb\xa9\xf1\xd2e\x7f@'
p421
tp422
Rp423
aF0.000924
aF0.682
aF0.932
aF0.00218
aF-4.15
aF0.05
aF123.99
aF0.137
aa.