(lp0
(lp1
cnumpy.core.multiarray
scalar
p2
(cnumpy
dtype
p3
(S'S11'
p4
I0
I1
tp5
Rp6
(I3
S'|'
p7
NNNI11
I1
I0
tp8
bS'Tables Turn'
p9
tp10
Rp11
ag2
(g3
(S'S9'
p12
I0
I1
tp13
Rp14
(I3
S'|'
p15
NNNI9
I1
I0
tp16
bS'Ann Nesby'
p17
tp18
Rp19
ag2
(g3
(S'f8'
p20
I0
I1
tp21
Rp22
(I3
S'<'
p23
NNNI-1
I-1
I0
tp24
bS'\xbc\xe7\xd6M\x9f\xaa\xdc?'
p25
tp26
Rp27
ag2
(g22
S'\xdc\xb7J5z\x0b\xdb?'
p28
tp29
Rp30
ag2
(g22
S's\x85w\xb9\x88`n@'
p31
tp32
Rp33
ag2
(g22
S'\x00\x00\x00\x00\x00\x00\x00\x00'
p34
tp35
Rp36
ag2
(g22
S'\xe1z\x14\xaeGum@'
p37
tp38
Rp39
aF0.501
aF0.835
aF0.38
aF6.16e-06
aF-7.848
aF0.0424
aF87.995
aF0.588
aa(lp40
g2
(g3
(S'S22'
p41
I0
I1
tp42
Rp43
(I3
S'|'
p44
NNNI22
I1
I0
tp45
bS'La petite boite en fer'
p46
tp47
Rp48
ag2
(g3
(S'S17'
p49
I0
I1
tp50
Rp51
(I3
S'|'
p52
NNNI17
I1
I0
tp53
bS'Mademoiselle Sane'
p54
tp55
Rp56
ag2
(g22
S'\xa0\x8a{b\xda\x13\xd9?'
p57
tp58
Rp59
ag2
(g22
S'>Ot\xcbV\x91\xd6?'
p60
tp61
Rp62
ag2
(g22
S'\xd4\x82\x17}\x054k@'
p63
tp64
Rp65
ag2
(g22
S'\xaa\xf1\xd2Mb\x10\x02@'
p66
tp67
Rp68
ag2
(g22
S'\xa6\x9b\xc4 \xb0vi@'
p69
tp70
Rp71
aF0.799
aF0.556
aF0.189
aF0.000119
aF-10.372
aF0.0359
aF121.116
aF0.0651
aa(lp72
g2
(g3
(S'S33'
p73
I0
I1
tp74
Rp75
(I3
S'|'
p76
NNNI33
I1
I0
tp77
bS'The Invasion (Aka Black Wa Da Da)'
p78
tp79
Rp80
ag2
(g3
(S'S13'
p81
I0
I1
tp82
Rp83
(I3
S'|'
p84
NNNI13
I1
I0
tp85
bS'Burning Spear'
p86
tp87
Rp88
ag2
(g22
S'o\x04_&[\x93\xe5?'
p89
tp90
Rp91
ag2
(g22
S'\xae\xc9\x07\xb4\xfc\xc6\xdd?'
p92
tp93
Rp94
ag2
(g22
S'\xfb:p\xce\x08\xe5t@'
p95
tp96
Rp97
ag2
(g22
S'\x17\xd9\xce\xf7S\xe3\xdd?'
p98
tp99
Rp100
ag2
(g22
S'\xd9\xce\xf7S\xe3\xd3s@'
p101
tp102
Rp103
aF0.0873
aF0.78
aF0.532
aF7.44e-05
aF-10.163
aF0.234
aF147.176
aF0.858
aa(lp104
g2
(g3
(S'S9'
p105
I0
I1
tp106
Rp107
(I3
S'|'
p108
NNNI9
I1
I0
tp109
bS'Motivator'
p110
tp111
Rp112
ag2
(g3
(S'S15'
p113
I0
I1
tp114
Rp115
(I3
S'|'
p116
NNNI15
I1
I0
tp117
bS'Midwest Product'
p118
tp119
Rp120
ag2
(g22
S'\xc6\x0b\xd5\xa1A\xe6\xe0?'
p121
tp122
Rp123
ag2
(g22
S'\xf5J\x0c\x1d\x16K\xd6?'
p124
tp125
Rp126
ag2
(g22
S'\xce\xaa\xcf\xd5\xd6\xdbr@'
p127
tp128
Rp129
ag2
(g22
S'\x00\x00\x00\x00\x00\x00\x00\x00'
p130
tp131
Rp132
ag2
(g22
S'\xa4p=\n\xd7\xdbr@'
p133
tp134
Rp135
aF0.00999
aF0.718
aF0.691
aF0.877
aF-9.118
aF0.0408
aF140.998
aF0.349
aa(lp136
g2
(g3
(S'S2'
p137
I0
I1
tp138
Rp139
(I3
S'|'
p140
NNNI2
I1
I0
tp141
bS'IV'
p142
tp143
Rp144
ag2
(g3
(S'S20'
p145
I0
I1
tp146
Rp147
(I3
S'|'
p148
NNNI20
I1
I0
tp149
bS'From Autumn To Ashes'
p150
tp151
Rp152
ag2
(g22
S'\x94zw\xaeI\xdb\xe6?'
p153
tp154
Rp155
ag2
(g22
S'\x9c}t\x17\xac,\xe0?'
p156
tp157
Rp158
ag2
(g22
S'/\x17\xf1\x9d\x98tb@'
p159
tp160
Rp161
ag2
(g22
S'333333\xc3?'
p162
tp163
Rp164
ag2
(g22
S'\xaeG\xe1z\x14\xd2`@'
p165
tp166
Rp167
aF0.873
aF0.219
aF0.21
aF0.88
aF-11.314
aF0.0363
aF97.021
aF0.158
aa(lp168
g2
(g3
(S'S12'
p169
I0
I1
tp170
Rp171
(I3
S'|'
p172
NNNI12
I1
I0
tp173
bS'Ay Nare Nare'
p174
tp175
Rp176
ag2
(g3
(S'S9'
p177
I0
I1
tp178
Rp179
(I3
S'|'
p180
NNNI9
I1
I0
tp181
bS'Grup Knar'
p182
tp183
Rp184
ag2
(g22
S'\x0er-\xf7\xaf\xf3\xc6?'
p185
tp186
Rp187
ag2
(g22
S'=.x\xb2\xc4%\xd0?'
p188
tp189
Rp190
ag2
(g22
S'I\x80\x9aZ6\xdbw@'
p191
tp192
Rp193
ag2
(g22
S')\\\x8f\xc2\xf5(\xe4?'
p194
tp195
Rp196
ag2
(g22
S'\x04V\x0e-\xb2#w@'
p197
tp198
Rp199
aF0.886
aF0.469
aF0.488
aI0
aF-7.51
aF0.0373
aF122.563
aF0.683
aa(lp200
g2
(g3
(S'S19'
p201
I0
I1
tp202
Rp203
(I3
S'|'
p204
NNNI19
I1
I0
tp205
bS'Breath Of Fresh Air'
p206
tp207
Rp208
ag2
(g3
(S'S12'
p209
I0
I1
tp210
Rp211
(I3
S'|'
p212
NNNI12
I1
I0
tp213
bS'Warrior King'
p214
tp215
Rp216
ag2
(g22
S'\xca\x93K\xb1\xee\xd3\xe2?'
p217
tp218
Rp219
ag2
(g22
S'\x80%;O}r\xda?'
p220
tp221
Rp222
ag2
(g22
S'R~R\xed\xd38l@'
p223
tp224
Rp225
ag2
(g22
S'{\x14\xaeG\xe1z\xc4?'
p226
tp227
Rp228
ag2
(g22
S'\xd1"\xdb\xf9~\x92k@'
p229
tp230
Rp231
aF0.399
aF0.594
aF0.712
aI0
aF-5.973
aF0.237
aF82.899
aF0.778
aa(lp232
g2
(g3
(S'S39'
p233
I0
I1
tp234
Rp235
(I3
S'|'
p236
NNNI39
I1
I0
tp237
bS'You Know How I Do [Live From Bamboozle]'
p238
tp239
Rp240
ag2
(g3
(S'S18'
p241
I0
I1
tp242
Rp243
(I3
S'|'
p244
NNNI18
I1
I0
tp245
bS'Taking Back Sunday'
p246
tp247
Rp248
ag2
(g22
S'\xe2\xeao\x0b\xd3+\xed?'
p249
tp250
Rp251
ag2
(g22
S'\xc2\xfd\x97<\xe3P\xe2?'
p252
tp253
Rp254
ag2
(g22
S'\xed\xd3\xf1\x98\x81rl@'
p255
tp256
Rp257
ag2
(g22
S')\\\x8f\xc2\xf5(\xe4?'
p258
tp259
Rp260
ag2
(g22
S'\xd1"\xdb\xf9~rl@'
p261
tp262
Rp263
aF9e-06
aF0.187
aF0.972
aF0.0106
aF-5.625
aF0.125
aF165.07
aF0.242
aa(lp264
g2
(g3
(S'S7'
p265
I0
I1
tp266
Rp267
(I3
S'|'
p268
NNNI7
I1
I0
tp269
bS'Destiny'
p270
tp271
Rp272
ag2
(g3
(S'S11'
p273
I0
I1
tp274
Rp275
(I3
S'|'
p276
NNNI11
I1
I0
tp277
bS'Buju Banton'
p278
tp279
Rp280
ag2
(g22
S'R\x15\x8d\xf5c\xbb\xe6?'
p281
tp282
Rp283
ag2
(g22
S'\x90\xfc"\xe610\xe0?'
p284
tp285
Rp286
ag2
(g22
S'\xae\xd8_vO\xe2m@'
p287
tp288
Rp289
ag2
(g22
S'\xa2E\xb6\xf3\xfd\xd4\xc8?'
p290
tp291
Rp292
ag2
(g22
S'1\x08\xac\x1cZlm@'
p293
tp294
Rp295
aF0.0231
aF0.82
aF0.683
aI0
aF-7.686
aF0.0613
aF134.916
aF0.795
aa(lp296
g2
(g3
(S'S7'
p297
I0
I1
tp298
Rp299
(I3
S'|'
p300
NNNI7
I1
I0
tp301
bS'La Nuit'
p302
tp303
Rp304
ag2
(g3
(S'S16'
p305
I0
I1
tp306
Rp307
(I3
S'|'
p308
NNNI16
I1
I0
tp309
bS'Patrick Eudeline'
p310
tp311
Rp312
ag2
(g22
S'4|\xd6O?k\xe1?'
p313
tp314
Rp315
ag2
(g22
S'\x00\x00\x00\x00\x00\x00\x00\x00'
p316
tp317
Rp318
ag2
(g22
S'\xd6s\xd2\xfb\xc6\x86g@'
p319
tp320
Rp321
ag2
(g22
S'\x1b/\xdd$\x06\x81\x05@'
p322
tp323
Rp324
ag2
(g22
S'R\xb8\x1e\x85\xeb\xe9f@'
p325
tp326
Rp327
aF0.0695
aF0.486
aF0.621
aI0
aF-8.033
aF0.0344
aF117.042
aF0.358
aa(lp328
g2
(g3
(S'S7'
p329
I0
I1
tp330
Rp331
(I3
S'|'
p332
NNNI7
I1
I0
tp333
bS'Io Vivo'
p334
tp335
Rp336
ag2
(g3
(S'S15'
p337
I0
I1
tp338
Rp339
(I3
S'|'
p340
NNNI15
I1
I0
tp341
bS'Piero Esteriore'
p342
tp343
Rp344
ag2
(g22
S'\x9f\x13\x13\xc6\x05\xa2\xd8?'
p345
tp346
Rp347
ag2
(g22
S'Q\x05\xc6\x8b\xfaR\xc7?'
p348
tp349
Rp350
ag2
(g22
S'\x0f\xd1\xe8\x0eb\xd1n@'
p351
tp352
Rp353
ag2
(g22
S'\x81\x95C\x8bl\xe7\x02@'
p354
tp355
Rp356
ag2
(g22
S'b\x10X9\xb4\xc0m@'
p357
tp358
Rp359
aF0.0347
aF0.575
aF0.71
aI0
aF-5.731
aF0.0258
aF100.065
aF0.153
aa(lp360
g2
(g3
(S'S19'
p361
I0
I1
tp362
Rp363
(I3
S'|'
p364
NNNI19
I1
I0
tp365
bS'She Left Me A Mule '
p366
tp367
Rp368
ag2
(g3
(S'S14'
p369
I0
I1
tp370
Rp371
(I3
S'|'
p372
NNNI14
I1
I0
tp373
bS'Sonny Landreth'
p374
tp375
Rp376
ag2
(g22
S'\x1b/[\xb8\xb3k\xe2?'
p377
tp378
Rp379
ag2
(g22
S'2\xd9\xd4\xe2`\x9f\xd7?'
p380
tp381
Rp382
ag2
(g22
S'*\xe3\xdfg\\\x94j@'
p383
tp384
Rp385
ag2
(g22
S'7\x89A`\xe5\xd0\xc2?'
p386
tp387
Rp388
ag2
(g22
S'\x81\x95C\x8bl\xabi@'
p389
tp390
Rp391
aF0.366
aF0.749
aF0.626
aF0.0405
aF-10.029
aF0.0289
aF131.496
aF0.834
aa(lp392
g2
(g3
(S'S7'
p393
I0
I1
tp394
Rp395
(I3
S'|'
p396
NNNI7
I1
I0
tp397
bS'Fanfara'
p398
tp399
Rp400
ag2
(g3
(S'S7'
p401
I0
I1
tp402
Rp403
(I3
S'|'
p404
NNNI7
I1
I0
tp405
bS'Save As'
p406
tp407
Rp408
ag2
(g22
S'dn,\xef\xaf\xc8\xd3?'
p409
tp410
Rp411
ag2
(g22
S'\x00\x00\x00\x00\x00\x00\x00\x00'
p412
tp413
Rp414
ag2
(g22
S'\x11\x01\x87P\xa5\x9fl@'
p415
tp416
Rp417
ag2
(g22
S'\x00\x00\x00\x00\x00\x00\x00\x00'
p418
tp419
Rp420
ag2
(g22
S'-\xb2\x9d\xef\xa7\x12l@'
p421
tp422
Rp423
aF0.041
aF0.802
aF0.827
aF0.921
aF-11.851
aF0.044
aF128.019
aF0.97
aa(lp424
g2
(g3
(S'S10'
p425
I0
I1
tp426
Rp427
(I3
S'|'
p428
NNNI10
I1
I0
tp429
bS'To Go Home'
p430
tp431
Rp432
ag2
(g3
(S'S15'
p433
I0
I1
tp434
Rp435
(I3
S'|'
p436
NNNI15
I1
I0
tp437
bS'Daniel Johnston'
p438
tp439
Rp440
ag2
(g22
S'*\xc8]\xf7\x88\xd3\xe6?'
p441
tp442
Rp443
ag2
(g22
S'\xfe\x94\xd4\xb1\xadO\xde?'
p444
tp445
Rp446
ag2
(g22
S'@\xa4\xdf\xbe\x8e\xecp@'
p447
tp448
Rp449
ag2
(g22
S'%\x06\x81\x95C\x8b\xcc?'
p450
tp451
Rp452
ag2
(g22
S'\xc3\xf5(\\\x8f\xecp@'
p453
tp454
Rp455
aF0.949
aF0.328
aF0.492
aF0.706
aF-8.425
aF0.0346
aF129.856
aF0.615
aa(lp456
g2
(g3
(S'S7'
p457
I0
I1
tp458
Rp459
(I3
S'|'
p460
NNNI7
I1
I0
tp461
bS"Get 'em"
p462
tp463
Rp464
ag2
(g3
(S'S27'
p465
I0
I1
tp466
Rp467
(I3
S'|'
p468
NNNI27
I1
I0
tp469
bS'Redman / Saukrates / Icadon'
p470
tp471
Rp472
ag2
(g22
S' \xa3\xa7\x18\xb8\xc7\xe7?'
p473
tp474
Rp475
ag2
(g22
S'\x89c\xf1a\x99\x96\xdf?'
p476
tp477
Rp478
ag2
(g22
S'~W\x04\xff[\x86i@'
p479
tp480
Rp481
ag2
(g22
S'\x00\x00\x00\x00\x00\x00\x00\x00'
p482
tp483
Rp484
ag2
(g22
S'y\xe9&1\x08\xe0h@'
p485
tp486
Rp487
aF0.0267
aF0.645
aF0.733
aI0
aF-13.814
aF0.611
aF91.96
aF0.497
aa(lp488
g2
(g3
(S'S10'
p489
I0
I1
tp490
Rp491
(I3
S'|'
p492
NNNI10
I1
I0
tp493
bS'High Horse'
p494
tp495
Rp496
ag2
(g3
(S'S9'
p497
I0
I1
tp498
Rp499
(I3
S'|'
p500
NNNI9
I1
I0
tp501
bS'Workhorse'
p502
tp503
Rp504
ag2
(g22
S'\xdb\x9d\xb5\xcdQ\xa8\xde?'
p505
tp506
Rp507
ag2
(g22
S'\x8aF\xab\xc6C\x9f\xd4?'
p508
tp509
Rp510
ag2
(g22
S'\xbe\x9f\x1a/\xddlo@'
p511
tp512
Rp513
ag2
(g22
S'\x00\x00\x00\x00\x00\x00\x00\x00'
p514
tp515
Rp516
ag2
(g22
S'\x04V\x0e-\xb2\x81n@'
p517
tp518
Rp519
aF0.121
aF0.42
aF0.669
aF0.131
aF-7.092
aF0.0287
aF114.445
aF0.515
aa(lp520
g2
(g3
(S'S13'
p521
I0
I1
tp522
Rp523
(I3
S'|'
p524
NNNI13
I1
I0
tp525
bS'Calm Down Dad'
p526
tp527
Rp528
ag2
(g3
(S'S10'
p529
I0
I1
tp530
Rp531
(I3
S'|'
p532
NNNI10
I1
I0
tp533
bS'Helen Love'
p534
tp535
Rp536
ag2
(g22
S'\xb9\xbeo\xf2\xcb\x9e\xe2?'
p537
tp538
Rp539
ag2
(g22
S'\x97n8\x84\\5\xd6?'
p540
tp541
Rp542
ag2
(g22
S'G8-x\xd1\xe4a@'
p543
tp544
Rp545
ag2
(g22
S'P\x8d\x97n\x12\x83\xd0?'
p546
tp547
Rp548
ag2
(g22
S'B`\xe5\xd0"{a@'
p549
tp550
Rp551
aF0.174
aF0.786
aF0.83
aI0
aF-4.684
aF0.0666
aF102.515
aF0.902
aa(lp552
g2
(g3
(S'S9'
p553
I0
I1
tp554
Rp555
(I3
S'|'
p556
NNNI9
I1
I0
tp557
bS'Dragonfly'
p558
tp559
Rp560
ag2
(g3
(S'S23'
p561
I0
I1
tp562
Rp563
(I3
S'|'
p564
NNNI23
I1
I0
tp565
bS'Connemara Stone Company'
p566
tp567
Rp568
ag2
(g22
S'\x9b\xbd\xb1\x9e\x1d\xe8\xde?'
p569
tp570
Rp571
ag2
(g22
S'\x1a\xbf\xb8\xcc\xd2L\xd9?'
p572
tp573
Rp574
ag2
(g22
S':\xaf\xb1KT\x03h@'
p575
tp576
Rp577
ag2
(g22
S'F\xb6\xf3\xfd\xd4x\xd9?'
p578
tp579
Rp580
ag2
(g22
S'\xb8\x1e\x85\xebQ\xa0g@'
p581
tp582
Rp583
aF0.0056
aF0.17
aF0.674
aF0.0118
aF-7.48
aF0.0467
aF123.201
aF0.0716
aa(lp584
g2
(g3
(S'S7'
p585
I0
I1
tp586
Rp587
(I3
S'|'
p588
NNNI7
I1
I0
tp589
bS'Romanza'
p590
tp591
Rp592
ag2
(g3
(S'S13'
p593
I0
I1
tp594
Rp595
(I3
S'|'
p596
NNNI13
I1
I0
tp597
bS'Hard Romantic'
p598
tp599
Rp600
ag2
(g22
S'\xc5&xw;\xf5\xd9?'
p601
tp602
Rp603
ag2
(g22
S'\x00\x00\x00\x00\x00\x00\x00\x00'
p604
tp605
Rp606
ag2
(g22
S'^K\xc8\x07=\xbbp@'
p607
tp608
Rp609
ag2
(g22
S'\n\xd7\xa3p=\n\x01@'
p610
tp611
Rp612
ag2
(g22
S'\xf4\xfd\xd4x\xe9bp@'
p613
tp614
Rp615
aF0.928
aF0.428
aF0.2
aF0.897
aF-17.99
aF0.029
aF81.979
aF0.226
aa(lp616
g2
(g3
(S'S17'
p617
I0
I1
tp618
Rp619
(I3
S'|'
p620
NNNI17
I1
I0
tp621
bS'Tu Quieres Volver'
p622
tp623
Rp624
ag2
(g3
(S'S11'
p625
I0
I1
tp626
Rp627
(I3
S'|'
p628
NNNI11
I1
I0
tp629
bS'Gipsy Kings'
p630
tp631
Rp632
ag2
(g22
S'J\xa37u\xf8\xbb\xe6?'
p633
tp634
Rp635
ag2
(g22
S'\xe2\x9b\x91\xb9\xd8L\xe1?'
p636
tp637
Rp638
ag2
(g22
S' \x98\xa3\xc7\xef[h@'
p639
tp640
Rp641
ag2
(g22
S'\xaeG\xe1z\x14\xae\t@'
p642
tp643
Rp644
ag2
(g22
S'\x85\xebQ\xb8\x1e\x89g@'
p645
tp646
Rp647
aF0.84
aF0.617
aF0.702
aF0.0015
aF-10.143
aF0.0404
aF82.34
aF0.46
aa(lp648
g2
(g3
(S'S15'
p649
I0
I1
tp650
Rp651
(I3
S'|'
p652
NNNI15
I1
I0
tp653
bS'Stop That Thing'
p654
tp655
Rp656
ag2
(g3
(S'S17'
p657
I0
I1
tp658
Rp659
(I3
S'|'
p660
NNNI17
I1
I0
tp661
bS'Sleepy John Estes'
p662
tp663
Rp664
ag2
(g22
S'U\xe5.\n\xa6\x9b\xe0?'
p665
tp666
Rp667
ag2
(g22
S'\xf8\x86\x8f7#\x98\xd6?'
p668
tp669
Rp670
ag2
(g22
S'|\xd5\xca\x84_}d@'
p671
tp672
Rp673
ag2
(g22
S'{\x14\xaeG\xe1z\xc4?'
p674
tp675
Rp676
ag2
(g22
S'\xf2\xd2Mb\x10\xdcc@'
p677
tp678
Rp679
aF0.853
aF0.547
aF0.268
aF0.00184
aF-14.668
aF0.0522
aF91.076
aF0.896
aa(lp680
g2
(g3
(S'S10'
p681
I0
I1
tp682
Rp683
(I3
S'|'
p684
NNNI10
I1
I0
tp685
bS'Duh Duh Da'
p686
tp687
Rp688
ag2
(g3
(S'S15'
p689
I0
I1
tp690
Rp691
(I3
S'|'
p692
NNNI15
I1
I0
tp693
bS'Lidell Townsell'
p694
tp695
Rp696
ag2
(g22
S'&QO\x07\xb2\x9f\xdb?'
p697
tp698
Rp699
ag2
(g22
S't\x96\x1e\xf1D\xa7\xd3?'
p700
tp701
Rp702
ag2
(g22
S'\x0f\x97\x1cwJ:i@'
p703
tp704
Rp705
ag2
(g22
S'333333\x04@'
p706
tp707
Rp708
ag2
(g22
S'j\xbct\x93\x18|h@'
p709
tp710
Rp711
aF4.79e-06
aF0.803
aF0.785
aF0.915
aF-10.544
aF0.0499
aF124.995
aF0.97
aa(lp712
g2
(g3
(S'S28'
p713
I0
I1
tp714
Rp715
(I3
S'|'
p716
NNNI28
I1
I0
tp717
bS"Drumroll (We're All Thirsty)"
p718
tp719
Rp720
ag2
(g3
(S'S5'
p721
I0
I1
tp722
Rp723
(I3
S'|'
p724
NNNI5
I1
I0
tp725
bS'P.O.S'
p726
tp727
Rp728
ag2
(g22
S'\xba\x08\xb6\xa8\x1e\xc0\xe7?'
p729
tp730
Rp731
ag2
(g22
S'D\x9b9\x0bE\xb5\xdd?'
p732
tp733
Rp734
ag2
(g22
S'\x92\x05L\xe0\xd6\x9ac@'
p735
tp736
Rp737
ag2
(g22
S'\x00\x00\x00\x00\x00\x00\x00\x00'
p738
tp739
Rp740
ag2
(g22
S'\xcb\xa1E\xb6\xf3Uc@'
p741
tp742
Rp743
aF0.00472
aF0.347
aF0.951
aI0
aF-4.867
aF0.472
aF79.781
aF0.617
aa(lp744
g2
(g3
(S'S5'
p745
I0
I1
tp746
Rp747
(I3
S'|'
p748
NNNI5
I1
I0
tp749
bS'Intro'
p750
tp751
Rp752
ag2
(g3
(S'S18'
p753
I0
I1
tp754
Rp755
(I3
S'|'
p756
NNNI18
I1
I0
tp757
bS'DJ Clue / P. Diddy'
p758
tp759
Rp760
ag2
(g22
S'\x7f\x8b}\xf1s?\xe5?'
p761
tp762
Rp763
ag2
(g22
S'\xd0P\xbf\xd5>\xd5\xda?'
p764
tp765
Rp766
ag2
(g22
S'z\xa5,C\x1c-P@'
p767
tp768
Rp769
ag2
(g22
S'q=\n\xd7\xa3p\xdd?'
p770
tp771
Rp772
ag2
(g22
S'\x85\xebQ\xb8\x1e-P@'
p773
tp774
Rp775
aF0.624
aF0.693
aF0.101
aI0
aF-21.694
aF0.935
aF67.135
aF0.605
aa(lp776
g2
(g3
(S'S34'
p777
I0
I1
tp778
Rp779
(I3
S'|'
p780
NNNI34
I1
I0
tp781
bS'Bodyfly (Dynamix original version)'
p782
tp783
Rp784
ag2
(g3
(S'S7'
p785
I0
I1
tp786
Rp787
(I3
S'|'
p788
NNNI7
I1
I0
tp789
bS'Dynamix'
p790
tp791
Rp792
ag2
(g22
S']\x0cF\xea\x16\xaa\xe0?'
p793
tp794
Rp795
ag2
(g22
S'B\xa4\xa9l\xa9*\xd4?'
p796
tp797
Rp798
ag2
(g22
S'\xe5\xd0"\xdby0|@'
p799
tp800
Rp801
ag2
(g22
S'\x14\xaeG\xe1z\x94\x10@'
p802
tp803
Rp804
ag2
(g22
S'\x1f\x85\xebQ\xb8v{@'
p805
tp806
Rp807
aF0.000229
aF0.711
aF0.898
aF0.876
aF-5.674
aF0.0436
aF127.993
aF0.562
aa(lp808
g2
(g3
(S'S20'
p809
I0
I1
tp810
Rp811
(I3
S'|'
p812
NNNI20
I1
I0
tp813
bS'Brampton To Roadhead'
p814
tp815
Rp816
ag2
(g3
(S'S9'
p817
I0
I1
tp818
Rp819
(I3
S'|'
p820
NNNI9
I1
I0
tp821
bS'Gathering'
p822
tp823
Rp824
ag2
(g22
S'd\x06j\x18\xa2z\xe3?'
p825
tp826
Rp827
ag2
(g22
S'n\x92F!KU\xcf?'
p828
tp829
Rp830
ag2
(g22
S'\xd9%\xaa\xb7\x06^n@'
p831
tp832
Rp833
ag2
(g22
S'\xd5x\xe9&1\x08\xcc?'
p834
tp835
Rp836
ag2
(g22
S'\xc3\xf5(\\\x8f\xf6m@'
p837
tp838
Rp839
aF0.123
aF0.615
aF0.553
aF0.00682
aF-9.402
aF0.035
aF94.908
aF0.524
aa(lp840
g2
(g3
(S'S10'
p841
I0
I1
tp842
Rp843
(I3
S'|'
p844
NNNI10
I1
I0
tp845
bS'Bigbigkiss'
p846
tp847
Rp848
ag2
(g3
(S'S10'
p849
I0
I1
tp850
Rp851
(I3
S'|'
p852
NNNI10
I1
I0
tp853
bS'Helen Love'
p854
tp855
Rp856
ag2
(g22
S'\xb9\xbeo\xf2\xcb\x9e\xe2?'
p857
tp858
Rp859
ag2
(g22
S'\x97n8\x84\\5\xd6?'
p860
tp861
Rp862
ag2
(g22
S'\xe1E_A\x9a\xacj@'
p863
tp864
Rp865
ag2
(g22
S'\x00\x00\x00\x00\x00\x00\x00\x00'
p866
tp867
Rp868
ag2
(g22
S'\xa0\x1a/\xdd$\x9ai@'
p869
tp870
Rp871
aF2.86e-06
aF0.329
aF0.927
aF0.0243
aF-9.863
aF0.0691
aF162.198
aF0.452
aa(lp872
g2
(g3
(S'S5'
p873
I0
I1
tp874
Rp875
(I3
S'|'
p876
NNNI5
I1
I0
tp877
bS'Cable'
p878
tp879
Rp880
ag2
(g3
(S'S7'
p881
I0
I1
tp882
Rp883
(I3
S'|'
p884
NNNI7
I1
I0
tp885
bS'Languis'
p886
tp887
Rp888
ag2
(g22
S'0\xb3f/\xfd9\xe0?'
p889
tp890
Rp891
ag2
(g22
S'\x05\xf0\xe6f\x11\x9f\xd7?'
p892
tp893
Rp894
ag2
(g22
S'@\x87\xf9\xf2\x02\xe0h@'
p895
tp896
Rp897
ag2
(g22
S'\x81\x95C\x8bl\xe7\xbb?'
p898
tp899
Rp900
ag2
(g22
S'\xa2E\xb6\xf3\xfd\x1ch@'
p901
tp902
Rp903
aF0.797
aF0.404
aF0.579
aF0.733
aF-16.329
aF0.0585
aF96.848
aF0.433
aa(lp904
g2
(g3
(S'S20'
p905
I0
I1
tp906
Rp907
(I3
S'|'
p908
NNNI20
I1
I0
tp909
bS'Walking To Jerusalem'
p910
tp911
Rp912
ag2
(g3
(S'S10'
p913
I0
I1
tp914
Rp915
(I3
S'|'
p916
NNNI10
I1
I0
tp917
bS'Tracy Byrd'
p918
tp919
Rp920
ag2
(g22
S'Lx\x7fF\xd7,\xe6?'
p921
tp922
Rp923
ag2
(g22
S'\xc1V\xe7\xb0\\\n\xdb?'
p924
tp925
Rp926
ag2
(g22
S'\xdd^\xd2\x18\xad"j@'
p927
tp928
Rp929
ag2
(g22
S'P\x8d\x97n\x12\x83\xd8?'
p930
tp931
Rp932
ag2
(g22
S'\xdfO\x8d\x97n\xfag@'
p933
tp934
Rp935
aF0.0559
aF0.689
aF0.827
aI0
aF-7.135
aF0.0326
aF116.611
aF0.786
aa(lp936
g2
(g3
(S'S9'
p937
I0
I1
tp938
Rp939
(I3
S'|'
p940
NNNI9
I1
I0
tp941
bS'Q1.1 Edit'
p942
tp943
Rp944
ag2
(g3
(S'S13'
p945
I0
I1
tp946
Rp947
(I3
S'|'
p948
NNNI13
I1
I0
tp949
bS'Basic Channel'
p950
tp951
Rp952
ag2
(g22
S'\xc2\x1eb\x1fe\xb7\xe1?'
p953
tp954
Rp955
ag2
(g22
S'#\xa2\xe6-\x86\r\xd7?'
p956
tp957
Rp958
ag2
(g22
S'm\xad/\x12\xdavO@'
p959
tp960
Rp961
ag2
(g22
S'H\xe1z\x14\xaeG\xd1?'
p962
tp963
Rp964
ag2
(g22
S'\xf8S\xe3\xa5\x9b\x14K@'
p965
tp966
Rp967
aF0.986
aF0.437
aF0.73
aF0.9
aF-23.314
aF0.0874
aF124.388
aF0.272
aa(lp968
g2
(g3
(S'S23'
p969
I0
I1
tp970
Rp971
(I3
S'|'
p972
NNNI23
I1
I0
tp973
bS"She Don't Belong To You"
p974
tp975
Rp976
ag2
(g3
(S'S9'
p977
I0
I1
tp978
Rp979
(I3
S'|'
p980
NNNI9
I1
I0
tp981
bS'Sue Foley'
p982
tp983
Rp984
ag2
(g22
S'|+t\x9e\xce\x80\xe2?'
p985
tp986
Rp987
ag2
(g22
S'\x10\xd4\xd5\x13\xb2\xbd\xd9?'
p988
tp989
Rp990
ag2
(g22
S']\xe1].\xe2\x14l@'
p991
tp992
Rp993
ag2
(g22
S'\x96C\x8bl\xe7\xfb\xd9?'
p994
tp995
Rp996
ag2
(g22
S'\xf6(\\\x8f\xc2\xcdj@'
p997
tp998
Rp999
aF0.157
aF0.622
aF0.648
aF0.000293
aF-6.119
aF0.0261
aF105.1
aF0.573
aa(lp1000
g2
(g3
(S'S19'
p1001
I0
I1
tp1002
Rp1003
(I3
S'|'
p1004
NNNI19
I1
I0
tp1005
bS"Blowin' In the Wind"
p1006
tp1007
Rp1008
ag2
(g3
(S'S10'
p1009
I0
I1
tp1010
Rp1011
(I3
S'|'
p1012
NNNI10
I1
I0
tp1013
bS'Ben Sidran'
p1014
tp1015
Rp1016
ag2
(g22
S'\xaey\xe7>\xab2\xe3?'
p1017
tp1018
Rp1019
ag2
(g22
S'\xa7\x99P\xf9\xbc\xd5\xd6?'
p1020
tp1021
Rp1022
ag2
(g22
S'm\x90IF\xce<s@'
p1023
tp1024
Rp1025
ag2
(g22
S'\xdb\xf9~j\xbct\x07@'
p1026
tp1027
Rp1028
ag2
(g22
S'\xb0rh\x91\xed>r@'
p1029
tp1030
Rp1031
aF0.493
aF0.457
aF0.263
aF0.104
aF-18.528
aF0.0729
aF120.354
aF0.158
aa(lp1032
g2
(g3
(S'S13'
p1033
I0
I1
tp1034
Rp1035
(I3
S'|'
p1036
NNNI13
I1
I0
tp1037
bS'Let It All Go'
p1038
tp1039
Rp1040
ag2
(g3
(S'S12'
p1041
I0
I1
tp1042
Rp1043
(I3
S'|'
p1044
NNNI12
I1
I0
tp1045
bS'Krayzie Bone'
p1046
tp1047
Rp1048
ag2
(g22
S'\x84\xa8v\xcdl\xff\xe5?'
p1049
tp1050
Rp1051
ag2
(g22
S'\ni\xff*\xad4\xdc?'
p1052
tp1053
Rp1054
ag2
(g22
S'6\xab>W[\xf1e@'
p1055
tp1056
Rp1057
ag2
(g22
S'\x00\x00\x00\x00\x00\x00\x00\x00'
p1058
tp1059
Rp1060
ag2
(g22
S'\xd3Mb\x10X\xf1e@'
p1061
tp1062
Rp1063
aF0.0153
aF0.588
aF0.742
aI0
aF-5.203
aF0.0518
aF90.512
aF0.555
aa(lp1064
g2
(g3
(S'S11'
p1065
I0
I1
tp1066
Rp1067
(I3
S'|'
p1068
NNNI11
I1
I0
tp1069
bS'Hummingbird'
p1070
tp1071
Rp1072
ag2
(g3
(S'S10'
p1073
I0
I1
tp1074
Rp1075
(I3
S'|'
p1076
NNNI10
I1
I0
tp1077
bS'Jimmy Page'
p1078
tp1079
Rp1080
ag2
(g22
S'w\x02\xf3m\x16k\xe7?'
p1081
tp1082
Rp1083
ag2
(g22
S'\xc6)\xe3\xed82\xdb?'
p1084
tp1085
Rp1086
ag2
(g22
S'5\x98\x86\xe1\xa3/t@'
p1087
tp1088
Rp1089
ag2
(g22
S'\xcd\xcc\xcc\xcc\xcc\xcc\xe0?'
p1090
tp1091
Rp1092
ag2
(g22
S'\xc5 \xb0rh\xb9s@'
p1093
tp1094
Rp1095
aF0.282
aF0.413
aF0.382
aF4.8e-06
aF-13.611
aF0.0339
aF140.256
aF0.289
aa(lp1096
g2
(g3
(S'S77'
p1097
I0
I1
tp1098
Rp1099
(I3
S'|'
p1100
NNNI77
I1
I0
tp1101
bS'The Sound Of Music - [High Wycombe Town Hall Live 13 July 1979] (Sound Check)'
p1102
tp1103
Rp1104
ag2
(g3
(S'S12'
p1105
I0
I1
tp1106
Rp1107
(I3
S'|'
p1108
NNNI12
I1
I0
tp1109
bS'Joy Division'
p1110
tp1111
Rp1112
ag2
(g22
S'\xe0\xa5\xb2d\nu\xe8?'
p1113
tp1114
Rp1115
ag2
(g22
S'\x8c-\xf0z\x01q\xe2?'
p1116
tp1117
Rp1118
ag2
(g22
S'\x80\xd4&N\xee\xaan@'
p1119
tp1120
Rp1121
ag2
(g22
S'\x00\x00\x00\x00\x00\x00\x00\x00'
p1122
tp1123
Rp1124
ag2
(g22
S'm\xe7\xfb\xa9\xf1\xaan@'
p1125
tp1126
Rp1127
aF1.95e-05
aF0.469
aF0.95
aF0.853
aF-5.978
aF0.124
aF117.637
aF0.133
aa(lp1128
g2
(g3
(S'S31'
p1129
I0
I1
tp1130
Rp1131
(I3
S'|'
p1132
NNNI31
I1
I0
tp1133
bS'Canon In D Major (J. Pachelbel)'
p1134
tp1135
Rp1136
ag2
(g3
(S'S14'
p1137
I0
I1
tp1138
Rp1139
(I3
S'|'
p1140
NNNI14
I1
I0
tp1141
bS'Mariano Yanani'
p1142
tp1143
Rp1144
ag2
(g22
S'\xe0\x03G\xfb\x91M\xd8?'
p1145
tp1146
Rp1147
ag2
(g22
S'\xdaNA\xd6a\x16\xd4?'
p1148
tp1149
Rp1150
ag2
(g22
S'\x18x\xee=\\\rh@'
p1151
tp1152
Rp1153
ag2
(g22
S'\x17\xd9\xce\xf7S\xe3\xdd?'
p1154
tp1155
Rp1156
ag2
(g22
S'R\xb8\x1e\x85\xeb\xf1f@'
p1157
tp1158
Rp1159
aF0.971
aF0.115
aF0.215
aF0.91
aF-15.331
aF0.043
aF171.787
aF0.314
aa(lp1160
g2
(g3
(S'S20'
p1161
I0
I1
tp1162
Rp1163
(I3
S'|'
p1164
NNNI20
I1
I0
tp1165
bS'Friends Of All Races'
p1166
tp1167
Rp1168
ag2
(g3
(S'S13'
p1169
I0
I1
tp1170
Rp1171
(I3
S'|'
p1172
NNNI13
I1
I0
tp1173
bS'Rocky Whatule'
p1174
tp1175
Rp1176
ag2
(g22
S'p\xbc\xa86\x1b\x00\x93?'
p1177
tp1178
Rp1179
ag2
(g22
S'\x94\x10\xe0\xbb1\xb2\xa9?'
p1180
tp1181
Rp1182
ag2
(g22
S'\xa6\xd0y\x8d\xdd\xbbq@'
p1183
tp1184
Rp1185
ag2
(g22
S'\x00\x00\x00\x00\x00\x00\x00\x00'
p1186
tp1187
Rp1188
ag2
(g22
S'\x1dZd;\xdf\xbbq@'
p1189
tp1190
Rp1191
aF0.703
aF0.366
aF0.975
aI0
aF-8.086
aF0.696
aF86.367
aF0.516
aa(lp1192
g2
(g3
(S'S42'
p1193
I0
I1
tp1194
Rp1195
(I3
S'|'
p1196
NNNI42
I1
I0
tp1197
bS'Love Shines Through  (Dream Album Version)'
p1198
tp1199
Rp1200
ag2
(g3
(S'S14'
p1201
I0
I1
tp1202
Rp1203
(I3
S'|'
p1204
NNNI14
I1
I0
tp1205
bS'Michelle Tumes'
p1206
tp1207
Rp1208
ag2
(g22
S'\xc1E\xfd\xd3\xfa\x9c\xe3?'
p1209
tp1210
Rp1211
ag2
(g22
S'\xe33\xd8a\x0eX\xd9?'
p1212
tp1213
Rp1214
ag2
(g22
S'\x08rP\xc2L\x07m@'
p1215
tp1216
Rp1217
ag2
(g22
S'D\x8bl\xe7\xfb\xa9\xd1?'
p1218
tp1219
Rp1220
ag2
(g22
S'\xf2\xd2Mb\x10(k@'
p1221
tp1222
Rp1223
aF0.00424
aF0.654
aF0.86
aF1.8e-05
aF-5.128
aF0.0336
aF120.019
aF0.514
aa(lp1224
g2
(g3
(S'S13'
p1225
I0
I1
tp1226
Rp1227
(I3
S'|'
p1228
NNNI13
I1
I0
tp1229
bS'Suck My Blood'
p1230
tp1231
Rp1232
ag2
(g3
(S'S7'
p1233
I0
I1
tp1234
Rp1235
(I3
S'|'
p1236
NNNI7
I1
I0
tp1237
bS'Beherit'
p1238
tp1239
Rp1240
ag2
(g22
S'9\x8cLi\xf2\x13\xe3?'
p1241
tp1242
Rp1243
ag2
(g22
S'\xb5[r\xe4\xd1[\xdb?'
p1244
tp1245
Rp1246
ag2
(g22
S'Ral!H\xaep@'
p1247
tp1248
Rp1249
ag2
(g22
S'\xc9v\xbe\x9f\x1a/\xe9?'
p1250
tp1251
Rp1252
ag2
(g22
S'?5^\xbaI\xaep@'
p1253
tp1254
Rp1255
aF2.14e-05
aF0.21
aF0.857
aF0.0998
aF-5.798
aF0.0796
aF149.739
aF0.0978
aa(lp1256
g2
(g3
(S'S6'
p1257
I0
I1
tp1258
Rp1259
(I3
S'|'
p1260
NNNI6
I1
I0
tp1261
bS'Jane 5'
p1262
tp1263
Rp1264
ag2
(g3
(S'S4'
p1265
I0
I1
tp1266
Rp1267
(I3
S'|'
p1268
NNNI4
I1
I0
tp1269
bS'EPMD'
p1270
tp1271
Rp1272
ag2
(g22
S'c\xcc\xd5\xacgX\xe6?'
p1273
tp1274
Rp1275
ag2
(g22
S'\x9e\x08\xb8\xfb\xe1\x0b\xdd?'
p1276
tp1277
Rp1278
ag2
(g22
S'*\x1d\xac\xffs+d@'
p1279
tp1280
Rp1281
ag2
(g22
S'\x8d\x97n\x12\x83\xc0\xd2?'
p1282
tp1283
Rp1284
ag2
(g22
S'\xaeG\xe1z\x14\x86b@'
p1285
tp1286
Rp1287
aF0.0184
aF0.721
aF0.538
aF0.000317
aF-8.281
aF0.388
aF86.927
aF0.393
aa(lp1288
g2
(g3
(S'S11'
p1289
I0
I1
tp1290
Rp1291
(I3
S'|'
p1292
NNNI11
I1
I0
tp1293
bS'White Jetta'
p1294
tp1295
Rp1296
ag2
(g3
(S'S33'
p1297
I0
I1
tp1298
Rp1299
(I3
S'|'
p1300
NNNI33
I1
I0
tp1301
bS'Casiotone For The Painfully Alone'
p1302
tp1303
Rp1304
ag2
(g22
S'{\x17\xd6\xb3QJ\xe5?'
p1305
tp1306
Rp1307
ag2
(g22
S'\r<3\xc6\xda:\xd9?'
p1308
tp1309
Rp1310
ag2
(g22
S'\x8eX\x8bO\x01\xa8h@'
p1311
tp1312
Rp1313
ag2
(g22
S'\x1b/\xdd$\x06\x81\xb5?'
p1314
tp1315
Rp1316
ag2
(g22
S'\x00\x00\x00\x00\x00\xa8h@'
p1317
tp1318
Rp1319
aF0.0468
aF0.658
aF0.868
aF0.075
aF-9.848
aF0.0892
aF90.057
aF0.0389
aa(lp1320
g2
(g3
(S'S13'
p1321
I0
I1
tp1322
Rp1323
(I3
S'|'
p1324
NNNI13
I1
I0
tp1325
bS'Need To Shout'
p1326
tp1327
Rp1328
ag2
(g3
(S'S24'
p1329
I0
I1
tp1330
Rp1331
(I3
S'|'
p1332
NNNI24
I1
I0
tp1333
bS'Architecture In Helsinki'
p1334
tp1335
Rp1336
ag2
(g22
S'\xf0\xec\xd8\x96 \xda\xe9?'
p1337
tp1338
Rp1339
ag2
(g22
S'\x14[\xd6\xa2r*\xe0?'
p1340
tp1341
Rp1342
ag2
(g22
S"E\x81>\x91')o@"
p1343
tp1344
Rp1345
ag2
(g22
S'\x00\x00\x00\x00\x00\x00\x00\x00'
p1346
tp1347
Rp1348
ag2
(g22
S'\x1dZd;\xdfKm@'
p1349
tp1350
Rp1351
aF0.319
aF0.602
aF0.606
aF0.00102
aF-10.224
aF0.101
aF139.877
aF0.53
aa(lp1352
g2
(g3
(S'S5'
p1353
I0
I1
tp1354
Rp1355
(I3
S'|'
p1356
NNNI5
I1
I0
tp1357
bS'Sista'
p1358
tp1359
Rp1360
ag2
(g3
(S'S9'
p1361
I0
I1
tp1362
Rp1363
(I3
S'|'
p1364
NNNI9
I1
I0
tp1365
bS'City High'
p1366
tp1367
Rp1368
ag2
(g22
S"+\xcc'\xc8o\xa6\xe4?"
p1369
tp1370
Rp1371
ag2
(g22
S'\xf1\x1e\x8etv\xab\xd9?'
p1372
tp1373
Rp1374
ag2
(g22
S'\xce\x88\xd2\xde\xe0\xeal@'
p1375
tp1376
Rp1377
ag2
(g22
S'\x00\x00\x00\x00\x00\x00\x00\x00'
p1378
tp1379
Rp1380
ag2
(g22
S'\x02+\x87\x16\xd9^k@'
p1381
tp1382
Rp1383
aF0.0616
aF0.648
aF0.653
aI0
aF-8.364
aF0.0814
aF80.008
aF0.637
aa(lp1384
g2
(g3
(S'S6'
p1385
I0
I1
tp1386
Rp1387
(I3
S'|'
p1388
NNNI6
I1
I0
tp1389
bS'Own Me'
p1390
tp1391
Rp1392
ag2
(g3
(S'S13'
p1393
I0
I1
tp1394
Rp1395
(I3
S'|'
p1396
NNNI13
I1
I0
tp1397
bS'The Frequency'
p1398
tp1399
Rp1400
ag2
(g22
S'\xde\x8cY\x8c\x8e0\xe2?'
p1401
tp1402
Rp1403
ag2
(g22
S'\x9b\xcd\xca\x10Sq\xd5?'
p1404
tp1405
Rp1406
ag2
(g22
S'\xf4\xfd\xd4x\xe9\xcaq@'
p1407
tp1408
Rp1409
ag2
(g22
S'\x00\x00\x00\x00\x00\x00\x00\x00'
p1410
tp1411
Rp1412
ag2
(g22
S'L7\x89A`\x01q@'
p1413
tp1414
Rp1415
aF0.265
aF0.677
aF0.679
aF0.763
aF-10.939
aF0.0903
aF76.845
aF0.889
aa(lp1416
g2
(g3
(S'S27'
p1417
I0
I1
tp1418
Rp1419
(I3
S'|'
p1420
NNNI27
I1
I0
tp1421
bS'Someday (I Will Understand)'
p1422
tp1423
Rp1424
ag2
(g3
(S'S14'
p1425
I0
I1
tp1426
Rp1427
(I3
S'|'
p1428
NNNI14
I1
I0
tp1429
bS'Britney Spears'
p1430
tp1431
Rp1432
ag2
(g22
S'\x0e&s\xc6\x81P\xee?'
p1433
tp1434
Rp1435
ag2
(g22
S'\xfc\xec\x81\xd1\xa6n\xe3?'
p1436
tp1437
Rp1438
ag2
(g22
S'\xd9%\xaa\xb7\x06\xb6\xf0?'
p1439
tp1440
Rp1441
ag2
(g22
S'\x00\x00\x00\x00\x00\x00\x00\x00'
p1442
tp1443
Rp1444
ag2
(g22
S'Nb\x10X9\xb4\xf0?'
p1445
tp1446
Rp1447
aF0.732
aF0.523
aF0.561
aF2.55e-05
aF-9.444
aF0.0275
aF135.972
aF0.176
aa(lp1448
g2
(g3
(S'S15'
p1449
I0
I1
tp1450
Rp1451
(I3
S'|'
p1452
NNNI15
I1
I0
tp1453
bS'Me vuelves loco'
p1454
tp1455
Rp1456
ag2
(g3
(S'S14'
p1457
I0
I1
tp1458
Rp1459
(I3
S'|'
p1460
NNNI14
I1
I0
tp1461
bS'Caballo Dorado'
p1462
tp1463
Rp1464
ag2
(g22
S'\xb1\xa5\xb0\xba\xe4x\xde?'
p1465
tp1466
Rp1467
ag2
(g22
S'GE\xeb\xbbjc\xd3?'
p1468
tp1469
Rp1470
ag2
(g22
S'\x05\xfaD\x9e$\xc7g@'
p1471
tp1472
Rp1473
ag2
(g22
S'\x00\x00\x00\x00\x00\x00\x00\x00'
p1474
tp1475
Rp1476
ag2
(g22
S'\x19\x04V\x0e-:f@'
p1477
tp1478
Rp1479
aF0.0263
aF0.673
aF0.685
aF1.21e-06
aF-7.971
aF0.0307
aF80.807
aF0.681
aa(lp1480
g2
(g3
(S'S12'
p1481
I0
I1
tp1482
Rp1483
(I3
S'|'
p1484
NNNI12
I1
I0
tp1485
bS'Morghe Eshgh'
p1486
tp1487
Rp1488
ag2
(g3
(S'S14'
p1489
I0
I1
tp1490
Rp1491
(I3
S'|'
p1492
NNNI14
I1
I0
tp1493
bS'Mohammad Nouri'
p1494
tp1495
Rp1496
ag2
(g22
S'< \x9bKZ*\xd1?'
p1497
tp1498
Rp1499
ag2
(g22
S'7\xcc\x02\x89\xc5t\xd7?'
p1500
tp1501
Rp1502
ag2
(g22
S'\xa0O\xe4I\xd2\x00l@'
p1503
tp1504
Rp1505
ag2
(g22
S'\x00\x00\x00\x00\x00\x00\x00\x00'
p1506
tp1507
Rp1508
ag2
(g22
S'\x9a\x99\x99\x99\x99\xcdj@'
p1509
tp1510
Rp1511
aF0.972
aF0.314
aF0.123
aF0.115
aF-15.758
aF0.0324
aF86.652
aF0.253
aa(lp1512
g2
(g3
(S'S27'
p1513
I0
I1
tp1514
Rp1515
(I3
S'|'
p1516
NNNI27
I1
I0
tp1517
bS'The Other Side Of That Hill'
p1518
tp1519
Rp1520
ag2
(g3
(S'S17'
p1521
I0
I1
tp1522
Rp1523
(I3
S'|'
p1524
NNNI17
I1
I0
tp1525
bS'Barbara Fairchild'
p1526
tp1527
Rp1528
ag2
(g22
S'\xe5[J\x86Ei\xdb?'
p1529
tp1530
Rp1531
ag2
(g22
S'\xc9\x02e=[\xc2\xd7?'
p1532
tp1533
Rp1534
ag2
(g22
S'Z\xbb\xedB\xf3\x93t@'
p1535
tp1536
Rp1537
ag2
(g22
S'\x00\x00\x00\x00\x00\x00\x00\x00'
p1538
tp1539
Rp1540
ag2
(g22
S'\xdb\xf9~j\xbc\xeas@'
p1541
tp1542
Rp1543
aF0.181
aF0.487
aF0.496
aI0
aF-7.145
aF0.0281
aF151.978
aF0.365
aa(lp1544
g2
(g3
(S'S9'
p1545
I0
I1
tp1546
Rp1547
(I3
S'|'
p1548
NNNI9
I1
I0
tp1549
bS'Elementro'
p1550
tp1551
Rp1552
ag2
(g3
(S'S11'
p1553
I0
I1
tp1554
Rp1555
(I3
S'|'
p1556
NNNI11
I1
I0
tp1557
bS'TEN MADISON'
p1558
tp1559
Rp1560
ag2
(g22
S'l/\xd59B\xac\xdc?'
p1561
tp1562
Rp1563
ag2
(g22
S'\xa6:\xe3\xefwJ\xd6?'
p1564
tp1565
Rp1566
ag2
(g22
S'H\xbf}\x1d\xb8Vy@'
p1567
tp1568
Rp1569
ag2
(g22
S'\xe9&1\x08\xac\x9c\x18@'
p1570
tp1571
Rp1572
ag2
(g22
S'\xd3Mb\x10XAv@'
p1573
tp1574
Rp1575
aF0.00125
aF0.663
aF0.954
aF0.878
aF-7.929
aF0.0493
aF138.998
aF0.424
aa(lp1576
g2
(g3
(S'S9'
p1577
I0
I1
tp1578
Rp1579
(I3
S'|'
p1580
NNNI9
I1
I0
tp1581
bS'Salvation'
p1582
tp1583
Rp1584
ag2
(g3
(S'S10'
p1585
I0
I1
tp1586
Rp1587
(I3
S'|'
p1588
NNNI10
I1
I0
tp1589
bS'Chroma Key'
p1590
tp1591
Rp1592
ag2
(g22
S'Cdb\xdf\xbb\x85\xe2?'
p1593
tp1594
Rp1595
ag2
(g22
S'\x16\xa1\xeaT\xf6\xaa\xd9?'
p1596
tp1597
Rp1598
ag2
(g22
S'\xce\xdf\x84B\x04\nd@'
p1599
tp1600
Rp1601
ag2
(g22
S'\x00\x00\x00\x00\x00\x00\x00\x00'
p1602
tp1603
Rp1604
ag2
(g22
S')\\\x8f\xc2\xf5|c@'
p1605
tp1606
Rp1607
aF0.468
aF0.541
aF0.423
aF0.464
aF-11.694
aF0.0277
aF120.034
aF0.217
aa(lp1608
g2
(g3
(S'S6'
p1609
I0
I1
tp1610
Rp1611
(I3
S'|'
p1612
NNNI6
I1
I0
tp1613
bS'Listen'
p1614
tp1615
Rp1616
ag2
(g3
(S'S12'
p1617
I0
I1
tp1618
Rp1619
(I3
S'|'
p1620
NNNI12
I1
I0
tp1621
bS'Mykill Miers'
p1622
tp1623
Rp1624
ag2
(g22
S'\xbfT\x93\xca\x85m\xdc?'
p1625
tp1626
Rp1627
ag2
(g22
S'\xafQ1\xbdJ\xe6\xd4?'
p1628
tp1629
Rp1630
ag2
(g22
S'\\ A\xf1c\x90m@'
p1631
tp1632
Rp1633
ag2
(g22
S'y\xe9&1\x08\xac\xd4?'
p1634
tp1635
Rp1636
ag2
(g22
S'h\x91\xed|?%l@'
p1637
tp1638
Rp1639
aF0.293
aF0.83
aF0.485
aI0
aF-14.207
aF0.524
aF91.059
aF0.824
aa(lp1640
g2
(g3
(S'S52'
p1641
I0
I1
tp1642
Rp1643
(I3
S'|'
p1644
NNNI52
I1
I0
tp1645
bS'Till There Was You (John Creamer & Stephane K Remix)'
p1646
tp1647
Rp1648
ag2
(g3
(S'S13'
p1649
I0
I1
tp1650
Rp1651
(I3
S'|'
p1652
NNNI13
I1
I0
tp1653
bS'Rachael Starr'
p1654
tp1655
Rp1656
ag2
(g22
S'I\x9dB\xcc\x1d\xa9\xe3?'
p1657
tp1658
Rp1659
ag2
(g22
S'3\xff\x051\xc6b\xdb?'
p1660
tp1661
Rp1662
ag2
(g22
S'\r\xe0-\x90\xe0\x01\x83@'
p1663
tp1664
Rp1665
ag2
(g22
S'\x00\x00\x00\x00\x00\x00\x00\x00'
p1666
tp1667
Rp1668
ag2
(g22
S'\xf6(\\\x8f\xc2\xb7\x82@'
p1669
tp1670
Rp1671
aF0.0212
aF0.798
aF0.559
aF0.697
aF-16.139
aF0.0928
aF127.964
aF0.69
aa(lp1672
g2
(g3
(S'S28'
p1673
I0
I1
tp1674
Rp1675
(I3
S'|'
p1676
NNNI28
I1
I0
tp1677
bS'Two Guitars Shuffle (take 1)'
p1678
tp1679
Rp1680
ag2
(g3
(S'S13'
p1681
I0
I1
tp1682
Rp1683
(I3
S'|'
p1684
NNNI13
I1
I0
tp1685
bS'Lonnie Brooks'
p1686
tp1687
Rp1688
ag2
(g22
S'\xbb\xd4}\n\xf1L\xdc?'
p1689
tp1690
Rp1691
ag2
(g22
S'\xa8\x15\x85K\xf8\x9f\xd8?'
p1692
tp1693
Rp1694
ag2
(g22
S'\xb9\xdf\xa1(\xd0\xfbu@'
p1695
tp1696
Rp1697
ag2
(g22
S'\x00\x00\x00\x00\x00\x00\x00\x00'
p1698
tp1699
Rp1700
ag2
(g22
S'33333\xc7u@'
p1701
tp1702
Rp1703
aF0.0946
aF0.591
aF0.551
aF0.802
aF-10.962
aF0.0306
aF123.565
aF0.754
aa(lp1704
g2
(g3
(S'S30'
p1705
I0
I1
tp1706
Rp1707
(I3
S'|'
p1708
NNNI30
I1
I0
tp1709
bS'What If I Forget The Champagne'
p1710
tp1711
Rp1712
ag2
(g3
(S'S14'
p1713
I0
I1
tp1714
Rp1715
(I3
S'|'
p1716
NNNI14
I1
I0
tp1717
bS'Stanley Clarke'
p1718
tp1719
Rp1720
ag2
(g22
S'1[\xa9\xe4`\r\xe5?'
p1721
tp1722
Rp1723
ag2
(g22
S'\xf1\x83\xafI\xb2\xc0\xdd?'
p1724
tp1725
Rp1726
ag2
(g22
S'\xe9C\x17\xd47\x8cs@'
p1727
tp1728
Rp1729
ag2
(g22
S'\x9a\x99\x99\x99\x99\x99\xe1?'
p1730
tp1731
Rp1732
ag2
(g22
S'\xac\x1cZd;\xdfr@'
p1733
tp1734
Rp1735
aF0.74
aF0.505
aF0.343
aF0.859
aF-15.343
aF0.0307
aF123.211
aF0.196
aa(lp1736
g2
(g3
(S'S14'
p1737
I0
I1
tp1738
Rp1739
(I3
S'|'
p1740
NNNI14
I1
I0
tp1741
bS'Nobody In Mind'
p1742
tp1743
Rp1744
ag2
(g3
(S'S10'
p1745
I0
I1
tp1746
Rp1747
(I3
S'|'
p1748
NNNI10
I1
I0
tp1749
bS'Joe Turner'
p1750
tp1751
Rp1752
ag2
(g22
S'A\xc1\x05 \xf8\xf2\xe0?'
p1753
tp1754
Rp1755
ag2
(g22
S'\xd9\xac-\x0c\x07\n\xd4?'
p1756
tp1757
Rp1758
ag2
(g22
S'[%X\x1c\xcete@'
p1759
tp1760
Rp1761
ag2
(g22
S'\x00\x00\x00\x00\x00\x00\x00\x00'
p1762
tp1763
Rp1764
ag2
(g22
S'H\xe1z\x14\xae\x07e@'
p1765
tp1766
Rp1767
aF0.938
aF0.579
aF0.177
aF0.0041
aF-13.389
aF0.0329
aF74.147
aF0.697
aa(lp1768
g2
(g3
(S'S10'
p1769
I0
I1
tp1770
Rp1771
(I3
S'|'
p1772
NNNI10
I1
I0
tp1773
bS'All Is One'
p1774
tp1775
Rp1776
ag2
(g3
(S'S5'
p1777
I0
I1
tp1778
Rp1779
(I3
S'|'
p1780
NNNI5
I1
I0
tp1781
bS'Atman'
p1782
tp1783
Rp1784
ag2
(g22
S'\xc0\xe5\x1a\x05\xa0\xd5\xe0?'
p1785
tp1786
Rp1787
ag2
(g22
S'\x03\x00-\x91\xcb\xf8\xd7?'
p1788
tp1789
Rp1790
ag2
(g22
S'\xef\xac\xddv!\x1f{@'
p1791
tp1792
Rp1793
ag2
(g22
S'\x10X9\xb4\xc8v\x1f@'
p1794
tp1795
Rp1796
ag2
(g22
S'\xdfO\x8d\x97npz@'
p1797
tp1798
Rp1799
aF0.718
aF0.584
aF0.634
aF0.644
aF-7.78
aF0.0377
aF90.013
aF0.403
aa(lp1800
g2
(g3
(S'S10'
p1801
I0
I1
tp1802
Rp1803
(I3
S'|'
p1804
NNNI10
I1
I0
tp1805
bS'Run A Mile'
p1806
tp1807
Rp1808
ag2
(g3
(S'S19'
p1809
I0
I1
tp1810
Rp1811
(I3
S'|'
p1812
NNNI19
I1
I0
tp1813
bS'The Pineapple Thief'
p1814
tp1815
Rp1816
ag2
(g22
S'\xc0\x8e\xaai\x86\xcc\xe2?'
p1817
tp1818
Rp1819
ag2
(g22
S'\x9b\xd4\x11\x04}\r\xdf?'
p1820
tp1821
Rp1822
ag2
(g22
S'\xb2\x9d\xef\xa7F\xfdx@'
p1823
tp1824
Rp1825
ag2
(g22
S'\xe5\xd0"\xdb\xf9~\x07@'
p1826
tp1827
Rp1828
ag2
(g22
S'+\x87\x16\xd9\xcewx@'
p1829
tp1830
Rp1831
aF0.00207
aF0.563
aF0.825
aF0.0748
aF-8.047
aF0.0423
aF140.034
aF0.0762
aa(lp1832
g2
(g3
(S'S25'
p1833
I0
I1
tp1834
Rp1835
(I3
S'|'
p1836
NNNI25
I1
I0
tp1837
bS"Cranford: Deborah's Vigil"
p1838
tp1839
Rp1840
ag2
(g3
(S'S10'
p1841
I0
I1
tp1842
Rp1843
(I3
S'|'
p1844
NNNI10
I1
I0
tp1845
bS'Carl Davis'
p1846
tp1847
Rp1848
ag2
(g22
S'\xb4\x02"\xb0\x10\x94\xda?'
p1849
tp1850
Rp1851
ag2
(g22
S'\x8cU\xa7\xf8\xb7k\xd4?'
p1852
tp1853
Rp1854
ag2
(g22
S'\xd4\xb7\xcc\xe9\xb2\xe6d@'
p1855
tp1856
Rp1857
ag2
(g22
S'1\x08\xac\x1cZd\xbb?'
p1858
tp1859
Rp1860
ag2
(g22
S'{\x14\xaeG\xe1\nd@'
p1861
tp1862
Rp1863
aF0.986
aF0.168
aF0.0758
aF0.817
aF-22.583
aF0.045
aF74.707
aF0.0396
aa(lp1864
g2
(g3
(S'S9'
p1865
I0
I1
tp1866
Rp1867
(I3
S'|'
p1868
NNNI9
I1
I0
tp1869
bS'Dragonfly'
p1870
tp1871
Rp1872
ag2
(g3
(S'S10'
p1873
I0
I1
tp1874
Rp1875
(I3
S'|'
p1876
NNNI10
I1
I0
tp1877
bS'Diesel Boy'
p1878
tp1879
Rp1880
ag2
(g22
S'\xaa\xc4\xc2\xd1\x88+\xe2?'
p1881
tp1882
Rp1883
ag2
(g22
S'\x92\xf4\xc0\xa1\xaa\x1b\xd8?'
p1884
tp1885
Rp1886
ag2
(g22
S'\x83\x86\xfe\t.\x82a@'
p1887
tp1888
Rp1889
ag2
(g22
S'Zd;\xdfO\x8d\xd7?'
p1890
tp1891
Rp1892
ag2
(g22
S'!\xb0rh\x91\x8d_@'
p1893
tp1894
Rp1895
aF0.00397
aF0.387
aF0.976
aF0.000739
aF-4.783
aF0.128
aF106.514
aF0.635
aa(lp1896
g2
(g3
(S'S5'
p1897
I0
I1
tp1898
Rp1899
(I3
S'|'
p1900
NNNI5
I1
I0
tp1901
bS'Oh No'
p1902
tp1903
Rp1904
ag2
(g3
(S'S15'
p1905
I0
I1
tp1906
Rp1907
(I3
S'|'
p1908
NNNI15
I1
I0
tp1909
bS'Daniel Johnston'
p1910
tp1911
Rp1912
ag2
(g22
S'*\xc8]\xf7\x88\xd3\xe6?'
p1913
tp1914
Rp1915
ag2
(g22
S'\xfe\x94\xd4\xb1\xadO\xde?'
p1916
tp1917
Rp1918
ag2
(g22
S';\xe4f\xb8\x01\xb6m@'
p1919
tp1920
Rp1921
ag2
(g22
S'\x08\xac\x1cZd;\xaf?'
p1922
tp1923
Rp1924
ag2
(g22
S'\xe3\xa5\x9b\xc4 Xm@'
p1925
tp1926
Rp1927
aF0.991
aF0.349
aF0.183
aF0.847
aF-21.111
aF0.0324
aF106.176
aF0.327
aa(lp1928
g2
(g3
(S'S18'
p1929
I0
I1
tp1930
Rp1931
(I3
S'|'
p1932
NNNI18
I1
I0
tp1933
bS'Question Authority'
p1934
tp1935
Rp1936
ag2
(g3
(S'S12'
p1937
I0
I1
tp1938
Rp1939
(I3
S'|'
p1940
NNNI12
I1
I0
tp1941
bS'Circle Jerks'
p1942
tp1943
Rp1944
ag2
(g22
S"\xa3\xb1<]'T\xe5?"
p1945
tp1946
Rp1947
ag2
(g22
S'Hq\xa70G\x80\xda?'
p1948
tp1949
Rp1950
ag2
(g22
S'\xfe\x0eE\x81>\xa9^@'
p1951
tp1952
Rp1953
ag2
(g22
S'\x83\xc0\xca\xa1Ev @'
p1954
tp1955
Rp1956
ag2
(g22
S'o\x12\x83\xc0\xcaa\\@'
p1957
tp1958
Rp1959
aF0.00352
aF0.378
aF0.823
aF2.22e-05
aF-10.717
aF0.0431
aF99.658
aF0.556
aa(lp1960
g2
(g3
(S'S15'
p1961
I0
I1
tp1962
Rp1963
(I3
S'|'
p1964
NNNI15
I1
I0
tp1965
bS'So Many Reasons'
p1966
tp1967
Rp1968
ag2
(g3
(S'S9'
p1969
I0
I1
tp1970
Rp1971
(I3
S'|'
p1972
NNNI9
I1
I0
tp1973
bS'Jake Hess'
p1974
tp1975
Rp1976
ag2
(g22
S'\x1b\xff6\xf9\xae\xf8\xd7?'
p1977
tp1978
Rp1979
ag2
(g22
S'\xb5\xd5\x9dSz\xf6\xd4?'
p1980
tp1981
Rp1982
ag2
(g22
S'+\xa4\xfc\xa4\xda\x18e@'
p1983
tp1984
Rp1985
ag2
(g22
S'\x8f\xc2\xf5(\\\x8f\xd2?'
p1986
tp1987
Rp1988
ag2
(g22
S'\x1f\x85\xebQ\xb8&d@'
p1989
tp1990
Rp1991
aF0.783
aF0.523
aF0.237
aF0.0345
aF-16.68
aF0.027
aF92.858
aF0.466
aa(lp1992
g2
(g3
(S'S22'
p1993
I0
I1
tp1994
Rp1995
(I3
S'|'
p1996
NNNI22
I1
I0
tp1997
bS'Anyone Who Had A Heart'
p1998
tp1999
Rp2000
ag2
(g3
(S'S10'
p2001
I0
I1
tp2002
Rp2003
(I3
S'|'
p2004
NNNI10
I1
I0
tp2005
bS'Cal Tjader'
p2006
tp2007
Rp2008
ag2
(g22
S'?\x0c+\xf7r\xf9\xe3?'
p2009
tp2010
Rp2011
ag2
(g22
S'\xbd\xf2-\x98\xf4\x9e\xd7?'
p2012
tp2013
Rp2014
ag2
(g22
S'\xbe\xd9\xe6\xc6\xf4\x03i@'
p2015
tp2016
Rp2017
ag2
(g22
S'\xaa\xf1\xd2Mb\x10\xd8?'
p2018
tp2019
Rp2020
ag2
(g22
S'\x08\xac\x1cZd/g@'
p2021
tp2022
Rp2023
aF0.639
aF0.384
aF0.241
aF0.912
aF-18.976
aF0.0321
aF108.92
aF0.219
aa(lp2024
g2
(g3
(S'S14'
p2025
I0
I1
tp2026
Rp2027
(I3
S'|'
p2028
NNNI14
I1
I0
tp2029
bS'Fortunate Fool'
p2030
tp2031
Rp2032
ag2
(g3
(S'S12'
p2033
I0
I1
tp2034
Rp2035
(I3
S'|'
p2036
NNNI12
I1
I0
tp2037
bS'Jack Johnson'
p2038
tp2039
Rp2040
ag2
(g22
S'}\xe2I%\xd7\x9f\xea?'
p2041
tp2042
Rp2043
ag2
(g22
S'1\xce\x98\xbc\xef\xad\xe5?'
p2044
tp2045
Rp2046
ag2
(g22
S'l&\xdfls\x96l@'
p2047
tp2048
Rp2049
ag2
(g22
S'+\x87\x16\xd9\xce\xf7\xb3?'
p2050
tp2051
Rp2052
ag2
(g22
S'sh\x91\xed|sj@'
p2053
tp2054
Rp2055
aF0.614
aF0.781
aF0.267
aF0.00362
aF-10.363
aF0.0508
aF129.318
aF0.299
aa(lp2056
g2
(g3
(S'S12'
p2057
I0
I1
tp2058
Rp2059
(I3
S'|'
p2060
NNNI12
I1
I0
tp2061
bS"I'll Be Glad"
p2062
tp2063
Rp2064
ag2
(g3
(S'S12'
p2065
I0
I1
tp2066
Rp2067
(I3
S'|'
p2068
NNNI12
I1
I0
tp2069
bS'Elvin Bishop'
p2070
tp2071
Rp2072
ag2
(g22
S'jG\xc3\xac\x08\xdf\xe1?'
p2073
tp2074
Rp2075
ag2
(g22
S'\x98\x87|$\xd6\x1a\xda?'
p2076
tp2077
Rp2078
ag2
(g22
S'5\xb5l\xad/\xfbt@'
p2079
tp2080
Rp2081
ag2
(g22
S'\x00\x00\x00\x00\x00\x00\x00\x00'
p2082
tp2083
Rp2084
ag2
(g22
S'\xd3Mb\x10X\x95t@'
p2085
tp2086
Rp2087
aF0.553
aF0.521
aF0.757
aI0
aF-4.233
aF0.0954
aF200.463
aF0.898
aa(lp2088
g2
(g3
(S'S39'
p2089
I0
I1
tp2090
Rp2091
(I3
S'|'
p2092
NNNI39
I1
I0
tp2093
bS'Wings Off Flies (2009 Digital Remaster)'
p2094
tp2095
Rp2096
ag2
(g3
(S'S25'
p2097
I0
I1
tp2098
Rp2099
(I3
S'|'
p2100
NNNI25
I1
I0
tp2101
bS'Nick Cave & The Bad Seeds'
p2102
tp2103
Rp2104
ag2
(g22
S'\x19\xa8"\x81t5\xe6?'
p2105
tp2106
Rp2107
ag2
(g22
S'\x1a\xfc\x02\x88\x9d\xae\xde?'
p2108
tp2109
Rp2110
ag2
(g22
S'vq\x1b\r\xe0\xcen@'
p2111
tp2112
Rp2113
ag2
(g22
S'\xf2\xd2Mb\x10\xd8\x1a@'
p2114
tp2115
Rp2116
ag2
(g22
S'\x83\xc0\xca\xa1E\x8am@'
p2117
tp2118
Rp2119
aF0.139
aF0.735
aF0.403
aF0.473
aF-11.599
aF0.037
aF115.658
aF0.453
aa(lp2120
g2
(g3
(S'S23'
p2121
I0
I1
tp2122
Rp2123
(I3
S'|'
p2124
NNNI23
I1
I0
tp2125
bS'Nothing Matters Anymore'
p2126
tp2127
Rp2128
ag2
(g3
(S'S9'
p2129
I0
I1
tp2130
Rp2131
(I3
S'|'
p2132
NNNI9
I1
I0
tp2133
bS'Showbread'
p2134
tp2135
Rp2136
ag2
(g22
S'}\nSa\x17[\xe6?'
p2137
tp2138
Rp2139
ag2
(g22
S'\x9bDg\xbd\xef~\xe1?'
p2140
tp2141
Rp2142
ag2
(g22
S'\xd6s\xd2\xfb\xc6\x86o@'
p2143
tp2144
Rp2145
ag2
(g22
S'\x00\x00\x00\x00\x00\x00\x00\x00'
p2146
tp2147
Rp2148
ag2
(g22
S'\xd3Mb\x10X5o@'
p2149
tp2150
Rp2151
aF0.000396
aF0.31
aF0.961
aI0
aF-3.794
aF0.0456
aF164.939
aF0.234
aa(lp2152
g2
(g3
(S'S22'
p2153
I0
I1
tp2154
Rp2155
(I3
S'|'
p2156
NNNI22
I1
I0
tp2157
bS'Working On The Highway'
p2158
tp2159
Rp2160
ag2
(g3
(S'S17'
p2161
I0
I1
tp2162
Rp2163
(I3
S'|'
p2164
NNNI17
I1
I0
tp2165
bS'Bruce Springsteen'
p2166
tp2167
Rp2168
ag2
(g22
S'[w\x13\xed\xab9\xeb?'
p2169
tp2170
Rp2171
ag2
(g22
S'Q\x1d\xd6\xb8\xad\xd1\xea?'
p2172
tp2173
Rp2174
ag2
(g22
S'\xf0\x16HP\xfc\xffg@'
p2175
tp2176
Rp2177
ag2
(g22
S'#\xdb\xf9~j\xbc\xec?'
p2178
tp2179
Rp2180
ag2
(g22
S'\x19\x04V\x0e-\xa2g@'
p2181
tp2182
Rp2183
aF0.0842
aF0.429
aF0.949
aI0
aF-5.295
aF0.0458
aF184.286
aF0.967
aa(lp2184
g2
(g3
(S'S7'
p2185
I0
I1
tp2186
Rp2187
(I3
S'|'
p2188
NNNI7
I1
I0
tp2189
bS'The Pig'
p2190
tp2191
Rp2192
ag2
(g3
(S'S9'
p2193
I0
I1
tp2194
Rp2195
(I3
S'|'
p2196
NNNI9
I1
I0
tp2197
bS'Showbread'
p2198
tp2199
Rp2200
ag2
(g22
S'}\nSa\x17[\xe6?'
p2201
tp2202
Rp2203
ag2
(g22
S'\x9bDg\xbd\xef~\xe1?'
p2204
tp2205
Rp2206
ag2
(g22
S'\xb1\x8a72\x8f\xb9h@'
p2207
tp2208
Rp2209
ag2
(g22
S'\x00\x00\x00\x00\x00\x00\x00\x00'
p2210
tp2211
Rp2212
ag2
(g22
S'X9\xb4\xc8v&h@'
p2213
tp2214
Rp2215
aF0.00191
aF0.391
aF0.586
aF0.124
aF-6.7
aF0.035
aF120.417
aF0.153
aa(lp2216
g2
(g3
(S'S12'
p2217
I0
I1
tp2218
Rp2219
(I3
S'|'
p2220
NNNI12
I1
I0
tp2221
bS"Gaya's Dream"
p2222
tp2223
Rp2224
ag2
(g3
(S'S13'
p2225
I0
I1
tp2226
Rp2227
(I3
S'|'
p2228
NNNI13
I1
I0
tp2229
bS'The Gathering'
p2230
tp2231
Rp2232
ag2
(g22
S'\x1f\xff-]L\xf8\xe8?'
p2233
tp2234
Rp2235
ag2
(g22
S'\x81\xb5\xf2\x80k\x15\xdf?'
p2236
tp2237
Rp2238
ag2
(g22
S'\xe6\x91?\x18\xf8\xb4v@'
p2239
tp2240
Rp2241
ag2
(g22
S'\xee|?5^\xba\xc9?'
p2242
tp2243
Rp2244
ag2
(g22
S'B`\xe5\xd0"Mv@'
p2245
tp2246
Rp2247
aF0.000692
aF0.217
aF0.647
aF0.701
aF-11.145
aF0.0354
aF130.964
aF0.39
aa(lp2248
g2
(g3
(S'S15'
p2249
I0
I1
tp2250
Rp2251
(I3
S'|'
p2252
NNNI15
I1
I0
tp2253
bS'Wang Wang Blues'
p2254
tp2255
Rp2256
ag2
(g3
(S'S10'
p2257
I0
I1
tp2258
Rp2259
(I3
S'|'
p2260
NNNI10
I1
I0
tp2261
bS'Hank Penny'
p2262
tp2263
Rp2264
ag2
(g22
S'\x1ad\x1d\xdd\xe1\x88\xdc?'
p2265
tp2266
Rp2267
ag2
(g22
S'\x1bd\xc1h\x0f?\xd6?'
p2268
tp2269
Rp2270
ag2
(g22
S'\x17HP\xfc\x18\xbd_@'
p2271
tp2272
Rp2273
ag2
(g22
S'F\xb6\xf3\xfd\xd4x\xd9?'
p2274
tp2275
Rp2276
ag2
(g22
S'm\xe7\xfb\xa9\xf1\xca]@'
p2277
tp2278
Rp2279
aF0.93
aF0.657
aF0.305
aF0.753
aF-10.241
aF0.0301
aF95.427
aF0.703
aa(lp2280
g2
(g3
(S'S37'
p2281
I0
I1
tp2282
Rp2283
(I3
S'|'
p2284
NNNI37
I1
I0
tp2285
bS'There Are More Questions Than Answers'
p2286
tp2287
Rp2288
ag2
(g3
(S'S11'
p2289
I0
I1
tp2290
Rp2291
(I3
S'|'
p2292
NNNI11
I1
I0
tp2293
bS'Johnny Nash'
p2294
tp2295
Rp2296
ag2
(g22
S'\x85\xc3v\x8fL\xfd\xe2?'
p2297
tp2298
Rp2299
ag2
(g22
S'\x15\x9e&q\xf0\x10\xda?'
p2300
tp2301
Rp2302
ag2
(g22
S'\xbe\xde\xfd\xf1^\xe8d@'
p2303
tp2304
Rp2305
ag2
(g22
S'\x00\x00\x00\x00\x00\x00\x00\x00'
p2306
tp2307
Rp2308
ag2
(g22
S'\\\x8f\xc2\xf5(\xd0c@'
p2309
tp2310
Rp2311
aF0.201
aF0.582
aF0.459
aF8.44e-05
aF-12.318
aF0.0376
aF81.4
aF0.946
aa(lp2312
g2
(g3
(S'S4'
p2313
I0
I1
tp2314
Rp2315
(I3
S'|'
p2316
NNNI4
I1
I0
tp2317
bS'Suba'
p2318
tp2319
Rp2320
ag2
(g3
(S'S11'
p2321
I0
I1
tp2322
Rp2323
(I3
S'|'
p2324
NNNI11
I1
I0
tp2325
bS'Jason Miles'
p2326
tp2327
Rp2328
ag2
(g22
S'3)\xc8\xab\xc6P\xdd?'
p2329
tp2330
Rp2331
ag2
(g22
S'-\xbf\xe95\xee\xca\xd7?'
p2332
tp2333
Rp2334
ag2
(g22
S'\xc2\xa3\x8d#V\x03p@'
p2335
tp2336
Rp2337
ag2
(g22
S'\x81\x95C\x8bl\xe7\xcb?'
p2338
tp2339
Rp2340
ag2
(g22
S'Nb\x10X9Ln@'
p2341
tp2342
Rp2343
aF0.012
aF0.786
aF0.681
aF0.424
aF-8.863
aF0.113
aF97.978
aF0.537
aa(lp2344
g2
(g3
(S'S18'
p2345
I0
I1
tp2346
Rp2347
(I3
S'|'
p2348
NNNI18
I1
I0
tp2349
bS'Love Is All Around'
p2350
tp2351
Rp2352
ag2
(g3
(S'S11'
p2353
I0
I1
tp2354
Rp2355
(I3
S'|'
p2356
NNNI11
I1
I0
tp2357
bS'Wet Wet Wet'
p2358
tp2359
Rp2360
ag2
(g22
S'\xfb&qf\x90\x8d\xe4?'
p2361
tp2362
Rp2363
ag2
(g22
S'j-\xec\xb7\x07Q\xda?'
p2364
tp2365
Rp2366
ag2
(g22
S'e\xc7F ^\xccn@'
p2367
tp2368
Rp2369
ag2
(g22
S'\xcb\xa1E\xb6\xf3\xfd\xe0?'
p2370
tp2371
Rp2372
ag2
(g22
S'{\x14\xaeG\xe16l@'
p2373
tp2374
Rp2375
aF0.208
aF0.443
aF0.698
aI0
aF-6.542
aF0.0318
aF168.243
aF0.535
aa(lp2376
g2
(g3
(S'S32'
p2377
I0
I1
tp2378
Rp2379
(I3
S'|'
p2380
NNNI32
I1
I0
tp2381
bS'Through the Looking Glass (jazz)'
p2382
tp2383
Rp2384
ag2
(g3
(S'S15'
p2385
I0
I1
tp2386
Rp2387
(I3
S'|'
p2388
NNNI15
I1
I0
tp2389
bS'Chris Standring'
p2390
tp2391
Rp2392
ag2
(g22
S'\x7f&\x1b\n\x1b\x12\xe2?'
p2393
tp2394
Rp2395
ag2
(g22
S'\xd2\x11"\xe9\xb8\x9e\xda?'
p2396
tp2397
Rp2398
ag2
(g22
S'U0*\xa9\x13Qp@'
p2399
tp2400
Rp2401
ag2
(g22
S'\xe3\xa5\x9b\xc4 \xb0\xb2?'
p2402
tp2403
Rp2404
ag2
(g22
S'\xaa\xf1\xd2Mb\x00o@'
p2405
tp2406
Rp2407
aF0.701
aF0.775
aF0.561
aF0.653
aF-9.538
aF0.0324
aF109.983
aF0.909
aa(lp2408
g2
(g3
(S'S25'
p2409
I0
I1
tp2410
Rp2411
(I3
S'|'
p2412
NNNI25
I1
I0
tp2413
bS"She Don't Move Me No More"
p2414
tp2415
Rp2416
ag2
(g3
(S'S7'
p2417
I0
I1
tp2418
Rp2419
(I3
S'|'
p2420
NNNI7
I1
I0
tp2421
bS'BB King'
p2422
tp2423
Rp2424
ag2
(g22
S'\x8a\xc2\x95\xdc\xf5\xad\xe6?'
p2425
tp2426
Rp2427
ag2
(g22
S'\xad\x9f!kpZ\xe1?'
p2428
tp2429
Rp2430
ag2
(g22
S':\x1e3P\x19Mg@'
p2431
tp2432
Rp2433
ag2
(g22
S'\x8bl\xe7\xfb\xa9\xf1\xf4?'
p2434
tp2435
Rp2436
ag2
(g22
S'\xdd$\x06\x81\x95\xb7f@'
p2437
tp2438
Rp2439
aF0.905
aF0.375
aF0.448
aF0.00756
aF-8.181
aF0.0564
aF68.962
aF0.543
aa(lp2440
g2
(g3
(S'S10'
p2441
I0
I1
tp2442
Rp2443
(I3
S'|'
p2444
NNNI10
I1
I0
tp2445
bS'Alma Mater'
p2446
tp2447
Rp2448
ag2
(g3
(S'S9'
p2449
I0
I1
tp2450
Rp2451
(I3
S'|'
p2452
NNNI9
I1
I0
tp2453
bS'Moonspell'
p2454
tp2455
Rp2456
ag2
(g22
S'\xbc\xe5\xc8RL\x1f\xe7?'
p2457
tp2458
Rp2459
ag2
(g22
S"Np\x95\x81'\xfd\xdf?"
p2460
tp2461
Rp2462
ag2
(g22
S'\x91~\xfb:p\xees@'
p2463
tp2464
Rp2465
ag2
(g22
S'\x00\x00\x00\x00\x00\x00\x00\x00'
p2466
tp2467
Rp2468
ag2
(g22
S'\xecQ\xb8\x1e\x855s@'
p2469
tp2470
Rp2471
aF0.000133
aF0.235
aF0.867
aF0.000938
aF-6.408
aF0.0647
aF142.939
aF0.305
aa(lp2472
g2
(g3
(S'S12'
p2473
I0
I1
tp2474
Rp2475
(I3
S'|'
p2476
NNNI12
I1
I0
tp2477
bS'Police Story'
p2478
tp2479
Rp2480
ag2
(g3
(S'S10'
p2481
I0
I1
tp2482
Rp2483
(I3
S'|'
p2484
NNNI10
I1
I0
tp2485
bS'Black Flag'
p2486
tp2487
Rp2488
ag2
(g22
S'\x19\xc0$k\x0ef\xe7?'
p2489
tp2490
Rp2491
ag2
(g22
S'\xa6\x84\xca\xed,\x85\xe1?'
p2492
tp2493
Rp2494
ag2
(g22
S'\x13f\xda\xfe\x95\x17W@'
p2495
tp2496
Rp2497
ag2
(g22
S'J\x0c\x02+\x87\x16\xc9?'
p2498
tp2499
Rp2500
ag2
(g22
S'\x10X9\xb4\xc8\xdeU@'
p2501
tp2502
Rp2503
aF0.106
aF0.285
aF0.914
aF0.353
aF-13.901
aF0.109
aF110.078
aF0.144
aa(lp2504
g2
(g3
(S'S11'
p2505
I0
I1
tp2506
Rp2507
(I3
S'|'
p2508
NNNI11
I1
I0
tp2509
bS'Knock Knock'
p2510
tp2511
Rp2512
ag2
(g3
(S'S15'
p2513
I0
I1
tp2514
Rp2515
(I3
S'|'
p2516
NNNI15
I1
I0
tp2517
bS'Joe Lynn Turner'
p2518
tp2519
Rp2520
ag2
(g22
S'\xcf\x19\x1f\xaea\xd7\xe3?'
p2521
tp2522
Rp2523
ag2
(g22
S"o'\x84\x99\xc2[\xd7?"
p2524
tp2525
Rp2526
ag2
(g22
S'tF\x94\xf6\x06\xe5l@'
p2527
tp2528
Rp2529
ag2
(g22
S'\xcb\xa1E\xb6\xf3\xfd\xd4?'
p2530
tp2531
Rp2532
ag2
(g22
S'\x14\xaeG\xe1zpl@'
p2533
tp2534
Rp2535
aF0.0162
aF0.577
aF0.936
aF4.88e-05
aF-6.641
aF0.0358
aF80.566
aF0.673
aa(lp2536
g2
(g3
(S'S20'
p2537
I0
I1
tp2538
Rp2539
(I3
S'|'
p2540
NNNI20
I1
I0
tp2541
bS'The Lonesome Boatman'
p2542
tp2543
Rp2544
ag2
(g3
(S'S10'
p2545
I0
I1
tp2546
Rp2547
(I3
S'|'
p2548
NNNI10
I1
I0
tp2549
bS'The Fureys'
p2550
tp2551
Rp2552
ag2
(g22
S'\x9fl\xd14^\xd8\xdd?'
p2553
tp2554
Rp2555
ag2
(g22
S'\xd6<\x07\xb1\xc5K\xd5?'
p2556
tp2557
Rp2558
ag2
(g22
S',\x9a\xceN\x06Pm@'
p2559
tp2560
Rp2561
ag2
(g22
S'\xa2E\xb6\xf3\xfd\xd4\x03@'
p2562
tp2563
Rp2564
ag2
(g22
S'\xd3Mb\x10X\xa9k@'
p2565
tp2566
Rp2567
aF0.411
aF0.321
aF0.429
aF0.00543
aF-13.085
aF0.106
aF99.183
aF0.379
aa(lp2568
g2
(g3
(S'S11'
p2569
I0
I1
tp2570
Rp2571
(I3
S'|'
p2572
NNNI11
I1
I0
tp2573
bS'Never Alone'
p2574
tp2575
Rp2576
ag2
(g3
(S'S14'
p2577
I0
I1
tp2578
Rp2579
(I3
S'|'
p2580
NNNI14
I1
I0
tp2581
bS'Walter Hawkins'
p2582
tp2583
Rp2584
ag2
(g22
S'\xd6-N\x02\xf7s\xde?'
p2585
tp2586
Rp2587
ag2
(g22
S'\xd1\xb7S\xb6\xb5\x18\xd4?'
p2588
tp2589
Rp2590
ag2
(g22
S'\xb7(\xb3A&@}@'
p2591
tp2592
Rp2593
ag2
(g22
S'\x00\x00\x00\x00\x00\x00\x00\x00'
p2594
tp2595
Rp2596
ag2
(g22
S'V\x0e-\xb2\x9d\xa1|@'
p2597
tp2598
Rp2599
aF0.46
aF0.44
aF0.543
aF0.00501
aF-13.519
aF0.0827
aF131.1
aF0.412
aa(lp2600
g2
(g3
(S'S44'
p2601
I0
I1
tp2602
Rp2603
(I3
S'|'
p2604
NNNI44
I1
I0
tp2605
bS"Junior Crehan's Favourite - Corney Is Coming"
p2606
tp2607
Rp2608
ag2
(g3
(S'S7'
p2609
I0
I1
tp2610
Rp2611
(I3
S'|'
p2612
NNNI7
I1
I0
tp2613
bS'Planxty'
p2614
tp2615
Rp2616
ag2
(g22
S'\xa1B\xee\xcb\xc3\x8a\xe1?'
p2617
tp2618
Rp2619
ag2
(g22
S'\x0c\xfaU\xa3a|\xd8?'
p2620
tp2621
Rp2622
ag2
(g22
S'%;6\x02\xf1\x85c@'
p2623
tp2624
Rp2625
ag2
(g22
S'\xf0\xa7\xc6K7\x89\xc1?'
p2626
tp2627
Rp2628
ag2
(g22
S'\xd1"\xdb\xf9~\xe6b@'
p2629
tp2630
Rp2631
aF0.577
aF0.583
aF0.516
aF0.803
aF-10.413
aF0.0283
aF101.249
aF0.21
aa(lp2632
g2
(g3
(S'S9'
p2633
I0
I1
tp2634
Rp2635
(I3
S'|'
p2636
NNNI9
I1
I0
tp2637
bS'Dope Nose'
p2638
tp2639
Rp2640
ag2
(g3
(S'S6'
p2641
I0
I1
tp2642
Rp2643
(I3
S'|'
p2644
NNNI6
I1
I0
tp2645
bS'Weezer'
p2646
tp2647
Rp2648
ag2
(g22
S'\x18\x84\x86\xd2*\x99\xea?'
p2649
tp2650
Rp2651
ag2
(g22
S'\xfa\xbf\xaf\xbb]\xd6\xe8?'
p2652
tp2653
Rp2654
ag2
(g22
S'7\xfd\xd9\x8f\x14,a@'
p2655
tp2656
Rp2657
ag2
(g22
S'#\xdb\xf9~j\xbc\xc4?'
p2658
tp2659
Rp2660
ag2
(g22
S'\x91\xed|?5\xc6`@'
p2661
tp2662
Rp2663
aF0.000192
aF0.409
aF0.738
aF0.242
aF-4.867
aF0.0525
aF127.083
aF0.796
aa(lp2664
g2
(g3
(S'S13'
p2665
I0
I1
tp2666
Rp2667
(I3
S'|'
p2668
NNNI13
I1
I0
tp2669
bS'Bob Your Head'
p2670
tp2671
Rp2672
ag2
(g3
(S'S7'
p2673
I0
I1
tp2674
Rp2675
(I3
S'|'
p2676
NNNI7
I1
I0
tp2677
bS'RUN-DMC'
p2678
tp2679
Rp2680
ag2
(g22
S'\x13\x11\x9bB\xd0\xfb\xe5?'
p2681
tp2682
Rp2683
ag2
(g22
S'E8\xce\xa2\x83i\xe3?'
p2684
tp2685
Rp2686
ag2
(g22
S'=\x9bU\x9f\xabql@'
p2687
tp2688
Rp2689
ag2
(g22
S'%\x06\x81\x95C\x8b\xe0?'
p2690
tp2691
Rp2692
ag2
(g22
S'^\xbaI\x0c\x02\xefk@'
p2693
tp2694
Rp2695
aF0.133
aF0.807
aF0.771
aI0
aF-12.668
aF0.218
aF160.26
aF0.73
aa(lp2696
g2
(g3
(S'S14'
p2697
I0
I1
tp2698
Rp2699
(I3
S'|'
p2700
NNNI14
I1
I0
tp2701
bS'Love Lifted Me'
p2702
tp2703
Rp2704
ag2
(g3
(S'S10'
p2705
I0
I1
tp2706
Rp2707
(I3
S'|'
p2708
NNNI10
I1
I0
tp2709
bS'Eddy Raven'
p2710
tp2711
Rp2712
ag2
(g22
S'\xfa\xbf\xa0\x88w\xc2\xdd?'
p2713
tp2714
Rp2715
ag2
(g22
S'\xa5^\xae"\xe9\x0f\xd6?'
p2716
tp2717
Rp2718
ag2
(g22
S';\xe4f\xb8\x01\xb6a@'
p2719
tp2720
Rp2721
ag2
(g22
S'`\xe5\xd0"\xdb\xf9\xbe?'
p2722
tp2723
Rp2724
ag2
(g22
S'#\xdb\xf9~j\x1c`@'
p2725
tp2726
Rp2727
aF0.363
aF0.676
aF0.332
aF1.58e-06
aF-12.837
aF0.0267
aF77.078
aF0.475
aa(lp2728
g2
(g3
(S'S27'
p2729
I0
I1
tp2730
Rp2731
(I3
S'|'
p2732
NNNI27
I1
I0
tp2733
bS'It Could All Get Blown Away'
p2734
tp2735
Rp2736
ag2
(g3
(S'S20'
p2737
I0
I1
tp2738
Rp2739
(I3
S'|'
p2740
NNNI20
I1
I0
tp2741
bS'The Jeff Healey Band'
p2742
tp2743
Rp2744
ag2
(g22
S'\xad\xf8\x9a\x89x\xf0\xe6?'
p2745
tp2746
Rp2747
ag2
(g22
S'n(2\xc0\xd8\x82\xda?'
p2748
tp2749
Rp2750
ag2
(g22
S'\xfbWV\x9a\x94\xb0q@'
p2751
tp2752
Rp2753
ag2
(g22
S'\xa6\x9b\xc4 \xb0r\xd8?'
p2754
tp2755
Rp2756
ag2
(g22
S'\xa0\x1a/\xdd$\xb6p@'
p2757
tp2758
Rp2759
aF0.0049
aF0.491
aF0.653
aF8.67e-05
aF-9.277
aF0.0375
aF94.405
aF0.652
aa(lp2760
g2
(g3
(S'S10'
p2761
I0
I1
tp2762
Rp2763
(I3
S'|'
p2764
NNNI10
I1
I0
tp2765
bS'Make it up'
p2766
tp2767
Rp2768
ag2
(g3
(S'S12'
p2769
I0
I1
tp2770
Rp2771
(I3
S'|'
p2772
NNNI12
I1
I0
tp2773
bS'Anthony Cruz'
p2774
tp2775
Rp2776
ag2
(g22
S'u\xaf=x)\x1a\xe1?'
p2777
tp2778
Rp2779
ag2
(g22
S'2\x0b\xc0VsY\xd5?'
p2780
tp2781
Rp2782
ag2
(g22
S'7\x89A`e\x82p@'
p2783
tp2784
Rp2785
ag2
(g22
S'\x1b/\xdd$\x06\x81\xb5?'
p2786
tp2787
Rp2788
ag2
(g22
S'T\xe3\xa5\x9b\xc4\x12p@'
p2789
tp2790
Rp2791
aF0.557
aF0.486
aF0.706
aI0
aF-5.937
aF0.162
aF81.072
aF0.698
aa(lp2792
g2
(g3
(S'S30'
p2793
I0
I1
tp2794
Rp2795
(I3
S'|'
p2796
NNNI30
I1
I0
tp2797
bS"Sloppy (I Saw My Baby Gettin')"
p2798
tp2799
Rp2800
ag2
(g3
(S'S4'
p2801
I0
I1
tp2802
Rp2803
(I3
S'|'
p2804
NNNI4
I1
I0
tp2805
bS'Devo'
p2806
tp2807
Rp2808
ag2
(g22
S'\x06Dh\x01\xa0\xa6\xe6?'
p2809
tp2810
Rp2811
ag2
(g22
S'\x05&U\xec\xcb\t\xe1?'
p2812
tp2813
Rp2814
ag2
(g22
S'\xa6~\xdeT\xa4\xfcc@'
p2815
tp2816
Rp2817
ag2
(g22
S'\xe9&1\x08\xac\x1c\xba?'
p2818
tp2819
Rp2820
ag2
(g22
S'\xbe\x9f\x1a/\xdd4c@'
p2821
tp2822
Rp2823
aF0.278
aF0.452
aF0.794
aF0.000215
aF-10.435
aF0.181
aF177.029
aF0.545
aa(lp2824
g2
(g3
(S'S17'
p2825
I0
I1
tp2826
Rp2827
(I3
S'|'
p2828
NNNI17
I1
I0
tp2829
bS'Caseta del Plater'
p2830
tp2831
Rp2832
ag2
(g3
(S'S24'
p2833
I0
I1
tp2834
Rp2835
(I3
S'|'
p2836
NNNI24
I1
I0
tp2837
bS'Pep Laguarda & Tapineria'
p2838
tp2839
Rp2840
ag2
(g22
S'*\x00G\xc6\x94\xb2\xd0?'
p2841
tp2842
Rp2843
ag2
(g22
S'\x00\x00\x00\x00\x00\x00\x00\x00'
p2844
tp2845
Rp2846
ag2
(g22
S'p%;6\x82Hu@'
p2847
tp2848
Rp2849
ag2
(g22
S'h\x91\xed|?5\x00@'
p2850
tp2851
Rp2852
ag2
(g22
S'\xfe\xd4x\xe9&\x83t@'
p2853
tp2854
Rp2855
aF0.866
aF0.504
aF0.269
aF0.144
aF-14.488
aF0.0351
aF124.95
aF0.184
aa(lp2856
g2
(g3
(S'S32'
p2857
I0
I1
tp2858
Rp2859
(I3
S'|'
p2860
NNNI32
I1
I0
tp2861
bS"Cajun Honey (Cajun Lovin' Style)"
p2862
tp2863
Rp2864
ag2
(g3
(S'S11'
p2865
I0
I1
tp2866
Rp2867
(I3
S'|'
p2868
NNNI11
I1
I0
tp2869
bS'Rod Bernard'
p2870
tp2871
Rp2872
ag2
(g22
S' \xb2\xb1!\xa0\xb4\xd5?'
p2873
tp2874
Rp2875
ag2
(g22
S'1f\x0b(9\x9c\xcf?'
p2876
tp2877
Rp2878
ag2
(g22
S'1Bx\xb4q\xdcY@'
p2879
tp2880
Rp2881
ag2
(g22
S'H\xe1z\x14\xaeG\xc1?'
p2882
tp2883
Rp2884
ag2
(g22
S'\xaeG\xe1z\x14FW@'
p2885
tp2886
Rp2887
aF0.00581
aF0.64
aF0.399
aF0.000115
aF-13.937
aF0.0311
aF75.347
aF0.833
aa(lp2888
g2
(g3
(S'S13'
p2889
I0
I1
tp2890
Rp2891
(I3
S'|'
p2892
NNNI13
I1
I0
tp2893
bS'Play The Part'
p2894
tp2895
Rp2896
ag2
(g3
(S'S16'
p2897
I0
I1
tp2898
Rp2899
(I3
S'|'
p2900
NNNI16
I1
I0
tp2901
bS'Eyes Set to Kill'
p2902
tp2903
Rp2904
ag2
(g22
S'\x96\xc6=\x11WF\xe9?'
p2905
tp2906
Rp2907
ag2
(g22
S'\xf7f\x00f:\x14\xe2?'
p2908
tp2909
Rp2910
ag2
(g22
S'\x0b$(~\x8c\xdec@'
p2911
tp2912
Rp2913
ag2
(g22
S'\x00\x00\x00\x00\x00\x00\x00\x00'
p2914
tp2915
Rp2916
ag2
(g22
S'\x06\x81\x95C\x8b\xd8b@'
p2917
tp2918
Rp2919
aF0.00157
aF0.41
aF0.997
aI0
aF-3.862
aF0.152
aF194.998
aF0.256
aa(lp2920
g2
(g3
(S'S11'
p2921
I0
I1
tp2922
Rp2923
(I3
S'|'
p2924
NNNI11
I1
I0
tp2925
bS'Many Are We'
p2926
tp2927
Rp2928
ag2
(g3
(S'S16'
p2929
I0
I1
tp2930
Rp2931
(I3
S'|'
p2932
NNNI16
I1
I0
tp2933
bS'Keep Of Kalessin'
p2934
tp2935
Rp2936
ag2
(g22
S'\x8a\xab\xa3\x17uj\xe4?'
p2937
tp2938
Rp2939
ag2
(g22
S'\x8b\x17$\x8c\x1a,\xde?'
p2940
tp2941
Rp2942
ag2
(g22
S'\x1fK\x1f\xba\xa0Fr@'
p2943
tp2944
Rp2945
ag2
(g22
S'\x00\x00\x00\x00\x00\x00\x00\x00'
p2946
tp2947
Rp2948
ag2
(g22
S'\xa6\x9b\xc4 \xb0\xe6q@'
p2949
tp2950
Rp2951
aF0.00087
aF0.374
aF0.997
aF0.805
aF-5.078
aF0.202
aF109.883
aF0.036
aa(lp2952
g2
(g3
(S'S8'
p2953
I0
I1
tp2954
Rp2955
(I3
S'|'
p2956
NNNI8
I1
I0
tp2957
bS'2 People'
p2958
tp2959
Rp2960
ag2
(g3
(S'S7'
p2961
I0
I1
tp2962
Rp2963
(I3
S'|'
p2964
NNNI7
I1
I0
tp2965
bS'Ann Lee'
p2966
tp2967
Rp2968
ag2
(g22
S'\xa4\xe4\x19\xb4\xbe\x04\xe1?'
p2969
tp2970
Rp2971
ag2
(g22
S'\x82\x99\xd0!\x85 \xd6?'
p2972
tp2973
Rp2974
ag2
(g22
S'\xd4\x82\x17}\x054k@'
p2975
tp2976
Rp2977
ag2
(g22
S'\x00\x00\x00\x00\x00\x00\x00\x00'
p2978
tp2979
Rp2980
ag2
(g22
S'#\xdb\xf9~j8j@'
p2981
tp2982
Rp2983
aF0.362
aF0.783
aF0.511
aF0.0909
aF-6.579
aF0.131
aF128.072
aF0.475
aa(lp2984
g2
(g3
(S'S17'
p2985
I0
I1
tp2986
Rp2987
(I3
S'|'
p2988
NNNI17
I1
I0
tp2989
bS'Fading Lady Light'
p2990
tp2991
Rp2992
ag2
(g3
(S'S18'
p2993
I0
I1
tp2994
Rp2995
(I3
S'|'
p2996
NNNI18
I1
I0
tp2997
bS'Jefferson Starship'
p2998
tp2999
Rp3000
ag2
(g22
S'\x13\xfe\xaa\xec\x91\x19\xe4?'
p3001
tp3002
Rp3003
ag2
(g22
S'\xa0>\xb2\x89\x06\xd0\xda?'
p3004
tp3005
Rp3006
ag2
(g22
S'\xb4<\x0f\xee\xce\x90k@'
p3007
tp3008
Rp3009
ag2
(g22
S'!\xb0rh\x91\xed\xcc?'
p3010
tp3011
Rp3012
ag2
(g22
S'\xd9\xce\xf7S\xe3\x8dj@'
p3013
tp3014
Rp3015
aF0.558
aF0.55
aF0.562
aI0
aF-8.225
aF0.029
aF122.277
aF0.298
aa(lp3016
g2
(g3
(S'S14'
p3017
I0
I1
tp3018
Rp3019
(I3
S'|'
p3020
NNNI14
I1
I0
tp3021
bS'The Croppy Boy'
p3022
tp3023
Rp3024
ag2
(g3
(S'S16'
p3025
I0
I1
tp3026
Rp3027
(I3
S'|'
p3028
NNNI16
I1
I0
tp3029
bS'The Irish Tenors'
p3030
tp3031
Rp3032
ag2
(g22
S'\x95\xa8\x8f\xe7++\xe3?'
p3033
tp3034
Rp3035
ag2
(g22
S'\xbe\x8cq\xc5\xbf\xfd\xd7?'
p3036
tp3037
Rp3038
ag2
(g22
S'\xb5T\xde\x8e\xf0\xb8q@'
p3039
tp3040
Rp3041
ag2
(g22
S'\xf6(\\\x8f\xc2U4@'
p3042
tp3043
Rp3044
ag2
(g22
S'\xb2\x9d\xef\xa7\xc6qp@'
p3045
tp3046
Rp3047
aF0.949
aF0.218
aF0.0364
aF3.93e-06
aF-20.928
aF0.0406
aF171.809
aF0.104
aa(lp3048
g2
(g3
(S'S23'
p3049
I0
I1
tp3050
Rp3051
(I3
S'|'
p3052
NNNI23
I1
I0
tp3053
bS"It's Good To Know Jesus"
p3054
tp3055
Rp3056
ag2
(g3
(S'S22'
p3057
I0
I1
tp3058
Rp3059
(I3
S'|'
p3060
NNNI22
I1
I0
tp3061
bS'Mississippi Mass Choir'
p3062
tp3063
Rp3064
ag2
(g22
S'\xdd\x02T\xa9\xc4?\xe0?'
p3065
tp3066
Rp3067
ag2
(g22
S'\xa1\x1d7M\x92j\xdd?'
p3068
tp3069
Rp3070
ag2
(g22
S"'1\x08\xac\x1c\xbdk@"
p3071
tp3072
Rp3073
ag2
(g22
S'P\x8d\x97n\x12\x83\xd0?'
p3074
tp3075
Rp3076
ag2
(g22
S'\xfa~j\xbctWj@'
p3077
tp3078
Rp3079
aF0.423
aF0.694
aF0.613
aF0.000132
aF-13.957
aF0.079
aF116.353
aF0.761
aa(lp3080
g2
(g3
(S'S17'
p3081
I0
I1
tp3082
Rp3083
(I3
S'|'
p3084
NNNI17
I1
I0
tp3085
bS'South Bound Water'
p3086
tp3087
Rp3088
ag2
(g3
(S'S14'
p3089
I0
I1
tp3090
Rp3091
(I3
S'|'
p3092
NNNI14
I1
I0
tp3093
bS'Lonnie Johnson'
p3094
tp3095
Rp3096
ag2
(g22
S'\xae\xc7A\x9b\x8d\xe2\xe1?'
p3097
tp3098
Rp3099
ag2
(g22
S'\xf3\x01\x8a\xfe\xaf\xe8\xd9?'
p3100
tp3101
Rp3102
ag2
(g22
S'\xc1\x90\xd5\xad\x9e\xbfg@'
p3103
tp3104
Rp3105
ag2
(g22
S'\xc5 \xb0rh\x91\xd5?'
p3106
tp3107
Rp3108
ag2
(g22
S'1\x08\xac\x1cZlf@'
p3109
tp3110
Rp3111
aF0.971
aF0.724
aF0.127
aF3.12e-05
aF-19.36
aF0.046
aF82.036
aF0.481
aa(lp3112
g2
(g3
(S'S16'
p3113
I0
I1
tp3114
Rp3115
(I3
S'|'
p3116
NNNI16
I1
I0
tp3117
bS'Tripping Billies'
p3118
tp3119
Rp3120
ag2
(g3
(S'S18'
p3121
I0
I1
tp3122
Rp3123
(I3
S'|'
p3124
NNNI18
I1
I0
tp3125
bS'DAVE MATTHEWS BAND'
p3126
tp3127
Rp3128
ag2
(g22
S'\xe1\x7fR\xe8\x00\xfb\xe9?'
p3129
tp3130
Rp3131
ag2
(g22
S'\xa0/\x95 Po\xe4?'
p3132
tp3133
Rp3134
ag2
(g22
S'\x9b=\xd0\n\x8c\x11r@'
p3135
tp3136
Rp3137
ag2
(g22
S'\x12\x83\xc0\xca\xa1E\x05@'
p3138
tp3139
Rp3140
ag2
(g22
S'\xa4p=\n\xd7\x97q@'
p3141
tp3142
Rp3143
aF0.000496
aF0.569
aF0.932
aF0.0342
aF-5.659
aF0.0388
aF120.858
aF0.944
aa(lp3144
g2
(g3
(S'S7'
p3145
I0
I1
tp3146
Rp3147
(I3
S'|'
p3148
NNNI7
I1
I0
tp3149
bS'Valerie'
p3150
tp3151
Rp3152
ag2
(g3
(S'S13'
p3153
I0
I1
tp3154
Rp3155
(I3
S'|'
p3156
NNNI13
I1
I0
tp3157
bS'Amy Winehouse'
p3158
tp3159
Rp3160
ag2
(g22
S'\xf5\xbe\x1dQl\xca\xec?'
p3161
tp3162
Rp3163
ag2
(g22
S'\xffZZ\x04\xf0\xad\xe2?'
p3164
tp3165
Rp3166
ag2
(g22
S'\x9a\xb1h:;\xbbl@'
p3167
tp3168
Rp3169
ag2
(g22
S'{\x14\xaeG\xe1z\xc4?'
p3170
tp3171
Rp3172
ag2
(g22
S'\xf4\xfd\xd4x\xe9\xf2k@'
p3173
tp3174
Rp3175
aF0.751
aF0.739
aF0.365
aF1.65e-06
aF-5.731
aF0.0415
aF96.095
aF0.699
aa(lp3176
g2
(g3
(S'S24'
p3177
I0
I1
tp3178
Rp3179
(I3
S'|'
p3180
NNNI24
I1
I0
tp3181
bS'O For a Thousand Tongues'
p3182
tp3183
Rp3184
ag2
(g3
(S'S4'
p3185
I0
I1
tp3186
Rp3187
(I3
S'|'
p3188
NNNI4
I1
I0
tp3189
bS'Glad'
p3190
tp3191
Rp3192
ag2
(g22
S'/\xf6\xc4\xaa\xc7\xc6\xe0?'
p3193
tp3194
Rp3195
ag2
(g22
S'm2\xc5\xe4\xa9\xd2\xd7?'
p3196
tp3197
Rp3198
ag2
(g22
S'\x16\xc1\xffV\xb2Qi@'
p3199
tp3200
Rp3201
ag2
(g22
S'D\x8bl\xe7\xfb\xa9\x04@'
p3202
tp3203
Rp3204
ag2
(g22
S'\x8f\xc2\xf5(\\\xafh@'
p3205
tp3206
Rp3207
aF0.791
aF0.413
aF0.252
aI0
aF-14.832
aF0.0314
aF138.506
aF0.56
aa(lp3208
g2
(g3
(S'S18'
p3209
I0
I1
tp3210
Rp3211
(I3
S'|'
p3212
NNNI18
I1
I0
tp3213
bS'The Very Conscious'
p3214
tp3215
Rp3216
ag2
(g3
(S'S26'
p3217
I0
I1
tp3218
Rp3219
(I3
S'|'
p3220
NNNI26
I1
I0
tp3221
bS'The Antripodean Collective'
p3222
tp3223
Rp3224
ag2
(g22
S'< \x9bKZ*\xd1?'
p3225
tp3226
Rp3227
ag2
(g22
S'7\xcc\x02\x89\xc5t\xd7?'
p3228
tp3229
Rp3230
ag2
(g22
S'/\x8b\x89\xcdG\x84\x86@'
p3231
tp3232
Rp3233
ag2
(g22
S'\x9a\x99\x99\x99\x99\x99\xc9?'
p3234
tp3235
Rp3236
ag2
(g22
S'\xee|?5^1\x86@'
p3237
tp3238
Rp3239
aF0.897
aF0.449
aF0.33
aF0.579
aF-11.746
aF0.103
aF138.964
aF0.11
aa(lp3240
g2
(g3
(S'S17'
p3241
I0
I1
tp3242
Rp3243
(I3
S'|'
p3244
NNNI17
I1
I0
tp3245
bS'November Has Come'
p3246
tp3247
Rp3248
ag2
(g3
(S'S8'
p3249
I0
I1
tp3250
Rp3251
(I3
S'|'
p3252
NNNI8
I1
I0
tp3253
bS'Gorillaz'
p3254
tp3255
Rp3256
ag2
(g22
S'\xf6\xdd\nG\x81\xcd\xe8?'
p3257
tp3258
Rp3259
ag2
(g22
S'\xe8\xfc9\xd6\xb9]\xe3?'
p3260
tp3261
Rp3262
ag2
(g22
S';\xaa\x9a \xea\x1ed@'
p3263
tp3264
Rp3265
ag2
(g22
S'\x00\x00\x00\x00\x00\x00\x00\x00'
p3266
tp3267
Rp3268
ag2
(g22
S'\x1b/\xdd$\x06\xbdc@'
p3269
tp3270
Rp3271
aF0.0815
aF0.702
aF0.567
aF2.75e-05
aF-8.561
aF0.239
aF84.153
aF0.667
aa(lp3272
g2
(g3
(S'S19'
p3273
I0
I1
tp3274
Rp3275
(I3
S'|'
p3276
NNNI19
I1
I0
tp3277
bS'Things You Do To Me'
p3278
tp3279
Rp3280
ag2
(g3
(S'S13'
p3281
I0
I1
tp3282
Rp3283
(I3
S'|'
p3284
NNNI13
I1
I0
tp3285
bS'Martin Sexton'
p3286
tp3287
Rp3288
ag2
(g22
S'\xb5F\xa4\xa6\xb0\x84\xe4?'
p3289
tp3290
Rp3291
ag2
(g22
S'\x9fSo\x0c\xbd\xb6\xdc?'
p3292
tp3293
Rp3294
ag2
(g22
S'V\xd4`\x1a\x06\np@'
p3295
tp3296
Rp3297
ag2
(g22
S'\x00\x00\x00\x00\x00\x00\x00\x00'
p3298
tp3299
Rp3300
ag2
(g22
S'q=\n\xd7\xa3\xd8n@'
p3301
tp3302
Rp3303
aF0.0619
aF0.701
aF0.566
aF2.89e-05
aF-6.324
aF0.0842
aF111.108
aF0.612
aa(lp3304
g2
(g3
(S'S22'
p3305
I0
I1
tp3306
Rp3307
(I3
S'|'
p3308
NNNI22
I1
I0
tp3309
bS"It Ain't What It Seems"
p3310
tp3311
Rp3312
ag2
(g3
(S'S11'
p3313
I0
I1
tp3314
Rp3315
(I3
S'|'
p3316
NNNI11
I1
I0
tp3317
bS'Pat Travers'
p3318
tp3319
Rp3320
ag2
(g22
S'\xa8\xf0l\xc6o\x1c\xe2?'
p3321
tp3322
Rp3323
ag2
(g22
S'\xd5U\xca\xc5\xc0\x93\xd8?'
p3324
tp3325
Rp3326
ag2
(g22
S'\x7f\x13\n\x11p&l@'
p3327
tp3328
Rp3329
ag2
(g22
S'\x00\x00\x00\x00\x00\x00\x00\x00'
p3330
tp3331
Rp3332
ag2
(g22
S'\xb4\xc8v\xbe\x9f\xcaj@'
p3333
tp3334
Rp3335
aF0.134
aF0.443
aF0.729
aF0.00217
aF-6.13
aF0.0424
aF93.124
aF0.737
aa(lp3336
g2
(g3
(S'S11'
p3337
I0
I1
tp3338
Rp3339
(I3
S'|'
p3340
NNNI11
I1
I0
tp3341
bS'Back A Yard'
p3342
tp3343
Rp3344
ag2
(g3
(S'S12'
p3345
I0
I1
tp3346
Rp3347
(I3
S'|'
p3348
NNNI12
I1
I0
tp3349
bS'The In Crowd'
p3350
tp3351
Rp3352
ag2
(g22
S'\x8d\xee\x87\x85\xa6\xda\xe0?'
p3353
tp3354
Rp3355
ag2
(g22
S'\xc5\xb6\xf6\x15\xfd8\xd8?'
p3356
tp3357
Rp3358
ag2
(g22
S'\x85\xb1\x85 \x07\xadp@'
p3359
tp3360
Rp3361
ag2
(g22
S'\x00\x00\x00\x00\x00\x00\x00\x00'
p3362
tp3363
Rp3364
ag2
(g22
S'\x1b/\xdd$\x06\xadp@'
p3365
tp3366
Rp3367
aF0.149
aF0.844
aF0.597
aI0
aF-7.065
aF0.088
aF121.951
aF0.911
aa(lp3368
g2
(g3
(S'S19'
p3369
I0
I1
tp3370
Rp3371
(I3
S'|'
p3372
NNNI19
I1
I0
tp3373
bS"I'mma Break It Down"
p3374
tp3375
Rp3376
ag2
(g3
(S'S6'
p3377
I0
I1
tp3378
Rp3379
(I3
S'|'
p3380
NNNI6
I1
I0
tp3381
bS'Eazy-E'
p3382
tp3383
Rp3384
ag2
(g22
S'\x01\nSV\xe1E\xe6?'
p3385
tp3386
Rp3387
ag2
(g22
S'@\xb2\xe9]H\xf1\xe0?'
p3388
tp3389
Rp3390
ag2
(g22
S'&\xfcR?o\nj@'
p3391
tp3392
Rp3393
ag2
(g22
S'\x00\x00\x00\x00\x00\x00\x00\x00'
p3394
tp3395
Rp3396
ag2
(g22
S'\x9e\xef\xa7\xc6K\xdfh@'
p3397
tp3398
Rp3399
aF0.11
aF0.961
aF0.928
aI0
aF-4.343
aF0.224
aF115.721
aF0.654
aa(lp3400
g2
(g3
(S'S16'
p3401
I0
I1
tp3402
Rp3403
(I3
S'|'
p3404
NNNI16
I1
I0
tp3405
bS'Ja Nun Hons Pris'
p3406
tp3407
Rp3408
ag2
(g3
(S'S11'
p3409
I0
I1
tp3410
Rp3411
(I3
S'|'
p3412
NNNI11
I1
I0
tp3413
bS'Bryan Ferry'
p3414
tp3415
Rp3416
ag2
(g22
S'\xdb\x80t~\xd2;\xe6?'
p3417
tp3418
Rp3419
ag2
(g22
S'\xf0\xf9J\t\x84\xfa\xe1?'
p3420
tp3421
Rp3422
ag2
(g22
S'\x1c\xce\xfcj\x0e\xd4A@'
p3423
tp3424
Rp3425
ag2
(g22
S'\xfe\xd4x\xe9&1\xc8?'
p3426
tp3427
Rp3428
ag2
(g22
S'\x9c\xc4 \xb0r(@@'
p3429
tp3430
Rp3431
aF0.771
aF0.488
aF0.216
aI0
aF-15.521
aF0.0704
aF103.748
aF0.562
aa(lp3432
g2
(g3
(S'S14'
p3433
I0
I1
tp3434
Rp3435
(I3
S'|'
p3436
NNNI14
I1
I0
tp3437
bS'Chumpman Blues'
p3438
tp3439
Rp3440
ag2
(g3
(S'S13'
p3441
I0
I1
tp3442
Rp3443
(I3
S'|'
p3444
NNNI13
I1
I0
tp3445
bS'Scott Ainslie'
p3446
tp3447
Rp3448
ag2
(g22
S'\xe03\xc8\x8b\xcf2\xd5?'
p3449
tp3450
Rp3451
ag2
(g22
S'\xa5\xd1g\xa0z\xfe\xcc?'
p3452
tp3453
Rp3454
ag2
(g22
S'\xfd\x9f\xc3|y\xe1e@'
p3455
tp3456
Rp3457
ag2
(g22
S'\x91\xed|?5^\xca?'
p3458
tp3459
Rp3460
ag2
(g22
S'\xa0\x1a/\xdd$\xb6d@'
p3461
tp3462
Rp3463
aF0.836
aF0.525
aF0.427
aF5.24e-05
aF-10.193
aF0.0355
aF88.737
aF0.731
aa(lp3464
g2
(g3
(S'S8'
p3465
I0
I1
tp3466
Rp3467
(I3
S'|'
p3468
NNNI8
I1
I0
tp3469
bS'Bull Dog'
p3470
tp3471
Rp3472
ag2
(g3
(S'S15'
p3473
I0
I1
tp3474
Rp3475
(I3
S'|'
p3476
NNNI15
I1
I0
tp3477
bS'The Shangri-Las'
p3478
tp3479
Rp3480
ag2
(g22
S'\xf9O?\xe5}\x81\xe4?'
p3481
tp3482
Rp3483
ag2
(g22
S'\xdf\xd4\x127\x0f\xc4\xda?'
p3484
tp3485
Rp3486
ag2
(g22
S'\xc6\xbf\xcf\xb8p\xbbc@'
p3487
tp3488
Rp3489
ag2
(g22
S'\x0e-\xb2\x9d\xef\xa7\xc6?'
p3490
tp3491
Rp3492
ag2
(g22
S'\xb8\x1e\x85\xebQxb@'
p3493
tp3494
Rp3495
aF0.605
aF0.342
aF0.723
aF0.00283
aF-8.624
aF0.164
aF185.568
aF0.38
aa(lp3496
g2
(g3
(S'S13'
p3497
I0
I1
tp3498
Rp3499
(I3
S'|'
p3500
NNNI13
I1
I0
tp3501
bS'My M.B. Thang'
p3502
tp3503
Rp3504
ag2
(g3
(S'S5'
p3505
I0
I1
tp3506
Rp3507
(I3
S'|'
p3508
NNNI5
I1
I0
tp3509
bS'Tyree'
p3510
tp3511
Rp3512
ag2
(g22
S'\xb5\xba\xd3\xb45\xbe\xe3?'
p3513
tp3514
Rp3515
ag2
(g22
S'\xd4|\x1c\x93g\xce\xd6?'
p3516
tp3517
Rp3518
ag2
(g22
S'\xd7i\xa4\xa5\xf2\xfex@'
p3519
tp3520
Rp3521
ag2
(g22
S'\x04V\x0e-\xb2\x9d\xcf?'
p3522
tp3523
Rp3524
ag2
(g22
S'\x08\xac\x1cZd\xb5x@'
p3525
tp3526
Rp3527
aF0.000935
aF0.814
aF0.961
aF0.911
aF-10.054
aF0.057
aF121.005
aF0.923
aa(lp3528
g2
(g3
(S'S28'
p3529
I0
I1
tp3530
Rp3531
(I3
S'|'
p3532
NNNI28
I1
I0
tp3533
bS'Como Nuestro Amor No Hay Dos'
p3534
tp3535
Rp3536
ag2
(g3
(S'S5'
p3537
I0
I1
tp3538
Rp3539
(I3
S'|'
p3540
NNNI5
I1
I0
tp3541
bS'Cabas'
p3542
tp3543
Rp3544
ag2
(g22
S'\xaf\x8e\xda\xfe\x8bf\xe3?'
p3545
tp3546
Rp3547
ag2
(g22
S',\xd8\x89\xe9=o\xd9?'
p3548
tp3549
Rp3550
ag2
(g22
S'd;\xdfO\x8d\xfai@'
p3551
tp3552
Rp3553
ag2
(g22
S'\x9c\xc4 \xb0rh\xc1?'
p3554
tp3555
Rp3556
ag2
(g22
S'h\x91\xed|?Ui@'
p3557
tp3558
Rp3559
aF0.585
aF0.714
aF0.864
aI0
aF-5.96
aF0.0662
aF108.061
aF0.81
aa(lp3560
g2
(g3
(S'S12'
p3561
I0
I1
tp3562
Rp3563
(I3
S'|'
p3564
NNNI12
I1
I0
tp3565
bS'Russian Doll'
p3566
tp3567
Rp3568
ag2
(g3
(S'S5'
p3569
I0
I1
tp3570
Rp3571
(I3
S'|'
p3572
NNNI5
I1
I0
tp3573
bS'Flink'
p3574
tp3575
Rp3576
ag2
(g22
S'6O\xd8\xe8\x19\xe5\xde?'
p3577
tp3578
Rp3579
ag2
(g22
S'\xeb\xbb\x07\xd3H\xd8\xd6?'
p3580
tp3581
Rp3582
ag2
(g22
S'\xc7K7\x89\xc1\x11q@'
p3583
tp3584
Rp3585
ag2
(g22
S'\x0e-\xb2\x9d\xef\xa7\xc6?'
p3586
tp3587
Rp3588
ag2
(g22
S'T\xe3\xa5\x9b\xc4\x0ep@'
p3589
tp3590
Rp3591
aF0.000122
aF0.488
aF0.906
aF0.00271
aF-4.164
aF0.0423
aF131.964
aF0.616
aa(lp3592
g2
(g3
(S'S12'
p3593
I0
I1
tp3594
Rp3595
(I3
S'|'
p3596
NNNI12
I1
I0
tp3597
bS'Schauet Her!'
p3598
tp3599
Rp3600
ag2
(g3
(S'S8'
p3601
I0
I1
tp3602
Rp3603
(I3
S'|'
p3604
NNNI8
I1
I0
tp3605
bS'Der Plan'
p3606
tp3607
Rp3608
ag2
(g22
S'r\x00\xfa\xa9"\xc2\xdf?'
p3609
tp3610
Rp3611
ag2
(g22
S'dK8\xe0V9\xd6?'
p3612
tp3613
Rp3614
ag2
(g22
S'\xd3\xc1\xfa?\x87)A@'
p3615
tp3616
Rp3617
ag2
(g22
S'333333\xb3?'
p3618
tp3619
Rp3620
ag2
(g22
S'\xb6\xf3\xfd\xd4x)A@'
p3621
tp3622
Rp3623
aF0.716
aF0.8
aF0.435
aF0.00029
aF-8.989
aF0.421
aF120.741
aF0.832
aa(lp3624
g2
(g3
(S'S10'
p3625
I0
I1
tp3626
Rp3627
(I3
S'|'
p3628
NNNI10
I1
I0
tp3629
bS'Shenandoah'
p3630
tp3631
Rp3632
ag2
(g3
(S'S20'
p3633
I0
I1
tp3634
Rp3635
(I3
S'|'
p3636
NNNI20
I1
I0
tp3637
bS'The Statler Brothers'
p3638
tp3639
Rp3640
ag2
(g22
S'\x88\xa9N\x0c\xbfM\xe4?'
p3641
tp3642
Rp3643
ag2
(g22
S'\xb3\xe1\x0fP\x02M\xda?'
p3644
tp3645
Rp3646
ag2
(g22
S'\xeddp\x94\xbc(i@'
p3647
tp3648
Rp3649
ag2
(g22
S'\xd3Mb\x10X9\x03@'
p3650
tp3651
Rp3652
ag2
(g22
S'\xe5\xd0"\xdb\xf9zh@'
p3653
tp3654
Rp3655
aF0.796
aF0.601
aF0.167
aF6.4e-05
aF-16.241
aF0.0321
aF104.162
aF0.218
aa(lp3656
g2
(g3
(S'S6'
p3657
I0
I1
tp3658
Rp3659
(I3
S'|'
p3660
NNNI6
I1
I0
tp3661
bS'Beloki'
p3662
tp3663
Rp3664
ag2
(g3
(S'S7'
p3665
I0
I1
tp3666
Rp3667
(I3
S'|'
p3668
NNNI7
I1
I0
tp3669
bS'Peloton'
p3670
tp3671
Rp3672
ag2
(g22
S'\xb7?\x7f\\nL\xdb?'
p3673
tp3674
Rp3675
ag2
(g22
S'\x00\x00\x00\x00\x00\x00\x00\x00'
p3676
tp3677
Rp3678
ag2
(g22
S'y\x1e\xdc\x9d\xb5\xc1m@'
p3679
tp3680
Rp3681
ag2
(g22
S'R\xb8\x1e\x85\xebQ\xd8?'
p3682
tp3683
Rp3684
ag2
(g22
S'\xf6(\\\x8f\xc2=l@'
p3685
tp3686
Rp3687
aF0.973
aF0.356
aF0.0512
aF0.633
aF-19.818
aF0.0385
aF69.293
aF0.0763
aa(lp3688
g2
(g3
(S'S14'
p3689
I0
I1
tp3690
Rp3691
(I3
S'|'
p3692
NNNI14
I1
I0
tp3693
bS"Dunn's Revenge"
p3694
tp3695
Rp3696
ag2
(g3
(S'S15'
p3697
I0
I1
tp3698
Rp3699
(I3
S'|'
p3700
NNNI15
I1
I0
tp3701
bS'Paul Buckmaster'
p3702
tp3703
Rp3704
ag2
(g22
S'kwL\x7f\x184\xdd?'
p3705
tp3706
Rp3707
ag2
(g22
S'\xb46\xc5i\x81\x08\xd4?'
p3708
tp3709
Rp3710
ag2
(g22
S'\xfa\xb3\x1f)"\xf1^@'
p3711
tp3712
Rp3713
ag2
(g22
S'%\x06\x81\x95C\x0b\x10@'
p3714
tp3715
Rp3716
ag2
(g22
S'?5^\xbaI\xa4]@'
p3717
tp3718
Rp3719
aF0.788
aF0.256
aF0.0263
aF0.822
aF-32.892
aF0.0334
aF67.885
aF0.0505
aa(lp3720
g2
(g3
(S'S10'
p3721
I0
I1
tp3722
Rp3723
(I3
S'|'
p3724
NNNI10
I1
I0
tp3725
bS'My Own Way'
p3726
tp3727
Rp3728
ag2
(g3
(S'S9'
p3729
I0
I1
tp3730
Rp3731
(I3
S'|'
p3732
NNNI9
I1
I0
tp3733
bS'Evolution'
p3734
tp3735
Rp3736
ag2
(g22
S'V\x89\xc7\x00)\x14\xe3?'
p3737
tp3738
Rp3739
ag2
(g22
S'\xd2\xafp\xce\xe8\x0f\xdb?'
p3740
tp3741
Rp3742
ag2
(g22
S"\x81>\x91'I\x10j@"
p3743
tp3744
Rp3745
ag2
(g22
S'\x00\x00\x00\x00\x00\x00\x00\x00'
p3746
tp3747
Rp3748
ag2
(g22
S'B`\xe5\xd0"\x0bi@'
p3749
tp3750
Rp3751
aF0.0243
aF0.521
aF0.799
aF0.00273
aF-5.501
aF0.0404
aF97.028
aF0.37
aa(lp3752
g2
(g3
(S'S17'
p3753
I0
I1
tp3754
Rp3755
(I3
S'|'
p3756
NNNI17
I1
I0
tp3757
bS'The Interrogation'
p3758
tp3759
Rp3760
ag2
(g3
(S'S15'
p3761
I0
I1
tp3762
Rp3763
(I3
S'|'
p3764
NNNI15
I1
I0
tp3765
bS'Paul Buckmaster'
p3766
tp3767
Rp3768
ag2
(g22
S'kwL\x7f\x184\xdd?'
p3769
tp3770
Rp3771
ag2
(g22
S'\xb46\xc5i\x81\x08\xd4?'
p3772
tp3773
Rp3774
ag2
(g22
S'c\x9c\xbf\t\x85`R@'
p3775
tp3776
Rp3777
ag2
(g22
S'33333\xb3\x16@'
p3778
tp3779
Rp3780
ag2
(g22
S'\x8d\x97n\x12\x83`R@'
p3781
tp3782
Rp3783
aF0.854
aF0.243
aF0.0446
aF0.89
aF-24.389
aF0.036
aF161.986
aF0.0722
aa(lp3784
g2
(g3
(S'S24'
p3785
I0
I1
tp3786
Rp3787
(I3
S'|'
p3788
NNNI24
I1
I0
tp3789
bS"It's Four In The Morning"
p3790
tp3791
Rp3792
ag2
(g3
(S'S11'
p3793
I0
I1
tp3794
Rp3795
(I3
S'|'
p3796
NNNI11
I1
I0
tp3797
bS'Faron Young'
p3798
tp3799
Rp3800
ag2
(g22
S'\xa09O\n(\xe5\xe2?'
p3801
tp3802
Rp3803
ag2
(g22
S'\xda\xf3f\x11\xba\xd0\xda?'
p3804
tp3805
Rp3806
ag2
(g22
S'\\\xe6tYL\xf9c@'
p3807
tp3808
Rp3809
ag2
(g22
S'\x08\xac\x1cZd;\xd7?'
p3810
tp3811
Rp3812
ag2
(g22
S'\xc5 \xb0rh\x81c@'
p3813
tp3814
Rp3815
aF0.736
aF0.452
aF0.284
aF5.19e-06
aF-11.492
aF0.031
aF130.938
aF0.365
aa(lp3816
g2
(g3
(S'S16'
p3817
I0
I1
tp3818
Rp3819
(I3
S'|'
p3820
NNNI16
I1
I0
tp3821
bS'Joy to the World'
p3822
tp3823
Rp3824
ag2
(g3
(S'S23'
p3825
I0
I1
tp3826
Rp3827
(I3
S'|'
p3828
NNNI23
I1
I0
tp3829
bS'The Jordanaires & Orion'
p3830
tp3831
Rp3832
ag2
(g22
S'A\x80\xf1(\xbdw\xd8?'
p3833
tp3834
Rp3835
ag2
(g22
S'X\xd2\x06\xbb\xe3%\xd2?'
p3836
tp3837
Rp3838
ag2
(g22
S'\x82\xa8\xfb\x00\xa4lX@'
p3839
tp3840
Rp3841
ag2
(g22
S'H\xe1z\x14\xaeG\xd9?'
p3842
tp3843
Rp3844
ag2
(g22
S'\xb6\xf3\xfd\xd4x\xa1V@'
p3845
tp3846
Rp3847
aF0.938
aF0.52
aF0.0223
aF1.77e-06
aF-24.106
aF0.0342
aF70.714
aF0.401
aa(lp3848
g2
(g3
(S'S15'
p3849
I0
I1
tp3850
Rp3851
(I3
S'|'
p3852
NNNI15
I1
I0
tp3853
bS'Cuatro Estrofas'
p3854
tp3855
Rp3856
ag2
(g3
(S'S17'
p3857
I0
I1
tp3858
Rp3859
(I3
S'|'
p3860
NNNI17
I1
I0
tp3861
bS'Sandra Mihanovich'
p3862
tp3863
Rp3864
ag2
(g22
S'c\x83J\x9be\xc1\xdd?'
p3865
tp3866
Rp3867
ag2
(g22
S'\x85\xc7;\x01M\xf7\xd6?'
p3868
tp3869
Rp3870
ag2
(g22
S'\x92?\x18x\xeerp@'
p3871
tp3872
Rp3873
ag2
(g22
S'\x00\x00\x00\x00\x00\x00\x00\x00'
p3874
tp3875
Rp3876
ag2
(g22
S'#\xdb\xf9~j\x06p@'
p3877
tp3878
Rp3879
aF0.813
aF0.489
aF0.285
aF1.3e-06
aF-12.704
aF0.0445
aF122.05
aF0.318
aa(lp3880
g2
(g3
(S'S59'
p3881
I0
I1
tp3882
Rp3883
(I3
S'|'
p3884
NNNI59
I1
I0
tp3885
bS'Background Music: The Greatest Ever Punk Sing-Along! (Live)'
p3886
tp3887
Rp3888
ag2
(g3
(S'S12'
p3889
I0
I1
tp3890
Rp3891
(I3
S'|'
p3892
NNNI12
I1
I0
tp3893
bS'The Prefects'
p3894
tp3895
Rp3896
ag2
(g22
S'\x88\xf2\xb1E\x81\xe9\xd9?'
p3897
tp3898
Rp3899
ag2
(g22
S')\xad\x13\xcbd.\xd1?'
p3900
tp3901
Rp3902
ag2
(g22
S'\xe3\xfcM(D\xa9p@'
p3903
tp3904
Rp3905
ag2
(g22
S'\x00\x00\x00\x00\x00\x00\x00\x00'
p3906
tp3907
Rp3908
ag2
(g22
S'\x9c\xc4 \xb0rDp@'
p3909
tp3910
Rp3911
aF0.264
aF0.334
aF0.671
aF0.746
aF-18.254
aF0.068
aF103.285
aF0.467
aa(lp3912
g2
(g3
(S'S16'
p3913
I0
I1
tp3914
Rp3915
(I3
S'|'
p3916
NNNI16
I1
I0
tp3917
bS'Song Without End'
p3918
tp3919
Rp3920
ag2
(g3
(S'S14'
p3921
I0
I1
tp3922
Rp3923
(I3
S'|'
p3924
NNNI14
I1
I0
tp3925
bS'Paul Avgerinos'
p3926
tp3927
Rp3928
ag2
(g22
S'\x05\x86\xd7\x8e\xfc\xc0\xdc?'
p3929
tp3930
Rp3931
ag2
(g22
S'\x8f\x19\xaf\xab\xc9K\xd4?'
p3932
tp3933
Rp3934
ag2
(g22
S'D\x17\xd4\xb7LHt@'
p3935
tp3936
Rp3937
ag2
(g22
S'\x00\x00\x00\x00\x00\x00\x00\x00'
p3938
tp3939
Rp3940
ag2
(g22
S'\x0c\x02+\x87\x16\x7fs@'
p3941
tp3942
Rp3943
aF0.965
aF0.198
aF0.189
aF0.764
aF-17.325
aF0.0354
aF67.933
aF0.032
aa(lp3944
g2
(g3
(S'S20'
p3945
I0
I1
tp3946
Rp3947
(I3
S'|'
p3948
NNNI20
I1
I0
tp3949
bS'6TH Avenue Nightmare'
p3950
tp3951
Rp3952
ag2
(g3
(S'S9'
p3953
I0
I1
tp3954
Rp3955
(I3
S'|'
p3956
NNNI9
I1
I0
tp3957
bS'Pennywise'
p3958
tp3959
Rp3960
ag2
(g22
S'\xcc\x9c\xdfb\xd9$\xea?'
p3961
tp3962
Rp3963
ag2
(g22
S'\xe5\xaf\x0fx.d\xe0?'
p3964
tp3965
Rp3966
ag2
(g22
S'\xa6~\xdeT\xa4\xfcc@'
p3967
tp3968
Rp3969
ag2
(g22
S'\x00\x00\x00\x00\x00\x00\x00\x00'
p3970
tp3971
Rp3972
ag2
(g22
S'\xf0\xa7\xc6K7yc@'
p3973
tp3974
Rp3975
aF9.91e-05
aF0.344
aF0.954
aF1.79e-06
aF-4.856
aF0.146
aF101.365
aF0.6
aa(lp3976
g2
(g3
(S'S23'
p3977
I0
I1
tp3978
Rp3979
(I3
S'|'
p3980
NNNI23
I1
I0
tp3981
bS'Give It Up Or Let Me Go'
p3982
tp3983
Rp3984
ag2
(g3
(S'S12'
p3985
I0
I1
tp3986
Rp3987
(I3
S'|'
p3988
NNNI12
I1
I0
tp3989
bS'Dixie Chicks'
p3990
tp3991
Rp3992
ag2
(g22
S'\xae\x8c{4#z\xea?'
p3993
tp3994
Rp3995
ag2
(g22
S'_\xd2\xba\xc5\xfbu\xe2?'
p3996
tp3997
Rp3998
ag2
(g22
S'\xd1\xe8\x0eb\xe7\x84r@'
p3999
tp4000
Rp4001
ag2
(g22
S'\x91\xed|?5^\xd2?'
p4002
tp4003
Rp4004
ag2
(g22
S'j\xbct\x93\x18\xfaq@'
p4005
tp4006
Rp4007
aF0.119
aF0.617
aF0.905
aF0.00117
aF-4.329
aF0.0321
aF103.862
aF0.769
aa(lp4008
g2
(g3
(S'S25'
p4009
I0
I1
tp4010
Rp4011
(I3
S'|'
p4012
NNNI25
I1
I0
tp4013
bS'Climax (Instrumental Mix)'
p4014
tp4015
Rp4016
ag2
(g3
(S'S12'
p4017
I0
I1
tp4018
Rp4019
(I3
S'|'
p4020
NNNI12
I1
I0
tp4021
bS'Slum Village'
p4022
tp4023
Rp4024
ag2
(g22
S'\xca3]\xdfH\x98\xe5?'
p4025
tp4026
Rp4027
ag2
(g22
S')\xe4&6\x95:\xdb?'
p4028
tp4029
Rp4030
ag2
(g22
S'\xf7\xe4a\xa1\xd6\x13i@'
p4031
tp4032
Rp4033
ag2
(g22
S'\x81\x95C\x8bl\xe7\xd3?'
p4034
tp4035
Rp4036
ag2
(g22
S'^\xbaI\x0c\x02{g@'
p4037
tp4038
Rp4039
aF0.324
aF0.815
aF0.315
aF0.0849
aF-8.422
aF0.0708
aF95.612
aF0.431
aa(lp4040
g2
(g3
(S'S10'
p4041
I0
I1
tp4042
Rp4043
(I3
S'|'
p4044
NNNI10
I1
I0
tp4045
bS'BOMB SQUAD'
p4046
tp4047
Rp4048
ag2
(g3
(S'S10'
p4049
I0
I1
tp4050
Rp4051
(I3
S'|'
p4052
NNNI10
I1
I0
tp4053
bS'Bomb Squad'
p4054
tp4055
Rp4056
ag2
(g22
S'\x08J \xe2$\xf3\xe0?'
p4057
tp4058
Rp4059
ag2
(g22
S'K\xb6\xa6\xc9ot\xd6?'
p4060
tp4061
Rp4062
ag2
(g22
S'\xb6-\xcal\x90\xe3g@'
p4063
tp4064
Rp4065
ag2
(g22
S'\x08\xac\x1cZd;\xaf?'
p4066
tp4067
Rp4068
ag2
(g22
S'\xc1\xca\xa1E\xb6\x13g@'
p4069
tp4070
Rp4071
aF0.000249
aF0.475
aF0.877
aF2.95e-05
aF-6.386
aF0.0554
aF95.389
aF0.511
aa(lp4072
g2
(g3
(S'S11'
p4073
I0
I1
tp4074
Rp4075
(I3
S'|'
p4076
NNNI11
I1
I0
tp4077
bS'O.T. (Skit)'
p4078
tp4079
Rp4080
ag2
(g3
(S'S7'
p4081
I0
I1
tp4082
Rp4083
(I3
S'|'
p4084
NNNI7
I1
I0
tp4085
bS"Cam'Ron"
p4086
tp4087
Rp4088
ag2
(g22
S'\xd7\xff\x87\x11\xf4v\xeb?'
p4089
tp4090
Rp4091
ag2
(g22
S'\x8dK\x18|\x8b}\xe0?'
p4092
tp4093
Rp4094
ag2
(g22
S'\x14y\x92t\xcd\xbc8@'
p4095
tp4096
Rp4097
ag2
(g22
S'\x00\x00\x00\x00\x00\x00\x00\x00'
p4098
tp4099
Rp4100
ag2
(g22
S'\xb0rh\x91\xed\xbc8@'
p4101
tp4102
Rp4103
aF0.833
aF0.696
aF0.0703
aI0
aF-28.152
aF0.95
aF128.746
aF0.927
aa(lp4104
g2
(g3
(S'S10'
p4105
I0
I1
tp4106
Rp4107
(I3
S'|'
p4108
NNNI10
I1
I0
tp4109
bS'Wildflower'
p4110
tp4111
Rp4112
ag2
(g3
(S'S8'
p4113
I0
I1
tp4114
Rp4115
(I3
S'|'
p4116
NNNI8
I1
I0
tp4117
bS'Bon Jovi'
p4118
tp4119
Rp4120
ag2
(g22
S'\x07s\x98\xcd\x86\xdb\xea?'
p4121
tp4122
Rp4123
ag2
(g22
S'\xbaFo\xa7(\x01\xe7?'
p4124
tp4125
Rp4126
ag2
(g22
S'\x8d\xd1:\xaa\x9a\xbao@'
p4127
tp4128
Rp4129
ag2
(g22
S'\x89A`\xe5\xd0"\xcb?'
p4130
tp4131
Rp4132
ag2
(g22
S'\x81\x95C\x8bl\xa7n@'
p4133
tp4134
Rp4135
aF0.0234
aF0.436
aF0.635
aI0
aF-5.848
aF0.0278
aF92.692
aF0.356
aa(lp4136
g2
(g3
(S'S16'
p4137
I0
I1
tp4138
Rp4139
(I3
S'|'
p4140
NNNI16
I1
I0
tp4141
bS'Change Your Mind'
p4142
tp4143
Rp4144
ag2
(g3
(S'S3'
p4145
I0
I1
tp4146
Rp4147
(I3
S'|'
p4148
NNNI3
I1
I0
tp4149
bS'KMD'
p4150
tp4151
Rp4152
ag2
(g22
S'\x06\x91\xba\xa4z\xcf\xe2?'
p4153
tp4154
Rp4155
ag2
(g22
S'(\x82\xf3\xb4\x97Q\xd8?'
p4156
tp4157
Rp4158
ag2
(g22
S'\x0eJ\x98i\xfb\xe3m@'
p4159
tp4160
Rp4161
ag2
(g22
S'\x81\x95C\x8bl\xe7\xcb?'
p4162
tp4163
Rp4164
ag2
(g22
S'\xdb\xf9~j\xbc\xf4l@'
p4165
tp4166
Rp4167
aF0.00171
aF0.617
aF0.729
aF0.0142
aF-11.229
aF0.0445
aF120.01
aF0.551
aa(lp4168
g2
(g3
(S'S13'
p4169
I0
I1
tp4170
Rp4171
(I3
S'|'
p4172
NNNI13
I1
I0
tp4173
bS'Wartime Blues'
p4174
tp4175
Rp4176
ag2
(g3
(S'S21'
p4177
I0
I1
tp4178
Rp4179
(I3
S'|'
p4180
NNNI21
I1
I0
tp4181
bS'Blind Lemon Jefferson'
p4182
tp4183
Rp4184
ag2
(g22
S'Z\x82y\xc6%\t\xe3?'
p4185
tp4186
Rp4187
ag2
(g22
S'\xa6PTJ\x90\x80\xd8?'
p4188
tp4189
Rp4190
ag2
(g22
S'?RD\x86U-g@'
p4191
tp4192
Rp4193
ag2
(g22
S'\x00\x00\x00\x00\x00\x00\x00\x00'
p4194
tp4195
Rp4196
ag2
(g22
S'\xac\x1cZd;\xa7f@'
p4197
tp4198
Rp4199
aF0.929
aF0.385
aF0.189
aF3.78e-06
aF-13.623
aF0.109
aF163.507
aF0.365
aa(lp4200
g2
(g3
(S'S14'
p4201
I0
I1
tp4202
Rp4203
(I3
S'|'
p4204
NNNI14
I1
I0
tp4205
bS'La Fruta Bomba'
p4206
tp4207
Rp4208
ag2
(g3
(S'S17'
p4209
I0
I1
tp4210
Rp4211
(I3
S'|'
p4212
NNNI17
I1
I0
tp4213
bS'Fruko Y Sus Tesos'
p4214
tp4215
Rp4216
ag2
(g22
S'\x86\xf3\xb0ZE\x14\xe1?'
p4217
tp4218
Rp4219
ag2
(g22
S'\x950!~T\xba\xd7?'
p4220
tp4221
Rp4222
ag2
(g22
S'\xf5-s\xba,Xn@'
p4223
tp4224
Rp4225
ag2
(g22
S'%\x06\x81\x95C\x8b\xcc?'
p4226
tp4227
Rp4228
ag2
(g22
S'\x1dZd;\xdf\xb3m@'
p4229
tp4230
Rp4231
aF0.159
aF0.754
aF0.783
aF3.46e-05
aF-7.095
aF0.0745
aF113.333
aF0.924
aa(lp4232
g2
(g3
(S'S7'
p4233
I0
I1
tp4234
Rp4235
(I3
S'|'
p4236
NNNI7
I1
I0
tp4237
bS'Dolores'
p4238
tp4239
Rp4240
ag2
(g3
(S'S14'
p4241
I0
I1
tp4242
Rp4243
(I3
S'|'
p4244
NNNI14
I1
I0
tp4245
bS'The Merry Macs'
p4246
tp4247
Rp4248
ag2
(g22
S'*2\xc6q\x10\xb0\xd6?'
p4249
tp4250
Rp4251
ag2
(g22
S'\x04^\x0b\xe1\x18\xee\xcf?'
p4252
tp4253
Rp4254
ag2
(g22
S'\xe7\xa9\x0e\xb9\x19[h@'
p4255
tp4256
Rp4257
ag2
(g22
S'\x17\xd9\xce\xf7S\xe3\xc5?'
p4258
tp4259
Rp4260
ag2
(g22
S'\x7fj\xbct\x93<g@'
p4261
tp4262
Rp4263
aF0.942
aF0.47
aF0.0761
aF0.00721
aF-16.662
aF0.034
aF91.789
aF0.536
aa(lp4264
g2
(g3
(S'S13'
p4265
I0
I1
tp4266
Rp4267
(I3
S'|'
p4268
NNNI13
I1
I0
tp4269
bS'Alma De Metal'
p4270
tp4271
Rp4272
ag2
(g3
(S'S12'
p4273
I0
I1
tp4274
Rp4275
(I3
S'|'
p4276
NNNI12
I1
I0
tp4277
bS'Bobby Pulido'
p4278
tp4279
Rp4280
ag2
(g22
S'\xc7\x1a\xa0\xfbQm\xe2?'
p4281
tp4282
Rp4283
ag2
(g22
S'K\x8exo\x8aQ\xdb?'
p4284
tp4285
Rp4286
ag2
(g22
S'\xfa\xed\xeb\xc09\nk@'
p4287
tp4288
Rp4289
ag2
(g22
S'L7\x89A`\xe5\xd0?'
p4290
tp4291
Rp4292
ag2
(g22
S'\xc5 \xb0rh\xd5i@'
p4293
tp4294
Rp4295
aF0.248
aF0.367
aF0.6
aI0
aF-8.828
aF0.0343
aF200.115
aF0.746
aa(lp4296
g2
(g3
(S'S14'
p4297
I0
I1
tp4298
Rp4299
(I3
S'|'
p4300
NNNI14
I1
I0
tp4301
bS'Beautiful Lies'
p4302
tp4303
Rp4304
ag2
(g3
(S'S5'
p4305
I0
I1
tp4306
Rp4307
(I3
S'|'
p4308
NNNI5
I1
I0
tp4309
bS'Eddie'
p4310
tp4311
Rp4312
ag2
(g22
S'M\xc6\xceX\x07\xed\xe3?'
p4313
tp4314
Rp4315
ag2
(g22
S'\rl\x9bl\xeb.\xd7?'
p4316
tp4317
Rp4318
ag2
(g22
S'\x08\xac\x1cZd\xdfs@'
p4319
tp4320
Rp4321
ag2
(g22
S'\x08\xac\x1cZd;\xbf?'
p4322
tp4323
Rp4324
ag2
(g22
S'\x83\xc0\xca\xa1ETs@'
p4325
tp4326
Rp4327
aF0.087
aF0.732
aF0.396
aF1.09e-05
aF-9.593
aF0.0389
aF153.981
aF0.611
aa(lp4328
g2
(g3
(S'S48'
p4329
I0
I1
tp4330
Rp4331
(I3
S'|'
p4332
NNNI48
I1
I0
tp4333
bS'From the Gardner Meditations: African Tarantella'
p4334
tp4335
Rp4336
ag2
(g3
(S'S13'
p4337
I0
I1
tp4338
Rp4339
(I3
S'|'
p4340
NNNI13
I1
I0
tp4341
bS'Stefon Harris'
p4342
tp4343
Rp4344
ag2
(g22
S'\xb0Q\xc1\x0e!\x1c\xde?'
p4345
tp4346
Rp4347
ag2
(g22
S'Do\x80\x89\xae7\xd8?'
p4348
tp4349
Rp4350
ag2
(g22
S'PS\xcb\xd6:\xd2\x80@'
p4351
tp4352
Rp4353
ag2
(g22
S'\x0c\x02+\x87\x16\xd9\xd6?'
p4354
tp4355
Rp4356
ag2
(g22
S'\x02+\x87\x16\xd9r\x80@'
p4357
tp4358
Rp4359
aF0.917
aF0.343
aF0.461
aF0.853
aF-10.851
aF0.0368
aF70.155
aF0.293
aa(lp4360
g2
(g3
(S'S13'
p4361
I0
I1
tp4362
Rp4363
(I3
S'|'
p4364
NNNI13
I1
I0
tp4365
bS'Song For Paul'
p4366
tp4367
Rp4368
ag2
(g3
(S'S11'
p4369
I0
I1
tp4370
Rp4371
(I3
S'|'
p4372
NNNI11
I1
I0
tp4373
bS'Alex Gopher'
p4374
tp4375
Rp4376
ag2
(g22
S'\x0c\x96ZS\x16\xc2\xe4?'
p4377
tp4378
Rp4379
ag2
(g22
S'\x1bW\xa9\xdf\xf6,\xd9?'
p4380
tp4381
Rp4382
ag2
(g22
S'\xc6m4\x80\xb7\x80d@'
p4383
tp4384
Rp4385
ag2
(g22
S'\x9e\xef\xa7\xc6K7\xc9?'
p4386
tp4387
Rp4388
ag2
(g22
S'\xbe\x9f\x1a/\xdd\xf0c@'
p4389
tp4390
Rp4391
aF0.701
aF0.58
aF0.242
aF1.63e-05
aF-12.264
aF0.0283
aF79.924
aF0.126
aa(lp4392
g2
(g3
(S'S9'
p4393
I0
I1
tp4394
Rp4395
(I3
S'|'
p4396
NNNI9
I1
I0
tp4397
bS'Thrill Me'
p4398
tp4399
Rp4400
ag2
(g3
(S'S10'
p4401
I0
I1
tp4402
Rp4403
(I3
S'|'
p4404
NNNI10
I1
I0
tp4405
bS'Simply Red'
p4406
tp4407
Rp4408
ag2
(g22
S'eA\x95\xac0i\xe7?'
p4409
tp4410
Rp4411
ag2
(g22
S'\xde\xc8WYw\xe8\xdf?'
p4412
tp4413
Rp4414
ag2
(g22
S'/\x86r\xa2]\xffr@'
p4415
tp4416
Rp4417
ag2
(g22
S'\x00\x00\x00\x00\x00\x00\x00\x00'
p4418
tp4419
Rp4420
ag2
(g22
S'\x89A`\xe5\xd0\x86r@'
p4421
tp4422
Rp4423
aF0.0696
aF0.618
aF0.921
aF0.0263
aF-6.598
aF0.045
aF93.988
aF0.875
aa(lp4424
g2
(g3
(S'S48'
p4425
I0
I1
tp4426
Rp4427
(I3
S'|'
p4428
NNNI48
I1
I0
tp4429
bS'Covered (The Beauty Of Simplicity Album Version)'
p4430
tp4431
Rp4432
ag2
(g3
(S'S8'
p4433
I0
I1
tp4434
Rp4435
(I3
S'|'
p4436
NNNI8
I1
I0
tp4437
bS'Telecast'
p4438
tp4439
Rp4440
ag2
(g22
S'\xaf\xb8\xc7\x1eB7\xe2?'
p4441
tp4442
Rp4443
ag2
(g22
S'\xa0C\x086\x01a\xdb?'
p4444
tp4445
Rp4446
ag2
(g22
S'\x95\x82n/i\xbfh@'
p4447
tp4448
Rp4449
ag2
(g22
S'\xd5x\xe9&1\x08\xdc?'
p4450
tp4451
Rp4452
ag2
(g22
S'V\x0e-\xb2\x9d\xffg@'
p4453
tp4454
Rp4455
aF0.871
aF0.418
aF0.266
aF3.62e-06
aF-13.399
aF0.0287
aF169.869
aF0.211
aa(lp4456
g2
(g3
(S'S21'
p4457
I0
I1
tp4458
Rp4459
(I3
S'|'
p4460
NNNI21
I1
I0
tp4461
bS"I'd Rather Have Jesus"
p4462
tp4463
Rp4464
ag2
(g3
(S'S12'
p4465
I0
I1
tp4466
Rp4467
(I3
S'|'
p4468
NNNI12
I1
I0
tp4469
bS'Loretta Lynn'
p4470
tp4471
Rp4472
ag2
(g22
S'\xdbI%\x9eS\x14\xe5?'
p4473
tp4474
Rp4475
ag2
(g22
S'\x1f\x01\xe50NF\xda?'
p4476
tp4477
Rp4478
ag2
(g22
S'\xad\xa3\xaa\t\xa2/d@'
p4479
tp4480
Rp4481
ag2
(g22
S'\x08\xac\x1cZd;\xd7?'
p4482
tp4483
Rp4484
ag2
(g22
S'\x85\xebQ\xb8\x1eIc@'
p4485
tp4486
Rp4487
aF0.841
aF0.599
aF0.262
aI0
aF-11.539
aF0.0308
aF95.986
aF0.344
aa(lp4488
g2
(g3
(S'S4'
p4489
I0
I1
tp4490
Rp4491
(I3
S'|'
p4492
NNNI4
I1
I0
tp4493
bS'Toby'
p4494
tp4495
Rp4496
ag2
(g3
(S'S13'
p4497
I0
I1
tp4498
Rp4499
(I3
S'|'
p4500
NNNI13
I1
I0
tp4501
bS'The Chi Lites'
p4502
tp4503
Rp4504
ag2
(g22
S'\x86\xb8/\xcb\xacn\xe3?'
p4505
tp4506
Rp4507
ag2
(g22
S'\xb6\xa9\x06\xdd\xc3\xca\xd9?'
p4508
tp4509
Rp4510
ag2
(g22
S'\xc1\xca\xa1E\xb6Ve@'
p4511
tp4512
Rp4513
ag2
(g22
S'\x00\x00\x00\x00\x00\x00\x00\x00'
p4514
tp4515
Rp4516
ag2
(g22
S'#\xdb\xf9~jdd@'
p4517
tp4518
Rp4519
aF0.44
aF0.491
aF0.473
aF0.000121
aF-10.88
aF0.029
aF131.968
aF0.526
aa(lp4520
g2
(g3
(S'S21'
p4521
I0
I1
tp4522
Rp4523
(I3
S'|'
p4524
NNNI21
I1
I0
tp4525
bS'Yearning Just For You'
p4526
tp4527
Rp4528
ag2
(g3
(S'S9'
p4529
I0
I1
tp4530
Rp4531
(I3
S'|'
p4532
NNNI9
I1
I0
tp4533
bS'Bob Wills'
p4534
tp4535
Rp4536
ag2
(g22
S'5]5\x88\xe9\xec\xdf?'
p4537
tp4538
Rp4539
ag2
(g22
S'D\xf2\xfa\xf6FQ\xd8?'
p4540
tp4541
Rp4542
ag2
(g22
S'\xe5\xb8S:X\x08d@'
p4543
tp4544
Rp4545
ag2
(g22
S'\x87\x16\xd9\xce\xf7S\xdb?'
p4546
tp4547
Rp4548
ag2
(g22
S'\xcd\xcc\xcc\xcc\xcc\xf4b@'
p4549
tp4550
Rp4551
aF0.619
aF0.344
aF0.345
aF0.000979
aF-11.282
aF0.0306
aF174.851
aF0.784
aa(lp4552
g2
(g3
(S'S20'
p4553
I0
I1
tp4554
Rp4555
(I3
S'|'
p4556
NNNI20
I1
I0
tp4557
bS"Don't Know How To Be"
p4558
tp4559
Rp4560
ag2
(g3
(S'S20'
p4561
I0
I1
tp4562
Rp4563
(I3
S'|'
p4564
NNNI20
I1
I0
tp4565
bS'God Lives Underwater'
p4566
tp4567
Rp4568
ag2
(g22
S'9T%\xf4[\x10\xe2?'
p4569
tp4570
Rp4571
ag2
(g22
S'\x1eZo\x18\xb9A\xd7?'
p4572
tp4573
Rp4574
ag2
(g22
S'\x10\xcc\xd1\xe3\xf7\xecj@'
p4575
tp4576
Rp4577
ag2
(g22
S'\x00\x00\x00\x00\x00\x00\x00\x00'
p4578
tp4579
Rp4580
ag2
(g22
S'33333\xffi@'
p4581
tp4582
Rp4583
aF0.000868
aF0.544
aF0.908
aF3.01e-05
aF-5.887
aF0.0498
aF169.893
aF0.666
aa(lp4584
g2
(g3
(S'S18'
p4585
I0
I1
tp4586
Rp4587
(I3
S'|'
p4588
NNNI18
I1
I0
tp4589
bS'Merry-Go-Runaround'
p4590
tp4591
Rp4592
ag2
(g3
(S'S8'
p4593
I0
I1
tp4594
Rp4595
(I3
S'|'
p4596
NNNI8
I1
I0
tp4597
bS'Bob Hope'
p4598
tp4599
Rp4600
ag2
(g22
S'\x16\x84\x9a\x89\x9f\x01\xdc?'
p4601
tp4602
Rp4603
ag2
(g22
S'j\xc5\xa8\xa6\xe6\x87\xd5?'
p4604
tp4605
Rp4606
ag2
(g22
S'\xc9v\xbe\x9f\x1awb@'
p4607
tp4608
Rp4609
ag2
(g22
S'\x00\x00\x00\x00\x00\x00\x00\x00'
p4610
tp4611
Rp4612
ag2
(g22
S'\xc9v\xbe\x9f\x1awb@'
p4613
tp4614
Rp4615
aF0.938
aF0.72
aF0.333
aI0
aF-10.34
aF0.116
aF75.729
aF0.725
aa(lp4616
g2
(g3
(S'S9'
p4617
I0
I1
tp4618
Rp4619
(I3
S'|'
p4620
NNNI9
I1
I0
tp4621
bS'Sincerely'
p4622
tp4623
Rp4624
ag2
(g3
(S'S10'
p4625
I0
I1
tp4626
Rp4627
(I3
S'|'
p4628
NNNI10
I1
I0
tp4629
bS'Don & Juan'
p4630
tp4631
Rp4632
ag2
(g22
S'\xc68\xa7zQ\xbd\xe2?'
p4633
tp4634
Rp4635
ag2
(g22
S'\xe9\\N\x84TJ\xd4?'
p4636
tp4637
Rp4638
ag2
(g22
S'\xa1\x10\x01\x87P\x85b@'
p4639
tp4640
Rp4641
ag2
(g22
S'\n\xd7\xa3p=\n\xeb?'
p4642
tp4643
Rp4644
ag2
(g22
S'\x00\x00\x00\x00\x00\xf0`@'
p4645
tp4646
Rp4647
aF0.0813
aF0.467
aF0.92
aI0
aF-4.78
aF0.239
aF130.012
aF0.849
aa(lp4648
g2
(g3
(S'S13'
p4649
I0
I1
tp4650
Rp4651
(I3
S'|'
p4652
NNNI13
I1
I0
tp4653
bS'Althea Cooley'
p4654
tp4655
Rp4656
ag2
(g3
(S'S14'
p4657
I0
I1
tp4658
Rp4659
(I3
S'|'
p4660
NNNI14
I1
I0
tp4661
bS'Mack and Jamie'
p4662
tp4663
Rp4664
ag2
(g22
S'\x7f\xce\xaes\x1f\xb5\xd7?'
p4665
tp4666
Rp4667
ag2
(g22
S'\xf9\x9d\xc3N\x90\n\xd1?'
p4668
tp4669
Rp4670
ag2
(g22
S'\x17HP\xfc\x18\xa3;@'
p4671
tp4672
Rp4673
ag2
(g22
S'\x00\x00\x00\x00\x00\x00\x00\x00'
p4674
tp4675
Rp4676
ag2
(g22
S'P\x8d\x97n\x12\xa3;@'
p4677
tp4678
Rp4679
aF0.759
aF0.807
aF0.314
aI0
aF-13.498
aF0.888
aF106.195
aF0.968
aa(lp4680
g2
(g3
(S'S8'
p4681
I0
I1
tp4682
Rp4683
(I3
S'|'
p4684
NNNI8
I1
I0
tp4685
bS"I'm Back"
p4686
tp4687
Rp4688
ag2
(g3
(S'S6'
p4689
I0
I1
tp4690
Rp4691
(I3
S'|'
p4692
NNNI6
I1
I0
tp4693
bS'Eminem'
p4694
tp4695
Rp4696
ag2
(g22
S'\x9d\xacg\xa7Q\xdf\xeb?'
p4697
tp4698
Rp4699
ag2
(g22
S'\x8b\x8d\xcb\xbd+\xc1\xe9?'
p4700
tp4701
Rp4702
ag2
(g22
S'\x88c]\xdcF\x84s@'
p4703
tp4704
Rp4705
ag2
(g22
S'\x00\x00\x00\x00\x00\x00\x00\x00'
p4706
tp4707
Rp4708
ag2
(g22
S'y\xe9&1\x08\x08r@'
p4709
tp4710
Rp4711
aF0.0117
aF0.887
aF0.597
aF2.79e-05
aF-4.011
aF0.226
aF90.021
aF0.843
aa(lp4712
g2
(g3
(S'S16'
p4713
I0
I1
tp4714
Rp4715
(I3
S'|'
p4716
NNNI16
I1
I0
tp4717
bS"Devil's Daughter"
p4718
tp4719
Rp4720
ag2
(g3
(S'S11'
p4721
I0
I1
tp4722
Rp4723
(I3
S'|'
p4724
NNNI11
I1
I0
tp4725
bS'Eric Burdon'
p4726
tp4727
Rp4728
ag2
(g22
S',\xd5<*\xf5;\xe3?'
p4729
tp4730
Rp4731
ag2
(g22
S'\x807\x03?\xe7\xfc\xd6?'
p4732
tp4733
Rp4734
ag2
(g22
S'H\xa7\xae|\x96op@'
p4735
tp4736
Rp4737
ag2
(g22
S'\x1f\x85\xebQ\xb8\x1e\xc5?'
p4738
tp4739
Rp4740
ag2
(g22
S')\\\x8f\xc2\xf5\x0ep@'
p4741
tp4742
Rp4743
aF0.236
aF0.39
aF0.494
aF0.000329
aF-12.368
aF0.0351
aF81.002
aF0.648
aa(lp4744
g2
(g3
(S'S15'
p4745
I0
I1
tp4746
Rp4747
(I3
S'|'
p4748
NNNI15
I1
I0
tp4749
bS'Tabernacle Song'
p4750
tp4751
Rp4752
ag2
(g3
(S'S13'
p4753
I0
I1
tp4754
Rp4755
(I3
S'|'
p4756
NNNI13
I1
I0
tp4757
bS'Fake Problems'
p4758
tp4759
Rp4760
ag2
(g22
S'o\x8a\x1c\xae=\xca\xe4?'
p4761
tp4762
Rp4763
ag2
(g22
S'\xb8\xfa=\xa2\x9c)\xdd?'
p4764
tp4765
Rp4766
ag2
(g22
S'\xa3;\x88\x9d)oh@'
p4767
tp4768
Rp4769
ag2
(g22
S'\x08\xac\x1cZd;\xaf?'
p4770
tp4771
Rp4772
ag2
(g22
S'\x89A`\xe5\xd0rg@'
p4773
tp4774
Rp4775
aF0.0146
aF0.401
aF0.656
aI0
aF-6.254
aF0.0311
aF103.463
aF0.48
aa(lp4776
g2
(g3
(S'S15'
p4777
I0
I1
tp4778
Rp4779
(I3
S'|'
p4780
NNNI15
I1
I0
tp4781
bS'Anfang Vom Ende'
p4782
tp4783
Rp4784
ag2
(g3
(S'S7'
p4785
I0
I1
tp4786
Rp4787
(I3
S'|'
p4788
NNNI7
I1
I0
tp4789
bS'Pyranja'
p4790
tp4791
Rp4792
ag2
(g22
S'~,\xf7~\xb9\x8e\xe1?'
p4793
tp4794
Rp4795
ag2
(g22
S'\xfea\xb0\xda\xad\xf1\xd6?'
p4796
tp4797
Rp4798
ag2
(g22
S'\x91\xd5\xad\x9e\x93FN@'
p4799
tp4800
Rp4801
ag2
(g22
S'\xe9&1\x08\xac\x1c\xba?'
p4802
tp4803
Rp4804
ag2
(g22
S'J\x0c\x02+\x87FN@'
p4805
tp4806
Rp4807
aF0.408
aF0.721
aF0.7
aF1.68e-05
aF-8.817
aF0.32
aF95.914
aF0.639
aa(lp4808
g2
(g3
(S'S17'
p4809
I0
I1
tp4810
Rp4811
(I3
S'|'
p4812
NNNI17
I1
I0
tp4813
bS"I'll Pray For You"
p4814
tp4815
Rp4816
ag2
(g3
(S'S10'
p4817
I0
I1
tp4818
Rp4819
(I3
S'|'
p4820
NNNI10
I1
I0
tp4821
bS'The Perrys'
p4822
tp4823
Rp4824
ag2
(g22
S"'8\x80;\xf4\n\xe0?"
p4825
tp4826
Rp4827
ag2
(g22
S'e\x86\xda\x1d\x0f]\xd8?'
p4828
tp4829
Rp4830
ag2
(g22
S'\xea\xecdp\x94\xe8o@'
p4831
tp4832
Rp4833
ag2
(g22
S'\x00\x00\x00\x00\x00\x00\x00\x00'
p4834
tp4835
Rp4836
ag2
(g22
S'q=\n\xd7\xa3`n@'
p4837
tp4838
Rp4839
aF0.784
aF0.166
aF0.19
aI0
aF-15.573
aF0.0344
aF83.015
aF0.202
aa(lp4840
g2
(g3
(S'S22'
p4841
I0
I1
tp4842
Rp4843
(I3
S'|'
p4844
NNNI22
I1
I0
tp4845
bS"I'm Gonna Take My Time"
p4846
tp4847
Rp4848
ag2
(g3
(S'S14'
p4849
I0
I1
tp4850
Rp4851
(I3
S'|'
p4852
NNNI14
I1
I0
tp4853
bS'Anthony Watson'
p4854
tp4855
Rp4856
ag2
(g22
S'^n\xdd\x03v\x94\xd7?'
p4857
tp4858
Rp4859
ag2
(g22
S'\x00\x00\x00\x00\x00\x00\x00\x00'
p4860
tp4861
Rp4862
ag2
(g22
S'\xb5\x15\xfb\xcbn=p@'
p4863
tp4864
Rp4865
ag2
(g22
S'\xfe\xd4x\xe9&1\xc8?'
p4866
tp4867
Rp4868
ag2
(g22
S'P\x8d\x97n\x12\xcbn@'
p4869
tp4870
Rp4871
aF0.0624
aF0.575
aF0.632
aF0.234
aF-6.657
aF0.0411
aF82.045
aF0.606
aa(lp4872
g2
(g3
(S'S5'
p4873
I0
I1
tp4874
Rp4875
(I3
S'|'
p4876
NNNI5
I1
I0
tp4877
bS'Amaze'
p4878
tp4879
Rp4880
ag2
(g3
(S'S11'
p4881
I0
I1
tp4882
Rp4883
(I3
S'|'
p4884
NNNI11
I1
I0
tp4885
bS'Jimmy Riley'
p4886
tp4887
Rp4888
ag2
(g22
S'\xa6\xc6\xa2\xc1\n\x93\xde?'
p4889
tp4890
Rp4891
ag2
(g22
S'\xac^<\xc7^.\xd3?'
p4892
tp4893
Rp4894
ag2
(g22
S'e\xc2/\xf5\xf3\xe7j@'
p4895
tp4896
Rp4897
ag2
(g22
S'P\x8d\x97n\x12\x83\xd0?'
p4898
tp4899
Rp4900
ag2
(g22
S'\x04V\x0e-\xb2\xc9i@'
p4901
tp4902
Rp4903
aF0.454
aF0.704
aF0.598
aI0
aF-7.128
aF0.0317
aF159.835
aF0.683
aa(lp4904
g2
(g3
(S'S23'
p4905
I0
I1
tp4906
Rp4907
(I3
S'|'
p4908
NNNI23
I1
I0
tp4909
bS'2 Fists Full Of Nothing'
p4910
tp4911
Rp4912
ag2
(g3
(S'S8'
p4913
I0
I1
tp4914
Rp4915
(I3
S'|'
p4916
NNNI8
I1
I0
tp4917
bS'Bruisers'
p4918
tp4919
Rp4920
ag2
(g22
S'>\x0fR\xc09H\xdd?'
p4921
tp4922
Rp4923
ag2
(g22
S"\x97\xe1\xd1\xba'\x95\xda?"
p4924
tp4925
Rp4926
ag2
(g22
S'\xce\x8d\xe9\tK\x10r@'
p4927
tp4928
Rp4929
ag2
(g22
S'%\x06\x81\x95C\x8b\xcc?'
p4930
tp4931
Rp4932
ag2
(g22
S'\x8bl\xe7\xfb\xa9\xcfq@'
p4933
tp4934
Rp4935
aF4.94e-05
aF0.433
aF0.805
aF0.000289
aF-10.221
aF0.0536
aF134.812
aF0.635
aa(lp4936
g2
(g3
(S'S37'
p4937
I0
I1
tp4938
Rp4939
(I3
S'|'
p4940
NNNI37
I1
I0
tp4941
bS'(You\'re) Timeless To Me ("Hairspray")'
p4942
tp4943
Rp4944
ag2
(g3
(S'S34'
p4945
I0
I1
tp4946
Rp4947
(I3
S'|'
p4948
NNNI34
I1
I0
tp4949
bS'John Travolta / Christopher Walken'
p4950
tp4951
Rp4952
ag2
(g22
S'\x03\xba\t\xb2gB\xdf?'
p4953
tp4954
Rp4955
ag2
(g22
S'J\xee\\\xcc\xce\xce\xd3?'
p4956
tp4957
Rp4958
ag2
(g22
S'P\xaa}:\x9e\xf2q@'
p4959
tp4960
Rp4961
ag2
(g22
S"'1\x08\xac\x1cZ\xc4?"
p4962
tp4963
Rp4964
ag2
(g22
S'\xfc\xa9\xf1\xd2M\x94q@'
p4965
tp4966
Rp4967
aF0.795
aF0.568
aF0.415
aI0
aF-8.166
aF0.089
aF116.821
aF0.509
aa(lp4968
g2
(g3
(S'S11'
p4969
I0
I1
tp4970
Rp4971
(I3
S'|'
p4972
NNNI11
I1
I0
tp4973
bS'In My Heart'
p4974
tp4975
Rp4976
ag2
(g3
(S'S14'
p4977
I0
I1
tp4978
Rp4979
(I3
S'|'
p4980
NNNI14
I1
I0
tp4981
bS'Paul Avgerinos'
p4982
tp4983
Rp4984
ag2
(g22
S'\x05\x86\xd7\x8e\xfc\xc0\xdc?'
p4985
tp4986
Rp4987
ag2
(g22
S'\x8f\x19\xaf\xab\xc9K\xd4?'
p4988
tp4989
Rp4990
ag2
(g22
S'E/\xa3Xn/u@'
p4991
tp4992
Rp4993
ag2
(g22
S'\xe7\xfb\xa9\xf1\xd2M\x0b@'
p4994
tp4995
Rp4996
ag2
(g22
S'\xdfO\x8d\x97nLt@'
p4997
tp4998
Rp4999
aF0.976
aF0.0706
aF0.0668
aF0.978
aF-26.717
aF0.0487
aF76.312
aF0.0279
aa(lp5000
g2
(g3
(S'S20'
p5001
I0
I1
tp5002
Rp5003
(I3
S'|'
p5004
NNNI20
I1
I0
tp5005
bS'Collides With Beauty'
p5006
tp5007
Rp5008
ag2
(g3
(S'S3'
p5009
I0
I1
tp5010
Rp5011
(I3
S'|'
p5012
NNNI3
I1
I0
tp5013
bS'ATB'
p5014
tp5015
Rp5016
ag2
(g22
S'\xac\xc6\xed\x91aM\xe9?'
p5017
tp5018
Rp5019
ag2
(g22
S'\xbf^-\x97\xfcB\xe0?'
p5020
tp5021
Rp5022
ag2
(g22
S'\x13\x9b\x8fk\xc3\xd0u@'
p5023
tp5024
Rp5025
ag2
(g22
S'\x00\x00\x00\x00\x00\x00\x00\x00'
p5026
tp5027
Rp5028
ag2
(g22
S'?5^\xbaI\x86u@'
p5029
tp5030
Rp5031
aF0.0418
aF0.595
aF0.896
aF0.603
aF-6.789
aF0.0407
aF136.988
aF0.797
aa(lp5032
g2
(g3
(S'S9'
p5033
I0
I1
tp5034
Rp5035
(I3
S'|'
p5036
NNNI9
I1
I0
tp5037
bS'Cien Anos'
p5038
tp5039
Rp5040
ag2
(g3
(S'S6'
p5041
I0
I1
tp5042
Rp5043
(I3
S'|'
p5044
NNNI6
I1
I0
tp5045
bS'Selena'
p5046
tp5047
Rp5048
ag2
(g22
S'\xa0\xf6RB>\xf2\xe7?'
p5049
tp5050
Rp5051
ag2
(g22
S'%)\xba\xcc\xbbw\xe1?'
p5052
tp5053
Rp5054
ag2
(g22
S'\xff\xcaJ\x93R\xcbg@'
p5055
tp5056
Rp5057
ag2
(g22
S'\x06\x81\x95C\x8bl\xc7?'
p5058
tp5059
Rp5060
ag2
(g22
S'\x1dZd;\xdf\xdff@'
p5061
tp5062
Rp5063
aF0.518
aF0.695
aF0.732
aF4.58e-06
aF-4.746
aF0.0355
aF181.157
aF0.957
aa(lp5064
g2
(g3
(S'S15'
p5065
I0
I1
tp5066
Rp5067
(I3
S'|'
p5068
NNNI15
I1
I0
tp5069
bS'A Little Of You'
p5070
tp5071
Rp5072
ag2
(g3
(S'S10'
p5073
I0
I1
tp5074
Rp5075
(I3
S'|'
p5076
NNNI10
I1
I0
tp5077
bS'Eurythmics'
p5078
tp5079
Rp5080
ag2
(g22
S'1a\xe3!A\x08\xe8?'
p5081
tp5082
Rp5083
ag2
(g22
S'\xadS~\x91$\xc2\xe0?'
p5084
tp5085
Rp5086
ag2
(g22
S'\xa6\xb8\xaa\xec\xbb\x93m@'
p5087
tp5088
Rp5089
ag2
(g22
S'\xbct\x93\x18\x04V\x06@'
p5090
tp5091
Rp5092
ag2
(g22
S'o\x12\x83\xc0\xcayk@'
p5093
tp5094
Rp5095
aF0.0253
aF0.591
aF0.918
aI0
aF-4.132
aF0.0319
aF111.136
aF0.901
aa(lp5096
g2
(g3
(S'S10'
p5097
I0
I1
tp5098
Rp5099
(I3
S'|'
p5100
NNNI10
I1
I0
tp5101
bS'Cai dentro'
p5102
tp5103
Rp5104
ag2
(g3
(S'S14'
p5105
I0
I1
tp5106
Rp5107
(I3
S'|'
p5108
NNNI14
I1
I0
tp5109
bS'Gabriel Grossi'
p5110
tp5111
Rp5112
ag2
(g22
S'\x1dQd\x92\xbe\xbe\xdb?'
p5113
tp5114
Rp5115
ag2
(g22
S'\x00\x00\x00\x00\x00\x00\x00\x00'
p5116
tp5117
Rp5118
ag2
(g22
S'\x9e^)\xcb\x10\xaeo@'
p5119
tp5120
Rp5121
ag2
(g22
S'\x00\x00\x00\x00\x00\x00\x00\x00'
p5122
tp5123
Rp5124
ag2
(g22
S'\x10X9\xb4\xc8\xd6n@'
p5125
tp5126
Rp5127
aF0.315
aF0.584
aF0.848
aF0.657
aF-7.19
aF0.0431
aF142.936
aF0.711
aa(lp5128
g2
(g3
(S'S18'
p5129
I0
I1
tp5130
Rp5131
(I3
S'|'
p5132
NNNI18
I1
I0
tp5133
bS'My Funny Valentine'
p5134
tp5135
Rp5136
ag2
(g3
(S'S37'
p5137
I0
I1
tp5138
Rp5139
(I3
S'|'
p5140
NNNI37
I1
I0
tp5141
bS'Jeanie Lambe & The Danny Moss Quartet'
p5142
tp5143
Rp5144
ag2
(g22
S'\xaf6\xdf\xd4_\xc8\xa3?'
p5145
tp5146
Rp5147
ag2
(g22
S'\x00\x00\x00\x00\x00\x00\x00\x00'
p5148
tp5149
Rp5150
ag2
(g22
S'\xa6\xb8\xaa\xec\xbb\x93i@'
p5151
tp5152
Rp5153
ag2
(g22
S'P\x8d\x97n\x12\x83\xd8?'
p5154
tp5155
Rp5156
ag2
(g22
S'\x12\x83\xc0\xca\xa1\xd5h@'
p5157
tp5158
Rp5159
aF0.639
aF0.658
aF0.534
aI0
aF-9.277
aF0.183
aF105.467
aF0.767
aa(lp5160
g2
(g3
(S'S27'
p5161
I0
I1
tp5162
Rp5163
(I3
S'|'
p5164
NNNI27
I1
I0
tp5165
bS"Kathleen's Song / Ray Lynch"
p5166
tp5167
Rp5168
ag2
(g3
(S'S9'
p5169
I0
I1
tp5170
Rp5171
(I3
S'|'
p5172
NNNI9
I1
I0
tp5173
bS'Ray Lynch'
p5174
tp5175
Rp5176
ag2
(g22
S'\xd5_\xb4\xdfq\x90\xe1?'
p5177
tp5178
Rp5179
ag2
(g22
S'\xf7v\x81\x7f7\xb8\xd8?'
p5180
tp5181
Rp5182
ag2
(g22
S'\xe0\xdb\xf4g?Go@'
p5183
tp5184
Rp5185
ag2
(g22
S'\xf6(\\\x8f\xc2\xf5\xd0?'
p5186
tp5187
Rp5188
ag2
(g22
S'\xdd$\x06\x81\x95\x03m@'
p5189
tp5190
Rp5191
aF0.937
aF0.288
aF0.0919
aF0.618
aF-20.891
aF0.0437
aF117.456
aF0.119
aa(lp5192
g2
(g3
(S'S10'
p5193
I0
I1
tp5194
Rp5195
(I3
S'|'
p5196
NNNI10
I1
I0
tp5197
bS'Trows Kind'
p5198
tp5199
Rp5200
ag2
(g3
(S'S9'
p5201
I0
I1
tp5202
Rp5203
(I3
S'|'
p5204
NNNI9
I1
I0
tp5205
bS'Elvenking'
p5206
tp5207
Rp5208
ag2
(g22
S'\xfbf\xb1\x84R\xaf\xe4?'
p5209
tp5210
Rp5211
ag2
(g22
S'\x1a\x9cc\xf0X\x17\xdb?'
p5212
tp5213
Rp5214
ag2
(g22
S'\x91D/\xa3XWv@'
p5215
tp5216
Rp5217
ag2
(g22
S'\xcb\xa1E\xb6\xf3\xfd\xd4?'
p5218
tp5219
Rp5220
ag2
(g22
S'\x89A`\xe5\xd00v@'
p5221
tp5222
Rp5223
aF2.91e-05
aF0.509
aF0.902
aF4.01e-05
aF-5.273
aF0.0466
aF100.065
aF0.527
aa(lp5224
g2
(g3
(S'S9'
p5225
I0
I1
tp5226
Rp5227
(I3
S'|'
p5228
NNNI9
I1
I0
tp5229
bS'Ascendant'
p5230
tp5231
Rp5232
ag2
(g3
(S'S16'
p5233
I0
I1
tp5234
Rp5235
(I3
S'|'
p5236
NNNI16
I1
I0
tp5237
bS'Keep Of Kalessin'
p5238
tp5239
Rp5240
ag2
(g22
S'\x8a\xab\xa3\x17uj\xe4?'
p5241
tp5242
Rp5243
ag2
(g22
S'\x8b\x17$\x8c\x1a,\xde?'
p5244
tp5245
Rp5246
ag2
(g22
S'\xd6n\xbb\xd0\\\xe3p@'
p5247
tp5248
Rp5249
ag2
(g22
S'\xe9&1\x08\xac\x1c\xba?'
p5250
tp5251
Rp5252
ag2
(g22
S'H\xe1z\x14\xae\x8fp@'
p5253
tp5254
Rp5255
aF0.000689
aF0.403
aF0.983
aF0.000885
aF-3.638
aF0.126
aF114.881
aF0.141
aa(lp5256
g2
(g3
(S'S14'
p5257
I0
I1
tp5258
Rp5259
(I3
S'|'
p5260
NNNI14
I1
I0
tp5261
bS'Smith & Wesson'
p5262
tp5263
Rp5264
ag2
(g3
(S'S7'
p5265
I0
I1
tp5266
Rp5267
(I3
S'|'
p5268
NNNI7
I1
I0
tp5269
bS'Frenchy'
p5270
tp5271
Rp5272
ag2
(g22
S'8\x8eC92\x1b\xe2?'
p5273
tp5274
Rp5275
ag2
(g22
S';t\xba\xdd\xa1\xb8\xd3?'
p5276
tp5277
Rp5278
ag2
(g22
S'\xd1\x96s)\xae\xc5n@'
p5279
tp5280
Rp5281
ag2
(g22
S'\x19\x04V\x0e-\xb2\xdd?'
p5282
tp5283
Rp5284
ag2
(g22
S'b\x10X9\xb4Pm@'
p5285
tp5286
Rp5287
aF0.362
aF0.511
aF0.733
aF1.15e-05
aF-7.365
aF0.0528
aF96.114
aF0.742
aa(lp5288
g2
(g3
(S'S19'
p5289
I0
I1
tp5290
Rp5291
(I3
S'|'
p5292
NNNI19
I1
I0
tp5293
bS'Bring Out Your Dead'
p5294
tp5295
Rp5296
ag2
(g3
(S'S9'
p5297
I0
I1
tp5298
Rp5299
(I3
S'|'
p5300
NNNI9
I1
I0
tp5301
bS'Cadacross'
p5302
tp5303
Rp5304
ag2
(g22
S'\xa8\xc3\n-5\xad\xe0?'
p5305
tp5306
Rp5307
ag2
(g22
S'\xdd3\xd0\x80\x82>\xd9?'
p5308
tp5309
Rp5310
ag2
(g22
S'\xb2KTo\r>k@'
p5311
tp5312
Rp5313
ag2
(g22
S'1\x08\xac\x1cZd\xbb?'
p5314
tp5315
Rp5316
ag2
(g22
S'`\xe5\xd0"\xdb\x95j@'
p5317
tp5318
Rp5319
aF0.000876
aF0.5
aF0.974
aF0.572
aF-4.321
aF0.0672
aF92.492
aF0.365
aa(lp5320
g2
(g3
(S'S11'
p5321
I0
I1
tp5322
Rp5323
(I3
S'|'
p5324
NNNI11
I1
I0
tp5325
bS'Angry Chair'
p5326
tp5327
Rp5328
ag2
(g3
(S'S15'
p5329
I0
I1
tp5330
Rp5331
(I3
S'|'
p5332
NNNI15
I1
I0
tp5333
bS'Alice In Chains'
p5334
tp5335
Rp5336
ag2
(g22
S'\x94qd\xdb\x97{\xe9?'
p5337
tp5338
Rp5339
ag2
(g22
S'O\x9f_&K\xa7\xe2?'
p5340
tp5341
Rp5342
ag2
(g22
S'\xe7\xc6\xf4\x84\xa5gp@'
p5343
tp5344
Rp5345
ag2
(g22
S'\x00\x00\x00\x00\x00\x00\x00\x00'
p5346
tp5347
Rp5348
ag2
(g22
S'\xcf\xf7S\xe3\xa5gp@'
p5349
tp5350
Rp5351
aF0.0443
aF0.325
aF0.937
aI0
aF-6.295
aF0.085
aF106.989
aF0.158
aa(lp5352
g2
(g3
(S'S23'
p5353
I0
I1
tp5354
Rp5355
(I3
S'|'
p5356
NNNI23
I1
I0
tp5357
bS'The Modern Rome Burning'
p5358
tp5359
Rp5360
ag2
(g3
(S'S9'
p5361
I0
I1
tp5362
Rp5363
(I3
S'|'
p5364
NNNI9
I1
I0
tp5365
bS'Anti-Flag'
p5366
tp5367
Rp5368
ag2
(g22
S'qTn1_\x02\xeb?'
p5369
tp5370
Rp5371
ag2
(g22
S'\x02\xbeBq\xb6\xc7\xe0?'
p5372
tp5373
Rp5374
ag2
(g22
S'\x83\x17}\x05\xe9\xbcr@'
p5375
tp5376
Rp5377
ag2
(g22
S'!\xb0rh\x91\xed\xbc?'
p5378
tp5379
Rp5380
ag2
(g22
S'\xb0rh\x91\xedzr@'
p5381
tp5382
Rp5383
aF0.00352
aF0.245
aF0.963
aF0.000297
aF-3.698
aF0.224
aF187.913
aF0.331
aa(lp5384
g2
(g3
(S'S13'
p5385
I0
I1
tp5386
Rp5387
(I3
S'|'
p5388
NNNI13
I1
I0
tp5389
bS'Spawn (Again)'
p5390
tp5391
Rp5392
ag2
(g3
(S'S11'
p5393
I0
I1
tp5394
Rp5395
(I3
S'|'
p5396
NNNI11
I1
I0
tp5397
bS'Silverchair'
p5398
tp5399
Rp5400
ag2
(g22
S'\x82\xdd\xb5\xe4\x8f\x91\xe8?'
p5401
tp5402
Rp5403
ag2
(g22
S';E\x93\xd4\xb6(\xe1?'
p5404
tp5405
Rp5406
ag2
(g22
S'p\x99\xd3e1\xf2i@'
p5407
tp5408
Rp5409
ag2
(g22
S'X9\xb4\xc8v\xbe\xaf?'
p5410
tp5411
Rp5412
ag2
(g22
S'\x9a\x99\x99\x99\x99)i@'
p5413
tp5414
Rp5415
aF0.0167
aF0.319
aF0.859
aF0.00405
aF-6.597
aF0.0609
aF138.175
aF0.233
aa(lp5416
g2
(g3
(S'S11'
p5417
I0
I1
tp5418
Rp5419
(I3
S'|'
p5420
NNNI11
I1
I0
tp5421
bS'Prospection'
p5422
tp5423
Rp5424
ag2
(g3
(S'S14'
p5425
I0
I1
tp5426
Rp5427
(I3
S'|'
p5428
NNNI14
I1
I0
tp5429
bS'Henri Pousseur'
p5430
tp5431
Rp5432
ag2
(g22
S'G\xf3\xa7\x0e\xc3`\xd8?'
p5433
tp5434
Rp5435
ag2
(g22
S'w\xe0\x08\xe3!{\xd0?'
p5436
tp5437
Rp5438
ag2
(g22
S'\xb8\x01\x9f\x1f\xc6\xabr@'
p5439
tp5440
Rp5441
ag2
(g22
S'\x00\x00\x00\x00\x00\x00\x00\x00'
p5442
tp5443
Rp5444
ag2
(g22
S'%\x06\x81\x95C\x9fq@'
p5445
tp5446
Rp5447
aF0.963
aF0.521
aF0.0804
aF0.806
aF-20.475
aF0.119
aF78.26
aF0.17
aa(lp5448
g2
(g3
(S'S9'
p5449
I0
I1
tp5450
Rp5451
(I3
S'|'
p5452
NNNI9
I1
I0
tp5453
bS'Neglected'
p5454
tp5455
Rp5456
ag2
(g3
(S'S8'
p5457
I0
I1
tp5458
Rp5459
(I3
S'|'
p5460
NNNI8
I1
I0
tp5461
bS'Marygold'
p5462
tp5463
Rp5464
ag2
(g22
S'l>C\xae $\xe0?'
p5465
tp5466
Rp5467
ag2
(g22
S'T=\xbeb\x82>\xd4?'
p5468
tp5469
Rp5470
ag2
(g22
S'5{\xa0\x15\x18#l@'
p5471
tp5472
Rp5473
ag2
(g22
S'F\xb6\xf3\xfd\xd4x\xd9?'
p5474
tp5475
Rp5476
ag2
(g22
S'\xd7\xa3p=\n\x93k@'
p5477
tp5478
Rp5479
aF0.0495
aF0.6
aF0.908
aF0.0277
aF-4.362
aF0.031
aF133.849
aF0.508
aa(lp5480
g2
(g3
(S'S58'
p5481
I0
I1
tp5482
Rp5483
(I3
S'|'
p5484
NNNI58
I1
I0
tp5485
bS'Intro. & Hello Young Lovers (Live) (2000 Digital Remaster)'
p5486
tp5487
Rp5488
ag2
(g3
(S'S11'
p5489
I0
I1
tp5490
Rp5491
(I3
S'|'
p5492
NNNI11
I1
I0
tp5493
bS'Bobby Darin'
p5494
tp5495
Rp5496
ag2
(g22
S'\xfc\ns\xec\x89\x8a\xe6?'
p5497
tp5498
Rp5499
ag2
(g22
S'\xac\xad\xa9\xf6\x12\x0b\xde?'
p5500
tp5501
Rp5502
ag2
(g22
S'X\xca2\xc4\xb1:_@'
p5503
tp5504
Rp5505
ag2
(g22
S'j\xbct\x93\x18\x04\x02@'
p5506
tp5507
Rp5508
ag2
(g22
S'\xa6\x9b\xc4 \xb0:_@'
p5509
tp5510
Rp5511
aF0.698
aF0.532
aF0.664
aI0
aF-10.259
aF0.217
aF76.193
aF0.681
aa(lp5512
g2
(g3
(S'S10'
p5513
I0
I1
tp5514
Rp5515
(I3
S'|'
p5516
NNNI10
I1
I0
tp5517
bS'Good Texan'
p5518
tp5519
Rp5520
ag2
(g3
(S'S20'
p5521
I0
I1
tp5522
Rp5523
(I3
S'|'
p5524
NNNI20
I1
I0
tp5525
bS'The Vaughan Brothers'
p5526
tp5527
Rp5528
ag2
(g22
S'\xd9U\xe9\xde\x87\xbc\xe2?'
p5529
tp5530
Rp5531
ag2
(g22
S'\xa9|\x0be\xc0Z\xd7?'
p5532
tp5533
Rp5534
ag2
(g22
S'\xb9\xa5\xd5\x90\xb8dp@'
p5535
tp5536
Rp5537
ag2
(g22
S'\xd3Mb\x10X9\xb4?'
p5538
tp5539
Rp5540
ag2
(g22
S'D\x8bl\xe7\xfb9o@'
p5541
tp5542
Rp5543
aF0.0511
aF0.79
aF0.588
aF0.0013
aF-10.241
aF0.0519
aF142.573
aF0.82
aa(lp5544
g2
(g3
(S'S19'
p5545
I0
I1
tp5546
Rp5547
(I3
S'|'
p5548
NNNI19
I1
I0
tp5549
bS'Dontchaletmecatchya'
p5550
tp5551
Rp5552
ag2
(g3
(S'S9'
p5553
I0
I1
tp5554
Rp5555
(I3
S'|'
p5556
NNNI9
I1
I0
tp5557
bS'The Wiyos'
p5558
tp5559
Rp5560
ag2
(g22
S'\xfb\x01\x13\xaf\x9f\x83\xe3?'
p5561
tp5562
Rp5563
ag2
(g22
S'=\n\xa0zV1\xd4?'
p5564
tp5565
Rp5566
ag2
(g22
S'\xf0\x85\xc9T\xc1Ig@'
p5567
tp5568
Rp5569
ag2
(g22
S'\x00\x00\x00\x00\x00\x00\x00\x00'
p5570
tp5571
Rp5572
ag2
(g22
S'j\xbct\x93\x18\xd8f@'
p5573
tp5574
Rp5575
aF0.695
aF0.698
aF0.542
aF0.000804
aF-9.997
aF0.0679
aF96.744
aF0.903
aa(lp5576
g2
(g3
(S'S16'
p5577
I0
I1
tp5578
Rp5579
(I3
S'|'
p5580
NNNI16
I1
I0
tp5581
bS'Soul of Ethiopia'
p5582
tp5583
Rp5584
ag2
(g3
(S'S5'
p5585
I0
I1
tp5586
Rp5587
(I3
S'|'
p5588
NNNI5
I1
I0
tp5589
bS'Oh No'
p5590
tp5591
Rp5592
ag2
(g22
S'\xa2\n\x06\xfb\xe7u\xe5?'
p5593
tp5594
Rp5595
ag2
(g22
S'\xc8\xb9\x03\xebSP\xdb?'
p5596
tp5597
Rp5598
ag2
(g22
S'\xd7/\xd8\r\xdb\xa4[@'
p5599
tp5600
Rp5601
ag2
(g22
S'\x00\x00\x00\x00\x00\x00\x00\x00'
p5602
tp5603
Rp5604
ag2
(g22
S'\xa0\x1a/\xdd$^Z@'
p5605
tp5606
Rp5607
aF0.148
aF0.486
aF0.583
aF0.903
aF-7.208
aF0.195
aF79.208
aF0.655
aa(lp5608
g2
(g3
(S'S11'
p5609
I0
I1
tp5610
Rp5611
(I3
S'|'
p5612
NNNI11
I1
I0
tp5613
bS'Louie Louie'
p5614
tp5615
Rp5616
ag2
(g3
(S'S23'
p5617
I0
I1
tp5618
Rp5619
(I3
S'|'
p5620
NNNI23
I1
I0
tp5621
bS'Eddie and the Subtitles'
p5622
tp5623
Rp5624
ag2
(g22
S'A\xa3O}\x91 \xd7?'
p5625
tp5626
Rp5627
ag2
(g22
S'n\xc5\x88;\xf4\xb0\xd3?'
p5628
tp5629
Rp5630
ag2
(g22
S'\x98\xfayS\x91\xffa@'
p5631
tp5632
Rp5633
ag2
(g22
S'\x91\xed|?5^\xca?'
p5634
tp5635
Rp5636
ag2
(g22
S'\x9e\xef\xa7\xc6KGa@'
p5637
tp5638
Rp5639
aF0.000152
aF0.352
aF0.896
aF1.39e-06
aF-7.237
aF0.0571
aF153.784
aF0.793
aa(lp5640
g2
(g3
(S'S22'
p5641
I0
I1
tp5642
Rp5643
(I3
S'|'
p5644
NNNI22
I1
I0
tp5645
bS"This Ain't A Love Song"
p5646
tp5647
Rp5648
ag2
(g3
(S'S8'
p5649
I0
I1
tp5650
Rp5651
(I3
S'|'
p5652
NNNI8
I1
I0
tp5653
bS'Bon Jovi'
p5654
tp5655
Rp5656
ag2
(g22
S'\x07s\x98\xcd\x86\xdb\xea?'
p5657
tp5658
Rp5659
ag2
(g22
S'\xbaFo\xa7(\x01\xe7?'
p5660
tp5661
Rp5662
ag2
(g22
S'Ic\xb4\x8e\xaa\x0f{@'
p5663
tp5664
Rp5665
ag2
(g22
S'\xb8\x1e\x85\xebQ\xb8\x00@'
p5666
tp5667
Rp5668
ag2
(g22
S'\xe1z\x14\xaeGKz@'
p5669
tp5670
Rp5671
aF0.0906
aF0.227
aF0.65
aI0
aF-6.8
aF0.0504
aF174.724
aF0.163
aa(lp5672
g2
(g3
(S'S26'
p5673
I0
I1
tp5674
Rp5675
(I3
S'|'
p5676
NNNI26
I1
I0
tp5677
bS'A.C.A.B. (Bumper Sessions)'
p5678
tp5679
Rp5680
ag2
(g3
(S'S7'
p5681
I0
I1
tp5682
Rp5683
(I3
S'|'
p5684
NNNI7
I1
I0
tp5685
bS'4 Skins'
p5686
tp5687
Rp5688
ag2
(g22
S'\xad7\x1a\xa7\xba\xea\xe0?'
p5689
tp5690
Rp5691
ag2
(g22
S'\x00\x00\x00\x00\x00\x00\x00\x00'
p5692
tp5693
Rp5694
ag2
(g22
S'\xdf\x15\xc1\xffV\\V@'
p5695
tp5696
Rp5697
ag2
(g22
S'\x1b/\xdd$\x06\x81\xdd?'
p5698
tp5699
Rp5700
ag2
(g22
S'\xaeG\xe1z\x14FU@'
p5701
tp5702
Rp5703
aF0.000805
aF0.342
aF0.968
aF0.551
aF-5.438
aF0.222
aF140.359
aF0.485
aa(lp5704
g2
(g3
(S'S8'
p5705
I0
I1
tp5706
Rp5707
(I3
S'|'
p5708
NNNI8
I1
I0
tp5709
bS'Tenderly'
p5710
tp5711
Rp5712
ag2
(g3
(S'S13'
p5713
I0
I1
tp5714
Rp5715
(I3
S'|'
p5716
NNNI13
I1
I0
tp5717
bS'Eddie Calvert'
p5718
tp5719
Rp5720
ag2
(g22
S'\x15\x8c\xd5\xaf\xbb\xf4\xda?'
p5721
tp5722
Rp5723
ag2
(g22
S'24\xb1\xc2\xf6\xdf\xd3?'
p5724
tp5725
Rp5726
ag2
(g22
S'[%X\x1c\xcete@'
p5727
tp5728
Rp5729
ag2
(g22
S'\x93\x18\x04V\x0e-\x07@'
p5730
tp5731
Rp5732
ag2
(g22
S'\xe9&1\x08\xachd@'
p5733
tp5734
Rp5735
aF0.988
aF0.257
aF0.142
aF0.922
aF-15.156
aF0.0407
aF89.175
aF0.105
aa(lp5736
g2
(g3
(S'S18'
p5737
I0
I1
tp5738
Rp5739
(I3
S'|'
p5740
NNNI18
I1
I0
tp5741
bS'No Good In Goodbye'
p5742
tp5743
Rp5744
ag2
(g3
(S'S21'
p5745
I0
I1
tp5746
Rp5747
(I3
S'|'
p5748
NNNI21
I1
I0
tp5749
bS'Jason Michael Carroll'
p5750
tp5751
Rp5752
ag2
(g22
S'\xed\x0c\x03\x9er\xc2\xe8?'
p5753
tp5754
Rp5755
ag2
(g22
S'\xa7\xd9\xe6|o\xc8\xe0?'
p5756
tp5757
Rp5758
ag2
(g22
S'K\xea\x044\x11\xbcl@'
p5759
tp5760
Rp5761
ag2
(g22
S'\x9c\xc4 \xb0rh\xc1?'
p5762
tp5763
Rp5764
ag2
(g22
S'\xc9v\xbe\x9f\x1akk@'
p5765
tp5766
Rp5767
aF0.352
aF0.391
aF0.796
aI0
aF-3.074
aF0.0338
aF175.37
aF0.334
aa(lp5768
g2
(g3
(S'S33'
p5769
I0
I1
tp5770
Rp5771
(I3
S'|'
p5772
NNNI33
I1
I0
tp5773
bS'Are You There (With Another Girl)'
p5774
tp5775
Rp5776
ag2
(g3
(S'S14'
p5777
I0
I1
tp5778
Rp5779
(I3
S'|'
p5780
NNNI14
I1
I0
tp5781
bS'Burt Bacharach'
p5782
tp5783
Rp5784
ag2
(g22
S'Y\xed#\x06\xa8j\xe3?'
p5785
tp5786
Rp5787
ag2
(g22
S'\x04\xba?mm!\xde?'
p5788
tp5789
Rp5790
ag2
(g22
S'Nb\x10X9\xfce@'
p5791
tp5792
Rp5793
ag2
(g22
S'\xfe\xd4x\xe9&1\xd0?'
p5794
tp5795
Rp5796
ag2
(g22
S'\xfc\xa9\xf1\xd2M\xfad@'
p5797
tp5798
Rp5799
aF0.566
aF0.589
aF0.338
aF0.106
aF-11.493
aF0.0332
aF115.475
aF0.239
aa(lp5800
g2
(g3
(S'S12'
p5801
I0
I1
tp5802
Rp5803
(I3
S'|'
p5804
NNNI12
I1
I0
tp5805
bS'The Stranger'
p5806
tp5807
Rp5808
ag2
(g3
(S'S12'
p5809
I0
I1
tp5810
Rp5811
(I3
S'|'
p5812
NNNI12
I1
I0
tp5813
bS'James Horner'
p5814
tp5815
Rp5816
ag2
(g22
S'q*\xcf\x10\x9f\xbe\xe5?'
p5817
tp5818
Rp5819
ag2
(g22
S'\xe9\x91\x1b\x1a\x1fz\xdf?'
p5820
tp5821
Rp5822
ag2
(g22
S'\x9c\xa7:\xe4f\xf2l@'
p5823
tp5824
Rp5825
ag2
(g22
S"'1\x08\xac\x1cZ\xe4?"
p5826
tp5827
Rp5828
ag2
(g22
S'\xbct\x93\x18\x04\xa6j@'
p5829
tp5830
Rp5831
aF0.838
aF0.275
aF0.0441
aF0.624
aF-30.517
aF0.0333
aF94.917
aF0.0771
aa(lp5832
g2
(g3
(S'S24'
p5833
I0
I1
tp5834
Rp5835
(I3
S'|'
p5836
NNNI24
I1
I0
tp5837
bS'I Wanna Be Where You Are'
p5838
tp5839
Rp5840
ag2
(g3
(S'S15'
p5841
I0
I1
tp5842
Rp5843
(I3
S'|'
p5844
NNNI15
I1
I0
tp5845
bS'Michael Jackson'
p5846
tp5847
Rp5848
ag2
(g22
S':\xf1\\\xd2\x88\xba\xeb?'
p5849
tp5850
Rp5851
ag2
(g22
S"'\xce<S\x8a\x87\xe8?"
p5852
tp5853
Rp5854
ag2
(g22
S'\xa3\x01\xbc\x05\x12\xd8f@'
p5855
tp5856
Rp5857
ag2
(g22
S'\x8bl\xe7\xfb\xa9\xf1\xc2?'
p5858
tp5859
Rp5860
ag2
(g22
S'33333_d@'
p5861
tp5862
Rp5863
aF0.54
aF0.606
aF0.858
aF0.00471
aF-8.439
aF0.0649
aF103.781
aF0.656
aa(lp5864
g2
(g3
(S'S30'
p5865
I0
I1
tp5866
Rp5867
(I3
S'|'
p5868
NNNI30
I1
I0
tp5869
bS"Remember (Walkin' In the Sand)"
p5870
tp5871
Rp5872
ag2
(g3
(S'S15'
p5873
I0
I1
tp5874
Rp5875
(I3
S'|'
p5876
NNNI15
I1
I0
tp5877
bS'The Shangri-Las'
p5878
tp5879
Rp5880
ag2
(g22
S'\xc8\xb9\xd0\xab\xa3\xa9\xd9?'
p5881
tp5882
Rp5883
ag2
(g22
S'\xdf\xd4\x127\x0f\xc4\xda?'
p5884
tp5885
Rp5886
ag2
(g22
S'tA}\xcb\x9c\x00a@'
p5887
tp5888
Rp5889
ag2
(g22
S'F\xb6\xf3\xfd\xd4x\xed?'
p5890
tp5891
Rp5892
ag2
(g22
S'q=\n\xd7\xa3\xc8^@'
p5893
tp5894
Rp5895
aF0.733
aF0.479
aF0.531
aF0.276
aF-9.653
aF0.0401
aF66.163
aF0.322
aa(lp5896
g2
(g3
(S'S14'
p5897
I0
I1
tp5898
Rp5899
(I3
S'|'
p5900
NNNI14
I1
I0
tp5901
bS"Dirty Ol' Town"
p5902
tp5903
Rp5904
ag2
(g3
(S'S12'
p5905
I0
I1
tp5906
Rp5907
(I3
S'|'
p5908
NNNI12
I1
I0
tp5909
bS'The Wicklows'
p5910
tp5911
Rp5912
ag2
(g22
S'S\xfb\xc7e\xa2\xf8\xd4?'
p5913
tp5914
Rp5915
ag2
(g22
S'\xe0\xd4\xb5\xbc\xa8B\xd1?'
p5916
tp5917
Rp5918
ag2
(g22
S'nLOX\xe2\x9bb@'
p5919
tp5920
Rp5921
ag2
(g22
S'V\x0e-\xb2\x9d\xef\xd7?'
p5922
tp5923
Rp5924
ag2
(g22
S'H\xe1z\x14\xae\xfba@'
p5925
tp5926
Rp5927
aF0.82
aF0.715
aF0.364
aF3.63e-05
aF-11.053
aF0.0321
aF124.369
aF0.565
aa(lp5928
g2
(g3
(S'S23'
p5929
I0
I1
tp5930
Rp5931
(I3
S'|'
p5932
NNNI23
I1
I0
tp5933
bS'Night on William Street'
p5934
tp5935
Rp5936
ag2
(g3
(S'S12'
p5937
I0
I1
tp5938
Rp5939
(I3
S'|'
p5940
NNNI12
I1
I0
tp5941
bS'DJ Godfather'
p5942
tp5943
Rp5944
ag2
(g22
S'\x94{n\xe2\xbdp\xdf?'
p5945
tp5946
Rp5947
ag2
(g22
S'E\xd9Q\x96\x98\xe0\xd4?'
p5948
tp5949
Rp5950
ag2
(g22
S'\xaa\xf1\xd2MbXi@'
p5951
tp5952
Rp5953
ag2
(g22
S'\x00\x00\x00\x00\x00\x00\x00\x00'
p5954
tp5955
Rp5956
ag2
(g22
S'9\xb4\xc8v\xbesh@'
p5957
tp5958
Rp5959
aF0.000347
aF0.765
aF0.933
aF0.946
aF-15.466
aF0.0799
aF147.018
aF0.271
aa(lp5960
g2
(g3
(S'S8'
p5961
I0
I1
tp5962
Rp5963
(I3
S'|'
p5964
NNNI8
I1
I0
tp5965
bS'Epilogue'
p5966
tp5967
Rp5968
ag2
(g3
(S'S6'
p5969
I0
I1
tp5970
Rp5971
(I3
S'|'
p5972
NNNI6
I1
I0
tp5973
bS'Arkona'
p5974
tp5975
Rp5976
ag2
(g22
S' y\xdf\x9a\xab\xae\xe4?'
p5977
tp5978
Rp5979
ag2
(g22
S'}M\xd20\x9e~\xdd?'
p5980
tp5981
Rp5982
ag2
(g22
S'\xfe\x9a\xacQ\x0f{[@'
p5983
tp5984
Rp5985
ag2
(g22
S'\xf4\xfd\xd4x\xe9&\x06@'
p5986
tp5987
Rp5988
ag2
(g22
S'\x9e\xef\xa7\xc6K\xd7Y@'
p5989
tp5990
Rp5991
aF0.656
aF0.0968
aF0.301
aF0.446
aF-12.787
aF0.0362
aF81.408
aF0.0331
aa(lp5992
g2
(g3
(S'S22'
p5993
I0
I1
tp5994
Rp5995
(I3
S'|'
p5996
NNNI22
I1
I0
tp5997
bS'Hey Jamalo ((Def Mix))'
p5998
tp5999
Rp6000
ag2
(g3
(S'S11'
p6001
I0
I1
tp6002
Rp6003
(I3
S'|'
p6004
NNNI11
I1
I0
tp6005
bS'Bally Sagoo'
p6006
tp6007
Rp6008
ag2
(g22
S'\xaf{e\x90Q\x97\xe2?'
p6009
tp6010
Rp6011
ag2
(g22
S'c6W\x81\xb0Q\xd6?'
p6012
tp6013
Rp6014
ag2
(g22
S'6\xb0U\x82\xc5\x16{@'
p6015
tp6016
Rp6017
ag2
(g22
S'\x17\xd9\xce\xf7S\xe3\xc5?'
p6018
tp6019
Rp6020
ag2
(g22
S'\xb6\xf3\xfd\xd4x\xbfz@'
p6021
tp6022
Rp6023
aF0.00851
aF0.817
aF0.668
aF0.0107
aF-12.099
aF0.079
aF115.555
aF0.419
aa(lp6024
g2
(g3
(S'S7'
p6025
I0
I1
tp6026
Rp6027
(I3
S'|'
p6028
NNNI7
I1
I0
tp6029
bS'Someday'
p6030
tp6031
Rp6032
ag2
(g3
(S'S12'
p6033
I0
I1
tp6034
Rp6035
(I3
S'|'
p6036
NNNI12
I1
I0
tp6037
bS'Mariah Carey'
p6038
tp6039
Rp6040
ag2
(g22
S'4F\xab]\xfd\xea\xed?'
p6041
tp6042
Rp6043
ag2
(g22
S'}c\xb9\x17&/\xe9?'
p6044
tp6045
Rp6046
ag2
(g22
S'\\ A\xf1c\x90m@'
p6047
tp6048
Rp6049
ag2
(g22
S'\x00\x00\x00\x00\x00\x00\x00\x00'
p6050
tp6051
Rp6052
ag2
(g22
S'\x8d\x97n\x12\x83\x0cm@'
p6053
tp6054
Rp6055
aF0.206
aF0.685
aF0.819
aF2.23e-06
aF-8.686
aF0.0405
aF109.855
aF0.937
aa(lp6056
g2
(g3
(S'S21'
p6057
I0
I1
tp6058
Rp6059
(I3
S'|'
p6060
NNNI21
I1
I0
tp6061
bS'Earrings on the Table'
p6062
tp6063
Rp6064
ag2
(g3
(S'S12'
p6065
I0
I1
tp6066
Rp6067
(I3
S'|'
p6068
NNNI12
I1
I0
tp6069
bS'Walter Trout'
p6070
tp6071
Rp6072
ag2
(g22
S'wS\xa3\x88=\xe1\xe2?'
p6073
tp6074
Rp6075
ag2
(g22
S'\xdeA\x91S\x8c\xb1\xd3?'
p6076
tp6077
Rp6078
ag2
(g22
S'\xb4<\x0f\xee\xce\x0eY@'
p6079
tp6080
Rp6081
ag2
(g22
S'\x91\xed|?5^\xca?'
p6082
tp6083
Rp6084
ag2
(g22
S'\x8f\xc2\xf5(\\?X@'
p6085
tp6086
Rp6087
aF0.932
aF0.461
aF0.0894
aI0
aF-18.445
aF0.041
aF79.939
aF0.547
aa(lp6088
g2
(g3
(S'S11'
p6089
I0
I1
tp6090
Rp6091
(I3
S'|'
p6092
NNNI11
I1
I0
tp6093
bS'Never After'
p6094
tp6095
Rp6096
ag2
(g3
(S'S17'
p6097
I0
I1
tp6098
Rp6099
(I3
S'|'
p6100
NNNI17
I1
I0
tp6101
bS'Abbott & Chambers'
p6102
tp6103
Rp6104
ag2
(g22
S'\xde\x9fx\xe4\xa0\xe0\xe3?'
p6105
tp6106
Rp6107
ag2
(g22
S'\xac@\x82\xc3\x1b\x06\xcc?'
p6108
tp6109
Rp6110
ag2
(g22
S'pB!\x02\x0e\x14x@'
p6111
tp6112
Rp6113
ag2
(g22
S'X9\xb4\xc8v\xbe\xdf?'
p6114
tp6115
Rp6116
ag2
(g22
S'Zd;\xdfO+w@'
p6117
tp6118
Rp6119
aF0.582
aF0.501
aF0.523
aI0
aF-6.906
aF0.0324
aF156.108
aF0.24
aa(lp6120
g2
(g3
(S'S5'
p6121
I0
I1
tp6122
Rp6123
(I3
S'|'
p6124
NNNI5
I1
I0
tp6125
bS'Today'
p6126
tp6127
Rp6128
ag2
(g3
(S'S13'
p6129
I0
I1
tp6130
Rp6131
(I3
S'|'
p6132
NNNI13
I1
I0
tp6133
bS'Electrostatic'
p6134
tp6135
Rp6136
ag2
(g22
S'6:l\x8e$6\xdc?'
p6137
tp6138
Rp6139
ag2
(g22
S'\xeb*k\x90I\x02\xd4?'
p6140
tp6141
Rp6142
ag2
(g22
S';\xfc5Y#\xdeq@'
p6143
tp6144
Rp6145
ag2
(g22
S'\xfe\xd4x\xe9&1\xc8?'
p6146
tp6147
Rp6148
ag2
(g22
S'#\xdb\xf9~jnq@'
p6149
tp6150
Rp6151
aF0.137
aF0.331
aF0.946
aF0.00784
aF-6.728
aF0.12
aF86.644
aF0.585
aa(lp6152
g2
(g3
(S'S7'
p6153
I0
I1
tp6154
Rp6155
(I3
S'|'
p6156
NNNI7
I1
I0
tp6157
bS'Give It'
p6158
tp6159
Rp6160
ag2
(g3
(S'S6'
p6161
I0
I1
tp6162
Rp6163
(I3
S'|'
p6164
NNNI6
I1
I0
tp6165
bS'Helmet'
p6166
tp6167
Rp6168
ag2
(g22
S'\x9a\xed\x1d\x14\xe6\xd9\xe8?'
p6169
tp6170
Rp6171
ag2
(g22
S'\xa5S\xa0\xc2v]\xdf?'
p6172
tp6173
Rp6174
ag2
(g22
S'\x87\x8aq\xfe\xa6\x18p@'
p6175
tp6176
Rp6177
ag2
(g22
S'#\xdb\xf9~j\xbc\xc4?'
p6178
tp6179
Rp6180
ag2
(g22
S'Nb\x10X9,o@'
p6181
tp6182
Rp6183
aF3.92e-05
aF0.299
aF0.836
aF0.0476
aF-8.374
aF0.0618
aF140.904
aF0.548
aa(lp6184
g2
(g3
(S'S15'
p6185
I0
I1
tp6186
Rp6187
(I3
S'|'
p6188
NNNI15
I1
I0
tp6189
bS'Radiation Blues'
p6190
tp6191
Rp6192
ag2
(g3
(S'S9'
p6193
I0
I1
tp6194
Rp6195
(I3
S'|'
p6196
NNNI9
I1
I0
tp6197
bS'Dax Riggs'
p6198
tp6199
Rp6200
ag2
(g22
S'<A\xed_\xe6\x17\xe4?'
p6201
tp6202
Rp6203
ag2
(g22
S'}\xbb\xf8\xfe\xadT\xde?'
p6204
tp6205
Rp6206
ag2
(g22
S'\x97\xa8\xde\x1a\xd8\xc4b@'
p6207
tp6208
Rp6209
ag2
(g22
S'%\x06\x81\x95C\x8b\xcc?'
p6210
tp6211
Rp6212
ag2
(g22
S'\x0e-\xb2\x9d\xef\x7fb@'
p6213
tp6214
Rp6215
aF0.0578
aF0.191
aF0.977
aF1.03e-05
aF-2.946
aF0.148
aF182.346
aF0.225
aa(lp6216
g2
(g3
(S'S59'
p6217
I0
I1
tp6218
Rp6219
(I3
S'|'
p6220
NNNI59
I1
I0
tp6221
bS"(We Don't Need This) Fascist Groove Thang (Rapino Club Mix)"
p6222
tp6223
Rp6224
ag2
(g3
(S'S9'
p6225
I0
I1
tp6226
Rp6227
(I3
S'|'
p6228
NNNI9
I1
I0
tp6229
bS'Heaven 17'
p6230
tp6231
Rp6232
ag2
(g22
S'\x9a\xeb\x021\x910\xe4?'
p6233
tp6234
Rp6235
ag2
(g22
S'\x10\x07\x17v,\x8a\xdd?'
p6236
tp6237
Rp6238
ag2
(g22
S'\xbdo|\xed\x19#v@'
p6239
tp6240
Rp6241
ag2
(g22
S'\x0e-\xb2\x9d\xef\xa7\xc6?'
p6242
tp6243
Rp6244
ag2
(g22
S'F\xb6\xf3\xfd\xd4Nu@'
p6245
tp6246
Rp6247
aF0.0468
aF0.653
aF0.767
aF0.683
aF-12.841
aF0.0469
aF135.544
aF0.699
aa(lp6248
g2
(g3
(S'S9'
p6249
I0
I1
tp6250
Rp6251
(I3
S'|'
p6252
NNNI9
I1
I0
tp6253
bS'Vibrators'
p6254
tp6255
Rp6256
ag2
(g3
(S'S12'
p6257
I0
I1
tp6258
Rp6259
(I3
S'|'
p6260
NNNI12
I1
I0
tp6261
bS'George Lopez'
p6262
tp6263
Rp6264
ag2
(g22
S'\xd9\xa2*\x00l`\xe5?'
p6265
tp6266
Rp6267
ag2
(g22
S'\x8d\xa8\x97\x85\xf7\x8a\xe0?'
p6268
tp6269
Rp6270
ag2
(g22
S'O\xccz1\x94\xa2t@'
p6271
tp6272
Rp6273
ag2
(g22
S'\x00\x00\x00\x00\x00\x00\x00\x00'
p6274
tp6275
Rp6276
ag2
(g22
S'\x8f\xc2\xf5(\\ot@'
p6277
tp6278
Rp6279
aF0.854
aF0.413
aF0.989
aF0.00662
aF-7.49
aF0.897
aF114.342
aF0.0347
aa(lp6280
g2
(g3
(S'S9'
p6281
I0
I1
tp6282
Rp6283
(I3
S'|'
p6284
NNNI9
I1
I0
tp6285
bS'Quitxalla'
p6286
tp6287
Rp6288
ag2
(g3
(S'S9'
p6289
I0
I1
tp6290
Rp6291
(I3
S'|'
p6292
NNNI9
I1
I0
tp6293
bS'Gertrudis'
p6294
tp6295
Rp6296
ag2
(g22
S'?\x7f\x1d\xa2\xacy\xdc?'
p6297
tp6298
Rp6299
ag2
(g22
S'\xdf[\x91\xb4p\x11\xd6?'
p6300
tp6301
Rp6302
ag2
(g22
S'Z\x9e\x07wg\x87l@'
p6303
tp6304
Rp6305
ag2
(g22
S'\x00\x00\x00\x00\x00\x00\x00\x00'
p6306
tp6307
Rp6308
ag2
(g22
S'sh\x91\xed|\xa7k@'
p6309
tp6310
Rp6311
aF0.549
aF0.728
aF0.89
aF0.00506
aF-7.888
aF0.0403
aF109.915
aF0.818
aa(lp6312
g2
(g3
(S'S22'
p6313
I0
I1
tp6314
Rp6315
(I3
S'|'
p6316
NNNI22
I1
I0
tp6317
bS"Tant Que L'on S'aimera"
p6318
tp6319
Rp6320
ag2
(g3
(S'S16'
p6321
I0
I1
tp6322
Rp6323
(I3
S'|'
p6324
NNNI16
I1
I0
tp6325
bS'Charles Aznavour'
p6326
tp6327
Rp6328
ag2
(g22
S'\x0e\x91E\xb2\xa6\\\xda?'
p6329
tp6330
Rp6331
ag2
(g22
S'?`\x87\x06E\xb8\xd6?'
p6332
tp6333
Rp6334
ag2
(g22
S')\xe8\xf6\x92\xc6xb@'
p6335
tp6336
Rp6337
ag2
(g22
S'\xcf\xf7S\xe3\xa5\x9b\xd4?'
p6338
tp6339
Rp6340
ag2
(g22
S'y\xe9&1\x08\xc8a@'
p6341
tp6342
Rp6343
aF0.723
aF0.514
aF0.294
aI0
aF-9.769
aF0.0289
aF100.042
aF0.478
aa(lp6344
g2
(g3
(S'S15'
p6345
I0
I1
tp6346
Rp6347
(I3
S'|'
p6348
NNNI15
I1
I0
tp6349
bS'Tamborera No. 6'
p6350
tp6351
Rp6352
ag2
(g3
(S'S15'
p6353
I0
I1
tp6354
Rp6355
(I3
S'|'
p6356
NNNI15
I1
I0
tp6357
bS'Gran Coquivacoa'
p6358
tp6359
Rp6360
ag2
(g22
S'\x9f{~K\xd3\xf7\xda?'
p6361
tp6362
Rp6363
ag2
(g22
S'\xe0K\x9e\x061u\xd7?'
p6364
tp6365
Rp6366
ag2
(g22
S'\x7fM\xd6\xa8\x87\xbde@'
p6367
tp6368
Rp6369
ag2
(g22
S'\x00\x00\x00\x00\x00\x00\x00\x00'
p6370
tp6371
Rp6372
ag2
(g22
S'\xb4\xc8v\xbe\x9f\xaad@'
p6373
tp6374
Rp6375
aF0.063
aF0.723
aF0.867
aI0
aF-8.597
aF0.128
aF123.235
aF0.942
aa.