(lp0
(lp1
cnumpy.core.multiarray
scalar
p2
(cnumpy
dtype
p3
(S'S15'
p4
I0
I1
tp5
Rp6
(I3
S'|'
p7
NNNI15
I1
I0
tp8
bS'Naming Ceremony'
p9
tp10
Rp11
ag2
(g3
(S'S14'
p12
I0
I1
tp13
Rp14
(I3
S'|'
p15
NNNI14
I1
I0
tp16
bS'Finest Dearest'
p17
tp18
Rp19
ag2
(g3
(S'f8'
p20
I0
I1
tp21
Rp22
(I3
S'<'
p23
NNNI-1
I-1
I0
tp24
bS'x\xcaG\xff\xb3\x0b\xdf?'
p25
tp26
Rp27
ag2
(g22
S'"\x0bs\x9bu\xd5\xd7?'
p28
tp29
Rp30
ag2
(g22
S'\xd3\xde\xe0\x0b\x13\xbcr@'
p31
tp32
Rp33
ag2
(g22
S'\x93\x18\x04V\x0e-\x07@'
p34
tp35
Rp36
ag2
(g22
S'\xa8\xc6K7\x89\x99p@'
p37
tp38
Rp39
aF0.126
aF0.657
aF0.747
aF0.0544
aF-7.109
aF0.0345
aF121.043
aF0.366
aa(lp40
g2
(g3
(S'S12'
p41
I0
I1
tp42
Rp43
(I3
S'|'
p44
NNNI12
I1
I0
tp45
bS'Gillum Blues'
p46
tp47
Rp48
ag2
(g3
(S'S11'
p49
I0
I1
tp50
Rp51
(I3
S'|'
p52
NNNI11
I1
I0
tp53
bS'Jazz Gillum'
p54
tp55
Rp56
ag2
(g22
S'3>\xe0\x15\x1e8\xd7?'
p57
tp58
Rp59
ag2
(g22
S'P\x0c\x13\x00\xfb\x10\xd2?'
p60
tp61
Rp62
ag2
(g22
S'\x0f\x97\x1cwJ:a@'
p63
tp64
Rp65
ag2
(g22
S'-\xb2\x9d\xef\xa7\xc6\xf5?'
p66
tp67
Rp68
ag2
(g22
S'\xd5x\xe9&14`@'
p69
tp70
Rp71
aF0.898
aF0.614
aF0.495
aF0.196
aF-10.642
aF0.0368
aF89.735
aF0.968
aa(lp72
g2
(g3
(S'S10'
p73
I0
I1
tp74
Rp75
(I3
S'|'
p76
NNNI10
I1
I0
tp77
bS'Goodfellas'
p78
tp79
Rp80
ag2
(g3
(S'S5'
p81
I0
I1
tp82
Rp83
(I3
S'|'
p84
NNNI5
I1
I0
tp85
bS'Neema'
p86
tp87
Rp88
ag2
(g22
S'\xa7\xfd\xd4\xc0\xbc\xbd\xe0?'
p89
tp90
Rp91
ag2
(g22
S'\x945\xa9\x15E\xc5\xd6?'
p92
tp93
Rp94
ag2
(g22
S'\xcb\xa1E\xb6\xf3`l@'
p95
tp96
Rp97
ag2
(g22
S'J\x0c\x02+\x87\x16\xd9?'
p98
tp99
Rp100
ag2
(g22
S')\\\x8f\xc2\xf5`l@'
p101
tp102
Rp103
aF0.0049
aF0.527
aF0.687
aI0
aF-6.863
aF0.238
aF135.541
aF0.758
aa(lp104
g2
(g3
(S'S33'
p105
I0
I1
tp106
Rp107
(I3
S'|'
p108
NNNI33
I1
I0
tp109
bS"Ala Kaboo (Idjut Boy's H-Bar Mix)"
p110
tp111
Rp112
ag2
(g3
(S'S7'
p113
I0
I1
tp114
Rp115
(I3
S'|'
p116
NNNI7
I1
I0
tp117
bS'Sound 5'
p118
tp119
Rp120
ag2
(g22
S'\xe95PFd\xe8\xd5?'
p121
tp122
Rp123
ag2
(g22
S'\x96\xa2\xf3f\xd0\x16\xcb?'
p124
tp125
Rp126
ag2
(g22
S'\x93W\xe7\x18\x10Z}@'
p127
tp128
Rp129
ag2
(g22
S'\xd3Mb\x10X9\x05@'
p130
tp131
Rp132
ag2
(g22
S'\x8bl\xe7\xfb\xa9\xbd|@'
p133
tp134
Rp135
aF0.0651
aF0.728
aF0.84
aF0.338
aF-11.394
aF0.0508
aF122.049
aF0.743
aa(lp136
g2
(g3
(S'S7'
p137
I0
I1
tp138
Rp139
(I3
S'|'
p140
NNNI7
I1
I0
tp141
bS'Hechizo'
p142
tp143
Rp144
ag2
(g3
(S'S15'
p145
I0
I1
tp146
Rp147
(I3
S'|'
p148
NNNI15
I1
I0
tp149
bS'Gran Coquivacoa'
p150
tp151
Rp152
ag2
(g22
S'\x9f{~K\xd3\xf7\xda?'
p153
tp154
Rp155
ag2
(g22
S'\xe0K\x9e\x061u\xd7?'
p156
tp157
Rp158
ag2
(g22
S'|,}\xe8\x82\x9cg@'
p159
tp160
Rp161
ag2
(g22
S'\x00\x00\x00\x00\x00\x00\x00\x00'
p162
tp163
Rp164
ag2
(g22
S'\xc9v\xbe\x9f\x1a3g@'
p165
tp166
Rp167
aF0.296
aF0.646
aF0.717
aI0
aF-9.431
aF0.0694
aF138.358
aF0.963
aa(lp168
g2
(g3
(S'S13'
p169
I0
I1
tp170
Rp171
(I3
S'|'
p172
NNNI13
I1
I0
tp173
bS'London Bridge'
p174
tp175
Rp176
ag2
(g3
(S'S6'
p177
I0
I1
tp178
Rp179
(I3
S'|'
p180
NNNI6
I1
I0
tp181
bS'Fergie'
p182
tp183
Rp184
ag2
(g22
S'\xb9Q\xd5\xf9\xc0\xf4\xeb?'
p185
tp186
Rp187
ag2
(g22
S'\x98\xec\x98.4\xed\xe1?'
p188
tp189
Rp190
ag2
(g22
S'\xe3\x8d\xcc#\x7f\x1ej@'
p191
tp192
Rp193
ag2
(g22
S'j\xbct\x93\x18\x04\xf0?'
p194
tp195
Rp196
ag2
(g22
S'\xb4\xc8v\xbe\x9f\xe2h@'
p197
tp198
Rp199
aF0.214
aF0.748
aF0.63
aI0
aF-5.832
aF0.381
aF90.889
aF0.61
aa(lp200
g2
(g3
(S'S8'
p201
I0
I1
tp202
Rp203
(I3
S'|'
p204
NNNI8
I1
I0
tp205
bS'Safe Sex'
p206
tp207
Rp208
ag2
(g3
(S'S12'
p209
I0
I1
tp210
Rp211
(I3
S'|'
p212
NNNI12
I1
I0
tp213
bS'Erick Sermon'
p214
tp215
Rp216
ag2
(g22
S'\xa4R\xd5\xcf\xc2~\xe2?'
p217
tp218
Rp219
ag2
(g22
S'\x06Njp\xd4\x92\xd7?'
p220
tp221
Rp222
ag2
(g22
S'~\x1d8gD\xefk@'
p223
tp224
Rp225
ag2
(g22
S'333333\x06@'
p226
tp227
Rp228
ag2
(g22
S'\xe7\xfb\xa9\xf1\xd25j@'
p229
tp230
Rp231
aF0.000817
aF0.695
aF0.515
aI0
aF-9.938
aF0.271
aF98.871
aF0.689
aa(lp232
g2
(g3
(S'S12'
p233
I0
I1
tp234
Rp235
(I3
S'|'
p236
NNNI12
I1
I0
tp237
bS'A Part Of Me'
p238
tp239
Rp240
ag2
(g3
(S'S7'
p241
I0
I1
tp242
Rp243
(I3
S'|'
p244
NNNI7
I1
I0
tp245
bS'40 Grit'
p246
tp247
Rp248
ag2
(g22
S'\xf5]\x8f\xf23\xed\xdc?'
p249
tp250
Rp251
ag2
(g22
S'n\xe4\x981\xdd4\xd5?'
p252
tp253
Rp254
ag2
(g22
S'\xb8u7OuUo@'
p255
tp256
Rp257
ag2
(g22
S'\x00\x00\x00\x00\x00\x00\x00\x00'
p258
tp259
Rp260
ag2
(g22
S'R\xb8\x1e\x85\xeb\xc5l@'
p261
tp262
Rp263
aF0.469
aF0.477
aF0.727
aF0.435
aF-9.038
aF0.0284
aF148.337
aF0.473
aa(lp264
g2
(g3
(S'S15'
p265
I0
I1
tp266
Rp267
(I3
S'|'
p268
NNNI15
I1
I0
tp269
bS'Guarda Che Luna'
p270
tp271
Rp272
ag2
(g3
(S'S9'
p273
I0
I1
tp274
Rp275
(I3
S'|'
p276
NNNI9
I1
I0
tp277
bS'Bob Azzam'
p278
tp279
Rp280
ag2
(g22
S'\xbc\xcf\xbe\x15\x1e\xe4\xb5?'
p281
tp282
Rp283
ag2
(g22
S'\xacp\xa1_\xba\x1f\xd0?'
p284
tp285
Rp286
ag2
(g22
S'\x99G\xfe`\xe0\xd3Z@'
p287
tp288
Rp289
ag2
(g22
S'\xcd\xcc\xcc\xcc\xcc\xcc\xdc?'
p290
tp291
Rp292
ag2
(g22
S'\x96C\x8bl\xe7\xd3Z@'
p293
tp294
Rp295
aF0.699
aF0.566
aF0.527
aI0
aF-5.796
aF0.0303
aF122.113
aF0.547
aa(lp296
g2
(g3
(S'S21'
p297
I0
I1
tp298
Rp299
(I3
S'|'
p300
NNNI21
I1
I0
tp301
bS'Space Station Liberty'
p302
tp303
Rp304
ag2
(g3
(S'S13'
p305
I0
I1
tp306
Rp307
(I3
S'|'
p308
NNNI13
I1
I0
tp309
bS'Scott Glasgow'
p310
tp311
Rp312
ag2
(g22
S'\x1a\x8d\xff\x1f\xe3\xa8\xdc?'
p313
tp314
Rp315
ag2
(g22
S'c*\x10i\xb4\xae\xd2?'
p316
tp317
Rp318
ag2
(g22
S'\x11S"\x89^\xdak@'
p319
tp320
Rp321
ag2
(g22
S'H\xe1z\x14\xaeG\xd1?'
p322
tp323
Rp324
ag2
(g22
S'?5^\xbaI\x00k@'
p325
tp326
Rp327
aF0.579
aF0.155
aF0.529
aF0.929
aF-13.549
aF0.0794
aF78.799
aF0.0594
aa(lp328
g2
(g3
(S'S7'
p329
I0
I1
tp330
Rp331
(I3
S'|'
p332
NNNI7
I1
I0
tp333
bS'Manteca'
p334
tp335
Rp336
ag2
(g3
(S'S14'
p337
I0
I1
tp338
Rp339
(I3
S'|'
p340
NNNI14
I1
I0
tp341
bS'Poncho Sanchez'
p342
tp343
Rp344
ag2
(g22
S'\x1a\x04\xb8\xe8\xa7x\xe2?'
p345
tp346
Rp347
ag2
(g22
S'\xde\xe5\xafIH\xe8\xd7?'
p348
tp349
Rp350
ag2
(g22
S'\xb3\xb5\xbeHh\xe4u@'
p351
tp352
Rp353
ag2
(g22
S'?5^\xbaI\x8c\x14@'
p354
tp355
Rp356
ag2
(g22
S'sh\x91\xed|\xa1u@'
p357
tp358
Rp359
aF0.534
aF0.645
aF0.594
aF0.377
aF-8.465
aF0.0523
aF99.76
aF0.744
aa(lp360
g2
(g3
(S'S32'
p361
I0
I1
tp362
Rp363
(I3
S'|'
p364
NNNI32
I1
I0
tp365
bS'Tell Jesus [To Come To My House]'
p366
tp367
Rp368
ag2
(g3
(S'S17'
p369
I0
I1
tp370
Rp371
(I3
S'|'
p372
NNNI17
I1
I0
tp373
bS'Livingston Taylor'
p374
tp375
Rp376
ag2
(g22
S'gl\xc1\xc8\xf1\x9b\xdb?'
p377
tp378
Rp379
ag2
(g22
S'\xbc\xa7mK\xc5S\xd6?'
p380
tp381
Rp382
ag2
(g22
S';\xfc5Y#\xdeq@'
p383
tp384
Rp385
ag2
(g22
S'\x9a\x99\x99\x99\x99\x99\xc9?'
p386
tp387
Rp388
ag2
(g22
S'\xf0\xa7\xc6K7\x87q@'
p389
tp390
Rp391
aF0.889
aF0.521
aF0.312
aI0
aF-12.408
aF0.0696
aF124.99
aF0.559
aa(lp392
g2
(g3
(S'S4'
p393
I0
I1
tp394
Rp395
(I3
S'|'
p396
NNNI4
I1
I0
tp397
bS'Zero'
p398
tp399
Rp400
ag2
(g3
(S'S10'
p401
I0
I1
tp402
Rp403
(I3
S'|'
p404
NNNI10
I1
I0
tp405
bS'Papa Wemba'
p406
tp407
Rp408
ag2
(g22
S'\xc8W\x9e\x0f\xceW\xe1?'
p409
tp410
Rp411
ag2
(g22
S'\xe8\x85\xd10\xa2\xbe\xda?'
p412
tp413
Rp414
ag2
(g22
S'\x13\xb8u7O\x9cp@'
p415
tp416
Rp417
ag2
(g22
S'\x00\x00\x00\x00\x00\x00\x00\x00'
p418
tp419
Rp420
ag2
(g22
S'L7\x89A`/p@'
p421
tp422
Rp423
aF0.13
aF0.653
aF0.64
aI0
aF-13.638
aF0.0303
aF147.041
aF0.969
aa(lp424
g2
(g3
(S'S16'
p425
I0
I1
tp426
Rp427
(I3
S'|'
p428
NNNI16
I1
I0
tp429
bS'Por Arriesgarnos'
p430
tp431
Rp432
ag2
(g3
(S'S14'
p433
I0
I1
tp434
Rp435
(I3
S'|'
p436
NNNI14
I1
I0
tp437
bS'Jennifer Lopez'
p438
tp439
Rp440
ag2
(g22
S'\x8c\xbc>\xc1\\\x11\xec?'
p441
tp442
Rp443
ag2
(g22
S'@\xb2\xe4\x19\xff\xf2\xe1?'
p444
tp445
Rp446
ag2
(g22
S'\xda \x93\x8c\x9cyj@'
p447
tp448
Rp449
ag2
(g22
S'\x96C\x8bl\xe7\xfb\n@'
p450
tp451
Rp452
ag2
(g22
S'\xe7\xfb\xa9\xf1\xd2=i@'
p453
tp454
Rp455
aF0.663
aF0.377
aF0.481
aI0
aF-9.676
aF0.0507
aF150.514
aF0.197
aa(lp456
g2
(g3
(S'S15'
p457
I0
I1
tp458
Rp459
(I3
S'|'
p460
NNNI15
I1
I0
tp461
bS"A Fool's Advice"
p462
tp463
Rp464
ag2
(g3
(S'S13'
p465
I0
I1
tp466
Rp467
(I3
S'|'
p468
NNNI13
I1
I0
tp469
bS'Joe Grushecky'
p470
tp471
Rp472
ag2
(g22
S'\x07\xcc\xa0J\x98\x18\xe0?'
p473
tp474
Rp475
ag2
(g22
S'\x00\x00\x00\x00\x00\x00\x00\x00'
p476
tp477
Rp478
ag2
(g22
S'&6\x1f\xd7\x86\xa1o@'
p479
tp480
Rp481
ag2
(g22
S'\x08\xac\x1cZd;\xaf?'
p482
tp483
Rp484
ag2
(g22
S'\xaeG\xe1z\x14\xb6n@'
p485
tp486
Rp487
aF0.3
aF0.539
aF0.676
aF0.00748
aF-7.149
aF0.0558
aF188.001
aF0.594
aa(lp488
g2
(g3
(S'S12'
p489
I0
I1
tp490
Rp491
(I3
S'|'
p492
NNNI12
I1
I0
tp493
bS'One Fine Day'
p494
tp495
Rp496
ag2
(g3
(S'S12'
p497
I0
I1
tp498
Rp499
(I3
S'|'
p500
NNNI12
I1
I0
tp501
bS'THE CHIFFONS'
p502
tp503
Rp504
ag2
(g22
S'c\x8d\\,g/\xe3?'
p505
tp506
Rp507
ag2
(g22
S'\x17\xc2\x1a\xf9\x8e~\xd9?'
p508
tp509
Rp510
ag2
(g22
S'\x08\xe6\xe8\xf1{5`@'
p511
tp512
Rp513
ag2
(g22
S'\xf8S\xe3\xa5\x9b\xc4\xc0?'
p514
tp515
Rp516
ag2
(g22
S'P\x8d\x97n\x12\xd3]@'
p517
tp518
Rp519
aF0.488
aF0.251
aF0.868
aF7.34e-06
aF-2.685
aF0.128
aF177.125
aF0.599
aa(lp520
g2
(g3
(S'S16'
p521
I0
I1
tp522
Rp523
(I3
S'|'
p524
NNNI16
I1
I0
tp525
bS'Prolog auf Erden'
p526
tp527
Rp528
ag2
(g3
(S'S11'
p529
I0
I1
tp530
Rp531
(I3
S'|'
p532
NNNI11
I1
I0
tp533
bS'Equilibrium'
p534
tp535
Rp536
ag2
(g22
S'\xfaUm\xb6E\r\xe5?'
p537
tp538
Rp539
ag2
(g22
S'C\x128B\x15\xa2\xdd?'
p540
tp541
Rp542
ag2
(g22
S'\xf7\xaf\xac4)ak@'
p543
tp544
Rp545
ag2
(g22
S'\x00\x00\x00\x00\x00\x00\x00\x00'
p546
tp547
Rp548
ag2
(g22
S'\xe3\xa5\x9b\xc4 \x80j@'
p549
tp550
Rp551
aF0.000164
aF0.12
aF0.872
aF0.928
aF-3.558
aF0.0493
aF94.203
aF0.123
aa(lp552
g2
(g3
(S'S17'
p553
I0
I1
tp554
Rp555
(I3
S'|'
p556
NNNI17
I1
I0
tp557
bS'Who Was I Kidding'
p558
tp559
Rp560
ag2
(g3
(S'S17'
p561
I0
I1
tp562
Rp563
(I3
S'|'
p564
NNNI17
I1
I0
tp565
bS'Martha Wainwright'
p566
tp567
Rp568
ag2
(g22
S'\xffY\xd0Q,\x89\xe6?'
p569
tp570
Rp571
ag2
(g22
S'\x11/P\x88*\xd8\xdf?'
p572
tp573
Rp574
ag2
(g22
S'\xf1\x80\xb2)Weo@'
p575
tp576
Rp577
ag2
(g22
S'\x00\x00\x00\x00\x00\x00\x00\x00'
p578
tp579
Rp580
ag2
(g22
S'\xcd\xcc\xcc\xcc\xcc\xb4m@'
p581
tp582
Rp583
aF0.679
aF0.388
aF0.228
aF9e-05
aF-9.105
aF0.032
aF79.006
aF0.168
aa(lp584
g2
(g3
(S'S9'
p585
I0
I1
tp586
Rp587
(I3
S'|'
p588
NNNI9
I1
I0
tp589
bS'Rocks Off'
p590
tp591
Rp592
ag2
(g3
(S'S18'
p593
I0
I1
tp594
Rp595
(I3
S'|'
p596
NNNI18
I1
I0
tp597
bS'The Rolling Stones'
p598
tp599
Rp600
ag2
(g22
S's\xe2\x9c\xa4\x15\x13\xea?'
p601
tp602
Rp603
ag2
(g22
S'\xbe\xba&\xecL\xd5\xe8?'
p604
tp605
Rp606
ag2
(g22
S'8J^\x9d\xe3\x06q@'
p607
tp608
Rp609
ag2
(g22
S'q=\n\xd7\xa3p\x00@'
p610
tp611
Rp612
ag2
(g22
S'\x8f\xc2\xf5(\\sp@'
p613
tp614
Rp615
aF0.0723
aF0.492
aF0.934
aF0.145
aF-4.304
aF0.0439
aF141.945
aF0.885
aa(lp616
g2
(g3
(S'S44'
p617
I0
I1
tp618
Rp619
(I3
S'|'
p620
NNNI44
I1
I0
tp621
bS'Run The Show featuring Don Omar [en Espanol]'
p622
tp623
Rp624
ag2
(g3
(S'S10'
p625
I0
I1
tp626
Rp627
(I3
S'|'
p628
NNNI10
I1
I0
tp629
bS'Kat DeLuna'
p630
tp631
Rp632
ag2
(g22
S'\xe7^\x18\x0f\xd6C\xe7?'
p633
tp634
Rp635
ag2
(g22
S'\xb6\x9e\x8a\xbfe\xf8\xe0?'
p636
tp637
Rp638
ag2
(g22
S'z\xa5,C\x1c\xafj@'
p639
tp640
Rp641
ag2
(g22
S'b\x10X9\xb4\xc8\x03@'
p642
tp643
Rp644
ag2
(g22
S'\x85\xebQ\xb8\x1eYj@'
p645
tp646
Rp647
aF0.0858
aF0.759
aF0.829
aF0.00016
aF-5.307
aF0.0353
aF104.991
aF0.235
aa(lp648
g2
(g3
(S'S9'
p649
I0
I1
tp650
Rp651
(I3
S'|'
p652
NNNI9
I1
I0
tp653
bS'Strikes-3'
p654
tp655
Rp656
ag2
(g3
(S'S4'
p657
I0
I1
tp658
Rp659
(I3
S'|'
p660
NNNI4
I1
I0
tp661
bS'Atom'
p662
tp663
Rp664
ag2
(g22
S'L\x85\x18.7\x16\xe0?'
p665
tp666
Rp667
ag2
(g22
S'\xea\xc7\x07i+a\xd4?'
p668
tp669
Rp670
ag2
(g22
S'Ae\xfc\xfb\x0cq{@'
p671
tp672
Rp673
ag2
(g22
S'\xc7K7\x89A`\xd5?'
p674
tp675
Rp676
ag2
(g22
S'1\x08\xac\x1cZ\xe0z@'
p677
tp678
Rp679
aF0.0268
aF0.696
aF0.721
aF0.931
aF-9.859
aF0.056
aF126.978
aF0.398
aa(lp680
g2
(g3
(S'S34'
p681
I0
I1
tp682
Rp683
(I3
S'|'
p684
NNNI34
I1
I0
tp685
bS'Watermelon Man (What A Mellow Goy)'
p686
tp687
Rp688
ag2
(g3
(S'S32'
p689
I0
I1
tp690
Rp691
(I3
S'|'
p692
NNNI32
I1
I0
tp693
bS'Artie Fishel & The Promised Band'
p694
tp695
Rp696
ag2
(g22
S'-\x0f\xcbm9\x06\xda?'
p697
tp698
Rp699
ag2
(g22
S'\x00\x00\x00\x00\x00\x00\x00\x00'
p700
tp701
Rp702
ag2
(g22
S'\xfaa\x84\xf0h8b@'
p703
tp704
Rp705
ag2
(g22
S'\x00\x00\x00\x00\x00\x00\x00\x00'
p706
tp707
Rp708
ag2
(g22
S'\x8f\xc2\xf5(\\ka@'
p709
tp710
Rp711
aF0.0935
aF0.497
aF0.713
aF0.524
aF-6.558
aF0.0443
aF155.061
aF0.909
aa(lp712
g2
(g3
(S'S25'
p713
I0
I1
tp714
Rp715
(I3
S'|'
p716
NNNI25
I1
I0
tp717
bS'Got The Bull By The Horns'
p718
tp719
Rp720
ag2
(g3
(S'S13'
p721
I0
I1
tp722
Rp723
(I3
S'|'
p724
NNNI13
I1
I0
tp725
bS'Johnny Horton'
p726
tp727
Rp728
ag2
(g22
S'3?\x82\xb9\x9f\x88\xe3?'
p729
tp730
Rp731
ag2
(g22
S'\x06Wf\xbe\xf2\n\xdc?'
p732
tp733
Rp734
ag2
(g22
S'2=a\x89\x07z`@'
p735
tp736
Rp737
ag2
(g22
S'{\x14\xaeG\xe1z\x04@'
p738
tp739
Rp740
ag2
(g22
S'-\xb2\x9d\xef\xa7\x8e_@'
p741
tp742
Rp743
aF0.529
aF0.724
aF0.575
aI0
aF-13.687
aF0.0415
aI83
aF0.957
aa(lp744
g2
(g3
(S'S18'
p745
I0
I1
tp746
Rp747
(I3
S'|'
p748
NNNI18
I1
I0
tp749
bS'Words With Fat Joe'
p750
tp751
Rp752
ag2
(g3
(S'S7'
p753
I0
I1
tp754
Rp755
(I3
S'|'
p756
NNNI7
I1
I0
tp757
bS'Fat Joe'
p758
tp759
Rp760
ag2
(g22
S'\xc486GDU\xea?'
p761
tp762
Rp763
ag2
(g22
S'\xf1\xb8~[\rN\xe2?'
p764
tp765
Rp766
ag2
(g22
S'\x19\x04V\x0e-\xd2B@'
p767
tp768
Rp769
ag2
(g22
S'\x00\x00\x00\x00\x00\x00\x00\x00'
p770
tp771
Rp772
ag2
(g22
S'\x19\x04V\x0e-\xd2B@'
p773
tp774
Rp775
aF0.616
aF0.75
aF0.292
aI0
aF-13.52
aF0.949
aF93.794
aF0.699
aa(lp776
g2
(g3
(S'S17'
p777
I0
I1
tp778
Rp779
(I3
S'|'
p780
NNNI17
I1
I0
tp781
bS'Some Lie For Love'
p782
tp783
Rp784
ag2
(g3
(S'S9'
p785
I0
I1
tp786
Rp787
(I3
S'|'
p788
NNNI9
I1
I0
tp789
bS'L.A. Guns'
p790
tp791
Rp792
ag2
(g22
S'O\xe2\x1e\x83\xa5M\xe5?'
p793
tp794
Rp795
ag2
(g22
S'W>\xae\x9c\x83>\xdd?'
p796
tp797
Rp798
ag2
(g22
S'8-x\xd1W\xfaj@'
p799
tp800
Rp801
ag2
(g22
S'\xfe\xd4x\xe9&1\xc8?'
p802
tp803
Rp804
ag2
(g22
S'\xbaI\x0c\x02+\x8fj@'
p805
tp806
Rp807
aF6.3e-05
aF0.428
aF0.922
aF0.28
aF-6.936
aF0.0307
aF138.275
aF0.708
aa(lp808
g2
(g3
(S'S8'
p809
I0
I1
tp810
Rp811
(I3
S'|'
p812
NNNI8
I1
I0
tp813
bS'Lifewalk'
p814
tp815
Rp816
ag2
(g3
(S'S10'
p817
I0
I1
tp818
Rp819
(I3
S'|'
p820
NNNI10
I1
I0
tp821
bS'Demonbreed'
p822
tp823
Rp824
ag2
(g22
S'\x17Wt\x15\xce\x02\xdf?'
p825
tp826
Rp827
ag2
(g22
S'\x00\x00\x00\x00\x00\x00\x00\x00'
p828
tp829
Rp830
ag2
(g22
S'\x87m\x8b2\x1bMs@'
p831
tp832
Rp833
ag2
(g22
S'\x00\x00\x00\x00\x00\x00\x00\x00'
p834
tp835
Rp836
ag2
(g22
S'}?5^\xba%s@'
p837
tp838
Rp839
aF4.88e-05
aF0.199
aF0.904
aF0.119
aF-5.018
aF0.0626
aF82.721
aF0.331
aa(lp840
g2
(g3
(S'S18'
p841
I0
I1
tp842
Rp843
(I3
S'|'
p844
NNNI18
I1
I0
tp845
bS'Vaisakhi Wala Mela'
p846
tp847
Rp848
ag2
(g3
(S'S4'
p849
I0
I1
tp850
Rp851
(I3
S'|'
p852
NNNI4
I1
I0
tp853
bS'XLNC'
p854
tp855
Rp856
ag2
(g22
S'd\x1f\x1f\xb26\xd3\xd8?'
p857
tp858
Rp859
ag2
(g22
S'\xab\xdb\xa6\xaf\xab\xbf\xd1?'
p860
tp861
Rp862
ag2
(g22
S'k`\xab\x04\x8b-n@'
p863
tp864
Rp865
ag2
(g22
S'#\xdb\xf9~j\xbc\xc4?'
p866
tp867
Rp868
ag2
(g22
S'\xe5\xd0"\xdb\xf9\xaal@'
p869
tp870
Rp871
aF0.0873
aF0.644
aF0.804
aF0.000144
aF-15.17
aF0.0667
aF93.925
aF0.903
aa(lp872
g2
(g3
(S'S13'
p873
I0
I1
tp874
Rp875
(I3
S'|'
p876
NNNI13
I1
I0
tp877
bS'No Meat Blues'
p878
tp879
Rp880
ag2
(g3
(S'S35'
p881
I0
I1
tp882
Rp883
(I3
S'|'
p884
NNNI35
I1
I0
tp885
bS'Champion Jack Dupree With TS McPhee'
p886
tp887
Rp888
ag2
(g22
S'C\xa4\x9a\x14\xff7\xe1?'
p889
tp890
Rp891
ag2
(g22
S'\xc6\x8f\xe5xe\x10\xd4?'
p892
tp893
Rp894
ag2
(g22
S'\x9b \xea>\x00\x05h@'
p895
tp896
Rp897
ag2
(g22
S'\x1dZd;\xdfO\xcd?'
p898
tp899
Rp900
ag2
(g22
S'\x7fj\xbct\x93Dg@'
p901
tp902
Rp903
aF0.76
aF0.514
aF0.383
aI0
aF-9.989
aF0.043
aF172.022
aF0.679
aa(lp904
g2
(g3
(S'S17'
p905
I0
I1
tp906
Rp907
(I3
S'|'
p908
NNNI17
I1
I0
tp909
bS'Si Juras Regresar'
p910
tp911
Rp912
ag2
(g3
(S'S16'
p913
I0
I1
tp914
Rp915
(I3
S'|'
p916
NNNI16
I1
I0
tp917
bS'Enrique Iglesias'
p918
tp919
Rp920
ag2
(g22
S'\xdbH\xc1\xee\xb5y\xea?'
p921
tp922
Rp923
ag2
(g22
S'\x05N\x1d\xb9Q\xf8\xe7?'
p924
tp925
Rp926
ag2
(g22
S'p\x08Uj\xf6|p@'
p927
tp928
Rp929
ag2
(g22
S'\xa8\xc6K7\x89A\x0f@'
p930
tp931
Rp932
ag2
(g22
S')\\\x8f\xc2\xf5\xe8o@'
p933
tp934
Rp935
aF0.258
aF0.444
aF0.536
aF4.53e-05
aF-5.843
aF0.0291
aF141.357
aF0.14
aa(lp936
g2
(g3
(S'S74'
p937
I0
I1
tp938
Rp939
(I3
S'|'
p940
NNNI74
I1
I0
tp941
bS"Don't Worry Now (Performance Track In Key Of Db Without Background Vocals)"
p942
tp943
Rp944
ag2
(g3
(S'S12'
p945
I0
I1
tp946
Rp947
(I3
S'|'
p948
NNNI12
I1
I0
tp949
bS'Britt Nicole'
p950
tp951
Rp952
ag2
(g22
S'\x90\xb8\xcf\x86\x8bl\xe5?'
p953
tp954
Rp955
ag2
(g22
S'\xb9^7\x99\x1al\xe1?'
p956
tp957
Rp958
ag2
(g22
S'\t\xa7\x05/\xfa\xb9n@'
p959
tp960
Rp961
ag2
(g22
S'F\xb6\xf3\xfd\xd4x\xc9?'
p962
tp963
Rp964
ag2
(g22
S'\xac\x1cZd;\xebm@'
p965
tp966
Rp967
aF0.894
aF0.251
aF0.317
aF0.763
aF-13.221
aF0.028
aF79.785
aF0.0678
aa(lp968
g2
(g3
(S'S15'
p969
I0
I1
tp970
Rp971
(I3
S'|'
p972
NNNI15
I1
I0
tp973
bS'Sidney Gorgeous'
p974
tp975
Rp976
ag2
(g3
(S'S13'
p977
I0
I1
tp978
Rp979
(I3
S'|'
p980
NNNI13
I1
I0
tp981
bS'Claire Hamill'
p982
tp983
Rp984
ag2
(g22
S'h\x07\x8c\xf0\xd2\x81\xe0?'
p985
tp986
Rp987
ag2
(g22
S'K\x93\xe9\x8e\x99\x99\xd6?'
p988
tp989
Rp990
ag2
(g22
S'7\xc3\r\xf8\xfc\x12]@'
p991
tp992
Rp993
ag2
(g22
S'\xd5x\xe9&1\x08\xdc?'
p994
tp995
Rp996
ag2
(g22
S'\xdd$\x06\x81\x95\xb3[@'
p997
tp998
Rp999
aF0.99
aF0.737
aF0.111
aF0.00548
aF-14.93
aF0.0459
aF122.305
aF0.71
aa(lp1000
g2
(g3
(S'S16'
p1001
I0
I1
tp1002
Rp1003
(I3
S'|'
p1004
NNNI16
I1
I0
tp1005
bS'If I Talk To Him'
p1006
tp1007
Rp1008
ag2
(g3
(S'S12'
p1009
I0
I1
tp1010
Rp1011
(I3
S'|'
p1012
NNNI12
I1
I0
tp1013
bS'Connie Smith'
p1014
tp1015
Rp1016
ag2
(g22
S'\xe5\xb7\xdc\xb1{\xcb\xdf?'
p1017
tp1018
Rp1019
ag2
(g22
S'\xc6\xd6\xb89o`\xd7?'
p1020
tp1021
Rp1022
ag2
(g22
S'V\x82\xc5\xe1\xccJb@'
p1023
tp1024
Rp1025
ag2
(g22
S'R\xb8\x1e\x85\xebQ\xd8?'
p1026
tp1027
Rp1028
ag2
(g22
S'\xaeG\xe1z\x14\x96a@'
p1029
tp1030
Rp1031
aF0.286
aF0.544
aF0.365
aI0
aF-12.144
aF0.0481
aF141.994
aF0.711
aa(lp1032
g2
(g3
(S'S18'
p1033
I0
I1
tp1034
Rp1035
(I3
S'|'
p1036
NNNI18
I1
I0
tp1037
bS'Willie And The Pig'
p1038
tp1039
Rp1040
ag2
(g3
(S'S15'
p1041
I0
I1
tp1042
Rp1043
(I3
S'|'
p1044
NNNI15
I1
I0
tp1045
bS'The Grease Band'
p1046
tp1047
Rp1048
ag2
(g22
S'\xc6\xaf\x94\x00\x86\xbe\xd4?'
p1049
tp1050
Rp1051
ag2
(g22
S'\xc95\x9bv\x0by\xc8?'
p1052
tp1053
Rp1054
ag2
(g22
S'\xc1\x8b\xbe\x824\xdbo@'
p1055
tp1056
Rp1057
ag2
(g22
S'\x00\x00\x00\x00\x00\x00\x00\x00'
p1058
tp1059
Rp1060
ag2
(g22
S'\xdd$\x06\x81\x95ko@'
p1061
tp1062
Rp1063
aF0.244
aF0.537
aF0.455
aF0.366
aF-17.781
aF0.0538
aF174.357
aF0.622
aa(lp1064
g2
(g3
(S'S19'
p1065
I0
I1
tp1066
Rp1067
(I3
S'|'
p1068
NNNI19
I1
I0
tp1069
bS'Because He Loves Me'
p1070
tp1071
Rp1072
ag2
(g3
(S'S11'
p1073
I0
I1
tp1074
Rp1075
(I3
S'|'
p1076
NNNI11
I1
I0
tp1077
bS'Amy Lambert'
p1078
tp1079
Rp1080
ag2
(g22
S',\x9e\xbc\xef\xd9\xac\xcd?'
p1081
tp1082
Rp1083
ag2
(g22
S'\x7f`L\xbbS\xb5\xcc?'
p1084
tp1085
Rp1086
ag2
(g22
S'\x06\r\xfd\x13\xdc\nr@'
p1087
tp1088
Rp1089
ag2
(g22
S'\x8f\xc2\xf5(\\\x8f\xda?'
p1090
tp1091
Rp1092
ag2
(g22
S'\xb8\x1e\x85\xebQLq@'
p1093
tp1094
Rp1095
aF0.464
aF0.556
aF0.337
aI0
aF-10.664
aF0.0274
aF108.39
aF0.199
aa(lp1096
g2
(g3
(S'S14'
p1097
I0
I1
tp1098
Rp1099
(I3
S'|'
p1100
NNNI14
I1
I0
tp1101
bS'Black and Blue'
p1102
tp1103
Rp1104
ag2
(g3
(S'S16'
p1105
I0
I1
tp1106
Rp1107
(I3
S'|'
p1108
NNNI16
I1
I0
tp1109
bS'Torcuato Mariano'
p1110
tp1111
Rp1112
ag2
(g22
S'\xbf:\x1eb|\x17\xe0?'
p1113
tp1114
Rp1115
ag2
(g22
S'\xd4%6\xea\xd6\xf3\xd3?'
p1116
tp1117
Rp1118
ag2
(g22
S'\xbd:\xc7\x80lpr@'
p1119
tp1120
Rp1121
ag2
(g22
S'\x1b/\xdd$\x06\x81\xd5?'
p1122
tp1123
Rp1124
ag2
(g22
S'\xc9v\xbe\x9f\x1a\x8fq@'
p1125
tp1126
Rp1127
aF0.62
aF0.484
aF0.386
aF0.145
aF-11.991
aF0.0313
aF89.953
aF0.096
aa(lp1128
g2
(g3
(S'S13'
p1129
I0
I1
tp1130
Rp1131
(I3
S'|'
p1132
NNNI13
I1
I0
tp1133
bS'A True Friend'
p1134
tp1135
Rp1136
ag2
(g3
(S'S12'
p1137
I0
I1
tp1138
Rp1139
(I3
S'|'
p1140
NNNI12
I1
I0
tp1141
bS'Dobby Dobson'
p1142
tp1143
Rp1144
ag2
(g22
S'\xf1l\xf0\x93\xb1\x03\xdd?'
p1145
tp1146
Rp1147
ag2
(g22
S'\x95\xc9\xb4\x11N\xfb\xd3?'
p1148
tp1149
Rp1150
ag2
(g22
S'\xbeM\x7f\xf6#2h@'
p1151
tp1152
Rp1153
ag2
(g22
S'\xe5\xd0"\xdb\xf9~\xca?'
p1154
tp1155
Rp1156
ag2
(g22
S'\xb2\x9d\xef\xa7\xc6kg@'
p1157
tp1158
Rp1159
aF0.0381
aF0.681
aF0.701
aF1.42e-05
aF-6.843
aF0.0377
aF164.053
aF0.682
aa(lp1160
g2
(g3
(S'S15'
p1161
I0
I1
tp1162
Rp1163
(I3
S'|'
p1164
NNNI15
I1
I0
tp1165
bS'Changed My Life'
p1166
tp1167
Rp1168
ag2
(g3
(S'S17'
p1169
I0
I1
tp1170
Rp1171
(I3
S'|'
p1172
NNNI17
I1
I0
tp1173
bS'Baby Bash / Grimm'
p1174
tp1175
Rp1176
ag2
(g22
S'\xce\x07"\x11B\xaf\xea?'
p1177
tp1178
Rp1179
ag2
(g22
S'r\xcaF\xa1\x87D\xe3?'
p1180
tp1181
Rp1182
ag2
(g22
S'\xda\xe6\xc6\xf4\x84\xe2l@'
p1183
tp1184
Rp1185
ag2
(g22
S'\xbaI\x0c\x02+\x87\x04@'
p1186
tp1187
Rp1188
ag2
(g22
S'\xd3Mb\x10X9k@'
p1189
tp1190
Rp1191
aF0.291
aF0.917
aF0.734
aF0.000982
aF-5.011
aF0.129
aF89.478
aF0.742
aa(lp1192
g2
(g3
(S'S10'
p1193
I0
I1
tp1194
Rp1195
(I3
S'|'
p1196
NNNI10
I1
I0
tp1197
bS'Loose Talk'
p1198
tp1199
Rp1200
ag2
(g3
(S'S10'
p1201
I0
I1
tp1202
Rp1203
(I3
S'|'
p1204
NNNI10
I1
I0
tp1205
bS'Carl Smith'
p1206
tp1207
Rp1208
ag2
(g22
S'\x8c(\xcd\xaa\xe7\xa5\xe1?'
p1209
tp1210
Rp1211
ag2
(g22
S'\x02*\x9f+\x8b\x82\xd6?'
p1212
tp1213
Rp1214
ag2
(g22
S'D\x86U\xbc\x91\rc@'
p1215
tp1216
Rp1217
ag2
(g22
S'\x00\x00\x00\x00\x00\x00\x00\x00'
p1218
tp1219
Rp1220
ag2
(g22
S'\xcd\xcc\xcc\xcc\xcc8b@'
p1221
tp1222
Rp1223
aF0.727
aF0.743
aF0.455
aI0
aF-10.84
aF0.0369
aF113.381
aF0.964
aa(lp1224
g2
(g3
(S'S27'
p1225
I0
I1
tp1226
Rp1227
(I3
S'|'
p1228
NNNI27
I1
I0
tp1229
bS'Intro/Chamber The Cartridge'
p1230
tp1231
Rp1232
ag2
(g3
(S'S12'
p1233
I0
I1
tp1234
Rp1235
(I3
S'|'
p1236
NNNI12
I1
I0
tp1237
bS'Rise Against'
p1238
tp1239
Rp1240
ag2
(g22
S'`\x81\x81\x0eK\x1b\xeb?'
p1241
tp1242
Rp1243
ag2
(g22
S'\xf0\xe3\xe4\xc7\xa8\x00\xe4?'
p1244
tp1245
Rp1246
ag2
(g22
S'\x9e\xd2\xc1\xfa?\xdcj@'
p1247
tp1248
Rp1249
ag2
(g22
S'\xd5x\xe9&1\x08\xdc?'
p1250
tp1251
Rp1252
ag2
(g22
S'\x98n\x12\x83\xc0\x02j@'
p1253
tp1254
Rp1255
aF0.000359
aF0.259
aF0.994
aF4.58e-05
aF-3.96
aF0.39
aF164.458
aF0.175
aa(lp1256
g2
(g3
(S'S15'
p1257
I0
I1
tp1258
Rp1259
(I3
S'|'
p1260
NNNI15
I1
I0
tp1261
bS'Blank Eye Stare'
p1262
tp1263
Rp1264
ag2
(g3
(S'S9'
p1265
I0
I1
tp1266
Rp1267
(I3
S'|'
p1268
NNNI9
I1
I0
tp1269
bS'Martriden'
p1270
tp1271
Rp1272
ag2
(g22
S'\x08U\xdcl\xe0P\xe1?'
p1273
tp1274
Rp1275
ag2
(g22
S'l\xd5[\xd3\xa4t\xd4?'
p1276
tp1277
Rp1278
ag2
(g22
S'\xda\xe1\xaf\xc9\x1a?v@'
p1279
tp1280
Rp1281
ag2
(g22
S'\x00\x00\x00\x00\x00\x00\x00\x00'
p1282
tp1283
Rp1284
ag2
(g22
S'\x9a\x99\x99\x99\x99%u@'
p1285
tp1286
Rp1287
aF3.66e-05
aF0.197
aF0.961
aF0.598
aF-4.566
aF0.108
aF138.361
aF0.198
aa(lp1288
g2
(g3
(S'S14'
p1289
I0
I1
tp1290
Rp1291
(I3
S'|'
p1292
NNNI14
I1
I0
tp1293
bS'Laula kanssain'
p1294
tp1295
Rp1296
ag2
(g3
(S'S5'
p1297
I0
I1
tp1298
Rp1299
(I3
S'|'
p1300
NNNI5
I1
I0
tp1301
bS'Fredi'
p1302
tp1303
Rp1304
ag2
(g22
S'\xce9\x15\xe7*\\\xda?'
p1305
tp1306
Rp1307
ag2
(g22
S'\x15\x8f\xa5\xb6\xf1r\xd9?'
p1308
tp1309
Rp1310
ag2
(g22
S'\xc9v\xbe\x9f\x1awn@'
p1311
tp1312
Rp1313
ag2
(g22
S'\x06\x81\x95C\x8bl\n@'
p1314
tp1315
Rp1316
ag2
(g22
S'\x06\x81\x95C\x8b\xf4l@'
p1317
tp1318
Rp1319
aF0.745
aF0.61
aF0.523
aF1.11e-05
aF-5.716
aF0.0292
aF121.061
aF0.722
aa(lp1320
g2
(g3
(S'S32'
p1321
I0
I1
tp1322
Rp1323
(I3
S'|'
p1324
NNNI32
I1
I0
tp1325
bS'I Cried All The Way To The Altar'
p1326
tp1327
Rp1328
ag2
(g3
(S'S11'
p1329
I0
I1
tp1330
Rp1331
(I3
S'|'
p1332
NNNI11
I1
I0
tp1333
bS'Patsy Cline'
p1334
tp1335
Rp1336
ag2
(g22
S'9;E\x01\xea\x03\xe5?'
p1337
tp1338
Rp1339
ag2
(g22
S'kI\x94\x84\x17\xfc\xdd?'
p1340
tp1341
Rp1342
ag2
(g22
S'\xe6ypw\xd6\x8cb@'
p1343
tp1344
Rp1345
ag2
(g22
S'\xa8\xc6K7\x89A\x00@'
p1346
tp1347
Rp1348
ag2
(g22
S'\xfa~j\xbct\x9ba@'
p1349
tp1350
Rp1351
aF0.621
aF0.484
aF0.23
aI0
aF-8.025
aF0.029
aF92.665
aF0.5
aa(lp1352
g2
(g3
(S'S173'
p1353
I0
I1
tp1354
Rp1355
(I3
S'|'
p1356
NNNI173
I1
I0
tp1357
bS"We're Skrewed (Otto Von Schirach My Supernatural Motorcycle Gang Will Knife U Open Piss & Shit All Over Your Organic Starbucks =iPhone Bank Account Lifeless Lifestyle Remix)"
p1358
tp1359
Rp1360
ag2
(g3
(S'S11'
p1361
I0
I1
tp1362
Rp1363
(I3
S'|'
p1364
NNNI11
I1
I0
tp1365
bS'All Leather'
p1366
tp1367
Rp1368
ag2
(g22
S'>\xb0\xc3\xd4W/\xe3?'
p1369
tp1370
Rp1371
ag2
(g22
S'\xdd\x8d\xaeC^F\xd8?'
p1372
tp1373
Rp1374
ag2
(g22
S':#J{\x831o@'
p1375
tp1376
Rp1377
ag2
(g22
S'\x00\x00\x00\x00\x00\x00\x00\x00'
p1378
tp1379
Rp1380
ag2
(g22
S'\xe3\xa5\x9b\xc4 |n@'
p1381
tp1382
Rp1383
aF0.0102
aF0.659
aF0.783
aF0.000868
aF-5.046
aF0.182
aF150.962
aF0.642
aa(lp1384
g2
(g3
(S'S12'
p1385
I0
I1
tp1386
Rp1387
(I3
S'|'
p1388
NNNI12
I1
I0
tp1389
bS'Hold On Baby'
p1390
tp1391
Rp1392
ag2
(g3
(S'S13'
p1393
I0
I1
tp1394
Rp1395
(I3
S'|'
p1396
NNNI13
I1
I0
tp1397
bS'Janet Jackson'
p1398
tp1399
Rp1400
ag2
(g22
S'\xc6\xab\x80\xde\xd76\xec?'
p1401
tp1402
Rp1403
ag2
(g22
S'=l\x86\xbf\xb4.\xe2?'
p1404
tp1405
Rp1406
ag2
(g22
S'\x1c\x08\xc9\x02&\xb0$@'
p1407
tp1408
Rp1409
ag2
(g22
S'\x00\x00\x00\x00\x00\x00\x00\x00'
p1410
tp1411
Rp1412
ag2
(g22
S'\xe3\xa5\x9b\xc4 \xb0$@'
p1413
tp1414
Rp1415
aF0.0591
aI0
aF0.578
aF0.967
aF-35.078
aI0
aI0
aI0
aa(lp1416
g2
(g3
(S'S7'
p1417
I0
I1
tp1418
Rp1419
(I3
S'|'
p1420
NNNI7
I1
I0
tp1421
bS'U North'
p1422
tp1423
Rp1424
ag2
(g3
(S'S19'
p1425
I0
I1
tp1426
Rp1427
(I3
S'|'
p1428
NNNI19
I1
I0
tp1429
bS'James Newton Howard'
p1430
tp1431
Rp1432
ag2
(g22
S'\xd07l"p\x90\xe3?'
p1433
tp1434
Rp1435
ag2
(g22
S"\xb6\x7f\xd8U'\x80\xdc?"
p1436
tp1437
Rp1438
ag2
(g22
S'P\xc2L\xdb\xbf\x16[@'
p1439
tp1440
Rp1441
ag2
(g22
S'\xe5\xd0"\xdb\xf9\xfe\x10@'
p1442
tp1443
Rp1444
ag2
(g22
S')\\\x8f\xc2\xf5\x00X@'
p1445
tp1446
Rp1447
aF0.752
aF0.158
aF0.135
aF0.929
aF-32.174
aF0.0746
aF180.067
aF0.0216
aa(lp1448
g2
(g3
(S'S29'
p1449
I0
I1
tp1450
Rp1451
(I3
S'|'
p1452
NNNI29
I1
I0
tp1453
bS'Everything Your Heart Desires'
p1454
tp1455
Rp1456
ag2
(g3
(S'S23'
p1457
I0
I1
tp1458
Rp1459
(I3
S'|'
p1460
NNNI23
I1
I0
tp1461
bS'Daryl Hall & John Oates'
p1462
tp1463
Rp1464
ag2
(g22
S'\x94[\xe0t\x0fG\xe5?'
p1465
tp1466
Rp1467
ag2
(g22
S'\xc0k\xc3l\xb5\xc4\xdf?'
p1468
tp1469
Rp1470
ag2
(g22
S'\x14\xb3^\x0c\xe5\xb7r@'
p1471
tp1472
Rp1473
ag2
(g22
S'o\x12\x83\xc0\xca\xa1\x0b@'
p1474
tp1475
Rp1476
ag2
(g22
S'\x81\x95C\x8bl+r@'
p1477
tp1478
Rp1479
aF0.5
aF0.597
aF0.643
aI0
aF-6.303
aF0.134
aF167.963
aF0.823
aa(lp1480
g2
(g3
(S'S26'
p1481
I0
I1
tp1482
Rp1483
(I3
S'|'
p1484
NNNI26
I1
I0
tp1485
bS'Main Title / The Searchers'
p1486
tp1487
Rp1488
ag2
(g3
(S'S11'
p1489
I0
I1
tp1490
Rp1491
(I3
S'|'
p1492
NNNI11
I1
I0
tp1493
bS'Max Steiner'
p1494
tp1495
Rp1496
ag2
(g22
S'\xb9#_\x90\x863\xde?'
p1497
tp1498
Rp1499
ag2
(g22
S'T\xa8\xcf\xe4]\xc0\xd6?'
p1500
tp1501
Rp1502
ag2
(g22
S'\xcb\xd6\xfa"\xa1\x91W@'
p1503
tp1504
Rp1505
ag2
(g22
S'\xbe\x9f\x1a/\xdd$\xf2?'
p1506
tp1507
Rp1508
ag2
(g22
S'\xe3\xa5\x9b\xc4 \xb8U@'
p1509
tp1510
Rp1511
aF0.846
aF0.138
aF0.22
aF0.306
aF-13.962
aF0.0367
aF74.608
aF0.224
aa(lp1512
g2
(g3
(S'S37'
p1513
I0
I1
tp1514
Rp1515
(I3
S'|'
p1516
NNNI37
I1
I0
tp1517
bS'Prelude No. 2 (2000 Digital Remaster)'
p1518
tp1519
Rp1520
ag2
(g3
(S'S12'
p1521
I0
I1
tp1522
Rp1523
(I3
S'|'
p1524
NNNI12
I1
I0
tp1525
bS'Angel Romero'
p1526
tp1527
Rp1528
ag2
(g22
S'\xa6%W=]]\xdf?'
p1529
tp1530
Rp1531
ag2
(g22
S'\x1d\xc4o\xb6\x12m\xd5?'
p1532
tp1533
Rp1534
ag2
(g22
S'\xf3<\xb8;k\x83[@'
p1535
tp1536
Rp1537
ag2
(g22
S'9\xb4\xc8v\xbe\x9f\xe6?'
p1538
tp1539
Rp1540
ag2
(g22
S'\x04V\x0e-\xb2\x9dX@'
p1541
tp1542
Rp1543
aF0.995
aF0.385
aF0.0197
aF0.933
aF-30.037
aF0.0493
aF60.312
aF0.172
aa(lp1544
g2
(g3
(S'S58'
p1545
I0
I1
tp1546
Rp1547
(I3
S'|'
p1548
NNNI58
I1
I0
tp1549
bS'Donizetti: Roberto Devereux: Ah! Ritorna qual ti spero....'
p1550
tp1551
Rp1552
ag2
(g3
(S'S17'
p1553
I0
I1
tp1554
Rp1555
(I3
S'|'
p1556
NNNI17
I1
I0
tp1557
bS'Gaetano Donizetti'
p1558
tp1559
Rp1560
ag2
(g22
S'\xd6<=\xd3@\xcf\xe1?'
p1561
tp1562
Rp1563
ag2
(g22
S'D\x90U\xef\x87-\xd7?'
p1564
tp1565
Rp1566
ag2
(g22
S'\xdd$\x06\x81\x95\x8bd@'
p1567
tp1568
Rp1569
ag2
(g22
S'\x00\x00\x00\x00\x00\x00\x00\x00'
p1570
tp1571
Rp1572
ag2
(g22
S'u\x93\x18\x04V\xb6c@'
p1573
tp1574
Rp1575
aF0.974
aF0.51
aF0.177
aF2.83e-05
aF-16.481
aF0.0796
aF125.302
aF0.43
aa(lp1576
g2
(g3
(S'S7'
p1577
I0
I1
tp1578
Rp1579
(I3
S'|'
p1580
NNNI7
I1
I0
tp1581
bS'Warning'
p1582
tp1583
Rp1584
ag2
(g3
(S'S7'
p1585
I0
I1
tp1586
Rp1587
(I3
S'|'
p1588
NNNI7
I1
I0
tp1589
bS'Incubus'
p1590
tp1591
Rp1592
ag2
(g22
S'\x9f\x07\x80\x02\xe6\xc6\xec?'
p1593
tp1594
Rp1595
ag2
(g22
S'\xee\xcd\xa4\xd1\xc9\x8a\xe2?'
p1596
tp1597
Rp1598
ag2
(g22
S'\x99\x9e\xb0\xc4\x03=r@'
p1599
tp1600
Rp1601
ag2
(g22
S'\x00\x00\x00\x00\x00\x00\x00\x00'
p1602
tp1603
Rp1604
ag2
(g22
S'\xdd$\x06\x81\x95\xfbq@'
p1605
tp1606
Rp1607
aF0.00143
aF0.504
aF0.522
aF0.000236
aF-8.297
aF0.0259
aF81.047
aF0.222
aa(lp1608
g2
(g3
(S'S18'
p1609
I0
I1
tp1610
Rp1611
(I3
S'|'
p1612
NNNI18
I1
I0
tp1613
bS'Shelter Your Needs'
p1614
tp1615
Rp1616
ag2
(g3
(S'S20'
p1617
I0
I1
tp1618
Rp1619
(I3
S'|'
p1620
NNNI20
I1
I0
tp1621
bS'Juliette & The Licks'
p1622
tp1623
Rp1624
ag2
(g22
S'(\xf2\xa0\x7f\xde\x10\xe7?'
p1625
tp1626
Rp1627
ag2
(g22
S'\xf7?N\xbf\xb8-\xdd?'
p1628
tp1629
Rp1630
ag2
(g22
S'\x0b\xefr\x11\xdf+n@'
p1631
tp1632
Rp1633
ag2
(g22
S'\xa2E\xb6\xf3\xfd\xd4\xc8?'
p1634
tp1635
Rp1636
ag2
(g22
S'\xb4\xc8v\xbe\x9fVm@'
p1637
tp1638
Rp1639
aF0.0779
aF0.657
aF0.549
aI0
aF-5.704
aF0.0316
aF110.931
aF0.963
aa(lp1640
g2
(g3
(S'S52'
p1641
I0
I1
tp1642
Rp1643
(I3
S'|'
p1644
NNNI52
I1
I0
tp1645
bS'Limelighters (feat. Camp Lo) / Flunkadelic Interlude'
p1646
tp1647
Rp1648
ag2
(g3
(S'S10'
p1649
I0
I1
tp1650
Rp1651
(I3
S'|'
p1652
NNNI10
I1
I0
tp1653
bS'Aesop Rock'
p1654
tp1655
Rp1656
ag2
(g22
S'\xb3\x87\x8bC\x8a\xb4\xea?'
p1657
tp1658
Rp1659
ag2
(g22
S'NK\r\xf0B\x8c\xde?'
p1660
tp1661
Rp1662
ag2
(g22
S'(,\xf1\x80\xb2\x19q@'
p1663
tp1664
Rp1665
ag2
(g22
S'\x00\x00\x00\x00\x00\x00\x00\x00'
p1666
tp1667
Rp1668
ag2
(g22
S"'1\x08\xac\x1c\xa4p@"
p1669
tp1670
Rp1671
aF0.18
aF0.544
aF0.721
aI0
aF-7.722
aF0.84
aF86.332
aF0.723
aa(lp1672
g2
(g3
(S'S6'
p1673
I0
I1
tp1674
Rp1675
(I3
S'|'
p1676
NNNI6
I1
I0
tp1677
bS'Gnosis'
p1678
tp1679
Rp1680
ag2
(g3
(S'S14'
p1681
I0
I1
tp1682
Rp1683
(I3
S'|'
p1684
NNNI14
I1
I0
tp1685
bS'Paul Avgerinos'
p1686
tp1687
Rp1688
ag2
(g22
S'\x05\x86\xd7\x8e\xfc\xc0\xdc?'
p1689
tp1690
Rp1691
ag2
(g22
S'\x8f\x19\xaf\xab\xc9K\xd4?'
p1692
tp1693
Rp1694
ag2
(g22
S'&p\xebn\x9eyz@'
p1695
tp1696
Rp1697
ag2
(g22
S'%\x06\x81\x95C\x8b\xcc?'
p1698
tp1699
Rp1700
ag2
(g22
S'\xd9\xce\xf7S\xe3\xddx@'
p1701
tp1702
Rp1703
aF0.852
aF0.147
aF0.216
aF0.977
aF-21.884
aF0.0366
aF138.744
aF0.0935
aa(lp1704
g2
(g3
(S'S5'
p1705
I0
I1
tp1706
Rp1707
(I3
S'|'
p1708
NNNI5
I1
I0
tp1709
bS'Tulip'
p1710
tp1711
Rp1712
ag2
(g3
(S'S6'
p1713
I0
I1
tp1714
Rp1715
(I3
S'|'
p1716
NNNI6
I1
I0
tp1717
bS'Angels'
p1718
tp1719
Rp1720
ag2
(g22
S'\x9b6V;\x80^\xe6?'
p1721
tp1722
Rp1723
ag2
(g22
S'In\xa2\xa1\xa3\xde\xdb?'
p1724
tp1725
Rp1726
ag2
(g22
S'ep\x94\xbc:\xadk@'
p1727
tp1728
Rp1729
ag2
(g22
S'\xc9v\xbe\x9f\x1a/\xcd?'
p1730
tp1731
Rp1732
ag2
(g22
S"\x96C\x8bl\xe7'j@"
p1733
tp1734
Rp1735
aF0.308
aF0.56
aF0.652
aI0
aF-5.951
aF0.0306
aF103.059
aF0.282
aa(lp1736
g2
(g3
(S'S28'
p1737
I0
I1
tp1738
Rp1739
(I3
S'|'
p1740
NNNI28
I1
I0
tp1741
bS"I'll Meet You In The Morning"
p1742
tp1743
Rp1744
ag2
(g3
(S'S17'
p1745
I0
I1
tp1746
Rp1747
(I3
S'|'
p1748
NNNI17
I1
I0
tp1749
bS'Barbara Fairchild'
p1750
tp1751
Rp1752
ag2
(g22
S'\xe5[J\x86Ei\xdb?'
p1753
tp1754
Rp1755
ag2
(g22
S'\xc9\x02e=[\xc2\xd7?'
p1756
tp1757
Rp1758
ag2
(g22
S'5{\xa0\x15\x18#h@'
p1759
tp1760
Rp1761
ag2
(g22
S'\x00\x00\x00\x00\x00\x00\x00\x00'
p1762
tp1763
Rp1764
ag2
(g22
S'\xa6\x9b\xc4 \xb0Zg@'
p1765
tp1766
Rp1767
aF0.694
aF0.563
aF0.508
aI0
aF-5.859
aF0.027
aF114.78
aF0.63
aa(lp1768
g2
(g3
(S'S13'
p1769
I0
I1
tp1770
Rp1771
(I3
S'|'
p1772
NNNI13
I1
I0
tp1773
bS'Crushed Pears'
p1774
tp1775
Rp1776
ag2
(g3
(S'S23'
p1777
I0
I1
tp1778
Rp1779
(I3
S'|'
p1780
NNNI23
I1
I0
tp1781
bS'The Balustrade Ensemble'
p1782
tp1783
Rp1784
ag2
(g22
S']\xb1\x1c\xe22\xb7\xdf?'
p1785
tp1786
Rp1787
ag2
(g22
S'e\xf8\xfc\xce\xbf\xba\xd2?'
p1788
tp1789
Rp1790
ag2
(g22
S'\xd6\xff9\xcc\x97Xl@'
p1791
tp1792
Rp1793
ag2
(g22
S'\x00\x00\x00\x00\x00\x00\x00\x00'
p1794
tp1795
Rp1796
ag2
(g22
S'\xb4\xc8v\xbe\x9f\xf6k@'
p1797
tp1798
Rp1799
aF0.289
aF0.287
aF0.163
aF0.8
aF-25.369
aF0.0463
aF139.814
aF0.141
aa(lp1800
g2
(g3
(S'S12'
p1801
I0
I1
tp1802
Rp1803
(I3
S'|'
p1804
NNNI12
I1
I0
tp1805
bS'Let It Shine'
p1806
tp1807
Rp1808
ag2
(g3
(S'S7'
p1809
I0
I1
tp1810
Rp1811
(I3
S'|'
p1812
NNNI7
I1
I0
tp1813
bS'Santana'
p1814
tp1815
Rp1816
ag2
(g22
S'\xc0Q!\xc7\x1a1\xea?'
p1817
tp1818
Rp1819
ag2
(g22
S'o\xfem\xe8\xa6\x16\xe4?'
p1820
tp1821
Rp1822
ag2
(g22
S'\x9f\xb0\xc4\x03Jmu@'
p1823
tp1824
Rp1825
ag2
(g22
S'\x98n\x12\x83\xc0\xca\xd9?'
p1826
tp1827
Rp1828
ag2
(g22
S'u\x93\x18\x04V6t@'
p1829
tp1830
Rp1831
aF0.108
aF0.683
aF0.61
aF0.000642
aF-12.764
aF0.0513
aF107.498
aF0.89
aa(lp1832
g2
(g3
(S'S14'
p1833
I0
I1
tp1834
Rp1835
(I3
S'|'
p1836
NNNI14
I1
I0
tp1837
bS'Todos mentimos'
p1838
tp1839
Rp1840
ag2
(g3
(S'S15'
p1841
I0
I1
tp1842
Rp1843
(I3
S'|'
p1844
NNNI15
I1
I0
tp1845
bS'Diego Verdaguer'
p1846
tp1847
Rp1848
ag2
(g22
S'^h\xcaz\xb3D\xde?'
p1849
tp1850
Rp1851
ag2
(g22
S'\xb4\xed\x03 $\x0b\xd8?'
p1852
tp1853
Rp1854
ag2
(g22
S'O\xccz1\x94ae@'
p1855
tp1856
Rp1857
ag2
(g22
S'\x06\x81\x95C\x8bl\xc7?'
p1858
tp1859
Rp1860
ag2
(g22
S'\xd1"\xdb\xf9~\xfad@'
p1861
tp1862
Rp1863
aF0.719
aF0.803
aF0.406
aI0
aF-7.096
aF0.035
aF120.037
aF0.755
aa(lp1864
g2
(g3
(S'S10'
p1865
I0
I1
tp1866
Rp1867
(I3
S'|'
p1868
NNNI10
I1
I0
tp1869
bS'Never Fall'
p1870
tp1871
Rp1872
ag2
(g3
(S'S8'
p1873
I0
I1
tp1874
Rp1875
(I3
S'|'
p1876
NNNI8
I1
I0
tp1877
bS'Bruisers'
p1878
tp1879
Rp1880
ag2
(g22
S'>\x0fR\xc09H\xdd?'
p1881
tp1882
Rp1883
ag2
(g22
S"\x97\xe1\xd1\xba'\x95\xda?"
p1884
tp1885
Rp1886
ag2
(g22
S'\xed\xd3\xf1\x98\x81\xf0Y@'
p1887
tp1888
Rp1889
ag2
(g22
S'\x00\x00\x00\x00\x00\x00\xc0?'
p1890
tp1891
Rp1892
ag2
(g22
S'V\x0e-\xb2\x9d\xf7W@'
p1893
tp1894
Rp1895
aF0.00122
aF0.358
aF0.817
aF0.0704
aF-9.675
aF0.03
aF96.263
aF0.95
aa(lp1896
g2
(g3
(S'S11'
p1897
I0
I1
tp1898
Rp1899
(I3
S'|'
p1900
NNNI11
I1
I0
tp1901
bS'Slow Murder'
p1902
tp1903
Rp1904
ag2
(g3
(S'S12'
p1905
I0
I1
tp1906
Rp1907
(I3
S'|'
p1908
NNNI12
I1
I0
tp1909
bS'Bill Laswell'
p1910
tp1911
Rp1912
ag2
(g22
S'\xb0\xa8\x8b\x96?\xb2\xe5?'
p1913
tp1914
Rp1915
ag2
(g22
S'\xb6[\xb6x\xc9\xdb\xd9?'
p1916
tp1917
Rp1918
ag2
(g22
S'\xdfO\x8d\x97n\xb6u@'
p1919
tp1920
Rp1921
ag2
(g22
S'B`\xe5\xd0"\xdb\x12@'
p1922
tp1923
Rp1924
ag2
(g22
S'y\xe9&1\x086u@'
p1925
tp1926
Rp1927
aF2.94e-05
aF0.306
aF0.597
aF0.609
aF-12.501
aF0.0409
aF167.806
aF0.361
aa(lp1928
g2
(g3
(S'S14'
p1929
I0
I1
tp1930
Rp1931
(I3
S'|'
p1932
NNNI14
I1
I0
tp1933
bS'Summer Shudder'
p1934
tp1935
Rp1936
ag2
(g3
(S'S3'
p1937
I0
I1
tp1938
Rp1939
(I3
S'|'
p1940
NNNI3
I1
I0
tp1941
bS'AFI'
p1942
tp1943
Rp1944
ag2
(g22
S'\xb8\xf5N\xc2\x8d\x18\xed?'
p1945
tp1946
Rp1947
ag2
(g22
S'\x136\xaan\x0e\xc2\xe1?'
p1948
tp1949
Rp1950
ag2
(g22
S'\xf7\xaf\xac4)ag@'
p1951
tp1952
Rp1953
ag2
(g22
S';\xdfO\x8d\x97n\x04@'
p1954
tp1955
Rp1956
ag2
(g22
S'\xc7K7\x89A`f@'
p1957
tp1958
Rp1959
aF0.000895
aF0.485
aF0.939
aF2.04e-05
aF-4.117
aF0.0817
aF85.04
aF0.395
aa(lp1960
g2
(g3
(S'S9'
p1961
I0
I1
tp1962
Rp1963
(I3
S'|'
p1964
NNNI9
I1
I0
tp1965
bS'Fui Mujer'
p1966
tp1967
Rp1968
ag2
(g3
(S'S21'
p1969
I0
I1
tp1970
Rp1971
(I3
S'|'
p1972
NNNI21
I1
I0
tp1973
bS'Juan Carlos Baglietto'
p1974
tp1975
Rp1976
ag2
(g22
S'\xf6\xfe9g\xe6N\xe1?'
p1977
tp1978
Rp1979
ag2
(g22
S'\xcf\xd9\x9bC\x8f\xbe\xd8?'
p1980
tp1981
Rp1982
ag2
(g22
S'\x98n\x12\x83\xc0np@'
p1983
tp1984
Rp1985
ag2
(g22
S'`\xe5\xd0"\xdb\xf9\xce?'
p1986
tp1987
Rp1988
ag2
(g22
S'\x04V\x0e-\xb2\xcdn@'
p1989
tp1990
Rp1991
aF0.404
aF0.649
aF0.366
aF0.000932
aF-12.054
aF0.0597
aF89.948
aF0.297
aa(lp1992
g2
(g3
(S'S10'
p1993
I0
I1
tp1994
Rp1995
(I3
S'|'
p1996
NNNI10
I1
I0
tp1997
bS'Explorador'
p1998
tp1999
Rp2000
ag2
(g3
(S'S12'
p2001
I0
I1
tp2002
Rp2003
(I3
S'|'
p2004
NNNI12
I1
I0
tp2005
bS'La Portuaria'
p2006
tp2007
Rp2008
ag2
(g22
S'`SC\xe4\x7f\xbb\xe0?'
p2009
tp2010
Rp2011
ag2
(g22
S'\xe1\n\xf3\xac\xe6\x90\xd3?'
p2012
tp2013
Rp2014
ag2
(g22
S'\n\x9d\xd7\xd8%2r@'
p2015
tp2016
Rp2017
ag2
(g22
S'\xfa~j\xbct\x93\xb8?'
p2018
tp2019
Rp2020
ag2
(g22
S'\xd1"\xdb\xf9~\x1cq@'
p2021
tp2022
Rp2023
aF0.00316
aF0.612
aF0.843
aF0.0018
aF-9.219
aF0.037
aF120.021
aF0.24
aa(lp2024
g2
(g3
(S'S9'
p2025
I0
I1
tp2026
Rp2027
(I3
S'|'
p2028
NNNI9
I1
I0
tp2029
bS'Mi Suegra'
p2030
tp2031
Rp2032
ag2
(g3
(S'S16'
p2033
I0
I1
tp2034
Rp2035
(I3
S'|'
p2036
NNNI16
I1
I0
tp2037
bS'Conjunto Clasico'
p2038
tp2039
Rp2040
ag2
(g22
S'\xe3u\xff\xadA}\xdf?'
p2041
tp2042
Rp2043
ag2
(g22
S'Cw\x87\xec\xb5\xbb\xd4?'
p2044
tp2045
Rp2046
ag2
(g22
S't{Ic\xb4\x97n@'
p2047
tp2048
Rp2049
ag2
(g22
S'\xee|?5^\xba\xc9?'
p2050
tp2051
Rp2052
ag2
(g22
S'J\x0c\x02+\x87\x9em@'
p2053
tp2054
Rp2055
aF0.251
aF0.556
aF0.816
aI0
aF-6.914
aF0.0504
aF92.379
aF0.926
aa(lp2056
g2
(g3
(S'S20'
p2057
I0
I1
tp2058
Rp2059
(I3
S'|'
p2060
NNNI20
I1
I0
tp2061
bS'Been Fighting Devilz'
p2062
tp2063
Rp2064
ag2
(g3
(S'S9'
p2065
I0
I1
tp2066
Rp2067
(I3
S'|'
p2068
NNNI9
I1
I0
tp2069
bS'Snowgoons'
p2070
tp2071
Rp2072
ag2
(g22
S'\\01\x83b\xc9\xe4?'
p2073
tp2074
Rp2075
ag2
(g22
S'p\x8d\xa3\xc0\xb0\x86\xdd?'
p2076
tp2077
Rp2078
ag2
(g22
S'!\xcdX4\x9d\x0en@'
p2079
tp2080
Rp2081
ag2
(g22
S'1\x08\xac\x1cZd\xbb?'
p2082
tp2083
Rp2084
ag2
(g22
S'33333Gm@'
p2085
tp2086
Rp2087
aF0.123
aF0.52
aF0.846
aI0
aF-5.138
aF0.327
aF125.55
aF0.876
aa(lp2088
g2
(g3
(S'S9'
p2089
I0
I1
tp2090
Rp2091
(I3
S'|'
p2092
NNNI9
I1
I0
tp2093
bS'Unleashed'
p2094
tp2095
Rp2096
ag2
(g3
(S'S15'
p2097
I0
I1
tp2098
Rp2099
(I3
S'|'
p2100
NNNI15
I1
I0
tp2101
bS'Warren Barfield'
p2102
tp2103
Rp2104
ag2
(g22
S'\x9e\n\xfa\xc3\xd6\xdc\xe4?'
p2105
tp2106
Rp2107
ag2
(g22
S'U\xb7\x12\x97\t\xeb\xdb?'
p2108
tp2109
Rp2110
ag2
(g22
S'3\xf9f\x9b\x1b\x1ak@'
p2111
tp2112
Rp2113
ag2
(g22
S'\x00\x00\x00\x00\x00\x00\x00\x00'
p2114
tp2115
Rp2116
ag2
(g22
S'\xac\x1cZd;\xabj@'
p2117
tp2118
Rp2119
aF0.276
aF0.703
aF0.693
aI0
aF-6.274
aF0.0663
aF98.092
aF0.933
aa(lp2120
g2
(g3
(S'S16'
p2121
I0
I1
tp2122
Rp2123
(I3
S'|'
p2124
NNNI16
I1
I0
tp2125
bS'What is the best'
p2126
tp2127
Rp2128
ag2
(g3
(S'S10'
p2129
I0
I1
tp2130
Rp2131
(I3
S'|'
p2132
NNNI10
I1
I0
tp2133
bS'Jah Legacy'
p2134
tp2135
Rp2136
ag2
(g22
S'\xf8\x04U\x8e\xc4\x12\xdf?'
p2137
tp2138
Rp2139
ag2
(g22
S'\x00\x00\x00\x00\x00\x00\x00\x00'
p2140
tp2141
Rp2142
ag2
(g22
S'\xed\xf5\xee\x8fwcp@'
p2143
tp2144
Rp2145
ag2
(g22
S'L7\x89A`\xe5\xc0?'
p2146
tp2147
Rp2148
ag2
(g22
S'\xb0rh\x91\xed\x80o@'
p2149
tp2150
Rp2151
aF0.303
aF0.787
aF0.665
aF0.583
aF-8.146
aF0.0301
aF106.035
aF0.605
aa(lp2152
g2
(g3
(S'S12'
p2153
I0
I1
tp2154
Rp2155
(I3
S'|'
p2156
NNNI12
I1
I0
tp2157
bS'Corner Stone'
p2158
tp2159
Rp2160
ag2
(g3
(S'S10'
p2161
I0
I1
tp2162
Rp2163
(I3
S'|'
p2164
NNNI10
I1
I0
tp2165
bS'Bob Marley'
p2166
tp2167
Rp2168
ag2
(g22
S'[\xb2\xf4\x1c9\xec\xe8?'
p2169
tp2170
Rp2171
ag2
(g22
S'\x18#\x02\x03P>\xe2?'
p2172
tp2173
Rp2174
ag2
(g22
S'\x02Hm\xe2\xe4\xef`@'
p2175
tp2176
Rp2177
ag2
(g22
S'\x00\x00\x00\x00\x00\x00\x00\x00'
p2178
tp2179
Rp2180
ag2
(g22
S'\x91\xed|?5N`@'
p2181
tp2182
Rp2183
aF0.00132
aF0.883
aF0.409
aI0
aF-10.884
aF0.14
aF99.809
aF0.542
aa(lp2184
g2
(g3
(S'S10'
p2185
I0
I1
tp2186
Rp2187
(I3
S'|'
p2188
NNNI10
I1
I0
tp2189
bS'Cave It In'
p2190
tp2191
Rp2192
ag2
(g3
(S'S15'
p2193
I0
I1
tp2194
Rp2195
(I3
S'|'
p2196
NNNI15
I1
I0
tp2197
bS'Margaret Becker'
p2198
tp2199
Rp2200
ag2
(g22
S'\xe4\xa1\xb2\xddcW\xe1?'
p2201
tp2202
Rp2203
ag2
(g22
S'\xca\xe1\xde"\xb8\xdd\xd9?'
p2204
tp2205
Rp2206
ag2
(g22
S'\xe6\xcb\x0b\xb0\x0fLp@'
p2207
tp2208
Rp2209
ag2
(g22
S'\xb2\x9d\xef\xa7\xc6K\xe3?'
p2210
tp2211
Rp2212
ag2
(g22
S'\xe5\xd0"\xdb\xf9\xd6n@'
p2213
tp2214
Rp2215
aF0.0252
aF0.701
aF0.603
aF0.000151
aF-7.558
aF0.0439
aF121.138
aF0.593
aa(lp2216
g2
(g3
(S'S9'
p2217
I0
I1
tp2218
Rp2219
(I3
S'|'
p2220
NNNI9
I1
I0
tp2221
bS'Sally Ann'
p2222
tp2223
Rp2224
ag2
(g3
(S'S13'
p2225
I0
I1
tp2226
Rp2227
(I3
S'|'
p2228
NNNI13
I1
I0
tp2229
bS'The Cufflinks'
p2230
tp2231
Rp2232
ag2
(g22
S'\x9e\xa0Q\x15T\xce\xd9?'
p2233
tp2234
Rp2235
ag2
(g22
S'\xcd\xf3T\xb1|\x7f\xd9?'
p2236
tp2237
Rp2238
ag2
(g22
S'@\x87\xf9\xf2\x02\xe0d@'
p2239
tp2240
Rp2241
ag2
(g22
S'\x08\xac\x1cZd;\xdf?'
p2242
tp2243
Rp2244
ag2
(g22
S'\xcf\xf7S\xe3\xa5sc@'
p2245
tp2246
Rp2247
aF0.197
aF0.566
aF0.447
aI0
aF-15.773
aF0.0379
aF138.49
aF0.881
aa(lp2248
g2
(g3
(S'S37'
p2249
I0
I1
tp2250
Rp2251
(I3
S'|'
p2252
NNNI37
I1
I0
tp2253
bS"Bill's Speech - A New Kind of Warrior"
p2254
tp2255
Rp2256
ag2
(g3
(S'S10'
p2257
I0
I1
tp2258
Rp2259
(I3
S'|'
p2260
NNNI10
I1
I0
tp2261
bS'Rolfe Kent'
p2262
tp2263
Rp2264
ag2
(g22
S'yx\x84\x8d\xaf\x91\xe1?'
p2265
tp2266
Rp2267
ag2
(g22
S'\xd85\x0f\xc4C\x1b\xd8?'
p2268
tp2269
Rp2270
ag2
(g22
S'\xe7\xfb\xa9\xf1\xd2\x13Y@'
p2271
tp2272
Rp2273
ag2
(g22
S'F\xb6\xf3\xfd\xd4x\xd9?'
p2274
tp2275
Rp2276
ag2
(g22
S"V\x0e-\xb2\x9d'W@"
p2277
tp2278
Rp2279
aF0.601
aF0.268
aF0.0834
aF0.92
aF-25.995
aF0.0343
aF140.777
aF0.115
aa(lp2280
g2
(g3
(S'S29'
p2281
I0
I1
tp2282
Rp2283
(I3
S'|'
p2284
NNNI29
I1
I0
tp2285
bS'Villagers Galloping To Battle'
p2286
tp2287
Rp2288
ag2
(g3
(S'S15'
p2289
I0
I1
tp2290
Rp2291
(I3
S'|'
p2292
NNNI15
I1
I0
tp2293
bS'Dimitri Tiomkin'
p2294
tp2295
Rp2296
ag2
(g22
S'\xee\xd7\x0f\xbc\xa7]\xdb?'
p2297
tp2298
Rp2299
ag2
(g22
S'U\xae\xbd&\x8c\xa2\xd4?'
p2300
tp2301
Rp2302
ag2
(g22
S'\xa7y\xc7):\x18h@'
p2303
tp2304
Rp2305
ag2
(g22
S'V\x0e-\xb2\x9d\xef\xd7?'
p2306
tp2307
Rp2308
ag2
(g22
S'R\xb8\x1e\x85\xeb-g@'
p2309
tp2310
Rp2311
aF0.948
aF0.436
aF0.295
aF0.892
aF-13.035
aF0.0374
aF82.492
aF0.254
aa(lp2312
g2
(g3
(S'S7'
p2313
I0
I1
tp2314
Rp2315
(I3
S'|'
p2316
NNNI7
I1
I0
tp2317
bS'Vitrier'
p2318
tp2319
Rp2320
ag2
(g3
(S'S11'
p2321
I0
I1
tp2322
Rp2323
(I3
S'|'
p2324
NNNI11
I1
I0
tp2325
bS'Olivia Ruiz'
p2326
tp2327
Rp2328
ag2
(g22
S'\x16\xc53}\xe2\xe0\xe3?'
p2329
tp2330
Rp2331
ag2
(g22
S'\xf5fYx\x9b\xf5\xd7?'
p2332
tp2333
Rp2334
ag2
(g22
S'B>\xe8\xd9\xac\x9bo@'
p2335
tp2336
Rp2337
ag2
(g22
S'\x0c\x02+\x87\x16\xd9\xd6?'
p2338
tp2339
Rp2340
ag2
(g22
S'\x93\x18\x04V\x0e}n@'
p2341
tp2342
Rp2343
aF0.492
aF0.38
aF0.365
aF3.6e-06
aF-7.723
aF0.0534
aF158.394
aF0.42
aa(lp2344
g2
(g3
(S'S7'
p2345
I0
I1
tp2346
Rp2347
(I3
S'|'
p2348
NNNI7
I1
I0
tp2349
bS'Camelot'
p2350
tp2351
Rp2352
ag2
(g3
(S'S14'
p2353
I0
I1
tp2354
Rp2355
(I3
S'|'
p2356
NNNI14
I1
I0
tp2357
bS'Richard Burton'
p2358
tp2359
Rp2360
ag2
(g22
S'Z\x81\xceT8\xac\xdb?'
p2361
tp2362
Rp2363
ag2
(g22
S'\xbaj\x020\xd5-\xd2?'
p2364
tp2365
Rp2366
ag2
(g22
S'\x97\xad\xf5EB\xa9b@'
p2367
tp2368
Rp2369
ag2
(g22
S'\xf4\xfd\xd4x\xe9&\xb1?'
p2370
tp2371
Rp2372
ag2
(g22
S'=\n\xd7\xa3p5b@'
p2373
tp2374
Rp2375
aF0.864
aF0.716
aF0.287
aF5.41e-06
aF-14.017
aF0.041
aF112.8
aF0.583
aa(lp2376
g2
(g3
(S'S14'
p2377
I0
I1
tp2378
Rp2379
(I3
S'|'
p2380
NNNI14
I1
I0
tp2381
bS'Essaywhuman?!!'
p2382
tp2383
Rp2384
ag2
(g3
(S'S9'
p2385
I0
I1
tp2386
Rp2387
(I3
S'|'
p2388
NNNI9
I1
I0
tp2389
bS'The Roots'
p2390
tp2391
Rp2392
ag2
(g22
S'\x19\x19\xa6 \x05\x9c\xeb?'
p2393
tp2394
Rp2395
ag2
(g22
S'\x8e\xe2C\xa0\x835\xe3?'
p2396
tp2397
Rp2398
ag2
(g22
S'\xa3;\x88\x9d)\xb0s@'
p2399
tp2400
Rp2401
ag2
(g22
S'\x00\x00\x00\x00\x00\x00\x00\x00'
p2402
tp2403
Rp2404
ag2
(g22
S'\\\x8f\xc2\xf5(\xb0s@'
p2405
tp2406
Rp2407
aF0.0467
aF0.594
aF0.86
aI0
aF-8.505
aF0.655
aF171.066
aF0.579
aa(lp2408
g2
(g3
(S'S9'
p2409
I0
I1
tp2410
Rp2411
(I3
S'|'
p2412
NNNI9
I1
I0
tp2413
bS'Homegrown'
p2414
tp2415
Rp2416
ag2
(g3
(S'S12'
p2417
I0
I1
tp2418
Rp2419
(I3
S'|'
p2420
NNNI12
I1
I0
tp2421
bS'The Pharcyde'
p2422
tp2423
Rp2424
ag2
(g22
S'\xe5\xa2\xde\xdb\xac1\xe8?'
p2425
tp2426
Rp2427
ag2
(g22
S'\x94\x9fh\xe59t\xdf?'
p2428
tp2429
Rp2430
ag2
(g22
S',\x9a\xceN\x06Pa@'
p2431
tp2432
Rp2433
ag2
(g22
S'\x89A`\xe5\xd0"\xd3?'
p2434
tp2435
Rp2436
ag2
(g22
S'y\xe9&1\x08Pa@'
p2437
tp2438
Rp2439
aF0.886
aF0.621
aF0.775
aF1.43e-05
aF-7.689
aF0.174
aF93.132
aF0.742
aa(lp2440
g2
(g3
(S'S19'
p2441
I0
I1
tp2442
Rp2443
(I3
S'|'
p2444
NNNI19
I1
I0
tp2445
bS'When I Think Of You'
p2446
tp2447
Rp2448
ag2
(g3
(S'S13'
p2449
I0
I1
tp2450
Rp2451
(I3
S'|'
p2452
NNNI13
I1
I0
tp2453
bS'Janet Jackson'
p2454
tp2455
Rp2456
ag2
(g22
S'\x11\xb2\xdc\x01\x08\xb9\xe9?'
p2457
tp2458
Rp2459
ag2
(g22
S'\x84\xe7\xe0\tu\xa4\xe2?'
p2460
tp2461
Rp2462
ag2
(g22
S'\x17\xbc\xe8+Hmm@'
p2463
tp2464
Rp2465
ag2
(g22
S'\x00\x00\x00\x00\x00\x00\x00\x00'
p2466
tp2467
Rp2468
ag2
(g22
S'\xb8\x1e\x85\xebQ\x94l@'
p2469
tp2470
Rp2471
aF0.0894
aF0.771
aF0.623
aF0.0263
aF-11.448
aF0.0416
aF116.218
aF0.697
aa(lp2472
g2
(g3
(S'S8'
p2473
I0
I1
tp2474
Rp2475
(I3
S'|'
p2476
NNNI8
I1
I0
tp2477
bS'Metanoia'
p2478
tp2479
Rp2480
ag2
(g3
(S'S9'
p2481
I0
I1
tp2482
Rp2483
(I3
S'|'
p2484
NNNI9
I1
I0
tp2485
bS'Rick Snel'
p2486
tp2487
Rp2488
ag2
(g22
S"\xa8\x10,\xfe\xb9'\xd9?"
p2489
tp2490
Rp2491
ag2
(g22
S'\x8d\xe36\x88\xabf\xcc?'
p2492
tp2493
Rp2494
ag2
(g22
S'\x9f\xe5yp\xf7\x1f}@'
p2495
tp2496
Rp2497
ag2
(g22
S'\x00\x00\x00\x00\x00\x00\x00\x00'
p2498
tp2499
Rp2500
ag2
(g22
S'}?5^\xba\xd1|@'
p2501
tp2502
Rp2503
aF0.000113
aF0.565
aF0.846
aF0.756
aF-9.695
aF0.0502
aF133.004
aF0.481
aa(lp2504
g2
(g3
(S'S9'
p2505
I0
I1
tp2506
Rp2507
(I3
S'|'
p2508
NNNI9
I1
I0
tp2509
bS'Stay Real'
p2510
tp2511
Rp2512
ag2
(g3
(S'S12'
p2513
I0
I1
tp2514
Rp2515
(I3
S'|'
p2516
NNNI12
I1
I0
tp2517
bS'Erick Sermon'
p2518
tp2519
Rp2520
ag2
(g22
S'\xa4R\xd5\xcf\xc2~\xe2?'
p2521
tp2522
Rp2523
ag2
(g22
S'\x06Njp\xd4\x92\xd7?'
p2524
tp2525
Rp2526
ag2
(g22
S"aTR'\xa0pm@"
p2527
tp2528
Rp2529
ag2
(g22
S'#\xdb\xf9~j\xbc\xb4?'
p2530
tp2531
Rp2532
ag2
(g22
S'\xf2\xd2Mb\x10\\k@'
p2533
tp2534
Rp2535
aF0.00878
aF0.792
aF0.759
aF0.00434
aF-9.216
aF0.223
aF97.628
aF0.546
aa(lp2536
g2
(g3
(S'S14'
p2537
I0
I1
tp2538
Rp2539
(I3
S'|'
p2540
NNNI14
I1
I0
tp2541
bS'Ulcer Breakout'
p2542
tp2543
Rp2544
ag2
(g3
(S'S16'
p2545
I0
I1
tp2546
Rp2547
(I3
S'|'
p2548
NNNI16
I1
I0
tp2549
bS'Butthole Surfers'
p2550
tp2551
Rp2552
ag2
(g22
S'\x8f-\xda\x02\xfb\xe5\xe9?'
p2553
tp2554
Rp2555
ag2
(g22
S'8\xb3\xf5\x92\xb7;\xdf?'
p2556
tp2557
Rp2558
ag2
(g22
S'\x13\xb8u7O[c@'
p2559
tp2560
Rp2561
ag2
(g22
S'R\xb8\x1e\x85\xebQ\xd8?'
p2562
tp2563
Rp2564
ag2
(g22
S'\x00\x00\x00\x00\x00\xaca@'
p2565
tp2566
Rp2567
aF0.00535
aF0.275
aF0.992
aF0.00342
aF-3.283
aF0.135
aF121.52
aF0.468
aa(lp2568
g2
(g3
(S'S23'
p2569
I0
I1
tp2570
Rp2571
(I3
S'|'
p2572
NNNI23
I1
I0
tp2573
bS'Porque Me Gusta A Morir'
p2574
tp2575
Rp2576
ag2
(g3
(S'S14'
p2577
I0
I1
tp2578
Rp2579
(I3
S'|'
p2580
NNNI14
I1
I0
tp2581
bS'Isabel Pantoja'
p2582
tp2583
Rp2584
ag2
(g22
S'\xa2X\xc4\xfc\xf6\xc0\xdf?'
p2585
tp2586
Rp2587
ag2
(g22
S'\xb2\x98M\xd5\xb0C\xd7?'
p2588
tp2589
Rp2590
ag2
(g22
S'\x82\xff\xadd\xc7\xd5s@'
p2591
tp2592
Rp2593
ag2
(g22
S'-\xb2\x9d\xef\xa7\xc6\xe3?'
p2594
tp2595
Rp2596
ag2
(g22
S'Nb\x10X9\xb8r@'
p2597
tp2598
Rp2599
aF0.645
aF0.593
aF0.413
aF7.84e-05
aF-12.309
aF0.0358
aF82.005
aF0.243
aa(lp2600
g2
(g3
(S'S10'
p2601
I0
I1
tp2602
Rp2603
(I3
S'|'
p2604
NNNI10
I1
I0
tp2605
bS'Rio Grnade'
p2606
tp2607
Rp2608
ag2
(g3
(S'S13'
p2609
I0
I1
tp2610
Rp2611
(I3
S'|'
p2612
NNNI13
I1
I0
tp2613
bS'Chanta Vielma'
p2614
tp2615
Rp2616
ag2
(g22
S'_\xf8__y\xc7\xc7?'
p2617
tp2618
Rp2619
ag2
(g22
S'\x00\x00\x00\x00\x00\x00\x00\x00'
p2620
tp2621
Rp2622
ag2
(g22
S'\xb2\xba\xd5s\xd2\x87n@'
p2623
tp2624
Rp2625
ag2
(g22
S'\x00\x00\x00\x00\x00\x00\x00\x00'
p2626
tp2627
Rp2628
ag2
(g22
S'{\x14\xaeG\xe1\xf2l@'
p2629
tp2630
Rp2631
aF0.949
aF0.671
aF0.149
aF2.51e-05
aF-10.817
aF0.0622
aF122.951
aF0.501
aa(lp2632
g2
(g3
(S'S5'
p2633
I0
I1
tp2634
Rp2635
(I3
S'|'
p2636
NNNI5
I1
I0
tp2637
bS'Intro'
p2638
tp2639
Rp2640
ag2
(g3
(S'S7'
p2641
I0
I1
tp2642
Rp2643
(I3
S'|'
p2644
NNNI7
I1
I0
tp2645
bS'Papoose'
p2646
tp2647
Rp2648
ag2
(g22
S'\xf0\x11!\xc2\x15\xb8\xe8?'
p2649
tp2650
Rp2651
ag2
(g22
S'\xdc\x00#\xb4\xa2/\xdc?'
p2652
tp2653
Rp2654
ag2
(g22
S'\x87\xfe\t.V<G@'
p2655
tp2656
Rp2657
ag2
(g22
S'\xcf\xf7S\xe3\xa5\x9b\xd4?'
p2658
tp2659
Rp2660
ag2
(g22
S'\x8f\xc2\xf5(\\_D@'
p2661
tp2662
Rp2663
aF0.887
aF0.7
aF0.564
aI0
aF-6.406
aF0.534
aF65.173
aF0.6
aa(lp2664
g2
(g3
(S'S18'
p2665
I0
I1
tp2666
Rp2667
(I3
S'|'
p2668
NNNI18
I1
I0
tp2669
bS'Dime Si Me Quieres'
p2670
tp2671
Rp2672
ag2
(g3
(S'S12'
p2673
I0
I1
tp2674
Rp2675
(I3
S'|'
p2676
NNNI12
I1
I0
tp2677
bS'Andy & Lucas'
p2678
tp2679
Rp2680
ag2
(g22
S'\x8eu5\xa3l8\xe1?'
p2681
tp2682
Rp2683
ag2
(g22
S'\x04U\x13\xf8\xf3\x9f\xd9?'
p2684
tp2685
Rp2686
ag2
(g22
S'\xdb\x16e6\xc8\xb0j@'
p2687
tp2688
Rp2689
ag2
(g22
S'F\xb6\xf3\xfd\xd4x\xc9?'
p2690
tp2691
Rp2692
ag2
(g22
S'\x1b/\xdd$\x06\xb9h@'
p2693
tp2694
Rp2695
aF0.766
aF0.24
aF0.598
aI0
aF-8.435
aF0.037
aF202.082
aF0.776
aa(lp2696
g2
(g3
(S'S15'
p2697
I0
I1
tp2698
Rp2699
(I3
S'|'
p2700
NNNI15
I1
I0
tp2701
bS'Oso Ego Kanenas'
p2702
tp2703
Rp2704
ag2
(g3
(S'S20'
p2705
I0
I1
tp2706
Rp2707
(I3
S'|'
p2708
NNNI20
I1
I0
tp2709
bS'Konstantinos Galanos'
p2710
tp2711
Rp2712
ag2
(g22
S'< \x9bKZ*\xd1?'
p2713
tp2714
Rp2715
ag2
(g22
S'\x1d\xf9-\xa7Z\xcf\xd0?'
p2716
tp2717
Rp2718
ag2
(g22
S'%u\x02\x9a\x08^r@'
p2719
tp2720
Rp2721
ag2
(g22
S'X9\xb4\xc8v\xbe\x01@'
p2722
tp2723
Rp2724
ag2
(g22
S'{\x14\xaeG\xe1\x8cq@'
p2725
tp2726
Rp2727
aF0.146
aF0.435
aF0.729
aI0
aF-4.175
aF0.0423
aF136.406
aF0.397
aa(lp2728
g2
(g3
(S'S23'
p2729
I0
I1
tp2730
Rp2731
(I3
S'|'
p2732
NNNI23
I1
I0
tp2733
bS'Monsters In Tinsel Town'
p2734
tp2735
Rp2736
ag2
(g3
(S'S10'
p2737
I0
I1
tp2738
Rp2739
(I3
S'|'
p2740
NNNI10
I1
I0
tp2741
bS'Astrovamps'
p2742
tp2743
Rp2744
ag2
(g22
S'\x16\x13\xde\xadKi\xe1?'
p2745
tp2746
Rp2747
ag2
(g22
S'\xae\x80\x1f\x11_U\xd9?'
p2748
tp2749
Rp2750
ag2
(g22
S'\xf5\x84%\x1ePwm@'
p2751
tp2752
Rp2753
ag2
(g22
S'\x00\x00\x00\x00\x00\x00\x00\x00'
p2754
tp2755
Rp2756
ag2
(g22
S'\xa2E\xb6\xf3\xfd\x08m@'
p2757
tp2758
Rp2759
aF0.00106
aF0.266
aF0.896
aF0.0438
aF-7.33
aF0.0686
aF146.222
aF0.438
aa(lp2760
g2
(g3
(S'S22'
p2761
I0
I1
tp2762
Rp2763
(I3
S'|'
p2764
NNNI22
I1
I0
tp2765
bS'Did You Ever Go Steady'
p2766
tp2767
Rp2768
ag2
(g3
(S'S12'
p2769
I0
I1
tp2770
Rp2771
(I3
S'|'
p2772
NNNI12
I1
I0
tp2773
bS'THE CHIFFONS'
p2774
tp2775
Rp2776
ag2
(g22
S'c\x8d\\,g/\xe3?'
p2777
tp2778
Rp2779
ag2
(g22
S'\x17\xc2\x1a\xf9\x8e~\xd9?'
p2780
tp2781
Rp2782
ag2
(g22
S'\xaa\xf1\xd2MbXa@'
p2783
tp2784
Rp2785
ag2
(g22
S'\x06\x81\x95C\x8bl\xc7?'
p2786
tp2787
Rp2788
ag2
(g22
S'\xd5x\xe9&1p`@'
p2789
tp2790
Rp2791
aF0.796
aF0.385
aF0.514
aI0
aF-4.784
aF0.0348
aF122.923
aF0.687
aa(lp2792
g2
(g3
(S'S13'
p2793
I0
I1
tp2794
Rp2795
(I3
S'|'
p2796
NNNI13
I1
I0
tp2797
bS"I'm Wanderin'"
p2798
tp2799
Rp2800
ag2
(g3
(S'S13'
p2801
I0
I1
tp2802
Rp2803
(I3
S'|'
p2804
NNNI13
I1
I0
tp2805
bS'Jackie Wilson'
p2806
tp2807
Rp2808
ag2
(g22
S'.Ff(\xbe/\xe6?'
p2809
tp2810
Rp2811
ag2
(g22
S'\xbc\xf6q>\x95\xd7\xda?'
p2812
tp2813
Rp2814
ag2
(g22
S'W\xb2c#\x10\x19d@'
p2815
tp2816
Rp2817
ag2
(g22
S'\x00\x00\x00\x00\x00\x00\x00\x00'
p2818
tp2819
Rp2820
ag2
(g22
S'\\\x8f\xc2\xf5(\x94c@'
p2821
tp2822
Rp2823
aF0.827
aF0.465
aF0.342
aI0
aF-9.549
aF0.0301
aF108.041
aF0.516
aa(lp2824
g2
(g3
(S'S4'
p2825
I0
I1
tp2826
Rp2827
(I3
S'|'
p2828
NNNI4
I1
I0
tp2829
bS'8:00'
p2830
tp2831
Rp2832
ag2
(g3
(S'S14'
p2833
I0
I1
tp2834
Rp2835
(I3
S'|'
p2836
NNNI14
I1
I0
tp2837
bS'Intars Busulis'
p2838
tp2839
Rp2840
ag2
(g22
S'\xf4\xf9\x88.\x9b*\xda?'
p2841
tp2842
Rp2843
ag2
(g22
S'\x0f\xc00\xde\x0e\xb2\xd5?'
p2844
tp2845
Rp2846
ag2
(g22
S'\xf3<\xb8;k\x05j@'
p2847
tp2848
Rp2849
ag2
(g22
S'\x17\xd9\xce\xf7S\xe3\xc5?'
p2850
tp2851
Rp2852
ag2
(g22
S'?5^\xbaI\\i@'
p2853
tp2854
Rp2855
aF0.106
aF0.792
aF0.926
aI0
aF-2.806
aF0.0776
aF139.955
aF0.827
aa(lp2856
g2
(g3
(S'S3'
p2857
I0
I1
tp2858
Rp2859
(I3
S'|'
p2860
NNNI3
I1
I0
tp2861
bS'Jap'
p2862
tp2863
Rp2864
ag2
(g3
(S'S9'
p2865
I0
I1
tp2866
Rp2867
(I3
S'|'
p2868
NNNI9
I1
I0
tp2869
bS'Sao Paris'
p2870
tp2871
Rp2872
ag2
(g22
S'\x15I)\xa4\x08&\xd9?'
p2873
tp2874
Rp2875
ag2
(g22
S'\x1c\xb8B\x8a\x81\xc3\xcb?'
p2876
tp2877
Rp2878
ag2
(g22
S'`\x02\xb7\xee\xe6vq@'
p2879
tp2880
Rp2881
ag2
(g22
S'\xe9&1\x08\xac\x1c"@'
p2882
tp2883
Rp2884
ag2
(g22
S'+\x87\x16\xd9\xce\xbbp@'
p2885
tp2886
Rp2887
aF0.524
aF0.536
aF0.476
aF0.543
aF-12.062
aF0.0452
aF130.038
aF0.108
aa(lp2888
g2
(g3
(S'S14'
p2889
I0
I1
tp2890
Rp2891
(I3
S'|'
p2892
NNNI14
I1
I0
tp2893
bS'Swing Vagabond'
p2894
tp2895
Rp2896
ag2
(g3
(S'S12'
p2897
I0
I1
tp2898
Rp2899
(I3
S'|'
p2900
NNNI12
I1
I0
tp2901
bS'Quadro Nuevo'
p2902
tp2903
Rp2904
ag2
(g22
S'\xf9m\x04Y\xf1\xf5\xe0?'
p2905
tp2906
Rp2907
ag2
(g22
S'N\xd2\xbal\x101\xda?'
p2908
tp2909
Rp2910
ag2
(g22
S'\xd5\xcf\x9b\x8a\xd4\x0eq@'
p2911
tp2912
Rp2913
ag2
(g22
S'\x00\x00\x00\x00\x00\x00\x00\x00'
p2914
tp2915
Rp2916
ag2
(g22
S'Nb\x10X9\x82p@'
p2917
tp2918
Rp2919
aF0.929
aF0.718
aF0.373
aF0.934
aF-10.135
aF0.0815
aF104.778
aF0.743
aa(lp2920
g2
(g3
(S'S25'
p2921
I0
I1
tp2922
Rp2923
(I3
S'|'
p2924
NNNI25
I1
I0
tp2925
bS"Little Miss Teasin' Brown"
p2926
tp2927
Rp2928
ag2
(g3
(S'S12'
p2929
I0
I1
tp2930
Rp2931
(I3
S'|'
p2932
NNNI12
I1
I0
tp2933
bS'Jimmy Nelson'
p2934
tp2935
Rp2936
ag2
(g22
S'\x84\xfeI\xaf\xde\x87\xd6?'
p2937
tp2938
Rp2939
ag2
(g22
S'\x15;\xdcC\x0bH\xc9?'
p2940
tp2941
Rp2942
ag2
(g22
S'.\x1c\x08\xc9\x02Yf@'
p2943
tp2944
Rp2945
ag2
(g22
S'\x8bl\xe7\xfb\xa9\xf1\xc2?'
p2946
tp2947
Rp2948
ag2
(g22
S'B`\xe5\xd0"\xbbe@'
p2949
tp2950
Rp2951
aF0.982
aF0.419
aF0.444
aF0.0649
aF-6.226
aF0.033
aF71.35
aF0.67
aa(lp2952
g2
(g3
(S'S16'
p2953
I0
I1
tp2954
Rp2955
(I3
S'|'
p2956
NNNI16
I1
I0
tp2957
bS'Transes-Dimanche'
p2958
tp2959
Rp2960
ag2
(g3
(S'S15'
p2961
I0
I1
tp2962
Rp2963
(I3
S'|'
p2964
NNNI15
I1
I0
tp2965
bS'Jacques Dutronc'
p2966
tp2967
Rp2968
ag2
(g22
S'u\xfa\xed\xeeO\x9d\xe3?'
p2969
tp2970
Rp2971
ag2
(g22
S'\x8ae\x17\x087\x17\xdd?'
p2972
tp2973
Rp2974
ag2
(g22
S'~\x18!<\xda\n`@'
p2975
tp2976
Rp2977
ag2
(g22
S'\xe5\xd0"\xdb\xf9~\x0b@'
p2978
tp2979
Rp2980
ag2
(g22
S'\xa0\x1a/\xdd$\x96^@'
p2981
tp2982
Rp2983
aF0.44
aF0.623
aF0.64
aF1.89e-06
aF-8.466
aF0.0379
aF137.186
aF0.856
aa(lp2984
g2
(g3
(S'S7'
p2985
I0
I1
tp2986
Rp2987
(I3
S'|'
p2988
NNNI7
I1
I0
tp2989
bS'Hunting'
p2990
tp2991
Rp2992
ag2
(g3
(S'S11'
p2993
I0
I1
tp2994
Rp2995
(I3
S'|'
p2996
NNNI11
I1
I0
tp2997
bS'Deep Forest'
p2998
tp2999
Rp3000
ag2
(g22
S'\xa0\xdb\x9c\xe4\xe4@\xe6?'
p3001
tp3002
Rp3003
ag2
(g22
S",\xd9~\xb0\x87'\xdd?"
p3004
tp3005
Rp3006
ag2
(g22
S'\xea!\x1a\xddA\xdcx@'
p3007
tp3008
Rp3009
ag2
(g22
S'\x00\x00\x00\x00\x00\x00\x00\x00'
p3010
tp3011
Rp3012
ag2
(g22
S'\xc7K7\x89A\xdcx@'
p3013
tp3014
Rp3015
aF0.00352
aF0.721
aF0.719
aF0.551
aF-13.07
aF0.0423
aF130.016
aF0.94
aa(lp3016
g2
(g3
(S'S17'
p3017
I0
I1
tp3018
Rp3019
(I3
S'|'
p3020
NNNI17
I1
I0
tp3021
bS'No Answer (Outro)'
p3022
tp3023
Rp3024
ag2
(g3
(S'S18'
p3025
I0
I1
tp3026
Rp3027
(I3
S'|'
p3028
NNNI18
I1
I0
tp3029
bS'Lollipop Lust Kill'
p3030
tp3031
Rp3032
ag2
(g22
S'\x91\xd8}\xaa\xb2k\xe2?'
p3033
tp3034
Rp3035
ag2
(g22
S'\xdcTN`\xc3\x94\xd8?'
p3036
tp3037
Rp3038
ag2
(g22
S'$\xb9\xfc\x87\xf4|j@'
p3039
tp3040
Rp3041
ag2
(g22
S'\x0c\x02+\x87\x16\xd9\xd6?'
p3042
tp3043
Rp3044
ag2
(g22
S'\xfe\xd4x\xe9&\x95h@'
p3045
tp3046
Rp3047
aF0.987
aF0.284
aF0.454
aF0.399
aF-15.335
aF0.124
aF119.944
aF0.0354
aa(lp3048
g2
(g3
(S'S9'
p3049
I0
I1
tp3050
Rp3051
(I3
S'|'
p3052
NNNI9
I1
I0
tp3053
bS'Not Today'
p3054
tp3055
Rp3056
ag2
(g3
(S'S7'
p3057
I0
I1
tp3058
Rp3059
(I3
S'|'
p3060
NNNI7
I1
I0
tp3061
bS'Hotwire'
p3062
tp3063
Rp3064
ag2
(g22
S'S\xb5\x0f\x12\xcd+\xe4?'
p3065
tp3066
Rp3067
ag2
(g22
S'\xea\x80\x01J\x04>\xd7?'
p3068
tp3069
Rp3070
ag2
(g22
S'R\n\xba\xbd\xa4\ni@'
p3071
tp3072
Rp3073
ag2
(g22
S'\x14\xaeG\xe1z\x14\xd6?'
p3074
tp3075
Rp3076
ag2
(g22
S'\xee|?5^vg@'
p3077
tp3078
Rp3079
aF4.51e-05
aF0.377
aF0.982
aF0.00356
aF-4.427
aF0.245
aF142.147
aF0.309
aa(lp3080
g2
(g3
(S'S12'
p3081
I0
I1
tp3082
Rp3083
(I3
S'|'
p3084
NNNI12
I1
I0
tp3085
bS'Last Goodbye'
p3086
tp3087
Rp3088
ag2
(g3
(S'S8'
p3089
I0
I1
tp3090
Rp3091
(I3
S'|'
p3092
NNNI8
I1
I0
tp3093
bS'The Gufs'
p3094
tp3095
Rp3096
ag2
(g22
S'\xbbq\xbc^\xf6\xf8\xe0?'
p3097
tp3098
Rp3099
ag2
(g22
S'\x8e.|\xc3\xc4 \xd4?'
p3100
tp3101
Rp3102
ag2
(g22
S'\xbf\xd4\xcf\x9b\x8a\x1fm@'
p3103
tp3104
Rp3105
ag2
(g22
S'\x14\xaeG\xe1z\x14\xd6?'
p3106
tp3107
Rp3108
ag2
(g22
S'\x98n\x12\x83\xc0bk@'
p3109
tp3110
Rp3111
aF0.00281
aF0.416
aF0.773
aF0.00119
aF-4.631
aF0.032
aF166.04
aF0.578
aa(lp3112
g2
(g3
(S'S14'
p3113
I0
I1
tp3114
Rp3115
(I3
S'|'
p3116
NNNI14
I1
I0
tp3117
bS"That's A Woman"
p3118
tp3119
Rp3120
ag2
(g3
(S'S10'
p3121
I0
I1
tp3122
Rp3123
(I3
S'|'
p3124
NNNI10
I1
I0
tp3125
bS'Mark Wills'
p3126
tp3127
Rp3128
ag2
(g22
S'v\xc3\r\xe9\xd4\xc0\xe5?'
p3129
tp3130
Rp3131
ag2
(g22
S'Z\x05\xfb\xe1\x0c\xea\xde?'
p3132
tp3133
Rp3134
ag2
(g22
S'^\xd7/\xd8\rLd@'
p3135
tp3136
Rp3137
ag2
(g22
S'\x81\x95C\x8bl\xe7\xcb?'
p3138
tp3139
Rp3140
ag2
(g22
S'\xdb\xf9~j\xbc\x9cb@'
p3141
tp3142
Rp3143
aF0.377
aF0.34
aF0.355
aF5.26e-06
aF-8.831
aF0.0334
aF133.467
aF0.164
aa(lp3144
g2
(g3
(S'S3'
p3145
I0
I1
tp3146
Rp3147
(I3
S'|'
p3148
NNNI3
I1
I0
tp3149
bS'Try'
p3150
tp3151
Rp3152
ag2
(g3
(S'S4'
p3153
I0
I1
tp3154
Rp3155
(I3
S'|'
p3156
NNNI4
I1
I0
tp3157
bS'Tree'
p3158
tp3159
Rp3160
ag2
(g22
S'\x9a\xb6!\x04\x9a\x93\xe2?'
p3161
tp3162
Rp3163
ag2
(g22
S'/\xc0g\xe7\xf5S\xd4?'
p3164
tp3165
Rp3166
ag2
(g22
S'\xd4HK\xe5\xed\x9ce@'
p3167
tp3168
Rp3169
ag2
(g22
S'%\x06\x81\x95C\x8b\xcc?'
p3170
tp3171
Rp3172
ag2
(g22
S'\xbe\x9f\x1a/\xdd\xe8d@'
p3173
tp3174
Rp3175
aF0.637
aF0.315
aF0.0203
aF0.919
aF-24.413
aF0.044
aF122.567
aF0.0579
aa(lp3176
g2
(g3
(S'S17'
p3177
I0
I1
tp3178
Rp3179
(I3
S'|'
p3180
NNNI17
I1
I0
tp3181
bS'The Space Between'
p3182
tp3183
Rp3184
ag2
(g3
(S'S18'
p3185
I0
I1
tp3186
Rp3187
(I3
S'|'
p3188
NNNI18
I1
I0
tp3189
bS'DAVE MATTHEWS BAND'
p3190
tp3191
Rp3192
ag2
(g22
S'\xe1\x7fR\xe8\x00\xfb\xe9?'
p3193
tp3194
Rp3195
ag2
(g22
S'\xa5\xd1\xc35\xed\n\xe5?'
p3196
tp3197
Rp3198
ag2
(g22
S'\xdb\xdc\x98\x9e\xb0Zr@'
p3199
tp3200
Rp3201
ag2
(g22
S'\x02+\x87\x16\xd9\xce\x02@'
p3202
tp3203
Rp3204
ag2
(g22
S'\xee|?5^\xcaq@'
p3205
tp3206
Rp3207
aF0.0471
aF0.406
aF0.73
aI0
aF-6.278
aF0.0315
aF170.032
aF0.207
aa(lp3208
g2
(g3
(S'S13'
p3209
I0
I1
tp3210
Rp3211
(I3
S'|'
p3212
NNNI13
I1
I0
tp3213
bS"Still Hurtin'"
p3214
tp3215
Rp3216
ag2
(g3
(S'S12'
p3217
I0
I1
tp3218
Rp3219
(I3
S'|'
p3220
NNNI12
I1
I0
tp3221
bS'George Jones'
p3222
tp3223
Rp3224
ag2
(g22
S'\xfb\xf3\xea\x16U^\xe7?'
p3225
tp3226
Rp3227
ag2
(g22
S'\x1e\\Q*\xd5\xac\xdd?'
p3228
tp3229
Rp3230
ag2
(g22
S'\xdf\xa6?\xfb\x91\x12_@'
p3231
tp3232
Rp3233
ag2
(g22
S'\xa2E\xb6\xf3\xfd\xd4\xc8?'
p3234
tp3235
Rp3236
ag2
(g22
S'H\xe1z\x14\xae\x87]@'
p3237
tp3238
Rp3239
aF0.725
aF0.557
aF0.322
aF1.37e-06
aF-12.612
aF0.0248
aF83.941
aF0.237
aa(lp3240
g2
(g3
(S'S19'
p3241
I0
I1
tp3242
Rp3243
(I3
S'|'
p3244
NNNI19
I1
I0
tp3245
bS"She's Taken A Shine"
p3246
tp3247
Rp3248
ag2
(g3
(S'S10'
p3249
I0
I1
tp3250
Rp3251
(I3
S'|'
p3252
NNNI10
I1
I0
tp3253
bS'John Berry'
p3254
tp3255
Rp3256
ag2
(g22
S'\xcb\xd0qK\xc9\x1c\xe2?'
p3257
tp3258
Rp3259
ag2
(g22
S'\xf3\x8a2\x97o\xae\xdd?'
p3260
tp3261
Rp3262
ag2
(g22
S'w\xf8k\xb2F\xbck@'
p3263
tp3264
Rp3265
ag2
(g22
S'\x9a\x99\x99\x99\x99\x99\xf1?'
p3266
tp3267
Rp3268
ag2
(g22
S'1\x08\xac\x1cZ\x9cj@'
p3269
tp3270
Rp3271
aF0.141
aF0.708
aF0.837
aI0
aF-3.892
aF0.0306
aF118.045
aF0.698
aa(lp3272
g2
(g3
(S'S35'
p3273
I0
I1
tp3274
Rp3275
(I3
S'|'
p3276
NNNI35
I1
I0
tp3277
bS'Bach Suite No. 1 In G Major (Gigue)'
p3278
tp3279
Rp3280
ag2
(g3
(S'S13'
p3281
I0
I1
tp3282
Rp3283
(I3
S'|'
p3284
NNNI13
I1
I0
tp3285
bS'John Williams'
p3286
tp3287
Rp3288
ag2
(g22
S'\xaa\xad\xf3v\xb7\x91\xe6?'
p3289
tp3290
Rp3291
ag2
(g22
S'\xa7\x93\xb6\x92\xb4\x8d\xe0?'
p3292
tp3293
Rp3294
ag2
(g22
S'y;\xc2i\xc1\xc7\\@'
p3295
tp3296
Rp3297
ag2
(g22
S'\xf2\xd2Mb\x10X\xe9?'
p3298
tp3299
Rp3300
ag2
(g22
S'L7\x89A`mZ@'
p3301
tp3302
Rp3303
aF0.991
aF0.594
aF0.124
aF0.888
aF-25.738
aF0.0587
aF119.081
aF0.898
aa(lp3304
g2
(g3
(S'S8'
p3305
I0
I1
tp3306
Rp3307
(I3
S'|'
p3308
NNNI8
I1
I0
tp3309
bS'The Rock'
p3310
tp3311
Rp3312
ag2
(g3
(S'S6'
p3313
I0
I1
tp3314
Rp3315
(I3
S'|'
p3316
NNNI6
I1
I0
tp3317
bS'Abijah'
p3318
tp3319
Rp3320
ag2
(g22
S'7}~\x98?$\xe0?'
p3321
tp3322
Rp3323
ag2
(g22
S'\xa8\xady\xb9\xd3y\xd3?'
p3324
tp3325
Rp3326
ag2
(g22
S'2=a\x89\x07\xbbq@'
p3327
tp3328
Rp3329
ag2
(g22
S'\x00\x00\x00\x00\x00\x00\x00\x00'
p3330
tp3331
Rp3332
ag2
(g22
S'u\x93\x18\x04V\x0cq@'
p3333
tp3334
Rp3335
aF0.396
aF0.596
aF0.661
aF1.19e-05
aF-9.54
aF0.103
aF118.678
aF0.738
aa(lp3336
g2
(g3
(S'S8'
p3337
I0
I1
tp3338
Rp3339
(I3
S'|'
p3340
NNNI8
I1
I0
tp3341
bS'Undertow'
p3342
tp3343
Rp3344
ag2
(g3
(S'S14'
p3345
I0
I1
tp3346
Rp3347
(I3
S'|'
p3348
NNNI14
I1
I0
tp3349
bS'Agnostic Front'
p3350
tp3351
Rp3352
ag2
(g22
S'\x06\x1a\xdc\xfc5r\xe6?'
p3353
tp3354
Rp3355
ag2
(g22
S'\xcf\xda\xc6\xf4I#\xe0?'
p3356
tp3357
Rp3358
ag2
(g22
S'\x0c\xe5D\xbb\ncf@'
p3359
tp3360
Rp3361
ag2
(g22
S'\x00\x00\x00\x00\x00\x00\x00\x00'
p3362
tp3363
Rp3364
ag2
(g22
S'\xd7\xa3p=\ncf@'
p3365
tp3366
Rp3367
aF0.000252
aF0.319
aF0.775
aF0.239
aF-11.601
aF0.0591
aF107.264
aF0.169
aa(lp3368
g2
(g3
(S'S13'
p3369
I0
I1
tp3370
Rp3371
(I3
S'|'
p3372
NNNI13
I1
I0
tp3373
bS'Death Or Jail'
p3374
tp3375
Rp3376
ag2
(g3
(S'S14'
p3377
I0
I1
tp3378
Rp3379
(I3
S'|'
p3380
NNNI14
I1
I0
tp3381
bS'Sick Of It All'
p3382
tp3383
Rp3384
ag2
(g22
S'\x1a^\xf9;\x9c\x19\xe6?'
p3385
tp3386
Rp3387
ag2
(g22
S'X\xa6n\xe1j\xee\xda?'
p3388
tp3389
Rp3390
ag2
(g22
S'\xff\x04\x17+jbe@'
p3391
tp3392
Rp3393
ag2
(g22
S'1\x08\xac\x1cZd\xbb?'
p3394
tp3395
Rp3396
ag2
(g22
S'\xc9v\xbe\x9f\x1a\x0fe@'
p3397
tp3398
Rp3399
aF2.6e-05
aF0.268
aF0.997
aF0.0997
aF-2.274
aF0.156
aF112.602
aF0.131
aa(lp3400
g2
(g3
(S'S27'
p3401
I0
I1
tp3402
Rp3403
(I3
S'|'
p3404
NNNI27
I1
I0
tp3405
bS"Don't Make Me Wait For Love"
p3406
tp3407
Rp3408
ag2
(g3
(S'S7'
p3409
I0
I1
tp3410
Rp3411
(I3
S'|'
p3412
NNNI7
I1
I0
tp3413
bS'Kenny G'
p3414
tp3415
Rp3416
ag2
(g22
S'\x06\x15^\x83Y\r\xe8?'
p3417
tp3418
Rp3419
ag2
(g22
S'V\xfa\xe8_W\x9b\xe1?'
p3420
tp3421
Rp3422
ag2
(g22
S'`\xc8\xeaV\xcf\xdfq@'
p3423
tp3424
Rp3425
ag2
(g22
S'd;\xdfO\x8d\x97\t@'
p3426
tp3427
Rp3428
ag2
(g22
S'?5^\xbaI\x0eq@'
p3429
tp3430
Rp3431
aF0.498
aF0.508
aF0.616
aF0.000131
aF-6.395
aF0.0293
aF84.248
aF0.428
aa(lp3432
g2
(g3
(S'S78'
p3433
I0
I1
tp3434
Rp3435
(I3
S'|'
p3436
NNNI78
I1
I0
tp3437
bS"Brendan McGlinchey's Reel (Splendid Isolation) / Sweeney's Buttermilk (medley)"
p3438
tp3439
Rp3440
ag2
(g3
(S'S11'
p3441
I0
I1
tp3442
Rp3443
(I3
S'|'
p3444
NNNI11
I1
I0
tp3445
bS'Kevin Burke'
p3446
tp3447
Rp3448
ag2
(g22
S'aLq\xbf\x07\xa1\xd8?'
p3449
tp3450
Rp3451
ag2
(g22
S'\x9dtY\xa6L\xef\xd3?'
p3452
tp3453
Rp3454
ag2
(g22
S'\xe1E_A\x9a\xacb@'
p3455
tp3456
Rp3457
ag2
(g22
S'\xe9&1\x08\xac\x1c\xba?'
p3458
tp3459
Rp3460
ag2
(g22
S'\x08\xac\x1cZd\x07b@'
p3461
tp3462
Rp3463
aF0.982
aF0.601
aF0.161
aF3.54e-05
aF-14.839
aF0.0656
aF106.715
aF0.966
aa(lp3464
g2
(g3
(S'S7'
p3465
I0
I1
tp3466
Rp3467
(I3
S'|'
p3468
NNNI7
I1
I0
tp3469
bS'Missing'
p3470
tp3471
Rp3472
ag2
(g3
(S'S28'
p3473
I0
I1
tp3474
Rp3475
(I3
S'|'
p3476
NNNI28
I1
I0
tp3477
bS'Nicola Fasano feat. Paula B.'
p3478
tp3479
Rp3480
ag2
(g22
S'\x9e\x7f\xe7\xe5j\xd5\xdb?'
p3481
tp3482
Rp3483
ag2
(g22
S'\x10\x80\x99\xc3\xd1\xd7\xd7?'
p3484
tp3485
Rp3486
ag2
(g22
S'@M-[\xebHk@'
p3487
tp3488
Rp3489
ag2
(g22
S'\xac\x1cZd;\xdf\x05@'
p3490
tp3491
Rp3492
ag2
(g22
S'u\x93\x18\x04V\xdei@'
p3493
tp3494
Rp3495
aF0.00262
aF0.741
aF0.615
aF0.345
aF-7.862
aF0.064
aF126.004
aF0.789
aa(lp3496
g2
(g3
(S'S14'
p3497
I0
I1
tp3498
Rp3499
(I3
S'|'
p3500
NNNI14
I1
I0
tp3501
bS'The Name Is...'
p3502
tp3503
Rp3504
ag2
(g3
(S'S4'
p3505
I0
I1
tp3506
Rp3507
(I3
S'|'
p3508
NNNI4
I1
I0
tp3509
bS'Fuel'
p3510
tp3511
Rp3512
ag2
(g22
S'\x91\xc9j\xf4\xe2\xa7\xe8?'
p3513
tp3514
Rp3515
ag2
(g22
S'\x8d\xf7\xd9yt\xa3\xe0?'
p3516
tp3517
Rp3518
ag2
(g22
S'\x94\xf6\x06_\x98\xedc@'
p3519
tp3520
Rp3521
ag2
(g22
S'9\xb4\xc8v\xbe\x9f\xca?'
p3522
tp3523
Rp3524
ag2
(g22
S'\x0c\x02+\x87\x16ac@'
p3525
tp3526
Rp3527
aF0.00442
aF0.481
aF0.97
aF1.81e-06
aF-7.319
aF0.0545
aF99.226
aF0.478
aa(lp3528
g2
(g3
(S'S12'
p3529
I0
I1
tp3530
Rp3531
(I3
S'|'
p3532
NNNI12
I1
I0
tp3533
bS"C'est La Vie"
p3534
tp3535
Rp3536
ag2
(g3
(S'S12'
p3537
I0
I1
tp3538
Rp3539
(I3
S'|'
p3540
NNNI12
I1
I0
tp3541
bS'Marc Lavoine'
p3542
tp3543
Rp3544
ag2
(g22
S'\xae-a\xf3UZ\xe2?'
p3545
tp3546
Rp3547
ag2
(g22
S'\xb5D\x8dY\x9d\x95\xd7?'
p3548
tp3549
Rp3550
ag2
(g22
S'\xdf\x89Y/\x86\x0cl@'
p3551
tp3552
Rp3553
ag2
(g22
S'Nb\x10X9\xb4\xd8?'
p3554
tp3555
Rp3556
ag2
(g22
S'\xd3Mb\x10XAj@'
p3557
tp3558
Rp3559
aF0.0257
aF0.802
aF0.555
aF0.0478
aF-11.265
aF0.0314
aF122.542
aF0.961
aa(lp3560
g2
(g3
(S'S30'
p3561
I0
I1
tp3562
Rp3563
(I3
S'|'
p3564
NNNI30
I1
I0
tp3565
bS"I've Been Lonely (For So Long)"
p3566
tp3567
Rp3568
ag2
(g3
(S'S16'
p3569
I0
I1
tp3570
Rp3571
(I3
S'|'
p3572
NNNI16
I1
I0
tp3573
bS'Frederick Knight'
p3574
tp3575
Rp3576
ag2
(g22
S'\x0f\n\x9aS]\x02\xdb?'
p3577
tp3578
Rp3579
ag2
(g22
S'\xb2\xbb\xd3\x92\xca\x8a\xd4?'
p3580
tp3581
Rp3582
ag2
(g22
S'\xe5D\xbb\n)\xdah@'
p3583
tp3584
Rp3585
ag2
(g22
S'\xbct\x93\x18\x04V\xd6?'
p3586
tp3587
Rp3588
ag2
(g22
S'F\xb6\xf3\xfd\xd4\x84g@'
p3589
tp3590
Rp3591
aF0.196
aF0.816
aF0.329
aF1.64e-06
aF-11.34
aF0.0382
aF96.581
aF0.688
aa(lp3592
g2
(g3
(S'S17'
p3593
I0
I1
tp3594
Rp3595
(I3
S'|'
p3596
NNNI17
I1
I0
tp3597
bS'On The Road Again'
p3598
tp3599
Rp3600
ag2
(g3
(S'S9'
p3601
I0
I1
tp3602
Rp3603
(I3
S'|'
p3604
NNNI9
I1
I0
tp3605
bS'Aerosmith'
p3606
tp3607
Rp3608
ag2
(g22
S'\xdd/{\xdf\xd1\xeb\xeb?'
p3609
tp3610
Rp3611
ag2
(g22
S'\xd4\xefy\xb5\x1c\x8b\xe3?'
p3612
tp3613
Rp3614
ag2
(g22
S"\\Z\r\x89{'k@"
p3615
tp3616
Rp3617
ag2
(g22
S'=\n\xd7\xa3p=\n@'
p3618
tp3619
Rp3620
ag2
(g22
S'\xe1z\x14\xaeGqj@'
p3621
tp3622
Rp3623
aF0.396
aF0.532
aF0.533
aF0.000237
aF-12.323
aF0.253
aF149.476
aF0.7
aa(lp3624
g2
(g3
(S'S4'
p3625
I0
I1
tp3626
Rp3627
(I3
S'|'
p3628
NNNI4
I1
I0
tp3629
bS'Wave'
p3630
tp3631
Rp3632
ag2
(g3
(S'S8'
p3633
I0
I1
tp3634
Rp3635
(I3
S'|'
p3636
NNNI8
I1
I0
tp3637
bS'Carl Doy'
p3638
tp3639
Rp3640
ag2
(g22
S'a\n+d|\xec\xd5?'
p3641
tp3642
Rp3643
ag2
(g22
S'\xbfK2"\xe2\xba\xd2?'
p3644
tp3645
Rp3646
ag2
(g22
S'\xcb-\xad\x86\xc42m@'
p3647
tp3648
Rp3649
ag2
(g22
S'F\xb6\xf3\xfd\xd4x\xd9?'
p3650
tp3651
Rp3652
ag2
(g22
S'\x8d\x97n\x12\x83,k@'
p3653
tp3654
Rp3655
aF0.857
aF0.484
aF0.455
aF0.834
aF-15.564
aF0.031
aF146.827
aF0.459
aa(lp3656
g2
(g3
(S'S14'
p3657
I0
I1
tp3658
Rp3659
(I3
S'|'
p3660
NNNI14
I1
I0
tp3661
bS'Your Bad Heart'
p3662
tp3663
Rp3664
ag2
(g3
(S'S13'
p3665
I0
I1
tp3666
Rp3667
(I3
S'|'
p3668
NNNI13
I1
I0
tp3669
bS'Mothers Pride'
p3670
tp3671
Rp3672
ag2
(g22
S'\x93h\x15A\xebR\xe2?'
p3673
tp3674
Rp3675
ag2
(g22
S'\x80\x18\xa7\x0b\xbe\xad\xd6?'
p3676
tp3677
Rp3678
ag2
(g22
S'\xa8\xe31\x03\x95}g@'
p3679
tp3680
Rp3681
ag2
(g22
S'\x08\xac\x1cZd;\xd7?'
p3682
tp3683
Rp3684
ag2
(g22
S'\x02+\x87\x16\xd9\xa6f@'
p3685
tp3686
Rp3687
aF0.0481
aF0.386
aF0.592
aI0
aF-6.312
aF0.03
aF180.183
aF0.447
aa(lp3688
g2
(g3
(S'S20'
p3689
I0
I1
tp3690
Rp3691
(I3
S'|'
p3692
NNNI20
I1
I0
tp3693
bS'Und die Zeit vergeht'
p3694
tp3695
Rp3696
ag2
(g3
(S'S15'
p3697
I0
I1
tp3698
Rp3699
(I3
S'|'
p3700
NNNI15
I1
I0
tp3701
bS'Geier Sturzflug'
p3702
tp3703
Rp3704
ag2
(g22
S'\xce[n>\xc1"\xe1?'
p3705
tp3706
Rp3707
ag2
(g22
S'\x1b\xc5\x84\xe0\x06\\\xdc?'
p3708
tp3709
Rp3710
ag2
(g22
S'\x8b\x1aL\xc3\xf0\xfel@'
p3711
tp3712
Rp3713
ag2
(g22
S'\xdb\xf9~j\xbct\x03@'
p3714
tp3715
Rp3716
ag2
(g22
S'\x93\x18\x04V\x0e-l@'
p3717
tp3718
Rp3719
aF0.269
aF0.736
aF0.574
aI0
aF-5.554
aF0.0666
aF79.967
aF0.614
aa(lp3720
g2
(g3
(S'S5'
p3721
I0
I1
tp3722
Rp3723
(I3
S'|'
p3724
NNNI5
I1
I0
tp3725
bS'Serus'
p3726
tp3727
Rp3728
ag2
(g3
(S'S9'
p3729
I0
I1
tp3730
Rp3731
(I3
S'|'
p3732
NNNI9
I1
I0
tp3733
bS'Workhorse'
p3734
tp3735
Rp3736
ag2
(g22
S'\xdb\x9d\xb5\xcdQ\xa8\xde?'
p3737
tp3738
Rp3739
ag2
(g22
S'\x8aF\xab\xc6C\x9f\xd4?'
p3740
tp3741
Rp3742
ag2
(g22
S'}\xd0\xb3Y\xf5\xd9u@'
p3743
tp3744
Rp3745
ag2
(g22
S'\xa8\xc6K7\x89A\x1e@'
p3746
tp3747
Rp3748
ag2
(g22
S'\xcb\xa1E\xb6\xf3\xd9u@'
p3749
tp3750
Rp3751
aF4.39e-05
aF0.369
aF0.817
aF0.0227
aF-6.447
aF0.0403
aF123.352
aF0.274
aa(lp3752
g2
(g3
(S'S15'
p3753
I0
I1
tp3754
Rp3755
(I3
S'|'
p3756
NNNI15
I1
I0
tp3757
bS'Everything I Do'
p3758
tp3759
Rp3760
ag2
(g3
(S'S5'
p3761
I0
I1
tp3762
Rp3763
(I3
S'|'
p3764
NNNI5
I1
I0
tp3765
bS'Knack'
p3766
tp3767
Rp3768
ag2
(g22
S'W\x03\x07\x82\xa6\xda\xe2?'
p3769
tp3770
Rp3771
ag2
(g22
S'\xb9\x16\x98\xbc\xc4\x1f\xdc?'
p3772
tp3773
Rp3774
ag2
(g22
S'\x9b\xacQ\x0f\xd1\xd6l@'
p3775
tp3776
Rp3777
ag2
(g22
S'\x00\x00\x00\x00\x00\x00\x00\x00'
p3778
tp3779
Rp3780
ag2
(g22
S'\x8bl\xe7\xfb\xa9qi@'
p3781
tp3782
Rp3783
aF0.0652
aF0.44
aF0.638
aF7.54e-05
aF-6.163
aF0.0279
aF74.968
aF0.394
aa(lp3784
g2
(g3
(S'S22'
p3785
I0
I1
tp3786
Rp3787
(I3
S'|'
p3788
NNNI22
I1
I0
tp3789
bS'Green Grows the Laurel'
p3790
tp3791
Rp3792
ag2
(g3
(S'S16'
p3793
I0
I1
tp3794
Rp3795
(I3
S'|'
p3796
NNNI16
I1
I0
tp3797
bS'The Irish Rovers'
p3798
tp3799
Rp3800
ag2
(g22
S'\xccO\x00\x16\xaa\xdb\xe2?'
p3801
tp3802
Rp3803
ag2
(g22
S'\xd0\xda\xa3\x9bL\x87\xd9?'
p3804
tp3805
Rp3806
ag2
(g22
S'&\xfcR?o\nn@'
p3807
tp3808
Rp3809
ag2
(g22
S'\x0c\x02+\x87\x16\xd9\xd6?'
p3810
tp3811
Rp3812
ag2
(g22
S'\x9a\x99\x99\x99\x99\xe9l@'
p3813
tp3814
Rp3815
aF0.546
aF0.505
aF0.545
aI0
aF-10.578
aF0.0964
aF82.063
aF0.337
aa(lp3816
g2
(g3
(S'S20'
p3817
I0
I1
tp3818
Rp3819
(I3
S'|'
p3820
NNNI20
I1
I0
tp3821
bS'The Doug McComb Over'
p3822
tp3823
Rp3824
ag2
(g3
(S'S8'
p3825
I0
I1
tp3826
Rp3827
(I3
S'|'
p3828
NNNI8
I1
I0
tp3829
bS'A Tundra'
p3830
tp3831
Rp3832
ag2
(g22
S'e\xd4l\x1e\xa4\xa2\xdf?'
p3833
tp3834
Rp3835
ag2
(g22
S'\xfe4\xfah\xe6\x98\xce?'
p3836
tp3837
Rp3838
ag2
(g22
S'\xf9\xa0g\xb3\xea\xf4p@'
p3839
tp3840
Rp3841
ag2
(g22
S'\x93\x18\x04V\x0e-\xc2?'
p3842
tp3843
Rp3844
ag2
(g22
S"'1\x08\xac\x1c\xa4p@"
p3845
tp3846
Rp3847
aF0.00804
aF0.41
aF0.652
aF0.00947
aF-9.919
aF0.075
aF127.406
aF0.311
aa(lp3848
g2
(g3
(S'S6'
p3849
I0
I1
tp3850
Rp3851
(I3
S'|'
p3852
NNNI6
I1
I0
tp3853
bS'Micael'
p3854
tp3855
Rp3856
ag2
(g3
(S'S12'
p3857
I0
I1
tp3858
Rp3859
(I3
S'|'
p3860
NNNI12
I1
I0
tp3861
bS'Juana Molina'
p3862
tp3863
Rp3864
ag2
(g22
S'#"1;l\x84\xe6?'
p3865
tp3866
Rp3867
ag2
(g22
S'\x8d\x9aA\xfe\xb1\xaf\xdc?'
p3868
tp3869
Rp3870
ag2
(g22
S'T5A\xd4}\xf4f@'
p3871
tp3872
Rp3873
ag2
(g22
S';\xdfO\x8d\x97n\xc2?'
p3874
tp3875
Rp3876
ag2
(g22
S'\xe1z\x14\xaeGAe@'
p3877
tp3878
Rp3879
aF0.778
aF0.512
aF0.522
aF0.461
aF-11.499
aF0.0278
aF123.074
aF0.254
aa(lp3880
g2
(g3
(S'S19'
p3881
I0
I1
tp3882
Rp3883
(I3
S'|'
p3884
NNNI19
I1
I0
tp3885
bS"Walkin' In The Snow"
p3886
tp3887
Rp3888
ag2
(g3
(S'S25'
p3889
I0
I1
tp3890
Rp3891
(I3
S'|'
p3892
NNNI25
I1
I0
tp3893
bS'Hank Penny & Sue Thompson'
p3894
tp3895
Rp3896
ag2
(g22
S'\x1ad\x1d\xdd\xe1\x88\xdc?'
p3897
tp3898
Rp3899
ag2
(g22
S'\x1bd\xc1h\x0f?\xd6?'
p3900
tp3901
Rp3902
ag2
(g22
S'\xe8\x87\x11\xc2\xa3\xe5]@'
p3903
tp3904
Rp3905
ag2
(g22
S'\x00\x00\x00\x00\x00\x00\x00\x00'
p3906
tp3907
Rp3908
ag2
(g22
S'\x12\x83\xc0\xca\xa1\xe5]@'
p3909
tp3910
Rp3911
aF0.93
aF0.818
aF0.308
aI0
aF-12.131
aF0.244
aF119.516
aF0.914
aa(lp3912
g2
(g3
(S'S60'
p3913
I0
I1
tp3914
Rp3915
(I3
S'|'
p3916
NNNI60
I1
I0
tp3917
bS'Praise His Name (Low Key-Studio Track w/o Background Vocals)'
p3918
tp3919
Rp3920
ag2
(g3
(S'S21'
p3921
I0
I1
tp3922
Rp3923
(I3
S'|'
p3924
NNNI21
I1
I0
tp3925
bS'Jeff And Sheri Easter'
p3926
tp3927
Rp3928
ag2
(g22
S'\x99\xe8\x19;\x1e!\xe1?'
p3929
tp3930
Rp3931
ag2
(g22
S'\xdeU\r\xac\x8c\xab\xd8?'
p3932
tp3933
Rp3934
ag2
(g22
S'\xf42\x8a\xe5\x96}q@'
p3935
tp3936
Rp3937
ag2
(g22
S'\xa2E\xb6\xf3\xfd\xd4\xc8?'
p3938
tp3939
Rp3940
ag2
(g22
S'b\x10X9\xb4\xeap@'
p3941
tp3942
Rp3943
aF0.277
aF0.701
aF0.258
aF0.414
aF-13.75
aF0.0331
aF121.968
aF0.0967
aa(lp3944
g2
(g3
(S'S17'
p3945
I0
I1
tp3946
Rp3947
(I3
S'|'
p3948
NNNI17
I1
I0
tp3949
bS"Didn't You Notice"
p3950
tp3951
Rp3952
ag2
(g3
(S'S12'
p3953
I0
I1
tp3954
Rp3955
(I3
S'|'
p3956
NNNI12
I1
I0
tp3957
bS'JennyAnyKind'
p3958
tp3959
Rp3960
ag2
(g22
S'\xe8S`)\xc0\n\xd7?'
p3961
tp3962
Rp3963
ag2
(g22
S'c\x9fe\x0f\x12\xf6\xd2?'
p3964
tp3965
Rp3966
ag2
(g22
S'Gw\x10;S`o@'
p3967
tp3968
Rp3969
ag2
(g22
S'\xa4p=\n\xd7\xa3\xc0?'
p3970
tp3971
Rp3972
ag2
(g22
S'D\x8bl\xe7\xfbIn@'
p3973
tp3974
Rp3975
aF0.00614
aF0.502
aF0.732
aF6.09e-05
aF-5.875
aF0.03
aF117.395
aF0.866
aa(lp3976
g2
(g3
(S'S11'
p3977
I0
I1
tp3978
Rp3979
(I3
S'|'
p3980
NNNI11
I1
I0
tp3981
bS'Dark Inside'
p3982
tp3983
Rp3984
ag2
(g3
(S'S9'
p3985
I0
I1
tp3986
Rp3987
(I3
S'|'
p3988
NNNI9
I1
I0
tp3989
bS'Al Duvall'
p3990
tp3991
Rp3992
ag2
(g22
S'|\x9f\xcc\x95\xcc\x16\xe0?'
p3993
tp3994
Rp3995
ag2
(g22
S'\xd3\xe3\x82\x0e\x19\xff\xd7?'
p3996
tp3997
Rp3998
ag2
(g22
S'n\x17\x9a\xeb4\xe9d@'
p3999
tp4000
Rp4001
ag2
(g22
S'\x00\x00\x00\x00\x00\x00\x00\x00'
p4002
tp4003
Rp4004
ag2
(g22
S'\xf0\xa7\xc6K7\xe9d@'
p4005
tp4006
Rp4007
aF0.839
aF0.879
aF0.406
aI0
aF-11.162
aF0.112
aF117.989
aF0.973
aa(lp4008
g2
(g3
(S'S13'
p4009
I0
I1
tp4010
Rp4011
(I3
S'|'
p4012
NNNI13
I1
I0
tp4013
bS'Folly Ranking'
p4014
tp4015
Rp4016
ag2
(g3
(S'S15'
p4017
I0
I1
tp4018
Rp4019
(I3
S'|'
p4020
NNNI15
I1
I0
tp4021
bS'Johnny Osbourne'
p4022
tp4023
Rp4024
ag2
(g22
S'\n\x7f\x91\xe7\xed\xcc\xe3?'
p4025
tp4026
Rp4027
ag2
(g22
S'H\xdcH\x04D/\xda?'
p4028
tp4029
Rp4030
ag2
(g22
S'\xa4\xc7\xefm\xfa@i@'
p4031
tp4032
Rp4033
ag2
(g22
S'\x17\xd9\xce\xf7S\xe3\xc5?'
p4034
tp4035
Rp4036
ag2
(g22
S'\xd3Mb\x10Xah@'
p4037
tp4038
Rp4039
aF0.000848
aF0.873
aF0.349
aI0
aF-18.389
aF0.123
aF133.499
aF0.881
aa(lp4040
g2
(g3
(S'S8'
p4041
I0
I1
tp4042
Rp4043
(I3
S'|'
p4044
NNNI8
I1
I0
tp4045
bS'Good Day'
p4046
tp4047
Rp4048
ag2
(g3
(S'S12'
p4049
I0
I1
tp4050
Rp4051
(I3
S'|'
p4052
NNNI12
I1
I0
tp4053
bS'Britt Nicole'
p4054
tp4055
Rp4056
ag2
(g22
S'\x90\xb8\xcf\x86\x8bl\xe5?'
p4057
tp4058
Rp4059
ag2
(g22
S'\xb9^7\x99\x1al\xe1?'
p4060
tp4061
Rp4062
ag2
(g22
S'U\xf6]\x11\xfcxi@'
p4063
tp4064
Rp4065
ag2
(g22
S'\x06\x81\x95C\x8bl\x08@'
p4066
tp4067
Rp4068
ag2
(g22
S'\xc7K7\x89APh@'
p4069
tp4070
Rp4071
aF0.0351
aF0.72
aF0.961
aI0
aF-3.052
aF0.185
aF131.968
aF0.933
aa(lp4072
g2
(g3
(S'S13'
p4073
I0
I1
tp4074
Rp4075
(I3
S'|'
p4076
NNNI13
I1
I0
tp4077
bS'Midnight Hour'
p4078
tp4079
Rp4080
ag2
(g3
(S'S13'
p4081
I0
I1
tp4082
Rp4083
(I3
S'|'
p4084
NNNI13
I1
I0
tp4085
bS'Tyrone Taylor'
p4086
tp4087
Rp4088
ag2
(g22
S'B\xef\x93\x0b\x1d\xa7\xdb?'
p4089
tp4090
Rp4091
ag2
(g22
S'\x86\x0ck]@)\xd3?'
p4092
tp4093
Rp4094
ag2
(g22
S']\xe1].\xe2\x14l@'
p4095
tp4096
Rp4097
ag2
(g22
S'\x14\xaeG\xe1z\x14\xd6?'
p4098
tp4099
Rp4100
ag2
(g22
S'/\xdd$\x06\x81\xfdj@'
p4101
tp4102
Rp4103
aF0.098
aF0.857
aF0.334
aI0
aF-9.929
aF0.0344
aF82.005
aF0.798
aa(lp4104
g2
(g3
(S'S11'
p4105
I0
I1
tp4106
Rp4107
(I3
S'|'
p4108
NNNI11
I1
I0
tp4109
bS'Co Co My My'
p4110
tp4111
Rp4112
ag2
(g3
(S'S14'
p4113
I0
I1
tp4114
Rp4115
(I3
S'|'
p4116
NNNI14
I1
I0
tp4117
bS'Poncho Sanchez'
p4118
tp4119
Rp4120
ag2
(g22
S'\x1a\x04\xb8\xe8\xa7x\xe2?'
p4121
tp4122
Rp4123
ag2
(g22
S'\xde\xe5\xafIH\xe8\xd7?'
p4124
tp4125
Rp4126
ag2
(g22
S'\x86r\xa2]\x851s@'
p4127
tp4128
Rp4129
ag2
(g22
S'J\x0c\x02+\x87\x16\xd9?'
p4130
tp4131
Rp4132
ag2
(g22
S'\xaeG\xe1z\x14\xf6r@'
p4133
tp4134
Rp4135
aF0.547
aF0.588
aF0.452
aF0.0281
aF-13.046
aF0.0463
aF105.891
aF0.789
aa(lp4136
g2
(g3
(S'S21'
p4137
I0
I1
tp4138
Rp4139
(I3
S'|'
p4140
NNNI21
I1
I0
tp4141
bS'The Man with the Dogs'
p4142
tp4143
Rp4144
ag2
(g3
(S'S13'
p4145
I0
I1
tp4146
Rp4147
(I3
S'|'
p4148
NNNI13
I1
I0
tp4149
bS'Dead Kennedys'
p4150
tp4151
Rp4152
ag2
(g22
S'\xce\xd9\xf6\xc9\xcf\x95\xe7?'
p4153
tp4154
Rp4155
ag2
(g22
S'\xe7}\x8a\x9b\x7fA\xe1?'
p4156
tp4157
Rp4158
ag2
(g22
S'M\x10u\x1f\x80\xc1f@'
p4159
tp4160
Rp4161
ag2
(g22
S'\x93\x18\x04V\x0e-\xc2?'
p4162
tp4163
Rp4164
ag2
(g22
S'\x93\x18\x04V\x0e\xd1e@'
p4165
tp4166
Rp4167
aF0.458
aF0.34
aF0.995
aF0.000122
aF-3.421
aF0.154
aF112.07
aF0.515
aa(lp4168
g2
(g3
(S'S11'
p4169
I0
I1
tp4170
Rp4171
(I3
S'|'
p4172
NNNI11
I1
I0
tp4173
bS'She cracked'
p4174
tp4175
Rp4176
ag2
(g3
(S'S13'
p4177
I0
I1
tp4178
Rp4179
(I3
S'|'
p4180
NNNI13
I1
I0
tp4181
bS'Modern Lovers'
p4182
tp4183
Rp4184
ag2
(g22
S'\xf0\xa5\x87\x99y\xdb\xe3?'
p4185
tp4186
Rp4187
ag2
(g22
S'\xfb\xc7\x9d)\xe4Y\xd9?'
p4188
tp4189
Rp4190
ag2
(g22
S'i\xe3\x88\xb5\xf8Ip@'
p4191
tp4192
Rp4193
ag2
(g22
S'\x00\x00\x00\x00\x00\x00\x00\x00'
p4194
tp4195
Rp4196
ag2
(g22
S'\xe1z\x14\xaeG)n@'
p4197
tp4198
Rp4199
aF0.00015
aF0.511
aF0.831
aF3.06e-05
aF-6.823
aF0.0292
aF146.333
aF0.506
aa(lp4200
g2
(g3
(S'S28'
p4201
I0
I1
tp4202
Rp4203
(I3
S'|'
p4204
NNNI28
I1
I0
tp4205
bS'Get Me To The Church On Time'
p4206
tp4207
Rp4208
ag2
(g3
(S'S12'
p4209
I0
I1
tp4210
Rp4211
(I3
S'|'
p4212
NNNI12
I1
I0
tp4213
bS'Shelly Manne'
p4214
tp4215
Rp4216
ag2
(g22
S'%\xb6\xc9\x1ah[\xde?'
p4217
tp4218
Rp4219
ag2
(g22
S'\x92\x88\x1c:u7\xd6?'
p4220
tp4221
Rp4222
ag2
(g22
S'\xe4\xbdje\xc2\xeco@'
p4223
tp4224
Rp4225
ag2
(g22
S'\x9e\xef\xa7\xc6K7\xf9?'
p4226
tp4227
Rp4228
ag2
(g22
S'L7\x89A`\xe9n@'
p4229
tp4230
Rp4231
aF0.67
aF0.458
aF0.197
aF0.92
aF-25.713
aF0.044
aF122.954
aF0.541
aa(lp4232
g2
(g3
(S'S15'
p4233
I0
I1
tp4234
Rp4235
(I3
S'|'
p4236
NNNI15
I1
I0
tp4237
bS'Washboard Swing'
p4238
tp4239
Rp4240
ag2
(g3
(S'S13'
p4241
I0
I1
tp4242
Rp4243
(I3
S'|'
p4244
NNNI13
I1
I0
tp4245
bS'Washboard Sam'
p4246
tp4247
Rp4248
ag2
(g22
S'\xc9K\xd7\x86c/\xe0?'
p4249
tp4250
Rp4251
ag2
(g22
S'r\xf8\x97;z\xe9\xd4?'
p4252
tp4253
Rp4254
ag2
(g22
S'\x83\xc0\xca\xa1E\x19g@'
p4255
tp4256
Rp4257
ag2
(g22
S'\x98n\x12\x83\xc0\xca\xd9?'
p4258
tp4259
Rp4260
ag2
(g22
S'\xd1"\xdb\xf9~bf@'
p4261
tp4262
Rp4263
aF0.953
aF0.837
aF0.303
aF0.0117
aF-13.376
aF0.0384
aF95.109
aF0.912
aa(lp4264
g2
(g3
(S'S6'
p4265
I0
I1
tp4266
Rp4267
(I3
S'|'
p4268
NNNI6
I1
I0
tp4269
bS'Anyday'
p4270
tp4271
Rp4272
ag2
(g3
(S'S4'
p4273
I0
I1
tp4274
Rp4275
(I3
S'|'
p4276
NNNI4
I1
I0
tp4277
bS'Amil'
p4278
tp4279
Rp4280
ag2
(g22
S'KZt\xe3a\xaa\xe2?'
p4281
tp4282
Rp4283
ag2
(g22
S'\x8c_U\xb3X\xb1\xd6?'
p4284
tp4285
Rp4286
ag2
(g22
S'U0*\xa9\x13\x10o@'
p4287
tp4288
Rp4289
ag2
(g22
S'{\x14\xaeG\xe1z\xc4?'
p4290
tp4291
Rp4292
ag2
(g22
S'\xd3Mb\x10Xqn@'
p4293
tp4294
Rp4295
aF0.0953
aF0.769
aF0.399
aI0
aF-8.378
aF0.337
aF166.229
aF0.47
aa(lp4296
g2
(g3
(S'S24'
p4297
I0
I1
tp4298
Rp4299
(I3
S'|'
p4300
NNNI24
I1
I0
tp4301
bS'Am I That Easy To Forget'
p4302
tp4303
Rp4304
ag2
(g3
(S'S13'
p4305
I0
I1
tp4306
Rp4307
(I3
S'|'
p4308
NNNI13
I1
I0
tp4309
bS'Skeeter Davis'
p4310
tp4311
Rp4312
ag2
(g22
S'h\xa6\xbb\x85\xa6R\xe3?'
p4313
tp4314
Rp4315
ag2
(g22
S']\xaa9\xec\xa4T\xd9?'
p4316
tp4317
Rp4318
ag2
(g22
S'Y\xc0\x04n\xddq_@'
p4319
tp4320
Rp4321
ag2
(g22
S'\x1b/\xdd$\x06\x81\xdd?'
p4322
tp4323
Rp4324
ag2
(g22
S'\xe1z\x14\xaeG9]@'
p4325
tp4326
Rp4327
aF0.876
aF0.557
aF0.236
aF4.49e-06
aF-10.209
aF0.0251
aF80.725
aF0.519
aa(lp4328
g2
(g3
(S'S5'
p4329
I0
I1
tp4330
Rp4331
(I3
S'|'
p4332
NNNI5
I1
I0
tp4333
bS'Intro'
p4334
tp4335
Rp4336
ag2
(g3
(S'S12'
p4337
I0
I1
tp4338
Rp4339
(I3
S'|'
p4340
NNNI12
I1
I0
tp4341
bS'DJ Godfather'
p4342
tp4343
Rp4344
ag2
(g22
S'\x94{n\xe2\xbdp\xdf?'
p4345
tp4346
Rp4347
ag2
(g22
S'E\xd9Q\x96\x98\xe0\xd4?'
p4348
tp4349
Rp4350
ag2
(g22
S'\x17\x0e\x84d\x01\x9bJ@'
p4351
tp4352
Rp4353
ag2
(g22
S'\x87\x16\xd9\xce\xf7S\xdb?'
p4354
tp4355
Rp4356
ag2
(g22
S'^\xbaI\x0c\x02\x9bJ@'
p4357
tp4358
Rp4359
aF0.283
aF0.76
aF0.716
aI0
aF-10.624
aF0.652
aF122.8
aF0.884
aa(lp4360
g2
(g3
(S'S20'
p4361
I0
I1
tp4362
Rp4363
(I3
S'|'
p4364
NNNI20
I1
I0
tp4365
bS'The Earth Will Shake'
p4366
tp4367
Rp4368
ag2
(g3
(S'S6'
p4369
I0
I1
tp4370
Rp4371
(I3
S'|'
p4372
NNNI6
I1
I0
tp4373
bS'Thrice'
p4374
tp4375
Rp4376
ag2
(g22
S'/U\xe6/\x92\xf1\xeb?'
p4377
tp4378
Rp4379
ag2
(g22
S'\x1c\xbd\x12\xa5\x8e\xa3\xe0?'
p4380
tp4381
Rp4382
ag2
(g22
S'c\x7f\xd9=y\x9bt@'
p4383
tp4384
Rp4385
ag2
(g22
S'\x00\x00\x00\x00\x00\x00\x00\x00'
p4386
tp4387
Rp4388
ag2
(g22
S'\xd9\xce\xf7S\xe3Gt@'
p4389
tp4390
Rp4391
aF0.0125
aF0.447
aF0.898
aF0.104
aF-4.575
aF0.0726
aF125.099
aF0.136
aa(lp4392
g2
(g3
(S'S20'
p4393
I0
I1
tp4394
Rp4395
(I3
S'|'
p4396
NNNI20
I1
I0
tp4397
bS'Some Love Like Yours'
p4398
tp4399
Rp4400
ag2
(g3
(S'S13'
p4401
I0
I1
tp4402
Rp4403
(I3
S'|'
p4404
NNNI13
I1
I0
tp4405
bS'The Real Kids'
p4406
tp4407
Rp4408
ag2
(g22
S'\xb3\x8d"3}\x08\xdf?'
p4409
tp4410
Rp4411
ag2
(g22
S'Q-\xc2\xaea\x12\xd6?'
p4412
tp4413
Rp4414
ag2
(g22
S'M\x10u\x1f\x80\x02p@'
p4415
tp4416
Rp4417
ag2
(g22
S'\x96C\x8bl\xe7{\x11@'
p4418
tp4419
Rp4420
ag2
(g22
S'\xc1\xca\xa1E\xb6\x1bo@'
p4421
tp4422
Rp4423
aF0.987
aF0.463
aF0.907
aF0.925
aF-7.554
aF0.0651
aF123.647
aF0.487
aa(lp4424
g2
(g3
(S'S30'
p4425
I0
I1
tp4426
Rp4427
(I3
S'|'
p4428
NNNI30
I1
I0
tp4429
bS'Un vestido y un amor (en vivo)'
p4430
tp4431
Rp4432
ag2
(g3
(S'S15'
p4433
I0
I1
tp4434
Rp4435
(I3
S'|'
p4436
NNNI15
I1
I0
tp4437
bS'Andres Calamaro'
p4438
tp4439
Rp4440
ag2
(g22
S'\t6\xbbI)\xca\xe4?'
p4441
tp4442
Rp4443
ag2
(g22
S'g\xc8\x8723\xe0\xe0?'
p4444
tp4445
Rp4446
ag2
(g22
S'\x10\xe9\xb7\xaf\x83\xf9p@'
p4447
tp4448
Rp4449
ag2
(g22
S'\x00\x00\x00\x00\x00\x00\x00\x00'
p4450
tp4451
Rp4452
ag2
(g22
S'#\xdb\xf9~j\xb6p@'
p4453
tp4454
Rp4455
aF0.793
aF0.356
aF0.25
aI0
aF-9.812
aF0.0309
aF74.552
aF0.204
aa(lp4456
g2
(g3
(S'S20'
p4457
I0
I1
tp4458
Rp4459
(I3
S'|'
p4460
NNNI20
I1
I0
tp4461
bS'The Book of Disquiet'
p4462
tp4463
Rp4464
ag2
(g3
(S'S12'
p4465
I0
I1
tp4466
Rp4467
(I3
S'|'
p4468
NNNI12
I1
I0
tp4469
bS'Hey Colossus'
p4470
tp4471
Rp4472
ag2
(g22
S'\x99\x98-I}\x90\xdf?'
p4473
tp4474
Rp4475
ag2
(g22
S'\x07\xd3\x8e\x07\xd7v\xd7?'
p4476
tp4477
Rp4478
ag2
(g22
S'X\xca2\xc41Az@'
p4479
tp4480
Rp4481
ag2
(g22
S'V\x0e-\xb2\x9d\xef\xd7?'
p4482
tp4483
Rp4484
ag2
(g22
S'q=\n\xd7\xa3\x16y@'
p4485
tp4486
Rp4487
aF0.308
aF0.17
aF0.311
aF0.867
aF-10.238
aF0.0338
aF72.472
aF0.0632
aa(lp4488
g2
(g3
(S'S8'
p4489
I0
I1
tp4490
Rp4491
(I3
S'|'
p4492
NNNI8
I1
I0
tp4493
bS'Gravedom'
p4494
tp4495
Rp4496
ag2
(g3
(S'S9'
p4497
I0
I1
tp4498
Rp4499
(I3
S'|'
p4500
NNNI9
I1
I0
tp4501
bS'Goatwhore'
p4502
tp4503
Rp4504
ag2
(g22
S'\xf4\x97\x1f\x9a\xa4\xbe\xe8?'
p4505
tp4506
Rp4507
ag2
(g22
S"'g?\xee\x08\x80\xdb?"
p4508
tp4509
Rp4510
ag2
(g22
S'Q\xbd5\xb0U\xb4i@'
p4511
tp4512
Rp4513
ag2
(g22
S'\x91\xed|?5^\xca?'
p4514
tp4515
Rp4516
ag2
(g22
S'\xb8\x1e\x85\xebQ\xb4i@'
p4517
tp4518
Rp4519
aF1.2e-06
aF0.211
aF0.963
aF0.632
aF-7.2
aF0.133
aF110.319
aF0.28
aa(lp4520
g2
(g3
(S'S12'
p4521
I0
I1
tp4522
Rp4523
(I3
S'|'
p4524
NNNI12
I1
I0
tp4525
bS'Just Say Yes'
p4526
tp4527
Rp4528
ag2
(g3
(S'S11'
p4529
I0
I1
tp4530
Rp4531
(I3
S'|'
p4532
NNNI11
I1
I0
tp4533
bS'Snow Patrol'
p4534
tp4535
Rp4536
ag2
(g22
S'g\xed\xa5\x14\xac/\xea?'
p4537
tp4538
Rp4539
ag2
(g22
S'\x82\xc2"2zZ\xe5?'
p4540
tp4541
Rp4542
ag2
(g22
S'\xc6m4\x80\xb7\xc1q@'
p4543
tp4544
Rp4545
ag2
(g22
S"'1\x08\xac\x1cZ\x0b@"
p4546
tp4547
Rp4548
ag2
(g22
S'\x85\xebQ\xb8\x1e\xcfp@'
p4549
tp4550
Rp4551
aF0.0249
aF0.54
aF0.891
aF1.44e-05
aF-5.506
aF0.034
aF108.007
aF0.229
aa(lp4552
g2
(g3
(S'S16'
p4553
I0
I1
tp4554
Rp4555
(I3
S'|'
p4556
NNNI16
I1
I0
tp4557
bS'Commercial Reign'
p4558
tp4559
Rp4560
ag2
(g3
(S'S16'
p4561
I0
I1
tp4562
Rp4563
(I3
S'|'
p4564
NNNI16
I1
I0
tp4565
bS'Inspiral Carpets'
p4566
tp4567
Rp4568
ag2
(g22
S'\x95\xee\x86\x05\x0f]\xe3?'
p4569
tp4570
Rp4571
ag2
(g22
S'\x8f\x1a\x97\x85\xcd\x81\xd9?'
p4572
tp4573
Rp4574
ag2
(g22
S'\x12\xa0\xa6\x96-\xb5q@'
p4575
tp4576
Rp4577
ag2
(g22
S'\xc1\xca\xa1E\xb6\xf3\xcd?'
p4578
tp4579
Rp4580
ag2
(g22
S'\\\x8f\xc2\xf5(\x00q@'
p4581
tp4582
Rp4583
aF0.000198
aF0.506
aF0.902
aF0.156
aF-4.705
aF0.0458
aF113.618
aF0.764
aa(lp4584
g2
(g3
(S'S12'
p4585
I0
I1
tp4586
Rp4587
(I3
S'|'
p4588
NNNI12
I1
I0
tp4589
bS'Ghetto Child'
p4590
tp4591
Rp4592
ag2
(g3
(S'S11'
p4593
I0
I1
tp4594
Rp4595
(I3
S'|'
p4596
NNNI11
I1
I0
tp4597
bS'Eric Burdon'
p4598
tp4599
Rp4600
ag2
(g22
S',\xd5<*\xf5;\xe3?'
p4601
tp4602
Rp4603
ag2
(g22
S'\x807\x03?\xe7\xfc\xd6?'
p4604
tp4605
Rp4606
ag2
(g22
S'\xd8\x81sF\x14\xe6s@'
p4607
tp4608
Rp4609
ag2
(g22
S'\x0e-\xb2\x9d\xef\xa7\xde?'
p4610
tp4611
Rp4612
ag2
(g22
S'\x08\xac\x1cZd\x15s@'
p4613
tp4614
Rp4615
aF0.287
aF0.242
aF0.519
aF0.00678
aF-15.436
aF0.0522
aF180.739
aF0.427
aa(lp4616
g2
(g3
(S'S4'
p4617
I0
I1
tp4618
Rp4619
(I3
S'|'
p4620
NNNI4
I1
I0
tp4621
bS'Amie'
p4622
tp4623
Rp4624
ag2
(g3
(S'S8'
p4625
I0
I1
tp4626
Rp4627
(I3
S'|'
p4628
NNNI8
I1
I0
tp4629
bS'Lonestar'
p4630
tp4631
Rp4632
ag2
(g22
S'4\x16w\xe7x\x1c\xe8?'
p4633
tp4634
Rp4635
ag2
(g22
S'\xc1I\x8f\x8e\x10\xf5\xe0?'
p4636
tp4637
Rp4638
ag2
(g22
S'\xbf\x0e\x9c3\xa2\xb6n@'
p4639
tp4640
Rp4641
ag2
(g22
S'1\x08\xac\x1cZd\xd3?'
p4642
tp4643
Rp4644
ag2
(g22
S'\x98n\x12\x83\xc0\xd2l@'
p4645
tp4646
Rp4647
aF0.097
aF0.668
aF0.67
aF0.000202
aF-8.14
aF0.0245
aF92.036
aF0.617
aa(lp4648
g2
(g3
(S'S9'
p4649
I0
I1
tp4650
Rp4651
(I3
S'|'
p4652
NNNI9
I1
I0
tp4653
bS'Freak Out'
p4654
tp4655
Rp4656
ag2
(g3
(S'S12'
p4657
I0
I1
tp4658
Rp4659
(I3
S'|'
p4660
NNNI12
I1
I0
tp4661
bS'Erick Sermon'
p4662
tp4663
Rp4664
ag2
(g22
S'\xa4R\xd5\xcf\xc2~\xe2?'
p4665
tp4666
Rp4667
ag2
(g22
S'\x06Njp\xd4\x92\xd7?'
p4668
tp4669
Rp4670
ag2
(g22
S'o\xd8\xb6(\xb3mg@'
p4671
tp4672
Rp4673
ag2
(g22
S'\xc3\xf5(\\\x8f\xc2\x04@'
p4674
tp4675
Rp4676
ag2
(g22
S'\x04V\x0e-\xb2mg@'
p4677
tp4678
Rp4679
aF0.102
aF0.696
aF0.659
aF9.81e-05
aF-8.297
aF0.337
aF88.944
aF0.674
aa(lp4680
g2
(g3
(S'S12'
p4681
I0
I1
tp4682
Rp4683
(I3
S'|'
p4684
NNNI12
I1
I0
tp4685
bS'Cover For Me'
p4686
tp4687
Rp4688
ag2
(g3
(S'S16'
p4689
I0
I1
tp4690
Rp4691
(I3
S'|'
p4692
NNNI16
I1
I0
tp4693
bS'Freddie McGregor'
p4694
tp4695
Rp4696
ag2
(g22
S'\x85e\xa9\xae\xc4\x19\xe3?'
p4697
tp4698
Rp4699
ag2
(g22
S'\xfb\x00g\xf1\xbdk\xd7?'
p4700
tp4701
Rp4702
ag2
(g22
S'\xfb\xe8\xd4\x95\xcf%o@'
p4703
tp4704
Rp4705
ag2
(g22
S'\x00\x00\x00\x00\x00\x00\x00\x00'
p4706
tp4707
Rp4708
ag2
(g22
S'T\xe3\xa5\x9b\xc4\xc4n@'
p4709
tp4710
Rp4711
aF0.0943
aF0.826
aF0.598
aI0
aF-7.595
aF0.0506
aF93.002
aF0.814
aa(lp4712
g2
(g3
(S'S20'
p4713
I0
I1
tp4714
Rp4715
(I3
S'|'
p4716
NNNI20
I1
I0
tp4717
bS"Tonight It's Just Me"
p4718
tp4719
Rp4720
ag2
(g3
(S'S15'
p4721
I0
I1
tp4722
Rp4723
(I3
S'|'
p4724
NNNI15
I1
I0
tp4725
bS'Amber Nicholson'
p4726
tp4727
Rp4728
ag2
(g22
S'l\xe9\xc9p\x00i\xd3?'
p4729
tp4730
Rp4731
ag2
(g22
S'\x00\x00\x00\x00\x00\x00\x00\x00'
p4732
tp4733
Rp4734
ag2
(g22
S'du\xab\xe7\xa4\x91o@'
p4735
tp4736
Rp4737
ag2
(g22
S'\x00\x00\x00\x00\x00\x00\x00\x00'
p4738
tp4739
Rp4740
ag2
(g22
S'{\x14\xaeG\xe1&n@'
p4741
tp4742
Rp4743
aF0.265
aF0.544
aF0.49
aF1.65e-06
aF-8.261
aF0.0237
aF94.982
aF0.475
aa(lp4744
g2
(g3
(S'S13'
p4745
I0
I1
tp4746
Rp4747
(I3
S'|'
p4748
NNNI13
I1
I0
tp4749
bS'Paid Vacation'
p4750
tp4751
Rp4752
ag2
(g3
(S'S12'
p4753
I0
I1
tp4754
Rp4755
(I3
S'|'
p4756
NNNI12
I1
I0
tp4757
bS'Circle Jerks'
p4758
tp4759
Rp4760
ag2
(g22
S"\xa3\xb1<]'T\xe5?"
p4761
tp4762
Rp4763
ag2
(g22
S'Hq\xa70G\x80\xda?'
p4764
tp4765
Rp4766
ag2
(g22
S'\x9a\xb1h:;9V@'
p4767
tp4768
Rp4769
ag2
(g22
S'\xb4\xc8v\xbe\x9f\x1a\xd7?'
p4770
tp4771
Rp4772
ag2
(g22
S'\xf0\xa7\xc6K7QU@'
p4773
tp4774
Rp4775
aF0.131
aF0.3
aF0.827
aF0.0547
aF-8.311
aF0.0492
aF156.788
aF0.565
aa(lp4776
g2
(g3
(S'S13'
p4777
I0
I1
tp4778
Rp4779
(I3
S'|'
p4780
NNNI13
I1
I0
tp4781
bS'Dancing Shoes'
p4782
tp4783
Rp4784
ag2
(g3
(S'S14'
p4785
I0
I1
tp4786
Rp4787
(I3
S'|'
p4788
NNNI14
I1
I0
tp4789
bS'Arctic Monkeys'
p4790
tp4791
Rp4792
ag2
(g22
S'\xa2\xc2\x8dl\x8f!\xea?'
p4793
tp4794
Rp4795
ag2
(g22
S'CvB\xc3\x97\xb7\xe1?'
p4796
tp4797
Rp4798
ag2
(g22
S'\x18\xb2\xba\xd5s\xa4a@'
p4799
tp4800
Rp4801
ag2
(g22
S'\xe3\xa5\x9b\xc4 \xb0\xb2?'
p4802
tp4803
Rp4804
ag2
(g22
S'/\xdd$\x06\x81Ya@'
p4805
tp4806
Rp4807
aF0.00328
aF0.522
aF0.889
aI0
aF-4.137
aF0.0461
aF144.499
aF0.852
aa(lp4808
g2
(g3
(S'S11'
p4809
I0
I1
tp4810
Rp4811
(I3
S'|'
p4812
NNNI11
I1
I0
tp4813
bS'Photographs'
p4814
tp4815
Rp4816
ag2
(g3
(S'S19'
p4817
I0
I1
tp4818
Rp4819
(I3
S'|'
p4820
NNNI19
I1
I0
tp4821
bS'James Newton Howard'
p4822
tp4823
Rp4824
ag2
(g22
S'\xd07l"p\x90\xe3?'
p4825
tp4826
Rp4827
ag2
(g22
S"\xb6\x7f\xd8U'\x80\xdc?"
p4828
tp4829
Rp4830
ag2
(g22
S'\xde\xc8<\xf2\x07{K@'
p4831
tp4832
Rp4833
ag2
(g22
S'\xdb\xf9~j\xbct\xd3?'
p4834
tp4835
Rp4836
ag2
(g22
S'^\xbaI\x0c\x02{K@'
p4837
tp4838
Rp4839
aF0.973
aF0.17
aF0.0151
aF0.652
aF-37.48
aF0.0454
aF94.373
aF0.0388
aa(lp4840
g2
(g3
(S'S12'
p4841
I0
I1
tp4842
Rp4843
(I3
S'|'
p4844
NNNI12
I1
I0
tp4845
bS"Don't Let Go"
p4846
tp4847
Rp4848
ag2
(g3
(S'S4'
p4849
I0
I1
tp4850
Rp4851
(I3
S'|'
p4852
NNNI4
I1
I0
tp4853
bS'Kofi'
p4854
tp4855
Rp4856
ag2
(g22
S'\xb48|\xe4\xf27\xe2?'
p4857
tp4858
Rp4859
ag2
(g22
S'@\xa7\xbaN\xbbE\xd9?'
p4860
tp4861
Rp4862
ag2
(g22
S'\xce\x88\xd2\xde\xe0\xeal@'
p4863
tp4864
Rp4865
ag2
(g22
S'\x00\x00\x00\x00\x00\x00\x00\x00'
p4866
tp4867
Rp4868
ag2
(g22
S'o\x12\x83\xc0\xca\xf9k@'
p4869
tp4870
Rp4871
aF0.127
aF0.752
aF0.435
aI0
aF-10.516
aF0.0464
aF149.985
aF0.774
aa(lp4872
g2
(g3
(S'S24'
p4873
I0
I1
tp4874
Rp4875
(I3
S'|'
p4876
NNNI24
I1
I0
tp4877
bS'Just A Pair Of Blue Eyes'
p4878
tp4879
Rp4880
ag2
(g3
(S'S12'
p4881
I0
I1
tp4882
Rp4883
(I3
S'|'
p4884
NNNI12
I1
I0
tp4885
bS'Tex Williams'
p4886
tp4887
Rp4888
ag2
(g22
S'Rd\x8f\x1e\xacA\xdb?'
p4889
tp4890
Rp4891
ag2
(g22
S'\t\x96\xd7\x19\xce\x12\xd4?'
p4892
tp4893
Rp4894
ag2
(g22
S'\x13\x0f(\x9brzb@'
p4895
tp4896
Rp4897
ag2
(g22
S'\x00\x00\x00\x00\x00\x00\x00\x00'
p4898
tp4899
Rp4900
ag2
(g22
S';\xdfO\x8d\x97\xeaa@'
p4901
tp4902
Rp4903
aF0.922
aF0.677
aF0.311
aF0.00714
aF-12.674
aF0.0883
aF168.585
aF0.934
aa(lp4904
g2
(g3
(S'S23'
p4905
I0
I1
tp4906
Rp4907
(I3
S'|'
p4908
NNNI23
I1
I0
tp4909
bS'Morgane regarde le ciel'
p4910
tp4911
Rp4912
ag2
(g3
(S'S8'
p4913
I0
I1
tp4914
Rp4915
(I3
S'|'
p4916
NNNI8
I1
I0
tp4917
bS'SANSHIRO'
p4918
tp4919
Rp4920
ag2
(g22
S'\xb5\xae\xdfLP\x04\xd7?'
p4921
tp4922
Rp4923
ag2
(g22
S'\x00\x00\x00\x00\x00\x00\x00\x00'
p4924
tp4925
Rp4926
ag2
(g22
S'\xf1F\xe6\x91?\x0fq@'
p4927
tp4928
Rp4929
ag2
(g22
S'H\xe1z\x14\xaeG\xd9?'
p4930
tp4931
Rp4932
ag2
(g22
S'\x87\x16\xd9\xce\xf7\x8bp@'
p4933
tp4934
Rp4935
aF0.715
aF0.471
aF0.338
aI0
aF-9.605
aF0.0383
aF146.305
aF0.648
aa(lp4936
g2
(g3
(S'S10'
p4937
I0
I1
tp4938
Rp4939
(I3
S'|'
p4940
NNNI10
I1
I0
tp4941
bS'The Healer'
p4942
tp4943
Rp4944
ag2
(g3
(S'S8'
p4945
I0
I1
tp4946
Rp4947
(I3
S'|'
p4948
NNNI8
I1
I0
tp4949
bS'Death SS'
p4950
tp4951
Rp4952
ag2
(g22
S'z\xbc\xe3\x1e\x8f\x00\xdf?'
p4953
tp4954
Rp4955
ag2
(g22
S'\x01\xc4{\x11\xea\xce\xdc?'
p4956
tp4957
Rp4958
ag2
(g22
S'\xe2;1\xeb\xc5$p@'
p4959
tp4960
Rp4961
ag2
(g22
S'\xf8S\xe3\xa5\x9b\xc4\xc0?'
p4962
tp4963
Rp4964
ag2
(g22
S'\n\xd7\xa3p=\xf2o@'
p4965
tp4966
Rp4967
aF0.000653
aF0.508
aF0.728
aF0.000916
aF-7.088
aF0.0315
aF101.988
aF0.249
aa(lp4968
g2
(g3
(S'S15'
p4969
I0
I1
tp4970
Rp4971
(I3
S'|'
p4972
NNNI15
I1
I0
tp4973
bS'Gin House Blues'
p4974
tp4975
Rp4976
ag2
(g3
(S'S12'
p4977
I0
I1
tp4978
Rp4979
(I3
S'|'
p4980
NNNI12
I1
I0
tp4981
bS'Bessie Smith'
p4982
tp4983
Rp4984
ag2
(g22
S'\xd5o\xc1\x8b\x92f\xe4?'
p4985
tp4986
Rp4987
ag2
(g22
S'\xf5\xc1*(6\xe8\xd9?'
p4988
tp4989
Rp4990
ag2
(g22
S'\xe8\xa4\xf7\x8d\xafvh@'
p4991
tp4992
Rp4993
ag2
(g22
S'y\xe9&1\x08\xac\xd4?'
p4994
tp4995
Rp4996
ag2
(g22
S'=\n\xd7\xa3p\xddg@'
p4997
tp4998
Rp4999
aF0.996
aF0.566
aF0.121
aF0.0158
aF-8.548
aF0.0363
aF75.89
aF0.388
aa(lp5000
g2
(g3
(S'S5'
p5001
I0
I1
tp5002
Rp5003
(I3
S'|'
p5004
NNNI5
I1
I0
tp5005
bS'Intro'
p5006
tp5007
Rp5008
ag2
(g3
(S'S8'
p5009
I0
I1
tp5010
Rp5011
(I3
S'|'
p5012
NNNI8
I1
I0
tp5013
bS'Lou Reed'
p5014
tp5015
Rp5016
ag2
(g22
S'\xa3C\xa8\xcc:\xf1\xe9?'
p5017
tp5018
Rp5019
ag2
(g22
S'\xee\xe0d;\xb1\xd8\xde?'
p5020
tp5021
Rp5022
ag2
(g22
S'\x8fpZ\xf0\xa2\xc9[@'
p5023
tp5024
Rp5025
ag2
(g22
S'm\xe7\xfb\xa9\xf1\xd2\x07@'
p5026
tp5027
Rp5028
ag2
(g22
S'\x8bl\xe7\xfb\xa9\xc9[@'
p5029
tp5030
Rp5031
aF0.0621
aF0.381
aF0.783
aF0.482
aF-7.27
aF0.0709
aF111.059
aF0.694
aa(lp5032
g2
(g3
(S'S14'
p5033
I0
I1
tp5034
Rp5035
(I3
S'|'
p5036
NNNI14
I1
I0
tp5037
bS'Duo Liu Yi Hui'
p5038
tp5039
Rp5040
ag2
(g3
(S'S11'
p5041
I0
I1
tp5042
Rp5043
(I3
S'|'
p5044
NNNI11
I1
I0
tp5045
bS'Daniel Chan'
p5046
tp5047
Rp5048
ag2
(g22
S'UzLu\xb8F\xdc?'
p5049
tp5050
Rp5051
ag2
(g22
S'\x0c\x87\xae\xb7\xc3L\xd4?'
p5052
tp5053
Rp5054
ag2
(g22
S'k\x9aw\x9c\xa2\xc4k@'
p5055
tp5056
Rp5057
ag2
(g22
S'\x1f\x85\xebQ\xb8\x1e\xdd?'
p5058
tp5059
Rp5060
ag2
(g22
S'\x8bl\xe7\xfb\xa9\xa5j@'
p5061
tp5062
Rp5063
aF0.484
aF0.511
aF0.557
aF0.000242
aF-8.7
aF0.0293
aF162.001
aF0.394
aa(lp5064
g2
(g3
(S'S12'
p5065
I0
I1
tp5066
Rp5067
(I3
S'|'
p5068
NNNI12
I1
I0
tp5069
bS'Yo Te Camelo'
p5070
tp5071
Rp5072
ag2
(g3
(S'S22'
p5073
I0
I1
tp5074
Rp5075
(I3
S'|'
p5076
NNNI22
I1
I0
tp5077
bS'Los Rumberos Catalanes'
p5078
tp5079
Rp5080
ag2
(g22
S'{\x04y\xb6\xddk\xd6?'
p5081
tp5082
Rp5083
ag2
(g22
S'\xb4\x0f\xe1\x86\xd3\xcb\xca?'
p5084
tp5085
Rp5086
ag2
(g22
S'~W\x04\xff[\x86a@'
p5087
tp5088
Rp5089
ag2
(g22
S')\\\x8f\xc2\xf5(\xe4?'
p5090
tp5091
Rp5092
ag2
(g22
S'`\xe5\xd0"\xdb\x99_@'
p5093
tp5094
Rp5095
aF0.247
aF0.551
aF0.634
aF0.000591
aF-16.366
aF0.26
aF80.798
aF0.84
aa(lp5096
g2
(g3
(S'S15'
p5097
I0
I1
tp5098
Rp5099
(I3
S'|'
p5100
NNNI15
I1
I0
tp5101
bS'Ai De Ka Luo Li'
p5102
tp5103
Rp5104
ag2
(g3
(S'S17'
p5105
I0
I1
tp5106
Rp5107
(I3
S'|'
p5108
NNNI17
I1
I0
tp5109
bS'Michelle & Vickie'
p5110
tp5111
Rp5112
ag2
(g22
S'lF\xc1\xbd\xef\x93\xd7?'
p5113
tp5114
Rp5115
ag2
(g22
S' 4\x8b\x02\xbb\xd0\xd8?'
p5116
tp5117
Rp5118
ag2
(g22
S'+\x18\x95\xd4\tGh@'
p5119
tp5120
Rp5121
ag2
(g22
S'\x00\x00\x00\x00\x00\x00\x00\x00'
p5122
tp5123
Rp5124
ag2
(g22
S'\x02+\x87\x16\xd9jg@'
p5125
tp5126
Rp5127
aF0.0266
aF0.839
aF0.403
aI0
aF-7.49
aF0.178
aF134.133
aF0.387
aa(lp5128
g2
(g3
(S'S6'
p5129
I0
I1
tp5130
Rp5131
(I3
S'|'
p5132
NNNI6
I1
I0
tp5133
bS'Belina'
p5134
tp5135
Rp5136
ag2
(g3
(S'S12'
p5137
I0
I1
tp5138
Rp5139
(I3
S'|'
p5140
NNNI12
I1
I0
tp5141
bS'Paulo Flores'
p5142
tp5143
Rp5144
ag2
(g22
S'Xv\xa7w\xb1\xcf\xdd?'
p5145
tp5146
Rp5147
ag2
(g22
S'\xb2\x97\x80\x01\xb5\x05\xd4?'
p5148
tp5149
Rp5150
ag2
(g22
S'\n\xdc\xba\x9b\xa7\xadq@'
p5151
tp5152
Rp5153
ag2
(g22
S'\xc3\xf5(\\\x8f\xc2\xd5?'
p5154
tp5155
Rp5156
ag2
(g22
S'`\xe5\xd0"\xdbiq@'
p5157
tp5158
Rp5159
aF0.855
aF0.444
aF0.17
aF0.000889
aF-12.025
aF0.0306
aF100.271
aF0.0763
aa(lp5160
g2
(g3
(S'S14'
p5161
I0
I1
tp5162
Rp5163
(I3
S'|'
p5164
NNNI14
I1
I0
tp5165
bS'Bishop Hopping'
p5166
tp5167
Rp5168
ag2
(g3
(S'S14'
p5169
I0
I1
tp5170
Rp5171
(I3
S'|'
p5172
NNNI14
I1
I0
tp5173
bS'Phantomsmasher'
p5174
tp5175
Rp5176
ag2
(g22
S'\x17\x07$\x9as+\xd0?'
p5177
tp5178
Rp5179
ag2
(g22
S'\xf2S\x07\xd7\xaa\xd3\xd3?'
p5180
tp5181
Rp5182
ag2
(g22
S'6\xcd;NQ\xe2w@'
p5183
tp5184
Rp5185
ag2
(g22
S'D\x8bl\xe7\xfb\xa9\xd1?'
p5186
tp5187
Rp5188
ag2
(g22
S'\xcb\xa1E\xb6\xf3\xe1u@'
p5189
tp5190
Rp5191
aF0.0789
aF0.171
aF0.944
aF0.278
aF-5.856
aF0.352
aF83.98
aF0.129
aa(lp5192
g2
(g3
(S'S8'
p5193
I0
I1
tp5194
Rp5195
(I3
S'|'
p5196
NNNI8
I1
I0
tp5197
bS'Kids Now'
p5198
tp5199
Rp5200
ag2
(g3
(S'S12'
p5201
I0
I1
tp5202
Rp5203
(I3
S'|'
p5204
NNNI12
I1
I0
tp5205
bS'George Lopez'
p5206
tp5207
Rp5208
ag2
(g22
S'\xd9\xa2*\x00l`\xe5?'
p5209
tp5210
Rp5211
ag2
(g22
S'\x8d\xa8\x97\x85\xf7\x8a\xe0?'
p5212
tp5213
Rp5214
ag2
(g22
S'\x88\xf4\xdb\xd7\x81\xf9j@'
p5215
tp5216
Rp5217
ag2
(g22
S'\x00\x00\x00\x00\x00\x00\x00\x00'
p5218
tp5219
Rp5220
ag2
(g22
S'\xa0\x1a/\xdd$\x9aj@'
p5221
tp5222
Rp5223
aF0.863
aF0.349
aF0.866
aF1.9e-05
aF-13.594
aF0.938
aF73.779
aF0.11
aa(lp5224
g2
(g3
(S'S28'
p5225
I0
I1
tp5226
Rp5227
(I3
S'|'
p5228
NNNI28
I1
I0
tp5229
bS'Lust (1995 Digital Remaster)'
p5230
tp5231
Rp5232
ag2
(g3
(S'S9'
p5233
I0
I1
tp5234
Rp5235
(I3
S'|'
p5236
NNNI9
I1
I0
tp5237
bS'Bas-Sheva'
p5238
tp5239
Rp5240
ag2
(g22
S'\x00\x00\x00\x00\x00\x00\x00\x00'
p5241
tp5242
Rp5243
ag2
(g22
S"\xf3U'\xed\x9aE\xd2?"
p5244
tp5245
Rp5246
ag2
(g22
S'4K\x02\xd4\xd4Tf@'
p5247
tp5248
Rp5249
ag2
(g22
S'\xcb\xa1E\xb6\xf3\xfd\xd4?'
p5250
tp5251
Rp5252
ag2
(g22
S'\x00\x00\x00\x00\x00le@'
p5253
tp5254
Rp5255
aF0.544
aF0.348
aF0.359
aF0.152
aF-14.876
aF0.0568
aF112.254
aF0.24
aa(lp5256
g2
(g3
(S'S18'
p5257
I0
I1
tp5258
Rp5259
(I3
S'|'
p5260
NNNI18
I1
I0
tp5261
bS'The Jumping Master'
p5262
tp5263
Rp5264
ag2
(g3
(S'S11'
p5265
I0
I1
tp5266
Rp5267
(I3
S'|'
p5268
NNNI11
I1
I0
tp5269
bS'Mikey Dread'
p5270
tp5271
Rp5272
ag2
(g22
S'\xb8\xdf\xca\x96\xea\xbd\xe2?'
p5273
tp5274
Rp5275
ag2
(g22
S'y\xc7\x07\x1e\x8b\x11\xd7?'
p5276
tp5277
Rp5278
ag2
(g22
S'\xdd\xefP\x14h]s@'
p5279
tp5280
Rp5281
ag2
(g22
S'\x10X9\xb4\xc8v\xd6?'
p5282
tp5283
Rp5284
ag2
(g22
S'=\n\xd7\xa3p\x93r@'
p5285
tp5286
Rp5287
aF0.00678
aF0.796
aF0.734
aF0.00122
aF-6.84
aF0.206
aF143.647
aF0.84
aa(lp5288
g2
(g3
(S'S26'
p5289
I0
I1
tp5290
Rp5291
(I3
S'|'
p5292
NNNI26
I1
I0
tp5293
bS'Morpha Too [Alternate Mix]'
p5294
tp5295
Rp5296
ag2
(g3
(S'S8'
p5297
I0
I1
tp5298
Rp5299
(I3
S'|'
p5300
NNNI8
I1
I0
tp5301
bS'Big Star'
p5302
tp5303
Rp5304
ag2
(g22
S'\xc2\xef\xfbl\x9a\xb6\xe7?'
p5305
tp5306
Rp5307
ag2
(g22
S'@\x9d\x06\xfd\xc9\xc6\xdf?'
p5308
tp5309
Rp5310
ag2
(g22
S'8J^\x9dc\x00V@'
p5311
tp5312
Rp5313
ag2
(g22
S'\x00\x00\x00\x00\x00\x00\x00\x00'
p5314
tp5315
Rp5316
ag2
(g22
S'X9\xb4\xc8vVT@'
p5317
tp5318
Rp5319
aF0.848
aF0.488
aF0.248
aF3.1e-05
aF-13.309
aF0.0355
aF116.337
aF0.348
aa(lp5320
g2
(g3
(S'S14'
p5321
I0
I1
tp5322
Rp5323
(I3
S'|'
p5324
NNNI14
I1
I0
tp5325
bS'Falling Leaves'
p5326
tp5327
Rp5328
ag2
(g3
(S'S13'
p5329
I0
I1
tp5330
Rp5331
(I3
S'|'
p5332
NNNI13
I1
I0
tp5333
bS'Grandpa Jones'
p5334
tp5335
Rp5336
ag2
(g22
S'7\xac\xebNb\xd7\xdc?'
p5337
tp5338
Rp5339
ag2
(g22
S'2>\xb4\x88\xdd7\xd5?'
p5340
tp5341
Rp5342
ag2
(g22
S'\xc7\xba\xb8\x8d\x06\xd7c@'
p5343
tp5344
Rp5345
ag2
(g22
S'\xc9v\xbe\x9f\x1a/\xdd?'
p5346
tp5347
Rp5348
ag2
(g22
S'+\x87\x16\xd9\xce#b@'
p5349
tp5350
Rp5351
aF0.768
aF0.568
aF0.325
aI0
aF-8.824
aF0.0297
aF124.462
aF0.787
aa(lp5352
g2
(g3
(S'S20'
p5353
I0
I1
tp5354
Rp5355
(I3
S'|'
p5356
NNNI20
I1
I0
tp5357
bS'Tastes So Good To Me'
p5358
tp5359
Rp5360
ag2
(g3
(S'S13'
p5361
I0
I1
tp5362
Rp5363
(I3
S'|'
p5364
NNNI13
I1
I0
tp5365
bS'Cross Country'
p5366
tp5367
Rp5368
ag2
(g22
S'\x04C\xf7\xac4\x03\xd8?'
p5369
tp5370
Rp5371
ag2
(g22
S'Q\xa2\xed\xed\xea\xc3\xd6?'
p5372
tp5373
Rp5374
ag2
(g22
S'\x10X9\xb4\xc8\xbeg@'
p5375
tp5376
Rp5377
ag2
(g22
S'\n\xd7\xa3p=\n\xdf?'
p5378
tp5379
Rp5380
ag2
(g22
S'\xc9v\xbe\x9f\x1a\xf7f@'
p5381
tp5382
Rp5383
aF0.198
aF0.357
aF0.825
aF5.46e-06
aF-7.885
aF0.0915
aF186.314
aF0.779
aa(lp5384
g2
(g3
(S'S10'
p5385
I0
I1
tp5386
Rp5387
(I3
S'|'
p5388
NNNI10
I1
I0
tp5389
bS'Dark Horse'
p5390
tp5391
Rp5392
ag2
(g3
(S'S8'
p5393
I0
I1
tp5394
Rp5395
(I3
S'|'
p5396
NNNI8
I1
I0
tp5397
bS'Converge'
p5398
tp5399
Rp5400
ag2
(g22
S'\x95\xc0\x94\xb5\xaa\xef\xe9?'
p5401
tp5402
Rp5403
ag2
(g22
S'\xd6o\xdc\x18=\xff\xe0?'
p5404
tp5405
Rp5406
ag2
(g22
S'\xd0\x0f#\x84G\xd8e@'
p5407
tp5408
Rp5409
ag2
(g22
S'333333\xc3?'
p5410
tp5411
Rp5412
ag2
(g22
S'\xf0\xa7\xc6K7\xf1d@'
p5413
tp5414
Rp5415
aF4.05e-06
aF0.0935
aF0.989
aF0.807
aF-3.154
aF0.158
aF175.469
aF0.108
aa(lp5416
g2
(g3
(S'S17'
p5417
I0
I1
tp5418
Rp5419
(I3
S'|'
p5420
NNNI17
I1
I0
tp5421
bS'Blood On The Snow'
p5422
tp5423
Rp5424
ag2
(g3
(S'S6'
p5425
I0
I1
tp5426
Rp5427
(I3
S'|'
p5428
NNNI6
I1
I0
tp5429
bS'Drexel'
p5430
tp5431
Rp5432
ag2
(g22
S'fL\xbe\xe7h\xbf\xdd?'
p5433
tp5434
Rp5435
ag2
(g22
S'\x1b\xab\xf1Y\x05~\xd7?'
p5436
tp5437
Rp5438
ag2
(g22
S'u\xb0\xfe\xcfaJl@'
p5439
tp5440
Rp5441
ag2
(g22
S'\xdfO\x8d\x97n\x12\x00@'
p5442
tp5443
Rp5444
ag2
(g22
S'\xbaI\x0c\x02+\x0fk@'
p5445
tp5446
Rp5447
aF0.162
aF0.532
aF0.835
aF0.00485
aF-9.442
aF0.0263
aF137.338
aF0.571
aa(lp5448
g2
(g3
(S'S29'
p5449
I0
I1
tp5450
Rp5451
(I3
S'|'
p5452
NNNI29
I1
I0
tp5453
bS'Gud Har Ein Plan Med Ditt Liv'
p5454
tp5455
Rp5456
ag2
(g3
(S'S18'
p5457
I0
I1
tp5458
Rp5459
(I3
S'|'
p5460
NNNI18
I1
I0
tp5461
bS'Mons Leidvin Takle'
p5462
tp5463
Rp5464
ag2
(g22
S"Fa='\x85a\xcc?"
p5465
tp5466
Rp5467
ag2
(g22
S'\xdb<\xa2\xac\xe0\x12\xd2?'
p5468
tp5469
Rp5470
ag2
(g22
S'&\xfcR?o\nj@'
p5471
tp5472
Rp5473
ag2
(g22
S'ffffff\xd6?'
p5474
tp5475
Rp5476
ag2
(g22
S'\x17\xd9\xce\xf7S?i@'
p5477
tp5478
Rp5479
aF0.951
aF0.43
aF0.269
aI0
aF-7.343
aF0.0296
aF79.533
aF0.36
aa(lp5480
g2
(g3
(S'S19'
p5481
I0
I1
tp5482
Rp5483
(I3
S'|'
p5484
NNNI19
I1
I0
tp5485
bS"I'm Your Boogie Man"
p5486
tp5487
Rp5488
ag2
(g3
(S'S15'
p5489
I0
I1
tp5490
Rp5491
(I3
S'|'
p5492
NNNI15
I1
I0
tp5493
bS'Cool Connection'
p5494
tp5495
Rp5496
ag2
(g22
S'3\x97rA\x82\x95\xb7?'
p5497
tp5498
Rp5499
ag2
(g22
S'\x00\x00\x00\x00\x00\x00\x00\x00'
p5500
tp5501
Rp5502
ag2
(g22
S'\x0eJ\x98i\xfb$q@'
p5503
tp5504
Rp5505
ag2
(g22
S'V\x0e-\xb2\x9d\xef\xd7?'
p5506
tp5507
Rp5508
ag2
(g22
S'\x9e\xef\xa7\xc6K\xf9p@'
p5509
tp5510
Rp5511
aF0.0032
aF0.715
aF0.626
aF0.0991
aF-11.471
aF0.0456
aF120.021
aF0.822
aa(lp5512
g2
(g3
(S'S17'
p5513
I0
I1
tp5514
Rp5515
(I3
S'|'
p5516
NNNI17
I1
I0
tp5517
bS"Should've Said No"
p5518
tp5519
Rp5520
ag2
(g3
(S'S12'
p5521
I0
I1
tp5522
Rp5523
(I3
S'|'
p5524
NNNI12
I1
I0
tp5525
bS'Taylor Swift'
p5526
tp5527
Rp5528
ag2
(g22
S'\x05\xd4\x00[\xd3x\xec?'
p5529
tp5530
Rp5531
ag2
(g22
S'\xfa3_p\x16\xeb\xeb?'
p5532
tp5533
Rp5534
ag2
(g22
S'Yni5$\xb9n@'
p5535
tp5536
Rp5537
ag2
(g22
S'1\x08\xac\x1cZd\xbb?'
p5538
tp5539
Rp5540
ag2
(g22
S'fffff\x06m@'
p5541
tp5542
Rp5543
aF0.0113
aF0.474
aF0.773
aI0
aF-3.662
aF0.0307
aF167.974
aF0.467
aa(lp5544
g2
(g3
(S'S12'
p5545
I0
I1
tp5546
Rp5547
(I3
S'|'
p5548
NNNI12
I1
I0
tp5549
bS'Rainbow Eyes'
p5550
tp5551
Rp5552
ag2
(g3
(S'S7'
p5553
I0
I1
tp5554
Rp5555
(I3
S'|'
p5556
NNNI7
I1
I0
tp5557
bS'Rainbow'
p5558
tp5559
Rp5560
ag2
(g22
S'\x11\x8b\xc92\x9bk\xe6?'
p5561
tp5562
Rp5563
ag2
(g22
S'w\x9b6\x1a\x96^\xe0?'
p5564
tp5565
Rp5566
ag2
(g22
S'\xc7):\x92\xcba|@'
p5567
tp5568
Rp5569
ag2
(g22
S'\xd5x\xe9&1\x08\xdc?'
p5570
tp5571
Rp5572
ag2
(g22
S'o\x12\x83\xc0\xca;y@'
p5573
tp5574
Rp5575
aF0.965
aF0.151
aF0.146
aF0.145
aF-19.757
aF0.0369
aF66.079
aF0.178
aa(lp5576
g2
(g3
(S'S25'
p5577
I0
I1
tp5578
Rp5579
(I3
S'|'
p5580
NNNI25
I1
I0
tp5581
bS'Boy! What Love Has to Me!'
p5582
tp5583
Rp5584
ag2
(g3
(S'S12'
p5585
I0
I1
tp5586
Rp5587
(I3
S'|'
p5588
NNNI12
I1
I0
tp5589
bS'Nancy Walker'
p5590
tp5591
Rp5592
ag2
(g22
S'qMQ\x8a\x17\x9c\xd9?'
p5593
tp5594
Rp5595
ag2
(g22
S'\x1c+\x82kx|\xc4?'
p5596
tp5597
Rp5598
ag2
(g22
S'\xf0\x8a\xe0\x7f+.g@'
p5599
tp5600
Rp5601
ag2
(g22
S'R\xb8\x1e\x85\xebQ\xd8?'
p5602
tp5603
Rp5604
ag2
(g22
S'\xaeG\xe1z\x14Nf@'
p5605
tp5606
Rp5607
aF0.992
aF0.488
aF0.0614
aF5.84e-06
aF-12.082
aF0.0383
aF138.25
aF0.306
aa(lp5608
g2
(g3
(S'S2'
p5609
I0
I1
tp5610
Rp5611
(I3
S'|'
p5612
NNNI2
I1
I0
tp5613
bS'Om'
p5614
tp5615
Rp5616
ag2
(g3
(S'S12'
p5617
I0
I1
tp5618
Rp5619
(I3
S'|'
p5620
NNNI12
I1
I0
tp5621
bS'Jane Winther'
p5622
tp5623
Rp5624
ag2
(g22
S'\x81\xd3`\xef#P\xd4?'
p5625
tp5626
Rp5627
ag2
(g22
S'd\xaf\xf2M%\x19\xd6?'
p5628
tp5629
Rp5630
ag2
(g22
S'X\xa85\xcd;\x91u@'
p5631
tp5632
Rp5633
ag2
(g22
S'L7\x89A`\xe5\xe4?'
p5634
tp5635
Rp5636
ag2
(g22
S'\xdfO\x8d\x97n\xfas@'
p5637
tp5638
Rp5639
aF0.96
aF0.0666
aF0.00616
aF0.197
aF-19.708
aF0.0504
aF72.585
aF0.0529
aa(lp5640
g2
(g3
(S'S12'
p5641
I0
I1
tp5642
Rp5643
(I3
S'|'
p5644
NNNI12
I1
I0
tp5645
bS'Maria Morena'
p5646
tp5647
Rp5648
ag2
(g3
(S'S6'
p5649
I0
I1
tp5650
Rp5651
(I3
S'|'
p5652
NNNI6
I1
I0
tp5653
bS'Jyve V'
p5654
tp5655
Rp5656
ag2
(g22
S'/\xac\xf4\xa5\x8f\xaf\xdd?'
p5657
tp5658
Rp5659
ag2
(g22
S'\xc68\x86\x00\x85\x13\xcf?'
p5660
tp5661
Rp5662
ag2
(g22
S'V\xb7zNz\xfdg@'
p5663
tp5664
Rp5665
ag2
(g22
S'\x81\x95C\x8bl\xe7\xcb?'
p5666
tp5667
Rp5668
ag2
(g22
S'q=\n\xd7\xa3Hg@'
p5669
tp5670
Rp5671
aF0.000748
aF0.801
aF0.951
aF6.47e-06
aF-6.907
aF0.03
aF132.069
aF0.976
aa(lp5672
g2
(g3
(S'S15'
p5673
I0
I1
tp5674
Rp5675
(I3
S'|'
p5676
NNNI15
I1
I0
tp5677
bS'Phorever People'
p5678
tp5679
Rp5680
ag2
(g3
(S'S6'
p5681
I0
I1
tp5682
Rp5683
(I3
S'|'
p5684
NNNI6
I1
I0
tp5685
bS'Shamen'
p5686
tp5687
Rp5688
ag2
(g22
S'\xf5a\x10q_c\xe3?'
p5689
tp5690
Rp5691
ag2
(g22
S'\xb6\xa0\\Z\xbd1\xd9?'
p5692
tp5693
Rp5694
ag2
(g22
S'\xa2b\x9c\xbf\x89Dr@'
p5695
tp5696
Rp5697
ag2
(g22
S'R\xb8\x1e\x85\xebQ\xd8?'
p5698
tp5699
Rp5700
ag2
(g22
S'\xb4\xc8v\xbe\x9f\x12r@'
p5701
tp5702
Rp5703
aF0.0514
aF0.697
aF0.939
aF0.000107
aF-6.057
aF0.0578
aF125.785
aF0.797
aa(lp5704
g2
(g3
(S'S10'
p5705
I0
I1
tp5706
Rp5707
(I3
S'|'
p5708
NNNI10
I1
I0
tp5709
bS'Hart(z) IV'
p5710
tp5711
Rp5712
ag2
(g3
(S'S9'
p5713
I0
I1
tp5714
Rp5715
(I3
S'|'
p5716
NNNI9
I1
I0
tp5717
bS'Eko Fresh'
p5718
tp5719
Rp5720
ag2
(g22
S'\xf4\tMSW\x10\xe6?'
p5721
tp5722
Rp5723
ag2
(g22
S'\xea\xe5\x17h(\xc7\xd6?'
p5724
tp5725
Rp5726
ag2
(g22
S'\x13~\xa9\x9f7\xc4m@'
p5727
tp5728
Rp5729
ag2
(g22
S'\x17\xd9\xce\xf7S\xe3\xc5?'
p5730
tp5731
Rp5732
ag2
(g22
S'L7\x89A`\x89l@'
p5733
tp5734
Rp5735
aF0.0468
aF0.423
aF0.907
aF1.16e-06
aF-1.846
aF0.403
aF174.297
aF0.205
aa(lp5736
g2
(g3
(S'S10'
p5737
I0
I1
tp5738
Rp5739
(I3
S'|'
p5740
NNNI10
I1
I0
tp5741
bS'Down On Me'
p5742
tp5743
Rp5744
ag2
(g3
(S'S12'
p5745
I0
I1
tp5746
Rp5747
(I3
S'|'
p5748
NNNI12
I1
I0
tp5749
bS'Janis Joplin'
p5750
tp5751
Rp5752
ag2
(g22
S'\xbaa\x89$\x1d\x8c\xea?'
p5753
tp5754
Rp5755
ag2
(g22
S'\xa0\x12\xb6\xa7\xe9\xea\xe1?'
p5756
tp5757
Rp5758
ag2
(g22
S'\x1b*\xc6\xf9\x9b\xe4f@'
p5759
tp5760
Rp5761
ag2
(g22
S'\xac\x1cZd;\xdf\x15@'
p5762
tp5763
Rp5764
ag2
(g22
S'\xaa\xf1\xd2Mb\\f@'
p5765
tp5766
Rp5767
aF0.0723
aF0.583
aF0.59
aF0.255
aF-11.648
aF0.0402
aF141.776
aF0.846
aa(lp5768
g2
(g3
(S'S33'
p5769
I0
I1
tp5770
Rp5771
(I3
S'|'
p5772
NNNI33
I1
I0
tp5773
bS'Do You Know? (The Ping Pong Song)'
p5774
tp5775
Rp5776
ag2
(g3
(S'S16'
p5777
I0
I1
tp5778
Rp5779
(I3
S'|'
p5780
NNNI16
I1
I0
tp5781
bS'Enrique Iglesias'
p5782
tp5783
Rp5784
ag2
(g22
S'\xa4\xda\xe7\xeb\xaa.\xeb?'
p5785
tp5786
Rp5787
ag2
(g22
S"@\x1c\x18'{j\xe9?"
p5788
tp5789
Rp5790
ag2
(g22
S'k\x9aw\x9c\xa2\xc4k@'
p5791
tp5792
Rp5793
ag2
(g22
S'\x0c\x02+\x87\x16\xd9\xd6?'
p5794
tp5795
Rp5796
ag2
(g22
S'\x7fj\xbct\x93\xd0j@'
p5797
tp5798
Rp5799
aF0.0447
aF0.749
aF0.766
aI0
aF-4.329
aF0.0477
aF114.998
aF0.671
aa(lp5800
g2
(g3
(S'S7'
p5801
I0
I1
tp5802
Rp5803
(I3
S'|'
p5804
NNNI7
I1
I0
tp5805
bS'No. 284'
p5806
tp5807
Rp5808
ag2
(g3
(S'S4'
p5809
I0
I1
tp5810
Rp5811
(I3
S'|'
p5812
NNNI4
I1
I0
tp5813
bS'Kali'
p5814
tp5815
Rp5816
ag2
(g22
S'L\r\xff\x90\x1fc\xe1?'
p5817
tp5818
Rp5819
ag2
(g22
S'\xec\n\x1fj\x8f\x8d\xd9?'
p5820
tp5821
Rp5822
ag2
(g22
S'E/\xa3X\xee\xcf\x82@'
p5823
tp5824
Rp5825
ag2
(g22
S'\x00\x00\x00\x00\x00\x00\x00\x00'
p5826
tp5827
Rp5828
ag2
(g22
S'\xc3\xf5(\\\x8f\xb2\x82@'
p5829
tp5830
Rp5831
aF0.00145
aF0.728
aF0.703
aF0.807
aF-11.35
aF0.056
aF129.007
aF0.453
aa(lp5832
g2
(g3
(S'S21'
p5833
I0
I1
tp5834
Rp5835
(I3
S'|'
p5836
NNNI21
I1
I0
tp5837
bS'Silence tells you all'
p5838
tp5839
Rp5840
ag2
(g3
(S'S3'
p5841
I0
I1
tp5842
Rp5843
(I3
S'|'
p5844
NNNI3
I1
I0
tp5845
bS'Ino'
p5846
tp5847
Rp5848
ag2
(g22
S'\x8arvi\xc3\xae\xdd?'
p5849
tp5850
Rp5851
ag2
(g22
S'\xaae\xb4r\xb7\xaa\xd7?'
p5852
tp5853
Rp5854
ag2
(g22
S'\x81!\xab[\xbd\x85x@'
p5855
tp5856
Rp5857
ag2
(g22
S'\x00\x00\x00\x00\x00\x00\x00\x00'
p5858
tp5859
Rp5860
ag2
(g22
S'\xe7\xfb\xa9\xf1\xd2\xfbw@'
p5861
tp5862
Rp5863
aF0.18
aF0.636
aF0.694
aF0.829
aF-11.857
aF0.05
aF125.025
aF0.87
aa(lp5864
g2
(g3
(S'S4'
p5865
I0
I1
tp5866
Rp5867
(I3
S'|'
p5868
NNNI4
I1
I0
tp5869
bS'Play'
p5870
tp5871
Rp5872
ag2
(g3
(S'S14'
p5873
I0
I1
tp5874
Rp5875
(I3
S'|'
p5876
NNNI14
I1
I0
tp5877
bS'Jennifer Lopez'
p5878
tp5879
Rp5880
ag2
(g22
S'\x8c\xbc>\xc1\\\x11\xec?'
p5881
tp5882
Rp5883
ag2
(g22
S'@\xb2\xe4\x19\xff\xf2\xe1?'
p5884
tp5885
Rp5886
ag2
(g22
S'\x95\xb7#\x9c\x16rj@'
p5887
tp5888
Rp5889
ag2
(g22
S'\x0e-\xb2\x9d\xef\xa7\xc6?'
p5890
tp5891
Rp5892
ag2
(g22
S'\xaeG\xe1z\x14rj@'
p5893
tp5894
Rp5895
aF0.0303
aF0.775
aF0.729
aF0.00247
aF-4.229
aF0.162
aF104.719
aF0.895
aa(lp5896
g2
(g3
(S'S23'
p5897
I0
I1
tp5898
Rp5899
(I3
S'|'
p5900
NNNI23
I1
I0
tp5901
bS'The Shaskeen / Gan Ainm'
p5902
tp5903
Rp5904
ag2
(g3
(S'S18'
p5905
I0
I1
tp5906
Rp5907
(I3
S'|'
p5908
NNNI18
I1
I0
tp5909
bS'Cherish The Ladies'
p5910
tp5911
Rp5912
ag2
(g22
S'\xea\xae=\\\xb6\x9b\xe2?'
p5913
tp5914
Rp5915
ag2
(g22
S'\x04*\x8d\xe8\x19\xf6\xd8?'
p5916
tp5917
Rp5918
ag2
(g22
S'\xe5D\xbb\n)\xda`@'
p5919
tp5920
Rp5921
ag2
(g22
S'+\x87\x16\xd9\xce\xf7\xb3?'
p5922
tp5923
Rp5924
ag2
(g22
S'\xa6\x9b\xc4 \xb0B`@'
p5925
tp5926
Rp5927
aF0.992
aF0.52
aF0.183
aF0.247
aF-13.342
aF0.0534
aF119.203
aF0.939
aa(lp5928
g2
(g3
(S'S5'
p5929
I0
I1
tp5930
Rp5931
(I3
S'|'
p5932
NNNI5
I1
I0
tp5933
bS'Congo'
p5934
tp5935
Rp5936
ag2
(g3
(S'S11'
p5937
I0
I1
tp5938
Rp5939
(I3
S'|'
p5940
NNNI11
I1
I0
tp5941
bS'Edmundo Ros'
p5942
tp5943
Rp5944
ag2
(g22
S'\x88\nc\x85v\xac\xdc?'
p5945
tp5946
Rp5947
ag2
(g22
S')\xae\xe1@o\xb6\xd4?'
p5948
tp5949
Rp5950
ag2
(g22
S'u<f\xa02\x1ce@'
p5951
tp5952
Rp5953
ag2
(g22
S'\xb2\x9d\xef\xa7\xc6K\xef?'
p5954
tp5955
Rp5956
ag2
(g22
S'\xe1z\x14\xaeG\x15c@'
p5957
tp5958
Rp5959
aF0.44
aF0.54
aF0.447
aF0.347
aF-15.899
aF0.0326
aF99.548
aF0.909
aa(lp5960
g2
(g3
(S'S13'
p5961
I0
I1
tp5962
Rp5963
(I3
S'|'
p5964
NNNI13
I1
I0
tp5965
bS'Where Are You'
p5966
tp5967
Rp5968
ag2
(g3
(S'S17'
p5969
I0
I1
tp5970
Rp5971
(I3
S'|'
p5972
NNNI17
I1
I0
tp5973
bS'Abbott & Chambers'
p5974
tp5975
Rp5976
ag2
(g22
S'\x9fZU\xec\x81\xf5\xda?'
p5977
tp5978
Rp5979
ag2
(g22
S'\xac@\x82\xc3\x1b\x06\xcc?'
p5980
tp5981
Rp5982
ag2
(g22
S'9EGry"{@'
p5983
tp5984
Rp5985
ag2
(g22
S'\x00\x00\x00\x00\x00\x00\x00\x00'
p5986
tp5987
Rp5988
ag2
(g22
S'\x08\xac\x1cZd\x7fz@'
p5989
tp5990
Rp5991
aF0.582
aF0.501
aF0.523
aI0
aF-6.906
aF0.0324
aF156.108
aF0.24
aa(lp5992
g2
(g3
(S'S4'
p5993
I0
I1
tp5994
Rp5995
(I3
S'|'
p5996
NNNI4
I1
I0
tp5997
bS'July'
p5998
tp5999
Rp6000
ag2
(g3
(S'S10'
p6001
I0
I1
tp6002
Rp6003
(I3
S'|'
p6004
NNNI10
I1
I0
tp6005
bS'Al DiMeola'
p6006
tp6007
Rp6008
ag2
(g22
S'\xde\xcc\xa0\x97\x96\x93\xe4?'
p6009
tp6010
Rp6011
ag2
(g22
S'\xd5\t\xf7t\x7f\x89\xdd?'
p6012
tp6013
Rp6014
ag2
(g22
S'\xde\xabV&|\xfds@'
p6015
tp6016
Rp6017
ag2
(g22
S'\x00\x00\x00\x00\x00\x00\x00\x00'
p6018
tp6019
Rp6020
ag2
(g22
S'`\xe5\xd0"\xdb\x89s@'
p6021
tp6022
Rp6023
aF0.323
aF0.636
aF0.686
aF0.815
aF-10.219
aF0.0386
aF103.002
aF0.77
aa(lp6024
g2
(g3
(S'S25'
p6025
I0
I1
tp6026
Rp6027
(I3
S'|'
p6028
NNNI25
I1
I0
tp6029
bS'Warm Embrace (LP Version)'
p6030
tp6031
Rp6032
ag2
(g3
(S'S30'
p6033
I0
I1
tp6034
Rp6035
(I3
S'|'
p6036
NNNI30
I1
I0
tp6037
bS'Twista & The Speedknot Mobstaz'
p6038
tp6039
Rp6040
ag2
(g22
S'V\x86v\xd8\xb6w\xec?'
p6041
tp6042
Rp6043
ag2
(g22
S'\x89\x9b\x90fz\x00\xe3?'
p6044
tp6045
Rp6046
ag2
(g22
S'\x0cv\xc3\xb6\xc5\x9dw@'
p6047
tp6048
Rp6049
ag2
(g22
S'\x00\x00\x00\x00\x00\x00\x00\x00'
p6050
tp6051
Rp6052
ag2
(g22
S'\xf2\xd2Mb\x10Bw@'
p6053
tp6054
Rp6055
aF0.182
aF0.828
aF0.792
aI0
aF-5.435
aF0.179
aF134.199
aF0.777
aa(lp6056
g2
(g3
(S'S18'
p6057
I0
I1
tp6058
Rp6059
(I3
S'|'
p6060
NNNI18
I1
I0
tp6061
bS'If A Woman Answers'
p6062
tp6063
Rp6064
ag2
(g3
(S'S14'
p6065
I0
I1
tp6066
Rp6067
(I3
S'|'
p6068
NNNI14
I1
I0
tp6069
bS'Leroy Van Dyke'
p6070
tp6071
Rp6072
ag2
(g22
S"B\x85\xd6.'\x04\xe0?"
p6073
tp6074
Rp6075
ag2
(g22
S'\x90\x08\x13F{\xfa\xd5?'
p6076
tp6077
Rp6078
ag2
(g22
S'hy\x1e\xdc\x9d!_@'
p6079
tp6080
Rp6081
ag2
(g22
S'=\n\xd7\xa3p=\xe2?'
p6082
tp6083
Rp6084
ag2
(g22
S'V\x0e-\xb2\x9d\xa7\\@'
p6085
tp6086
Rp6087
aF0.493
aF0.56
aF0.453
aF0.000535
aF-10.089
aF0.029
aF142.505
aF0.963
aa(lp6088
g2
(g3
(S'S13'
p6089
I0
I1
tp6090
Rp6091
(I3
S'|'
p6092
NNNI13
I1
I0
tp6093
bS'All Your Love'
p6094
tp6095
Rp6096
ag2
(g3
(S'S31'
p6097
I0
I1
tp6098
Rp6099
(I3
S'|'
p6100
NNNI31
I1
I0
tp6101
bS'John Mayall & The Bluesbreakers'
p6102
tp6103
Rp6104
ag2
(g22
S'.\xa2Vc\xc5\x0e\xe4?'
p6105
tp6106
Rp6107
ag2
(g22
S'\xdc\xbd\x08|]\xef\xd9?'
p6108
tp6109
Rp6110
ag2
(g22
S'\xba\xda\x8a\xfde\xd6j@'
p6111
tp6112
Rp6113
ag2
(g22
S'\xf8S\xe3\xa5\x9b\xc4\xd0?'
p6114
tp6115
Rp6116
ag2
(g22
S'R\xb8\x1e\x85\xeb\xfdi@'
p6117
tp6118
Rp6119
aF0.291
aF0.369
aF0.523
aF0.00351
aF-9.144
aF0.0326
aF121.435
aF0.843
aa(lp6120
g2
(g3
(S'S31'
p6121
I0
I1
tp6122
Rp6123
(I3
S'|'
p6124
NNNI31
I1
I0
tp6125
bS'If You Build A Better Mousetrap'
p6126
tp6127
Rp6128
ag2
(g3
(S'S9'
p6129
I0
I1
tp6130
Rp6131
(I3
S'|'
p6132
NNNI9
I1
I0
tp6133
bS'Peggy Lee'
p6134
tp6135
Rp6136
ag2
(g22
S"\x16u'd\x81\xaa\xe8?"
p6137
tp6138
Rp6139
ag2
(g22
S'K\xa9W)o\x8b\xde?'
p6140
tp6141
Rp6142
ag2
(g22
S'\xb1Pk\x9aw"g@'
p6143
tp6144
Rp6145
ag2
(g22
S'\x8f\xc2\xf5(\\\x8f\x0e@'
p6146
tp6147
Rp6148
ag2
(g22
S'w\xbe\x9f\x1a/\xe1f@'
p6149
tp6150
Rp6151
aF0.942
aF0.693
aF0.298
aF0.000777
aF-10.564
aF0.044
aF144.828
aF0.762
aa(lp6152
g2
(g3
(S'S7'
p6153
I0
I1
tp6154
Rp6155
(I3
S'|'
p6156
NNNI7
I1
I0
tp6157
bS'My Babe'
p6158
tp6159
Rp6160
ag2
(g3
(S'S14'
p6161
I0
I1
tp6162
Rp6163
(I3
S'|'
p6164
NNNI14
I1
I0
tp6165
bS"Lightnin' Slim"
p6166
tp6167
Rp6168
ag2
(g22
S'8J\xaf\x84\x97x\xdb?'
p6169
tp6170
Rp6171
ag2
(g22
S'E8\xc3\x8a\xd6\xab\xd4?'
p6172
tp6173
Rp6174
ag2
(g22
S'`\x02\xb7\xee\xe65f@'
p6175
tp6176
Rp6177
ag2
(g22
S'%\x06\x81\x95C\x8b\xe0?'
p6178
tp6179
Rp6180
ag2
(g22
S'/\xdd$\x06\x81Ue@'
p6181
tp6182
Rp6183
aF0.321
aF0.713
aF0.507
aF0.000342
aF-14.529
aF0.12
aF142.4
aF0.866
aa(lp6184
g2
(g3
(S'S9'
p6185
I0
I1
tp6186
Rp6187
(I3
S'|'
p6188
NNNI9
I1
I0
tp6189
bS'10 $ Bill'
p6190
tp6191
Rp6192
ag2
(g3
(S'S20'
p6193
I0
I1
tp6194
Rp6195
(I3
S'|'
p6196
NNNI20
I1
I0
tp6197
bS"Les Hurlements D'leo"
p6198
tp6199
Rp6200
ag2
(g22
S'H\x06\xb6\x8f\x9d\x90\xdc?'
p6201
tp6202
Rp6203
ag2
(g22
S')p\x8e3!?\xdb?'
p6204
tp6205
Rp6206
ag2
(g22
S'\n\xbf\xd4\xcf\x1b\xe2t@'
p6207
tp6208
Rp6209
ag2
(g22
S'\x81\x95C\x8bl\xe7\xcb?'
p6210
tp6211
Rp6212
ag2
(g22
S'\x9c\xc4 \xb0r\xbct@'
p6213
tp6214
Rp6215
aF0.00779
aF0.423
aF0.656
aF0.0165
aF-7.826
aF0.16
aF160.92
aF0.413
aa(lp6216
g2
(g3
(S'S10'
p6217
I0
I1
tp6218
Rp6219
(I3
S'|'
p6220
NNNI10
I1
I0
tp6221
bS'Knuckle Up'
p6222
tp6223
Rp6224
ag2
(g3
(S'S12'
p6225
I0
I1
tp6226
Rp6227
(I3
S'|'
p6228
NNNI12
I1
I0
tp6229
bS'Mykill Miers'
p6230
tp6231
Rp6232
ag2
(g22
S'\xbfT\x93\xca\x85m\xdc?'
p6233
tp6234
Rp6235
ag2
(g22
S'\xafQ1\xbdJ\xe6\xd4?'
p6236
tp6237
Rp6238
ag2
(g22
S'\xdc\x9d\xb5\xdb.\x9eo@'
p6239
tp6240
Rp6241
ag2
(g22
S'\x98n\x12\x83\xc0\xca\xd9?'
p6242
tp6243
Rp6244
ag2
(g22
S'\x0c\x02+\x87\x16\xfdm@'
p6245
tp6246
Rp6247
aF0.0182
aF0.631
aF0.782
aI0
aF-7.5
aF0.33
aF79.203
aF0.483
aa(lp6248
g2
(g3
(S'S15'
p6249
I0
I1
tp6250
Rp6251
(I3
S'|'
p6252
NNNI15
I1
I0
tp6253
bS'At The Atlantis'
p6254
tp6255
Rp6256
ag2
(g3
(S'S10'
p6257
I0
I1
tp6258
Rp6259
(I3
S'|'
p6260
NNNI10
I1
I0
tp6261
bS'Bad Brains'
p6262
tp6263
Rp6264
ag2
(g22
S'\x84\xf8`\\\xd5=\xe7?'
p6265
tp6266
Rp6267
ag2
(g22
S'MP\xdb\xc9\xf4\xc5\xe1?'
p6268
tp6269
Rp6270
ag2
(g22
S'\x9b \xea>\x00\x83]@'
p6271
tp6272
Rp6273
ag2
(g22
S'\x00\x00\x00\x00\x00\x00\x00\x00'
p6274
tp6275
Rp6276
ag2
(g22
S'\x93\x18\x04V\x0e=[@'
p6277
tp6278
Rp6279
aF4.87e-06
aF0.339
aF0.927
aF0.813
aF-8.474
aF0.093
aF135.266
aF0.711
aa(lp6280
g2
(g3
(S'S23'
p6281
I0
I1
tp6282
Rp6283
(I3
S'|'
p6284
NNNI23
I1
I0
tp6285
bS'ABC (The Alphabet Song)'
p6286
tp6287
Rp6288
ag2
(g3
(S'S17'
p6289
I0
I1
tp6290
Rp6291
(I3
S'|'
p6292
NNNI17
I1
I0
tp6293
bS'Dora The Explorer'
p6294
tp6295
Rp6296
ag2
(g22
S'\xb9S\xdc\x82\x15v\xe0?'
p6297
tp6298
Rp6299
ag2
(g22
S'\xf2\x93\x97e\x01{\xda?'
p6300
tp6301
Rp6302
ag2
(g22
S',e\x19\xe2X\x17@@'
p6303
tp6304
Rp6305
ag2
(g22
S'B`\xe5\xd0"\xdb\x02@'
p6306
tp6307
Rp6308
ag2
(g22
S'\x9e\xef\xa7\xc6K\x17@@'
p6309
tp6310
Rp6311
aF0.836
aF0.79
aF0.177
aI0
aF-5.887
aF0.0421
aF107.923
aF0.884
aa(lp6312
g2
(g3
(S'S10'
p6313
I0
I1
tp6314
Rp6315
(I3
S'|'
p6316
NNNI10
I1
I0
tp6317
bS'Candilejas'
p6318
tp6319
Rp6320
ag2
(g3
(S'S13'
p6321
I0
I1
tp6322
Rp6323
(I3
S'|'
p6324
NNNI13
I1
I0
tp6325
bS'Los Iracundos'
p6326
tp6327
Rp6328
ag2
(g22
S'\xd2A\xa9\x1eU_\xdf?'
p6329
tp6330
Rp6331
ag2
(g22
S'B\xb2\x82r\x82(\xd8?'
p6332
tp6333
Rp6334
ag2
(g22
S'\xf4\xfd\xd4x\xe9\x89l@'
p6335
tp6336
Rp6337
ag2
(g22
S'\xf2\xd2Mb\x10X\x00@'
p6338
tp6339
Rp6340
ag2
(g22
S'\xcf\xf7S\xe3\xa5\x03k@'
p6341
tp6342
Rp6343
aF0.715
aF0.559
aF0.326
aF0.00183
aF-11.416
aF0.0275
aF110.2
aF0.432
aa(lp6344
g2
(g3
(S'S13'
p6345
I0
I1
tp6346
Rp6347
(I3
S'|'
p6348
NNNI13
I1
I0
tp6349
bS'No Safe Place'
p6350
tp6351
Rp6352
ag2
(g3
(S'S20'
p6353
I0
I1
tp6354
Rp6355
(I3
S'|'
p6356
NNNI20
I1
I0
tp6357
bS'Pursuit Of Happiness'
p6358
tp6359
Rp6360
ag2
(g22
S's\xd7\xf6O\x13G\xe0?'
p6361
tp6362
Rp6363
ag2
(g22
S'E\x15{\xb3Q/\xd8?'
p6364
tp6365
Rp6366
ag2
(g22
S'!\x02\x0e\xa1J\xc1g@'
p6367
tp6368
Rp6369
ag2
(g22
S'\x00\x00\x00\x00\x00\x00\x00\x00'
p6370
tp6371
Rp6372
ag2
(g22
S'{\x14\xaeG\xe1bf@'
p6373
tp6374
Rp6375
aF0.221
aF0.587
aF0.708
aF0.0538
aF-8.33
aF0.0295
aF127.742
aF0.866
aa(lp6376
g2
(g3
(S'S20'
p6377
I0
I1
tp6378
Rp6379
(I3
S'|'
p6380
NNNI20
I1
I0
tp6381
bS'Sex (French Version)'
p6382
tp6383
Rp6384
ag2
(g3
(S'S13'
p6385
I0
I1
tp6386
Rp6387
(I3
S'|'
p6388
NNNI13
I1
I0
tp6389
bS'Elli Kokkinou'
p6390
tp6391
Rp6392
ag2
(g22
S'(\xbe\x9a\x15d\xf7\xd3?'
p6393
tp6394
Rp6395
ag2
(g22
S'5\xdd\xb2\x94A\xaf\xd0?'
p6396
tp6397
Rp6398
ag2
(g22
S'\xd7\x86\x8aq~\xcaq@'
p6399
tp6400
Rp6401
ag2
(g22
S'\x8bl\xe7\xfb\xa9\xf1\xee?'
p6402
tp6403
Rp6404
ag2
(g22
S'%\x06\x81\x95CEq@'
p6405
tp6406
Rp6407
aF0.0448
aF0.711
aF0.789
aF0.0345
aF-6.016
aF0.08
aF92.998
aF0.623
aa(lp6408
g2
(g3
(S'S16'
p6409
I0
I1
tp6410
Rp6411
(I3
S'|'
p6412
NNNI16
I1
I0
tp6413
bS'Over The Rainbow'
p6414
tp6415
Rp6416
ag2
(g3
(S'S16'
p6417
I0
I1
tp6418
Rp6419
(I3
S'|'
p6420
NNNI16
I1
I0
tp6421
bS'David Arkenstone'
p6422
tp6423
Rp6424
ag2
(g22
S'\x16g\xe1yDv\xe4?'
p6425
tp6426
Rp6427
ag2
(g22
S'\x08\xbc\xc1\xef\x8d\x94\xdb?'
p6428
tp6429
Rp6430
ag2
(g22
S'>\xcb\xf3\xe0\xee?n@'
p6431
tp6432
Rp6433
ag2
(g22
S'\xecQ\xb8\x1e\x85\xeb\x03@'
p6434
tp6435
Rp6436
ag2
(g22
S'\xdb\xf9~j\xbc\xf4l@'
p6437
tp6438
Rp6439
aF0.902
aF0.391
aF0.209
aF0.438
aF-13.509
aF0.0365
aF81.804
aF0.0994
aa(lp6440
g2
(g3
(S'S15'
p6441
I0
I1
tp6442
Rp6443
(I3
S'|'
p6444
NNNI15
I1
I0
tp6445
bS'Boss-Eyed Whelk'
p6446
tp6447
Rp6448
ag2
(g3
(S'S14'
p6449
I0
I1
tp6450
Rp6451
(I3
S'|'
p6452
NNNI14
I1
I0
tp6453
bS'Johnny Pearson'
p6454
tp6455
Rp6456
ag2
(g22
S'\xa4\x80Ii\xa4\xff\xda?'
p6457
tp6458
Rp6459
ag2
(g22
S'\xe2(\x81u_\xbc\xd4?'
p6460
tp6461
Rp6462
ag2
(g22
S'\xd1\x05\xf5-s\x0fb@'
p6463
tp6464
Rp6465
ag2
(g22
S'\x8f\xc2\xf5(\\\x8f\xda?'
p6466
tp6467
Rp6468
ag2
(g22
S'X9\xb4\xc8v\xbaa@'
p6469
tp6470
Rp6471
aF0.376
aF0.631
aF0.544
aF0.421
aF-10.249
aF0.117
aF124.9
aF0.832
aa(lp6472
g2
(g3
(S'S9'
p6473
I0
I1
tp6474
Rp6475
(I3
S'|'
p6476
NNNI9
I1
I0
tp6477
bS'Le poulet'
p6478
tp6479
Rp6480
ag2
(g3
(S'S13'
p6481
I0
I1
tp6482
Rp6483
(I3
S'|'
p6484
NNNI13
I1
I0
tp6485
bS'Pierre Perret'
p6486
tp6487
Rp6488
ag2
(g22
S'}\xd3-~\x11\xf2\x92?'
p6489
tp6490
Rp6491
ag2
(g22
S'<V\xe5\xa0*\x97\xd6?'
p6492
tp6493
Rp6494
ag2
(g22
S'H\x8a\xc8\xb0\x8a\x9dV@'
p6495
tp6496
Rp6497
ag2
(g22
S'\x93\x18\x04V\x0e-\xc2?'
p6498
tp6499
Rp6500
ag2
(g22
S'\xbaI\x0c\x02+wU@'
p6501
tp6502
Rp6503
aF0.905
aF0.675
aF0.17
aI0
aF-16.679
aF0.575
aF150.081
aF0.92
aa(lp6504
g2
(g3
(S'S14'
p6505
I0
I1
tp6506
Rp6507
(I3
S'|'
p6508
NNNI14
I1
I0
tp6509
bS'Killed By Love'
p6510
tp6511
Rp6512
ag2
(g3
(S'S20'
p6513
I0
I1
tp6514
Rp6515
(I3
S'|'
p6516
NNNI20
I1
I0
tp6517
bS'Pursuit Of Happiness'
p6518
tp6519
Rp6520
ag2
(g22
S's\xd7\xf6O\x13G\xe0?'
p6521
tp6522
Rp6523
ag2
(g22
S'E\x15{\xb3Q/\xd8?'
p6524
tp6525
Rp6526
ag2
(g22
S'<k\xb7]h\xa3n@'
p6527
tp6528
Rp6529
ag2
(g22
S'\x1dZd;\xdfO\xcd?'
p6530
tp6531
Rp6532
ag2
(g22
S"P\x8d\x97n\x12'm@"
p6533
tp6534
Rp6535
aF0.0117
aF0.404
aF0.828
aF0.00335
aF-9.829
aF0.0429
aF130.764
aF0.662
aa(lp6536
g2
(g3
(S'S25'
p6537
I0
I1
tp6538
Rp6539
(I3
S'|'
p6540
NNNI25
I1
I0
tp6541
bS'See You On The Other Side'
p6542
tp6543
Rp6544
ag2
(g3
(S'S10'
p6545
I0
I1
tp6546
Rp6547
(I3
S'|'
p6548
NNNI10
I1
I0
tp6549
bS'Ben Sidran'
p6550
tp6551
Rp6552
ag2
(g22
S'\xaey\xe7>\xab2\xe3?'
p6553
tp6554
Rp6555
ag2
(g22
S'\xa7\x99P\xf9\xbc\xd5\xd6?'
p6556
tp6557
Rp6558
ag2
(g22
S'\xd2\x00\xde\x02\tlq@'
p6559
tp6560
Rp6561
ag2
(g22
S'\x0e-\xb2\x9d\xef\xa7\xde?'
p6562
tp6563
Rp6564
ag2
(g22
S'\xdfO\x8d\x97n\xaap@'
p6565
tp6566
Rp6567
aF0.0838
aF0.551
aF0.548
aF0.066
aF-9.256
aF0.0371
aF79.511
aF0.41
aa(lp6568
g2
(g3
(S'S30'
p6569
I0
I1
tp6570
Rp6571
(I3
S'|'
p6572
NNNI30
I1
I0
tp6573
bS'Daydreaming the Color of Blood'
p6574
tp6575
Rp6576
ag2
(g3
(S'S13'
p6577
I0
I1
tp6578
Rp6579
(I3
S'|'
p6580
NNNI13
I1
I0
tp6581
bS'Soilent Green'
p6582
tp6583
Rp6584
ag2
(g22
S'\xc7\x8f\xb5\x1bZw\xdd?'
p6585
tp6586
Rp6587
ag2
(g22
S'\x8aC\xeb\xddoO\xdc?'
p6588
tp6589
Rp6590
ag2
(g22
S'L\x1a\xa3uT\x8af@'
p6591
tp6592
Rp6593
ag2
(g22
S'\x00\x00\x00\x00\x00\x00\x00\x00'
p6594
tp6595
Rp6596
ag2
(g22
S'\n\xd7\xa3p=\x12f@'
p6597
tp6598
Rp6599
aF8.22e-05
aF0.317
aF0.949
aF0.199
aF-6.379
aF0.0896
aF122.455
aF0.461
aa(lp6600
g2
(g3
(S'S13'
p6601
I0
I1
tp6602
Rp6603
(I3
S'|'
p6604
NNNI13
I1
I0
tp6605
bS"Kablammin' It"
p6606
tp6607
Rp6608
ag2
(g3
(S'S23'
p6609
I0
I1
tp6610
Rp6611
(I3
S'|'
p6612
NNNI23
I1
I0
tp6613
bS'Long Beach Dub Allstars'
p6614
tp6615
Rp6616
ag2
(g22
S'U\x81\xa2\xaf\xc7i\xe2?'
p6617
tp6618
Rp6619
ag2
(g22
S'\xd9\xfc\xe73\xe1\xb5\xda?'
p6620
tp6621
Rp6622
ag2
(g22
S"g'\x83\xa3\xe4\xa9q@"
p6623
tp6624
Rp6625
ag2
(g22
S'\x17\xd9\xce\xf7S\xe3\xc5?'
p6626
tp6627
Rp6628
ag2
(g22
S'}?5^\xba\xd1p@'
p6629
tp6630
Rp6631
aF0.0139
aF0.589
aF0.779
aI0
aF-3.674
aF0.0717
aF139.066
aF0.582
aa(lp6632
g2
(g3
(S'S33'
p6633
I0
I1
tp6634
Rp6635
(I3
S'|'
p6636
NNNI33
I1
I0
tp6637
bS"Don't Mess With Cupid (1972 demo)"
p6638
tp6639
Rp6640
ag2
(g3
(S'S14'
p6641
I0
I1
tp6642
Rp6643
(I3
S'|'
p6644
NNNI14
I1
I0
tp6645
bS'New York Dolls'
p6646
tp6647
Rp6648
ag2
(g22
S'\xaed -(\xf7\xe6?'
p6649
tp6650
Rp6651
ag2
(g22
S'\xfeqcc\xfd\xac\xde?'
p6652
tp6653
Rp6654
ag2
(g22
S'\\U\xf6]\x11Cg@'
p6655
tp6656
Rp6657
ag2
(g22
S'\x00\x00\x00\x00\x00\x00\x00\x00'
p6658
tp6659
Rp6660
ag2
(g22
S'y\xe9&1\x08\xf8f@'
p6661
tp6662
Rp6663
aF0.228
aF0.596
aF0.798
aF0.918
aF-8.901
aF0.0636
aF121.812
aF0.601
aa(lp6664
g2
(g3
(S'S11'
p6665
I0
I1
tp6666
Rp6667
(I3
S'|'
p6668
NNNI11
I1
I0
tp6669
bS'Never Again'
p6670
tp6671
Rp6672
ag2
(g3
(S'S14'
p6673
I0
I1
tp6674
Rp6675
(I3
S'|'
p6676
NNNI14
I1
I0
tp6677
bS'Kelly Clarkson'
p6678
tp6679
Rp6680
ag2
(g22
S'U\xbd\xc0:_\xfa\xe5?'
p6681
tp6682
Rp6683
ag2
(g22
S'HQ\x1d"@\xe7\xe5?'
p6684
tp6685
Rp6686
ag2
(g22
S'\xd5\xcf\x9b\x8a\xd4\x0ew@'
p6687
tp6688
Rp6689
ag2
(g22
S'\xfa~j\xbct\x93\x00@'
p6690
tp6691
Rp6692
ag2
(g22
S'\x00\x00\x00\x00\x00zv@'
p6693
tp6694
Rp6695
aF0.00168
aF0.514
aF0.91
aF0.00187
aF-2.978
aF0.0714
aF145.907
aF0.472
aa(lp6696
g2
(g3
(S'S11'
p6697
I0
I1
tp6698
Rp6699
(I3
S'|'
p6700
NNNI11
I1
I0
tp6701
bS'Real Playaz'
p6702
tp6703
Rp6704
ag2
(g3
(S'S10'
p6705
I0
I1
tp6706
Rp6707
(I3
S'|'
p6708
NNNI10
I1
I0
tp6709
bS'3 Way Funk'
p6710
tp6711
Rp6712
ag2
(g22
S'\xce\xf30\xf6\x80!\xe4?'
p6713
tp6714
Rp6715
ag2
(g22
S'\xd8\x962\xf5\xc8:\xd1?'
p6716
tp6717
Rp6718
ag2
(g22
S'\xbc"\xf8\xdfJHj@'
p6719
tp6720
Rp6721
ag2
(g22
S'\x00\x00\x00\x00\x00\x00\x00\x00'
p6722
tp6723
Rp6724
ag2
(g22
S'!\xb0rh\x91\xa9i@'
p6725
tp6726
Rp6727
aF0.178
aF0.919
aF0.712
aI0
aF-5.984
aF0.252
aF94.998
aF0.724
aa(lp6728
g2
(g3
(S'S31'
p6729
I0
I1
tp6730
Rp6731
(I3
S'|'
p6732
NNNI31
I1
I0
tp6733
bS'Everybody Wants To Go To Heaven'
p6734
tp6735
Rp6736
ag2
(g3
(S'S16'
p6737
I0
I1
tp6738
Rp6739
(I3
S'|'
p6740
NNNI16
I1
I0
tp6741
bS'Freddie Roulette'
p6742
tp6743
Rp6744
ag2
(g22
S'H\xdd\xed)oQ\xd7?'
p6745
tp6746
Rp6747
ag2
(g22
S'n\xdf\xb8\xccTn\xd4?'
p6748
tp6749
Rp6750
ag2
(g22
S'\xc5\x03\xca\xa6\\\x1bm@'
p6751
tp6752
Rp6753
ag2
(g22
S'\xf4\xfd\xd4x\xe9&\xb1?'
p6754
tp6755
Rp6756
ag2
(g22
S'\\\x8f\xc2\xf5(Pl@'
p6757
tp6758
Rp6759
aF0.744
aF0.644
aF0.436
aF0.168
aF-11.036
aF0.0295
aF102.802
aF0.668
aa(lp6760
g2
(g3
(S'S47'
p6761
I0
I1
tp6762
Rp6763
(I3
S'|'
p6764
NNNI47
I1
I0
tp6765
bS'The Last Thing On My Mind (Previously Unissued)'
p6766
tp6767
Rp6768
ag2
(g3
(S'S13'
p6769
I0
I1
tp6770
Rp6771
(I3
S'|'
p6772
NNNI13
I1
I0
tp6773
bS'Noel Harrison'
p6774
tp6775
Rp6776
ag2
(g22
S'\xf7=\x1b\xafY3\xdb?'
p6777
tp6778
Rp6779
ag2
(g22
S'\xce\xb4X\x89\x87\x1b\xd5?'
p6780
tp6781
Rp6782
ag2
(g22
S'\x87\xa7W\xca2\xa3c@'
p6783
tp6784
Rp6785
ag2
(g22
S'\xcf\xf7S\xe3\xa5\x9b\xd4?'
p6786
tp6787
Rp6788
ag2
(g22
S'\xfe\xd4x\xe9&\xc1b@'
p6789
tp6790
Rp6791
aF0.84
aF0.7
aF0.25
aF0.00106
aF-15.09
aF0.0393
aF89.177
aF0.786
aa(lp6792
g2
(g3
(S'S19'
p6793
I0
I1
tp6794
Rp6795
(I3
S'|'
p6796
NNNI19
I1
I0
tp6797
bS'In A Village Square'
p6798
tp6799
Rp6800
ag2
(g3
(S'S12'
p6801
I0
I1
tp6802
Rp6803
(I3
S'|'
p6804
NNNI12
I1
I0
tp6805
bS'JennyAnyKind'
p6806
tp6807
Rp6808
ag2
(g22
S'\xe8S`)\xc0\n\xd7?'
p6809
tp6810
Rp6811
ag2
(g22
S'c\x9fe\x0f\x12\xf6\xd2?'
p6812
tp6813
Rp6814
ag2
(g22
S'\x07\xeb\xff\x1c\xe6\x19l@'
p6815
tp6816
Rp6817
ag2
(g22
S'\x00\x00\x00\x00\x00\x00\x00\x00'
p6818
tp6819
Rp6820
ag2
(g22
S'F\xb6\xf3\xfd\xd4\x90j@'
p6821
tp6822
Rp6823
aF0.000834
aF0.443
aF0.593
aF0.00974
aF-10.901
aF0.066
aF169.795
aF0.716
aa(lp6824
g2
(g3
(S'S7'
p6825
I0
I1
tp6826
Rp6827
(I3
S'|'
p6828
NNNI7
I1
I0
tp6829
bS'Jam 4 U'
p6830
tp6831
Rp6832
ag2
(g3
(S'S6'
p6833
I0
I1
tp6834
Rp6835
(I3
S'|'
p6836
NNNI6
I1
I0
tp6837
bS'Redman'
p6838
tp6839
Rp6840
ag2
(g22
S' \xa3\xa7\x18\xb8\xc7\xe7?'
p6841
tp6842
Rp6843
ag2
(g22
S'\x89c\xf1a\x99\x96\xdf?'
p6844
tp6845
Rp6846
ag2
(g22
S'h\xb3\xeas\xb5:g@'
p6847
tp6848
Rp6849
ag2
(g22
S'\x00\x00\x00\x00\x00\x00\x00\x00'
p6850
tp6851
Rp6852
ag2
(g22
S'\x1f\x85\xebQ\xb8:g@'
p6853
tp6854
Rp6855
aF0.00862
aF0.697
aF0.527
aF0.0118
aF-7.488
aF0.339
aF93.97
aF0.657
aa(lp6856
g2
(g3
(S'S17'
p6857
I0
I1
tp6858
Rp6859
(I3
S'|'
p6860
NNNI17
I1
I0
tp6861
bS'Ladder Of Success'
p6862
tp6863
Rp6864
ag2
(g3
(S'S13'
p6865
I0
I1
tp6866
Rp6867
(I3
S'|'
p6868
NNNI13
I1
I0
tp6869
bS'Skeeter Davis'
p6870
tp6871
Rp6872
ag2
(g22
S'h\xa6\xbb\x85\xa6R\xe3?'
p6873
tp6874
Rp6875
ag2
(g22
S']\xaa9\xec\xa4T\xd9?'
p6876
tp6877
Rp6878
ag2
(g22
S"\r\x1a\xfa'\xb8\x15`@"
p6879
tp6880
Rp6881
ag2
(g22
S'\xd7\xa3p=\n\xd7\xd3?'
p6882
tp6883
Rp6884
ag2
(g22
S'j\xbct\x93\x18\x8c^@'
p6885
tp6886
Rp6887
aF0.78
aF0.528
aF0.551
aI0
aF-6.328
aF0.0315
aF134.574
aF0.727
aa(lp6888
g2
(g3
(S'S15'
p6889
I0
I1
tp6890
Rp6891
(I3
S'|'
p6892
NNNI15
I1
I0
tp6893
bS'We Meet at Last'
p6894
tp6895
Rp6896
ag2
(g3
(S'S15'
p6897
I0
I1
tp6898
Rp6899
(I3
S'|'
p6900
NNNI15
I1
I0
tp6901
bS'Liquid Stranger'
p6902
tp6903
Rp6904
ag2
(g22
S'\xf97\xa9\x15\xb0H\xe1?'
p6905
tp6906
Rp6907
ag2
(g22
S'\xfa\xadu\x0f\xad\x13\xd8?'
p6908
tp6909
Rp6910
ag2
(g22
S'Yni5d<\x81@'
p6911
tp6912
Rp6913
ag2
(g22
S'\x00\x00\x00\x00\x00\x00\x00\x00'
p6914
tp6915
Rp6916
ag2
(g22
S'\x8d\x97n\x12\x83\xf2\x80@'
p6917
tp6918
Rp6919
aF0.213
aF0.699
aF0.763
aF0.889
aF-11.795
aF0.0327
aF139.992
aF0.772
aa(lp6920
g2
(g3
(S'S13'
p6921
I0
I1
tp6922
Rp6923
(I3
S'|'
p6924
NNNI13
I1
I0
tp6925
bS'Passo De Anjo'
p6926
tp6927
Rp6928
ag2
(g3
(S'S20'
p6929
I0
I1
tp6930
Rp6931
(I3
S'|'
p6932
NNNI20
I1
I0
tp6933
bS'Spok Frevo Orquestra'
p6934
tp6935
Rp6936
ag2
(g22
S'\xa1\xe4\xcbx\x9c\xca\xdb?'
p6937
tp6938
Rp6939
ag2
(g22
S'2\xb7\xaf\xca\xdb,\xd2?'
p6940
tp6941
Rp6942
ag2
(g22
S'\xce\xaa\xcf\xd5\xd6\xdbp@'
p6943
tp6944
Rp6945
ag2
(g22
S'\n\xd7\xa3p=\n\x03@'
p6946
tp6947
Rp6948
ag2
(g22
S'\xb2\x9d\xef\xa7\xc6\xf3m@'
p6949
tp6950
Rp6951
aF0.15
aF0.484
aF0.72
aF0.958
aF-6.246
aF0.155
aF156.439
aF0.704
aa(lp6952
g2
(g3
(S'S26'
p6953
I0
I1
tp6954
Rp6955
(I3
S'|'
p6956
NNNI26
I1
I0
tp6957
bS'The Song From Moulin Rouge'
p6958
tp6959
Rp6960
ag2
(g3
(S'S29'
p6961
I0
I1
tp6962
Rp6963
(I3
S'|'
p6964
NNNI29
I1
I0
tp6965
bS'Percy Faith And His Orchestra'
p6966
tp6967
Rp6968
ag2
(g22
S'\x05\x92m\x0c5\x02\xdc?'
p6969
tp6970
Rp6971
ag2
(g22
S'%\x1e\xa2\xb02 \xd7?'
p6972
tp6973
Rp6974
ag2
(g22
S'u\x02\x9a\x08\x1b\x85k@'
p6975
tp6976
Rp6977
ag2
(g22
S'\x89A`\xe5\xd0"\x03@'
p6978
tp6979
Rp6980
ag2
(g22
S'\x98n\x12\x83\xc0rj@'
p6981
tp6982
Rp6983
aF0.957
aF0.176
aF0.245
aF0.473
aF-15.887
aF0.0351
aF89.095
aF0.186
aa(lp6984
g2
(g3
(S'S8'
p6985
I0
I1
tp6986
Rp6987
(I3
S'|'
p6988
NNNI8
I1
I0
tp6989
bS'Shadrach'
p6990
tp6991
Rp6992
ag2
(g3
(S'S12'
p6993
I0
I1
tp6994
Rp6995
(I3
S'|'
p6996
NNNI12
I1
I0
tp6997
bS'Beastie Boys'
p6998
tp6999
Rp7000
ag2
(g22
S'\x8cM\xdc\xcc\xcbL\xeb?'
p7001
tp7002
Rp7003
ag2
(g22
S'\xaa^\xd0\xe4\x9d\xee\xe2?'
p7004
tp7005
Rp7006
ag2
(g22
S'\x88\xf4\xdb\xd7\x81\xf9n@'
p7007
tp7008
Rp7009
ag2
(g22
S'\x7fj\xbct\x93\x18\xc4?'
p7010
tp7011
Rp7012
ag2
(g22
S'/\xdd$\x06\x81\xf9n@'
p7013
tp7014
Rp7015
aF0.0809
aF0.883
aF0.688
aF9.77e-05
aF-14.935
aF0.107
aF100.782
aF0.735
aa(lp7016
g2
(g3
(S'S49'
p7017
I0
I1
tp7018
Rp7019
(I3
S'|'
p7020
NNNI49
I1
I0
tp7021
bS'Andante Cantabile (String Quartet No 1 In D Major'
p7022
tp7023
Rp7024
ag2
(g3
(S'S16'
p7025
I0
I1
tp7026
Rp7027
(I3
S'|'
p7028
NNNI16
I1
I0
tp7029
bS'Academy/Marriner'
p7030
tp7031
Rp7032
ag2
(g22
S'f\x91\xd3\x96\xdc\xc2\xdf?'
p7033
tp7034
Rp7035
ag2
(g22
S'[R\xdc\xdbZE\xd6?'
p7036
tp7037
Rp7038
ag2
(g22
S'\xb1\xc4\x03\xca\xa6\x91w@'
p7039
tp7040
Rp7041
ag2
(g22
S'R\xb8\x1e\x85\xebQ\x03@'
p7042
tp7043
Rp7044
ag2
(g22
S'\x00\x00\x00\x00\x00(u@'
p7045
tp7046
Rp7047
aF0.969
aF0.0677
aF0.0359
aF0.627
aF-27.672
aF0.0489
aF59.561
aF0.0399
aa(lp7048
g2
(g3
(S'S39'
p7049
I0
I1
tp7050
Rp7051
(I3
S'|'
p7052
NNNI39
I1
I0
tp7053
bS'Help Youngblood Get To the Freaky Party'
p7054
tp7055
Rp7056
ag2
(g3
(S'S11'
p7057
I0
I1
tp7058
Rp7059
(I3
S'|'
p7060
NNNI11
I1
I0
tp7061
bS'Teena Marie'
p7062
tp7063
Rp7064
ag2
(g22
S'BV8M\xa0\xe2\xe3?'
p7065
tp7066
Rp7067
ag2
(g22
S'\xb2\xb6\xdd.Zi\xdc?'
p7068
tp7069
Rp7070
ag2
(g22
S"\x1a\xfa'\xb8\xd8\x9au@"
p7071
tp7072
Rp7073
ag2
(g22
S'\x0e-\xb2\x9d\xef\xa7\x0c@'
p7074
tp7075
Rp7076
ag2
(g22
S'\xaa\xf1\xd2Mb$u@'
p7077
tp7078
Rp7079
aF0.208
aF0.717
aF0.702
aF0.00407
aF-12.667
aF0.0719
aF99.93
aF0.884
aa(lp7080
g2
(g3
(S'S17'
p7081
I0
I1
tp7082
Rp7083
(I3
S'|'
p7084
NNNI17
I1
I0
tp7085
bS'Mon coeur balance'
p7086
tp7087
Rp7088
ag2
(g3
(S'S6'
p7089
I0
I1
tp7090
Rp7091
(I3
S'|'
p7092
NNNI6
I1
I0
tp7093
bS'Daouda'
p7094
tp7095
Rp7096
ag2
(g22
S'\x94@\x846\xe4i\xd8?'
p7097
tp7098
Rp7099
ag2
(g22
S'\xb1Z\r\xaaQ\xe7\xd1?'
p7100
tp7101
Rp7102
ag2
(g22
S'\x87m\x8b2\x1b\x0cj@'
p7103
tp7104
Rp7105
ag2
(g22
S'\xcb\xa1E\xb6\xf3\xfd\xc4?'
p7106
tp7107
Rp7108
ag2
(g22
S'\xaeG\xe1z\x14\x1ei@'
p7109
tp7110
Rp7111
aF0.975
aF0.766
aF0.603
aF0.151
aF-5.689
aF0.0552
aF104.576
aF0.966
aa(lp7112
g2
(g3
(S'S33'
p7113
I0
I1
tp7114
Rp7115
(I3
S'|'
p7116
NNNI33
I1
I0
tp7117
bS"Let's Fall In Love This Christmas"
p7118
tp7119
Rp7120
ag2
(g3
(S'S10'
p7121
I0
I1
tp7122
Rp7123
(I3
S'|'
p7124
NNNI10
I1
I0
tp7125
bS'John Berry'
p7126
tp7127
Rp7128
ag2
(g22
S'\xcb\xd0qK\xc9\x1c\xe2?'
p7129
tp7130
Rp7131
ag2
(g22
S'\xf3\x8a2\x97o\xae\xdd?'
p7132
tp7133
Rp7134
ag2
(g22
S'\xa8\xa9ek}\xe6m@'
p7135
tp7136
Rp7137
ag2
(g22
S'X9\xb4\xc8v\xbe\xdf?'
p7138
tp7139
Rp7140
ag2
(g22
S'\x9e\xef\xa7\xc6K\x97l@'
p7141
tp7142
Rp7143
aF0.512
aF0.679
aF0.549
aF4.09e-06
aF-7.81
aF0.0243
aF126.464
aF0.328
aa(lp7144
g2
(g3
(S'S6'
p7145
I0
I1
tp7146
Rp7147
(I3
S'|'
p7148
NNNI6
I1
I0
tp7149
bS'D Solo'
p7150
tp7151
Rp7152
ag2
(g3
(S'S12'
p7153
I0
I1
tp7154
Rp7155
(I3
S'|'
p7156
NNNI12
I1
I0
tp7157
bS'Ace Da Vinci'
p7158
tp7159
Rp7160
ag2
(g22
S'g\xfdX\x8fb\x92\xd3?'
p7161
tp7162
Rp7163
ag2
(g22
S'>\xec\x15\xdfq \xd2?'
p7164
tp7165
Rp7166
ag2
(g22
S'\x1dr3\xdc\x00\xdbp@'
p7167
tp7168
Rp7169
ag2
(g22
S'\x00\x00\x00\x00\x00\x00\x00\x00'
p7170
tp7171
Rp7172
ag2
(g22
S'-\xb2\x9d\xef\xa7xp@'
p7173
tp7174
Rp7175
aF0.0399
aF0.562
aF0.681
aI0
aF-9.119
aF0.299
aF79.928
aF0.575
aa(lp7176
g2
(g3
(S'S16'
p7177
I0
I1
tp7178
Rp7179
(I3
S'|'
p7180
NNNI16
I1
I0
tp7181
bS'Mercury & Solace'
p7182
tp7183
Rp7184
ag2
(g3
(S'S2'
p7185
I0
I1
tp7186
Rp7187
(I3
S'|'
p7188
NNNI2
I1
I0
tp7189
bS'BT'
p7190
tp7191
Rp7192
ag2
(g22
S'\xd8\xaby!i*\xe9?'
p7193
tp7194
Rp7195
ag2
(g22
S'\xae\xc3&T)d\xe0?'
p7196
tp7197
Rp7198
ag2
(g22
S'\xa0\xa6\x96\xadu\xa4\x7f@'
p7199
tp7200
Rp7201
ag2
(g22
S'\x91\xed|?5^\xca?'
p7202
tp7203
Rp7204
ag2
(g22
S'\x96C\x8bl\xe7\xb1~@'
p7205
tp7206
Rp7207
aF0.00035
aF0.59
aF0.733
aF0.748
aF-11.744
aF0.0345
aF135.999
aF0.233
aa(lp7208
g2
(g3
(S'S23'
p7209
I0
I1
tp7210
Rp7211
(I3
S'|'
p7212
NNNI23
I1
I0
tp7213
bS'My Last Date (With You)'
p7214
tp7215
Rp7216
ag2
(g3
(S'S13'
p7217
I0
I1
tp7218
Rp7219
(I3
S'|'
p7220
NNNI13
I1
I0
tp7221
bS'Skeeter Davis'
p7222
tp7223
Rp7224
ag2
(g22
S'h\xa6\xbb\x85\xa6R\xe3?'
p7225
tp7226
Rp7227
ag2
(g22
S']\xaa9\xec\xa4T\xd9?'
p7228
tp7229
Rp7230
ag2
(g22
S'\xd9\xb1\x11\x88\xd7/c@'
p7231
tp7232
Rp7233
ag2
(g22
S'\xcb\xa1E\xb6\xf3\xfd\xd4?'
p7234
tp7235
Rp7236
ag2
(g22
S'd;\xdfO\x8d\x87b@'
p7237
tp7238
Rp7239
aF0.84
aF0.428
aF0.28
aF9.18e-05
aF-8.952
aF0.0261
aF98.241
aF0.429
aa(lp7240
g2
(g3
(S'S27'
p7241
I0
I1
tp7242
Rp7243
(I3
S'|'
p7244
NNNI27
I1
I0
tp7245
bS'Jump [Jacques Lu Cont Edit]'
p7246
tp7247
Rp7248
ag2
(g3
(S'S7'
p7249
I0
I1
tp7250
Rp7251
(I3
S'|'
p7252
NNNI7
I1
I0
tp7253
bS'Madonna'
p7254
tp7255
Rp7256
ag2
(g22
S'K1\x16\x91lN\xed?'
p7257
tp7258
Rp7259
ag2
(g22
S'D\xa1\x88VgL\xe5?'
p7260
tp7261
Rp7262
ag2
(g22
S'\xa5,C\x1c\xeb\x02t@'
p7263
tp7264
Rp7265
ag2
(g22
S'sh\x91\xed|?\x06@'
p7266
tp7267
Rp7268
ag2
(g22
S'\x83\xc0\xca\xa1E\x90s@'
p7269
tp7270
Rp7271
aF0.00123
aF0.618
aF0.781
aF0.832
aF-7.707
aF0.0308
aF130.01
aF0.638
aa(lp7272
g2
(g3
(S'S20'
p7273
I0
I1
tp7274
Rp7275
(I3
S'|'
p7276
NNNI20
I1
I0
tp7277
bS'More Than I Can Take'
p7278
tp7279
Rp7280
ag2
(g3
(S'S12'
p7281
I0
I1
tp7282
Rp7283
(I3
S'|'
p7284
NNNI12
I1
I0
tp7285
bS'Sugar Minott'
p7286
tp7287
Rp7288
ag2
(g22
S'\xbd5\x9aaXl\xe3?'
p7289
tp7290
Rp7291
ag2
(g22
S'\xc9\xad\xb8:\xf8\xb8\xd8?'
p7292
tp7293
Rp7294
ag2
(g22
S'\x00\xc63h\xe8\xe6k@'
p7295
tp7296
Rp7297
ag2
(g22
S'+\x87\x16\xd9\xce\xf7\xf5?'
p7298
tp7299
Rp7300
ag2
(g22
S'F\xb6\xf3\xfd\xd4\x18k@'
p7301
tp7302
Rp7303
aF0.785
aF0.779
aF0.509
aF0.192
aF-10.202
aF0.261
aF159.673
aF0.875
aa(lp7304
g2
(g3
(S'S10'
p7305
I0
I1
tp7306
Rp7307
(I3
S'|'
p7308
NNNI10
I1
I0
tp7309
bS"Buzz's Jig"
p7310
tp7311
Rp7312
ag2
(g3
(S'S10'
p7313
I0
I1
tp7314
Rp7315
(I3
S'|'
p7316
NNNI10
I1
I0
tp7317
bS'The Elders'
p7318
tp7319
Rp7320
ag2
(g22
S']\xf9\xd0\xda\xb7\xd3\xe1?'
p7321
tp7322
Rp7323
ag2
(g22
S'd\xf2\xb2\xbaU\x94\xda?'
p7324
tp7325
Rp7326
ag2
(g22
S'u\xab\xe7\xa4\xf7\xa6q@'
p7327
tp7328
Rp7329
ag2
(g22
S'\x00\x00\x00\x00\x00\x00\x00\x00'
p7330
tp7331
Rp7332
ag2
(g22
S'\xb8\x1e\x85\xebQnq@'
p7333
tp7334
Rp7335
aF0.121
aF0.596
aF0.888
aF0.00188
aF-6.119
aF0.0313
aF130.027
aF0.822
aa(lp7336
g2
(g3
(S'S18'
p7337
I0
I1
tp7338
Rp7339
(I3
S'|'
p7340
NNNI18
I1
I0
tp7341
bS'Keep It Like It Is'
p7342
tp7343
Rp7344
ag2
(g3
(S'S11'
p7345
I0
I1
tp7346
Rp7347
(I3
S'|'
p7348
NNNI11
I1
I0
tp7349
bS'Louisa Mark'
p7350
tp7351
Rp7352
ag2
(g22
S'Ba9@R)\xd5?'
p7353
tp7354
Rp7355
ag2
(g22
S'u\xaeH#>}\xd1?'
p7356
tp7357
Rp7358
ag2
(g22
S'\xb4<\x0f\xee\xce\x90c@'
p7359
tp7360
Rp7361
ag2
(g22
S'\xa4p=\n\xd7\xa3\xe0?'
p7362
tp7363
Rp7364
ag2
(g22
S'\x83\xc0\xca\xa1E\xb2b@'
p7365
tp7366
Rp7367
aF0.108
aF0.777
aF0.227
aF0.119
aF-14.302
aF0.0629
aF128.332
aF0.839
aa(lp7368
g2
(g3
(S'S39'
p7369
I0
I1
tp7370
Rp7371
(I3
S'|'
p7372
NNNI39
I1
I0
tp7373
bS'Infantil (Dedicated to John McLaughlin)'
p7374
tp7375
Rp7376
ag2
(g3
(S'S17'
p7377
I0
I1
tp7378
Rp7379
(I3
S'|'
p7380
NNNI17
I1
I0
tp7381
bS'Gonzalo Rubalcaba'
p7382
tp7383
Rp7384
ag2
(g22
S';\xa1L\xde\xbd\x19\xe1?'
p7385
tp7386
Rp7387
ag2
(g22
S'1\x83~\x06V\x17\xd6?'
p7388
tp7389
Rp7390
ag2
(g22
S'W&\xfcR?\x88z@'
p7391
tp7392
Rp7393
ag2
(g22
S'{\x14\xaeG\xe1z\xc4?'
p7394
tp7395
Rp7396
ag2
(g22
S'\xe3\xa5\x9b\xc4 \xaay@'
p7397
tp7398
Rp7399
aF0.391
aF0.467
aF0.545
aF0.588
aF-11.89
aF0.0426
aF127.85
aF0.371
aa(lp7400
g2
(g3
(S'S28'
p7401
I0
I1
tp7402
Rp7403
(I3
S'|'
p7404
NNNI28
I1
I0
tp7405
bS"Please Hammer Don't Hurt 'Em"
p7406
tp7407
Rp7408
ag2
(g3
(S'S17'
p7409
I0
I1
tp7410
Rp7411
(I3
S'|'
p7412
NNNI17
I1
I0
tp7413
bS'Evergreen Terrace'
p7414
tp7415
Rp7416
ag2
(g22
S'\x14\xe4S\x1d\xf9g\xea?'
p7417
tp7418
Rp7419
ag2
(g22
S'\xf5\xf4uT\xed\xee\xe0?'
p7420
tp7421
Rp7422
ag2
(g22
S'Nb\x10X9\xfca@'
p7423
tp7424
Rp7425
ag2
(g22
S'\x00\x00\x00\x00\x00\x00\x00\x00'
p7426
tp7427
Rp7428
ag2
(g22
S'\xa4p=\n\xd7\xdf`@'
p7429
tp7430
Rp7431
aF4.21e-05
aF0.379
aF0.865
aI0
aF-6.479
aF0.115
aF83.507
aF0.398
aa(lp7432
g2
(g3
(S'S21'
p7433
I0
I1
tp7434
Rp7435
(I3
S'|'
p7436
NNNI21
I1
I0
tp7437
bS'Surfriendo El Castigo'
p7438
tp7439
Rp7440
ag2
(g3
(S'S15'
p7441
I0
I1
tp7442
Rp7443
(I3
S'|'
p7444
NNNI15
I1
I0
tp7445
bS'Michael Salgado'
p7446
tp7447
Rp7448
ag2
(g22
S'\x0f\xf1Z\x94~P\xe3?'
p7449
tp7450
Rp7451
ag2
(g22
S'\x91\xeeU\xef\x83Z\xd4?'
p7452
tp7453
Rp7454
ag2
(g22
S'2\x8f\xfc\xc1\xc0\xb4k@'
p7455
tp7456
Rp7457
ag2
(g22
S'9\xb4\xc8v\xbe\x9f\xba?'
p7458
tp7459
Rp7460
ag2
(g22
S'\x19\x04V\x0e-\xb6j@'
p7461
tp7462
Rp7463
aF0.0521
aF0.661
aF0.854
aF9.19e-05
aF-6.159
aF0.0693
aF103.568
aF0.704
aa(lp7464
g2
(g3
(S'S19'
p7465
I0
I1
tp7466
Rp7467
(I3
S'|'
p7468
NNNI19
I1
I0
tp7469
bS'1st World Hypocrisy'
p7470
tp7471
Rp7472
ag2
(g3
(S'S10'
p7473
I0
I1
tp7474
Rp7475
(I3
S'|'
p7476
NNNI10
I1
I0
tp7477
bS'Brainchoke'
p7478
tp7479
Rp7480
ag2
(g22
S'$\x0e\x0c\x01\x86\xe7\xd9?'
p7481
tp7482
Rp7483
ag2
(g22
S'?\x00\x14\xed\xd1\xe5\xd0?'
p7484
tp7485
Rp7486
ag2
(g22
S'\x8d\xee v\xa6\xc0V@'
p7487
tp7488
Rp7489
ag2
(g22
S'\x00\x00\x00\x00\x00\x00\x00\x00'
p7490
tp7491
Rp7492
ag2
(g22
S'q=\n\xd7\xa3\xc0V@'
p7493
tp7494
Rp7495
aF0.000631
aF0.434
aF0.961
aF0.0389
aF-2.997
aF0.112
aF127.371
aF0.192
aa(lp7496
g2
(g3
(S'S12'
p7497
I0
I1
tp7498
Rp7499
(I3
S'|'
p7500
NNNI12
I1
I0
tp7501
bS'Come With Me'
p7502
tp7503
Rp7504
ag2
(g3
(S'S11'
p7505
I0
I1
tp7506
Rp7507
(I3
S'|'
p7508
NNNI11
I1
I0
tp7509
bS'Tania Maria'
p7510
tp7511
Rp7512
ag2
(g22
S'\xb0f\x90\xbe\x9ak\xe3?'
p7513
tp7514
Rp7515
ag2
(g22
S'\x8e\x08\xc7v/r\xd9?'
p7516
tp7517
Rp7518
ag2
(g22
S'\xdb\xdc\x98\x9e\xb0Zt@'
p7519
tp7520
Rp7521
ag2
(g22
S'\x00\x00\x00\x00\x00\x00\x00\x00'
p7522
tp7523
Rp7524
ag2
(g22
S'\x00\x00\x00\x00\x00\xe6s@'
p7525
tp7526
Rp7527
aF0.168
aF0.672
aF0.828
aF0.289
aF-9.481
aF0.0512
aF94.703
aF0.855
aa(lp7528
g2
(g3
(S'S20'
p7529
I0
I1
tp7530
Rp7531
(I3
S'|'
p7532
NNNI20
I1
I0
tp7533
bS'The Never-Ending Why'
p7534
tp7535
Rp7536
ag2
(g3
(S'S7'
p7537
I0
I1
tp7538
Rp7539
(I3
S'|'
p7540
NNNI7
I1
I0
tp7541
bS'Placebo'
p7542
tp7543
Rp7544
ag2
(g22
S'^tD\x1c\xa8\xbe\xe9?'
p7545
tp7546
Rp7547
ag2
(g22
S'\xcb\x12\xdc\xee\x0f\xc4\xe2?'
p7548
tp7549
Rp7550
ag2
(g22
S'\xf9\xa0g\xb3\xea\xb3k@'
p7551
tp7552
Rp7553
ag2
(g22
S'\x00\x00\x00\x00\x00\x00\x00\x00'
p7554
tp7555
Rp7556
ag2
(g22
S'\xa8\xc6K7\x891j@'
p7557
tp7558
Rp7559
aF1.49e-05
aF0.524
aF0.911
aF0.00443
aF-5.738
aF0.0396
aF137.36
aF0.6
aa(lp7560
g2
(g3
(S'S10'
p7561
I0
I1
tp7562
Rp7563
(I3
S'|'
p7564
NNNI10
I1
I0
tp7565
bS'Woman Blue'
p7566
tp7567
Rp7568
ag2
(g3
(S'S12'
p7569
I0
I1
tp7570
Rp7571
(I3
S'|'
p7572
NNNI12
I1
I0
tp7573
bS'Alice Stuart'
p7574
tp7575
Rp7576
ag2
(g22
S'\x15\xe7\x14V&Y\xdf?'
p7577
tp7578
Rp7579
ag2
(g22
S'&K\xa09\x03\x07\xd5?'
p7580
tp7581
Rp7582
ag2
(g22
S'\xa5\x14t{\xc9\x1bs@'
p7583
tp7584
Rp7585
ag2
(g22
S'\x91\xed|?5^\xca?'
p7586
tp7587
Rp7588
ag2
(g22
S'}?5^\xbaqr@'
p7589
tp7590
Rp7591
aF0.936
aF0.507
aF0.0616
aF5.08e-05
aF-9.851
aF0.0424
aF120.497
aF0.242
aa(lp7592
g2
(g3
(S'S10'
p7593
I0
I1
tp7594
Rp7595
(I3
S'|'
p7596
NNNI10
I1
I0
tp7597
bS'Lost Tribe'
p7598
tp7599
Rp7600
ag2
(g3
(S'S12'
p7601
I0
I1
tp7602
Rp7603
(I3
S'|'
p7604
NNNI12
I1
I0
tp7605
bS'Moving Ninja'
p7606
tp7607
Rp7608
ag2
(g22
S'\xcc\x8d\xda(\x06$\xdf?'
p7609
tp7610
Rp7611
ag2
(g22
S'\x00?\x04\xe1/R\xd4?'
p7612
tp7613
Rp7614
ag2
(g22
S'\xb6J\xb08\x1c\xf0q@'
p7615
tp7616
Rp7617
ag2
(g22
S'\x8d\x97n\x12\x83\xc0\x06@'
p7618
tp7619
Rp7620
ag2
(g22
S'q=\n\xd7\xa3\xceq@'
p7621
tp7622
Rp7623
aF0.00348
aF0.788
aF0.714
aF0.679
aF-9.249
aF0.0975
aF135.038
aF0.476
aa(lp7624
g2
(g3
(S'S17'
p7625
I0
I1
tp7626
Rp7627
(I3
S'|'
p7628
NNNI17
I1
I0
tp7629
bS'Lachen und weinen'
p7630
tp7631
Rp7632
ag2
(g3
(S'S12'
p7633
I0
I1
tp7634
Rp7635
(I3
S'|'
p7636
NNNI12
I1
I0
tp7637
bS'2raumwohnung'
p7638
tp7639
Rp7640
ag2
(g22
S'T\xc1\xcaI\x13D\xe5?'
p7641
tp7642
Rp7643
ag2
(g22
S'-\xf1\x93\xbe\xc7q\xd9?'
p7644
tp7645
Rp7646
ag2
(g22
S'|\xb8\xe4\xb8\xd3\xf2t@'
p7647
tp7648
Rp7649
ag2
(g22
S'm\xe7\xfb\xa9\xf1\xd2\x05@'
p7650
tp7651
Rp7652
ag2
(g22
S'\xaeG\xe1z\x14\x9at@'
p7653
tp7654
Rp7655
aF0.0315
aF0.863
aF0.62
aF0.317
aF-8.356
aF0.0565
aF111.014
aF0.221
aa(lp7656
g2
(g3
(S'S13'
p7657
I0
I1
tp7658
Rp7659
(I3
S'|'
p7660
NNNI13
I1
I0
tp7661
bS'Pretty Vacant'
p7662
tp7663
Rp7664
ag2
(g3
(S'S11'
p7665
I0
I1
tp7666
Rp7667
(I3
S'|'
p7668
NNNI11
I1
I0
tp7669
bS'Sex Pistols'
p7670
tp7671
Rp7672
ag2
(g22
S'\xaf-\x9fx\xdce\xe7?'
p7673
tp7674
Rp7675
ag2
(g22
S'\xfdJr\x12\x15\x93\xe1?'
p7676
tp7677
Rp7678
ag2
(g22
S'\xf2\x07\x03\xcf\xbdRh@'
p7679
tp7680
Rp7681
ag2
(g22
S'\x81\x95C\x8bl\xe7\xcb?'
p7682
tp7683
Rp7684
ag2
(g22
S'\x98n\x12\x83\xc0Rh@'
p7685
tp7686
Rp7687
aF0.0467
aF0.258
aF0.932
aF8.09e-06
aF-5.194
aF0.0702
aF145.582
aF0.334
aa(lp7688
g2
(g3
(S'S7'
p7689
I0
I1
tp7690
Rp7691
(I3
S'|'
p7692
NNNI7
I1
I0
tp7693
bS'Boo Hoo'
p7694
tp7695
Rp7696
ag2
(g3
(S'S11'
p7697
I0
I1
tp7698
Rp7699
(I3
S'|'
p7700
NNNI11
I1
I0
tp7701
bS'KT Tunstall'
p7702
tp7703
Rp7704
ag2
(g22
S'\r5\xec~\x0ef\xe9?'
p7705
tp7706
Rp7707
ag2
(g22
S'e\xb4C\x11\x1a\xe0\xe2?'
p7708
tp7709
Rp7710
ag2
(g22
S'msczBqr@'
p7711
tp7712
Rp7713
ag2
(g22
S'\x00\x00\x00\x00\x00\x00\x00\x00'
p7714
tp7715
Rp7716
ag2
(g22
S'\xcf\xf7S\xe3\xa5\xd7q@'
p7717
tp7718
Rp7719
aF0.487
aF0.664
aF0.531
aF0.000178
aF-6.838
aF0.0278
aF127.847
aF0.488
aa(lp7720
g2
(g3
(S'S31'
p7721
I0
I1
tp7722
Rp7723
(I3
S'|'
p7724
NNNI31
I1
I0
tp7725
bS'(Coming With) Loving on My Mind'
p7726
tp7727
Rp7728
ag2
(g3
(S'S12'
p7729
I0
I1
tp7730
Rp7731
(I3
S'|'
p7732
NNNI12
I1
I0
tp7733
bS'Tony Mathews'
p7734
tp7735
Rp7736
ag2
(g22
S'\xf2\xcb$\xad\xa2\x8a\xd2?'
p7737
tp7738
Rp7739
ag2
(g22
S'\x07\x93\xfb\xaa\xdd\xbd\xc8?'
p7740
tp7741
Rp7742
ag2
(g22
S"\\='\xbd\xef\x9cq@"
p7743
tp7744
Rp7745
ag2
(g22
S'\x04V\x0e-\xb2\x9d\xcf?'
p7746
tp7747
Rp7748
ag2
(g22
S'\xa2E\xb6\xf3\xfdjp@'
p7749
tp7750
Rp7751
aF0.73
aF0.636
aF0.307
aF6.83e-06
aF-16.743
aF0.0393
aF70.024
aF0.619
aa(lp7752
g2
(g3
(S'S22'
p7753
I0
I1
tp7754
Rp7755
(I3
S'|'
p7756
NNNI22
I1
I0
tp7757
bS'Son of Jack the Ripper'
p7758
tp7759
Rp7760
ag2
(g3
(S'S20'
p7761
I0
I1
tp7762
Rp7763
(I3
S'|'
p7764
NNNI20
I1
I0
tp7765
bS'Screaming Lord Sutch'
p7766
tp7767
Rp7768
ag2
(g22
S'\xd7:\xa6\x8e\xa9\xce\xe0?'
p7769
tp7770
Rp7771
ag2
(g22
S'\t99q\xeb\xa3\xd5?'
p7772
tp7773
Rp7774
ag2
(g22
S'\x18!<\xda8\xeel@'
p7775
tp7776
Rp7777
ag2
(g22
S'\x12\x83\xc0\xca\xa1E\x05@'
p7778
tp7779
Rp7780
ag2
(g22
S'\xb4\xc8v\xbe\x9f*l@'
p7781
tp7782
Rp7783
aF0.0619
aF0.501
aF0.885
aF0.000315
aF-8.053
aF0.0573
aF130.785
aF0.757
aa(lp7784
g2
(g3
(S'S15'
p7785
I0
I1
tp7786
Rp7787
(I3
S'|'
p7788
NNNI15
I1
I0
tp7789
bS'Head Over Heels'
p7790
tp7791
Rp7792
ag2
(g3
(S'S12'
p7793
I0
I1
tp7794
Rp7795
(I3
S'|'
p7796
NNNI12
I1
I0
tp7797
bS'Sylvia Tosun'
p7798
tp7799
Rp7800
ag2
(g22
S'h>I$\xec\xd3\xe0?'
p7801
tp7802
Rp7803
ag2
(g22
S'\xb7H\xde\xbb\x1f\xd9\xdb?'
p7804
tp7805
Rp7806
ag2
(g22
S'\x979]\x16S\xfe\x81@'
p7807
tp7808
Rp7809
ag2
(g22
S'\xa2E\xb6\xf3\xfd\xd4\xc8?'
p7810
tp7811
Rp7812
ag2
(g22
S'F\xb6\xf3\xfd\xd4\x8a\x81@'
p7813
tp7814
Rp7815
aF0.00023
aF0.686
aF0.626
aF0.249
aF-6.222
aF0.0663
aF127.999
aF0.499
aa(lp7816
g2
(g3
(S'S13'
p7817
I0
I1
tp7818
Rp7819
(I3
S'|'
p7820
NNNI13
I1
I0
tp7821
bS'Day Old Blues'
p7822
tp7823
Rp7824
ag2
(g3
(S'S13'
p7825
I0
I1
tp7826
Rp7827
(I3
S'|'
p7828
NNNI13
I1
I0
tp7829
bS'Kings Of Leon'
p7830
tp7831
Rp7832
ag2
(g22
S'9\xe3\xab\xde\x89\x10\xeb?'
p7833
tp7834
Rp7835
ag2
(g22
S'^\xa9\x97\x13\x8f\xce\xea?'
p7836
tp7837
Rp7838
ag2
(g22
S'\xb8\xe4\xb8S:\x9fj@'
p7839
tp7840
Rp7841
ag2
(g22
S'b\x10X9\xb4\xc8\xd6?'
p7842
tp7843
Rp7844
ag2
(g22
S'\xdfO\x8d\x97nZi@'
p7845
tp7846
Rp7847
aF0.875
aF0.475
aF0.263
aI0
aF-9.783
aF0.0693
aF85.494
aF0.0693
aa(lp7848
g2
(g3
(S'S7'
p7849
I0
I1
tp7850
Rp7851
(I3
S'|'
p7852
NNNI7
I1
I0
tp7853
bS'Joyride'
p7854
tp7855
Rp7856
ag2
(g3
(S'S5'
p7857
I0
I1
tp7858
Rp7859
(I3
S'|'
p7860
NNNI5
I1
I0
tp7861
bS'Pinch'
p7862
tp7863
Rp7864
ag2
(g22
S'\xcbG:\xa9W\xa8\xe2?'
p7865
tp7866
Rp7867
ag2
(g22
S'\x89\x87\xbf\xd0\xe2K\xd7?'
p7868
tp7869
Rp7870
ag2
(g22
S'\xcb\x9c.\x8b\x89\xbds@'
p7871
tp7872
Rp7873
ag2
(g22
S'\xf4\xfd\xd4x\xe9&\xb1?'
p7874
tp7875
Rp7876
ag2
(g22
S';\xdfO\x8d\x97\xd6r@'
p7877
tp7878
Rp7879
aF0.0132
aF0.544
aF0.912
aF0.944
aF-10.071
aF0.0449
aF140.011
aF0.567
aa(lp7880
g2
(g3
(S'S16'
p7881
I0
I1
tp7882
Rp7883
(I3
S'|'
p7884
NNNI16
I1
I0
tp7885
bS'Just An Illusion'
p7886
tp7887
Rp7888
ag2
(g3
(S'S10'
p7889
I0
I1
tp7890
Rp7891
(I3
S'|'
p7892
NNNI10
I1
I0
tp7893
bS'Dave Weckl'
p7894
tp7895
Rp7896
ag2
(g22
S'1\xa3\x81}\xf9\x8e\xe4?'
p7897
tp7898
Rp7899
ag2
(g22
S'G\x84l\x94w\xd5\xdd?'
p7900
tp7901
Rp7902
ag2
(g22
S'\xcc\xd1\xe3\xf76ps@'
p7903
tp7904
Rp7905
ag2
(g22
S'{\x14\xaeG\xe1z\xdc?'
p7906
tp7907
Rp7908
ag2
(g22
S'\xe3\xa5\x9b\xc4 \x9er@'
p7909
tp7910
Rp7911
aF0.11
aF0.613
aF0.825
aF0.245
aF-12.064
aF0.0336
aF93.5
aF0.932
aa(lp7912
g2
(g3
(S'S26'
p7913
I0
I1
tp7914
Rp7915
(I3
S'|'
p7916
NNNI26
I1
I0
tp7917
bS'Our Love Is A Living Thing'
p7918
tp7919
Rp7920
ag2
(g3
(S'S7'
p7921
I0
I1
tp7922
Rp7923
(I3
S'|'
p7924
NNNI7
I1
I0
tp7925
bS'Ed Ames'
p7926
tp7927
Rp7928
ag2
(g22
S'\x8f%\x16\x94\x0c0\xde?'
p7929
tp7930
Rp7931
ag2
(g22
S'\xc0\x1c\xbd\x88b\xec\xd5?'
p7932
tp7933
Rp7934
ag2
(g22
S'\xb0\x8fN]\xf9\x9d`@'
p7935
tp7936
Rp7937
ag2
(g22
S'\x00\x00\x00\x00\x00\x00\x00\x00'
p7938
tp7939
Rp7940
ag2
(g22
S'\x1dZd;\xdf\xc7_@'
p7941
tp7942
Rp7943
aF0.824
aF0.302
aF0.448
aI0
aF-10.666
aF0.0357
aF115.963
aF0.353
aa(lp7944
g2
(g3
(S'S6'
p7945
I0
I1
tp7946
Rp7947
(I3
S'|'
p7948
NNNI6
I1
I0
tp7949
bS'Memory'
p7950
tp7951
Rp7952
ag2
(g3
(S'S13'
p7953
I0
I1
tp7954
Rp7955
(I3
S'|'
p7956
NNNI13
I1
I0
tp7957
bS'Uphill Battle'
p7958
tp7959
Rp7960
ag2
(g22
S'Eyrs=\xd7\xdd?'
p7961
tp7962
Rp7963
ag2
(g22
S'\x88[\xec\x01\xb0\xa7\xd7?'
p7964
tp7965
Rp7966
ag2
(g22
S'\x06\xbba\xdb\xa2Kj@'
p7967
tp7968
Rp7969
ag2
(g22
S'\x9a\x99\x99\x99\x99\x99\xb9?'
p7970
tp7971
Rp7972
ag2
(g22
S'/\xdd$\x06\x81\x95i@'
p7973
tp7974
Rp7975
aF8.7e-06
aF0.242
aF0.93
aF0.398
aF-6.522
aF0.112
aF134.967
aF0.244
aa(lp7976
g2
(g3
(S'S9'
p7977
I0
I1
tp7978
Rp7979
(I3
S'|'
p7980
NNNI9
I1
I0
tp7981
bS'Next Year'
p7982
tp7983
Rp7984
ag2
(g3
(S'S12'
p7985
I0
I1
tp7986
Rp7987
(I3
S'|'
p7988
NNNI12
I1
I0
tp7989
bS'Foo Fighters'
p7990
tp7991
Rp7992
ag2
(g22
S'\x02\xba\x9e\x11X\xdb\xea?'
p7993
tp7994
Rp7995
ag2
(g22
S'<*\xaf\xce\xd7\x9f\xe1?'
p7996
tp7997
Rp7998
ag2
(g22
S'\x9a%\x01jj*q@'
p7999
tp8000
Rp8001
ag2
(g22
S'\x00\x00\x00\x00\x00\x00\x00\x00'
p8002
tp8003
Rp8004
ag2
(g22
S'#\xdb\xf9~j*q@'
p8005
tp8006
Rp8007
aF0.00551
aF0.415
aF0.865
aF0.103
aF-2.789
aF0.0379
aF176.864
aF0.465
aa(lp8008
g2
(g3
(S'S16'
p8009
I0
I1
tp8010
Rp8011
(I3
S'|'
p8012
NNNI16
I1
I0
tp8013
bS'Away in a Manger'
p8014
tp8015
Rp8016
ag2
(g3
(S'S12'
p8017
I0
I1
tp8018
Rp8019
(I3
S'|'
p8020
NNNI12
I1
I0
tp8021
bS'Loretta Lynn'
p8022
tp8023
Rp8024
ag2
(g22
S'\xdbI%\x9eS\x14\xe5?'
p8025
tp8026
Rp8027
ag2
(g22
S'\x1f\x01\xe50NF\xda?'
p8028
tp8029
Rp8030
ag2
(g22
S'\x1dZd;\xdf\xb2h@'
p8031
tp8032
Rp8033
ag2
(g22
S'\xaeG\xe1z\x14\xae\xdf?'
p8034
tp8035
Rp8036
ag2
(g22
S'%\x06\x81\x95C\xc3g@'
p8037
tp8038
Rp8039
aF0.903
aF0.536
aF0.183
aF2e-05
aF-8.804
aF0.0295
aF96.939
aF0.353
aa(lp8040
g2
(g3
(S'S48'
p8041
I0
I1
tp8042
Rp8043
(I3
S'|'
p8044
NNNI48
I1
I0
tp8045
bS"Don't Stop The Music (Streetlight Album Version)"
p8046
tp8047
Rp8048
ag2
(g3
(S'S13'
p8049
I0
I1
tp8050
Rp8051
(I3
S'|'
p8052
NNNI13
I1
I0
tp8053
bS'DeGarmo & Key'
p8054
tp8055
Rp8056
ag2
(g22
S'XM\xb3\xac\xd6\xf3\xda?'
p8057
tp8058
Rp8059
ag2
(g22
S'\xa0g=\xb1\xc7g\xd4?'
p8060
tp8061
Rp8062
ag2
(g22
S'\xf2{\x9b\xfe\xec\x80k@'
p8063
tp8064
Rp8065
ag2
(g22
S'\x00\x00\x00\x00\x00\x00\x00\x00'
p8066
tp8067
Rp8068
ag2
(g22
S'fffff\xeai@'
p8069
tp8070
Rp8071
aF0.432
aF0.671
aF0.683
aF0.000118
aF-8.592
aF0.0317
aF120.023
aF0.712
aa(lp8072
g2
(g3
(S'S11'
p8073
I0
I1
tp8074
Rp8075
(I3
S'|'
p8076
NNNI11
I1
I0
tp8077
bS'I Need Love'
p8078
tp8079
Rp8080
ag2
(g3
(S'S5'
p8081
I0
I1
tp8082
Rp8083
(I3
S'|'
p8084
NNNI5
I1
I0
tp8085
bS'Usher'
p8086
tp8087
Rp8088
ag2
(g22
S'\xe6\xe6\xb8\x92\x07h\xeb?'
p8089
tp8090
Rp8091
ag2
(g22
S'g\xdfCn1Y\xeb?'
p8092
tp8093
Rp8094
ag2
(g22
S'a\xe0\xb9\xf7p5@@'
p8095
tp8096
Rp8097
ag2
(g22
S'\x00\x00\x00\x00\x00\x00\x00\x00'
p8098
tp8099
Rp8100
ag2
(g22
S'/\xdd$\x06\x815@@'
p8101
tp8102
Rp8103
aF0.0538
aF0.434
aF0.487
aF0.0159
aF-15.529
aF0.0941
aF177.3
aF0.358
aa(lp8104
g2
(g3
(S'S20'
p8105
I0
I1
tp8106
Rp8107
(I3
S'|'
p8108
NNNI20
I1
I0
tp8109
bS'Happens All The Time'
p8110
tp8111
Rp8112
ag2
(g3
(S'S13'
p8113
I0
I1
tp8114
Rp8115
(I3
S'|'
p8116
NNNI13
I1
I0
tp8117
bS'The Real Kids'
p8118
tp8119
Rp8120
ag2
(g22
S'\xb3\x8d"3}\x08\xdf?'
p8121
tp8122
Rp8123
ag2
(g22
S'Q-\xc2\xaea\x12\xd6?'
p8124
tp8125
Rp8126
ag2
(g22
S'\x9b \xea>\x00\x05h@'
p8127
tp8128
Rp8129
ag2
(g22
S'+\x87\x16\xd9\xce\xf7\xb3?'
p8130
tp8131
Rp8132
ag2
(g22
S'\xa8\xc6K7\x895g@'
p8133
tp8134
Rp8135
aF0.00255
aF0.491
aF0.87
aF0.000208
aF-6.516
aF0.0596
aF175.579
aF0.961
aa(lp8136
g2
(g3
(S'S11'
p8137
I0
I1
tp8138
Rp8139
(I3
S'|'
p8140
NNNI11
I1
I0
tp8141
bS'The Painter'
p8142
tp8143
Rp8144
ag2
(g3
(S'S17'
p8145
I0
I1
tp8146
Rp8147
(I3
S'|'
p8148
NNNI17
I1
I0
tp8149
bS'Rance Allen Group'
p8150
tp8151
Rp8152
ag2
(g22
S'jN\x02\x01\xcfl\xdb?'
p8153
tp8154
Rp8155
ag2
(g22
S'h[\xa2\xd0\x04<\xd1?'
p8156
tp8157
Rp8158
ag2
(g22
S'\xeddp\x94\xbc(i@'
p8159
tp8160
Rp8161
ag2
(g22
S'\x04V\x0e-\xb2\x9d\xd7?'
p8162
tp8163
Rp8164
ag2
(g22
S'33333kg@'
p8165
tp8166
Rp8167
aF0.143
aF0.75
aF0.527
aF0.000147
aF-11.274
aF0.0783
aF100.154
aF0.744
aa(lp8168
g2
(g3
(S'S8'
p8169
I0
I1
tp8170
Rp8171
(I3
S'|'
p8172
NNNI8
I1
I0
tp8173
bS"L'Appart"
p8174
tp8175
Rp8176
ag2
(g3
(S'S13'
p8177
I0
I1
tp8178
Rp8179
(I3
S'|'
p8180
NNNI13
I1
I0
tp8181
bS'Patrick Bruel'
p8182
tp8183
Rp8184
ag2
(g22
S'>\xc3$\x17d2\xe4?'
p8185
tp8186
Rp8187
ag2
(g22
S'\xafM\xe7>?\xb2\xdb?'
p8188
tp8189
Rp8190
ag2
(g22
S'\xed\xf0\xd7d\r\x7fp@'
p8191
tp8192
Rp8193
ag2
(g22
S'\x00\x00\x00\x00\x00\x00\x00\x00'
p8194
tp8195
Rp8196
ag2
(g22
S'\x1f\x85\xebQ\xb8\xeeo@'
p8197
tp8198
Rp8199
aF0.186
aF0.678
aF0.489
aF0.00122
aF-9.906
aF0.0368
aF82.063
aF0.307
aa(lp8200
g2
(g3
(S'S17'
p8201
I0
I1
tp8202
Rp8203
(I3
S'|'
p8204
NNNI17
I1
I0
tp8205
bS'Frente A Tu Altar'
p8206
tp8207
Rp8208
ag2
(g3
(S'S15'
p8209
I0
I1
tp8210
Rp8211
(I3
S'|'
p8212
NNNI15
I1
I0
tp8213
bS'Gran Coquivacoa'
p8214
tp8215
Rp8216
ag2
(g22
S'\x9f{~K\xd3\xf7\xda?'
p8217
tp8218
Rp8219
ag2
(g22
S'\xe0K\x9e\x061u\xd7?'
p8220
tp8221
Rp8222
ag2
(g22
S'\xb1Pk\x9aw"g@'
p8223
tp8224
Rp8225
ag2
(g22
S'\x00\x00\x00\x00\x00\x00\x00\x00'
p8226
tp8227
Rp8228
ag2
(g22
S'\x8bl\xe7\xfb\xa9\xa1f@'
p8229
tp8230
Rp8231
aF0.742
aF0.747
aF0.884
aI0
aF-7.936
aF0.191
aF162.633
aF0.918
aa(lp8232
g2
(g3
(S'S13'
p8233
I0
I1
tp8234
Rp8235
(I3
S'|'
p8236
NNNI13
I1
I0
tp8237
bS'Give It To Me'
p8238
tp8239
Rp8240
ag2
(g3
(S'S13'
p8241
I0
I1
tp8242
Rp8243
(I3
S'|'
p8244
NNNI13
I1
I0
tp8245
bS'Grayson Capps'
p8246
tp8247
Rp8248
ag2
(g22
S'\x8c\xab.-p\xb0\xe2?'
p8249
tp8250
Rp8251
ag2
(g22
S'\x83\xe9\xcf\xb3]\xcf\xd6?'
p8252
tp8253
Rp8254
ag2
(g22
S'Kvl\x04\xe2\x0b_@'
p8255
tp8256
Rp8257
ag2
(g22
S'\x1dZd;\xdfO\xcd?'
p8258
tp8259
Rp8260
ag2
(g22
S'\xbct\x93\x18\x04\x06^@'
p8261
tp8262
Rp8263
aF0.113
aF0.406
aF0.9
aF2.15e-06
aF-6.79
aF0.0926
aF202.387
aF0.619
aa(lp8264
g2
(g3
(S'S15'
p8265
I0
I1
tp8266
Rp8267
(I3
S'|'
p8268
NNNI15
I1
I0
tp8269
bS"Take Me Fishin'"
p8270
tp8271
Rp8272
ag2
(g3
(S'S10'
p8273
I0
I1
tp8274
Rp8275
(I3
S'|'
p8276
NNNI10
I1
I0
tp8277
bS'Tracy Byrd'
p8278
tp8279
Rp8280
ag2
(g22
S'\xb3\xf827\xdb,\xe6?'
p8281
tp8282
Rp8283
ag2
(g22
S'\xc1V\xe7\xb0\\\n\xdb?'
p8284
tp8285
Rp8286
ag2
(g22
S'fk}\x91\xd0\xc8g@'
p8287
tp8288
Rp8289
ag2
(g22
S'?5^\xbaI\x0c\xd2?'
p8290
tp8291
Rp8292
ag2
(g22
S'#\xdb\xf9~j\x80f@'
p8293
tp8294
Rp8295
aF0.738
aF0.581
aF0.276
aI0
aF-9.417
aF0.034
aF137.412
aF0.232
aa(lp8296
g2
(g3
(S'S22'
p8297
I0
I1
tp8298
Rp8299
(I3
S'|'
p8300
NNNI22
I1
I0
tp8301
bS'The Coming Of The King'
p8302
tp8303
Rp8304
ag2
(g3
(S'S22'
p8305
I0
I1
tp8306
Rp8307
(I3
S'|'
p8308
NNNI22
I1
I0
tp8309
bS'Brian Free & Assurance'
p8310
tp8311
Rp8312
ag2
(g22
S'\xd5\x93[<X\xa7\xda?'
p8313
tp8314
Rp8315
ag2
(g22
S'\x8e\xf3\xce\x9a\x1b\xf5\xd7?'
p8316
tp8317
Rp8318
ag2
(g22
S'\xfd\x9f\xc3|y\xe1i@'
p8319
tp8320
Rp8321
ag2
(g22
S'\x00\x00\x00\x00\x00\x00\x00\x00'
p8322
tp8323
Rp8324
ag2
(g22
S'b\x10X9\xb4\x08i@'
p8325
tp8326
Rp8327
aF0.0826
aF0.56
aF0.475
aI0
aF-8.977
aF0.0286
aF131.966
aF0.237
aa(lp8328
g2
(g3
(S'S9'
p8329
I0
I1
tp8330
Rp8331
(I3
S'|'
p8332
NNNI9
I1
I0
tp8333
bS'Seventeen'
p8334
tp8335
Rp8336
ag2
(g3
(S'S11'
p8337
I0
I1
tp8338
Rp8339
(I3
S'|'
p8340
NNNI11
I1
I0
tp8341
bS'Sex Pistols'
p8342
tp8343
Rp8344
ag2
(g22
S'\xaf-\x9fx\xdce\xe7?'
p8345
tp8346
Rp8347
ag2
(g22
S'\xfdJr\x12\x15\x93\xe1?'
p8348
tp8349
Rp8350
ag2
(g22
S'\x86=\xed\xf0\xd7=`@'
p8351
tp8352
Rp8353
ag2
(g22
S'\x93\x18\x04V\x0e-\xee?'
p8354
tp8355
Rp8356
ag2
(g22
S'\xd1"\xdb\xf9~\xba_@'
p8357
tp8358
Rp8359
aF0.0667
aF0.347
aF0.922
aF0.635
aF-6.523
aF0.0487
aF144.004
aF0.532
aa(lp8360
g2
(g3
(S'S31'
p8361
I0
I1
tp8362
Rp8363
(I3
S'|'
p8364
NNNI31
I1
I0
tp8365
bS"If You Don't Somebody Else Will"
p8366
tp8367
Rp8368
ag2
(g3
(S'S10'
p8369
I0
I1
tp8370
Rp8371
(I3
S'|'
p8372
NNNI10
I1
I0
tp8373
bS'Carl Smith'
p8374
tp8375
Rp8376
ag2
(g22
S'\x8c(\xcd\xaa\xe7\xa5\xe1?'
p8377
tp8378
Rp8379
ag2
(g22
S'\x02*\x9f+\x8b\x82\xd6?'
p8380
tp8381
Rp8382
ag2
(g22
S'U\xd9wE\xf0\xe7Z@'
p8383
tp8384
Rp8385
ag2
(g22
S'\x00\x00\x00\x00\x00\x00\x00\x00'
p8386
tp8387
Rp8388
ag2
(g22
S'H\xe1z\x14\xae\xc7X@'
p8389
tp8390
Rp8391
aF0.729
aF0.694
aF0.638
aF0.498
aF-12.406
aF0.0424
aF109.415
aF0.909
aa(lp8392
g2
(g3
(S'S19'
p8393
I0
I1
tp8394
Rp8395
(I3
S'|'
p8396
NNNI19
I1
I0
tp8397
bS'Up Jumped The Devil'
p8398
tp8399
Rp8400
ag2
(g3
(S'S26'
p8401
I0
I1
tp8402
Rp8403
(I3
S'|'
p8404
NNNI26
I1
I0
tp8405
bS'Clarence "Gatemouth" Brown'
p8406
tp8407
Rp8408
ag2
(g22
S'Ez\xda\x18\x06l\xe2?'
p8409
tp8410
Rp8411
ag2
(g22
S'\xac\xd5\x86\xb0\xaf\x82\xd8?'
p8412
tp8413
Rp8414
ag2
(g22
S'\xd2\x18\xad\xa3*St@'
p8415
tp8416
Rp8417
ag2
(g22
S'\xe9&1\x08\xac\x1c\xe2?'
p8418
tp8419
Rp8420
ag2
(g22
S'q=\n\xd7\xa3\x08t@'
p8421
tp8422
Rp8423
aF0.00118
aF0.412
aF0.812
aF0.789
aF-7.715
aF0.0412
aF135.28
aF0.967
aa(lp8424
g2
(g3
(S'S11'
p8425
I0
I1
tp8426
Rp8427
(I3
S'|'
p8428
NNNI11
I1
I0
tp8429
bS'Free Africa'
p8430
tp8431
Rp8432
ag2
(g3
(S'S15'
p8433
I0
I1
tp8434
Rp8435
(I3
S'|'
p8436
NNNI15
I1
I0
tp8437
bS'Mighty Diamonds'
p8438
tp8439
Rp8440
ag2
(g22
S'2\xbah\x81\xaa)\xe1?'
p8441
tp8442
Rp8443
ag2
(g22
S'\xde\x13\xbb\xa3\xf6\x88\xda?'
p8444
tp8445
Rp8446
ag2
(g22
S'\xd3\xbc\xe3\x14\x1d\x0cp@'
p8447
tp8448
Rp8449
ag2
(g22
S'\xa2E\xb6\xf3\xfd\xd4\xd8?'
p8450
tp8451
Rp8452
ag2
(g22
S'\xe3\xa5\x9b\xc4 Hn@'
p8453
tp8454
Rp8455
aF0.00615
aF0.618
aF0.59
aF1.15e-06
aF-9.188
aF0.0385
aF170.189
aF0.722
aa(lp8456
g2
(g3
(S'S13'
p8457
I0
I1
tp8458
Rp8459
(I3
S'|'
p8460
NNNI13
I1
I0
tp8461
bS"Dodo's Bounce"
p8462
tp8463
Rp8464
ag2
(g3
(S'S12'
p8465
I0
I1
tp8466
Rp8467
(I3
S'|'
p8468
NNNI12
I1
I0
tp8469
bS'James Carter'
p8470
tp8471
Rp8472
ag2
(g22
S'\n\x9fu\xd3\xbb\xee\xdf?'
p8473
tp8474
Rp8475
ag2
(g22
S'\xfaV\xf5\x12\x84\xb2\xd5?'
p8476
tp8477
Rp8478
ag2
(g22
S'\xe5\xf2\x1f\xd2o\xe0v@'
p8479
tp8480
Rp8481
ag2
(g22
S'\x00\x00\x00\x00\x00\x00\x00\x00'
p8482
tp8483
Rp8484
ag2
(g22
S'H\xe1z\x14\xae\x1dv@'
p8485
tp8486
Rp8487
aF0.416
aF0.657
aF0.191
aF0.557
aF-17.558
aF0.228
aF136.421
aF0.59
aa(lp8488
g2
(g3
(S'S9'
p8489
I0
I1
tp8490
Rp8491
(I3
S'|'
p8492
NNNI9
I1
I0
tp8493
bS'Babylon 5'
p8494
tp8495
Rp8496
ag2
(g3
(S'S28'
p8497
I0
I1
tp8498
Rp8499
(I3
S'|'
p8500
NNNI28
I1
I0
tp8501
bS'The London Theatre Orchestra'
p8502
tp8503
Rp8504
ag2
(g22
S'E\xd6\x10eeF\xd5?'
p8505
tp8506
Rp8507
ag2
(g22
S'\xa6\xbab\xf3\xae \xd4?'
p8508
tp8509
Rp8510
ag2
(g22
S'g\x0f\xb4\x02C\xbcS@'
p8511
tp8512
Rp8513
ag2
(g22
S'V\x0e-\xb2\x9d\xef\xc7?'
p8514
tp8515
Rp8516
ag2
(g22
S'?5^\xbaI\xbcS@'
p8517
tp8518
Rp8519
aF0.622
aF0.0908
aF0.262
aF0.947
aF-8.958
aF0.0325
aF212.415
aF0.323
aa(lp8520
g2
(g3
(S'S17'
p8521
I0
I1
tp8522
Rp8523
(I3
S'|'
p8524
NNNI17
I1
I0
tp8525
bS'Revolution Action'
p8526
tp8527
Rp8528
ag2
(g3
(S'S18'
p8529
I0
I1
tp8530
Rp8531
(I3
S'|'
p8532
NNNI18
I1
I0
tp8533
bS'Atari Teenage Riot'
p8534
tp8535
Rp8536
ag2
(g22
S'Q>\x17[\\\xfa\xe5?'
p8537
tp8538
Rp8539
ag2
(g22
S'\xdd\xaaX\x86uh\xdc?'
p8540
tp8541
Rp8542
ag2
(g22
S'\xa0\xc3|y\x01/o@'
p8543
tp8544
Rp8545
ag2
(g22
S'\x85\xebQ\xb8\x1e\x85\x06@'
p8546
tp8547
Rp8548
ag2
(g22
S'^\xbaI\x0c\x02/o@'
p8549
tp8550
Rp8551
aF0.0519
aF0.262
aF0.991
aF0.0323
aF-5.965
aF0.207
aF100.38
aF0.0382
aa(lp8552
g2
(g3
(S'S11'
p8553
I0
I1
tp8554
Rp8555
(I3
S'|'
p8556
NNNI11
I1
I0
tp8557
bS'The Hardway'
p8558
tp8559
Rp8560
ag2
(g3
(S'S8'
p8561
I0
I1
tp8562
Rp8563
(I3
S'|'
p8564
NNNI8
I1
I0
tp8565
bS'DJ Isaac'
p8566
tp8567
Rp8568
ag2
(g22
S'i\xd2\xff\xbc\xfd\xb9\xe3?'
p8569
tp8570
Rp8571
ag2
(g22
S'\x8cD\x8b\x06oV\xdd?'
p8572
tp8573
Rp8574
ag2
(g22
S'\x91a\x15o\xe4"q@'
p8575
tp8576
Rp8577
ag2
(g22
S'\x00\x00\x00\x00\x00\x00\x00\x00'
p8578
tp8579
Rp8580
ag2
(g22
S'\xd7\xa3p=\n\xadp@'
p8581
tp8582
Rp8583
aF0.247
aF0.813
aF0.973
aF0.915
aF-6.3
aF0.102
aF172.125
aF0.284
aa(lp8584
g2
(g3
(S'S11'
p8585
I0
I1
tp8586
Rp8587
(I3
S'|'
p8588
NNNI11
I1
I0
tp8589
bS'Skate alone'
p8590
tp8591
Rp8592
ag2
(g3
(S'S4'
p8593
I0
I1
tp8594
Rp8595
(I3
S'|'
p8596
NNNI4
I1
I0
tp8597
bS'X-tv'
p8598
tp8599
Rp8600
ag2
(g22
S'a\x11\xdf\xe8\xc7+\xdc?'
p8601
tp8602
Rp8603
ag2
(g22
S'\xba)z\x88\xbb\x9a\xd3?'
p8604
tp8605
Rp8606
ag2
(g22
S'\x0e\x15\xe3\xfcMrq@'
p8607
tp8608
Rp8609
ag2
(g22
S'\xd5x\xe9&1\x08\xdc?'
p8610
tp8611
Rp8612
ag2
(g22
S'y\xe9&1\x08\x86p@'
p8613
tp8614
Rp8615
aF0.707
aF0.53
aF0.318
aF0.000306
aF-11.174
aF0.0281
aF145.987
aF0.242
aa(lp8616
g2
(g3
(S'S12'
p8617
I0
I1
tp8618
Rp8619
(I3
S'|'
p8620
NNNI12
I1
I0
tp8621
bS'Noche Eterna'
p8622
tp8623
Rp8624
ag2
(g3
(S'S19'
p8625
I0
I1
tp8626
Rp8627
(I3
S'|'
p8628
NNNI19
I1
I0
tp8629
bS'Beto y sus Canarios'
p8630
tp8631
Rp8632
ag2
(g22
S'\xd4\xf5\xf1\x8d\x12\x11\xe2?'
p8633
tp8634
Rp8635
ag2
(g22
S'\xa8\x88\xa4.\xd53\xda?'
p8636
tp8637
Rp8638
ag2
(g22
S'\x17+j0\r\xb7h@'
p8639
tp8640
Rp8641
ag2
(g22
S'\x00\x00\x00\x00\x00\x00\x00\x00'
p8642
tp8643
Rp8644
ag2
(g22
S'\xd7\xa3p=\n\xb7h@'
p8645
tp8646
Rp8647
aF0.375
aF0.69
aF0.741
aI0
aF-8.735
aF0.06
aF120.681
aF0.88
aa(lp8648
g2
(g3
(S'S16'
p8649
I0
I1
tp8650
Rp8651
(I3
S'|'
p8652
NNNI16
I1
I0
tp8653
bS'Killer Barracuda'
p8654
tp8655
Rp8656
ag2
(g3
(S'S18'
p8657
I0
I1
tp8658
Rp8659
(I3
S'|'
p8660
NNNI18
I1
I0
tp8661
bS'Kris Kristofferson'
p8662
tp8663
Rp8664
ag2
(g22
S'X\x00*\xed\xc4o\xe7?'
p8665
tp8666
Rp8667
ag2
(g22
S'Q\xe79\xc5#\xc2\xdf?'
p8668
tp8669
Rp8670
ag2
(g22
S'\x82\xca\xf8\xf7\x19\xe2f@'
p8671
tp8672
Rp8673
ag2
(g22
S'\x00\x00\x00\x00\x00\x00\x00\x00'
p8674
tp8675
Rp8676
ag2
(g22
S'j\xbct\x93\x18,e@'
p8677
tp8678
Rp8679
aF0.35
aF0.548
aF0.234
aF0.000724
aF-17.215
aF0.0349
aF137.867
aF0.424
aa(lp8680
g2
(g3
(S'S10'
p8681
I0
I1
tp8682
Rp8683
(I3
S'|'
p8684
NNNI10
I1
I0
tp8685
bS'Sensations'
p8686
tp8687
Rp8688
ag2
(g3
(S'S11'
p8689
I0
I1
tp8690
Rp8691
(I3
S'|'
p8692
NNNI11
I1
I0
tp8693
bS'Bravehearts'
p8694
tp8695
Rp8696
ag2
(g22
S'H5(\x9bK*\xe0?'
p8697
tp8698
Rp8699
ag2
(g22
S'v\xd5\xffn2\xce\xd7?'
p8700
tp8701
Rp8702
ag2
(g22
S'\xf47\xa1\x10\x01!j@'
p8703
tp8704
Rp8705
ag2
(g22
S'\x00\x00\x00\x00\x00\x00\x00\x00'
p8706
tp8707
Rp8708
ag2
(g22
S'\x85\xebQ\xb8\x1e=h@'
p8709
tp8710
Rp8711
aF0.0464
aF0.51
aF0.547
aI0
aF-10.431
aF0.463
aF192.435
aF0.907
aa(lp8712
g2
(g3
(S'S25'
p8713
I0
I1
tp8714
Rp8715
(I3
S'|'
p8716
NNNI25
I1
I0
tp8717
bS'The Burning Season (Live)'
p8718
tp8719
Rp8720
ag2
(g3
(S'S10'
p8721
I0
I1
tp8722
Rp8723
(I3
S'|'
p8724
NNNI10
I1
I0
tp8725
bS'Primordial'
p8726
tp8727
Rp8728
ag2
(g22
S'tptM\x85\x08\xe8?'
p8729
tp8730
Rp8731
ag2
(g22
S'[\xb1\xf3\xfd\xac\xc3\xda?'
p8732
tp8733
Rp8734
ag2
(g22
S'h"lxz\xc5\x7f@'
p8735
tp8736
Rp8737
ag2
(g22
S'\x00\x00\x00\x00\x00\x00\x00\x00'
p8738
tp8739
Rp8740
ag2
(g22
S'\xb6\xf3\xfd\xd4x\xc5\x7f@'
p8741
tp8742
Rp8743
aF2.11e-05
aF0.139
aF0.818
aF0.339
aF-9.799
aF0.105
aF98.993
aF0.11
aa(lp8744
g2
(g3
(S'S43'
p8745
I0
I1
tp8746
Rp8747
(I3
S'|'
p8748
NNNI43
I1
I0
tp8749
bS'Did You Get My Message?  (Live From Shubas)'
p8750
tp8751
Rp8752
ag2
(g3
(S'S10'
p8753
I0
I1
tp8754
Rp8755
(I3
S'|'
p8756
NNNI10
I1
I0
tp8757
bS'Jason Mraz'
p8758
tp8759
Rp8760
ag2
(g22
S'\xc7E\x8d\xa4\xa0\xf9\xea?'
p8761
tp8762
Rp8763
ag2
(g22
S'\x07\x01`\xde\xa2c\xe9?'
p8764
tp8765
Rp8766
ag2
(g22
S'8J^\x9d\xe3\x06u@'
p8767
tp8768
Rp8769
ag2
(g22
S'\x00\x00\x00\x00\x00\x00\x00\x00'
p8770
tp8771
Rp8772
ag2
(g22
S'\x85\xebQ\xb8\x1e\xf9s@'
p8773
tp8774
Rp8775
aF0.781
aF0.43
aF0.525
aI0
aF-9.533
aF0.163
aF86.805
aF0.704
aa(lp8776
g2
(g3
(S'S20'
p8777
I0
I1
tp8778
Rp8779
(I3
S'|'
p8780
NNNI20
I1
I0
tp8781
bS"Let's Seize The Time"
p8782
tp8783
Rp8784
ag2
(g3
(S'S11'
p8785
I0
I1
tp8786
Rp8787
(I3
S'|'
p8788
NNNI11
I1
I0
tp8789
bS'Jimmy Cliff'
p8790
tp8791
Rp8792
ag2
(g22
S'\xea\xe63u\xa9\x82\xe5?'
p8793
tp8794
Rp8795
ag2
(g22
S'\xfd\xf0\xce\xe2\xca\xdf\xdd?'
p8796
tp8797
Rp8798
ag2
(g22
S'u\x8e\x01\xd9k\xdbr@'
p8799
tp8800
Rp8801
ag2
(g22
S'\xc7K7\x89A`\xd5?'
p8802
tp8803
Rp8804
ag2
(g22
S'\x1f\x85\xebQ\xb8"q@'
p8805
tp8806
Rp8807
aF0.643
aF0.565
aF0.516
aF0.0018
aF-9.403
aF0.0258
aF124.14
aF0.573
aa(lp8808
g2
(g3
(S'S9'
p8809
I0
I1
tp8810
Rp8811
(I3
S'|'
p8812
NNNI9
I1
I0
tp8813
bS'Digitaria'
p8814
tp8815
Rp8816
ag2
(g3
(S'S12'
p8817
I0
I1
tp8818
Rp8819
(I3
S'|'
p8820
NNNI12
I1
I0
tp8821
bS'Bill Laswell'
p8822
tp8823
Rp8824
ag2
(g22
S'\xb0\xa8\x8b\x96?\xb2\xe5?'
p8825
tp8826
Rp8827
ag2
(g22
S'\xb6[\xb6x\xc9\xdb\xd9?'
p8828
tp8829
Rp8830
ag2
(g22
S'\rl\x95`\xf1\xd4w@'
p8831
tp8832
Rp8833
ag2
(g22
S'^\xbaI\x0c\x02+\x0b@'
p8834
tp8835
Rp8836
ag2
(g22
S'\xcd\xcc\xcc\xcc\xcc\xe8v@'
p8837
tp8838
Rp8839
aF0.0217
aF0.528
aF0.846
aF0.911
aF-16.393
aF0.0805
aF172.937
aF0.5
aa(lp8840
g2
(g3
(S'S10'
p8841
I0
I1
tp8842
Rp8843
(I3
S'|'
p8844
NNNI10
I1
I0
tp8845
bS'Real World'
p8846
tp8847
Rp8848
ag2
(g3
(S'S9'
p8849
I0
I1
tp8850
Rp8851
(I3
S'|'
p8852
NNNI9
I1
I0
tp8853
bS'Snowgoons'
p8854
tp8855
Rp8856
ag2
(g22
S'\\01\x83b\xc9\xe4?'
p8857
tp8858
Rp8859
ag2
(g22
S'p\x8d\xa3\xc0\xb0\x86\xdd?'
p8860
tp8861
Rp8862
ag2
(g22
S'L\x1a\xa3uT\x8aj@'
p8863
tp8864
Rp8865
ag2
(g22
S'\x17\xd9\xce\xf7S\xe3\xc5?'
p8866
tp8867
Rp8868
ag2
(g22
S'\xac\x1cZd;\xe7i@'
p8869
tp8870
Rp8871
aF0.000286
aF0.684
aF0.855
aF0.923
aF-5.372
aF0.034
aF93.999
aF0.862
aa(lp8872
g2
(g3
(S'S15'
p8873
I0
I1
tp8874
Rp8875
(I3
S'|'
p8876
NNNI15
I1
I0
tp8877
bS'White Christmas'
p8878
tp8879
Rp8880
ag2
(g3
(S'S20'
p8881
I0
I1
tp8882
Rp8883
(I3
S'|'
p8884
NNNI20
I1
I0
tp8885
bS'The Statler Brothers'
p8886
tp8887
Rp8888
ag2
(g22
S'\x88\xa9N\x0c\xbfM\xe4?'
p8889
tp8890
Rp8891
ag2
(g22
S'\xb3\xe1\x0fP\x02M\xda?'
p8892
tp8893
Rp8894
ag2
(g22
S'@\x18x\xee=\x96a@'
p8895
tp8896
Rp8897
ag2
(g22
S'\x81\x95C\x8bl\xe7\xd3?'
p8898
tp8899
Rp8900
ag2
(g22
S'^\xbaI\x0c\x02\x9f`@'
p8901
tp8902
Rp8903
aF0.747
aF0.347
aF0.231
aF0.000284
aF-11.845
aF0.0276
aF99.707
aF0.292
aa(lp8904
g2
(g3
(S'S6'
p8905
I0
I1
tp8906
Rp8907
(I3
S'|'
p8908
NNNI6
I1
I0
tp8909
bS'Canyon'
p8910
tp8911
Rp8912
ag2
(g3
(S'S5'
p8913
I0
I1
tp8914
Rp8915
(I3
S'|'
p8916
NNNI5
I1
I0
tp8917
bS"Vex'd"
p8918
tp8919
Rp8920
ag2
(g22
S'l\xc7\xb6\x1a\xe0\xbb\xe2?'
p8921
tp8922
Rp8923
ag2
(g22
S'V.\xa5m\x04\x06\xd8?'
p8924
tp8925
Rp8926
ag2
(g22
S'\xe7\x8c(\xed\x8d\xd0v@'
p8927
tp8928
Rp8929
ag2
(g22
S'\x00\x00\x00\x00\x00\x00\x00\x00'
p8930
tp8931
Rp8932
ag2
(g22
S'\xaa\xf1\xd2Mb\x90v@'
p8933
tp8934
Rp8935
aF0.000785
aF0.764
aF0.888
aF0.838
aF-8.268
aF0.112
aF143.999
aF0.775
aa(lp8936
g2
(g3
(S'S22'
p8937
I0
I1
tp8938
Rp8939
(I3
S'|'
p8940
NNNI22
I1
I0
tp8941
bS'Teri Nau Ke Paune Teen'
p8942
tp8943
Rp8944
ag2
(g3
(S'S12'
p8945
I0
I1
tp8946
Rp8947
(I3
S'|'
p8948
NNNI12
I1
I0
tp8949
bS'Daler Mehndi'
p8950
tp8951
Rp8952
ag2
(g22
S'1%\xd4\x1fq^\xe3?'
p8953
tp8954
Rp8955
ag2
(g22
S'\xad\xf1f\xd5di\xd6?'
p8956
tp8957
Rp8958
ag2
(g22
S'+\xde\xc8<\xf2\xafn@'
p8959
tp8960
Rp8961
ag2
(g22
S'\x91\xed|?5^\xca?'
p8962
tp8963
Rp8964
ag2
(g22
S'/\xdd$\x06\x81Mn@'
p8965
tp8966
Rp8967
aF0.356
aF0.729
aF0.975
aF1.82e-05
aF-3.692
aF0.213
aF146.941
aF0.764
aa(lp8968
g2
(g3
(S'S27'
p8969
I0
I1
tp8970
Rp8971
(I3
S'|'
p8972
NNNI27
I1
I0
tp8973
bS'Battle Hymn Of The Republic'
p8974
tp8975
Rp8976
ag2
(g3
(S'S20'
p8977
I0
I1
tp8978
Rp8979
(I3
S'|'
p8980
NNNI20
I1
I0
tp8981
bS'Mannheim Steamroller'
p8982
tp8983
Rp8984
ag2
(g22
S'MO\x18\xbe\xa7\xa1\xe4?'
p8985
tp8986
Rp8987
ag2
(g22
S'V^\x97\n\xbb\xad\xe4?'
p8988
tp8989
Rp8990
ag2
(g22
S'}\xd0\xb3Y\xf5\xd9q@'
p8991
tp8992
Rp8993
ag2
(g22
S'Nb\x10X9\xb4\xd8?'
p8994
tp8995
Rp8996
ag2
(g22
S'\xf4\xfd\xd4x\xe9Vq@'
p8997
tp8998
Rp8999
aF0.736
aF0.568
aF0.491
aF0.467
aF-9.593
aF0.0381
aF130.022
aF0.275
aa(lp9000
g2
(g3
(S'S13'
p9001
I0
I1
tp9002
Rp9003
(I3
S'|'
p9004
NNNI13
I1
I0
tp9005
bS"Don't Want To"
p9006
tp9007
Rp9008
ag2
(g3
(S'S10'
p9009
I0
I1
tp9010
Rp9011
(I3
S'|'
p9012
NNNI10
I1
I0
tp9013
bS"Lil' Romeo"
p9014
tp9015
Rp9016
ag2
(g22
S'\x13\xefR\x13\x99"\xe2?'
p9017
tp9018
Rp9019
ag2
(g22
S'\r\xab5}#\x9b\xd5?'
p9020
tp9021
Rp9022
ag2
(g22
S'\x13\x0f(\x9brzj@'
p9023
tp9024
Rp9025
ag2
(g22
S'\x00\x00\x00\x00\x00\x00\x00\x00'
p9026
tp9027
Rp9028
ag2
(g22
S')\\\x8f\xc2\xf5\x94i@'
p9029
tp9030
Rp9031
aF0.0374
aF0.896
aF0.389
aI0
aF-6.718
aF0.334
aF95.046
aF0.769
aa(lp9032
g2
(g3
(S'S11'
p9033
I0
I1
tp9034
Rp9035
(I3
S'|'
p9036
NNNI11
I1
I0
tp9037
bS'Dear Friend'
p9038
tp9039
Rp9040
ag2
(g3
(S'S6'
p9041
I0
I1
tp9042
Rp9043
(I3
S'|'
p9044
NNNI6
I1
I0
tp9045
bS'Shunza'
p9046
tp9047
Rp9048
ag2
(g22
S'\xed\x85)P\x05S\xbd?'
p9049
tp9050
Rp9051
ag2
(g22
S'\x00\x00\x00\x00\x00\x00\x00\x00'
p9052
tp9053
Rp9054
ag2
(g22
S'\xb2c#\x10/fq@'
p9055
tp9056
Rp9057
ag2
(g22
S'j\xbct\x93\x18\x04\x02@'
p9058
tp9059
Rp9060
ag2
(g22
S'\x1b/\xdd$\x06\xd3p@'
p9061
tp9062
Rp9063
aF0.897
aF0.49
aF0.15
aF2.38e-06
aF-14.976
aF0.0358
aF71.439
aF0.143
aa(lp9064
g2
(g3
(S'S12'
p9065
I0
I1
tp9066
Rp9067
(I3
S'|'
p9068
NNNI12
I1
I0
tp9069
bS'Heartbreaker'
p9070
tp9071
Rp9072
ag2
(g3
(S'S11'
p9073
I0
I1
tp9074
Rp9075
(I3
S'|'
p9076
NNNI11
I1
I0
tp9077
bS'Ray Charles'
p9078
tp9079
Rp9080
ag2
(g22
S'1\xa8\r\x134Q\xe8?'
p9081
tp9082
Rp9083
ag2
(g22
S'\x9c\xb5\xab\xfb\xe9\x8a\xe5?'
p9084
tp9085
Rp9086
ag2
(g22
S'j\xd9Z_$@e@'
p9087
tp9088
Rp9089
ag2
(g22
S'\x1b/\xdd$\x06\x81\xb5?'
p9090
tp9091
Rp9092
ag2
(g22
S'\xe3\xa5\x9b\xc4 hd@'
p9093
tp9094
Rp9095
aF0.824
aF0.789
aF0.513
aF3.63e-05
aF-9.055
aF0.0457
aF76.753
aF0.882
aa(lp9096
g2
(g3
(S'S16'
p9097
I0
I1
tp9098
Rp9099
(I3
S'|'
p9100
NNNI16
I1
I0
tp9101
bS"Sur L'autre rive"
p9102
tp9103
Rp9104
ag2
(g3
(S'S15'
p9105
I0
I1
tp9106
Rp9107
(I3
S'|'
p9108
NNNI15
I1
I0
tp9109
bS'Annie Blanchard'
p9110
tp9111
Rp9112
ag2
(g22
S'\xd5\x83\xc8n\xfb\xb3\xde?'
p9113
tp9114
Rp9115
ag2
(g22
S'\x86\xb2\xe1\xc6\xb2\x8e\xd6?'
p9116
tp9117
Rp9118
ag2
(g22
S'[_$\xb4\xe5Lp@'
p9119
tp9120
Rp9121
ag2
(g22
S'\x00\x00\x00\x00\x00\x00\x00\x00'
p9122
tp9123
Rp9124
ag2
(g22
S'\n\xd7\xa3p=\xc6o@'
p9125
tp9126
Rp9127
aF0.624
aF0.534
aF0.278
aF2.1e-06
aF-10.535
aF0.0269
aF101.89
aF0.159
aa(lp9128
g2
(g3
(S'S31'
p9129
I0
I1
tp9130
Rp9131
(I3
S'|'
p9132
NNNI31
I1
I0
tp9133
bS'The Beginning (Giro E Giro Mix)'
p9134
tp9135
Rp9136
ag2
(g3
(S'S4'
p9137
I0
I1
tp9138
Rp9139
(I3
S'|'
p9140
NNNI4
I1
I0
tp9141
bS'Seal'
p9142
tp9143
Rp9144
ag2
(g22
S"\xb32\x06\x10n'\xe2?"
p9145
tp9146
Rp9147
ag2
(g22
S'M+\x7f\xcew\x8f\xe2?'
p9148
tp9149
Rp9150
ag2
(g22
S"TR'\xa0\t\x01w@"
p9151
tp9152
Rp9153
ag2
(g22
S'\x83\xc0\xca\xa1E\xb6\xc3?'
p9154
tp9155
Rp9156
ag2
(g22
S'\xe3\xa5\x9b\xc4 "v@'
p9157
tp9158
Rp9159
aF0.104
aF0.723
aF0.888
aF0.525
aF-12.89
aF0.0378
aF123.76
aF0.77
aa(lp9160
g2
(g3
(S'S29'
p9161
I0
I1
tp9162
Rp9163
(I3
S'|'
p9164
NNNI29
I1
I0
tp9165
bS"What's Love Got to Do With It"
p9166
tp9167
Rp9168
ag2
(g3
(S'S8'
p9169
I0
I1
tp9170
Rp9171
(I3
S'|'
p9172
NNNI8
I1
I0
tp9173
bS'The Chap'
p9174
tp9175
Rp9176
ag2
(g22
S'\xc3\xe5\x85\x94\xe4\x9a\xe3?'
p9177
tp9178
Rp9179
ag2
(g22
S'L0\xa5`\x80I\xdd?'
p9180
tp9181
Rp9182
ag2
(g22
S'\x11\xc7\xba\xb8\x8d\x08k@'
p9183
tp9184
Rp9185
ag2
(g22
S'\x00\x00\x00\x00\x00\x00\x00\x00'
p9186
tp9187
Rp9188
ag2
(g22
S'\xe5\xd0"\xdb\xf9\x16j@'
p9189
tp9190
Rp9191
aF0.824
aF0.847
aF0.642
aF0.00218
aI-7
aF0.35
aF90.858
aF0.841
aa(lp9192
g2
(g3
(S'S45'
p9193
I0
I1
tp9194
Rp9195
(I3
S'|'
p9196
NNNI45
I1
I0
tp9197
bS'No Stopping Us [Eagles Ballroom Live Version]'
p9198
tp9199
Rp9200
ag2
(g3
(S'S10'
p9201
I0
I1
tp9202
Rp9203
(I3
S'|'
p9204
NNNI10
I1
I0
tp9205
bS'Jason Mraz'
p9206
tp9207
Rp9208
ag2
(g22
S'\xc7E\x8d\xa4\xa0\xf9\xea?'
p9209
tp9210
Rp9211
ag2
(g22
S'\x07\x01`\xde\xa2c\xe9?'
p9212
tp9213
Rp9214
ag2
(g22
S'\xef\xac\xddv!\x1fw@'
p9215
tp9216
Rp9217
ag2
(g22
S'\x00\x00\x00\x00\x00\x00\x00\x00'
p9218
tp9219
Rp9220
ag2
(g22
S'B`\xe5\xd0"\x1fw@'
p9221
tp9222
Rp9223
aF0.186
aF0.377
aF0.874
aI0
aF-4.28
aF0.0815
aF118.939
aF0.344
aa(lp9224
g2
(g3
(S'S58'
p9225
I0
I1
tp9226
Rp9227
(I3
S'|'
p9228
NNNI58
I1
I0
tp9229
bS'Take This Trail Trip Beside Me (The Best Of Janet Paschal)'
p9230
tp9231
Rp9232
ag2
(g3
(S'S13'
p9233
I0
I1
tp9234
Rp9235
(I3
S'|'
p9236
NNNI13
I1
I0
tp9237
bS'Janet Paschal'
p9238
tp9239
Rp9240
ag2
(g22
S'\xe9\xfc\x95\x03\xa5{\xd8?'
p9241
tp9242
Rp9243
ag2
(g22
S'\xfb\xeb\xaa\xec\xe6r\xd5?'
p9244
tp9245
Rp9246
ag2
(g22
S'Yni5$\xb9j@'
p9247
tp9248
Rp9249
ag2
(g22
S'\x00\x00\x00\x00\x00\x00\x0e@'
p9250
tp9251
Rp9252
ag2
(g22
S'\n\xd7\xa3p=\xa6i@'
p9253
tp9254
Rp9255
aF0.491
aF0.537
aF0.521
aF8.68e-06
aF-8.794
aF0.0288
aF97.926
aF0.434
aa(lp9256
g2
(g3
(S'S11'
p9257
I0
I1
tp9258
Rp9259
(I3
S'|'
p9260
NNNI11
I1
I0
tp9261
bS'Joe Sent Me'
p9262
tp9263
Rp9264
ag2
(g3
(S'S12'
p9265
I0
I1
tp9266
Rp9267
(I3
S'|'
p9268
NNNI12
I1
I0
tp9269
bS'Vanessa Daou'
p9270
tp9271
Rp9272
ag2
(g22
S'6\x12\x8fw3D\xe2?'
p9273
tp9274
Rp9275
ag2
(g22
S'2zp\xc2c\xd4\xd9?'
p9276
tp9277
Rp9278
ag2
(g22
S'\xf7;\x14\x05\xfa2l@'
p9279
tp9280
Rp9281
ag2
(g22
S'\xb8\x1e\x85\xebQ\xb8\xce?'
p9282
tp9283
Rp9284
ag2
(g22
S'\xdfO\x8d\x97n\xb2k@'
p9285
tp9286
Rp9287
aF0.0339
aF0.548
aF0.324
aF0.00296
aF-12.011
aF0.0929
aF86.739
aF0.418
aa(lp9288
g2
(g3
(S'S8'
p9289
I0
I1
tp9290
Rp9291
(I3
S'|'
p9292
NNNI8
I1
I0
tp9293
bS'Terminus'
p9294
tp9295
Rp9296
ag2
(g3
(S'S6'
p9297
I0
I1
tp9298
Rp9299
(I3
S'|'
p9300
NNNI6
I1
I0
tp9301
bS'Photek'
p9302
tp9303
Rp9304
ag2
(g22
S'\xc4\x1eMyU\xa7\xe4?'
p9305
tp9306
Rp9307
ag2
(g22
S'\xfa\xc0H0\xf5\x14\xdc?'
p9308
tp9309
Rp9310
ag2
(g22
S'\x98n\x12\x83\xc0nt@'
p9311
tp9312
Rp9313
ag2
(g22
S'333333\x14@'
p9314
tp9315
Rp9316
ag2
(g22
S'\xb2\x9d\xef\xa7\xc6\xb9s@'
p9317
tp9318
Rp9319
aF0.013
aF0.581
aF0.906
aF0.847
aF-7.805
aF0.0578
aF104.827
aF0.816
aa(lp9320
g2
(g3
(S'S21'
p9321
I0
I1
tp9322
Rp9323
(I3
S'|'
p9324
NNNI21
I1
I0
tp9325
bS'The Windsor Tap Recap'
p9326
tp9327
Rp9328
ag2
(g3
(S'S12'
p9329
I0
I1
tp9330
Rp9331
(I3
S'|'
p9332
NNNI12
I1
I0
tp9333
bS'Cotton Candy'
p9334
tp9335
Rp9336
ag2
(g22
S'\x90\xedT\x80\r\xe4\xe1?'
p9337
tp9338
Rp9339
ag2
(g22
S'5|CT\xd0\xaa\xd9?'
p9340
tp9341
Rp9342
ag2
(g22
S'\x03x\x0b$(\xbeb@'
p9343
tp9344
Rp9345
ag2
(g22
S'\x00\x00\x00\x00\x00\x00\x00\x00'
p9346
tp9347
Rp9348
ag2
(g22
S'\xa0\x1a/\xdd$\xbeb@'
p9349
tp9350
Rp9351
aF0.91
aF0.525
aF0.286
aF0.605
aF-9.966
aF0.0412
aF108.842
aF0.0377
aa(lp9352
g2
(g3
(S'S9'
p9353
I0
I1
tp9354
Rp9355
(I3
S'|'
p9356
NNNI9
I1
I0
tp9357
bS'Rock Star'
p9358
tp9359
Rp9360
ag2
(g3
(S'S14'
p9361
I0
I1
tp9362
Rp9363
(I3
S'|'
p9364
NNNI14
I1
I0
tp9365
bS'Agnostic Front'
p9366
tp9367
Rp9368
ag2
(g22
S'\x06\x1a\xdc\xfc5r\xe6?'
p9369
tp9370
Rp9371
ag2
(g22
S'\xcf\xda\xc6\xf4I#\xe0?'
p9372
tp9373
Rp9374
ag2
(g22
S"\xbb'\x0f\x0b\xb5\xaaW@"
p9375
tp9376
Rp9377
ag2
(g22
S'\x00\x00\x00\x00\x00\x00\x00\x00'
p9378
tp9379
Rp9380
ag2
(g22
S'\xa6\x9b\xc4 \xb0\xaaW@'
p9381
tp9382
Rp9383
aF0.0466
aF0.38
aF0.967
aI0
aF-2.12
aF0.0428
aF99.868
aF0.77
aa(lp9384
g2
(g3
(S'S12'
p9385
I0
I1
tp9386
Rp9387
(I3
S'|'
p9388
NNNI12
I1
I0
tp9389
bS'Life In Line'
p9390
tp9391
Rp9392
ag2
(g3
(S'S22'
p9393
I0
I1
tp9394
Rp9395
(I3
S'|'
p9396
NNNI22
I1
I0
tp9397
bS'The Last Days Of Jesus'
p9398
tp9399
Rp9400
ag2
(g22
S'\xae>\xd9\x0b.\xc2\xe0?'
p9401
tp9402
Rp9403
ag2
(g22
S'+L\xc3\xbf\xf8\xac\xd6?'
p9404
tp9405
Rp9406
ag2
(g22
S'f1\xb1\xf9\xb81j@'
p9407
tp9408
Rp9409
ag2
(g22
S'\x1b/\xdd$\x06\x81\xb5?'
p9410
tp9411
Rp9412
ag2
(g22
S'm\xe7\xfb\xa9\xf1\xc6h@'
p9413
tp9414
Rp9415
aF0.00182
aF0.576
aF0.812
aF0.0275
aF-6.578
aF0.0314
aF125.141
aF0.946
aa(lp9416
g2
(g3
(S'S15'
p9417
I0
I1
tp9418
Rp9419
(I3
S'|'
p9420
NNNI15
I1
I0
tp9421
bS'De Mi Enamorate'
p9422
tp9423
Rp9424
ag2
(g3
(S'S6'
p9425
I0
I1
tp9426
Rp9427
(I3
S'|'
p9428
NNNI6
I1
I0
tp9429
bS'Dyango'
p9430
tp9431
Rp9432
ag2
(g22
S'@\xf8+\xd1\x80\x99\xde?'
p9433
tp9434
Rp9435
ag2
(g22
S'I(3\x13;\x15\xd6?'
p9436
tp9437
Rp9438
ag2
(g22
S"77\xa6',\xc3n@"
p9439
tp9440
Rp9441
ag2
(g22
S'\x00\x00\x00\x00\x00\x00\x00\x00'
p9442
tp9443
Rp9444
ag2
(g22
S'\xd7\xa3p=\n7m@'
p9445
tp9446
Rp9447
aF0.748
aF0.401
aF0.456
aF1.27e-06
aF-8.097
aF0.032
aF197.549
aF0.466
aa(lp9448
g2
(g3
(S'S40'
p9449
I0
I1
tp9450
Rp9451
(I3
S'|'
p9452
NNNI40
I1
I0
tp9453
bS"A Man Holdin' On (To A Woman Lettin' Go)"
p9454
tp9455
Rp9456
ag2
(g3
(S'S10'
p9457
I0
I1
tp9458
Rp9459
(I3
S'|'
p9460
NNNI10
I1
I0
tp9461
bS'Ty Herndon'
p9462
tp9463
Rp9464
ag2
(g22
S't\x07\x93\x04\xda\xf2\xe4?'
p9465
tp9466
Rp9467
ag2
(g22
S'\xd9\xf4\x96L\x80\xd9\xdc?'
p9468
tp9469
Rp9470
ag2
(g22
S'\xc2\xfa?\x87\xf9$k@'
p9471
tp9472
Rp9473
ag2
(g22
S';\xdfO\x8d\x97n\xb2?'
p9474
tp9475
Rp9476
ag2
(g22
S'F\xb6\xf3\xfd\xd4\xeci@'
p9477
tp9478
Rp9479
aF0.555
aF0.606
aF0.403
aF1.23e-06
aF-7.95
aF0.0288
aF128.122
aF0.202
aa(lp9480
g2
(g3
(S'S11'
p9481
I0
I1
tp9482
Rp9483
(I3
S'|'
p9484
NNNI11
I1
I0
tp9485
bS'The Captain'
p9486
tp9487
Rp9488
ag2
(g3
(S'S9'
p9489
I0
I1
tp9490
Rp9491
(I3
S'|'
p9492
NNNI9
I1
I0
tp9493
bS'The Knife'
p9494
tp9495
Rp9496
ag2
(g22
S'\x95\x9c\x19*u\x9c\xe8?'
p9497
tp9498
Rp9499
ag2
(g22
S'\xea\xb7Ms\xe88\xdf?'
p9500
tp9501
Rp9502
ag2
(g22
S'X\xe7\x18\x90\xbd\x0cw@'
p9503
tp9504
Rp9505
ag2
(g22
S'o\x12\x83\xc0\xca\xa1\xdd?'
p9506
tp9507
Rp9508
ag2
(g22
S')\\\x8f\xc2\xf5bv@'
p9509
tp9510
Rp9511
aF0.215
aF0.35
aF0.364
aF0.724
aF-10.984
aF0.0313
aF105.005
aF0.0336
aa(lp9512
g2
(g3
(S'S12'
p9513
I0
I1
tp9514
Rp9515
(I3
S'|'
p9516
NNNI12
I1
I0
tp9517
bS'Get it Right'
p9518
tp9519
Rp9520
ag2
(g3
(S'S4'
p9521
I0
I1
tp9522
Rp9523
(I3
S'|'
p9524
NNNI4
I1
I0
tp9525
bS'A-FS'
p9526
tp9527
Rp9528
ag2
(g22
S'k\xad\x10\xc3\x0c\x83\xde?'
p9529
tp9530
Rp9531
ag2
(g22
S'\x00\x00\x00\x00\x00\x00\x00\x00'
p9532
tp9533
Rp9534
ag2
(g22
S'/\x86r\xa2]\xbei@'
p9535
tp9536
Rp9537
ag2
(g22
S'L7\x89A`\xe5\xd0?'
p9538
tp9539
Rp9540
ag2
(g22
S'\x9a\x99\x99\x99\x99\xedh@'
p9541
tp9542
Rp9543
aF0.117
aF0.847
aF0.737
aF1.49e-05
aF-3.179
aF0.0646
aF98.313
aF0.691
aa(lp9544
g2
(g3
(S'S12'
p9545
I0
I1
tp9546
Rp9547
(I3
S'|'
p9548
NNNI12
I1
I0
tp9549
bS'Best Friends'
p9550
tp9551
Rp9552
ag2
(g3
(S'S6'
p9553
I0
I1
tp9554
Rp9555
(I3
S'|'
p9556
NNNI6
I1
I0
tp9557
bS'Kieran'
p9558
tp9559
Rp9560
ag2
(g22
S'\xd5\x01l\xf4%{\xe2?'
p9561
tp9562
Rp9563
ag2
(g22
S'\xea\x87\x16+z\xf4\xd4?'
p9564
tp9565
Rp9566
ag2
(g22
S'\x979]\x16\x13{k@'
p9567
tp9568
Rp9569
ag2
(g22
S'\x91\xed|?5^\xca?'
p9570
tp9571
Rp9572
ag2
(g22
S'P\x8d\x97n\x12{k@'
p9573
tp9574
Rp9575
aF0.242
aF0.622
aF0.505
aI0
aF-5.177
aF0.0303
aF131.379
aF0.397
aa(lp9576
g2
(g3
(S'S18'
p9577
I0
I1
tp9578
Rp9579
(I3
S'|'
p9580
NNNI18
I1
I0
tp9581
bS'Ship in a Painting'
p9582
tp9583
Rp9584
ag2
(g3
(S'S13'
p9585
I0
I1
tp9586
Rp9587
(I3
S'|'
p9588
NNNI13
I1
I0
tp9589
bS'Gabriel Yared'
p9590
tp9591
Rp9592
ag2
(g22
S'\xe2\x17\xf2\xad\xe0\x93\xe3?'
p9593
tp9594
Rp9595
ag2
(g22
S'u\xb7^\xcc\xe7\x89\xd9?'
p9596
tp9597
Rp9598
ag2
(g22
S'\x8c\xdbh\x00o\x01Y@'
p9599
tp9600
Rp9601
ag2
(g22
S'o\x12\x83\xc0\xca\xa1\x1a@'
p9602
tp9603
Rp9604
ag2
(g22
S'\xc5 \xb0rh\x01Y@'
p9605
tp9606
Rp9607
aF0.152
aF0.195
aF0.481
aF0.966
aF-15.872
aF0.0391
aF63.904
aF0.101
aa(lp9608
g2
(g3
(S'S29'
p9609
I0
I1
tp9610
Rp9611
(I3
S'|'
p9612
NNNI29
I1
I0
tp9613
bS'Superfly (Single Mix Version)'
p9614
tp9615
Rp9616
ag2
(g3
(S'S15'
p9617
I0
I1
tp9618
Rp9619
(I3
S'|'
p9620
NNNI15
I1
I0
tp9621
bS'Curtis Mayfield'
p9622
tp9623
Rp9624
ag2
(g22
S'\x1b6(ou.\xe9?'
p9625
tp9626
Rp9627
ag2
(g22
S'w3l\xd8\x1a\xb3\xdf?'
p9628
tp9629
Rp9630
ag2
(g22
S'\xd6s\xd2\xfb\xc6\x86g@'
p9631
tp9632
Rp9633
ag2
(g22
S'\x00\x00\x00\x00\x00\x00\x00\x00'
p9634
tp9635
Rp9636
ag2
(g22
S'\xe5\xd0"\xdb\xf9\ng@'
p9637
tp9638
Rp9639
aF0.345
aF0.819
aF0.798
aF0.000376
aF-6.712
aF0.116
aF119.754
aF0.727
aa(lp9640
g2
(g3
(S'S7'
p9641
I0
I1
tp9642
Rp9643
(I3
S'|'
p9644
NNNI7
I1
I0
tp9645
bS'Cumayon'
p9646
tp9647
Rp9648
ag2
(g3
(S'S13'
p9649
I0
I1
tp9650
Rp9651
(I3
S'|'
p9652
NNNI13
I1
I0
tp9653
bS'Jimmy McGriff'
p9654
tp9655
Rp9656
ag2
(g22
S'\xb1P|\xf5F\xe3\xe2?'
p9657
tp9658
Rp9659
ag2
(g22
S'\xe0\x8c\xac\xf9\x8a\xcb\xd8?'
p9660
tp9661
Rp9662
ag2
(g22
S'V\x82\xc5\xe1\xccJj@'
p9663
tp9664
Rp9665
ag2
(g22
S'\x00\x00\x00\x00\x00\x00\x00\x00'
p9666
tp9667
Rp9668
ag2
(g22
S'\xee|?5^Ni@'
p9669
tp9670
Rp9671
aF0.0953
aF0.44
aF0.688
aF2.39e-05
aF-8.62
aF0.0327
aF95.847
aF0.645
aa(lp9672
g2
(g3
(S'S14'
p9673
I0
I1
tp9674
Rp9675
(I3
S'|'
p9676
NNNI14
I1
I0
tp9677
bS'The Golden Sea'
p9678
tp9679
Rp9680
ag2
(g3
(S'S22'
p9681
I0
I1
tp9682
Rp9683
(I3
S'|'
p9684
NNNI22
I1
I0
tp9685
bS'Danny Davis & The Boys'
p9686
tp9687
Rp9688
ag2
(g22
S':\x0bW^X\x86\xda?'
p9689
tp9690
Rp9691
ag2
(g22
S'S^\x9f\x08`\xca\xd1?'
p9692
tp9693
Rp9694
ag2
(g22
S'S\x05\xa3\x92:&e@'
p9695
tp9696
Rp9697
ag2
(g22
S'\n\xd7\xa3p=\n\xdf?'
p9698
tp9699
Rp9700
ag2
(g22
S'+\x87\x16\xd9\xceGd@'
p9701
tp9702
Rp9703
aF0.865
aF0.21
aF0.271
aF0.495
aF-15.7
aF0.0387
aF129.287
aF0.0383
aa(lp9704
g2
(g3
(S'S14'
p9705
I0
I1
tp9706
Rp9707
(I3
S'|'
p9708
NNNI14
I1
I0
tp9709
bS'My Little Girl'
p9710
tp9711
Rp9712
ag2
(g3
(S'S20'
p9713
I0
I1
tp9714
Rp9715
(I3
S'|'
p9716
NNNI20
I1
I0
tp9717
bS'The Jeff Healey Band'
p9718
tp9719
Rp9720
ag2
(g22
S'\xad\xf8\x9a\x89x\xf0\xe6?'
p9721
tp9722
Rp9723
ag2
(g22
S'n(2\xc0\xd8\x82\xda?'
p9724
tp9725
Rp9726
ag2
(g22
S'V\xb7zNz\xfdk@'
p9727
tp9728
Rp9729
ag2
(g22
S'\x00\x00\x00\x00\x00\x00\x00\x00'
p9730
tp9731
Rp9732
ag2
(g22
S'\xb6\xf3\xfd\xd4x\xfdk@'
p9733
tp9734
Rp9735
aF0.183
aF0.489
aF0.933
aF2.47e-05
aF-6.665
aF0.0749
aF127.682
aF0.687
aa(lp9736
g2
(g3
(S'S12'
p9737
I0
I1
tp9738
Rp9739
(I3
S'|'
p9740
NNNI12
I1
I0
tp9741
bS'Pop dat shit'
p9742
tp9743
Rp9744
ag2
(g3
(S'S8'
p9745
I0
I1
tp9746
Rp9747
(I3
S'|'
p9748
NNNI8
I1
I0
tp9749
bS'DJ Omega'
p9750
tp9751
Rp9752
ag2
(g22
S'\x98\xca\x0b\xda^\xfd\xe1?'
p9753
tp9754
Rp9755
ag2
(g22
S'\xb1\xcc\x85>"\x04\xd5?'
p9756
tp9757
Rp9758
ag2
(g22
S'\x01\x18\xcf\xa0\xa1!k@'
p9759
tp9760
Rp9761
ag2
(g22
S'\xc5 \xb0rh\x91\xe1?'
p9762
tp9763
Rp9764
ag2
(g22
S'#\xdb\xf9~j\xc0i@'
p9765
tp9766
Rp9767
aF2.16e-05
aF0.884
aF0.709
aF0.49
aF-14.298
aF0.146
aF80.023
aF0.871
aa(lp9768
g2
(g3
(S'S64'
p9769
I0
I1
tp9770
Rp9771
(I3
S'|'
p9772
NNNI64
I1
I0
tp9773
bS"Kimisou Palikari (TH' Allaxi To Feggari) (2004 Digital Remaster)"
p9774
tp9775
Rp9776
ag2
(g3
(S'S14'
p9777
I0
I1
tp9778
Rp9779
(I3
S'|'
p9780
NNNI14
I1
I0
tp9781
bS'Viki Mosholiou'
p9782
tp9783
Rp9784
ag2
(g22
S'\xb8\xd0\xfb\xea5.\xd5?'
p9785
tp9786
Rp9787
ag2
(g22
S'\x04n0\x8d<\xd7\xcf?'
p9788
tp9789
Rp9790
ag2
(g22
S'o*Ra\xec,q@'
p9791
tp9792
Rp9793
ag2
(g22
S'\x91\xed|?5^\xca?'
p9794
tp9795
Rp9796
ag2
(g22
S'\xe1z\x14\xaeG\xc5p@'
p9797
tp9798
Rp9799
aF0.758
aF0.286
aF0.376
aF0.000857
aF-9.347
aF0.0321
aF92.214
aF0.349
aa(lp9800
g2
(g3
(S'S31'
p9801
I0
I1
tp9802
Rp9803
(I3
S'|'
p9804
NNNI31
I1
I0
tp9805
bS'Show Me Your Teeth (Radio Edit)'
p9806
tp9807
Rp9808
ag2
(g3
(S'S18'
p9809
I0
I1
tp9810
Rp9811
(I3
S'|'
p9812
NNNI18
I1
I0
tp9813
bS'Year Long Disaster'
p9814
tp9815
Rp9816
ag2
(g22
S'\xc0nC\x13$\xf9\xe8?'
p9817
tp9818
Rp9819
ag2
(g22
S'\x17\r\xd9\xac\xdd\xaa\xd7?'
p9820
tp9821
Rp9822
ag2
(g22
S'I\xf42\x8a\xe5\x84l@'
p9823
tp9824
Rp9825
ag2
(g22
S'\x00\x00\x00\x00\x00\x00\x00\x00'
p9826
tp9827
Rp9828
ag2
(g22
S'\x8bl\xe7\xfb\xa99l@'
p9829
tp9830
Rp9831
aF0.000333
aF0.626
aF0.913
aF0.000452
aF-4.611
aF0.0698
aF114.031
aF0.397
aa(lp9832
g2
(g3
(S'S20'
p9833
I0
I1
tp9834
Rp9835
(I3
S'|'
p9836
NNNI20
I1
I0
tp9837
bS'Jesus Is Coming Soon'
p9838
tp9839
Rp9840
ag2
(g3
(S'S20'
p9841
I0
I1
tp9842
Rp9843
(I3
S'|'
p9844
NNNI20
I1
I0
tp9845
bS'Blind Willie Johnson'
p9846
tp9847
Rp9848
ag2
(g22
S'J \xdb\xfe8o\xe3?'
p9849
tp9850
Rp9851
ag2
(g22
S'\x97\x01g\xfeZ\xac\xd9?'
p9852
tp9853
Rp9854
ag2
(g22
S'\x7f\x13\n\x11p&h@'
p9855
tp9856
Rp9857
ag2
(g22
S'\xcd\xcc\xcc\xcc\xcc\xcc\x08@'
p9858
tp9859
Rp9860
ag2
(g22
S'Zd;\xdfO\xb5g@'
p9861
tp9862
Rp9863
aF0.994
aF0.612
aF0.36
aF0.000154
aF-12.973
aF0.0378
aF139.734
aF0.628
aa(lp9864
g2
(g3
(S'S21'
p9865
I0
I1
tp9866
Rp9867
(I3
S'|'
p9868
NNNI21
I1
I0
tp9869
bS'Tearing Everyone Down'
p9870
tp9871
Rp9872
ag2
(g3
(S'S9'
p9873
I0
I1
tp9874
Rp9875
(I3
S'|'
p9876
NNNI9
I1
I0
tp9877
bS'Anti-Flag'
p9878
tp9879
Rp9880
ag2
(g22
S'qTn1_\x02\xeb?'
p9881
tp9882
Rp9883
ag2
(g22
S'\x02\xbeBq\xb6\xc7\xe0?'
p9884
tp9885
Rp9886
ag2
(g22
S'\x91\xd0\x96s)\xe8e@'
p9887
tp9888
Rp9889
ag2
(g22
S'\x00\x00\x00\x00\x00\x00\x00\x00'
p9890
tp9891
Rp9892
ag2
(g22
S'\xcb\xa1E\xb6\xf3yd@'
p9893
tp9894
Rp9895
aF0.0295
aF0.484
aF0.988
aF1.2e-05
aF-3.227
aF0.0467
aF109.456
aF0.564
aa(lp9896
g2
(g3
(S'S26'
p9897
I0
I1
tp9898
Rp9899
(I3
S'|'
p9900
NNNI26
I1
I0
tp9901
bS'Roadrunner / My Generation'
p9902
tp9903
Rp9904
ag2
(g3
(S'S21'
p9905
I0
I1
tp9906
Rp9907
(I3
S'|'
p9908
NNNI21
I1
I0
tp9909
bS'Tony Ashton & Friends'
p9910
tp9911
Rp9912
ag2
(g22
S'\xc7\xdc\x1e\x0b\xe3u\xc4?'
p9913
tp9914
Rp9915
ag2
(g22
S'\x00\x00\x00\x00\x00\x00\x00\x00'
p9916
tp9917
Rp9918
ag2
(g22
S'q $\x0b\x18dq@'
p9919
tp9920
Rp9921
ag2
(g22
S'\x00\x00\x00\x00\x00\x00\x00\x00'
p9922
tp9923
Rp9924
ag2
(g22
S'j\xbct\x93\x18dq@'
p9925
tp9926
Rp9927
aF0.233
aF0.842
aF0.862
aI0
aF-4.496
aF0.327
aF146.135
aF0.8
aa(lp9928
g2
(g3
(S'S14'
p9929
I0
I1
tp9930
Rp9931
(I3
S'|'
p9932
NNNI14
I1
I0
tp9933
bS'Near The Cross'
p9934
tp9935
Rp9936
ag2
(g3
(S'S15'
p9937
I0
I1
tp9938
Rp9939
(I3
S'|'
p9940
NNNI15
I1
I0
tp9941
bS'Dorothy Norwood'
p9942
tp9943
Rp9944
ag2
(g22
S'k8\x82\x05$\xc5\xda?'
p9945
tp9946
Rp9947
ag2
(g22
S'\xa8:\xd0\xf3\x8a\x80\xd4?'
p9948
tp9949
Rp9950
ag2
(g22
S'\xd3\xc1\xfa?\x87\xf0q@'
p9951
tp9952
Rp9953
ag2
(g22
S'\xb2\x9d\xef\xa7\xc6K\x04@'
p9954
tp9955
Rp9956
ag2
(g22
S"\xa8\xc6K7\x89'q@"
p9957
tp9958
Rp9959
aF0.662
aF0.288
aF0.7
aI0
aF-7.883
aF0.0546
aF75.671
aF0.516
aa.