(lp0
(lp1
cnumpy.core.multiarray
scalar
p2
(cnumpy
dtype
p3
(S'S15'
p4
I0
I1
tp5
Rp6
(I3
S'|'
p7
NNNI15
I1
I0
tp8
bS'A Talk With Dad'
p9
tp10
Rp11
ag2
(g3
(S'S6'
p12
I0
I1
tp13
Rp14
(I3
S'|'
p15
NNNI6
I1
I0
tp16
bS'Speech'
p17
tp18
Rp19
ag2
(g3
(S'f8'
p20
I0
I1
tp21
Rp22
(I3
S'<'
p23
NNNI-1
I-1
I0
tp24
bS'\x95\xe3\x90d\xb1\x14\xe3?'
p25
tp26
Rp27
ag2
(g22
S'W\xfc{.\xac\xe2\xd5?'
p28
tp29
Rp30
ag2
(g22
S'\x02\xbc\x05\x12\x14\x1ed@'
p31
tp32
Rp33
ag2
(g22
S'{\x14\xaeG\xe1z\xc4?'
p34
tp35
Rp36
ag2
(g22
S'\xaeG\xe1z\x14\x1ed@'
p37
tp38
Rp39
aF0.965
aF0.644
aF0.273
aF0.00223
aF-19.014
aF0.531
aF142.09
aF0.753
aa(lp40
g2
(g3
(S'S10'
p41
I0
I1
tp42
Rp43
(I3
S'|'
p44
NNNI10
I1
I0
tp45
bS'Whip Fight'
p46
tp47
Rp48
ag2
(g3
(S'S22'
p49
I0
I1
tp50
Rp51
(I3
S'|'
p52
NNNI22
I1
I0
tp53
bS'Harry Gregson-Williams'
p54
tp55
Rp56
ag2
(g22
S'\xe4\x98\x7fl\x97\xee\xe3?'
p57
tp58
Rp59
ag2
(g22
S'Md\x9c\x18\r\x85\xdd?'
p60
tp61
Rp62
ag2
(g22
S'\r\xe0-\x90\xa0\xfcW@'
p63
tp64
Rp65
ag2
(g22
S'\xb6\xf3\xfd\xd4x\xe9\xc6?'
p66
tp67
Rp68
ag2
(g22
S'\xf8S\xe3\xa5\x9b\xfcW@'
p69
tp70
Rp71
aF0.102
aF0.638
aF0.642
aF0.561
aF-15.477
aF0.0375
aF146.03
aF0.419
aa(lp72
g2
(g3
(S'S19'
p73
I0
I1
tp74
Rp75
(I3
S'|'
p76
NNNI19
I1
I0
tp77
bS'Atrapados En La Red'
p78
tp79
Rp80
ag2
(g3
(S'S11'
p81
I0
I1
tp82
Rp83
(I3
S'|'
p84
NNNI11
I1
I0
tp85
bS'Tam Tam Go!'
p86
tp87
Rp88
ag2
(g22
S'\xd3\xc6H\xac={\xe0?'
p89
tp90
Rp91
ag2
(g22
S'\x95\x9b/3\xafD\xd4?'
p92
tp93
Rp94
ag2
(g22
S'H\xbf}\x1d\xb8Vy@'
p95
tp96
Rp97
ag2
(g22
S'{\x14\xaeG\xe1z\xc4?'
p98
tp99
Rp100
ag2
(g22
S'\xe9&1\x08\xac\xe4x@'
p101
tp102
Rp103
aF0.152
aF0.753
aF0.749
aI0
aF-8.758
aF0.0419
aF135.785
aF0.948
aa(lp104
g2
(g3
(S'S22'
p105
I0
I1
tp106
Rp107
(I3
S'|'
p108
NNNI22
I1
I0
tp109
bS'Des Helden Widersacher'
p110
tp111
Rp112
ag2
(g3
(S'S12'
p113
I0
I1
tp114
Rp115
(I3
S'|'
p116
NNNI12
I1
I0
tp117
bS'David Zinman'
p118
tp119
Rp120
ag2
(g22
S'\xe9X\xdds\xa0\x1c\xda?'
p121
tp122
Rp123
ag2
(g22
S'yd$\xb2\xa7Q\xd5?'
p124
tp125
Rp126
ag2
(g22
S'\xb4\xc8v\xbe\x9fbl@'
p127
tp128
Rp129
ag2
(g22
S'\xc5 \xb0rh\x91\xe1?'
p130
tp131
Rp132
ag2
(g22
S'\xb4\xc8v\xbe\x9fbl@'
p133
tp134
Rp135
aF0.924
aF0.199
aF0.0711
aF0.941
aF-25.135
aF0.0396
aF129.081
aF0.0351
aa(lp136
g2
(g3
(S'S1'
p137
I0
I1
tp138
Rp139
(I3
S'|'
p140
NNNI1
I1
I0
tp141
bS'V'
p142
tp143
Rp144
ag2
(g3
(S'S10'
p145
I0
I1
tp146
Rp147
(I3
S'|'
p148
NNNI10
I1
I0
tp149
bS'Zeromancer'
p150
tp151
Rp152
ag2
(g22
S'\xe6L\xbb\xc2\xe7\x9f\xe4?'
p153
tp154
Rp155
ag2
(g22
S'\r\xa4\x8fQ\xa9\xf5\xd9?'
p156
tp157
Rp158
ag2
(g22
S'\x96\xe7\xc1\xddY\x81q@'
p159
tp160
Rp161
ag2
(g22
S'\x00\x00\x00\x00\x00\x00\x00\x00'
p162
tp163
Rp164
ag2
(g22
S'\x0e-\xb2\x9d\xef\xf9p@'
p165
tp166
Rp167
aF0.056
aF0.553
aF0.832
aF3.64e-05
aF-7.387
aF0.045
aF120.007
aF0.149
aa(lp168
g2
(g3
(S'S7'
p169
I0
I1
tp170
Rp171
(I3
S'|'
p172
NNNI7
I1
I0
tp173
bS'Push It'
p174
tp175
Rp176
ag2
(g3
(S'S11'
p177
I0
I1
tp178
Rp179
(I3
S'|'
p180
NNNI11
I1
I0
tp181
bS'Salt-N-Pepa'
p182
tp183
Rp184
ag2
(g22
S"D\x1b\x8c\xb7\xaf'\xe6?"
p185
tp186
Rp187
ag2
(g22
S'\xad^\xcb\x1e\x02\x9e\xe0?'
p188
tp189
Rp190
ag2
(g22
S'\xd0\n\x0cY\xdd\xf3i@'
p191
tp192
Rp193
ag2
(g22
S'\x91\xed|?5^\xd2?'
p194
tp195
Rp196
ag2
(g22
S'\x1dZd;\xdf\xf3i@'
p197
tp198
Rp199
aF0.00684
aF0.926
aF0.6
aF0.00187
aF-12.485
aF0.0883
aF127.247
aF0.97
aa(lp200
g2
(g3
(S'S23'
p201
I0
I1
tp202
Rp203
(I3
S'|'
p204
NNNI23
I1
I0
tp205
bS'Little Bit of Inner Air'
p206
tp207
Rp208
ag2
(g3
(S'S14'
p209
I0
I1
tp210
Rp211
(I3
S'|'
p212
NNNI14
I1
I0
tp213
bS'Atomic Rooster'
p214
tp215
Rp216
ag2
(g22
S'5\x17=\xea\x0b\xaa\xe0?'
p217
tp218
Rp219
ag2
(g22
S'\r\xc0\xee\x0bk\xe4\xd9?'
p220
tp221
Rp222
ag2
(g22
S'x\xee=\\r\xf3c@'
p223
tp224
Rp225
ag2
(g22
S'\xc3\xf5(\\\x8f\xc2\xd5?'
p226
tp227
Rp228
ag2
(g22
S'\xfa~j\xbct\xf3c@'
p229
tp230
Rp231
aF0.119
aF0.61
aF0.86
aF3.62e-05
aF-8.716
aF0.0491
aF124.679
aF0.803
aa(lp232
g2
(g3
(S'S11'
p233
I0
I1
tp234
Rp235
(I3
S'|'
p236
NNNI11
I1
I0
tp237
bS'On Tomorrow'
p238
tp239
Rp240
ag2
(g3
(S'S34'
p241
I0
I1
tp242
Rp243
(I3
S'|'
p244
NNNI34
I1
I0
tp245
bS'Captain Beefheart & The Magic Band'
p246
tp247
Rp248
ag2
(g22
S'\xd03}\xe5v.\xe2?'
p249
tp250
Rp251
ag2
(g22
S'\xd0\x9e\x17b\xbf\xcc\xd8?'
p252
tp253
Rp254
ag2
(g22
S'\xec\x17\xec\x86m\xd2i@'
p255
tp256
Rp257
ag2
(g22
S'\x00\x00\x00\x00\x00\x00\x00\x00'
p258
tp259
Rp260
ag2
(g22
S'\xdfO\x8d\x97n\xd2i@'
p261
tp262
Rp263
aF0.887
aF0.366
aF0.407
aF0.263
aF-10.047
aF0.0265
aF148.436
aF0.351
aa(lp264
g2
(g3
(S'S19'
p265
I0
I1
tp266
Rp267
(I3
S'|'
p268
NNNI19
I1
I0
tp269
bS'Seeing Is Believing'
p270
tp271
Rp272
ag2
(g3
(S'S22'
p273
I0
I1
tp274
Rp275
(I3
S'|'
p276
NNNI22
I1
I0
tp277
bS'Mike And The Mechanics'
p278
tp279
Rp280
ag2
(g22
S'\xb6~\x0f\x150-\xe5?'
p281
tp282
Rp283
ag2
(g22
S'\xc2\xb9G\xca\xf0x\xd0?'
p284
tp285
Rp286
ag2
(g22
S'\xbeM\x7f\xf6#2h@'
p287
tp288
Rp289
ag2
(g22
S"'1\x08\xac\x1cZ\xdc?"
p290
tp291
Rp292
ag2
(g22
S'\x0e-\xb2\x9d\xefsg@'
p293
tp294
Rp295
aF0.0721
aF0.532
aF0.905
aF6.76e-06
aF-9.645
aF0.0317
aF132.157
aF0.822
aa(lp296
g2
(g3
(S'S16'
p297
I0
I1
tp298
Rp299
(I3
S'|'
p300
NNNI16
I1
I0
tp301
bS'Through With You'
p302
tp303
Rp304
ag2
(g3
(S'S8'
p305
I0
I1
tp306
Rp307
(I3
S'|'
p308
NNNI8
I1
I0
tp309
bS'Maroon 5'
p310
tp311
Rp312
ag2
(g22
S'\xea\x1c\x84\xe7\xaa\xf9\xec?'
p313
tp314
Rp315
ag2
(g22
S'q\x89\x18\xa1\xf8\xfc\xea?'
p316
tp317
Rp318
ag2
(g22
S'\xdb\x16e6\xc8\xb0f@'
p319
tp320
Rp321
ag2
(g22
S'\xdb\xf9~j\xbct\xd3?'
p322
tp323
Rp324
ag2
(g22
S'\xb8\x1e\x85\xebQ\x04f@'
p325
tp326
Rp327
aF0.0757
aF0.69
aF0.817
aI0
aF-5.36
aF0.0531
aF146.12
aF0.567
aa(lp328
g2
(g3
(S'S16'
p329
I0
I1
tp330
Rp331
(I3
S'|'
p332
NNNI16
I1
I0
tp333
bS'Sweeter Than You'
p334
tp335
Rp336
ag2
(g3
(S'S16'
p337
I0
I1
tp338
Rp339
(I3
S'|'
p340
NNNI16
I1
I0
tp341
bS'The Four Pennies'
p342
tp343
Rp344
ag2
(g22
S'\x9c\xa8\xdc\x8c\xfe\xc8\xda?'
p345
tp346
Rp347
ag2
(g22
S'\xcfz\x0c\xaf\x85\xbe\xd6?'
p348
tp349
Rp350
ag2
(g22
S'\x9dc@\xf6z\x92c@'
p351
tp352
Rp353
ag2
(g22
S'\x87\x16\xd9\xce\xf7S\n@'
p354
tp355
Rp356
ag2
(g22
S'\xd7\xa3p=\nwa@'
p357
tp358
Rp359
aF0.421
aF0.455
aF0.461
aF2.75e-05
aF-9.107
aF0.0254
aF101.271
aF0.35
aa(lp360
g2
(g3
(S'S12'
p361
I0
I1
tp362
Rp363
(I3
S'|'
p364
NNNI12
I1
I0
tp365
bS'Sweet Defeat'
p366
tp367
Rp368
ag2
(g3
(S'S9'
p369
I0
I1
tp370
Rp371
(I3
S'|'
p372
NNNI9
I1
I0
tp373
bS'The Flesh'
p374
tp375
Rp376
ag2
(g22
S'`ZP)\x8d\x81\xde?'
p377
tp378
Rp379
ag2
(g22
S'\x8dHQw\xfe\x0c\xd7?'
p380
tp381
Rp382
ag2
(g22
S'\x1ai\xa9\xbc\x1d`l@'
p383
tp384
Rp385
ag2
(g22
S'\x00\x00\x00\x00\x00\x00\x00\x00'
p386
tp387
Rp388
ag2
(g22
S'\x85\xebQ\xb8\x1e\xb9k@'
p389
tp390
Rp391
aF0.101
aF0.602
aF0.836
aI0
aF-2.938
aF0.0611
aF129.085
aF0.949
aa(lp392
g2
(g3
(S'S23'
p393
I0
I1
tp394
Rp395
(I3
S'|'
p396
NNNI23
I1
I0
tp397
bS'A World In Fast Forward'
p398
tp399
Rp400
ag2
(g3
(S'S14'
p401
I0
I1
tp402
Rp403
(I3
S'|'
p404
NNNI14
I1
I0
tp405
bS'Michael Whalen'
p406
tp407
Rp408
ag2
(g22
S'\xf0i\xefm\x049\xdd?'
p409
tp410
Rp411
ag2
(g22
S'\x812\x8f!r\x16\xd7?'
p412
tp413
Rp414
ag2
(g22
S'p%;6\x82H{@'
p415
tp416
Rp417
ag2
(g22
S'\x93\x18\x04V\x0e-\x03@'
p418
tp419
Rp420
ag2
(g22
S'33333]z@'
p421
tp422
Rp423
aF0.0429
aF0.431
aF0.364
aF0.807
aF-21.235
aF0.041
aF75.351
aF0.391
aa(lp424
g2
(g3
(S'S20'
p425
I0
I1
tp426
Rp427
(I3
S'|'
p428
NNNI20
I1
I0
tp429
bS'The Lost Name of God'
p430
tp431
Rp432
ag2
(g3
(S'S8'
p433
I0
I1
tp434
Rp435
(I3
S'|'
p436
NNNI8
I1
I0
tp437
bS'Amorphis'
p438
tp439
Rp440
ag2
(g22
S'\xee\xc6:\xd76\xb0\xe6?'
p441
tp442
Rp443
ag2
(g22
S'\xbd\xe8\xa6g\xd0\xb6\xe1?'
p444
tp445
Rp446
ag2
(g22
S'BC\xff\x04\x17\xc1t@'
p447
tp448
Rp449
ag2
(g22
S'V\x0e-\xb2\x9d\xef\xd7?'
p450
tp451
Rp452
ag2
(g22
S'5^\xbaI\x0cvt@'
p453
tp454
Rp455
aF0.000349
aF0.166
aF0.771
aF0.824
aF-6.862
aF0.0548
aF128.071
aF0.162
aa(lp456
g2
(g3
(S'S19'
p457
I0
I1
tp458
Rp459
(I3
S'|'
p460
NNNI19
I1
I0
tp461
bS'Some Kind of Record'
p462
tp463
Rp464
ag2
(g3
(S'S6'
p465
I0
I1
tp466
Rp467
(I3
S'|'
p468
NNNI6
I1
I0
tp469
bS'Rockit'
p470
tp471
Rp472
ag2
(g22
S'\xd2L.\xf1:/\xdb?'
p473
tp474
Rp475
ag2
(g22
S'\x00\x00\x00\x00\x00\x00\x00\x00'
p476
tp477
Rp478
ag2
(g22
S'a\x89\x07\x94M#k@'
p479
tp480
Rp481
ag2
(g22
S'\x00\x00\x00\x00\x00\x00\x00\x00'
p482
tp483
Rp484
ag2
(g22
S'\x9e\xef\xa7\xc6K#k@'
p485
tp486
Rp487
aF0.000152
aF0.589
aF0.888
aF0.000133
aF-7.086
aF0.0353
aF103.002
aF0.914
aa(lp488
g2
(g3
(S'S11'
p489
I0
I1
tp490
Rp491
(I3
S'|'
p492
NNNI11
I1
I0
tp493
bS'Prayer Walk'
p494
tp495
Rp496
ag2
(g3
(S'S10'
p497
I0
I1
tp498
Rp499
(I3
S'|'
p500
NNNI10
I1
I0
tp501
bS'Kris Gruen'
p502
tp503
Rp504
ag2
(g22
S'\xc8i\xd4PhE\xdc?'
p505
tp506
Rp507
ag2
(g22
S'5\x83\xec6\xfd\x96\xd3?'
p508
tp509
Rp510
ag2
(g22
S"E\x81>\x91')g@"
p511
tp512
Rp513
ag2
(g22
S'\x17\xd9\xce\xf7S\xe3\xc5?'
p514
tp515
Rp516
ag2
(g22
S'#\xdb\xf9~j\x80f@'
p517
tp518
Rp519
aF0.903
aF0.486
aF0.316
aF0.714
aF-9.888
aF0.0277
aF104.933
aF0.107
aa(lp520
g2
(g3
(S'S13'
p521
I0
I1
tp522
Rp523
(I3
S'|'
p524
NNNI13
I1
I0
tp525
bS'Dead End Sign'
p526
tp527
Rp528
ag2
(g3
(S'S6'
p529
I0
I1
tp530
Rp531
(I3
S'|'
p532
NNNI6
I1
I0
tp533
bS'Bonita'
p534
tp535
Rp536
ag2
(g22
S'\xb6\xc8\xed-\xf2\x96\xde?'
p537
tp538
Rp539
ag2
(g22
S'\x8cK@)8T\xdb?'
p540
tp541
Rp542
ag2
(g22
S'\xc8$#ga<k@'
p543
tp544
Rp545
ag2
(g22
S'#\xdb\xf9~j\xbc\x03@'
p546
tp547
Rp548
ag2
(g22
S'\x02+\x87\x16\xd92j@'
p549
tp550
Rp551
aF0.00987
aF0.703
aF0.635
aF0.000855
aF-7.068
aF0.0368
aF104.037
aF0.553
aa(lp552
g2
(g3
(S'S10'
p553
I0
I1
tp554
Rp555
(I3
S'|'
p556
NNNI10
I1
I0
tp557
bS'Felicidade'
p558
tp559
Rp560
ag2
(g3
(S'S14'
p561
I0
I1
tp562
Rp563
(I3
S'|'
p564
NNNI14
I1
I0
tp565
bS'Moraes Moreira'
p566
tp567
Rp568
ag2
(g22
S'\x1b\xf4<1,\x8d\xdd?'
p569
tp570
Rp571
ag2
(g22
S"\xa2\xed'}dd\xd5?"
p572
tp573
Rp574
ag2
(g22
S' \x98\xa3\xc7\xef[h@'
p575
tp576
Rp577
ag2
(g22
S'\x04V\x0e-\xb2\x9d\xd7?'
p578
tp579
Rp580
ag2
(g22
S'\x0e-\xb2\x9d\xef[h@'
p581
tp582
Rp583
aF0.723
aF0.82
aF0.474
aF7.23e-05
aF-11.494
aF0.0437
aF128.638
aF0.639
aa(lp584
g2
(g3
(S'S7'
p585
I0
I1
tp586
Rp587
(I3
S'|'
p588
NNNI7
I1
I0
tp589
bS'Forever'
p590
tp591
Rp592
ag2
(g3
(S'S7'
p593
I0
I1
tp594
Rp595
(I3
S'|'
p596
NNNI7
I1
I0
tp597
bS'Orbital'
p598
tp599
Rp600
ag2
(g22
S'\x16\xa4&\xa3!-\xe6?'
p601
tp602
Rp603
ag2
(g22
S'c\x112\xdb0\xea\xdf?'
p604
tp605
Rp606
ag2
(g22
S'\xa51ZGU\xe7}@'
p607
tp608
Rp609
ag2
(g22
S'J\x0c\x02+\x87\x16\xed?'
p610
tp611
Rp612
ag2
(g22
S'\x8d\x97n\x12\x83f}@'
p613
tp614
Rp615
aF0.0617
aF0.621
aF0.596
aF0.212
aF-13.363
aF0.0378
aF131.996
aF0.348
aa(lp616
g2
(g3
(S'S21'
p617
I0
I1
tp618
Rp619
(I3
S'|'
p620
NNNI21
I1
I0
tp621
bS'I Never Did No Hitler'
p622
tp623
Rp624
ag2
(g3
(S'S5'
p625
I0
I1
tp626
Rp627
(I3
S'|'
p628
NNNI5
I1
I0
tp629
bS'20/20'
p630
tp631
Rp632
ag2
(g22
S'\x8d\xb0\x1e~>\x03\xe0?'
p633
tp634
Rp635
ag2
(g22
S"Z@0\x9a\x07'\xd4?"
p636
tp637
Rp638
ag2
(g22
S'C9\xd1\xaeB\xb7k@'
p639
tp640
Rp641
ag2
(g22
S'\xd3Mb\x10X9\xd4?'
p642
tp643
Rp644
ag2
(g22
S'\xc7K7\x89Adk@'
p645
tp646
Rp647
aF0.159
aF0.688
aF0.685
aI0
aF-8.132
aF0.0551
aF119.47
aF0.75
aa(lp648
g2
(g3
(S'S7'
p649
I0
I1
tp650
Rp651
(I3
S'|'
p652
NNNI7
I1
I0
tp653
bS'New War'
p654
tp655
Rp656
ag2
(g3
(S'S7'
p657
I0
I1
tp658
Rp659
(I3
S'|'
p660
NNNI7
I1
I0
tp661
bS'4 Skins'
p662
tp663
Rp664
ag2
(g22
S'\xad7\x1a\xa7\xba\xea\xe0?'
p665
tp666
Rp667
ag2
(g22
S'\x00\x00\x00\x00\x00\x00\x00\x00'
p668
tp669
Rp670
ag2
(g22
S'\xd4}\x00R\x9bOo@'
p671
tp672
Rp673
ag2
(g22
S'y\xe9&1\x08\xac\xcc?'
p674
tp675
Rp676
ag2
(g22
S'\x12\x83\xc0\xca\xa1Am@'
p677
tp678
Rp679
aF0.148
aF0.264
aF0.935
aF1.59e-05
aF-8.129
aF0.049
aF165.908
aF0.414
aa(lp680
g2
(g3
(S'S15'
p681
I0
I1
tp682
Rp683
(I3
S'|'
p684
NNNI15
I1
I0
tp685
bS'Only Just Begun'
p686
tp687
Rp688
ag2
(g3
(S'S9'
p689
I0
I1
tp690
Rp691
(I3
S'|'
p692
NNNI9
I1
I0
tp693
bS'John Holt'
p694
tp695
Rp696
ag2
(g22
S'\xd2\x9d\x83\x1a\x90$\xe4?'
p697
tp698
Rp699
ag2
(g22
S'\xf9\xca\x19\x94\xc7/\xdb?'
p700
tp701
Rp702
ag2
(g22
S'q\x8f\xa5\x0f])j@'
p703
tp704
Rp705
ag2
(g22
S'\x00\x00\x00\x00\x00\x00\x00\x00'
p706
tp707
Rp708
ag2
(g22
S'\x9c\xc4 \xb0r\x04i@'
p709
tp710
Rp711
aF0.231
aF0.698
aF0.418
aF7.98e-06
aF-9.411
aF0.0512
aF171.661
aF0.749
aa(lp712
g2
(g3
(S'S13'
p713
I0
I1
tp714
Rp715
(I3
S'|'
p716
NNNI13
I1
I0
tp717
bS"It's A Secret"
p718
tp719
Rp720
ag2
(g3
(S'S11'
p721
I0
I1
tp722
Rp723
(I3
S'|'
p724
NNNI11
I1
I0
tp725
bS'Mungo Jerry'
p726
tp727
Rp728
ag2
(g22
S',n\xb6\x1fS\xf5\xe3?'
p729
tp730
Rp731
ag2
(g22
S'\xbc-\x03\xd9\x0f\x9d\xd9?'
p732
tp733
Rp734
ag2
(g22
S'\xd5\x04Q\xf7\x01=h@'
p735
tp736
Rp737
ag2
(g22
S'\x8bl\xe7\xfb\xa9\xf1\xda?'
p738
tp739
Rp740
ag2
(g22
S'\\\x8f\xc2\xf5(\xa8f@'
p741
tp742
Rp743
aF0.122
aF0.455
aF0.681
aI0
aF-10.214
aF0.0453
aF177.072
aF0.647
aa(lp744
g2
(g3
(S'S36'
p745
I0
I1
tp746
Rp747
(I3
S'|'
p748
NNNI36
I1
I0
tp749
bS'Jericho  (Straight On Album Version)'
p750
tp751
Rp752
ag2
(g3
(S'S13'
p753
I0
I1
tp754
Rp755
(I3
S'|'
p756
NNNI13
I1
I0
tp757
bS'DeGarmo & Key'
p758
tp759
Rp760
ag2
(g22
S'XM\xb3\xac\xd6\xf3\xda?'
p761
tp762
Rp763
ag2
(g22
S'\xa0g=\xb1\xc7g\xd4?'
p764
tp765
Rp766
ag2
(g22
S'\xbcW\xadL\xf8;q@'
p767
tp768
Rp769
ag2
(g22
S'\xb8\x1e\x85\xebQ\xb8\xd6?'
p770
tp771
Rp772
ag2
(g22
S'\xa4p=\n\xd7\xabo@'
p773
tp774
Rp775
aF0.432
aF0.671
aF0.683
aF0.000118
aF-8.592
aF0.0317
aF120.023
aF0.712
aa(lp776
g2
(g3
(S'S15'
p777
I0
I1
tp778
Rp779
(I3
S'|'
p780
NNNI15
I1
I0
tp781
bS'You Better Stop'
p782
tp783
Rp784
ag2
(g3
(S'S15'
p785
I0
I1
tp786
Rp787
(I3
S'|'
p788
NNNI15
I1
I0
tp789
bS'Curtis Mayfield'
p790
tp791
Rp792
ag2
(g22
S'\x1b6(ou.\xe9?'
p793
tp794
Rp795
ag2
(g22
S'w3l\xd8\x1a\xb3\xdf?'
p796
tp797
Rp798
ag2
(g22
S'\xd4\xf1\x98\x81\xca\xbey@'
p799
tp800
Rp801
ag2
(g22
S'\xee|?5^\xba\xd9?'
p802
tp803
Rp804
ag2
(g22
S'{\x14\xaeG\xe1.y@'
p805
tp806
Rp807
aF0.0521
aF0.786
aF0.799
aF0.0232
aF-9.866
aF0.0431
aF118.634
aF0.564
aa(lp808
g2
(g3
(S'S12'
p809
I0
I1
tp810
Rp811
(I3
S'|'
p812
NNNI12
I1
I0
tp813
bS'I Got Rhythm'
p814
tp815
Rp816
ag2
(g3
(S'S19'
p817
I0
I1
tp818
Rp819
(I3
S'|'
p820
NNNI19
I1
I0
tp821
bS'Oscar Peterson Trio'
p822
tp823
Rp824
ag2
(g22
S'\xd9\x84\xe2\xca\xf8\xfe\xe0?'
p825
tp826
Rp827
ag2
(g22
S'\xe2\x19\tbW{\xd8?'
p828
tp829
Rp830
ag2
(g22
S'm\xe2\xe4~\x876g@'
p831
tp832
Rp833
ag2
(g22
S'u\x93\x18\x04V\x0e\xd5?'
p834
tp835
Rp836
ag2
(g22
S'}?5^\xba-f@'
p837
tp838
Rp839
aF0.844
aF0.463
aF0.548
aF0.787
aF-11.124
aF0.0349
aF138.766
aF0.879
aa(lp840
g2
(g3
(S'S49'
p841
I0
I1
tp842
Rp843
(I3
S'|'
p844
NNNI49
I1
I0
tp845
bS"Didn't Know Yet What I'd Know When I Was Bleedin'"
p846
tp847
Rp848
ag2
(g3
(S'S9'
p849
I0
I1
tp850
Rp851
(I3
S'|'
p852
NNNI9
I1
I0
tp853
bS'Dax Riggs'
p854
tp855
Rp856
ag2
(g22
S'<A\xed_\xe6\x17\xe4?'
p857
tp858
Rp859
ag2
(g22
S'}\xbb\xf8\xfe\xadT\xde?'
p860
tp861
Rp862
ag2
(g22
S'\x04\xff[\xc9\x8e\xabc@'
p863
tp864
Rp865
ag2
(g22
S'\xcb\xa1E\xb6\xf3\xfd\xd4?'
p866
tp867
Rp868
ag2
(g22
S'-\xb2\x9d\xef\xa7~b@'
p869
tp870
Rp871
aF0.0644
aF0.46
aF0.599
aI0
aF-5.744
aF0.0337
aF74.421
aF0.452
aa(lp872
g2
(g3
(S'S19'
p873
I0
I1
tp874
Rp875
(I3
S'|'
p876
NNNI19
I1
I0
tp877
bS'Born To Be Together'
p878
tp879
Rp880
ag2
(g3
(S'S12'
p881
I0
I1
tp882
Rp883
(I3
S'|'
p884
NNNI12
I1
I0
tp885
bS'The Ronettes'
p886
tp887
Rp888
ag2
(g22
S"<\xfb*o%'\xe2?"
p889
tp890
Rp891
ag2
(g22
S'\x91\xda\xdf\x1e\x97\x15\xe1?'
p892
tp893
Rp894
ag2
(g22
S'\xe3\x88\xb5\xf8\x14:f@'
p895
tp896
Rp897
ag2
(g22
S'\x85\xebQ\xb8\x1e\x85\xd3?'
p898
tp899
Rp900
ag2
(g22
S'\xdfO\x8d\x97n\x1ae@'
p901
tp902
Rp903
aF0.229
aF0.309
aF0.562
aF0.0749
aF-8.014
aF0.033
aF133.706
aF0.27
aa(lp904
g2
(g3
(S'S10'
p905
I0
I1
tp906
Rp907
(I3
S'|'
p908
NNNI10
I1
I0
tp909
bS'Hopelessly'
p910
tp911
Rp912
ag2
(g3
(S'S11'
p913
I0
I1
tp914
Rp915
(I3
S'|'
p916
NNNI11
I1
I0
tp917
bS'Rick Astley'
p918
tp919
Rp920
ag2
(g22
S'\xb3N\xcc\x0cI(\xe8?'
p921
tp922
Rp923
ag2
(g22
S'\x06/\x02\xa7%=\xe0?'
p924
tp925
Rp926
ag2
(g22
S'2\x03\x95\xf1\xef\xe2j@'
p927
tp928
Rp929
ag2
(g22
S'\xd7\xa3p=\n\xd7\xc3?'
p930
tp931
Rp932
ag2
(g22
S'\x8bl\xe7\xfb\xa9\x1dj@'
p933
tp934
Rp935
aF0.46
aF0.547
aF0.457
aI0
aF-9.872
aF0.0293
aF150.001
aF0.298
aa(lp936
g2
(g3
(S'S9'
p937
I0
I1
tp938
Rp939
(I3
S'|'
p940
NNNI9
I1
I0
tp941
bS'Ernestine'
p942
tp943
Rp944
ag2
(g3
(S'S10'
p945
I0
I1
tp946
Rp947
(I3
S'|'
p948
NNNI10
I1
I0
tp949
bS'Joe Bataan'
p950
tp951
Rp952
ag2
(g22
S'\x04jp\xe3D\x0c\xe2?'
p953
tp954
Rp955
ag2
(g22
S'\xdd\xd5^6&e\xd6?'
p956
tp957
Rp958
ag2
(g22
S'\xbeM\x7f\xf6#ss@'
p959
tp960
Rp961
ag2
(g22
S'!\xb0rh\x91\xed\xbc?'
p962
tp963
Rp964
ag2
(g22
S'\xaa\xf1\xd2Mb\x0cs@'
p965
tp966
Rp967
aF0.395
aF0.611
aF0.417
aF0.00921
aF-10.065
aF0.0373
aF87.73
aF0.337
aa(lp968
g2
(g3
(S'S27'
p969
I0
I1
tp970
Rp971
(I3
S'|'
p972
NNNI27
I1
I0
tp973
bS'Overture/Blue Tahitian Moon'
p974
tp975
Rp976
ag2
(g3
(S'S36'
p977
I0
I1
tp978
Rp979
(I3
S'|'
p980
NNNI36
I1
I0
tp981
bS'Angelo Badalamenti / Keira Knightley'
p982
tp983
Rp984
ag2
(g22
S'\xe2d\xb1\xe7S\\\xe6?'
p985
tp986
Rp987
ag2
(g22
S'\xc0\xac\xbb\xf6\x9d\x90\xd9?'
p988
tp989
Rp990
ag2
(g22
S'h\x96\x04\xa8\xa9\xa5O@'
p991
tp992
Rp993
ag2
(g22
S'\xdfO\x8d\x97n\x12\x0b@'
p994
tp995
Rp996
ag2
(g22
S'\x12\x83\xc0\xca\xa1\xa5O@'
p997
tp998
Rp999
aF0.677
aF0.478
aF0.401
aF2.59e-05
aF-9.825
aF0.0392
aF124.381
aF0.374
aa(lp1000
g2
(g3
(S'S22'
p1001
I0
I1
tp1002
Rp1003
(I3
S'|'
p1004
NNNI22
I1
I0
tp1005
bS'Cancion De Amor Eterno'
p1006
tp1007
Rp1008
ag2
(g3
(S'S12'
p1009
I0
I1
tp1010
Rp1011
(I3
S'|'
p1012
NNNI12
I1
I0
tp1013
bS'Carlos Vives'
p1014
tp1015
Rp1016
ag2
(g22
S'\x8b\xbc\xd4\xda\xef\xde\xe3?'
p1017
tp1018
Rp1019
ag2
(g22
S'\xd8\xc4T\xd0\xc3r\xda?'
p1020
tp1021
Rp1022
ag2
(g22
S'\xf2\xcd67\xa69\\@'
p1023
tp1024
Rp1025
ag2
(g22
S'{\x14\xaeG\xe1z\xc4?'
p1026
tp1027
Rp1028
ag2
(g22
S'sh\x91\xed|7Z@'
p1029
tp1030
Rp1031
aF0.901
aF0.496
aF0.209
aF0.00288
aF-17.058
aF0.0375
aF132.615
aF0.187
aa(lp1032
g2
(g3
(S'S15'
p1033
I0
I1
tp1034
Rp1035
(I3
S'|'
p1036
NNNI15
I1
I0
tp1037
bS'Loving By Heart'
p1038
tp1039
Rp1040
ag2
(g3
(S'S21'
p1041
I0
I1
tp1042
Rp1043
(I3
S'|'
p1044
NNNI21
I1
I0
tp1045
bS'Jeff And Sheri Easter'
p1046
tp1047
Rp1048
ag2
(g22
S'\x99\xe8\x19;\x1e!\xe1?'
p1049
tp1050
Rp1051
ag2
(g22
S'\xdeU\r\xac\x8c\xab\xd8?'
p1052
tp1053
Rp1054
ag2
(g22
S'|\x9b\xfe\xecG\xe6f@'
p1055
tp1056
Rp1057
ag2
(g22
S'\xf8S\xe3\xa5\x9b\xc4\x00@'
p1058
tp1059
Rp1060
ag2
(g22
S'#\xdb\xf9~jLe@'
p1061
tp1062
Rp1063
aF0.486
aF0.593
aF0.687
aI0
aF-4.01
aF0.0278
aF119.914
aF0.487
aa(lp1064
g2
(g3
(S'S62'
p1065
I0
I1
tp1066
Rp1067
(I3
S'|'
p1068
NNNI62
I1
I0
tp1069
bS"I'll Meet You By The River (Southern Convention Songs Version)"
p1070
tp1071
Rp1072
ag2
(g3
(S'S21'
p1073
I0
I1
tp1074
Rp1075
(I3
S'|'
p1076
NNNI21
I1
I0
tp1077
bS'Bill & Gloria Gaither'
p1078
tp1079
Rp1080
ag2
(g22
S'}N\xe0\x13\x0cR\xdb?'
p1081
tp1082
Rp1083
ag2
(g22
S'\x81JH\xdc\xd7T\xd5?'
p1084
tp1085
Rp1086
ag2
(g22
S'7qr\xbfCZh@'
p1087
tp1088
Rp1089
ag2
(g22
S'\x00\x00\x00\x00\x00\x00\x00\x00'
p1090
tp1091
Rp1092
ag2
(g22
S'\xa0\x1a/\xdd$Rg@'
p1093
tp1094
Rp1095
aF0.457
aF0.479
aF0.416
aF1.72e-05
aF-11.451
aF0.124
aF79.593
aF0.514
aa(lp1096
g2
(g3
(S'S6'
p1097
I0
I1
tp1098
Rp1099
(I3
S'|'
p1100
NNNI6
I1
I0
tp1101
bS'Adrift'
p1102
tp1103
Rp1104
ag2
(g3
(S'S12'
p1105
I0
I1
tp1106
Rp1107
(I3
S'|'
p1108
NNNI12
I1
I0
tp1109
bS'Jack Johnson'
p1110
tp1111
Rp1112
ag2
(g22
S"\xac'\x1a&\xd7\x9f\xea?"
p1113
tp1114
Rp1115
ag2
(g22
S'\x97I7X\x0c\x94\xe4?'
p1116
tp1117
Rp1118
ag2
(g22
S'~W\x04\xff[\x86m@'
p1119
tp1120
Rp1121
ag2
(g22
S'\x00\x00\x00\x00\x00\x00\x00\x00'
p1122
tp1123
Rp1124
ag2
(g22
S'm\xe7\xfb\xa9\xf1\xeaj@'
p1125
tp1126
Rp1127
aF0.861
aF0.643
aF0.2
aF0.0181
aF-15.276
aF0.0357
aF80.825
aF0.36
aa(lp1128
g2
(g3
(S'S10'
p1129
I0
I1
tp1130
Rp1131
(I3
S'|'
p1132
NNNI10
I1
I0
tp1133
bS'Only Human'
p1134
tp1135
Rp1136
ag2
(g3
(S'S32'
p1137
I0
I1
tp1138
Rp1139
(I3
S'|'
p1140
NNNI32
I1
I0
tp1141
bS'Usher Featuring The Nu Beginning'
p1142
tp1143
Rp1144
ag2
(g22
S'\xe6\xe6\xb8\x92\x07h\xeb?'
p1145
tp1146
Rp1147
ag2
(g22
S'g\xdfCn1Y\xeb?'
p1148
tp1149
Rp1150
ag2
(g22
S'\xfb\x969]\x16,u@'
p1151
tp1152
Rp1153
ag2
(g22
S'\x00\x00\x00\x00\x00\x80\x17@'
p1154
tp1155
Rp1156
ag2
(g22
S'\x85\xebQ\xb8\x1e\xd3t@'
p1157
tp1158
Rp1159
aF0.0014
aF0.741
aF0.713
aF2.34e-06
aF-11.583
aF0.262
aF118.126
aF0.515
aa(lp1160
g2
(g3
(S'S23'
p1161
I0
I1
tp1162
Rp1163
(I3
S'|'
p1164
NNNI23
I1
I0
tp1165
bS'My Last Date (With You)'
p1166
tp1167
Rp1168
ag2
(g3
(S'S13'
p1169
I0
I1
tp1170
Rp1171
(I3
S'|'
p1172
NNNI13
I1
I0
tp1173
bS'Skeeter Davis'
p1174
tp1175
Rp1176
ag2
(g22
S'h\xa6\xbb\x85\xa6R\xe3?'
p1177
tp1178
Rp1179
ag2
(g22
S']\xaa9\xec\xa4T\xd9?'
p1180
tp1181
Rp1182
ag2
(g22
S'l[\x94\xd9 Ib@'
p1183
tp1184
Rp1185
ag2
(g22
S'\x00\x00\x00\x00\x00\x00\x00\x00'
p1186
tp1187
Rp1188
ag2
(g22
S'\xe9&1\x08\xac\xdc`@'
p1189
tp1190
Rp1191
aF0.84
aF0.428
aF0.28
aF9.18e-05
aF-8.952
aF0.0261
aF98.241
aF0.429
aa(lp1192
g2
(g3
(S'S14'
p1193
I0
I1
tp1194
Rp1195
(I3
S'|'
p1196
NNNI14
I1
I0
tp1197
bS'Fools Like You'
p1198
tp1199
Rp1200
ag2
(g3
(S'S10'
p1201
I0
I1
tp1202
Rp1203
(I3
S'|'
p1204
NNNI10
I1
I0
tp1205
bS'Blue Rodeo'
p1206
tp1207
Rp1208
ag2
(g22
S'\xf6\xc5\xae\x1e\x95]\xe4?'
p1209
tp1210
Rp1211
ag2
(g22
S'\x19)\xd8\x93\xf9\xaa\xdc?'
p1212
tp1213
Rp1214
ag2
(g22
S'\xc4wb\xd6\x8b\x8aq@'
p1215
tp1216
Rp1217
ag2
(g22
S'\xc7K7\x89A`\xd5?'
p1218
tp1219
Rp1220
ag2
(g22
S'#\xdb\xf9~j\xd8p@'
p1221
tp1222
Rp1223
aF0.00477
aF0.652
aF0.787
aF0.000131
aF-6.259
aF0.0294
aF126.15
aF0.588
aa(lp1224
g2
(g3
(S'S19'
p1225
I0
I1
tp1226
Rp1227
(I3
S'|'
p1228
NNNI19
I1
I0
tp1229
bS'See The Big Man Cry'
p1230
tp1231
Rp1232
ag2
(g3
(S'S14'
p1233
I0
I1
tp1234
Rp1235
(I3
S'|'
p1236
NNNI14
I1
I0
tp1237
bS'Charlie Louvin'
p1238
tp1239
Rp1240
ag2
(g22
S'|\xe2\xacBs\x9e\xd9?'
p1241
tp1242
Rp1243
ag2
(g22
S'\xcf\xd3\x156\xc1\x0b\xd9?'
p1244
tp1245
Rp1246
ag2
(g22
S'\x16\xc1\xffV\xb2Qa@'
p1247
tp1248
Rp1249
ag2
(g22
S'\x00\x00\x00\x00\x00\x00\x00\x00'
p1250
tp1251
Rp1252
ag2
(g22
S'\xdfO\x8d\x97n\xea`@'
p1253
tp1254
Rp1255
aF0.549
aF0.651
aF0.556
aI0
aF-10.302
aF0.0651
aF126.693
aF0.927
aa(lp1256
g2
(g3
(S'S18'
p1257
I0
I1
tp1258
Rp1259
(I3
S'|'
p1260
NNNI18
I1
I0
tp1261
bS'Three Little Birds'
p1262
tp1263
Rp1264
ag2
(g3
(S'S24'
p1265
I0
I1
tp1266
Rp1267
(I3
S'|'
p1268
NNNI24
I1
I0
tp1269
bS'Bob Marley & The Wailers'
p1270
tp1271
Rp1272
ag2
(g22
S'\xae\xb5\xb8\x01\xed\xf7\xe8?'
p1273
tp1274
Rp1275
ag2
(g22
S'\x18#\x02\x03P>\xe2?'
p1276
tp1277
Rp1278
ag2
(g22
S'M\x10u\x1f\x80\x02t@'
p1279
tp1280
Rp1281
ag2
(g22
S'\x89A`\xe5\xd0"\xf1?'
p1282
tp1283
Rp1284
ag2
(g22
S'\x1dZd;\xdfAs@'
p1285
tp1286
Rp1287
aF0.0102
aF0.807
aF0.487
aF1.98e-06
aF-10.456
aF0.0758
aF148.491
aF0.651
aa(lp1288
g2
(g3
(S'S12'
p1289
I0
I1
tp1290
Rp1291
(I3
S'|'
p1292
NNNI12
I1
I0
tp1293
bS'Sunday Cream'
p1294
tp1295
Rp1296
ag2
(g3
(S'S11'
p1297
I0
I1
tp1298
Rp1299
(I3
S'|'
p1300
NNNI11
I1
I0
tp1301
bS'Juan Farcik'
p1302
tp1303
Rp1304
ag2
(g22
S'Q\x10\xea\xa4\xe3\xaa\xd8?'
p1305
tp1306
Rp1307
ag2
(g22
S'\x81\xaf\xf8\xc2g\xeb\xd0?'
p1308
tp1309
Rp1310
ag2
(g22
S'\xbd:\xc7\x80lpr@'
p1311
tp1312
Rp1313
ag2
(g22
S'\x00\x00\x00\x00\x00\x00\x00\x00'
p1314
tp1315
Rp1316
ag2
(g22
S'\xe1z\x14\xaeG)r@'
p1317
tp1318
Rp1319
aF0.0862
aF0.773
aF0.858
aF0.815
aF-8.138
aF0.0785
aF125.024
aF0.601
aa(lp1320
g2
(g3
(S'S15'
p1321
I0
I1
tp1322
Rp1323
(I3
S'|'
p1324
NNNI15
I1
I0
tp1325
bS'If you Seek Amy'
p1326
tp1327
Rp1328
ag2
(g3
(S'S10'
p1329
I0
I1
tp1330
Rp1331
(I3
S'|'
p1332
NNNI10
I1
I0
tp1333
bS'Hoodfellas'
p1334
tp1335
Rp1336
ag2
(g22
S'C\x8e\xb81\x83\xc0\xe2?'
p1337
tp1338
Rp1339
ag2
(g22
S'M?I\xb3\x136\xda?'
p1340
tp1341
Rp1342
ag2
(g22
S'\xb4\xc8v\xbe\x9fbl@'
p1343
tp1344
Rp1345
ag2
(g22
S'\x00\x00\x00\x00\x00\x00\x00\x00'
p1346
tp1347
Rp1348
ag2
(g22
S'j\xbct\x93\x18\x08l@'
p1349
tp1350
Rp1351
aF0.0118
aF0.672
aF0.943
aF0.000564
aF-5.371
aF0.0578
aF130.01
aF0.883
aa(lp1352
g2
(g3
(S'S8'
p1353
I0
I1
tp1354
Rp1355
(I3
S'|'
p1356
NNNI8
I1
I0
tp1357
bS'Ali Baba'
p1358
tp1359
Rp1360
ag2
(g3
(S'S14'
p1361
I0
I1
tp1362
Rp1363
(I3
S'|'
p1364
NNNI14
I1
I0
tp1365
bS'Jackie Edwards'
p1366
tp1367
Rp1368
ag2
(g22
S'\xd4\xc6\x91\xcf\xa0\x1e\xe0?'
p1369
tp1370
Rp1371
ag2
(g22
S'`\x18\x85\x0b\x9f\xfe\xd6?'
p1372
tp1373
Rp1374
ag2
(g22
S'\x0c\xe5D\xbb\ncf@'
p1375
tp1376
Rp1377
ag2
(g22
S'\xa0\x1a/\xdd$\x06\xd1?'
p1378
tp1379
Rp1380
ag2
(g22
S'\xfe\xd4x\xe9&\x89e@'
p1381
tp1382
Rp1383
aF0.529
aF0.672
aF0.746
aF6.02e-06
aF-5.626
aF0.101
aF78.597
aF0.637
aa(lp1384
g2
(g3
(S'S17'
p1385
I0
I1
tp1386
Rp1387
(I3
S'|'
p1388
NNNI17
I1
I0
tp1389
bS'Paloma Consentida'
p1390
tp1391
Rp1392
ag2
(g3
(S'S14'
p1393
I0
I1
tp1394
Rp1395
(I3
S'|'
p1396
NNNI14
I1
I0
tp1397
bS'Carmen Y Laura'
p1398
tp1399
Rp1400
ag2
(g22
S'\xc7\x7f\x83\xd0\xc3\xec\xcd?'
p1401
tp1402
Rp1403
ag2
(g22
S'\x00\x00\x00\x00\x00\x00\x00\x00'
p1404
tp1405
Rp1406
ag2
(g22
S's\xba,&6\x13d@'
p1407
tp1408
Rp1409
ag2
(g22
S'\n\xd7\xa3p=\n\xb7?'
p1410
tp1411
Rp1412
ag2
(g22
S'33333\x13d@'
p1413
tp1414
Rp1415
aF0.914
aF0.732
aF0.292
aF0.000274
aF-10.114
aF0.105
aF125.624
aF0.821
aa(lp1416
g2
(g3
(S'S12'
p1417
I0
I1
tp1418
Rp1419
(I3
S'|'
p1420
NNNI12
I1
I0
tp1421
bS"L'Aventurier"
p1422
tp1423
Rp1424
ag2
(g3
(S'S15'
p1425
I0
I1
tp1426
Rp1427
(I3
S'|'
p1428
NNNI15
I1
I0
tp1429
bS'Jacques Dutronc'
p1430
tp1431
Rp1432
ag2
(g22
S'u\xfa\xed\xeeO\x9d\xe3?'
p1433
tp1434
Rp1435
ag2
(g22
S'\x8ae\x17\x087\x17\xdd?'
p1436
tp1437
Rp1438
ag2
(g22
S'2\x03\x95\xf1\xef\xe2b@'
p1439
tp1440
Rp1441
ag2
(g22
S'\xe9&1\x08\xac\x1c\x12@'
p1442
tp1443
Rp1444
ag2
(g22
S'\xa0\x1a/\xdd$\x1ab@'
p1445
tp1446
Rp1447
aF0.137
aF0.577
aF0.931
aI0
aF-6.773
aF0.0578
aF98.968
aF0.927
aa(lp1448
g2
(g3
(S'S18'
p1449
I0
I1
tp1450
Rp1451
(I3
S'|'
p1452
NNNI18
I1
I0
tp1453
bS'Trash (live Paris)'
p1454
tp1455
Rp1456
ag2
(g3
(S'S14'
p1457
I0
I1
tp1458
Rp1459
(I3
S'|'
p1460
NNNI14
I1
I0
tp1461
bS'New York Dolls'
p1462
tp1463
Rp1464
ag2
(g22
S'\xaed -(\xf7\xe6?'
p1465
tp1466
Rp1467
ag2
(g22
S'\xfeqcc\xfd\xac\xde?'
p1468
tp1469
Rp1470
ag2
(g22
S'?\xc6\xdc\xb5\x84[j@'
p1471
tp1472
Rp1473
ag2
(g22
S'\x00\x00\x00\x00\x00\x00\x00\x00'
p1474
tp1475
Rp1476
ag2
(g22
S'\xecQ\xb8\x1e\x85[j@'
p1477
tp1478
Rp1479
aF0.418
aF0.265
aF0.6
aF0.879
aF-10.403
aF0.047
aF109.769
aF0.499
aa(lp1480
g2
(g3
(S'S11'
p1481
I0
I1
tp1482
Rp1483
(I3
S'|'
p1484
NNNI11
I1
I0
tp1485
bS'No Loafting'
p1486
tp1487
Rp1488
ag2
(g3
(S'S11'
p1489
I0
I1
tp1490
Rp1491
(I3
S'|'
p1492
NNNI11
I1
I0
tp1493
bS'Junior Reid'
p1494
tp1495
Rp1496
ag2
(g22
S'\xa6\xf4x\xc3 \xef\xe3?'
p1497
tp1498
Rp1499
ag2
(g22
S'g2Gk\xdb\xbd\xd7?'
p1500
tp1501
Rp1502
ag2
(g22
S'\xf7\xe9x\xcc@\xf8h@'
p1503
tp1504
Rp1505
ag2
(g22
S'D\x8bl\xe7\xfb\xa9\xd1?'
p1506
tp1507
Rp1508
ag2
(g22
S'\xf8S\xe3\xa5\x9b\x14h@'
p1509
tp1510
Rp1511
aF0.0648
aF0.833
aF0.567
aI0
aF-8.631
aF0.16
aF82.741
aF0.903
aa(lp1512
g2
(g3
(S'S13'
p1513
I0
I1
tp1514
Rp1515
(I3
S'|'
p1516
NNNI13
I1
I0
tp1517
bS'Talk About Me'
p1518
tp1519
Rp1520
ag2
(g3
(S'S21'
p1521
I0
I1
tp1522
Rp1523
(I3
S'|'
p1524
NNNI21
I1
I0
tp1525
bS"Screamin' Jay Hawkins"
p1526
tp1527
Rp1528
ag2
(g22
S'\x94p\x96\xb2\x14\x06\xe7?'
p1529
tp1530
Rp1531
ag2
(g22
S'*\xb3\xc0\x99\x97\xec\xdd?'
p1532
tp1533
Rp1534
ag2
(g22
S'\xc0\t\x85\x088\xd2b@'
p1535
tp1536
Rp1537
ag2
(g22
S'\x00\x00\x00\x00\x00\x00\x00\x00'
p1538
tp1539
Rp1540
ag2
(g22
S'D\x8bl\xe7\xfbEb@'
p1541
tp1542
Rp1543
aF0.784
aF0.556
aF0.553
aF0.00015
aF-11.098
aF0.0572
aF155.052
aF0.964
aa(lp1544
g2
(g3
(S'S14'
p1545
I0
I1
tp1546
Rp1547
(I3
S'|'
p1548
NNNI14
I1
I0
tp1549
bS'The 23rd Psalm'
p1550
tp1551
Rp1552
ag2
(g3
(S'S14'
p1553
I0
I1
tp1554
Rp1555
(I3
S'|'
p1556
NNNI14
I1
I0
tp1557
bS'Steve Erquiaga'
p1558
tp1559
Rp1560
ag2
(g22
S'\xb2\xf0\xbf \x0e\x90\xdd?'
p1561
tp1562
Rp1563
ag2
(g22
S'0\xc8S\xb1}\x14\xd7?'
p1564
tp1565
Rp1566
ag2
(g22
S'\x984F\xeb\xa8\x96k@'
p1567
tp1568
Rp1569
ag2
(g22
S'\x00\x00\x00\x00\x00\x00\x00\x00'
p1570
tp1571
Rp1572
ag2
(g22
S'\x87\x16\xd9\xce\xf7;i@'
p1573
tp1574
Rp1575
aF0.947
aF0.56
aF0.0996
aF0.844
aF-21.624
aF0.0424
aF141.672
aF0.234
aa(lp1576
g2
(g3
(S'S11'
p1577
I0
I1
tp1578
Rp1579
(I3
S'|'
p1580
NNNI11
I1
I0
tp1581
bS'Leave Me Be'
p1582
tp1583
Rp1584
ag2
(g3
(S'S12'
p1585
I0
I1
tp1586
Rp1587
(I3
S'|'
p1588
NNNI12
I1
I0
tp1589
bS'The Shirrows'
p1590
tp1591
Rp1592
ag2
(g22
S'\x9b\xbe \x9bF\xd5\xa6?'
p1593
tp1594
Rp1595
ag2
(g22
S'\x00\x00\x00\x00\x00\x00\x00\x00'
p1596
tp1597
Rp1598
ag2
(g22
S'\xd6\xff9\xcc\x97X`@'
p1599
tp1600
Rp1601
ag2
(g22
S'H\xe1z\x14\xaeG\xd1?'
p1602
tp1603
Rp1604
ag2
(g22
S'\xb8\x1e\x85\xebQ _@'
p1605
tp1606
Rp1607
aF0.0876
aF0.619
aF0.478
aI0
aF-6.672
aF0.0296
aF124.049
aF0.545
aa(lp1608
g2
(g3
(S'S17'
p1609
I0
I1
tp1610
Rp1611
(I3
S'|'
p1612
NNNI17
I1
I0
tp1613
bS'Wishy Washy Woman'
p1614
tp1615
Rp1616
ag2
(g3
(S'S16'
p1617
I0
I1
tp1618
Rp1619
(I3
S'|'
p1620
NNNI16
I1
I0
tp1621
bS'Mighty Joe Young'
p1622
tp1623
Rp1624
ag2
(g22
S'\xd4\xf3*\xbb\xe7\x01\xdc?'
p1625
tp1626
Rp1627
ag2
(g22
S'\n\xd4\xe6\x89\xf8\x1c\xd4?'
p1628
tp1629
Rp1630
ag2
(g22
S'\xaf\x08\xfe\xb7\x92\xb0o@'
p1631
tp1632
Rp1633
ag2
(g22
S'\x04V\x0e-\xb2\x9d\xd7?'
p1634
tp1635
Rp1636
ag2
(g22
S'b\x10X9\xb4\xe4n@'
p1637
tp1638
Rp1639
aF0.514
aF0.618
aF0.936
aF5.27e-05
aF-7.263
aF0.0932
aF141.561
aF0.898
aa(lp1640
g2
(g3
(S'S21'
p1641
I0
I1
tp1642
Rp1643
(I3
S'|'
p1644
NNNI21
I1
I0
tp1645
bS"America's Suitehearts"
p1646
tp1647
Rp1648
ag2
(g3
(S'S12'
p1649
I0
I1
tp1650
Rp1651
(I3
S'|'
p1652
NNNI12
I1
I0
tp1653
bS'Fall Out Boy'
p1654
tp1655
Rp1656
ag2
(g22
S'=<\xf8\xa6\xce\x03\xee?'
p1657
tp1658
Rp1659
ag2
(g22
S'\xceFgR\xc6!\xe2?'
p1660
tp1661
Rp1662
ag2
(g22
S'{\xa0\x15\x18\xb2\xcaj@'
p1663
tp1664
Rp1665
ag2
(g22
S'\x10X9\xb4\xc8v\xbe?'
p1666
tp1667
Rp1668
ag2
(g22
S'\xf0\xa7\xc6K7\x11j@'
p1669
tp1670
Rp1671
aF0.00933
aF0.479
aF0.931
aI0
aF-3.429
aF0.0469
aF160.015
aF0.716
aa(lp1672
g2
(g3
(S'S36'
p1673
I0
I1
tp1674
Rp1675
(I3
S'|'
p1676
NNNI36
I1
I0
tp1677
bS'Natural Light (Subliminal Self-Help)'
p1678
tp1679
Rp1680
ag2
(g3
(S'S14'
p1681
I0
I1
tp1682
Rp1683
(I3
S'|'
p1684
NNNI14
I1
I0
tp1685
bS'Steven Halpern'
p1686
tp1687
Rp1688
ag2
(g22
S'D\x80\xcb\x80\xb2\xd0\xe0?'
p1689
tp1690
Rp1691
ag2
(g22
S'\x03\x9e\x15\xdbI\xd5\xd7?'
p1692
tp1693
Rp1694
ag2
(g22
S'\xd8\xb6(\xb3A\x14o@'
p1695
tp1696
Rp1697
ag2
(g22
S'1\x08\xac\x1cZd\x00@'
p1698
tp1699
Rp1700
ag2
(g22
S'\xdfO\x8d\x97n\xa2l@'
p1701
tp1702
Rp1703
aF0.968
aF0.119
aF0.0151
aF0.961
aF-29.713
aF0.0433
aF77.477
aF0.0319
aa(lp1704
g2
(g3
(S'S35'
p1705
I0
I1
tp1706
Rp1707
(I3
S'|'
p1708
NNNI35
I1
I0
tp1709
bS'The One Who Lives Inside Your Heart'
p1710
tp1711
Rp1712
ag2
(g3
(S'S10'
p1713
I0
I1
tp1714
Rp1715
(I3
S'|'
p1716
NNNI10
I1
I0
tp1717
bS'Lari White'
p1718
tp1719
Rp1720
ag2
(g22
S'i\x11w\xe7\xd1\x8e\xde?'
p1721
tp1722
Rp1723
ag2
(g22
S'\x92\x81\xf5\\\x07\xe3\xd5?'
p1724
tp1725
Rp1726
ag2
(g22
S'\xfe\x9a\xacQ\x0f\xfdm@'
p1727
tp1728
Rp1729
ag2
(g22
S'\x1dZd;\xdfO\t@'
p1730
tp1731
Rp1732
ag2
(g22
S'\x12\x83\xc0\xca\xa1\xd9l@'
p1733
tp1734
Rp1735
aF0.889
aF0.286
aF0.199
aF8.35e-05
aF-12.699
aF0.0338
aF137.049
aF0.133
aa(lp1736
g2
(g3
(S'S24'
p1737
I0
I1
tp1738
Rp1739
(I3
S'|'
p1740
NNNI24
I1
I0
tp1741
bS"The Hills Of Old Wyomin'"
p1742
tp1743
Rp1744
ag2
(g3
(S'S10'
p1745
I0
I1
tp1746
Rp1747
(I3
S'|'
p1748
NNNI10
I1
I0
tp1749
bS'Roy Rogers'
p1750
tp1751
Rp1752
ag2
(g22
S'\xe08\\!\xefT\xe0?'
p1753
tp1754
Rp1755
ag2
(g22
S'B.r%\xd6\xec\xd9?'
p1756
tp1757
Rp1758
ag2
(g22
S'\xb1Pk\x9aw"g@'
p1759
tp1760
Rp1761
ag2
(g22
S'\x9c\xc4 \xb0rh\xe5?'
p1762
tp1763
Rp1764
ag2
(g22
S'\x10X9\xb4\xc8\xeee@'
p1765
tp1766
Rp1767
aF0.993
aF0.444
aF0.0355
aF0.00721
aF-14.35
aF0.0302
aF73.419
aF0.195
aa(lp1768
g2
(g3
(S'S14'
p1769
I0
I1
tp1770
Rp1771
(I3
S'|'
p1772
NNNI14
I1
I0
tp1773
bS'Distant Cousin'
p1774
tp1775
Rp1776
ag2
(g3
(S'S15'
p1777
I0
I1
tp1778
Rp1779
(I3
S'|'
p1780
NNNI15
I1
I0
tp1781
bS'George Schuller'
p1782
tp1783
Rp1784
ag2
(g22
S'\xbd\x80\xf1b8\xbc\xd2?'
p1785
tp1786
Rp1787
ag2
(g22
S'C\x951|\x8f\xb6\xc6?'
p1788
tp1789
Rp1790
ag2
(g22
S'X\xa85\xcd;\x91y@'
p1791
tp1792
Rp1793
ag2
(g22
S'\x17\xd9\xce\xf7S\xe3\x08@'
p1794
tp1795
Rp1796
ag2
(g22
S'\x85\xebQ\xb8\x1e\x0fy@'
p1797
tp1798
Rp1799
aF0.444
aF0.373
aF0.406
aF0.00988
aF-15.355
aF0.273
aF82.615
aF0.34
aa(lp1800
g2
(g3
(S'S4'
p1801
I0
I1
tp1802
Rp1803
(I3
S'|'
p1804
NNNI4
I1
I0
tp1805
bS'Love'
p1806
tp1807
Rp1808
ag2
(g3
(S'S5'
p1809
I0
I1
tp1810
Rp1811
(I3
S'|'
p1812
NNNI5
I1
I0
tp1813
bS'Opals'
p1814
tp1815
Rp1816
ag2
(g22
S'\xef\xfa\xda\x99\x8b0\xb3?'
p1817
tp1818
Rp1819
ag2
(g22
S'\x00\x00\x00\x00\x00\x00\x00\x00'
p1820
tp1821
Rp1822
ag2
(g22
S'+\xa4\xfc\xa4\xda\x18a@'
p1823
tp1824
Rp1825
ag2
(g22
S'\x12\x83\xc0\xca\xa1E\xde?'
p1826
tp1827
Rp1828
ag2
(g22
S'u\x93\x18\x04V\x06_@'
p1829
tp1830
Rp1831
aF0.89
aF0.239
aF0.323
aF3.4e-05
aF-7.584
aF0.0301
aF77.7
aF0.225
aa(lp1832
g2
(g3
(S'S22'
p1833
I0
I1
tp1834
Rp1835
(I3
S'|'
p1836
NNNI22
I1
I0
tp1837
bS'Got To Tell The People'
p1838
tp1839
Rp1840
ag2
(g3
(S'S16'
p1841
I0
I1
tp1842
Rp1843
(I3
S'|'
p1844
NNNI16
I1
I0
tp1845
bS'Cornell Campbell'
p1846
tp1847
Rp1848
ag2
(g22
S'\xb4\xe9\xfc\x01\xe6\xc8\xe2?'
p1849
tp1850
Rp1851
ag2
(g22
S'8\xe7\x97\t\xd3\x86\xd8?'
p1852
tp1853
Rp1854
ag2
(g22
S'\x17\xf1\x9d\x98\xf5\x1fg@'
p1855
tp1856
Rp1857
ag2
(g22
S'\\\x8f\xc2\xf5(\\\xcf?'
p1858
tp1859
Rp1860
ag2
(g22
S'\xa0\x1a/\xdd$\xdae@'
p1861
tp1862
Rp1863
aF0.157
aF0.776
aF0.359
aI0
aF-15.978
aF0.202
aF141.115
aF0.632
aa(lp1864
g2
(g3
(S'S15'
p1865
I0
I1
tp1866
Rp1867
(I3
S'|'
p1868
NNNI15
I1
I0
tp1869
bS'Here And Beyond'
p1870
tp1871
Rp1872
ag2
(g3
(S'S8'
p1873
I0
I1
tp1874
Rp1875
(I3
S'|'
p1876
NNNI8
I1
I0
tp1877
bS'Behemoth'
p1878
tp1879
Rp1880
ag2
(g22
S'\x02\x04\xe8w?\xf3\xea?'
p1881
tp1882
Rp1883
ag2
(g22
S'\x0f\xc0\xf7S\x10\x9d\xe1?'
p1884
tp1885
Rp1886
ag2
(g22
S'\xf1F\xe6\x91?\xcei@'
p1887
tp1888
Rp1889
ag2
(g22
S'\xfa~j\xbct\x93\xb8?'
p1890
tp1891
Rp1892
ag2
(g22
S'\x06\x81\x95C\x8bxi@'
p1893
tp1894
Rp1895
aF0.000591
aF0.312
aF0.948
aF8.63e-05
aF-5.451
aF0.196
aF109.297
aF0.195
aa(lp1896
g2
(g3
(S'S8'
p1897
I0
I1
tp1898
Rp1899
(I3
S'|'
p1900
NNNI8
I1
I0
tp1901
bS'Gigantor'
p1902
tp1903
Rp1904
ag2
(g3
(S'S7'
p1905
I0
I1
tp1906
Rp1907
(I3
S'|'
p1908
NNNI7
I1
I0
tp1909
bS'Dickies'
p1910
tp1911
Rp1912
ag2
(g22
S'x\xc0d\xc3\xac3\xe0?'
p1913
tp1914
Rp1915
ag2
(g22
S'\xb3\x8eB6\xb3}\xdb?'
p1916
tp1917
Rp1918
ag2
(g22
S'E\xf0\xbf\x95\xecrf@'
p1919
tp1920
Rp1921
ag2
(g22
S'\x00\x00\x00\x00\x00\x00\x00\x00'
p1922
tp1923
Rp1924
ag2
(g22
S'B`\xe5\xd0"\xf7e@'
p1925
tp1926
Rp1927
aF0.000623
aF0.428
aF0.899
aF0.00182
aF-9.307
aF0.0434
aF107.759
aF0.43
aa(lp1928
g2
(g3
(S'S15'
p1929
I0
I1
tp1930
Rp1931
(I3
S'|'
p1932
NNNI15
I1
I0
tp1933
bS'If They Want It'
p1934
tp1935
Rp1936
ag2
(g3
(S'S24'
p1937
I0
I1
tp1938
Rp1939
(I3
S'|'
p1940
NNNI24
I1
I0
tp1941
bS'DJ Clue / Fabolous Sport'
p1942
tp1943
Rp1944
ag2
(g22
S'\x7f\x8b}\xf1s?\xe5?'
p1945
tp1946
Rp1947
ag2
(g22
S'S\x9fWU\xbeG\xe1?'
p1948
tp1949
Rp1950
ag2
(g22
S'\xf5-s\xba,Xn@'
p1951
tp1952
Rp1953
ag2
(g22
S'\x8f\xc2\xf5(\\\x0f\x16@'
p1954
tp1955
Rp1956
ag2
(g22
S'\xac\x1cZd;\xebm@'
p1957
tp1958
Rp1959
aF0.0433
aF0.914
aF0.473
aF7.82e-06
aF-9.002
aF0.269
aF97.027
aF0.672
aa(lp1960
g2
(g3
(S'S10'
p1961
I0
I1
tp1962
Rp1963
(I3
S'|'
p1964
NNNI10
I1
I0
tp1965
bS'Death Blow'
p1966
tp1967
Rp1968
ag2
(g3
(S'S12'
p1969
I0
I1
tp1970
Rp1971
(I3
S'|'
p1972
NNNI12
I1
I0
tp1973
bS'Kool Moe Dee'
p1974
tp1975
Rp1976
ag2
(g22
S'\xff\x83\xfd?\xbdw\xe1?'
p1977
tp1978
Rp1979
ag2
(g22
S'6Z\xed(\xf0\x05\xd8?'
p1980
tp1981
Rp1982
ag2
(g22
S'\xa0\x89\xb0\xe1\xe9\xd8x@'
p1983
tp1984
Rp1985
ag2
(g22
S'\xc3\xf5(\\\x8f\xc2\xd5?'
p1986
tp1987
Rp1988
ag2
(g22
S'\x04V\x0e-\xb2\xa5x@'
p1989
tp1990
Rp1991
aF0.00262
aF0.844
aF0.711
aF1.86e-06
aF-8.722
aF0.161
aF107.021
aF0.556
aa(lp1992
g2
(g3
(S'S16'
p1993
I0
I1
tp1994
Rp1995
(I3
S'|'
p1996
NNNI16
I1
I0
tp1997
bS'Turn The Heat Up'
p1998
tp1999
Rp2000
ag2
(g3
(S'S8'
p2001
I0
I1
tp2002
Rp2003
(I3
S'|'
p2004
NNNI8
I1
I0
tp2005
bS'Bobaflex'
p2006
tp2007
Rp2008
ag2
(g22
S'\xc5\xec~CM\xd7\xe2?'
p2009
tp2010
Rp2011
ag2
(g22
S'\xda#\xafm\x0f\x96\xda?'
p2012
tp2013
Rp2014
ag2
(g22
S'\x9b\xe6\x1d\xa7\xe8mb@'
p2015
tp2016
Rp2017
ag2
(g22
S'X9\xb4\xc8v\xbe\xdf?'
p2018
tp2019
Rp2020
ag2
(g22
S'+\x87\x16\xd9\xce\xdfa@'
p2021
tp2022
Rp2023
aF0.0158
aF0.594
aF0.902
aI0
aF-3.218
aF0.0503
aF93.019
aF0.567
aa(lp2024
g2
(g3
(S'S20'
p2025
I0
I1
tp2026
Rp2027
(I3
S'|'
p2028
NNNI20
I1
I0
tp2029
bS'40 OZ Quartet Part I'
p2030
tp2031
Rp2032
ag2
(g3
(S'S8'
p2033
I0
I1
tp2034
Rp2035
(I3
S'|'
p2036
NNNI8
I1
I0
tp2037
bS'Tha Liks'
p2038
tp2039
Rp2040
ag2
(g22
S'CM\xa2{H,\xe1?'
p2041
tp2042
Rp2043
ag2
(g22
S'\x00\x00\x00\x00\x00\x00\x00\x00'
p2044
tp2045
Rp2046
ag2
(g22
S'/n\xa3\x01\xbc\x11[@'
p2047
tp2048
Rp2049
ag2
(g22
S'L7\x89A`\xe5\xd0?'
p2050
tp2051
Rp2052
ag2
(g22
S'\xbe\x9f\x1a/\xdd\xbcY@'
p2053
tp2054
Rp2055
aF0.275
aF0.699
aF0.684
aI0
aF-6.605
aF0.637
aF80.015
aF0.812
aa(lp2056
g2
(g3
(S'S12'
p2057
I0
I1
tp2058
Rp2059
(I3
S'|'
p2060
NNNI12
I1
I0
tp2061
bS"I Don't Know"
p2062
tp2063
Rp2064
ag2
(g3
(S'S15'
p2065
I0
I1
tp2066
Rp2067
(I3
S'|'
p2068
NNNI15
I1
I0
tp2069
bS'Teenage Fanclub'
p2070
tp2071
Rp2072
ag2
(g22
S'\x11!\x85V\xa8\xea\xe5?'
p2073
tp2074
Rp2075
ag2
(g22
S'Yv\xb6\xafl^\xe0?'
p2076
tp2077
Rp2078
ag2
(g22
S'J^\x9dc@+q@'
p2079
tp2080
Rp2081
ag2
(g22
S'\x00\x00\x00\x00\x00\x00\x00\x00'
p2082
tp2083
Rp2084
ag2
(g22
S'\xd7\xa3p=\n\xa5p@'
p2085
tp2086
Rp2087
aF8.26e-06
aF0.343
aF0.718
aF0.781
aF-13.325
aF0.0401
aF116.018
aF0.432
aa(lp2088
g2
(g3
(S'S12'
p2089
I0
I1
tp2090
Rp2091
(I3
S'|'
p2092
NNNI12
I1
I0
tp2093
bS'Xue Hua Chao'
p2094
tp2095
Rp2096
ag2
(g3
(S'S11'
p2097
I0
I1
tp2098
Rp2099
(I3
S'|'
p2100
NNNI11
I1
I0
tp2101
bS'Hins Cheung'
p2102
tp2103
Rp2104
ag2
(g22
S'\x1e\x8dW\x1fb4\xdb?'
p2105
tp2106
Rp2107
ag2
(g22
S'\x94a\xba\xb9\xccB\xd7?'
p2108
tp2109
Rp2110
ag2
(g22
S'\xad\xddv\xa1\xb9\xc6m@'
p2111
tp2112
Rp2113
ag2
(g22
S'\xd3Mb\x10X9\xd4?'
p2114
tp2115
Rp2116
ag2
(g22
S'\xe1z\x14\xaeG\xf5l@'
p2117
tp2118
Rp2119
aF0.0986
aF0.409
aF0.654
aI0
aF-5.018
aF0.0332
aF149.865
aF0.19
aa(lp2120
g2
(g3
(S'S32'
p2121
I0
I1
tp2122
Rp2123
(I3
S'|'
p2124
NNNI32
I1
I0
tp2125
bS'Chaos (Live - Bridgehouse Tapes)'
p2126
tp2127
Rp2128
ag2
(g3
(S'S7'
p2129
I0
I1
tp2130
Rp2131
(I3
S'|'
p2132
NNNI7
I1
I0
tp2133
bS'4 Skins'
p2134
tp2135
Rp2136
ag2
(g22
S'\xad7\x1a\xa7\xba\xea\xe0?'
p2137
tp2138
Rp2139
ag2
(g22
S'\x00\x00\x00\x00\x00\x00\x00\x00'
p2140
tp2141
Rp2142
ag2
(g22
S'\xd74\xef8E\x89_@'
p2143
tp2144
Rp2145
ag2
(g22
S'V\x0e-\xb2\x9d\xef\xd7?'
p2146
tp2147
Rp2148
ag2
(g22
S'\xb4\xc8v\xbe\x9f\x02^@'
p2149
tp2150
Rp2151
aF0.0174
aF0.162
aF0.969
aF0.0383
aF-4.502
aF0.0959
aF182.414
aF0.317
aa(lp2152
g2
(g3
(S'S16'
p2153
I0
I1
tp2154
Rp2155
(I3
S'|'
p2156
NNNI16
I1
I0
tp2157
bS'Over The Rainbow'
p2158
tp2159
Rp2160
ag2
(g3
(S'S10'
p2161
I0
I1
tp2162
Rp2163
(I3
S'|'
p2164
NNNI10
I1
I0
tp2165
bS'Anita Kerr'
p2166
tp2167
Rp2168
ag2
(g22
S'O\x90\xe2\xb7\x00c\xd5?'
p2169
tp2170
Rp2171
ag2
(g22
S'\xf9\x13n\xc1^\x11\xc8?'
p2172
tp2173
Rp2174
ag2
(g22
S'\xb4<\x0f\xee\xce\x90c@'
p2175
tp2176
Rp2177
ag2
(g22
S'H\xe1z\x14\xaeG\xd1?'
p2178
tp2179
Rp2180
ag2
(g22
S'j\xbct\x93\x18\x98b@'
p2181
tp2182
Rp2183
aF0.947
aF0.319
aF0.348
aF0.3
aF-13.738
aF0.0294
aF95.684
aF0.131
aa(lp2184
g2
(g3
(S'S5'
p2185
I0
I1
tp2186
Rp2187
(I3
S'|'
p2188
NNNI5
I1
I0
tp2189
bS'3 + 3'
p2190
tp2191
Rp2192
ag2
(g3
(S'S8'
p2193
I0
I1
tp2194
Rp2195
(I3
S'|'
p2196
NNNI8
I1
I0
tp2197
bS'Vangelis'
p2198
tp2199
Rp2200
ag2
(g22
S'\x9d\x15c\xbb`\xbb\xe8?'
p2201
tp2202
Rp2203
ag2
(g22
S'%\xc8J\xe8\x1bQ\xde?'
p2204
tp2205
Rp2206
ag2
(g22
S'rm\xa8\x18\xa7\xfc\x81@'
p2207
tp2208
Rp2209
ag2
(g22
S'\x00\x00\x00\x00\x00\x00\x00\x00'
p2210
tp2211
Rp2212
ag2
(g22
S'\xd5x\xe9&1\xc1\x80@'
p2213
tp2214
Rp2215
aF0.598
aF0.498
aF0.43
aF0.895
aF-16.933
aF0.0383
aF149.28
aF0.373
aa(lp2216
g2
(g3
(S'S20'
p2217
I0
I1
tp2218
Rp2219
(I3
S'|'
p2220
NNNI20
I1
I0
tp2221
bS'Tell Your Momma Come'
p2222
tp2223
Rp2224
ag2
(g3
(S'S15'
p2225
I0
I1
tp2226
Rp2227
(I3
S'|'
p2228
NNNI15
I1
I0
tp2229
bS'Black Eyed Peas'
p2230
tp2231
Rp2232
ag2
(g22
S'B\xc8\x11\xb0+\x0f\xeb?'
p2233
tp2234
Rp2235
ag2
(g22
S'\\1W\x9aV\x18\xf0?'
p2236
tp2237
Rp2238
ag2
(g22
S'\xdd$\x06\x81\x95\x8bh@'
p2239
tp2240
Rp2241
ag2
(g22
S'\x00\x00\x00\x00\x00\x00\x00\x00'
p2242
tp2243
Rp2244
ag2
(g22
S'\x9a\x99\x99\x99\x99\xfdg@'
p2245
tp2246
Rp2247
aF0.164
aF0.863
aF0.887
aI0
aF-5.241
aF0.123
aF102.134
aF0.865
aa(lp2248
g2
(g3
(S'S12'
p2249
I0
I1
tp2250
Rp2251
(I3
S'|'
p2252
NNNI12
I1
I0
tp2253
bS'Kiss the Sky'
p2254
tp2255
Rp2256
ag2
(g3
(S'S18'
p2257
I0
I1
tp2258
Rp2259
(I3
S'|'
p2260
NNNI18
I1
I0
tp2261
bS'Danielle Bollinger'
p2262
tp2263
Rp2264
ag2
(g22
S'\x8c\x08.\xb9*+\xe0?'
p2265
tp2266
Rp2267
ag2
(g22
S'\x00\x00\x00\x00\x00\x00\x00\x00'
p2268
tp2269
Rp2270
ag2
(g22
S'\xde\x8epZ\xf0\xf0k@'
p2271
tp2272
Rp2273
ag2
(g22
S'1\x08\xac\x1cZd\xbb?'
p2274
tp2275
Rp2276
ag2
(g22
S'm\xe7\xfb\xa9\xf1\x9ek@'
p2277
tp2278
Rp2279
aF0.00299
aF0.632
aF0.827
aI0
aF-9.765
aF0.0341
aF133.993
aF0.713
aa(lp2280
g2
(g3
(S'S40'
p2281
I0
I1
tp2282
Rp2283
(I3
S'|'
p2284
NNNI40
I1
I0
tp2285
bS"Anything's Better Than Feelin' The Blues"
p2286
tp2287
Rp2288
ag2
(g3
(S'S15'
p2289
I0
I1
tp2290
Rp2291
(I3
S'|'
p2292
NNNI15
I1
I0
tp2293
bS'Martina McBride'
p2294
tp2295
Rp2296
ag2
(g22
S'\xc0N\x0e\xcf\x05\xad\xe3?'
p2297
tp2298
Rp2299
ag2
(g22
S'\x9f5\x08<\x98\x1a\xe4?'
p2300
tp2301
Rp2302
ag2
(g22
S'\xf2\xcd67\xa6\xbbf@'
p2303
tp2304
Rp2305
ag2
(g22
S'\xcb\xa1E\xb6\xf3\xfd\xd4?'
p2306
tp2307
Rp2308
ag2
(g22
S'\xfa~j\xbctkd@'
p2309
tp2310
Rp2311
aF0.0538
aF0.683
aF0.614
aF5.16e-06
aF-6.902
aF0.0287
aF151.807
aF0.58
aa(lp2312
g2
(g3
(S'S22'
p2313
I0
I1
tp2314
Rp2315
(I3
S'|'
p2316
NNNI22
I1
I0
tp2317
bS'Mary Had A Little Lamb'
p2318
tp2319
Rp2320
ag2
(g3
(S'S17'
p2321
I0
I1
tp2322
Rp2323
(I3
S'|'
p2324
NNNI17
I1
I0
tp2325
bS'Dora The Explorer'
p2326
tp2327
Rp2328
ag2
(g22
S'\xb9S\xdc\x82\x15v\xe0?'
p2329
tp2330
Rp2331
ag2
(g22
S'\xf2\x93\x97e\x01{\xda?'
p2332
tp2333
Rp2334
ag2
(g22
S'\tm9\x97\xe2"e@'
p2335
tp2336
Rp2337
ag2
(g22
S'\x00\x00\x00\x00\x00\x00\x00\x00'
p2338
tp2339
Rp2340
ag2
(g22
S'J\x0c\x02+\x87\xe2d@'
p2341
tp2342
Rp2343
aF0.0701
aF0.745
aF0.937
aF0.373
aF-2.563
aF0.0642
aF142.032
aF0.94
aa(lp2344
g2
(g3
(S'S9'
p2345
I0
I1
tp2346
Rp2347
(I3
S'|'
p2348
NNNI9
I1
I0
tp2349
bS'Fleetwood'
p2350
tp2351
Rp2352
ag2
(g3
(S'S10'
p2353
I0
I1
tp2354
Rp2355
(I3
S'|'
p2356
NNNI10
I1
I0
tp2357
bS'Jim Bryson'
p2358
tp2359
Rp2360
ag2
(g22
S'P\xf6\x0b\xdd\xa9\x9d\xe0?'
p2361
tp2362
Rp2363
ag2
(g22
S'\x89\xc4o\x82Za\xdb?'
p2364
tp2365
Rp2366
ag2
(g22
S'\x01\xc1\x1c=~Cq@'
p2367
tp2368
Rp2369
ag2
(g22
S'\xfe\xd4x\xe9&1\xd0?'
p2370
tp2371
Rp2372
ag2
(g22
S';\xdfO\x8d\x97`p@'
p2373
tp2374
Rp2375
aF0.0404
aF0.68
aF0.706
aF0.308
aF-7.433
aF0.0246
aF97.47
aF0.734
aa(lp2376
g2
(g3
(S'S45'
p2377
I0
I1
tp2378
Rp2379
(I3
S'|'
p2380
NNNI45
I1
I0
tp2381
bS'Anarchy in the UK (Sex Pistols) (Bonus Track)'
p2382
tp2383
Rp2384
ag2
(g3
(S'S14'
p2385
I0
I1
tp2386
Rp2387
(I3
S'|'
p2388
NNNI14
I1
I0
tp2389
bS'Adrenalin O.D.'
p2390
tp2391
Rp2392
ag2
(g22
S'\xbf\x01Jp\xd4\x80\xe0?'
p2393
tp2394
Rp2395
ag2
(g22
S'\xbb\xc3\xadoio\xd4?'
p2396
tp2397
Rp2398
ag2
(g22
S'\x85w\xb9\x88\xef\xd4a@'
p2399
tp2400
Rp2401
ag2
(g22
S'\xc3\xf5(\\\x8f\xc2\xd5?'
p2402
tp2403
Rp2404
ag2
(g22
S'P\x8d\x97n\x12oa@'
p2405
tp2406
Rp2407
aF1.11e-05
aF0.147
aF0.873
aF0.254
aF-4.917
aF0.0585
aF101.529
aF0.365
aa(lp2408
g2
(g3
(S'S34'
p2409
I0
I1
tp2410
Rp2411
(I3
S'|'
p2412
NNNI34
I1
I0
tp2413
bS'Witchcraft (1997 Digital Remaster)'
p2414
tp2415
Rp2416
ag2
(g3
(S'S24'
p2417
I0
I1
tp2418
Rp2419
(I3
S'|'
p2420
NNNI24
I1
I0
tp2421
bS'Joe Graves & The Diggers'
p2422
tp2423
Rp2424
ag2
(g22
S'z\x9a\x8d6\xb5\xfe\xcc?'
p2425
tp2426
Rp2427
ag2
(g22
S'\x00\x00\x00\x00\x00\x00\x00\x00'
p2428
tp2429
Rp2430
ag2
(g22
S'\x14\\\xac\xa8AUp@'
p2431
tp2432
Rp2433
ag2
(g22
S'R\xb8\x1e\x85\xebQ\xd8?'
p2434
tp2435
Rp2436
ag2
(g22
S'Nb\x10X9\x02p@'
p2437
tp2438
Rp2439
aF0.197
aF0.674
aF0.423
aF0.0609
aF-13.13
aF0.0769
aF89.064
aF0.664
aa(lp2440
g2
(g3
(S'S30'
p2441
I0
I1
tp2442
Rp2443
(I3
S'|'
p2444
NNNI30
I1
I0
tp2445
bS'Go And Wash (Those Dirty Feet)'
p2446
tp2447
Rp2448
ag2
(g3
(S'S13'
p2449
I0
I1
tp2450
Rp2451
(I3
S'|'
p2452
NNNI13
I1
I0
tp2453
bS'Johnny Horton'
p2454
tp2455
Rp2456
ag2
(g22
S'3?\x82\xb9\x9f\x88\xe3?'
p2457
tp2458
Rp2459
ag2
(g22
S'\x06Wf\xbe\xf2\n\xdc?'
p2460
tp2461
Rp2462
ag2
(g22
S'\xf4\x89<I\xba[a@'
p2463
tp2464
Rp2465
ag2
(g22
S'\x00\x00\x00\x00\x00\x00\x00\x00'
p2466
tp2467
Rp2468
ag2
(g22
S'\xc1\xca\xa1E\xb6[a@'
p2469
tp2470
Rp2471
aF0.884
aF0.857
aF0.351
aI0
aF-10.864
aF0.0563
aF107.343
aF0.963
aa(lp2472
g2
(g3
(S'S7'
p2473
I0
I1
tp2474
Rp2475
(I3
S'|'
p2476
NNNI7
I1
I0
tp2477
bS'October'
p2478
tp2479
Rp2480
ag2
(g3
(S'S2'
p2481
I0
I1
tp2482
Rp2483
(I3
S'|'
p2484
NNNI2
I1
I0
tp2485
bS'U2'
p2486
tp2487
Rp2488
ag2
(g22
S'\xcd\x8c\x9d`+\xfe\xea?'
p2489
tp2490
Rp2491
ag2
(g22
S'_Le\xb6\xa2k\xea?'
p2492
tp2493
Rp2494
ag2
(g22
S']\x16\x13\x9b\x8f\xc7a@'
p2495
tp2496
Rp2497
ag2
(g22
S'\x00\x00\x00\x00\x00\x00\x00\x00'
p2498
tp2499
Rp2500
ag2
(g22
S'P\x8d\x97n\x12\xb3`@'
p2501
tp2502
Rp2503
aF0.96
aF0.597
aF0.0468
aF0.625
aF-18.637
aF0.0462
aF86.496
aF0.119
aa(lp2504
g2
(g3
(S'S14'
p2505
I0
I1
tp2506
Rp2507
(I3
S'|'
p2508
NNNI14
I1
I0
tp2509
bS'Pode Me Chamar'
p2510
tp2511
Rp2512
ag2
(g3
(S'S5'
p2513
I0
I1
tp2514
Rp2515
(I3
S'|'
p2516
NNNI5
I1
I0
tp2517
bS'Eddie'
p2518
tp2519
Rp2520
ag2
(g22
S'M\xc6\xceX\x07\xed\xe3?'
p2521
tp2522
Rp2523
ag2
(g22
S'<\xd3\x85:\x83\xeb\xd7?'
p2524
tp2525
Rp2526
ag2
(g22
S'\x1d\x8f\x19\xa8\x8cen@'
p2527
tp2528
Rp2529
ag2
(g22
S'h\x91\xed|?5\x0f@'
p2530
tp2531
Rp2532
ag2
(g22
S'y\xe9&1\x08\xdcl@'
p2533
tp2534
Rp2535
aF0.0899
aF0.681
aF0.592
aF0.018
aF-12.565
aF0.0717
aF79.943
aF0.672
aa(lp2536
g2
(g3
(S'S7'
p2537
I0
I1
tp2538
Rp2539
(I3
S'|'
p2540
NNNI7
I1
I0
tp2541
bS'Gateway'
p2542
tp2543
Rp2544
ag2
(g3
(S'S12'
p2545
I0
I1
tp2546
Rp2547
(I3
S'|'
p2548
NNNI12
I1
I0
tp2549
bS'Dean Evenson'
p2550
tp2551
Rp2552
ag2
(g22
S'X6\xa2k\x0cT\xe0?'
p2553
tp2554
Rp2555
ag2
(g22
S'\xbc\x821\x1a7<\xd7?'
p2556
tp2557
Rp2558
ag2
(g22
S'\x89\xb5\xf8\x14\x00~i@'
p2559
tp2560
Rp2561
ag2
(g22
S'\x00\x00\x00\x00\x00\x00\x00\x00'
p2562
tp2563
Rp2564
ag2
(g22
S'\xecQ\xb8\x1e\x85\xbfh@'
p2565
tp2566
Rp2567
aF0.923
aF0.225
aF0.117
aF0.899
aF-19.306
aF0.0312
aF93.668
aF0.0832
aa(lp2568
g2
(g3
(S'S9'
p2569
I0
I1
tp2570
Rp2571
(I3
S'|'
p2572
NNNI9
I1
I0
tp2573
bS'Souffle 2'
p2574
tp2575
Rp2576
ag2
(g3
(S'S14'
p2577
I0
I1
tp2578
Rp2579
(I3
S'|'
p2580
NNNI14
I1
I0
tp2581
bS'Vincent Bruley'
p2582
tp2583
Rp2584
ag2
(g22
S';J\xaa\xc6\xaa0\xd2?'
p2585
tp2586
Rp2587
ag2
(g22
S'\x8b^Z\xce\n\x93\xd3?'
p2588
tp2589
Rp2590
ag2
(g22
S'\xf5\xa1\x0b\xea\x1b\xc6\x8c@'
p2591
tp2592
Rp2593
ag2
(g22
S'D\x8bl\xe7\xfb\xa9\x15@'
p2594
tp2595
Rp2596
ag2
(g22
S'\xd9\xce\xf7S\xe3\xb2\x8a@'
p2597
tp2598
Rp2599
aF0.72
aF0.0886
aF0.158
aF0.964
aF-15.528
aF0.0368
aF86.05
aF0.0376
aa(lp2600
g2
(g3
(S'S11'
p2601
I0
I1
tp2602
Rp2603
(I3
S'|'
p2604
NNNI11
I1
I0
tp2605
bS"Comin' Home"
p2606
tp2607
Rp2608
ag2
(g3
(S'S3'
p2609
I0
I1
tp2610
Rp2611
(I3
S'|'
p2612
NNNI3
I1
I0
tp2613
bS'ZO2'
p2614
tp2615
Rp2616
ag2
(g22
S'\xbe\xc5+u\xa7\x0f\xe3?'
p2617
tp2618
Rp2619
ag2
(g22
S'\x9dg\xe7Gn\x18\xd6?'
p2620
tp2621
Rp2622
ag2
(g22
S'B[\xce\xa58\xa8u@'
p2623
tp2624
Rp2625
ag2
(g22
S'\x14\xaeG\xe1z\x14\xce?'
p2626
tp2627
Rp2628
ag2
(g22
S'u\x93\x18\x04V\x8ct@'
p2629
tp2630
Rp2631
aF0.0455
aF0.237
aF0.923
aF1.27e-06
aF-5.412
aF0.107
aF86.825
aF0.361
aa(lp2632
g2
(g3
(S'S16'
p2633
I0
I1
tp2634
Rp2635
(I3
S'|'
p2636
NNNI16
I1
I0
tp2637
bS'One About Heaven'
p2638
tp2639
Rp2640
ag2
(g3
(S'S10'
p2641
I0
I1
tp2642
Rp2643
(I3
S'|'
p2644
NNNI10
I1
I0
tp2645
bS'Brent Lamb'
p2646
tp2647
Rp2648
ag2
(g22
S'_}\xc3l?\x03\xa9?'
p2649
tp2650
Rp2651
ag2
(g22
S'\x00\x00\x00\x00\x00\x00\x00\x00'
p2652
tp2653
Rp2654
ag2
(g22
S'\xc8\xeaV\xcfI\xa5m@'
p2655
tp2656
Rp2657
ag2
(g22
S'\x00\x00\x00\x00\x00\x00\x00\x00'
p2658
tp2659
Rp2660
ag2
(g22
S'/\xdd$\x06\x81\xc1k@'
p2661
tp2662
Rp2663
aF0.155
aF0.691
aF0.857
aF5.54e-06
aF-5.879
aF0.0315
aF143.004
aF0.905
aa(lp2664
g2
(g3
(S'S13'
p2665
I0
I1
tp2666
Rp2667
(I3
S'|'
p2668
NNNI13
I1
I0
tp2669
bS'Babes In Arms'
p2670
tp2671
Rp2672
ag2
(g3
(S'S10'
p2673
I0
I1
tp2674
Rp2675
(I3
S'|'
p2676
NNNI10
I1
I0
tp2677
bS'April Wine'
p2678
tp2679
Rp2680
ag2
(g22
S'\x8d\x0e@\x1a-\x04\xe5?'
p2681
tp2682
Rp2683
ag2
(g22
S'\x01\xfd\x96)BE\xda?'
p2684
tp2685
Rp2686
ag2
(g22
S'%u\x02\x9a\x08\x1di@'
p2687
tp2688
Rp2689
ag2
(g22
S'\x00\x00\x00\x00\x00\x00\x00\x00'
p2690
tp2691
Rp2692
ag2
(g22
S'\x1b/\xdd$\x06\x1di@'
p2693
tp2694
Rp2695
aF0.0794
aF0.536
aF0.553
aF5.67e-06
aF-14.394
aF0.0317
aF126.903
aF0.926
aa(lp2696
g2
(g3
(S'S18'
p2697
I0
I1
tp2698
Rp2699
(I3
S'|'
p2700
NNNI18
I1
I0
tp2701
bS'The Christmas Song'
p2702
tp2703
Rp2704
ag2
(g3
(S'S20'
p2705
I0
I1
tp2706
Rp2707
(I3
S'|'
p2708
NNNI20
I1
I0
tp2709
bS'Mannheim Steamroller'
p2710
tp2711
Rp2712
ag2
(g22
S'oH\x08\xec\n\x91\xe6?'
p2713
tp2714
Rp2715
ag2
(g22
S'\x16\x97P\xf4\x93\xe9\xe4?'
p2716
tp2717
Rp2718
ag2
(g22
S'\x90IF\xce\xc2\xfah@'
p2719
tp2720
Rp2721
ag2
(g22
S'\x00\x00\x00\x00\x00\x00\x00\x00'
p2722
tp2723
Rp2724
ag2
(g22
S'y\xe9&1\x08xg@'
p2725
tp2726
Rp2727
aF0.439
aF0.275
aF0.404
aI0
aF-10.354
aF0.0278
aF95.306
aF0.182
aa(lp2728
g2
(g3
(S'S16'
p2729
I0
I1
tp2730
Rp2731
(I3
S'|'
p2732
NNNI16
I1
I0
tp2733
bS'20 horas de nada'
p2734
tp2735
Rp2736
ag2
(g3
(S'S10'
p2737
I0
I1
tp2738
Rp2739
(I3
S'|'
p2740
NNNI10
I1
I0
tp2741
bS'Alex Ubago'
p2742
tp2743
Rp2744
ag2
(g22
S'\xbdrJ\xebq\x9b\xe2?'
p2745
tp2746
Rp2747
ag2
(g22
S'\xd3\xbd\xbe\xa3\xfc\xba\xd2?'
p2748
tp2749
Rp2750
ag2
(g22
S'\xef\x8f\xf7\xaa\x95\x12k@'
p2751
tp2752
Rp2753
ag2
(g22
S'\x83\xc0\xca\xa1E\xb6\xc3?'
p2754
tp2755
Rp2756
ag2
(g22
S'#\xdb\xf9~j\x04j@'
p2757
tp2758
Rp2759
aF0.545
aF0.487
aF0.443
aF1.63e-06
aF-7.947
aF0.0302
aF121.826
aF0.245
aa(lp2760
g2
(g3
(S'S5'
p2761
I0
I1
tp2762
Rp2763
(I3
S'|'
p2764
NNNI5
I1
I0
tp2765
bS'Kyana'
p2766
tp2767
Rp2768
ag2
(g3
(S'S8'
p2769
I0
I1
tp2770
Rp2771
(I3
S'|'
p2772
NNNI8
I1
I0
tp2773
bS'Arctique'
p2774
tp2775
Rp2776
ag2
(g22
S'\xce?\x95x\x1b\x0b\xdc?'
p2777
tp2778
Rp2779
ag2
(g22
S'P\xbd\xd1\xe6\x9f\xef\xc0?'
p2780
tp2781
Rp2782
ag2
(g22
S'\xb7(\xb3A&@}@'
p2783
tp2784
Rp2785
ag2
(g22
S'\x00\x00\x00\x00\x00\x00\x00\x00'
p2786
tp2787
Rp2788
ag2
(g22
S'\xfa~j\xbct\xb7{@'
p2789
tp2790
Rp2791
aF4.78e-05
aF0.569
aF0.905
aF0.821
aF-7.275
aF0.0442
aF129.994
aF0.152
aa(lp2792
g2
(g3
(S'S3'
p2793
I0
I1
tp2794
Rp2795
(I3
S'|'
p2796
NNNI3
I1
I0
tp2797
bS'Cum'
p2798
tp2799
Rp2800
ag2
(g3
(S'S11'
p2801
I0
I1
tp2802
Rp2803
(I3
S'|'
p2804
NNNI11
I1
I0
tp2805
bS'Eric Burdon'
p2806
tp2807
Rp2808
ag2
(g22
S',\xd5<*\xf5;\xe3?'
p2809
tp2810
Rp2811
ag2
(g22
S'\x807\x03?\xe7\xfc\xd6?'
p2812
tp2813
Rp2814
ag2
(g22
S'\xa2\xd1\x1d\xc4\xce\te@'
p2815
tp2816
Rp2817
ag2
(g22
S'\xd1"\xdb\xf9~j\xdc?'
p2818
tp2819
Rp2820
ag2
(g22
S'\x91\xed|?5\xe2b@'
p2821
tp2822
Rp2823
aF0.13
aF0.348
aF0.796
aF0.569
aF-8.911
aF0.0423
aF147.023
aF0.802
aa(lp2824
g2
(g3
(S'S5'
p2825
I0
I1
tp2826
Rp2827
(I3
S'|'
p2828
NNNI5
I1
I0
tp2829
bS'Honey'
p2830
tp2831
Rp2832
ag2
(g3
(S'S12'
p2833
I0
I1
tp2834
Rp2835
(I3
S'|'
p2836
NNNI12
I1
I0
tp2837
bS'Mariah Carey'
p2838
tp2839
Rp2840
ag2
(g22
S'4F\xab]\xfd\xea\xed?'
p2841
tp2842
Rp2843
ag2
(g22
S'}c\xb9\x17&/\xe9?'
p2844
tp2845
Rp2846
ag2
(g22
S'\xbc\x91y\xe4\x0f\xd3r@'
p2847
tp2848
Rp2849
ag2
(g22
S'\x0c\x02+\x87\x16\xd9\x04@'
p2850
tp2851
Rp2852
ag2
(g22
S'\x8bl\xe7\xfb\xa9\x0br@'
p2853
tp2854
Rp2855
aF0.118
aF0.694
aF0.823
aF7.11e-06
aF-6.755
aF0.0917
aF95.83
aF0.683
aa(lp2856
g2
(g3
(S'S19'
p2857
I0
I1
tp2858
Rp2859
(I3
S'|'
p2860
NNNI19
I1
I0
tp2861
bS'Rescue And Breakout'
p2862
tp2863
Rp2864
ag2
(g3
(S'S12'
p2865
I0
I1
tp2866
Rp2867
(I3
S'|'
p2868
NNNI12
I1
I0
tp2869
bS'James Horner'
p2870
tp2871
Rp2872
ag2
(g22
S'q*\xcf\x10\x9f\xbe\xe5?'
p2873
tp2874
Rp2875
ag2
(g22
S'\xe9\x91\x1b\x1a\x1fz\xdf?'
p2876
tp2877
Rp2878
ag2
(g22
S'\x11\x8d\xee vqi@'
p2879
tp2880
Rp2881
ag2
(g22
S'\x8bl\xe7\xfb\xa9\xf1\xda?'
p2882
tp2883
Rp2884
ag2
(g22
S'J\x0c\x02+\x87*h@'
p2885
tp2886
Rp2887
aF0.249
aF0.172
aF0.306
aF0.865
aF-16.962
aF0.035
aF96.118
aF0.162
aa(lp2888
g2
(g3
(S'S14'
p2889
I0
I1
tp2890
Rp2891
(I3
S'|'
p2892
NNNI14
I1
I0
tp2893
bS'Round 7:  2138'
p2894
tp2895
Rp2896
ag2
(g3
(S'S12'
p2897
I0
I1
tp2898
Rp2899
(I3
S'|'
p2900
NNNI12
I1
I0
tp2901
bS'Cassius Clay'
p2902
tp2903
Rp2904
ag2
(g22
S',\xe0\xa6\xdf\xb5\x18\xdf?'
p2905
tp2906
Rp2907
ag2
(g22
S'\xbe\x0c\xe8\xae\xea\x0f\xd2?'
p2908
tp2909
Rp2910
ag2
(g22
S'82\x8f\xfc\xc1\xden@'
p2911
tp2912
Rp2913
ag2
(g22
S'\xf4\xfd\xd4x\xe9&\xb1?'
p2914
tp2915
Rp2916
ag2
(g22
S'^\xbaI\x0c\x02\x0bn@'
p2917
tp2918
Rp2919
aF0.696
aF0.55
aF0.53
aI0
aF-14.085
aF0.955
aF73.242
aF0.327
aa(lp2920
g2
(g3
(S'S27'
p2921
I0
I1
tp2922
Rp2923
(I3
S'|'
p2924
NNNI27
I1
I0
tp2925
bS"You Can't Hurry Love (Live)"
p2926
tp2927
Rp2928
ag2
(g3
(S'S12'
p2929
I0
I1
tp2930
Rp2931
(I3
S'|'
p2932
NNNI12
I1
I0
tp2933
bS'Phil Collins'
p2934
tp2935
Rp2936
ag2
(g22
S'\xbc3\xa9\xe9N\xfd\xe4?'
p2937
tp2938
Rp2939
ag2
(g22
S'^\xafpmr\x81\xe2?'
p2940
tp2941
Rp2942
ag2
(g22
S']\x16\x13\x9b\x8f\xc7e@'
p2943
tp2944
Rp2945
ag2
(g22
S'\x00\x00\x00\x00\x00\x00\x00\x00'
p2946
tp2947
Rp2948
ag2
(g22
S'd;\xdfO\x8d\xc7e@'
p2949
tp2950
Rp2951
aF0.032
aF0.518
aF0.866
aF0.334
aF-10.136
aF0.0374
aF103.526
aF0.516
aa(lp2952
g2
(g3
(S'S21'
p2953
I0
I1
tp2954
Rp2955
(I3
S'|'
p2956
NNNI21
I1
I0
tp2957
bS'This Side Of Paradise'
p2958
tp2959
Rp2960
ag2
(g3
(S'S13'
p2961
I0
I1
tp2962
Rp2963
(I3
S'|'
p2964
NNNI13
I1
I0
tp2965
bS'Nestor Torres'
p2966
tp2967
Rp2968
ag2
(g22
S'\xba\x8e\xa6\x97U\x19\xdf?'
p2969
tp2970
Rp2971
ag2
(g22
S'\xd9\xbe\xff\xde\x1c\x9a\xd6?'
p2972
tp2973
Rp2974
ag2
(g22
S'\x88c]\xdcF\x84q@'
p2975
tp2976
Rp2977
ag2
(g22
S'\xa8\xc6K7\x89A\xe0?'
p2978
tp2979
Rp2980
ag2
(g22
S'\xdd$\x06\x81\x95\xf1p@'
p2981
tp2982
Rp2983
aF0.207
aF0.674
aF0.75
aF0.0119
aF-7.08
aF0.0319
aF97.865
aF0.791
aa(lp2984
g2
(g3
(S'S17'
p2985
I0
I1
tp2986
Rp2987
(I3
S'|'
p2988
NNNI17
I1
I0
tp2989
bS'Out Of This World'
p2990
tp2991
Rp2992
ag2
(g3
(S'S10'
p2993
I0
I1
tp2994
Rp2995
(I3
S'|'
p2996
NNNI10
I1
I0
tp2997
bS'Black Flag'
p2998
tp2999
Rp3000
ag2
(g22
S'\x19\xc0$k\x0ef\xe7?'
p3001
tp3002
Rp3003
ag2
(g22
S'\xa6\x84\xca\xed,\x85\xe1?'
p3004
tp3005
Rp3006
ag2
(g22
S'\x8eX\x8bO\x01\xa8`@'
p3007
tp3008
Rp3009
ag2
(g22
S'\x0c\x02+\x87\x16\xd9\xce?'
p3010
tp3011
Rp3012
ag2
(g22
S'\xa8\xc6K7\x89\x01_@'
p3013
tp3014
Rp3015
aF0.0316
aF0.491
aF0.733
aF0.000211
aF-14.009
aF0.0393
aF103.598
aF0.33
aa(lp3016
g2
(g3
(S'S51'
p3017
I0
I1
tp3018
Rp3019
(I3
S'|'
p3020
NNNI51
I1
I0
tp3021
bS'Petite Fleur (Instrumental) (1996 Digital Remaster)'
p3022
tp3023
Rp3024
ag2
(g3
(S'S28'
p3025
I0
I1
tp3026
Rp3027
(I3
S'|'
p3028
NNNI28
I1
I0
tp3029
bS'Henri Rene And His Orchestra'
p3030
tp3031
Rp3032
ag2
(g22
S'\x0f\xc2`\xc5\xe2@\xd2?'
p3033
tp3034
Rp3035
ag2
(g22
S'\x00\x00\x00\x00\x00\x00\x00\x00'
p3036
tp3037
Rp3038
ag2
(g22
S'\xe7:\x8d\xb4T\x11e@'
p3039
tp3040
Rp3041
ag2
(g22
S'\x14\xaeG\xe1z\x14\xd6?'
p3042
tp3043
Rp3044
ag2
(g22
S'-\xb2\x9d\xef\xa7\x92d@'
p3045
tp3046
Rp3047
aF0.179
aF0.666
aF0.186
aF0.0647
aF-16.097
aF0.0377
aF113.609
aF0.296
aa(lp3048
g2
(g3
(S'S35'
p3049
I0
I1
tp3050
Rp3051
(I3
S'|'
p3052
NNNI35
I1
I0
tp3053
bS'I Changed My Mind (DJ Spinna Remix)'
p3054
tp3055
Rp3056
ag2
(g3
(S'S11'
p3057
I0
I1
tp3058
Rp3059
(I3
S'|'
p3060
NNNI11
I1
I0
tp3061
bS'Lyrics Born'
p3062
tp3063
Rp3064
ag2
(g22
S'\x072\xf1\xe8\xe6\xe7\xe0?'
p3065
tp3066
Rp3067
ag2
(g22
S'\xf0\xb8\xfax\xebc\xe0?'
p3068
tp3069
Rp3070
ag2
(g22
S'a\xfd\x9f\xc3|\x92s@'
p3071
tp3072
Rp3073
ag2
(g22
S'\x0e-\xb2\x9d\xef\xa7\xde?'
p3074
tp3075
Rp3076
ag2
(g22
S'q=\n\xd7\xa3\xd8r@'
p3077
tp3078
Rp3079
aF0.0132
aF0.732
aF0.967
aF4.34e-06
aF-3.489
aF0.21
aF98.922
aF0.581
aa(lp3080
g2
(g3
(S'S6'
p3081
I0
I1
tp3082
Rp3083
(I3
S'|'
p3084
NNNI6
I1
I0
tp3085
bS'2StepN'
p3086
tp3087
Rp3088
ag2
(g3
(S'S26'
p3089
I0
I1
tp3090
Rp3091
(I3
S'|'
p3092
NNNI26
I1
I0
tp3093
bS'North Mississippi Allstars'
p3094
tp3095
Rp3096
ag2
(g22
S'\x9b\x1e\xda\xe1\xfb\xe0\xe7?'
p3097
tp3098
Rp3099
ag2
(g22
S'N\xc3^un\x86\xde?'
p3100
tp3101
Rp3102
ag2
(g22
S'\xd9\xeb\xdd\x1f\xef\xc6d@'
p3103
tp3104
Rp3105
ag2
(g22
S'j\xbct\x93\x18\x04\x02@'
p3106
tp3107
Rp3108
ag2
(g22
S'\xcb\xa1E\xb6\xf35d@'
p3109
tp3110
Rp3111
aF0.216
aF0.703
aF0.935
aF2.57e-05
aF-8.062
aF0.0423
aF124.973
aF0.97
aa(lp3112
g2
(g3
(S'S13'
p3113
I0
I1
tp3114
Rp3115
(I3
S'|'
p3116
NNNI13
I1
I0
tp3117
bS'Seize the day'
p3118
tp3119
Rp3120
ag2
(g3
(S'S12'
p3121
I0
I1
tp3122
Rp3123
(I3
S'|'
p3124
NNNI12
I1
I0
tp3125
bS'Time Factory'
p3126
tp3127
Rp3128
ag2
(g22
S'K\xa6\xc9S\xf3P\xda?'
p3129
tp3130
Rp3131
ag2
(g22
S'c\x80\xfd\xf3\xa9\x1f\xd2?'
p3132
tp3133
Rp3134
ag2
(g22
S'F\xeb\xa8j\x82\x8en@'
p3135
tp3136
Rp3137
ag2
(g22
S'\xb8\x1e\x85\xebQ\xb8\x10@'
p3138
tp3139
Rp3140
ag2
(g22
S'\xf0\xa7\xc6K7\xe9l@'
p3141
tp3142
Rp3143
aF0.0616
aF0.599
aF0.651
aF0.00708
aF-9.724
aF0.0437
aF159.909
aF0.527
aa(lp3144
g2
(g3
(S'S12'
p3145
I0
I1
tp3146
Rp3147
(I3
S'|'
p3148
NNNI12
I1
I0
tp3149
bS'Warung Beach'
p3150
tp3151
Rp3152
ag2
(g3
(S'S12'
p3153
I0
I1
tp3154
Rp3155
(I3
S'|'
p3156
NNNI12
I1
I0
tp3157
bS'John Digweed'
p3158
tp3159
Rp3160
ag2
(g22
S'\xe0\xa3\x8cP\xdb\x80\xe6?'
p3161
tp3162
Rp3163
ag2
(g22
S'\xe9g\x8cDy\xc5\xdb?'
p3164
tp3165
Rp3166
ag2
(g22
S'\x9e\xb5\xdb.\xb4Qy@'
p3167
tp3168
Rp3169
ag2
(g22
S'\x00\x00\x00\x00\x00\x00\x00\x00'
p3170
tp3171
Rp3172
ag2
(g22
S'\x04V\x0e-\xb2Qy@'
p3173
tp3174
Rp3175
aF0.02
aF0.736
aF0.945
aF0.847
aF-7.659
aF0.0496
aF125.017
aF0.341
aa(lp3176
g2
(g3
(S'S14'
p3177
I0
I1
tp3178
Rp3179
(I3
S'|'
p3180
NNNI14
I1
I0
tp3181
bS'Song Sung Blue'
p3182
tp3183
Rp3184
ag2
(g3
(S'S12'
p3185
I0
I1
tp3186
Rp3187
(I3
S'|'
p3188
NNNI12
I1
I0
tp3189
bS'Neil Diamond'
p3190
tp3191
Rp3192
ag2
(g22
S'\x1c\xd1\xb5.\x11*\xea?'
p3193
tp3194
Rp3195
ag2
(g22
S'\xb5&\xfbGV\x0c\xe2?'
p3196
tp3197
Rp3198
ag2
(g22
S'\x0e\x10\xcc\xd1\xe3Lh@'
p3199
tp3200
Rp3201
ag2
(g22
S'h\x91\xed|?5\x02@'
p3202
tp3203
Rp3204
ag2
(g22
S'u\x93\x18\x04V\xfef@'
p3205
tp3206
Rp3207
aF0.487
aF0.55
aF0.334
aF1.1e-05
aF-15.681
aF0.0329
aF109.158
aF0.373
aa(lp3208
g2
(g3
(S'S9'
p3209
I0
I1
tp3210
Rp3211
(I3
S'|'
p3212
NNNI9
I1
I0
tp3213
bS'That Girl'
p3214
tp3215
Rp3216
ag2
(g3
(S'S11'
p3217
I0
I1
tp3218
Rp3219
(I3
S'|'
p3220
NNNI11
I1
I0
tp3221
bS'Gary Morris'
p3222
tp3223
Rp3224
ag2
(g22
S'\xa1\x02u%#J\xdc?'
p3225
tp3226
Rp3227
ag2
(g22
S'\x1f2\xd0\xbf[N\xd2?'
p3228
tp3229
Rp3230
ag2
(g22
S'\xc7K7\x89\xc1\x11s@'
p3231
tp3232
Rp3233
ag2
(g22
S'\x00\x00\x00\x00\x00\x00\x00\x00'
p3234
tp3235
Rp3236
ag2
(g22
S'\x0c\x02+\x87\x16\xf5q@'
p3237
tp3238
Rp3239
aF0.416
aF0.713
aF0.532
aF0.0227
aF-9.282
aF0.042
aF130.523
aF0.181
aa(lp3240
g2
(g3
(S'S45'
p3241
I0
I1
tp3242
Rp3243
(I3
S'|'
p3244
NNNI45
I1
I0
tp3245
bS'Hornpipes: The First of May / the New Century'
p3246
tp3247
Rp3248
ag2
(g3
(S'S25'
p3249
I0
I1
tp3250
Rp3251
(I3
S'|'
p3252
NNNI25
I1
I0
tp3253
bS'Dale Russ / Finn MacGinty'
p3254
tp3255
Rp3256
ag2
(g22
S'\r\xfd!\xff\xa4\xaf\xa1?'
p3257
tp3258
Rp3259
ag2
(g22
S'\x00\x00\x00\x00\x00\x00\x00\x00'
p3260
tp3261
Rp3262
ag2
(g22
S'\xa3\xcc\x06\x99d%e@'
p3263
tp3264
Rp3265
ag2
(g22
S'\x0e-\xb2\x9d\xef\xa7\xc6?'
p3266
tp3267
Rp3268
ag2
(g22
S'%\x06\x81\x95C\xfbc@'
p3269
tp3270
Rp3271
aF0.83
aF0.598
aF0.469
aF4.21e-05
aF-6.598
aF0.044
aF94.798
aF0.914
aa(lp3272
g2
(g3
(S'S8'
p3273
I0
I1
tp3274
Rp3275
(I3
S'|'
p3276
NNNI8
I1
I0
tp3277
bS'Restcure'
p3278
tp3279
Rp3280
ag2
(g3
(S'S8'
p3281
I0
I1
tp3282
Rp3283
(I3
S'|'
p3284
NNNI8
I1
I0
tp3285
bS'Marygold'
p3286
tp3287
Rp3288
ag2
(g22
S'l>C\xae $\xe0?'
p3289
tp3290
Rp3291
ag2
(g22
S'T=\xbeb\x82>\xd4?'
p3292
tp3293
Rp3294
ag2
(g22
S'\xd4HK\xe5\xed\x9ci@'
p3295
tp3296
Rp3297
ag2
(g22
S'\x14\xaeG\xe1z\x14\xce?'
p3298
tp3299
Rp3300
ag2
(g22
S'j\xbct\x93\x18(i@'
p3301
tp3302
Rp3303
aF0.029
aF0.397
aF0.854
aF0.0114
aF-3.43
aF0.0619
aF187.725
aF0.626
aa(lp3304
g2
(g3
(S'S20'
p3305
I0
I1
tp3306
Rp3307
(I3
S'|'
p3308
NNNI20
I1
I0
tp3309
bS'Samaritanas Del Amor'
p3310
tp3311
Rp3312
ag2
(g3
(S'S17'
p3313
I0
I1
tp3314
Rp3315
(I3
S'|'
p3316
NNNI17
I1
I0
tp3317
bS'Jose Luis Perales'
p3318
tp3319
Rp3320
ag2
(g22
S'`\x15\x1f\xbf\xedH\xe2?'
p3321
tp3322
Rp3323
ag2
(g22
S'X\xae`\x1do\x9a\xd8?'
p3324
tp3325
Rp3326
ag2
(g22
S'\xda\xe1\xaf\xc9\x1a\xfeh@'
p3327
tp3328
Rp3329
ag2
(g22
S'\x9a\x99\x99\x99\x99\x99\xc9?'
p3330
tp3331
Rp3332
ag2
(g22
S'X9\xb4\xc8v\xe2g@'
p3333
tp3334
Rp3335
aF0.493
aF0.408
aF0.649
aF1.29e-06
aF-5.677
aF0.028
aF94.535
aF0.4
aa(lp3336
g2
(g3
(S'S9'
p3337
I0
I1
tp3338
Rp3339
(I3
S'|'
p3340
NNNI9
I1
I0
tp3341
bS'Sunshower'
p3342
tp3343
Rp3344
ag2
(g3
(S'S13'
p3345
I0
I1
tp3346
Rp3347
(I3
S'|'
p3348
NNNI13
I1
I0
tp3349
bS'Dave Valentin'
p3350
tp3351
Rp3352
ag2
(g22
S'\x9fR\xdd\xc4z\xef\xdf?'
p3353
tp3354
Rp3355
ag2
(g22
S'\xdaf\xd5\xb1\xca\xd1\xd4?'
p3356
tp3357
Rp3358
ag2
(g22
S'\xc3\x81\x90,`Sq@'
p3359
tp3360
Rp3361
ag2
(g22
S'\x08\xac\x1cZd;\xaf?'
p3362
tp3363
Rp3364
ag2
(g22
S'{\x14\xaeG\xe1\x1cp@'
p3365
tp3366
Rp3367
aF0.732
aF0.418
aF0.471
aF0.103
aF-11.197
aF0.0518
aF124.666
aF0.342
aa(lp3368
g2
(g3
(S'S11'
p3369
I0
I1
tp3370
Rp3371
(I3
S'|'
p3372
NNNI11
I1
I0
tp3373
bS'Good Enough'
p3374
tp3375
Rp3376
ag2
(g3
(S'S11'
p3377
I0
I1
tp3378
Rp3379
(I3
S'|'
p3380
NNNI11
I1
I0
tp3381
bS'Evanescence'
p3382
tp3383
Rp3384
ag2
(g22
S'ck\xbb\\\x80x\xed?'
p3385
tp3386
Rp3387
ag2
(g22
S'-\xf9@\xdd\x90\x95\xe6?'
p3388
tp3389
Rp3390
ag2
(g22
S'\x97\xca\xdb\x11\xce\xb5t@'
p3391
tp3392
Rp3393
ag2
(g22
S'\x00\x00\x00\x00\x00\x00\x00\x00'
p3394
tp3395
Rp3396
ag2
(g22
S'V\x0e-\xb2\x9d\xeds@'
p3397
tp3398
Rp3399
aF0.916
aF0.386
aF0.211
aF0.000731
aF-11.377
aF0.0354
aF114.766
aF0.0576
aa(lp3400
g2
(g3
(S'S18'
p3401
I0
I1
tp3402
Rp3403
(I3
S'|'
p3404
NNNI18
I1
I0
tp3405
bS'Sahnu bhul ke Maha'
p3406
tp3407
Rp3408
ag2
(g3
(S'S11'
p3409
I0
I1
tp3410
Rp3411
(I3
S'|'
p3412
NNNI11
I1
I0
tp3413
bS'Naseebo Lal'
p3414
tp3415
Rp3416
ag2
(g22
S'u\xe8\x9b\xe3.C\xd7?'
p3417
tp3418
Rp3419
ag2
(g22
S'\x00\x00\x00\x00\x00\x00\x00\x00'
p3420
tp3421
Rp3422
ag2
(g22
S'vT5ATD{@'
p3423
tp3424
Rp3425
ag2
(g22
S'\x0c\x02+\x87\x16\xd9\xce?'
p3426
tp3427
Rp3428
ag2
(g22
S'\xe9&1\x08\xac\x04{@'
p3429
tp3430
Rp3431
aF0.659
aF0.704
aF0.561
aF0.00565
aF-12.373
aF0.038
aF143.969
aF0.854
aa(lp3432
g2
(g3
(S'S8'
p3433
I0
I1
tp3434
Rp3435
(I3
S'|'
p3436
NNNI8
I1
I0
tp3437
bS'Bailando'
p3438
tp3439
Rp3440
ag2
(g3
(S'S6'
p3441
I0
I1
tp3442
Rp3443
(I3
S'|'
p3444
NNNI6
I1
I0
tp3445
bS'Casual'
p3446
tp3447
Rp3448
ag2
(g22
S'DF\xaa\xf5\r\x9e\xe2?'
p3449
tp3450
Rp3451
ag2
(g22
S'\xaa\x9at\xe7S\xba\xd9?'
p3452
tp3453
Rp3454
ag2
(g22
S'\x9f\x93\xde7\xbe`i@'
p3455
tp3456
Rp3457
ag2
(g22
S'=\n\xd7\xa3p=\xda?'
p3458
tp3459
Rp3460
ag2
(g22
S'\x17\xd9\xce\xf7S\xbfh@'
p3461
tp3462
Rp3463
aF0.948
aF0.539
aF0.288
aF0.00043
aF-11.699
aF0.0515
aF94.417
aF0.321
aa(lp3464
g2
(g3
(S'S7'
p3465
I0
I1
tp3466
Rp3467
(I3
S'|'
p3468
NNNI7
I1
I0
tp3469
bS'Traffic'
p3470
tp3471
Rp3472
ag2
(g3
(S'S13'
p3473
I0
I1
tp3474
Rp3475
(I3
S'|'
p3476
NNNI13
I1
I0
tp3477
bS'Truckfighters'
p3478
tp3479
Rp3480
ag2
(g22
S'&\xd9\xd2\xb7\x86\x12\xe3?'
p3481
tp3482
Rp3483
ag2
(g22
S'R\x19\x18}\x1fl\xd6?'
p3484
tp3485
Rp3486
ag2
(g22
S'y#\xf3\xc8\x1f\xe7p@'
p3487
tp3488
Rp3489
ag2
(g22
S'\x00\x00\x00\x00\x00\x00\x00\x00'
p3490
tp3491
Rp3492
ag2
(g22
S'5^\xbaI\x0cvp@'
p3493
tp3494
Rp3495
aF0.129
aF0.245
aF0.856
aF0.886
aF-4.976
aF0.0558
aF147.294
aF0.446
aa(lp3496
g2
(g3
(S'S13'
p3497
I0
I1
tp3498
Rp3499
(I3
S'|'
p3500
NNNI13
I1
I0
tp3501
bS'Just One Time'
p3502
tp3503
Rp3504
ag2
(g3
(S'S12'
p3505
I0
I1
tp3506
Rp3507
(I3
S'|'
p3508
NNNI12
I1
I0
tp3509
bS'Connie Smith'
p3510
tp3511
Rp3512
ag2
(g22
S'\xe5\xb7\xdc\xb1{\xcb\xdf?'
p3513
tp3514
Rp3515
ag2
(g22
S'\xc6\xd6\xb89o`\xd7?'
p3516
tp3517
Rp3518
ag2
(g22
S'*\xe3\xdfg\\\x94b@'
p3519
tp3520
Rp3521
ag2
(g22
S'\xe7\xfb\xa9\xf1\xd2M\xda?'
p3522
tp3523
Rp3524
ag2
(g22
S'\x06\x81\x95C\x8b\xf0a@'
p3525
tp3526
Rp3527
aF0.193
aF0.606
aF0.518
aI0
aF-7.968
aF0.0357
aF126.004
aF0.946
aa(lp3528
g2
(g3
(S'S15'
p3529
I0
I1
tp3530
Rp3531
(I3
S'|'
p3532
NNNI15
I1
I0
tp3533
bS'Within My Blood'
p3534
tp3535
Rp3536
ag2
(g3
(S'S13'
p3537
I0
I1
tp3538
Rp3539
(I3
S'|'
p3540
NNNI13
I1
I0
tp3541
bS'Skeletonwitch'
p3542
tp3543
Rp3544
ag2
(g22
S'\x7f\x9b\xbd{\xdf\x10\xe6?'
p3545
tp3546
Rp3547
ag2
(g22
S'\x89\xb5\xb4e\xe4\xed\xe0?'
p3548
tp3549
Rp3550
ag2
(g22
S'\xdb\xa2\xcc\x06\x99\x82o@'
p3551
tp3552
Rp3553
ag2
(g22
S'\x00\x00\x00\x00\x00\x00\x00\x00'
p3554
tp3555
Rp3556
ag2
(g22
S'!\xb0rh\x91\x1do@'
p3557
tp3558
Rp3559
aF0.000415
aF0.357
aF0.969
aF0.877
aF-4.387
aF0.0724
aF103.465
aF0.391
aa(lp3560
g2
(g3
(S'S16'
p3561
I0
I1
tp3562
Rp3563
(I3
S'|'
p3564
NNNI16
I1
I0
tp3565
bS'More Power To Ya'
p3566
tp3567
Rp3568
ag2
(g3
(S'S5'
p3569
I0
I1
tp3570
Rp3571
(I3
S'|'
p3572
NNNI5
I1
I0
tp3573
bS'Petra'
p3574
tp3575
Rp3576
ag2
(g22
S'\xdc\xb9\x88\x05\x84\x8a\xe9?'
p3577
tp3578
Rp3579
ag2
(g22
S'\xee\xbc\x0e\x07\xd7l\xde?'
p3580
tp3581
Rp3582
ag2
(g22
S'\xe0\xd6\xdd<\xd5bk@'
p3583
tp3584
Rp3585
ag2
(g22
S'R\xb8\x1e\x85\xebQ\xd8?'
p3586
tp3587
Rp3588
ag2
(g22
S'\xc9v\xbe\x9f\x1a\x0bj@'
p3589
tp3590
Rp3591
aF0.617
aF0.521
aF0.538
aI0
aF-5.171
aF0.0266
aF131.933
aF0.519
aa(lp3592
g2
(g3
(S'S13'
p3593
I0
I1
tp3594
Rp3595
(I3
S'|'
p3596
NNNI13
I1
I0
tp3597
bS'Mr. Wonderful'
p3598
tp3599
Rp3600
ag2
(g3
(S'S9'
p3601
I0
I1
tp3602
Rp3603
(I3
S'|'
p3604
NNNI9
I1
I0
tp3605
bS'Peggy Lee'
p3606
tp3607
Rp3608
ag2
(g22
S'\xac8\xf1\xe3\x82\xaa\xe8?'
p3609
tp3610
Rp3611
ag2
(g22
S'K\xa9W)o\x8b\xde?'
p3612
tp3613
Rp3614
ag2
(g22
S'\xe1\x0b\x93\xa9\x82\x15i@'
p3615
tp3616
Rp3617
ag2
(g22
S'\xfa~j\xbct\x93\xb8?'
p3618
tp3619
Rp3620
ag2
(g22
S'\xe9&1\x08\xac\xb0g@'
p3621
tp3622
Rp3623
aF0.908
aF0.314
aF0.116
aF6.69e-05
aF-18.259
aF0.0367
aF109.897
aF0.176
aa(lp3624
g2
(g3
(S'S9'
p3625
I0
I1
tp3626
Rp3627
(I3
S'|'
p3628
NNNI9
I1
I0
tp3629
bS'Same Game'
p3630
tp3631
Rp3632
ag2
(g3
(S'S11'
p3633
I0
I1
tp3634
Rp3635
(I3
S'|'
p3636
NNNI11
I1
I0
tp3637
bS'Leigh Jones'
p3638
tp3639
Rp3640
ag2
(g22
S'`\xe1\x89D\xd5\xfa\xe2?'
p3641
tp3642
Rp3643
ag2
(g22
S'\xcb1w~>\xdf\xd7?'
p3644
tp3645
Rp3646
ag2
(g22
S'\xadL\xf8\xa5~\x10i@'
p3647
tp3648
Rp3649
ag2
(g22
S'\x00\x00\x00\x00\x00\x00\x00\x00'
p3650
tp3651
Rp3652
ag2
(g22
S'\xd9\xce\xf7S\xe3-h@'
p3653
tp3654
Rp3655
aF0.522
aF0.484
aF0.61
aI0
aF-6.375
aF0.061
aF69.755
aF0.446
aa(lp3656
g2
(g3
(S'S24'
p3657
I0
I1
tp3658
Rp3659
(I3
S'|'
p3660
NNNI24
I1
I0
tp3661
bS"Danger! She's A Stranger"
p3662
tp3663
Rp3664
ag2
(g3
(S'S19'
p3665
I0
I1
tp3666
Rp3667
(I3
S'|'
p3668
NNNI19
I1
I0
tp3669
bS'The Five Stairsteps'
p3670
tp3671
Rp3672
ag2
(g22
S'`\xe4\x95\x10\x94a\xe1?'
p3673
tp3674
Rp3675
ag2
(g22
S'S7O[\xd0\x95\xd2?'
p3676
tp3677
Rp3678
ag2
(g22
S'P\x19\xff>\xe3\xb7d@'
p3679
tp3680
Rp3681
ag2
(g22
S'\xfe\xd4x\xe9&1\x08@'
p3682
tp3683
Rp3684
ag2
(g22
S'\x7fj\xbct\x93tc@'
p3685
tp3686
Rp3687
aF0.606
aF0.479
aF0.543
aF9.14e-06
aF-8.504
aF0.0288
aF93.384
aF0.81
aa(lp3688
g2
(g3
(S'S26'
p3689
I0
I1
tp3690
Rp3691
(I3
S'|'
p3692
NNNI26
I1
I0
tp3693
bS'Decima Del Tiempo De Antes'
p3694
tp3695
Rp3696
ag2
(g3
(S'S14'
p3697
I0
I1
tp3698
Rp3699
(I3
S'|'
p3700
NNNI14
I1
I0
tp3701
bS'Roberto Torres'
p3702
tp3703
Rp3704
ag2
(g22
S'4.\xfd\xe0\xeb\xde\xde?'
p3705
tp3706
Rp3707
ag2
(g22
S'c\x8e\xf2\xfb\xafg\xd6?'
p3708
tp3709
Rp3710
ag2
(g22
S'\xb7(\xb3A&@q@'
p3711
tp3712
Rp3713
ag2
(g22
S'\x00\x00\x00\x00\x00\x00\x00\x00'
p3714
tp3715
Rp3716
ag2
(g22
S'\xd5x\xe9&1\nq@'
p3717
tp3718
Rp3719
aF0.418
aF0.631
aF0.53
aI0
aF-5.401
aF0.0739
aF161.866
aF0.797
aa(lp3720
g2
(g3
(S'S12'
p3721
I0
I1
tp3722
Rp3723
(I3
S'|'
p3724
NNNI12
I1
I0
tp3725
bS'Distractions'
p3726
tp3727
Rp3728
ag2
(g3
(S'S9'
p3729
I0
I1
tp3730
Rp3731
(I3
S'|'
p3732
NNNI9
I1
I0
tp3733
bS'Dictafone'
p3734
tp3735
Rp3736
ag2
(g22
S'\x91\x1f\n\x06\x15\x87\xe0?'
p3737
tp3738
Rp3739
ag2
(g22
S'\x1cR\x17\xf9_\x04\xc1?'
p3740
tp3741
Rp3742
ag2
(g22
S'_\x0c\xe5D\xbb?s@'
p3743
tp3744
Rp3745
ag2
(g22
S'\x00\x00\x00\x00\x00\x00\x00\x00'
p3746
tp3747
Rp3748
ag2
(g22
S'=\n\xd7\xa3p\x97r@'
p3749
tp3750
Rp3751
aF0.0112
aF0.389
aF0.721
aF0.00116
aF-7.448
aF0.0562
aF114.927
aF0.339
aa(lp3752
g2
(g3
(S'S14'
p3753
I0
I1
tp3754
Rp3755
(I3
S'|'
p3756
NNNI14
I1
I0
tp3757
bS'Boar Hog Blues'
p3758
tp3759
Rp3760
ag2
(g3
(S'S11'
p3761
I0
I1
tp3762
Rp3763
(I3
S'|'
p3764
NNNI11
I1
I0
tp3765
bS'Jazz Gillum'
p3766
tp3767
Rp3768
ag2
(g22
S'3>\xe0\x15\x1e8\xd7?'
p3769
tp3770
Rp3771
ag2
(g22
S'P\x0c\x13\x00\xfb\x10\xd2?'
p3772
tp3773
Rp3774
ag2
(g22
S'\xeeZB>\xe8_e@'
p3775
tp3776
Rp3777
ag2
(g22
S'\x8f\xc2\xf5(\\\x8f\xda?'
p3778
tp3779
Rp3780
ag2
(g22
S'5^\xbaI\x0c\xaad@'
p3781
tp3782
Rp3783
aF0.908
aF0.79
aF0.316
aF0.0866
aF-11.818
aF0.178
aF138.687
aF0.821
aa(lp3784
g2
(g3
(S'S17'
p3785
I0
I1
tp3786
Rp3787
(I3
S'|'
p3788
NNNI17
I1
I0
tp3789
bS'Where We Are From'
p3790
tp3791
Rp3792
ag2
(g3
(S'S19'
p3793
I0
I1
tp3794
Rp3795
(I3
S'|'
p3796
NNNI19
I1
I0
tp3797
bS'Lexie Mountain Boys'
p3798
tp3799
Rp3800
ag2
(g22
S',p\xd2T \xac\xdf?'
p3801
tp3802
Rp3803
ag2
(g22
S'\xd1}<6\x92e\xc4?'
p3804
tp3805
Rp3806
ag2
(g22
S'\xe2;1\xeb\xc5\xe3n@'
p3807
tp3808
Rp3809
ag2
(g22
S'\x00\x00\x00\x00\x00\x00\x00\x00'
p3810
tp3811
Rp3812
ag2
(g22
S'%\x06\x81\x95C\xbfk@'
p3813
tp3814
Rp3815
aF0.956
aF0.605
aF0.0569
aI0
aF-19.944
aF0.348
aF76.588
aF0.424
aa(lp3816
g2
(g3
(S'S11'
p3817
I0
I1
tp3818
Rp3819
(I3
S'|'
p3820
NNNI11
I1
I0
tp3821
bS'Ocean Drive'
p3822
tp3823
Rp3824
ag2
(g3
(S'S17'
p3825
I0
I1
tp3826
Rp3827
(I3
S'|'
p3828
NNNI17
I1
I0
tp3829
bS'Lighthouse Family'
p3830
tp3831
Rp3832
ag2
(g22
S'\x9e\xbd:w-9\xe5?'
p3833
tp3834
Rp3835
ag2
(g22
S"pT'\xdb\x1a\xbd\xd9?"
p3836
tp3837
Rp3838
ag2
(g22
S'D\xfa\xed\xeb\xc0;n@'
p3839
tp3840
Rp3841
ag2
(g22
S'\x08\xac\x1cZd;\x01@'
p3842
tp3843
Rp3844
ag2
(g22
S'^\xbaI\x0c\x02\xb3k@'
p3845
tp3846
Rp3847
aF0.0299
aF0.621
aF0.712
aF0.0364
aF-9.453
aF0.0313
aF90.657
aF0.879
aa(lp3848
g2
(g3
(S'S15'
p3849
I0
I1
tp3850
Rp3851
(I3
S'|'
p3852
NNNI15
I1
I0
tp3853
bS'Five Long Years'
p3854
tp3855
Rp3856
ag2
(g3
(S'S12'
p3857
I0
I1
tp3858
Rp3859
(I3
S'|'
p3860
NNNI12
I1
I0
tp3861
bS'Freddie King'
p3862
tp3863
Rp3864
ag2
(g22
S'\xdb\xcf\x01\xd2$\x82\xe3?'
p3865
tp3866
Rp3867
ag2
(g22
S"' \x9cZg|\xd8?"
p3868
tp3869
Rp3870
ag2
(g22
S'\xd6\xa8\x87htzp@'
p3871
tp3872
Rp3873
ag2
(g22
S'`\xe5\xd0"\xdb\xf9\xde?'
p3874
tp3875
Rp3876
ag2
(g22
S'\xcb\xa1E\xb6\xf3\xfdo@'
p3877
tp3878
Rp3879
aF0.448
aF0.546
aF0.424
aF0.00204
aF-9.275
aF0.0409
aF147.8
aF0.425
aa(lp3880
g2
(g3
(S'S9'
p3881
I0
I1
tp3882
Rp3883
(I3
S'|'
p3884
NNNI9
I1
I0
tp3885
bS'My Pillow'
p3886
tp3887
Rp3888
ag2
(g3
(S'S12'
p3889
I0
I1
tp3890
Rp3891
(I3
S'|'
p3892
NNNI12
I1
I0
tp3893
bS'Roger Miller'
p3894
tp3895
Rp3896
ag2
(g22
S'"!\x82\xf0m\xd7\xe4?'
p3897
tp3898
Rp3899
ag2
(g22
S'\xd5\n\xc7<d\xbe\xda?'
p3900
tp3901
Rp3902
ag2
(g22
S"?\x91'I\xd7\xa8`@"
p3903
tp3904
Rp3905
ag2
(g22
S'\x9c\xc4 \xb0rh\xc1?'
p3906
tp3907
Rp3908
ag2
(g22
S'\xc7K7\x89A`_@'
p3909
tp3910
Rp3911
aF0.76
aF0.395
aF0.456
aI0
aF-5.854
aF0.0316
aF120.396
aF0.524
aa(lp3912
g2
(g3
(S'S20'
p3913
I0
I1
tp3914
Rp3915
(I3
S'|'
p3916
NNNI20
I1
I0
tp3917
bS'Mean Old World Blues'
p3918
tp3919
Rp3920
ag2
(g3
(S'S13'
p3921
I0
I1
tp3922
Rp3923
(I3
S'|'
p3924
NNNI13
I1
I0
tp3925
bS'T-Bone Walker'
p3926
tp3927
Rp3928
ag2
(g22
S'>4\xd3d\t\x95\xe3?'
p3929
tp3930
Rp3931
ag2
(g22
S'\xe0\xc6\x06\xe4\xfe\xcd\xd9?'
p3932
tp3933
Rp3934
ag2
(g22
S'd@\xf6z\xf7\xdee@'
p3935
tp3936
Rp3937
ag2
(g22
S'\xb0rh\x91\xed|\xcf?'
p3938
tp3939
Rp3940
ag2
(g22
S'\xcf\xf7S\xe3\xa5[e@'
p3941
tp3942
Rp3943
aF0.527
aF0.73
aF0.235
aF0.0112
aF-15.276
aF0.0355
aF87.226
aF0.624
aa(lp3944
g2
(g3
(S'S11'
p3945
I0
I1
tp3946
Rp3947
(I3
S'|'
p3948
NNNI11
I1
I0
tp3949
bS'Ville Eyolf'
p3950
tp3951
Rp3952
ag2
(g3
(S'S13'
p3953
I0
I1
tp3954
Rp3955
(I3
S'|'
p3956
NNNI13
I1
I0
tp3957
bS'Black Debbath'
p3958
tp3959
Rp3960
ag2
(g22
S'\xe3\xa7\xd6\xe7\xe7\xbe\xde?'
p3961
tp3962
Rp3963
ag2
(g22
S'\x83|v\x80\xdb\x1b\xd9?'
p3964
tp3965
Rp3966
ag2
(g22
S'\x01\xc1\x1c=~Cq@'
p3967
tp3968
Rp3969
ag2
(g22
S'\x00\x00\x00\x00\x00\x00\x00\x00'
p3970
tp3971
Rp3972
ag2
(g22
S'R\xb8\x1e\x85\xebkp@'
p3973
tp3974
Rp3975
aF0.00469
aF0.294
aF0.677
aI0
aF-5.123
aF0.0369
aF168.13
aF0.326
aa(lp3976
g2
(g3
(S'S23'
p3977
I0
I1
tp3978
Rp3979
(I3
S'|'
p3980
NNNI23
I1
I0
tp3981
bS'Grace And Mercy Part II'
p3982
tp3983
Rp3984
ag2
(g3
(S'S15'
p3985
I0
I1
tp3986
Rp3987
(I3
S'|'
p3988
NNNI15
I1
I0
tp3989
bS'Dorothy Norwood'
p3990
tp3991
Rp3992
ag2
(g22
S'k8\x82\x05$\xc5\xda?'
p3993
tp3994
Rp3995
ag2
(g22
S'\xa8:\xd0\xf3\x8a\x80\xd4?'
p3996
tp3997
Rp3998
ag2
(g22
S'\xb52\xe1\x97\xfa\xc7o@'
p3999
tp4000
Rp4001
ag2
(g22
S'\x1b/\xdd$\x06\x81\x01@'
p4002
tp4003
Rp4004
ag2
(g22
S"'1\x08\xac\x1c\xf2m@"
p4005
tp4006
Rp4007
aF0.577
aF0.487
aF0.601
aF1.66e-06
aF-9.25
aF0.155
aF100.548
aF0.559
aa(lp4008
g2
(g3
(S'S13'
p4009
I0
I1
tp4010
Rp4011
(I3
S'|'
p4012
NNNI13
I1
I0
tp4013
bS'Itchycoo Park'
p4014
tp4015
Rp4016
ag2
(g3
(S'S11'
p4017
I0
I1
tp4018
Rp4019
(I3
S'|'
p4020
NNNI11
I1
I0
tp4021
bS'Small Faces'
p4022
tp4023
Rp4024
ag2
(g22
S'\\\x85\x90N\xb2\xa1\xe2?'
p4025
tp4026
Rp4027
ag2
(g22
S'K\x13\x1e\x03G\xbd\xdc?'
p4028
tp4029
Rp4030
ag2
(g22
S'\xf0P\x14\xe8\x13\x97e@'
p4031
tp4032
Rp4033
ag2
(g22
S'\xcf\xf7S\xe3\xa5\x9b\xd4?'
p4034
tp4035
Rp4036
ag2
(g22
S'\x89A`\xe5\xd0nd@'
p4037
tp4038
Rp4039
aF0.596
aF0.645
aF0.554
aF3.6e-06
aF-9.812
aF0.0778
aF127.235
aF0.533
aa(lp4040
g2
(g3
(S'S4'
p4041
I0
I1
tp4042
Rp4043
(I3
S'|'
p4044
NNNI4
I1
I0
tp4045
bS'Life'
p4046
tp4047
Rp4048
ag2
(g3
(S'S9'
p4049
I0
I1
tp4050
Rp4051
(I3
S'|'
p4052
NNNI9
I1
I0
tp4053
bS'Vinylbase'
p4054
tp4055
Rp4056
ag2
(g22
S'4\x99\xeeU\xbfT\xdb?'
p4057
tp4058
Rp4059
ag2
(g22
S'\xac\xee\xf5M\x9b\xbe\xc3?'
p4060
tp4061
Rp4062
ag2
(g22
S'k\xd4C4\xba\x9cv@'
p4063
tp4064
Rp4065
ag2
(g22
S'!\xb0rh\x91\xed\xbc?'
p4066
tp4067
Rp4068
ag2
(g22
S'-\xb2\x9d\xef\xa7:v@'
p4069
tp4070
Rp4071
aF0.00155
aF0.702
aF0.994
aF0.0182
aF-6.067
aF0.0839
aF139.964
aF0.406
aa(lp4072
g2
(g3
(S'S14'
p4073
I0
I1
tp4074
Rp4075
(I3
S'|'
p4076
NNNI14
I1
I0
tp4077
bS'Blueberry Hill'
p4078
tp4079
Rp4080
ag2
(g3
(S'S10'
p4081
I0
I1
tp4082
Rp4083
(I3
S'|'
p4084
NNNI10
I1
I0
tp4085
bS'Gene Autry'
p4086
tp4087
Rp4088
ag2
(g22
S'8\xab\xa8I;\xad\xe2?'
p4089
tp4090
Rp4091
ag2
(g22
S'\x13\x0e\xc6\xb0\xa2\x88\xda?'
p4092
tp4093
Rp4094
ag2
(g22
S'\xb9p $\x0bqc@'
p4095
tp4096
Rp4097
ag2
(g22
S'\x00\x00\x00\x00\x00\x00\x00\x00'
p4098
tp4099
Rp4100
ag2
(g22
S'\xfc\xa9\xf1\xd2M\xa2b@'
p4101
tp4102
Rp4103
aF0.952
aF0.413
aF0.185
aF0.00124
aF-16.142
aF0.0313
aF105.974
aF0.429
aa(lp4104
g2
(g3
(S'S16'
p4105
I0
I1
tp4106
Rp4107
(I3
S'|'
p4108
NNNI16
I1
I0
tp4109
bS'Please Belive It'
p4110
tp4111
Rp4112
ag2
(g3
(S'S7'
p4113
I0
I1
tp4114
Rp4115
(I3
S'|'
p4116
NNNI7
I1
I0
tp4117
bS"Mr. De'"
p4118
tp4119
Rp4120
ag2
(g22
S'\x1b=\x9ak\x06h\xdc?'
p4121
tp4122
Rp4123
ag2
(g22
S'\xd0^\xf20\x95C\xd1?'
p4124
tp4125
Rp4126
ag2
(g22
S'\x9e\xef\xa7\xc6\xcb\xe8t@'
p4127
tp4128
Rp4129
ag2
(g22
S'#\xdb\xf9~j\xbc\xf6?'
p4130
tp4131
Rp4132
ag2
(g22
S'\x1f\x85\xebQ\xb8Pt@'
p4133
tp4134
Rp4135
aF0.0407
aF0.74
aF0.582
aF0.444
aF-8.612
aF0.0374
aF112.95
aF0.713
aa(lp4136
g2
(g3
(S'S33'
p4137
I0
I1
tp4138
Rp4139
(I3
S'|'
p4140
NNNI33
I1
I0
tp4141
bS'I Walked Today Where Jesus Walked'
p4142
tp4143
Rp4144
ag2
(g3
(S'S21'
p4145
I0
I1
tp4146
Rp4147
(I3
S'|'
p4148
NNNI21
I1
I0
tp4149
bS'Bill & Gloria Gaither'
p4150
tp4151
Rp4152
ag2
(g22
S'}N\xe0\x13\x0cR\xdb?'
p4153
tp4154
Rp4155
ag2
(g22
S'\x81JH\xdc\xd7T\xd5?'
p4156
tp4157
Rp4158
ag2
(g22
S'@\x87\xf9\xf2\x02!r@'
p4159
tp4160
Rp4161
ag2
(g22
S'T\xe3\xa5\x9b\xc4 \xd8?'
p4162
tp4163
Rp4164
ag2
(g22
S'\xbe\x9f\x1a/\xdd\x94q@'
p4165
tp4166
Rp4167
aF0.457
aF0.479
aF0.416
aF1.72e-05
aF-11.451
aF0.124
aF79.593
aF0.514
aa(lp4168
g2
(g3
(S'S8'
p4169
I0
I1
tp4170
Rp4171
(I3
S'|'
p4172
NNNI8
I1
I0
tp4173
bS'Con Alma'
p4174
tp4175
Rp4176
ag2
(g3
(S'S10'
p4177
I0
I1
tp4178
Rp4179
(I3
S'|'
p4180
NNNI10
I1
I0
tp4181
bS'The Fureys'
p4182
tp4183
Rp4184
ag2
(g22
S'\x9fl\xd14^\xd8\xdd?'
p4185
tp4186
Rp4187
ag2
(g22
S'\xd6<\x07\xb1\xc5K\xd5?'
p4188
tp4189
Rp4190
ag2
(g22
S'\xb1\xa2\x06\xd3\xb0\xe1x@'
p4191
tp4192
Rp4193
ag2
(g22
S'J\x0c\x02+\x87\x16\xd9?'
p4194
tp4195
Rp4196
ag2
(g22
S'o\x12\x83\xc0\xcaWw@'
p4197
tp4198
Rp4199
aF0.702
aF0.71
aF0.423
aF0.782
aF-13.369
aF0.0348
aF119.926
aF0.328
aa(lp4200
g2
(g3
(S'S14'
p4201
I0
I1
tp4202
Rp4203
(I3
S'|'
p4204
NNNI14
I1
I0
tp4205
bS'Spanish Grease'
p4206
tp4207
Rp4208
ag2
(g3
(S'S13'
p4209
I0
I1
tp4210
Rp4211
(I3
S'|'
p4212
NNNI13
I1
I0
tp4213
bS'Nestor Torres'
p4214
tp4215
Rp4216
ag2
(g22
S'\xba\x8e\xa6\x97U\x19\xdf?'
p4217
tp4218
Rp4219
ag2
(g22
S'\xd9\xbe\xff\xde\x1c\x9a\xd6?'
p4220
tp4221
Rp4222
ag2
(g22
S'\x81\x95C\x8bl/i@'
p4223
tp4224
Rp4225
ag2
(g22
S'\x8bl\xe7\xfb\xa9\xf1\xe6?'
p4226
tp4227
Rp4228
ag2
(g22
S'\x81\x95C\x8bl/i@'
p4229
tp4230
Rp4231
aF0.633
aF0.949
aF0.76
aF0.702
aF-3.876
aF0.0389
aF123.034
aF0.946
aa(lp4232
g2
(g3
(S'S25'
p4233
I0
I1
tp4234
Rp4235
(I3
S'|'
p4236
NNNI25
I1
I0
tp4237
bS'Queen Street Rag (144826)'
p4238
tp4239
Rp4240
ag2
(g3
(S'S26'
p4241
I0
I1
tp4242
Rp4243
(I3
S'|'
p4244
NNNI26
I1
I0
tp4245
bS'Birmingham Jubilee Singers'
p4246
tp4247
Rp4248
ag2
(g22
S'\x1e\x7f\xe8J\xdb\xa7\xd5?'
p4249
tp4250
Rp4251
ag2
(g22
S'\x00\x00\x00\x00\x00\x00\x00\x00'
p4252
tp4253
Rp4254
ag2
(g22
S'\xd0D\xd8\xf0\xf4\x8ag@'
p4255
tp4256
Rp4257
ag2
(g22
S'\xa4p=\n\xd7\xa3\xe0?'
p4258
tp4259
Rp4260
ag2
(g22
S'!\xb0rh\x91\x95f@'
p4261
tp4262
Rp4263
aF0.981
aF0.649
aF0.629
aI0
aF-9.66
aF0.172
aF109.208
aF0.594
aa(lp4264
g2
(g3
(S'S18'
p4265
I0
I1
tp4266
Rp4267
(I3
S'|'
p4268
NNNI18
I1
I0
tp4269
bS'Song Of The Valley'
p4270
tp4271
Rp4272
ag2
(g3
(S'S9'
p4273
I0
I1
tp4274
Rp4275
(I3
S'|'
p4276
NNNI9
I1
I0
tp4277
bS'John Cale'
p4278
tp4279
Rp4280
ag2
(g22
S'!\x15.Si\xfa\xe7?'
p4281
tp4282
Rp4283
ag2
(g22
S'9>?\x1cs\xd3\xde?'
p4284
tp4285
Rp4286
ag2
(g22
S'\x03[%X\x9c3s@'
p4287
tp4288
Rp4289
ag2
(g22
S'\xcd\xcc\xcc\xcc\xcc\xcc\xdc?'
p4290
tp4291
Rp4292
ag2
(g22
S'J\x0c\x02+\x870r@'
p4293
tp4294
Rp4295
aF0.525
aF0.805
aF0.463
aF0.201
aF-14.574
aF0.0488
aF134.145
aF0.497
aa(lp4296
g2
(g3
(S'S7'
p4297
I0
I1
tp4298
Rp4299
(I3
S'|'
p4300
NNNI7
I1
I0
tp4301
bS'Estudio'
p4302
tp4303
Rp4304
ag2
(g3
(S'S17'
p4305
I0
I1
tp4306
Rp4307
(I3
S'|'
p4308
NNNI17
I1
I0
tp4309
bS'Eduardo Fernandez'
p4310
tp4311
Rp4312
ag2
(g22
S'\xa7>GbW\xa5\xdb?'
p4313
tp4314
Rp4315
ag2
(g22
S'\x92\x08$v\xa7\xde\xd5?'
p4316
tp4317
Rp4318
ag2
(g22
S'\x9a\xb1h:;9^@'
p4319
tp4320
Rp4321
ag2
(g22
S'\x00\x00\x00\x00\x00\x00\x00\x00'
p4322
tp4323
Rp4324
ag2
(g22
S'\xd3Mb\x10X\xa1\\@'
p4325
tp4326
Rp4327
aF0.955
aF0.494
aF0.169
aF0.89
aF-24.997
aF0.0409
aF103.471
aF0.523
aa(lp4328
g2
(g3
(S'S7'
p4329
I0
I1
tp4330
Rp4331
(I3
S'|'
p4332
NNNI7
I1
I0
tp4333
bS'Orgullo'
p4334
tp4335
Rp4336
ag2
(g3
(S'S10'
p4337
I0
I1
tp4338
Rp4339
(I3
S'|'
p4340
NNNI10
I1
I0
tp4341
bS'Los Cisnes'
p4342
tp4343
Rp4344
ag2
(g22
S'\x01T/\x87\x8c\x00\xe4?'
p4345
tp4346
Rp4347
ag2
(g22
S'\xf1[*\xe5\x98\xab\xd9?'
p4348
tp4349
Rp4350
ag2
(g22
S'\xf3\xc8\x1f\x0c<\xd7f@'
p4351
tp4352
Rp4353
ag2
(g22
S'P\x8d\x97n\x12\x83\xd0?'
p4354
tp4355
Rp4356
ag2
(g22
S'b\x10X9\xb48f@'
p4357
tp4358
Rp4359
aF0.704
aF0.692
aF0.425
aF6.08e-05
aF-12.511
aF0.0372
aF101.312
aF0.625
aa(lp4360
g2
(g3
(S'S22'
p4361
I0
I1
tp4362
Rp4363
(I3
S'|'
p4364
NNNI22
I1
I0
tp4365
bS'You Gave Me A Mountain'
p4366
tp4367
Rp4368
ag2
(g3
(S'S15'
p4369
I0
I1
tp4370
Rp4371
(I3
S'|'
p4372
NNNI15
I1
I0
tp4373
bS'The Jordanaires'
p4374
tp4375
Rp4376
ag2
(g22
S'A\x80\xf1(\xbdw\xd8?'
p4377
tp4378
Rp4379
ag2
(g22
S'X\xd2\x06\xbb\xe3%\xd2?'
p4380
tp4381
Rp4382
ag2
(g22
S'\xdch\x00o\x81\xebm@'
p4383
tp4384
Rp4385
ag2
(g22
S'\x00\x00\x00\x00\x00\x00\x00\x00'
p4386
tp4387
Rp4388
ag2
(g22
S'b\x10X9\xb4@m@'
p4389
tp4390
Rp4391
aF0.764
aF0.486
aF0.239
aF0.0586
aF-18.393
aF0.0277
aF95.57
aF0.266
aa(lp4392
g2
(g3
(S'S17'
p4393
I0
I1
tp4394
Rp4395
(I3
S'|'
p4396
NNNI17
I1
I0
tp4397
bS'Shadow After Dark'
p4398
tp4399
Rp4400
ag2
(g3
(S'S11'
p4401
I0
I1
tp4402
Rp4403
(I3
S'|'
p4404
NNNI11
I1
I0
tp4405
bS'Ana Popovic'
p4406
tp4407
Rp4408
ag2
(g22
S'\x1ew\xad+I\xe4\xe3?'
p4409
tp4410
Rp4411
ag2
(g22
S'\xd08.\x99\x90\xb3\xdc?'
p4412
tp4413
Rp4414
ag2
(g22
S'\xc8$#ga}p@'
p4415
tp4416
Rp4417
ag2
(g22
S'\x89A`\xe5\xd0"\xcb?'
p4418
tp4419
Rp4420
ag2
(g22
S'H\xe1z\x14\xae#o@'
p4421
tp4422
Rp4423
aF0.0116
aF0.269
aF0.781
aF3.36e-05
aF-4.29
aF0.132
aF59.737
aF0.502
aa(lp4424
g2
(g3
(S'S47'
p4425
I0
I1
tp4426
Rp4427
(I3
S'|'
p4428
NNNI47
I1
I0
tp4429
bS'Xtra Thump (Featuring Tash from Tha Alkaholiks)'
p4430
tp4431
Rp4432
ag2
(g3
(S'S6'
p4433
I0
I1
tp4434
Rp4435
(I3
S'|'
p4436
NNNI6
I1
I0
tp4437
bS'Defari'
p4438
tp4439
Rp4440
ag2
(g22
S'*:\xed\x19\xd8\x13\xe3?'
p4441
tp4442
Rp4443
ag2
(g22
S'\x16j\xa3\xec\xdd\xba\xd6?'
p4444
tp4445
Rp4446
ag2
(g22
S'E\xf5\xd6\xc0VWf@'
p4447
tp4448
Rp4449
ag2
(g22
S'\xfa~j\xbct\x93\xb8?'
p4450
tp4451
Rp4452
ag2
(g22
S'\x17\xd9\xce\xf7SWf@'
p4453
tp4454
Rp4455
aF0.113
aF0.762
aF0.71
aI0
aF-4.704
aF0.363
aF97.109
aF0.88
aa(lp4456
g2
(g3
(S'S14'
p4457
I0
I1
tp4458
Rp4459
(I3
S'|'
p4460
NNNI14
I1
I0
tp4461
bS'Cellular Phone'
p4462
tp4463
Rp4464
ag2
(g3
(S'S13'
p4465
I0
I1
tp4466
Rp4467
(I3
S'|'
p4468
NNNI13
I1
I0
tp4469
bS'Bounty Killer'
p4470
tp4471
Rp4472
ag2
(g22
S'3H)\xfai/\xe6?'
p4473
tp4474
Rp4475
ag2
(g22
S'\x00\xc5\xbb\xc5h+\xd9?'
p4476
tp4477
Rp4478
ag2
(g22
S'\xc3\xbb\\\xc4w\xa9i@'
p4479
tp4480
Rp4481
ag2
(g22
S'/\xdd$\x06\x81\x95\xe7?'
p4482
tp4483
Rp4484
ag2
(g22
S'\xa6\x9b\xc4 \xb02i@'
p4485
tp4486
Rp4487
aF0.4
aF0.74
aF0.41
aF1.23e-05
aF-10.718
aF0.269
aF80.036
aF0.65
aa(lp4488
g2
(g3
(S'S10'
p4489
I0
I1
tp4490
Rp4491
(I3
S'|'
p4492
NNNI10
I1
I0
tp4493
bS'Limbo Rock'
p4494
tp4495
Rp4496
ag2
(g3
(S'S17'
p4497
I0
I1
tp4498
Rp4499
(I3
S'|'
p4500
NNNI17
I1
I0
tp4501
bS'Dora The Explorer'
p4502
tp4503
Rp4504
ag2
(g22
S'\xb9S\xdc\x82\x15v\xe0?'
p4505
tp4506
Rp4507
ag2
(g22
S'\xf2\x93\x97e\x01{\xda?'
p4508
tp4509
Rp4510
ag2
(g22
S'\x9a%\x01jj\xe9c@'
p4511
tp4512
Rp4513
ag2
(g22
S'\x89A`\xe5\xd0"\xcb?'
p4514
tp4515
Rp4516
ag2
(g22
S'fffffZc@'
p4517
tp4518
Rp4519
aF0.21
aF0.855
aF0.893
aI0
aF-5.162
aF0.146
aF104.958
aF0.904
aa(lp4520
g2
(g3
(S'S53'
p4521
I0
I1
tp4522
Rp4523
(I3
S'|'
p4524
NNNI53
I1
I0
tp4525
bS'I Never Shall Forget That Day (Reunion Album Version)'
p4526
tp4527
Rp4528
ag2
(g3
(S'S21'
p4529
I0
I1
tp4530
Rp4531
(I3
S'|'
p4532
NNNI21
I1
I0
tp4533
bS'Bill & Gloria Gaither'
p4534
tp4535
Rp4536
ag2
(g22
S'}N\xe0\x13\x0cR\xdb?'
p4537
tp4538
Rp4539
ag2
(g22
S'\x81JH\xdc\xd7T\xd5?'
p4540
tp4541
Rp4542
ag2
(g22
S'U\xf6]\x11\xfcxm@'
p4543
tp4544
Rp4545
ag2
(g22
S'\x9a\x99\x99\x99\x99\x99\xc9?'
p4546
tp4547
Rp4548
ag2
(g22
S'1\x08\xac\x1cZPl@'
p4549
tp4550
Rp4551
aF0.457
aF0.479
aF0.416
aF1.72e-05
aF-11.451
aF0.124
aF79.593
aF0.514
aa(lp4552
g2
(g3
(S'S9'
p4553
I0
I1
tp4554
Rp4555
(I3
S'|'
p4556
NNNI9
I1
I0
tp4557
bS'Bald Head'
p4558
tp4559
Rp4560
ag2
(g3
(S'S18'
p4561
I0
I1
tp4562
Rp4563
(I3
S'|'
p4564
NNNI18
I1
I0
tp4565
bS'Professor Longhair'
p4566
tp4567
Rp4568
ag2
(g22
S'b\xc0|\x03\xa1\x93\xe3?'
p4569
tp4570
Rp4571
ag2
(g22
S'\x0e\xf5*vD\xbb\xd9?'
p4572
tp4573
Rp4574
ag2
(g22
S'\xd9\xb1\x11\x88\xd7/c@'
p4575
tp4576
Rp4577
ag2
(g22
S'\x85\xebQ\xb8\x1e\x85\xd3?'
p4578
tp4579
Rp4580
ag2
(g22
S'-\xb2\x9d\xef\xa7~b@'
p4581
tp4582
Rp4583
aF0.671
aF0.562
aF0.602
aI0
aF-8.395
aF0.0475
aF78.582
aF0.961
aa(lp4584
g2
(g3
(S'S27'
p4585
I0
I1
tp4586
Rp4587
(I3
S'|'
p4588
NNNI27
I1
I0
tp4589
bS'Some Guys Have All The Luck'
p4590
tp4591
Rp4592
ag2
(g3
(S'S13'
p4593
I0
I1
tp4594
Rp4595
(I3
S'|'
p4596
NNNI13
I1
I0
tp4597
bS'Robert Palmer'
p4598
tp4599
Rp4600
ag2
(g22
S'>\x1a\x07\x95\x99-\xe8?'
p4601
tp4602
Rp4603
ag2
(g22
S'\x07\x17\xa2\xe1:\xb5\xdd?'
p4604
tp4605
Rp4606
ag2
(g22
S'\xab&\x88\xba\x0f\x0bg@'
p4607
tp4608
Rp4609
ag2
(g22
S'\x00\x00\x00\x00\x00\x00\x00\x00'
p4610
tp4611
Rp4612
ag2
(g22
S'P\x8d\x97n\x12\x0bg@'
p4613
tp4614
Rp4615
aF0.021
aF0.707
aF0.897
aF0.000379
aF-7.13
aF0.0481
aF129.401
aF0.906
aa(lp4616
g2
(g3
(S'S26'
p4617
I0
I1
tp4618
Rp4619
(I3
S'|'
p4620
NNNI26
I1
I0
tp4621
bS'Why Did You All Lie to Me?'
p4622
tp4623
Rp4624
ag2
(g3
(S'S16'
p4625
I0
I1
tp4626
Rp4627
(I3
S'|'
p4628
NNNI16
I1
I0
tp4629
bS'Dario Marianelli'
p4630
tp4631
Rp4632
ag2
(g22
S'\x0eb\x985\x81\xa1\xe3?'
p4633
tp4634
Rp4635
ag2
(g22
S'N\xfe\x11\xea\x19`\xda?'
p4636
tp4637
Rp4638
ag2
(g22
S'\xf0\x8a\xe0\x7f+op@'
p4639
tp4640
Rp4641
ag2
(g22
S'\xc3\xf5(\\\x8f\xc2\xe1?'
p4642
tp4643
Rp4644
ag2
(g22
S'F\xb6\xf3\xfd\xd4`n@'
p4645
tp4646
Rp4647
aF0.938
aF0.131
aF0.0541
aF0.933
aF-24.079
aF0.0389
aF98.316
aF0.0357
aa(lp4648
g2
(g3
(S'S5'
p4649
I0
I1
tp4650
Rp4651
(I3
S'|'
p4652
NNNI5
I1
I0
tp4653
bS'Heft*'
p4654
tp4655
Rp4656
ag2
(g3
(S'S7'
p4657
I0
I1
tp4658
Rp4659
(I3
S'|'
p4660
NNNI7
I1
I0
tp4661
bS'Fastway'
p4662
tp4663
Rp4664
ag2
(g22
S'M\xb6I5h4\xe2?'
p4665
tp4666
Rp4667
ag2
(g22
S'\xab\x93H\xfd\xc7\xff\xd7?'
p4668
tp4669
Rp4670
ag2
(g22
S'\x91~\xfb:p\xees@'
p4671
tp4672
Rp4673
ag2
(g22
S'\xb8\x1e\x85\xebQ\xb8\xbe?'
p4674
tp4675
Rp4676
ag2
(g22
S'\xdfO\x8d\x97n\xcar@'
p4677
tp4678
Rp4679
aF0.0117
aF0.341
aF0.732
aF0.077
aF-14.567
aF0.0451
aF134.824
aF0.299
aa(lp4680
g2
(g3
(S'S19'
p4681
I0
I1
tp4682
Rp4683
(I3
S'|'
p4684
NNNI19
I1
I0
tp4685
bS"It's All In My Mind"
p4686
tp4687
Rp4688
ag2
(g3
(S'S15'
p4689
I0
I1
tp4690
Rp4691
(I3
S'|'
p4692
NNNI15
I1
I0
tp4693
bS'Teenage Fanclub'
p4694
tp4695
Rp4696
ag2
(g22
S'\x11!\x85V\xa8\xea\xe5?'
p4697
tp4698
Rp4699
ag2
(g22
S'Yv\xb6\xafl^\xe0?'
p4700
tp4701
Rp4702
ag2
(g22
S'ep\x94\xbc:\xadk@'
p4703
tp4704
Rp4705
ag2
(g22
S'R\xb8\x1e\x85\xebQ\xe0?'
p4706
tp4707
Rp4708
ag2
(g22
S'\x00\x00\x00\x00\x00Xj@'
p4709
tp4710
Rp4711
aF0.0355
aF0.677
aF0.849
aF0.236
aF-7.607
aF0.0302
aF122.07
aF0.925
aa(lp4712
g2
(g3
(S'S11'
p4713
I0
I1
tp4714
Rp4715
(I3
S'|'
p4716
NNNI11
I1
I0
tp4717
bS'14 Botellas'
p4718
tp4719
Rp4720
ag2
(g3
(S'S9'
p4721
I0
I1
tp4722
Rp4723
(I3
S'|'
p4724
NNNI9
I1
I0
tp4725
bS'2 Minutos'
p4726
tp4727
Rp4728
ag2
(g22
S'\xe4\x82\x1e\xa0g\xf0\xe2?'
p4729
tp4730
Rp4731
ag2
(g22
S'O\xf2H\xf7n\xd6\xd7?'
p4732
tp4733
Rp4734
ag2
(g22
S'/i\x8c\xd6Q)J@'
p4735
tp4736
Rp4737
ag2
(g22
S'\x00\x00\x00\x00\x00\x00\x00\x00'
p4738
tp4739
Rp4740
ag2
(g22
S'\xd3Mb\x10X)J@'
p4741
tp4742
Rp4743
aF2.94e-06
aF0.272
aF0.977
aF0.425
aF-5.769
aF0.0758
aF113.508
aF0.674
aa(lp4744
g2
(g3
(S'S7'
p4745
I0
I1
tp4746
Rp4747
(I3
S'|'
p4748
NNNI7
I1
I0
tp4749
bS'Move On'
p4750
tp4751
Rp4752
ag2
(g3
(S'S12'
p4753
I0
I1
tp4754
Rp4755
(I3
S'|'
p4756
NNNI12
I1
I0
tp4757
bS'Paul Stanley'
p4758
tp4759
Rp4760
ag2
(g22
S'\xe2vp\xbe\x06\xd4\xe2?'
p4761
tp4762
Rp4763
ag2
(g22
S'\x9ar\xae\x0c\xf8a\xd8?'
p4764
tp4765
Rp4766
ag2
(g22
S'\x8f\xc7\x0cT\xc6\xf1g@'
p4767
tp4768
Rp4769
ag2
(g22
S'\x00\x00\x00\x00\x00\x00\x00\x00'
p4770
tp4771
Rp4772
ag2
(g22
S')\\\x8f\xc2\xf5<g@'
p4773
tp4774
Rp4775
aF0.312
aF0.481
aF0.843
aF4.93e-06
aF-5.888
aF0.0802
aF140.099
aF0.764
aa(lp4776
g2
(g3
(S'S9'
p4777
I0
I1
tp4778
Rp4779
(I3
S'|'
p4780
NNNI9
I1
I0
tp4781
bS'Only Love'
p4782
tp4783
Rp4784
ag2
(g3
(S'S23'
p4785
I0
I1
tp4786
Rp4787
(I3
S'|'
p4788
NNNI23
I1
I0
tp4789
bS'Daryl Hall & John Oates'
p4790
tp4791
Rp4792
ag2
(g22
S'\x94[\xe0t\x0fG\xe5?'
p4793
tp4794
Rp4795
ag2
(g22
S'\xc0k\xc3l\xb5\xc4\xdf?'
p4796
tp4797
Rp4798
ag2
(g22
S'\xed\r\xbe0\x99Jq@'
p4799
tp4800
Rp4801
ag2
(g22
S'\x93\x18\x04V\x0e-\xda?'
p4802
tp4803
Rp4804
ag2
(g22
S'\xfc\xa9\xf1\xd2M\xa4p@'
p4805
tp4806
Rp4807
aF0.5
aF0.597
aF0.643
aI0
aF-6.303
aF0.134
aF167.963
aF0.823
aa(lp4808
g2
(g3
(S'S13'
p4809
I0
I1
tp4810
Rp4811
(I3
S'|'
p4812
NNNI13
I1
I0
tp4813
bS"Romeo's Exile"
p4814
tp4815
Rp4816
ag2
(g3
(S'S12'
p4817
I0
I1
tp4818
Rp4819
(I3
S'|'
p4820
NNNI12
I1
I0
tp4821
bS"Liam O'Flynn"
p4822
tp4823
Rp4824
ag2
(g22
S'\\\x8f\x0c\xee\xddm\xdc?'
p4825
tp4826
Rp4827
ag2
(g22
S'\xa1\x0b\nG\x04!\xd5?'
p4828
tp4829
Rp4830
ag2
(g22
S'\xb4q\xc4Z|Cm@'
p4831
tp4832
Rp4833
ag2
(g22
S'\x8d\x97n\x12\x83\xc0\xd2?'
p4834
tp4835
Rp4836
ag2
(g22
S'\x85\xebQ\xb8\x1e9l@'
p4837
tp4838
Rp4839
aF0.754
aF0.128
aF0.182
aF0.65
aF-13.356
aF0.0323
aI48
aF0.0725
aa(lp4840
g2
(g3
(S'S8'
p4841
I0
I1
tp4842
Rp4843
(I3
S'|'
p4844
NNNI8
I1
I0
tp4845
bS'Times Up'
p4846
tp4847
Rp4848
ag2
(g3
(S'S8'
p4849
I0
I1
tp4850
Rp4851
(I3
S'|'
p4852
NNNI8
I1
I0
tp4853
bS'DJ Spinn'
p4854
tp4855
Rp4856
ag2
(g22
S'\x84\x9e\xe0\xe2k}\xe0?'
p4857
tp4858
Rp4859
ag2
(g22
S'Q\x07`\xf8\xe4\xb0\xd0?'
p4860
tp4861
Rp4862
ag2
(g22
S'A\xd4}\x00R6h@'
p4863
tp4864
Rp4865
ag2
(g22
S'\x08\xac\x1cZd;\xaf?'
p4866
tp4867
Rp4868
ag2
(g22
S'\x81\x95C\x8bl\x97g@'
p4869
tp4870
Rp4871
aF0.00206
aF0.665
aF0.324
aF0.717
aF-12.798
aF0.136
aF159.915
aF0.496
aa(lp4872
g2
(g3
(S'S21'
p4873
I0
I1
tp4874
Rp4875
(I3
S'|'
p4876
NNNI21
I1
I0
tp4877
bS'Lake Charles Two-Step'
p4878
tp4879
Rp4880
ag2
(g3
(S'S30'
p4881
I0
I1
tp4882
Rp4883
(I3
S'|'
p4884
NNNI30
I1
I0
tp4885
bS'The California Cajun Orchestra'
p4886
tp4887
Rp4888
ag2
(g22
S'\xdc@\xb0\x1bwZ\xd3?'
p4889
tp4890
Rp4891
ag2
(g22
S'U\xdek\xb6\xa3\x17\xd1?'
p4892
tp4893
Rp4894
ag2
(g22
S'\xab\xe7\xa4\xf7\x8d\x8fe@'
p4895
tp4896
Rp4897
ag2
(g22
S'\x0e-\xb2\x9d\xef\xa7\xe2?'
p4898
tp4899
Rp4900
ag2
(g22
S'P\x8d\x97n\x12sd@'
p4901
tp4902
Rp4903
aF0.743
aF0.542
aF0.695
aF0.906
aF-11.965
aF0.0462
aF202.334
aF0.97
aa(lp4904
g2
(g3
(S'S34'
p4905
I0
I1
tp4906
Rp4907
(I3
S'|'
p4908
NNNI34
I1
I0
tp4909
bS"What's Gonna Happen On the 8th Day"
p4910
tp4911
Rp4912
ag2
(g3
(S'S21'
p4913
I0
I1
tp4914
Rp4915
(I3
S'|'
p4916
NNNI21
I1
I0
tp4917
bS"Screamin' Jay Hawkins"
p4918
tp4919
Rp4920
ag2
(g22
S'\x94p\x96\xb2\x14\x06\xe7?'
p4921
tp4922
Rp4923
ag2
(g22
S'*\xb3\xc0\x99\x97\xec\xdd?'
p4924
tp4925
Rp4926
ag2
(g22
S'\x0cY\xdd\xea9\xd2r@'
p4927
tp4928
Rp4929
ag2
(g22
S'\x00\x00\x00\x00\x00\x00\x00\x00'
p4930
tp4931
Rp4932
ag2
(g22
S'\xc3\xf5(\\\x8f>r@'
p4933
tp4934
Rp4935
aF0.811
aF0.573
aF0.478
aF2.75e-05
aF-12.81
aF0.0741
aF115.321
aF0.534
aa(lp4936
g2
(g3
(S'S8'
p4937
I0
I1
tp4938
Rp4939
(I3
S'|'
p4940
NNNI8
I1
I0
tp4941
bS'Assassin'
p4942
tp4943
Rp4944
ag2
(g3
(S'S5'
p4945
I0
I1
tp4946
Rp4947
(I3
S'|'
p4948
NNNI5
I1
I0
tp4949
bS'Floor'
p4950
tp4951
Rp4952
ag2
(g22
S"w'\x95-\xb2\xb7\xe0?"
p4953
tp4954
Rp4955
ag2
(g22
S'k\x8d\xaaJ\xd3\xb9\xda?'
p4956
tp4957
Rp4958
ag2
(g22
S'D\x17\xd4\xb7\xccA]@'
p4959
tp4960
Rp4961
ag2
(g22
S'P\x8d\x97n\x12\x83\xd0?'
p4962
tp4963
Rp4964
ag2
(g22
S'\x10X9\xb4\xc8n\\@'
p4965
tp4966
Rp4967
aF7.02e-06
aF0.274
aF0.971
aF0.331
aF-6.983
aF0.111
aF170.807
aF0.535
aa(lp4968
g2
(g3
(S'S12'
p4969
I0
I1
tp4970
Rp4971
(I3
S'|'
p4972
NNNI12
I1
I0
tp4973
bS'Well Oh Well'
p4974
tp4975
Rp4976
ag2
(g3
(S'S13'
p4977
I0
I1
tp4978
Rp4979
(I3
S'|'
p4980
NNNI13
I1
I0
tp4981
bS'Tiny Bradshaw'
p4982
tp4983
Rp4984
ag2
(g22
S'\xbd\xf52\x0fP\xcc\xd9?'
p4985
tp4986
Rp4987
ag2
(g22
S'\xd9\xd0\xe8\xf0<P\xd3?'
p4988
tp4989
Rp4990
ag2
(g22
S'\x11S"\x89^\xdac@'
p4991
tp4992
Rp4993
ag2
(g22
S'\x04V\x0e-\xb2\x9d\xcf?'
p4994
tp4995
Rp4996
ag2
(g22
S'\x04V\x0e-\xb2uc@'
p4997
tp4998
Rp4999
aF0.579
aF0.718
aF0.858
aI0
aF-5.97
aF0.111
aF106.313
aF0.844
aa(lp5000
g2
(g3
(S'S22'
p5001
I0
I1
tp5002
Rp5003
(I3
S'|'
p5004
NNNI22
I1
I0
tp5005
bS'Playstation Generation'
p5006
tp5007
Rp5008
ag2
(g3
(S'S13'
p5009
I0
I1
tp5010
Rp5011
(I3
S'|'
p5012
NNNI13
I1
I0
tp5013
bS'Smut Peddlers'
p5014
tp5015
Rp5016
ag2
(g22
S'\xc9%\xb7e\xcd\xa4\xe3?'
p5017
tp5018
Rp5019
ag2
(g22
S'\xe7\xed%\xaf0\x1b\xd7?'
p5020
tp5021
Rp5022
ag2
(g22
S'L\xe0\xd6\xdd<\xf3d@'
p5023
tp5024
Rp5025
ag2
(g22
S'+\x87\x16\xd9\xce\xf7\xb3?'
p5026
tp5027
Rp5028
ag2
(g22
S'{\x14\xaeG\xe1rd@'
p5029
tp5030
Rp5031
aF0.0014
aF0.444
aF0.974
aI0
aF-5.841
aF0.076
aF116.159
aF0.661
aa(lp5032
g2
(g3
(S'S32'
p5033
I0
I1
tp5034
Rp5035
(I3
S'|'
p5036
NNNI32
I1
I0
tp5037
bS'Get Your Head Stuck On Your Neck'
p5038
tp5039
Rp5040
ag2
(g3
(S'S12'
p5041
I0
I1
tp5042
Rp5043
(I3
S'|'
p5044
NNNI12
I1
I0
tp5045
bS'Soul Mekanik'
p5046
tp5047
Rp5048
ag2
(g22
S'\xc7\xb6\xcb\x80P\\\xdf?'
p5049
tp5050
Rp5051
ag2
(g22
S'r\\%5\x04\x92\xd9?'
p5052
tp5053
Rp5054
ag2
(g22
S'\x83\xfa\x969]\xf1{@'
p5055
tp5056
Rp5057
ag2
(g22
S'\xecQ\xb8\x1e\x85\xeb\xf3?'
p5058
tp5059
Rp5060
ag2
(g22
S'=\n\xd7\xa3p-{@'
p5061
tp5062
Rp5063
aF0.719
aF0.489
aF0.35
aI0
aF-22.481
aF0.65
aF167.652
aF0.377
aa(lp5064
g2
(g3
(S'S13'
p5065
I0
I1
tp5066
Rp5067
(I3
S'|'
p5068
NNNI13
I1
I0
tp5069
bS'Gail Wakes Up'
p5070
tp5071
Rp5072
ag2
(g3
(S'S14'
p5073
I0
I1
tp5074
Rp5075
(I3
S'|'
p5076
NNNI14
I1
I0
tp5077
bS'Michael Whalen'
p5078
tp5079
Rp5080
ag2
(g22
S'\xf0i\xefm\x049\xdd?'
p5081
tp5082
Rp5083
ag2
(g22
S'\x812\x8f!r\x16\xd7?'
p5084
tp5085
Rp5086
ag2
(g22
S'\x85w\xb9\x88\xefRS@'
p5087
tp5088
Rp5089
ag2
(g22
S'\x00\x00\x00\x00\x00\x00\x00\x00'
p5090
tp5091
Rp5092
ag2
(g22
S'm\xe7\xfb\xa9\xf1RS@'
p5093
tp5094
Rp5095
aF0.883
aF0.469
aF0.424
aF0.901
aF-12.165
aF0.039
aF163.099
aF0.0387
aa(lp5096
g2
(g3
(S'S26'
p5097
I0
I1
tp5098
Rp5099
(I3
S'|'
p5100
NNNI26
I1
I0
tp5101
bS'The Preacher & the Funeral'
p5102
tp5103
Rp5104
ag2
(g3
(S'S12'
p5105
I0
I1
tp5106
Rp5107
(I3
S'|'
p5108
NNNI12
I1
I0
tp5109
bS'LaWanda Page'
p5110
tp5111
Rp5112
ag2
(g22
S'?^\x88\xf7\xbff\xd2?'
p5113
tp5114
Rp5115
ag2
(g22
S'b \x9a\x11\xc1\xc9\xc7?'
p5116
tp5117
Rp5118
ag2
(g22
S'\xfd\xd9\x8f\x14\x91xg@'
p5119
tp5120
Rp5121
ag2
(g22
S'\x00\x00\x00\x00\x00\x00\x00\x00'
p5122
tp5123
Rp5124
ag2
(g22
S'\x7fj\xbct\x93xg@'
p5125
tp5126
Rp5127
aF0.924
aF0.652
aF0.466
aI0
aF-11.851
aF0.912
aF115.171
aF0.791
aa(lp5128
g2
(g3
(S'S11'
p5129
I0
I1
tp5130
Rp5131
(I3
S'|'
p5132
NNNI11
I1
I0
tp5133
bS'Blues Again'
p5134
tp5135
Rp5136
ag2
(g3
(S'S10'
p5137
I0
I1
tp5138
Rp5139
(I3
S'|'
p5140
NNNI10
I1
I0
tp5141
bS'Rory Block'
p5142
tp5143
Rp5144
ag2
(g22
S'4Y%\xbfJq\xe0?'
p5145
tp5146
Rp5147
ag2
(g22
S'\x99\x01{h\xbe\xf6\xd5?'
p5148
tp5149
Rp5150
ag2
(g22
S'K\x02\xd4\xd4\xb2\xdd[@'
p5151
tp5152
Rp5153
ag2
(g22
S'y\xe9&1\x08\xac\xcc?'
p5154
tp5155
Rp5156
ag2
(g22
S'w\xbe\x9f\x1a/\xedX@'
p5157
tp5158
Rp5159
aF0.89
aF0.638
aF0.127
aF1.35e-06
aF-15.085
aF0.086
aF172.105
aF0.675
aa(lp5160
g2
(g3
(S'S11'
p5161
I0
I1
tp5162
Rp5163
(I3
S'|'
p5164
NNNI11
I1
I0
tp5165
bS'Memphis Jug'
p5166
tp5167
Rp5168
ag2
(g3
(S'S16'
p5169
I0
I1
tp5170
Rp5171
(I3
S'|'
p5172
NNNI16
I1
I0
tp5173
bS'Memphis Jug Band'
p5174
tp5175
Rp5176
ag2
(g22
S'\x13\xdc\xaf\xc602\xe0?'
p5177
tp5178
Rp5179
ag2
(g22
S'\x01\x19\xc9\rOs\xd6?'
p5180
tp5181
Rp5182
ag2
(g22
S'\xb9p $\x0bqg@'
p5183
tp5184
Rp5185
ag2
(g22
S'{\x14\xaeG\xe1z\xc4?'
p5186
tp5187
Rp5188
ag2
(g22
S'\xe3\xa5\x9b\xc4 \xf4f@'
p5189
tp5190
Rp5191
aF0.818
aF0.661
aF0.528
aF0.501
aF-13.164
aF0.0435
aF120.72
aF0.968
aa(lp5192
g2
(g3
(S'S46'
p5193
I0
I1
tp5194
Rp5195
(I3
S'|'
p5196
NNNI46
I1
I0
tp5197
bS'I Could Use Another You (Digital Re-Recording)'
p5198
tp5199
Rp5200
ag2
(g3
(S'S10'
p5201
I0
I1
tp5202
Rp5203
(I3
S'|'
p5204
NNNI10
I1
I0
tp5205
bS'Eddy Raven'
p5206
tp5207
Rp5208
ag2
(g22
S'\xfa\xbf\xa0\x88w\xc2\xdd?'
p5209
tp5210
Rp5211
ag2
(g22
S'\xa5^\xae"\xe9\x0f\xd6?'
p5212
tp5213
Rp5214
ag2
(g22
S'\x82\xff\xadd\xc7\x94d@'
p5215
tp5216
Rp5217
ag2
(g22
S'\xfa~j\xbct\x93\xd0?'
p5218
tp5219
Rp5220
ag2
(g22
S'\xac\x1cZd;_c@'
p5221
tp5222
Rp5223
aF0.0969
aF0.713
aF0.459
aI0
aF-14.169
aF0.0563
aF118.656
aF0.831
aa(lp5224
g2
(g3
(S'S23'
p5225
I0
I1
tp5226
Rp5227
(I3
S'|'
p5228
NNNI23
I1
I0
tp5229
bS"N'ayez crainte mesdames"
p5230
tp5231
Rp5232
ag2
(g3
(S'S11'
p5233
I0
I1
tp5234
Rp5235
(I3
S'|'
p5236
NNNI11
I1
I0
tp5237
bS'Fred Merpol'
p5238
tp5239
Rp5240
ag2
(g22
S'\x9aT_\x8d\xc5&\xd8?'
p5241
tp5242
Rp5243
ag2
(g22
S'\x00\x00\x00\x00\x00\x00\x00\x00'
p5244
tp5245
Rp5246
ag2
(g22
S'\xb1\xc4\x03\xca\xa6\x91u@'
p5247
tp5248
Rp5249
ag2
(g22
S'\x00\x00\x00\x00\x00\x00\x00\x00'
p5250
tp5251
Rp5252
ag2
(g22
S'\xcf\xf7S\xe3\xa5\x91u@'
p5253
tp5254
Rp5255
aF0.871
aF0.735
aF0.408
aF0.000114
aF-14.265
aF0.161
aF102.205
aF0.482
aa(lp5256
g2
(g3
(S'S5'
p5257
I0
I1
tp5258
Rp5259
(I3
S'|'
p5260
NNNI5
I1
I0
tp5261
bS'Honey'
p5262
tp5263
Rp5264
ag2
(g3
(S'S35'
p5265
I0
I1
tp5266
Rp5267
(I3
S'|'
p5268
NNNI35
I1
I0
tp5269
bS'Mariah Carey Featuring Da Brat & JD'
p5270
tp5271
Rp5272
ag2
(g22
S'4F\xab]\xfd\xea\xed?'
p5273
tp5274
Rp5275
ag2
(g22
S'}c\xb9\x17&/\xe9?'
p5276
tp5277
Rp5278
ag2
(g22
S'\xcb\xa1E\xb6\xf3\xa1s@'
p5279
tp5280
Rp5281
ag2
(g22
S'!\xb0rh\x91\xed\x01@'
p5282
tp5283
Rp5284
ag2
(g22
S'\xf8S\xe3\xa5\x9bFs@'
p5285
tp5286
Rp5287
aF0.0515
aF0.719
aF0.603
aF4.95e-06
aF-10.069
aF0.0824
aF80.928
aF0.748
aa(lp5288
g2
(g3
(S'S9'
p5289
I0
I1
tp5290
Rp5291
(I3
S'|'
p5292
NNNI9
I1
I0
tp5293
bS'Beautiful'
p5294
tp5295
Rp5296
ag2
(g3
(S'S18'
p5297
I0
I1
tp5298
Rp5299
(I3
S'|'
p5300
NNNI18
I1
I0
tp5301
bS'Christina Aguilera'
p5302
tp5303
Rp5304
ag2
(g22
S'qm\x995\x85\x99\xea?'
p5305
tp5306
Rp5307
ag2
(g22
S'\x010\xd8\xd8O9\xe7?'
p5308
tp5309
Rp5310
ag2
(g22
S'4\xba\x83\xd8\x99\x9em@'
p5311
tp5312
Rp5313
ag2
(g22
S'\x91\xed|?5^\xd2?'
p5314
tp5315
Rp5316
ag2
(g22
S'\xaa\xf1\xd2Mbtl@'
p5317
tp5318
Rp5319
aF0.578
aF0.457
aF0.573
aF3.05e-06
aF-3.866
aF0.0275
aF76.193
aF0.0992
aa(lp5320
g2
(g3
(S'S10'
p5321
I0
I1
tp5322
Rp5323
(I3
S'|'
p5324
NNNI10
I1
I0
tp5325
bS'Aftertaste'
p5326
tp5327
Rp5328
ag2
(g3
(S'S4'
p5329
I0
I1
tp5330
Rp5331
(I3
S'|'
p5332
NNNI4
I1
I0
tp5333
bS'X-tv'
p5334
tp5335
Rp5336
ag2
(g22
S'a\x11\xdf\xe8\xc7+\xdc?'
p5337
tp5338
Rp5339
ag2
(g22
S'\xba)z\x88\xbb\x9a\xd3?'
p5340
tp5341
Rp5342
ag2
(g22
S'E\xd8\xf0\xf4\xca\xcct@'
p5343
tp5344
Rp5345
ag2
(g22
S'J\x0c\x02+\x87\x16\xd9?'
p5346
tp5347
Rp5348
ag2
(g22
S'\xf0\xa7\xc6K7\x17t@'
p5349
tp5350
Rp5351
aF0.85
aF0.685
aF0.555
aF3.04e-06
aF-9.68
aF0.0418
aF141.982
aF0.18
aa(lp5352
g2
(g3
(S'S16'
p5353
I0
I1
tp5354
Rp5355
(I3
S'|'
p5356
NNNI16
I1
I0
tp5357
bS'We All Need Love'
p5358
tp5359
Rp5360
ag2
(g3
(S'S11'
p5361
I0
I1
tp5362
Rp5363
(I3
S'|'
p5364
NNNI11
I1
I0
tp5365
bS'Irma Thomas'
p5366
tp5367
Rp5368
ag2
(g22
S'\xea\x83,C]\xf6\xe3?'
p5369
tp5370
Rp5371
ag2
(g22
S'\x11R\xa5*\x16;\xdc?'
p5372
tp5373
Rp5374
ag2
(g22
S'"\xfd\xf6u\xe0\xdcg@'
p5375
tp5376
Rp5377
ag2
(g22
S'\xac\x1cZd;\xdf\xd7?'
p5378
tp5379
Rp5380
ag2
(g22
S'\xcf\xf7S\xe3\xa5\xcbf@'
p5381
tp5382
Rp5383
aF0.633
aF0.694
aF0.326
aI0
aF-10.689
aF0.0446
aF130.897
aF0.259
aa(lp5384
g2
(g3
(S'S29'
p5385
I0
I1
tp5386
Rp5387
(I3
S'|'
p5388
NNNI29
I1
I0
tp5389
bS'What Woman Really Wear To Bed'
p5390
tp5391
Rp5392
ag2
(g3
(S'S12'
p5393
I0
I1
tp5394
Rp5395
(I3
S'|'
p5396
NNNI12
I1
I0
tp5397
bS'Steve Harvey'
p5398
tp5399
Rp5400
ag2
(g22
S'l\x7f\x1e\xc2\xdc.\xe7?'
p5401
tp5402
Rp5403
ag2
(g22
S'F\xf4\xac\x9b\xe6\x92\xd9?'
p5404
tp5405
Rp5406
ag2
(g22
S'\xb9\xfc\x87\xf4[\xc7p@'
p5407
tp5408
Rp5409
ag2
(g22
S'\x00\x00\x00\x00\x00\x00\x00\x00'
p5410
tp5411
Rp5412
ag2
(g22
S'\x9e\xef\xa7\xc6K#p@'
p5413
tp5414
Rp5415
aF0.898
aF0.421
aF0.922
aI0
aF-8.233
aF0.951
aF171.287
aF0.156
aa(lp5416
g2
(g3
(S'S24'
p5417
I0
I1
tp5418
Rp5419
(I3
S'|'
p5420
NNNI24
I1
I0
tp5421
bS'National Fencibles March'
p5422
tp5423
Rp5424
ag2
(g3
(S'S13'
p5425
I0
I1
tp5426
Rp5427
(I3
S'|'
p5428
NNNI13
I1
I0
tp5429
bS'Henry Mancini'
p5430
tp5431
Rp5432
ag2
(g22
S'\xb5\xe0\x90<\xe6@\xe6?'
p5433
tp5434
Rp5435
ag2
(g22
S'\x10\xb2\xef7\xea\xff\xdb?'
p5436
tp5437
Rp5438
ag2
(g22
S'M\xa1\xf3\x1a\xbbwg@'
p5439
tp5440
Rp5441
ag2
(g22
S'\x1f\x85\xebQ\xb8\x1e\xc5?'
p5442
tp5443
Rp5444
ag2
(g22
S'\xb2\x9d\xef\xa7\xc6\xa7f@'
p5445
tp5446
Rp5447
aF0.81
aF0.593
aF0.787
aF0.374
aF-10.851
aF0.0451
aF118.962
aF0.546
aa(lp5448
g2
(g3
(S'S9'
p5449
I0
I1
tp5450
Rp5451
(I3
S'|'
p5452
NNNI9
I1
I0
tp5453
bS'Obsession'
p5454
tp5455
Rp5456
ag2
(g3
(S'S15'
p5457
I0
I1
tp5458
Rp5459
(I3
S'|'
p5460
NNNI15
I1
I0
tp5461
bS'Rainforest Trio'
p5462
tp5463
Rp5464
ag2
(g22
S'\xd3f$ \r\x19\x97?'
p5465
tp5466
Rp5467
ag2
(g22
S'\x00\x00\x00\x00\x00\x00\x00\x00'
p5468
tp5469
Rp5470
ag2
(g22
S'\x05n\xdd\xcdS6r@'
p5471
tp5472
Rp5473
ag2
(g22
S'\xd7\xa3p=\n\xd7\x0c@'
p5474
tp5475
Rp5476
ag2
(g22
S'\xac\x1cZd;\x99q@'
p5477
tp5478
Rp5479
aF0.575
aF0.682
aF0.536
aF0.927
aF-16.783
aF0.0449
aF108.02
aF0.543
aa(lp5480
g2
(g3
(S'S13'
p5481
I0
I1
tp5482
Rp5483
(I3
S'|'
p5484
NNNI13
I1
I0
tp5485
bS'Soy De Oaxaca'
p5486
tp5487
Rp5488
ag2
(g3
(S'S26'
p5489
I0
I1
tp5490
Rp5491
(I3
S'|'
p5492
NNNI26
I1
I0
tp5493
bS'Los Originales De San Juan'
p5494
tp5495
Rp5496
ag2
(g22
S'\xadM\x00Y\xcf\xc3\xe4?'
p5497
tp5498
Rp5499
ag2
(g22
S'v\xf00\x08\xa46\xdc?'
p5500
tp5501
Rp5502
ag2
(g22
S'\xda\xe6\xc6\xf4\x84\xe2h@'
p5503
tp5504
Rp5505
ag2
(g22
S'!\xb0rh\x91\xed\xbc?'
p5506
tp5507
Rp5508
ag2
(g22
S'\xf2\xd2Mb\x10\x0ch@'
p5509
tp5510
Rp5511
aF0.172
aF0.794
aF0.715
aI0
aF-8.687
aF0.155
aF123.518
aF0.847
aa(lp5512
g2
(g3
(S'S23'
p5513
I0
I1
tp5514
Rp5515
(I3
S'|'
p5516
NNNI23
I1
I0
tp5517
bS"Goin' To Hell On A Sled"
p5518
tp5519
Rp5520
ag2
(g3
(S'S18'
p5521
I0
I1
tp5522
Rp5523
(I3
S'|'
p5524
NNNI18
I1
I0
tp5525
bS'John D. Loudermilk'
p5526
tp5527
Rp5528
ag2
(g22
S'k\x866:\xfa\x82\xda?'
p5529
tp5530
Rp5531
ag2
(g22
S'C3\x1bIEd\xd2?'
p5532
tp5533
Rp5534
ag2
(g22
S's\xd7\x12\xf2A\x19_@'
p5535
tp5536
Rp5537
ag2
(g22
S'\x00\x00\x00\x00\x00\x00\x00\x00'
p5538
tp5539
Rp5540
ag2
(g22
S'\xa8\xc6K7\x891\\@'
p5541
tp5542
Rp5543
aF0.565
aF0.569
aF0.801
aI0
aF-7.005
aF0.0738
aF88.427
aF0.856
aa(lp5544
g2
(g3
(S'S28'
p5545
I0
I1
tp5546
Rp5547
(I3
S'|'
p5548
NNNI28
I1
I0
tp5549
bS'The World Turned Upside Down'
p5550
tp5551
Rp5552
ag2
(g3
(S'S8'
p5553
I0
I1
tp5554
Rp5555
(I3
S'|'
p5556
NNNI8
I1
I0
tp5557
bS'Coldplay'
p5558
tp5559
Rp5560
ag2
(g22
S'\xeeG\xc7\x97A\xae\xeb?'
p5561
tp5562
Rp5563
ag2
(g22
S'\xaf\xf6\x1b\xdcNP\xed?'
p5564
tp5565
Rp5566
ag2
(g22
S'V\xf1F\xe6\x91\xd5p@'
p5567
tp5568
Rp5569
ag2
(g22
S'{\x14\xaeG\xe1z\x06@'
p5570
tp5571
Rp5572
ag2
(g22
S'\xc3\xf5(\\\x8f8p@'
p5573
tp5574
Rp5575
aF0.0241
aF0.536
aF0.841
aF0.000259
aF-5.976
aF0.0505
aF136.839
aF0.0753
aa(lp5576
g2
(g3
(S'S31'
p5577
I0
I1
tp5578
Rp5579
(I3
S'|'
p5580
NNNI31
I1
I0
tp5581
bS'I Want To Live (Smash Club Mix)'
p5582
tp5583
Rp5584
ag2
(g3
(S'S8'
p5585
I0
I1
tp5586
Rp5587
(I3
S'|'
p5588
NNNI8
I1
I0
tp5589
bS'Deepface'
p5590
tp5591
Rp5592
ag2
(g22
S'\x96\xaf\xd2\x8d\xc9\xc8\xdf?'
p5593
tp5594
Rp5595
ag2
(g22
S' \x13\x9dd\x85\xc0\xcd?'
p5596
tp5597
Rp5598
ag2
(g22
S'\x08\xc9\x02&\xf0\xaav@'
p5599
tp5600
Rp5601
ag2
(g22
S'\x00\x00\x00\x00\x00\x00\x00\x00'
p5602
tp5603
Rp5604
ag2
(g22
S'\xc3\xf5(\\\x8f\xfau@'
p5605
tp5606
Rp5607
aF0.00108
aF0.632
aF0.944
aI0
aF-4.762
aF0.0443
aF123.972
aF0.58
aa(lp5608
g2
(g3
(S'S16'
p5609
I0
I1
tp5610
Rp5611
(I3
S'|'
p5612
NNNI16
I1
I0
tp5613
bS"Everyone's At It"
p5614
tp5615
Rp5616
ag2
(g3
(S'S10'
p5617
I0
I1
tp5618
Rp5619
(I3
S'|'
p5620
NNNI10
I1
I0
tp5621
bS'Lily Allen'
p5622
tp5623
Rp5624
ag2
(g22
S'_\x7f\xf0]YP\xed?'
p5625
tp5626
Rp5627
ag2
(g22
S'<|\xd9\xc0\x10"\xe1?'
p5628
tp5629
Rp5630
ag2
(g22
S'\xdd\xefP\x14h]q@'
p5631
tp5632
Rp5633
ag2
(g22
S'\x02+\x87\x16\xd9N\x19@'
p5634
tp5635
Rp5636
ag2
(g22
S'H\xe1z\x14\xae\xcfp@'
p5637
tp5638
Rp5639
aF0.0209
aF0.637
aF0.923
aF1.11e-05
aF-6.777
aF0.063
aF117.03
aF0.685
aa(lp5640
g2
(g3
(S'S24'
p5641
I0
I1
tp5642
Rp5643
(I3
S'|'
p5644
NNNI24
I1
I0
tp5645
bS'Slow Ride [Live Version]'
p5646
tp5647
Rp5648
ag2
(g3
(S'S6'
p5649
I0
I1
tp5650
Rp5651
(I3
S'|'
p5652
NNNI6
I1
I0
tp5653
bS'Foghat'
p5654
tp5655
Rp5656
ag2
(g22
S'\xc1\xa2P\xfe\xbc\xda\xe6?'
p5657
tp5658
Rp5659
ag2
(g22
S'\xbcz\x82"|\xc0\xdf?'
p5660
tp5661
Rp5662
ag2
(g22
S'\x1b\x9e^)\xcbS\x7f@'
p5663
tp5664
Rp5665
ag2
(g22
S'\x00\x00\x00\x00\x00\x00\x00\x00'
p5666
tp5667
Rp5668
ag2
(g22
S'V\x0e-\xb2\x9d}~@'
p5669
tp5670
Rp5671
aF0.0002
aF0.324
aF0.897
aF0.158
aF-10.134
aF0.0788
aF115.168
aF0.39
aa(lp5672
g2
(g3
(S'S13'
p5673
I0
I1
tp5674
Rp5675
(I3
S'|'
p5676
NNNI13
I1
I0
tp5677
bS"Don't Do That"
p5678
tp5679
Rp5680
ag2
(g3
(S'S8'
p5681
I0
I1
tp5682
Rp5683
(I3
S'|'
p5684
NNNI8
I1
I0
tp5685
bS'Pinchers'
p5686
tp5687
Rp5688
ag2
(g22
S'\xff\xc8\xb3\x13I\xde\xe1?'
p5689
tp5690
Rp5691
ag2
(g22
S'AV!(\xed\xcc\xd5?'
p5692
tp5693
Rp5694
ag2
(g22
S'J\xef\x1b_{\xa0l@'
p5695
tp5696
Rp5697
ag2
(g22
S'\x8bl\xe7\xfb\xa9\xf1\x02@'
p5698
tp5699
Rp5700
ag2
(g22
S'\xbaI\x0c\x02+\x0fk@'
p5701
tp5702
Rp5703
aF0.0263
aF0.858
aF0.573
aI0
aF-14.199
aF0.2
aF92.032
aF0.896
aa(lp5704
g2
(g3
(S'S15'
p5705
I0
I1
tp5706
Rp5707
(I3
S'|'
p5708
NNNI15
I1
I0
tp5709
bS'Chuckanut Drive'
p5710
tp5711
Rp5712
ag2
(g3
(S'S15'
p5713
I0
I1
tp5714
Rp5715
(I3
S'|'
p5716
NNNI15
I1
I0
tp5717
bS'Power Pill Fist'
p5718
tp5719
Rp5720
ag2
(g22
S'\x84\xf8\x1d\x13,>\xdf?'
p5721
tp5722
Rp5723
ag2
(g22
S'\x1d-\xdcQ\xf8;\xd8?'
p5724
tp5725
Rp5726
ag2
(g22
S"!\xe5'\xd5\xbe6r@"
p5727
tp5728
Rp5729
ag2
(g22
S'\x00\x00\x00\x00\x00\x00\x00\x00'
p5730
tp5731
Rp5732
ag2
(g22
S'\x19\x04V\x0e-\xa8q@'
p5733
tp5734
Rp5735
aF0.00114
aF0.485
aF0.611
aF0.879
aF0.316
aF0.106
aF138.246
aF0.459
aa(lp5736
g2
(g3
(S'S22'
p5737
I0
I1
tp5738
Rp5739
(I3
S'|'
p5740
NNNI22
I1
I0
tp5741
bS"(Coffee's For Closers)"
p5742
tp5743
Rp5744
ag2
(g3
(S'S12'
p5745
I0
I1
tp5746
Rp5747
(I3
S'|'
p5748
NNNI12
I1
I0
tp5749
bS'Fall Out Boy'
p5750
tp5751
Rp5752
ag2
(g22
S'=<\xf8\xa6\xce\x03\xee?'
p5753
tp5754
Rp5755
ag2
(g22
S'\xceFgR\xc6!\xe2?'
p5756
tp5757
Rp5758
ag2
(g22
S'\xd9_vO\x1e6q@'
p5759
tp5760
Rp5761
ag2
(g22
S'\x00\x00\x00\x00\x00\x00\x00\x00'
p5762
tp5763
Rp5764
ag2
(g22
S'33333\xf5p@'
p5765
tp5766
Rp5767
aF0.00271
aF0.431
aF0.953
aF0.000342
aF-2.957
aF0.0899
aF154.998
aF0.332
aa(lp5768
g2
(g3
(S'S27'
p5769
I0
I1
tp5770
Rp5771
(I3
S'|'
p5772
NNNI27
I1
I0
tp5773
bS'The Legend of Yellow Boobie'
p5774
tp5775
Rp5776
ag2
(g3
(S'S18'
p5777
I0
I1
tp5778
Rp5779
(I3
S'|'
p5780
NNNI18
I1
I0
tp5781
bS'Year of Desolation'
p5782
tp5783
Rp5784
ag2
(g22
S'\x13\xd6\xc1\xf1Z\x9d\xe1?'
p5785
tp5786
Rp5787
ag2
(g22
S'\xb3\xe3(\x8e\x14h\xd2?'
p5788
tp5789
Rp5790
ag2
(g22
S'\xfd0Bx4\x1cu@'
p5791
tp5792
Rp5793
ag2
(g22
S'\x0e-\xb2\x9d\xef\xa7\xd6?'
p5794
tp5795
Rp5796
ag2
(g22
S'\x91\xed|?5\x1cu@'
p5797
tp5798
Rp5799
aF2.4e-05
aF0.275
aF0.892
aF0.0213
aF-5.487
aF0.156
aF99.517
aF0.234
aa(lp5800
g2
(g3
(S'S16'
p5801
I0
I1
tp5802
Rp5803
(I3
S'|'
p5804
NNNI16
I1
I0
tp5805
bS"You're Not Alone"
p5806
tp5807
Rp5808
ag2
(g3
(S'S5'
p5809
I0
I1
tp5810
Rp5811
(I3
S'|'
p5812
NNNI5
I1
I0
tp5813
bS'Olive'
p5814
tp5815
Rp5816
ag2
(g22
S'\xc4\xea#\xbd&q\xe3?'
p5817
tp5818
Rp5819
ag2
(g22
S'\xb2\xba\xc1\x8f\x9b\xd0\xdb?'
p5820
tp5821
Rp5822
ag2
(g22
S'\x01\x87P\xa5fkj@'
p5823
tp5824
Rp5825
ag2
(g22
S'\x00\x00\x00\x00\x00\x00\x00\x00'
p5826
tp5827
Rp5828
ag2
(g22
S'\x93\x18\x04V\x0e\xa1h@'
p5829
tp5830
Rp5831
aF0.0525
aF0.69
aF0.643
aF0.0019
aF-10.855
aF0.0501
aF134.261
aF0.592
aa(lp5832
g2
(g3
(S'S24'
p5833
I0
I1
tp5834
Rp5835
(I3
S'|'
p5836
NNNI24
I1
I0
tp5837
bS'White Girl Who Can Dance'
p5838
tp5839
Rp5840
ag2
(g3
(S'S7'
p5841
I0
I1
tp5842
Rp5843
(I3
S'|'
p5844
NNNI7
I1
I0
tp5845
bS'HardNox'
p5846
tp5847
Rp5848
ag2
(g22
S'\x7f\xe1/\xa3)k\xe0?'
p5849
tp5850
Rp5851
ag2
(g22
S'\x1d\x07\xb0\x0cp\xce\xd3?'
p5852
tp5853
Rp5854
ag2
(g22
S'\xb6\xbeHh\xcb\x99l@'
p5855
tp5856
Rp5857
ag2
(g22
S'\x89A`\xe5\xd0"\xd3?'
p5858
tp5859
Rp5860
ag2
(g22
S'o\x12\x83\xc0\xca\x99l@'
p5861
tp5862
Rp5863
aF0.0558
aF0.78
aF0.714
aI0
aF-5.362
aF0.195
aF144.148
aF0.824
aa(lp5864
g2
(g3
(S'S11'
p5865
I0
I1
tp5866
Rp5867
(I3
S'|'
p5868
NNNI11
I1
I0
tp5869
bS'Protect You'
p5870
tp5871
Rp5872
ag2
(g3
(S'S11'
p5873
I0
I1
tp5874
Rp5875
(I3
S'|'
p5876
NNNI11
I1
I0
tp5877
bS'Tim Hornsby'
p5878
tp5879
Rp5880
ag2
(g22
S'\x99\x8d-\x15\xdf\xc7\xb5?'
p5881
tp5882
Rp5883
ag2
(g22
S'\x00\x00\x00\x00\x00\x00\x00\x00'
p5884
tp5885
Rp5886
ag2
(g22
S'\xa7\x05/\xfa\nhV@'
p5887
tp5888
Rp5889
ag2
(g22
S'/\xdd$\x06\x81\x95\r@'
p5890
tp5891
Rp5892
ag2
(g22
S'\xf2\xd2Mb\x10hV@'
p5893
tp5894
Rp5895
aF0.892
aF0.183
aF0.191
aF0.79
aF-16.383
aF0.0364
aF56.722
aF0.0362
aa(lp5896
g2
(g3
(S'S18'
p5897
I0
I1
tp5898
Rp5899
(I3
S'|'
p5900
NNNI18
I1
I0
tp5901
bS'Have Thine Own Way'
p5902
tp5903
Rp5904
ag2
(g3
(S'S18'
p5905
I0
I1
tp5906
Rp5907
(I3
S'|'
p5908
NNNI18
I1
I0
tp5909
bS'Michael Bloomfield'
p5910
tp5911
Rp5912
ag2
(g22
S'&0\x8e\x13,\xaf\xdf?'
p5913
tp5914
Rp5915
ag2
(g22
S'\x0e\x1e\xe8\x8c\xcb\xd1\xd7?'
p5916
tp5917
Rp5918
ag2
(g22
S'\x15\xc6\x16\x82\x1c6a@'
p5919
tp5920
Rp5921
ag2
(g22
S'\x81\x95C\x8bl\xe7\xd3?'
p5922
tp5923
Rp5924
ag2
(g22
S'J\x0c\x02+\x87v_@'
p5925
tp5926
Rp5927
aF0.837
aF0.52
aF0.207
aF0.838
aF-13.202
aF0.0347
aF122.93
aF0.307
aa(lp5928
g2
(g3
(S'S9'
p5929
I0
I1
tp5930
Rp5931
(I3
S'|'
p5932
NNNI9
I1
I0
tp5933
bS'Woman Shy'
p5934
tp5935
Rp5936
ag2
(g3
(S'S10'
p5937
I0
I1
tp5938
Rp5939
(I3
S'|'
p5940
NNNI10
I1
I0
tp5941
bS'Jerry Reed'
p5942
tp5943
Rp5944
ag2
(g22
S'q(\xab\x9b0\xb0\xe2?'
p5945
tp5946
Rp5947
ag2
(g22
S'\xf5s\x85\xb4\x82-\xda?'
p5948
tp5949
Rp5950
ag2
(g22
S'$\x7f0\xf0\xdc\xe5`@'
p5951
tp5952
Rp5953
ag2
(g22
S'\x06\x81\x95C\x8bl\xc7?'
p5954
tp5955
Rp5956
ag2
(g22
S'X9\xb4\xc8vZ`@'
p5957
tp5958
Rp5959
aF0.788
aF0.731
aF0.522
aI0
aF-11.551
aF0.0772
aF120.733
aF0.801
aa(lp5960
g2
(g3
(S'S18'
p5961
I0
I1
tp5962
Rp5963
(I3
S'|'
p5964
NNNI18
I1
I0
tp5965
bS'Frankie And Johnny'
p5966
tp5967
Rp5968
ag2
(g3
(S'S10'
p5969
I0
I1
tp5970
Rp5971
(I3
S'|'
p5972
NNNI10
I1
I0
tp5973
bS'Gene Autry'
p5974
tp5975
Rp5976
ag2
(g22
S'8\xab\xa8I;\xad\xe2?'
p5977
tp5978
Rp5979
ag2
(g22
S'\x13\x0e\xc6\xb0\xa2\x88\xda?'
p5980
tp5981
Rp5982
ag2
(g22
S'\x8db\xb9\xa5\xd5pd@'
p5983
tp5984
Rp5985
ag2
(g22
S'ffffff\x0b@'
p5986
tp5987
Rp5988
ag2
(g22
S'F\xb6\xf3\xfd\xd4pd@'
p5989
tp5990
Rp5991
aF0.993
aF0.634
aF0.128
aF0.000114
aF-12.714
aF0.0597
aF164.774
aF0.724
aa(lp5992
g2
(g3
(S'S18'
p5993
I0
I1
tp5994
Rp5995
(I3
S'|'
p5996
NNNI18
I1
I0
tp5997
bS'Take The "A" Train'
p5998
tp5999
Rp6000
ag2
(g3
(S'S9'
p6001
I0
I1
tp6002
Rp6003
(I3
S'|'
p6004
NNNI9
I1
I0
tp6005
bS'Les Brown'
p6006
tp6007
Rp6008
ag2
(g22
S'\xf6/\xc8\x0c\x06\xf4\xe0?'
p6009
tp6010
Rp6011
ag2
(g22
S'\xc5\xc24\x96&\xe3\xda?'
p6012
tp6013
Rp6014
ag2
(g22
S'\xbc\x96\x90\x0fzvi@'
p6015
tp6016
Rp6017
ag2
(g22
S'\xf8S\xe3\xa5\x9b\xc4\xc0?'
p6018
tp6019
Rp6020
ag2
(g22
S'\xf8S\xe3\xa5\x9b\xd8g@'
p6021
tp6022
Rp6023
aF0.526
aF0.543
aF0.262
aF0.0271
aF-13.476
aF0.0489
aF70.92
aF0.661
aa(lp6024
g2
(g3
(S'S12'
p6025
I0
I1
tp6026
Rp6027
(I3
S'|'
p6028
NNNI12
I1
I0
tp6029
bS'Big Boss Man'
p6030
tp6031
Rp6032
ag2
(g3
(S'S12'
p6033
I0
I1
tp6034
Rp6035
(I3
S'|'
p6036
NNNI12
I1
I0
tp6037
bS'John Hammond'
p6038
tp6039
Rp6040
ag2
(g22
S'\xde\xfa\x91\xd5\xf4\xe6\xe2?'
p6041
tp6042
Rp6043
ag2
(g22
S'/\x17\xfd\xaa\xf7\xfa\xdc?'
p6044
tp6045
Rp6046
ag2
(g22
S'\xed\xd8\x08\xc4\xebVd@'
p6047
tp6048
Rp6049
ag2
(g22
S'\x81\x95C\x8bl\xe7\xd3?'
p6050
tp6051
Rp6052
ag2
(g22
S'\xd9\xce\xf7S\xe3\x8db@'
p6053
tp6054
Rp6055
aF0.665
aF0.601
aF0.382
aF0.000439
aF-15.411
aF0.0298
aF95.004
aF0.891
aa(lp6056
g2
(g3
(S'S12'
p6057
I0
I1
tp6058
Rp6059
(I3
S'|'
p6060
NNNI12
I1
I0
tp6061
bS'Machinenfunk'
p6062
tp6063
Rp6064
ag2
(g3
(S'S27'
p6065
I0
I1
tp6066
Rp6067
(I3
S'|'
p6068
NNNI27
I1
I0
tp6069
bS'1. Futurologischer Congress'
p6070
tp6071
Rp6072
ag2
(g22
S":\x89'b\x1e\xfc\xd7?"
p6073
tp6074
Rp6075
ag2
(g22
S';\xa8\xac\xd3Sr\xd0?'
p6076
tp6077
Rp6078
ag2
(g22
S'\x84\x81\xe7\xde\xc3\x9di@'
p6079
tp6080
Rp6081
ag2
(g22
S';\xdfO\x8d\x97n\xb2?'
p6082
tp6083
Rp6084
ag2
(g22
S'\xcf\xf7S\xe3\xa5\xa3h@'
p6085
tp6086
Rp6087
aF0.0218
aF0.657
aF0.767
aF0.00187
aF-10.57
aF0.0595
aF146.078
aF0.598
aa(lp6088
g2
(g3
(S'S18'
p6089
I0
I1
tp6090
Rp6091
(I3
S'|'
p6092
NNNI18
I1
I0
tp6093
bS'The Christmas Song'
p6094
tp6095
Rp6096
ag2
(g3
(S'S27'
p6097
I0
I1
tp6098
Rp6099
(I3
S'|'
p6100
NNNI27
I1
I0
tp6101
bS'David Banner / Sky / Marcus'
p6102
tp6103
Rp6104
ag2
(g22
S'\x17\x1a\x11#\xbc\xcd\xe9?'
p6105
tp6106
Rp6107
ag2
(g22
S'\xda\x980`\tf\xe0?'
p6108
tp6109
Rp6110
ag2
(g22
S'\xe3\xc7\x98\xbb\x96\xb5o@'
p6111
tp6112
Rp6113
ag2
(g22
S'\xdb\xf9~j\xbct\xb3?'
p6114
tp6115
Rp6116
ag2
(g22
S'`\xe5\xd0"\xdbUo@'
p6117
tp6118
Rp6119
aF0.0149
aF0.607
aF0.745
aI0
aF-5.149
aF0.253
aF174.067
aF0.408
aa(lp6120
g2
(g3
(S'S38'
p6121
I0
I1
tp6122
Rp6123
(I3
S'|'
p6124
NNNI38
I1
I0
tp6125
bS'Thats What I Like About a Country Song'
p6126
tp6127
Rp6128
ag2
(g3
(S'S12'
p6129
I0
I1
tp6130
Rp6131
(I3
S'|'
p6132
NNNI12
I1
I0
tp6133
bS'Aaron Watson'
p6134
tp6135
Rp6136
ag2
(g22
S'\x1a.\xca\xcfx\x0e\xe5?'
p6137
tp6138
Rp6139
ag2
(g22
S'\x19.\xf2\xaa]=\xde?'
p6140
tp6141
Rp6142
ag2
(g22
S'\xbb\x9b\xa7:\xe4Ze@'
p6143
tp6144
Rp6145
ag2
(g22
S'\x9a\x99\x99\x99\x99\x99\xc9?'
p6146
tp6147
Rp6148
ag2
(g22
S'\x9e\xef\xa7\xc6K\x1fd@'
p6149
tp6150
Rp6151
aF0.394
aF0.658
aF0.582
aI0
aF-9.273
aF0.04
aF130.494
aF0.744
aa(lp6152
g2
(g3
(S'S38'
p6153
I0
I1
tp6154
Rp6155
(I3
S'|'
p6156
NNNI38
I1
I0
tp6157
bS"(I Used To Couldn't Dance) Tight Pants"
p6158
tp6159
Rp6160
ag2
(g3
(S'S21'
p6161
I0
I1
tp6162
Rp6163
(I3
S'|'
p6164
NNNI21
I1
I0
tp6165
bS'Eagles Of Death Metal'
p6166
tp6167
Rp6168
ag2
(g22
S'\xca\xa8H31b\xe8?'
p6169
tp6170
Rp6171
ag2
(g22
S'-\xb2\xec\x06\x15\xd2\xdf?'
p6172
tp6173
Rp6174
ag2
(g22
S'T5A\xd4}\xf4j@'
p6175
tp6176
Rp6177
ag2
(g22
S'\x00\x00\x00\x00\x00\x00\x00\x00'
p6178
tp6179
Rp6180
ag2
(g22
S'{\x14\xaeG\xe1\xe6i@'
p6181
tp6182
Rp6183
aF0.0207
aF0.648
aF0.962
aF0.209
aF-3.562
aF0.107
aF119.01
aF0.509
aa(lp6184
g2
(g3
(S'S8'
p6185
I0
I1
tp6186
Rp6187
(I3
S'|'
p6188
NNNI8
I1
I0
tp6189
bS'Too Late'
p6190
tp6191
Rp6192
ag2
(g3
(S'S16'
p6193
I0
I1
tp6194
Rp6195
(I3
S'|'
p6196
NNNI16
I1
I0
tp6197
bS'Peter Hunningale'
p6198
tp6199
Rp6200
ag2
(g22
S'\xc6\x04\xd7\xe7\xa8\x91\xda?'
p6201
tp6202
Rp6203
ag2
(g22
S'\xca\xba(4x\xf7\xcf?'
p6204
tp6205
Rp6206
ag2
(g22
S' \x98\xa3\xc7\xef[l@'
p6207
tp6208
Rp6209
ag2
(g22
S'\x1dZd;\xdfO\xcd?'
p6210
tp6211
Rp6212
ag2
(g22
S'\n\xd7\xa3p=\xfek@'
p6213
tp6214
Rp6215
aF0.0276
aF0.795
aF0.488
aF0.000341
aF-10.256
aF0.063
aF82.93
aF0.617
aa(lp6216
g2
(g3
(S'S10'
p6217
I0
I1
tp6218
Rp6219
(I3
S'|'
p6220
NNNI10
I1
I0
tp6221
bS'Slave Song'
p6222
tp6223
Rp6224
ag2
(g3
(S'S4'
p6225
I0
I1
tp6226
Rp6227
(I3
S'|'
p6228
NNNI4
I1
I0
tp6229
bS'Sade'
p6230
tp6231
Rp6232
ag2
(g22
S'\xd10\xeaM\x10\xb0\xe8?'
p6233
tp6234
Rp6235
ag2
(g22
S'\xbd<\xe0h\x11\x8e\xe0?'
p6236
tp6237
Rp6238
ag2
(g22
S'S\xcb\xd6\xfa"\x8fo@'
p6239
tp6240
Rp6241
ag2
(g22
S'%\x06\x81\x95C\x8b\xcc?'
p6242
tp6243
Rp6244
ag2
(g22
S'\xd3Mb\x10X\tm@'
p6245
tp6246
Rp6247
aF0.0825
aF0.851
aF0.39
aF0.000443
aF-9.586
aF0.0504
aF118.006
aF0.639
aa(lp6248
g2
(g3
(S'S18'
p6249
I0
I1
tp6250
Rp6251
(I3
S'|'
p6252
NNNI18
I1
I0
tp6253
bS"Mighty Lak' a Rose"
p6254
tp6255
Rp6256
ag2
(g3
(S'S13'
p6257
I0
I1
tp6258
Rp6259
(I3
S'|'
p6260
NNNI13
I1
I0
tp6261
bS'Marilyn Horne'
p6262
tp6263
Rp6264
ag2
(g22
S'\xf6\n}\xce\xf2\x88\xdc?'
p6265
tp6266
Rp6267
ag2
(g22
S'8\xc4\x01O\x89\xf8\xd3?'
p6268
tp6269
Rp6270
ag2
(g22
S'\xd2\xc6\x11k\xf1\x93d@'
p6271
tp6272
Rp6273
ag2
(g22
S'\n\xd7\xa3p=\n\x14@'
p6274
tp6275
Rp6276
ag2
(g22
S'\xecQ\xb8\x1e\x85cb@'
p6277
tp6278
Rp6279
aF0.99
aF0.278
aF0.0951
aF1.82e-05
aF-22.714
aF0.0697
aF169.628
aF0.114
aa(lp6280
g2
(g3
(S'S9'
p6281
I0
I1
tp6282
Rp6283
(I3
S'|'
p6284
NNNI9
I1
I0
tp6285
bS'Hot Girls'
p6286
tp6287
Rp6288
ag2
(g3
(S'S7'
p6289
I0
I1
tp6290
Rp6291
(I3
S'|'
p6292
NNNI7
I1
I0
tp6293
bS'Kiprich'
p6294
tp6295
Rp6296
ag2
(g22
S'=\x01_\xbaT\xe2\xe1?'
p6297
tp6298
Rp6299
ag2
(g22
S'\xf7\x16\x92\x9dc\xe4\xd8?'
p6300
tp6301
Rp6302
ag2
(g22
S'\xf6\xb4\xc3_\x93Eg@'
p6303
tp6304
Rp6305
ag2
(g22
S'\x00\x00\x00\x00\x00\x00\x00\x00'
p6306
tp6307
Rp6308
ag2
(g22
S'\xaa\xf1\xd2Mb\x98f@'
p6309
tp6310
Rp6311
aF0.179
aF0.791
aF0.736
aI0
aF-4.856
aF0.093
aF101.258
aF0.433
aa(lp6312
g2
(g3
(S'S20'
p6313
I0
I1
tp6314
Rp6315
(I3
S'|'
p6316
NNNI20
I1
I0
tp6317
bS"Can't Stop Cocoa Tea"
p6318
tp6319
Rp6320
ag2
(g3
(S'S9'
p6321
I0
I1
tp6322
Rp6323
(I3
S'|'
p6324
NNNI9
I1
I0
tp6325
bS'Cocoa Tea'
p6326
tp6327
Rp6328
ag2
(g22
S'[\xf9\xff\xbf\x86\x0f\xe3?'
p6329
tp6330
Rp6331
ag2
(g22
S'P\xa7W\x83\xbcC\xdb?'
p6332
tp6333
Rp6334
ag2
(g22
S'\xae\x9e\x93\xde7Kd@'
p6335
tp6336
Rp6337
ag2
(g22
S'\xcb\xa1E\xb6\xf3\xfd\xc4?'
p6338
tp6339
Rp6340
ag2
(g22
S'\x83\xc0\xca\xa1E~b@'
p6341
tp6342
Rp6343
aF0.0427
aF0.879
aF0.429
aF0.00989
aF-6.744
aF0.0702
aF148.472
aF0.777
aa(lp6344
g2
(g3
(S'S16'
p6345
I0
I1
tp6346
Rp6347
(I3
S'|'
p6348
NNNI16
I1
I0
tp6349
bS'Crave and Wonder'
p6350
tp6351
Rp6352
ag2
(g3
(S'S10'
p6353
I0
I1
tp6354
Rp6355
(I3
S'|'
p6356
NNNI10
I1
I0
tp6357
bS'Arc Angels'
p6358
tp6359
Rp6360
ag2
(g22
S':\xb6\t\x1a\x88\xd8\xe2?'
p6361
tp6362
Rp6363
ag2
(g22
S'\xa4H\xd2\xb9\x04\\\xd6?'
p6364
tp6365
Rp6366
ag2
(g22
S'\xe7oB!\x02\x05t@'
p6367
tp6368
Rp6369
ag2
(g22
S'\x00\x00\x00\x00\x00\x00\x00\x00'
p6370
tp6371
Rp6372
ag2
(g22
S'd;\xdfO\x8d\xb7s@'
p6373
tp6374
Rp6375
aF0.123
aF0.442
aF0.882
aF0.00202
aF-5.094
aF0.0776
aF119.86
aF0.321
aa(lp6376
g2
(g3
(S'S13'
p6377
I0
I1
tp6378
Rp6379
(I3
S'|'
p6380
NNNI13
I1
I0
tp6381
bS'Junko partner'
p6382
tp6383
Rp6384
ag2
(g3
(S'S15'
p6385
I0
I1
tp6386
Rp6387
(I3
S'|'
p6388
NNNI15
I1
I0
tp6389
bS'Mike Bloomfield'
p6390
tp6391
Rp6392
ag2
(g22
S'&0\x8e\x13,\xaf\xdf?'
p6393
tp6394
Rp6395
ag2
(g22
S'\x17\x83\xe4\xfb\xa1=\xd6?'
p6396
tp6397
Rp6398
ag2
(g22
S'\xc6m4\x80\xb7\xc1q@'
p6399
tp6400
Rp6401
ag2
(g22
S'\x8d\x97n\x12\x83\xc0\xd2?'
p6402
tp6403
Rp6404
ag2
(g22
S'Zd;\xdfO)q@'
p6405
tp6406
Rp6407
aF0.956
aF0.503
aF0.373
aF0.909
aF-19.266
aF0.105
aF81.202
aF0.712
aa(lp6408
g2
(g3
(S'S26'
p6409
I0
I1
tp6410
Rp6411
(I3
S'|'
p6412
NNNI26
I1
I0
tp6413
bS'The Windmills Of Your Mind'
p6414
tp6415
Rp6416
ag2
(g3
(S'S16'
p6417
I0
I1
tp6418
Rp6419
(I3
S'|'
p6420
NNNI16
I1
I0
tp6421
bS'Toots Thielemans'
p6422
tp6423
Rp6424
ag2
(g22
S'\xee|X\xdb|\x84\xe4?'
p6425
tp6426
Rp6427
ag2
(g22
S'\xc6\x81\x93A\x06\xf4\xdb?'
p6428
tp6429
Rp6430
ag2
(g22
S'\x14\x05\xfaD\x9e\xb1f@'
p6431
tp6432
Rp6433
ag2
(g22
S'\xe9&1\x08\xac\x1c\x02@'
p6434
tp6435
Rp6436
ag2
(g22
S'\xc5 \xb0rh\x95e@'
p6437
tp6438
Rp6439
aF0.888
aF0.44
aF0.221
aF0.0296
aF-17.886
aF0.0491
aF102.07
aF0.0399
aa(lp6440
g2
(g3
(S'S13'
p6441
I0
I1
tp6442
Rp6443
(I3
S'|'
p6444
NNNI13
I1
I0
tp6445
bS'U Not Like Me'
p6446
tp6447
Rp6448
ag2
(g3
(S'S7'
p6449
I0
I1
tp6450
Rp6451
(I3
S'|'
p6452
NNNI7
I1
I0
tp6453
bS'50 Cent'
p6454
tp6455
Rp6456
ag2
(g22
S'\x00QB\xb2\x86E\xec?'
p6457
tp6458
Rp6459
ag2
(g22
S'\x8f]Gp8\xd6\xe2?'
p6460
tp6461
Rp6462
ag2
(g22
S"('\xdaUH\xf4o@"
p6463
tp6464
Rp6465
ag2
(g22
S'\xfa~j\xbct\x93\xb8?'
p6466
tp6467
Rp6468
ag2
(g22
S'\xb4\xc8v\xbe\x9f\xaeo@'
p6469
tp6470
Rp6471
aF0.0549
aF0.803
aF0.852
aI0
aF-1.848
aF0.332
aF91.577
aF0.803
aa(lp6472
g2
(g3
(S'S22'
p6473
I0
I1
tp6474
Rp6475
(I3
S'|'
p6476
NNNI22
I1
I0
tp6477
bS"Is It The Skin I'm In?"
p6478
tp6479
Rp6480
ag2
(g3
(S'S11'
p6481
I0
I1
tp6482
Rp6483
(I3
S'|'
p6484
NNNI11
I1
I0
tp6485
bS'Lyrics Born'
p6486
tp6487
Rp6488
ag2
(g22
S'\x01\xd3LP\x14x\xe2?'
p6489
tp6490
Rp6491
ag2
(g22
S'\xf0\xb8\xfax\xebc\xe0?'
p6492
tp6493
Rp6494
ag2
(g22
S'M\xd6\xa8\x87h*m@'
p6495
tp6496
Rp6497
ag2
(g22
S'\x00\x00\x00\x00\x00\x00\x00\x00'
p6498
tp6499
Rp6500
ag2
(g22
S'L7\x89A`\x81l@'
p6501
tp6502
Rp6503
aF0.293
aF0.653
aF0.616
aF4.5e-06
aF-5.807
aF0.0592
aF75.49
aF0.682
aa(lp6504
g2
(g3
(S'S26'
p6505
I0
I1
tp6506
Rp6507
(I3
S'|'
p6508
NNNI26
I1
I0
tp6509
bS"Ain't That Loving You Baby"
p6510
tp6511
Rp6512
ag2
(g3
(S'S12'
p6513
I0
I1
tp6514
Rp6515
(I3
S'|'
p6516
NNNI12
I1
I0
tp6517
bS'John Hammond'
p6518
tp6519
Rp6520
ag2
(g22
S'\xde\xfa\x91\xd5\xf4\xe6\xe2?'
p6521
tp6522
Rp6523
ag2
(g22
S'/\x17\xfd\xaa\xf7\xfa\xdc?'
p6524
tp6525
Rp6526
ag2
(g22
S'sK\xab!q\xc9h@'
p6527
tp6528
Rp6529
ag2
(g22
S'\x00\x00\x00\x00\x00\x00\x00\x00'
p6530
tp6531
Rp6532
ag2
(g22
S'?5^\xbaI\xc0g@'
p6533
tp6534
Rp6535
aF0.348
aF0.597
aF0.513
aF0.00303
aF-12.811
aF0.0786
aF121.892
aF0.704
aa(lp6536
g2
(g3
(S'S15'
p6537
I0
I1
tp6538
Rp6539
(I3
S'|'
p6540
NNNI15
I1
I0
tp6541
bS'Requiem Blaster'
p6542
tp6543
Rp6544
ag2
(g3
(S'S15'
p6545
I0
I1
tp6546
Rp6547
(I3
S'|'
p6548
NNNI15
I1
I0
tp6549
bS'Pumpkin Buzzard'
p6550
tp6551
Rp6552
ag2
(g22
S'\x16\xcb*\x8f\xed\x07\xd9?'
p6553
tp6554
Rp6555
ag2
(g22
S'-\xeeCh\x8b\xbb\xce?'
p6556
tp6557
Rp6558
ag2
(g22
S'8J^\x9dc\x00^@'
p6559
tp6560
Rp6561
ag2
(g22
S'\xdd$\x06\x81\x95\xc3\x10@'
p6562
tp6563
Rp6564
ag2
(g22
S'\xaa\xf1\xd2Mb\x00^@'
p6565
tp6566
Rp6567
aF0.464
aF0.192
aF0.355
aF0.941
aF-20.193
aF0.0612
aF86.861
aF0.027
aa(lp6568
g2
(g3
(S'S23'
p6569
I0
I1
tp6570
Rp6571
(I3
S'|'
p6572
NNNI23
I1
I0
tp6573
bS'The Man From U.N.C.L.E.'
p6574
tp6575
Rp6576
ag2
(g3
(S'S28'
p6577
I0
I1
tp6578
Rp6579
(I3
S'|'
p6580
NNNI28
I1
I0
tp6581
bS'The London Theatre Orchestra'
p6582
tp6583
Rp6584
ag2
(g22
S'E\xd6\x10eeF\xd5?'
p6585
tp6586
Rp6587
ag2
(g22
S'\xa6\xbab\xf3\xae \xd4?'
p6588
tp6589
Rp6590
ag2
(g22
S'\x00\xc63h\xe8\xe6c@'
p6591
tp6592
Rp6593
ag2
(g22
S'ffffff\xc6?'
p6594
tp6595
Rp6596
ag2
(g22
S'w\xbe\x9f\x1a/\x19c@'
p6597
tp6598
Rp6599
aF0.13
aF0.532
aF0.721
aF0.94
aF-3.801
aF0.0303
aF83.538
aF0.753
aa(lp6600
g2
(g3
(S'S8'
p6601
I0
I1
tp6602
Rp6603
(I3
S'|'
p6604
NNNI8
I1
I0
tp6605
bS'Problems'
p6606
tp6607
Rp6608
ag2
(g3
(S'S11'
p6609
I0
I1
tp6610
Rp6611
(I3
S'|'
p6612
NNNI11
I1
I0
tp6613
bS'Mikey Dread'
p6614
tp6615
Rp6616
ag2
(g22
S'\xb8\xdf\xca\x96\xea\xbd\xe2?'
p6617
tp6618
Rp6619
ag2
(g22
S'y\xc7\x07\x1e\x8b\x11\xd7?'
p6620
tp6621
Rp6622
ag2
(g22
S'\xacV&\xfcR\x1ar@'
p6623
tp6624
Rp6625
ag2
(g22
S'\x00\x00\x00\x00\x00\x00\x00\x00'
p6626
tp6627
Rp6628
ag2
(g22
S'\xf0\xa7\xc6K7\x83q@'
p6629
tp6630
Rp6631
aF0.0549
aF0.874
aF0.659
aF0.000998
aF-6.309
aF0.0584
aF137.631
aF0.962
aa(lp6632
g2
(g3
(S'S24'
p6633
I0
I1
tp6634
Rp6635
(I3
S'|'
p6636
NNNI24
I1
I0
tp6637
bS'Crustaceans As Castanets'
p6638
tp6639
Rp6640
ag2
(g3
(S'S17'
p6641
I0
I1
tp6642
Rp6643
(I3
S'|'
p6644
NNNI17
I1
I0
tp6645
bS'Pagan Wanderer Lu'
p6646
tp6647
Rp6648
ag2
(g22
S'\x11\xa8\xf7\x8d\xca\x07\xdd?'
p6649
tp6650
Rp6651
ag2
(g22
S'\xeev|\xd5\x90s\xd6?'
p6652
tp6653
Rp6654
ag2
(g22
S'-[\xeb\x8b\x84R]@'
p6655
tp6656
Rp6657
ag2
(g22
S'\x00\x00\x00\x00\x00\x00\x00\x00'
p6658
tp6659
Rp6660
ag2
(g22
S'\xc3\xf5(\\\x8f\x82Z@'
p6661
tp6662
Rp6663
aF0.000141
aF0.223
aF0.581
aF6.02e-06
aF-4.757
aF0.0383
aF66.171
aF0.423
aa(lp6664
g2
(g3
(S'S23'
p6665
I0
I1
tp6666
Rp6667
(I3
S'|'
p6668
NNNI23
I1
I0
tp6669
bS'Josephine (French Edit)'
p6670
tp6671
Rp6672
ag2
(g3
(S'S9'
p6673
I0
I1
tp6674
Rp6675
(I3
S'|'
p6676
NNNI9
I1
I0
tp6677
bS'Chris Rea'
p6678
tp6679
Rp6680
ag2
(g22
S'\xbeF\xe0\t\xf4\x94\xe4?'
p6681
tp6682
Rp6683
ag2
(g22
S'*\xa3\xd3\xd8\xa9\x05\xe0?'
p6684
tp6685
Rp6686
ag2
(g22
S'(a\xa6\xed_\x8bm@'
p6687
tp6688
Rp6689
ag2
(g22
S'j\xbct\x93\x18\x04\x02@'
p6690
tp6691
Rp6692
ag2
(g22
S'\xbe\x9f\x1a/\xdd\x9cl@'
p6693
tp6694
Rp6695
aF0.018
aF0.724
aF0.489
aF0.108
aF-12.253
aF0.0311
aF110.069
aF0.786
aa(lp6696
g2
(g3
(S'S31'
p6697
I0
I1
tp6698
Rp6699
(I3
S'|'
p6700
NNNI31
I1
I0
tp6701
bS"Don't You Think It's Time To Go"
p6702
tp6703
Rp6704
ag2
(g3
(S'S20'
p6705
I0
I1
tp6706
Rp6707
(I3
S'|'
p6708
NNNI20
I1
I0
tp6709
bS'The Del McCoury Band'
p6710
tp6711
Rp6712
ag2
(g22
S'\xe3\xfd\xde\xe7\x7fz\xe3?'
p6713
tp6714
Rp6715
ag2
(g22
S'\xb4\xda`k\x98.\xd7?'
p6716
tp6717
Rp6718
ag2
(g22
S'b\xbe\xbc\x00\xfb\xd5`@'
p6719
tp6720
Rp6721
ag2
(g22
S'\x17\xd9\xce\xf7S\xe3\xc5?'
p6722
tp6723
Rp6724
ag2
(g22
S'Zd;\xdfO\xc5_@'
p6725
tp6726
Rp6727
aF0.587
aF0.65
aF0.5
aF3.2e-05
aF-9.894
aF0.0336
aF106.062
aF0.844
aa(lp6728
g2
(g3
(S'S6'
p6729
I0
I1
tp6730
Rp6731
(I3
S'|'
p6732
NNNI6
I1
I0
tp6733
bS'Frieda'
p6734
tp6735
Rp6736
ag2
(g3
(S'S12'
p6737
I0
I1
tp6738
Rp6739
(I3
S'|'
p6740
NNNI12
I1
I0
tp6741
bS'David Benoit'
p6742
tp6743
Rp6744
ag2
(g22
S'++\x00*\x02\x83\xe3?'
p6745
tp6746
Rp6747
ag2
(g22
S'&\xf2\xc2\x85E\xa0\xde?'
p6748
tp6749
Rp6750
ag2
(g22
S'\xc4\xb1.n\xa3!q@'
p6751
tp6752
Rp6753
ag2
(g22
S'\x00\x00\x00\x00\x00\x00\x00\x00'
p6754
tp6755
Rp6756
ag2
(g22
S'{\x14\xaeG\xe1zp@'
p6757
tp6758
Rp6759
aF0.581
aF0.473
aF0.468
aF0.781
aF-9.46
aF0.0469
aF73.214
aF0.384
aa(lp6760
g2
(g3
(S'S16'
p6761
I0
I1
tp6762
Rp6763
(I3
S'|'
p6764
NNNI16
I1
I0
tp6765
bS'He Never Changes'
p6766
tp6767
Rp6768
ag2
(g3
(S'S4'
p6769
I0
I1
tp6770
Rp6771
(I3
S'|'
p6772
NNNI4
I1
I0
tp6773
bS'4Him'
p6774
tp6775
Rp6776
ag2
(g22
S'\xec\x1b\xcae7\x15\xe2?'
p6777
tp6778
Rp6779
ag2
(g22
S'\x1b\xfa\xd9\xc7\xc2\xb5\xdc?'
p6780
tp6781
Rp6782
ag2
(g22
S'?\xa9\xf6\xe9\xf8\xd0p@'
p6783
tp6784
Rp6785
ag2
(g22
S'\x00\x00\x00\x00\x00\x00\x00\x00'
p6786
tp6787
Rp6788
ag2
(g22
S'\xcb\xa1E\xb6\xf3=p@'
p6789
tp6790
Rp6791
aF0.639
aF0.417
aF0.653
aI0
aF-11.446
aF0.0579
aF75.627
aF0.558
aa(lp6792
g2
(g3
(S'S27'
p6793
I0
I1
tp6794
Rp6795
(I3
S'|'
p6796
NNNI27
I1
I0
tp6797
bS'Pick Me Up On Your Way Down'
p6798
tp6799
Rp6800
ag2
(g3
(S'S15'
p6801
I0
I1
tp6802
Rp6803
(I3
S'|'
p6804
NNNI15
I1
I0
tp6805
bS'Martina McBride'
p6806
tp6807
Rp6808
ag2
(g22
S'\xc0N\x0e\xcf\x05\xad\xe3?'
p6809
tp6810
Rp6811
ag2
(g22
S'\x9f5\x08<\x98\x1a\xe4?'
p6812
tp6813
Rp6814
ag2
(g22
S'\xac\xa8\xc14\x0c\x14d@'
p6815
tp6816
Rp6817
ag2
(g22
S'=\n\xd7\xa3p=\xca?'
p6818
tp6819
Rp6820
ag2
(g22
S'\x7fj\xbct\x93\x04c@'
p6821
tp6822
Rp6823
aF0.416
aF0.736
aF0.614
aI0
aF-6.185
aF0.0249
aF130.967
aF0.896
aa(lp6824
g2
(g3
(S'S13'
p6825
I0
I1
tp6826
Rp6827
(I3
S'|'
p6828
NNNI13
I1
I0
tp6829
bS'Yhteinen koti'
p6830
tp6831
Rp6832
ag2
(g3
(S'S13'
p6833
I0
I1
tp6834
Rp6835
(I3
S'|'
p6836
NNNI13
I1
I0
tp6837
bS'Irwin Goodman'
p6838
tp6839
Rp6840
ag2
(g22
S'\xc0\xae\x97j3\x8f\xe0?'
p6841
tp6842
Rp6843
ag2
(g22
S'EI\x94\xd9\x10\xb3\xdb?'
p6844
tp6845
Rp6846
ag2
(g22
S'u\xb0\xfe\xcfaJh@'
p6847
tp6848
Rp6849
ag2
(g22
S'!\xb0rh\x91\xed\x0e@'
p6850
tp6851
Rp6852
ag2
(g22
S'\x1b/\xdd$\x06}g@'
p6853
tp6854
Rp6855
aF0.464
aF0.64
aF0.583
aF1e-06
aF-12.366
aF0.103
aF94.996
aF0.631
aa(lp6856
g2
(g3
(S'S33'
p6857
I0
I1
tp6858
Rp6859
(I3
S'|'
p6860
NNNI33
I1
I0
tp6861
bS'24 Hours from Tulsa (Bonus Track)'
p6862
tp6863
Rp6864
ag2
(g3
(S'S13'
p6865
I0
I1
tp6866
Rp6867
(I3
S'|'
p6868
NNNI13
I1
I0
tp6869
bS'Claire Hamill'
p6870
tp6871
Rp6872
ag2
(g22
S'\xa3J\x15\xf9\xde\x1f\xe0?'
p6873
tp6874
Rp6875
ag2
(g22
S'K\x93\xe9\x8e\x99\x99\xd6?'
p6876
tp6877
Rp6878
ag2
(g22
S'\xce\x8d\xe9\tK\x10p@'
p6879
tp6880
Rp6881
ag2
(g22
S'\x19\x04V\x0e-\xb2\xcd?'
p6882
tp6883
Rp6884
ag2
(g22
S'\x1b/\xdd$\x06\x9dn@'
p6885
tp6886
Rp6887
aF0.188
aF0.705
aF0.828
aF0.000131
aF-7.459
aF0.0577
aF124.884
aF0.823
aa(lp6888
g2
(g3
(S'S10'
p6889
I0
I1
tp6890
Rp6891
(I3
S'|'
p6892
NNNI10
I1
I0
tp6893
bS'Way Beyond'
p6894
tp6895
Rp6896
ag2
(g3
(S'S9'
p6897
I0
I1
tp6898
Rp6899
(I3
S'|'
p6900
NNNI9
I1
I0
tp6901
bS'32 Leaves'
p6902
tp6903
Rp6904
ag2
(g22
S'\x8b\xa3\xf7\x82?\xb3\xe4?'
p6905
tp6906
Rp6907
ag2
(g22
S'\xf6]0\xa2\xc6\xc0\xd9?'
p6908
tp6909
Rp6910
ag2
(g22
S'\xdc\xd7\x81sF5m@'
p6911
tp6912
Rp6913
ag2
(g22
S'\x8bl\xe7\xfb\xa9\xf1\xc2?'
p6914
tp6915
Rp6916
ag2
(g22
S'\x96C\x8bl\xe7\x87k@'
p6917
tp6918
Rp6919
aF0.000151
aF0.366
aF0.642
aI0
aF-6.271
aF0.0326
aF138.222
aF0.474
aa(lp6920
g2
(g3
(S'S23'
p6921
I0
I1
tp6922
Rp6923
(I3
S'|'
p6924
NNNI23
I1
I0
tp6925
bS'You Still Believe in Me'
p6926
tp6927
Rp6928
ag2
(g3
(S'S14'
p6929
I0
I1
tp6930
Rp6931
(I3
S'|'
p6932
NNNI14
I1
I0
tp6933
bS'Rockabye Baby!'
p6934
tp6935
Rp6936
ag2
(g22
S' \xb0\x0b\x9196\xe6?'
p6937
tp6938
Rp6939
ag2
(g22
S'Bc\x89k\x97/\xdd?'
p6940
tp6941
Rp6942
ag2
(g22
S'\x11\x8d\xee vqi@'
p6943
tp6944
Rp6945
ag2
(g22
S'\x00\x00\x00\x00\x00\x00\x00\x00'
p6946
tp6947
Rp6948
ag2
(g22
S'F\xb6\xf3\xfd\xd4\xd0g@'
p6949
tp6950
Rp6951
aF0.637
aF0.516
aF0.524
aF0.929
aF-9.478
aF0.0375
aF74.863
aF0.518
aa(lp6952
g2
(g3
(S'S16'
p6953
I0
I1
tp6954
Rp6955
(I3
S'|'
p6956
NNNI16
I1
I0
tp6957
bS"Don't Knock Love"
p6958
tp6959
Rp6960
ag2
(g3
(S'S12'
p6961
I0
I1
tp6962
Rp6963
(I3
S'|'
p6964
NNNI12
I1
I0
tp6965
bS'Barbara Carr'
p6966
tp6967
Rp6968
ag2
(g22
S'd\x00%\x88\x00\xaf\xd8?'
p6969
tp6970
Rp6971
ag2
(g22
S'Y\x05\xe7\xb2\x82\x07\xd3?'
p6972
tp6973
Rp6974
ag2
(g22
S'\xdfO\x8d\x97nub@'
p6975
tp6976
Rp6977
ag2
(g22
S'\xd5x\xe9&1\x08\xdc?'
p6978
tp6979
Rp6980
ag2
(g22
S'\xb4\xc8v\xbe\x9f\xe2`@'
p6981
tp6982
Rp6983
aF0.256
aF0.654
aF0.835
aF0.0136
aF-7.184
aF0.0486
aF88.67
aF0.957
aa(lp6984
g2
(g3
(S'S21'
p6985
I0
I1
tp6986
Rp6987
(I3
S'|'
p6988
NNNI21
I1
I0
tp6989
bS"It's Not What You Say"
p6990
tp6991
Rp6992
ag2
(g3
(S'S13'
p6993
I0
I1
tp6994
Rp6995
(I3
S'|'
p6996
NNNI13
I1
I0
tp6997
bS'Louie Ramirez'
p6998
tp6999
Rp7000
ag2
(g22
S"\x18\xe1g\x8e@'\xd5?"
p7001
tp7002
Rp7003
ag2
(g22
S'B\xfb}\xc9\x08J\xcd?'
p7004
tp7005
Rp7006
ag2
(g22
S'cE\r\xa6a\xc3e@'
p7007
tp7008
Rp7009
ag2
(g22
S'\x00\x00\x00\x00\x00\x00\x00\x00'
p7010
tp7011
Rp7012
ag2
(g22
S'\x08\xac\x1cZd\xc3e@'
p7013
tp7014
Rp7015
aF0.724
aF0.809
aF0.592
aF0.00688
aF-7.265
aF0.0377
aF125.127
aF0.603
aa(lp7016
g2
(g3
(S'S33'
p7017
I0
I1
tp7018
Rp7019
(I3
S'|'
p7020
NNNI33
I1
I0
tp7021
bS'It Is No Secret (What God Can Do)'
p7022
tp7023
Rp7024
ag2
(g3
(S'S13'
p7025
I0
I1
tp7026
Rp7027
(I3
S'|'
p7028
NNNI13
I1
I0
tp7029
bS'Tammy Wynette'
p7030
tp7031
Rp7032
ag2
(g22
S'\x86s\x18\xeeRe\xe3?'
p7033
tp7034
Rp7035
ag2
(g22
S'\xdd\x7f\xb2\x91D0\xda?'
p7036
tp7037
Rp7038
ag2
(g22
S'nQf\x83L\x80b@'
p7039
tp7040
Rp7041
ag2
(g22
S'm\xe7\xfb\xa9\xf1\xd2\xd5?'
p7042
tp7043
Rp7044
ag2
(g22
S'!\xb0rh\x91\xa9a@'
p7045
tp7046
Rp7047
aF0.898
aF0.526
aF0.155
aF9.83e-06
aF-11.455
aF0.0305
aF76.927
aF0.224
aa(lp7048
g2
(g3
(S'S8'
p7049
I0
I1
tp7050
Rp7051
(I3
S'|'
p7052
NNNI8
I1
I0
tp7053
bS'El Perro'
p7054
tp7055
Rp7056
ag2
(g3
(S'S12'
p7057
I0
I1
tp7058
Rp7059
(I3
S'|'
p7060
NNNI12
I1
I0
tp7061
bS'Juana Molina'
p7062
tp7063
Rp7064
ag2
(g22
S'#"1;l\x84\xe6?'
p7065
tp7066
Rp7067
ag2
(g22
S'\x8d\x9aA\xfe\xb1\xaf\xdc?'
p7068
tp7069
Rp7070
ag2
(g22
S'\xd8d\x8dz\x88\x1ay@'
p7071
tp7072
Rp7073
ag2
(g22
S'\xa0\x1a/\xdd$\x06\xd1?'
p7074
tp7075
Rp7076
ag2
(g22
S')\\\x8f\xc2\xf5\xd2w@'
p7077
tp7078
Rp7079
aF0.74
aF0.643
aF0.455
aF0.656
aF-14.017
aF0.0368
aF124.747
aF0.311
aa(lp7080
g2
(g3
(S'S26'
p7081
I0
I1
tp7082
Rp7083
(I3
S'|'
p7084
NNNI26
I1
I0
tp7085
bS'As Mist Lay Silent Beneath'
p7086
tp7087
Rp7088
ag2
(g3
(S'S16'
p7089
I0
I1
tp7090
Rp7091
(I3
S'|'
p7092
NNNI16
I1
I0
tp7093
bS'Keep Of Kalessin'
p7094
tp7095
Rp7096
ag2
(g22
S'\x8a\xab\xa3\x17uj\xe4?'
p7097
tp7098
Rp7099
ag2
(g22
S'\x8b\x17$\x8c\x1a,\xde?'
p7100
tp7101
Rp7102
ag2
(g22
S'KY\x868\xd6Fu@'
p7103
tp7104
Rp7105
ag2
(g22
S'!\xb0rh\x91\xed\xbc?'
p7106
tp7107
Rp7108
ag2
(g22
S'X9\xb4\xc8v\x0eu@'
p7109
tp7110
Rp7111
aF0.0371
aF0.165
aF0.995
aF0.802
aF-4.535
aF0.117
aF127.889
aF0.0287
aa(lp7112
g2
(g3
(S'S74'
p7113
I0
I1
tp7114
Rp7115
(I3
S'|'
p7116
NNNI74
I1
I0
tp7117
bS'Act One: Rise and Fall - From the Ashes (I. Chapter One / II. Chapter Two)'
p7118
tp7119
Rp7120
ag2
(g3
(S'S6'
p7121
I0
I1
tp7122
Rp7123
(I3
S'|'
p7124
NNNI6
I1
I0
tp7125
bS'Orenda'
p7126
tp7127
Rp7128
ag2
(g22
S'X\xa9\xc5IXy\xda?'
p7129
tp7130
Rp7131
ag2
(g22
S']\x87\xa2\xe6\xdc)\xc2?'
p7132
tp7133
Rp7134
ag2
(g22
S't\xb5\x15\xfbK\x10\x80@'
p7135
tp7136
Rp7137
ag2
(g22
S'\x12\x83\xc0\xca\xa1E\x03@'
p7138
tp7139
Rp7140
ag2
(g22
S'\x06\x81\x95C\x8bv\x7f@'
p7141
tp7142
Rp7143
aF0.00727
aF0.433
aF0.843
aF8.99e-05
aF-5.715
aF0.0469
aF100.217
aF0.222
aa(lp7144
g2
(g3
(S'S14'
p7145
I0
I1
tp7146
Rp7147
(I3
S'|'
p7148
NNNI14
I1
I0
tp7149
bS'Kumal & Sangha'
p7150
tp7151
Rp7152
ag2
(g3
(S'S11'
p7153
I0
I1
tp7154
Rp7155
(I3
S'|'
p7156
NNNI11
I1
I0
tp7157
bS'Nick Ingman'
p7158
tp7159
Rp7160
ag2
(g22
S'I\xa2\x94\xf4V\x13\xda?'
p7161
tp7162
Rp7163
ag2
(g22
S'I\x02\xcb\xf1\xe4b\xd4?'
p7164
tp7165
Rp7166
ag2
(g22
S'\x87m\x8b2\x1b\x8a[@'
p7167
tp7168
Rp7169
ag2
(g22
S"'1\x08\xac\x1cZ\x0b@"
p7170
tp7171
Rp7172
ag2
(g22
S'\xecQ\xb8\x1e\x85{Y@'
p7173
tp7174
Rp7175
aF0.938
aF0.226
aF0.132
aF0.846
aF-20.354
aF0.0564
aF120.024
aF0.15
aa(lp7176
g2
(g3
(S'S12'
p7177
I0
I1
tp7178
Rp7179
(I3
S'|'
p7180
NNNI12
I1
I0
tp7181
bS'Henrys Death'
p7182
tp7183
Rp7184
ag2
(g3
(S'S2'
p7185
I0
I1
tp7186
Rp7187
(I3
S'|'
p7188
NNNI2
I1
I0
tp7189
bS'BT'
p7190
tp7191
Rp7192
ag2
(g22
S'\xd8\xaby!i*\xe9?'
p7193
tp7194
Rp7195
ag2
(g22
S'\xae\xc3&T)d\xe0?'
p7196
tp7197
Rp7198
ag2
(g22
S'\x0f\xd1\xe8\x0eb\xd1j@'
p7199
tp7200
Rp7201
ag2
(g22
S'\xcf\xf7S\xe3\xa5[(@'
p7202
tp7203
Rp7204
ag2
(g22
S'\xfc\xa9\xf1\xd2M^j@'
p7205
tp7206
Rp7207
aF0.0207
aF0.471
aF0.865
aF0.71
aF-8.2
aF0.0401
aF150.049
aF0.448
aa(lp7208
g2
(g3
(S'S9'
p7209
I0
I1
tp7210
Rp7211
(I3
S'|'
p7212
NNNI9
I1
I0
tp7213
bS'Your Love'
p7214
tp7215
Rp7216
ag2
(g3
(S'S11'
p7217
I0
I1
tp7218
Rp7219
(I3
S'|'
p7220
NNNI11
I1
I0
tp7221
bS'Mikey Dread'
p7222
tp7223
Rp7224
ag2
(g22
S'\xb8\xdf\xca\x96\xea\xbd\xe2?'
p7225
tp7226
Rp7227
ag2
(g22
S'y\xc7\x07\x1e\x8b\x11\xd7?'
p7228
tp7229
Rp7230
ag2
(g22
S'\x9d\xd7\xd8%\xaa\xc0n@'
p7231
tp7232
Rp7233
ag2
(g22
S'\x00\x00\x00\x00\x00\x00\x00\x00'
p7234
tp7235
Rp7236
ag2
(g22
S"'1\x08\xac\x1cFl@"
p7237
tp7238
Rp7239
aF0.399
aF0.87
aF0.605
aF0.089
aF-15.708
aF0.147
aF81.123
aF0.96
aa(lp7240
g2
(g3
(S'S4'
p7241
I0
I1
tp7242
Rp7243
(I3
S'|'
p7244
NNNI4
I1
I0
tp7245
bS'Nana'
p7246
tp7247
Rp7248
ag2
(g3
(S'S13'
p7249
I0
I1
tp7250
Rp7251
(I3
S'|'
p7252
NNNI13
I1
I0
tp7253
bS'Marilyn Horne'
p7254
tp7255
Rp7256
ag2
(g22
S'\xf6\n}\xce\xf2\x88\xdc?'
p7257
tp7258
Rp7259
ag2
(g22
S'8\xc4\x01O\x89\xf8\xd3?'
p7260
tp7261
Rp7262
ag2
(g22
S'\xb96T\x8c\xf3W[@'
p7263
tp7264
Rp7265
ag2
(g22
S'\xe3\xa5\x9b\xc4 \xb0\x15@'
p7266
tp7267
Rp7268
ag2
(g22
S'\xa6\x9b\xc4 \xb02X@'
p7269
tp7270
Rp7271
aF0.993
aF0.292
aF0.138
aF0.511
aF-18.864
aF0.0454
aF100.737
aF0.0397
aa(lp7272
g2
(g3
(S'S7'
p7273
I0
I1
tp7274
Rp7275
(I3
S'|'
p7276
NNNI7
I1
I0
tp7277
bS'Eres Tu'
p7278
tp7279
Rp7280
ag2
(g3
(S'S16'
p7281
I0
I1
tp7282
Rp7283
(I3
S'|'
p7284
NNNI16
I1
I0
tp7285
bS'Mongo Santamaria'
p7286
tp7287
Rp7288
ag2
(g22
S"\xcb'\xcf>\xfdG\xe1?"
p7289
tp7290
Rp7291
ag2
(g22
S'\xce\xb3\x19\x06\x1d\x0b\xd7?'
p7292
tp7293
Rp7294
ag2
(g22
S'\x18&S\x05\xa3\xd2h@'
p7295
tp7296
Rp7297
ag2
(g22
S'\x0c\x02+\x87\x16\xd9\xce?'
p7298
tp7299
Rp7300
ag2
(g22
S'\x12\x83\xc0\xca\xa1Mh@'
p7301
tp7302
Rp7303
aF0.638
aF0.724
aF0.509
aI0
aF-10.392
aF0.0508
aF141.999
aF0.961
aa(lp7304
g2
(g3
(S'S19'
p7305
I0
I1
tp7306
Rp7307
(I3
S'|'
p7308
NNNI19
I1
I0
tp7309
bS'Give It All You Got'
p7310
tp7311
Rp7312
ag2
(g3
(S'S8'
p7313
I0
I1
tp7314
Rp7315
(I3
S'|'
p7316
NNNI8
I1
I0
tp7317
bS'DJ Primo'
p7318
tp7319
Rp7320
ag2
(g22
S'\x9dB\na\xe0Q\xe0?'
p7321
tp7322
Rp7323
ag2
(g22
S'D\x88\xd3Z\xa9\xab\xcf?'
p7324
tp7325
Rp7326
ag2
(g22
S'\xd3\xf6\xaf\xac4bn@'
p7327
tp7328
Rp7329
ag2
(g22
S'\x00\x00\x00\x00\x00\x00\x00\x00'
p7330
tp7331
Rp7332
ag2
(g22
S'\x10X9\xb4\xc8fm@'
p7333
tp7334
Rp7335
aF0.123
aF0.455
aF0.997
aF0.781
aF-11.336
aF0.114
aF150.735
aF0.0376
aa(lp7336
g2
(g3
(S'S16'
p7337
I0
I1
tp7338
Rp7339
(I3
S'|'
p7340
NNNI16
I1
I0
tp7341
bS'Ducktails - Moon'
p7342
tp7343
Rp7344
ag2
(g3
(S'S13'
p7345
I0
I1
tp7346
Rp7347
(I3
S'|'
p7348
NNNI13
I1
I0
tp7349
bS'The Advantage'
p7350
tp7351
Rp7352
ag2
(g22
S';&\xa5\xc4b\xa2\xe3?'
p7353
tp7354
Rp7355
ag2
(g22
S'\xb4\xf9\x81\xe4\xc3;\xd8?'
p7356
tp7357
Rp7358
ag2
(g22
S'5\xd2Ry;\xc0X@'
p7359
tp7360
Rp7361
ag2
(g22
S'\xa6\x9b\xc4 \xb0r\xd0?'
p7362
tp7363
Rp7364
ag2
(g22
S'\xc7K7\x89A\xc0X@'
p7365
tp7366
Rp7367
aF0.325
aF0.478
aF0.96
aF0.545
aF-7.579
aF0.119
aF92.157
aF0.769
aa(lp7368
g2
(g3
(S'S15'
p7369
I0
I1
tp7370
Rp7371
(I3
S'|'
p7372
NNNI15
I1
I0
tp7373
bS'The Way Love Is'
p7374
tp7375
Rp7376
ag2
(g3
(S'S25'
p7377
I0
I1
tp7378
Rp7379
(I3
S'|'
p7380
NNNI25
I1
I0
tp7381
bS'Captain Hollywood Project'
p7382
tp7383
Rp7384
ag2
(g22
S'\xa0\xd2\xd3;V\xcb\xe0?'
p7385
tp7386
Rp7387
ag2
(g22
S'\xa7\xa901\xaa-\xd7?'
p7388
tp7389
Rp7390
ag2
(g22
S'\x83\xdd\xb0m\xd1%u@'
p7391
tp7392
Rp7393
ag2
(g22
S'\x00\x00\x00\x00\x00\x00\x00\x00'
p7394
tp7395
Rp7396
ag2
(g22
S'\x83\xc0\xca\xa1E\xd2t@'
p7397
tp7398
Rp7399
aF0.00411
aF0.537
aF0.828
aF0.031
aF-8.58
aF0.0339
aF150.016
aF0.391
aa(lp7400
g2
(g3
(S'S13'
p7401
I0
I1
tp7402
Rp7403
(I3
S'|'
p7404
NNNI13
I1
I0
tp7405
bS'Never My Love'
p7406
tp7407
Rp7408
ag2
(g3
(S'S14'
p7409
I0
I1
tp7410
Rp7411
(I3
S'|'
p7412
NNNI14
I1
I0
tp7413
bS'Kathy Troccoli'
p7414
tp7415
Rp7416
ag2
(g22
S'c\xa1 I\xbd\x13\xe1?'
p7417
tp7418
Rp7419
ag2
(g22
S'\x16\x8e\xe59\xa2i\xd7?'
p7420
tp7421
Rp7422
ag2
(g22
S't\x07\xb13\x85io@'
p7423
tp7424
Rp7425
ag2
(g22
S'?5^\xbaI\x0c\xd2?'
p7426
tp7427
Rp7428
ag2
(g22
S'\x14\xaeG\xe1z\xd0m@'
p7429
tp7430
Rp7431
aF0.588
aF0.38
aF0.354
aF2.71e-06
aF-10.902
aF0.0322
aF169.426
aF0.207
aa(lp7432
g2
(g3
(S'S10'
p7433
I0
I1
tp7434
Rp7435
(I3
S'|'
p7436
NNNI10
I1
I0
tp7437
bS'Akhm Nakon'
p7438
tp7439
Rp7440
ag2
(g3
(S'S5'
p7441
I0
I1
tp7442
Rp7443
(I3
S'|'
p7444
NNNI5
I1
I0
tp7445
bS'Saman'
p7446
tp7447
Rp7448
ag2
(g22
S'\x0f\xb2\x95\xe5\xf0\x91\xe8?'
p7449
tp7450
Rp7451
ag2
(g22
S'\xdd\xbcL\xeb/l\xd4?'
p7452
tp7453
Rp7454
ag2
(g22
S'j\xfbWV\x1a1u@'
p7455
tp7456
Rp7457
ag2
(g22
S'\x89A`\xe5\xd0"\xcb?'
p7458
tp7459
Rp7460
ag2
(g22
S'\xf8S\xe3\xa5\x9bzt@'
p7461
tp7462
Rp7463
aF0.121
aF0.723
aF0.705
aF0.000241
aF-9.015
aF0.0349
aF174.151
aF0.898
aa(lp7464
g2
(g3
(S'S11'
p7465
I0
I1
tp7466
Rp7467
(I3
S'|'
p7468
NNNI11
I1
I0
tp7469
bS'You Left Me'
p7470
tp7471
Rp7472
ag2
(g3
(S'S9'
p7473
I0
I1
tp7474
Rp7475
(I3
S'|'
p7476
NNNI9
I1
I0
tp7477
bS'The Maine'
p7478
tp7479
Rp7480
ag2
(g22
S"\xff\x80\xd2'F\xa6\xec?"
p7481
tp7482
Rp7483
ag2
(g22
S'\xb8R\xa6fm\xbf\xe2?'
p7484
tp7485
Rp7486
ag2
(g22
S'C\xff\x04\x17+ j@'
p7487
tp7488
Rp7489
ag2
(g22
S'\xdb\xf9~j\xbct\xb3?'
p7490
tp7491
Rp7492
ag2
(g22
S'X9\xb4\xc8v\xbai@'
p7493
tp7494
Rp7495
aF0.00144
aF0.566
aF0.813
aF0.000105
aF-4.844
aF0.0369
aF129.998
aF0.341
aa(lp7496
g2
(g3
(S'S45'
p7497
I0
I1
tp7498
Rp7499
(I3
S'|'
p7500
NNNI45
I1
I0
tp7501
bS'Keep It Going Louder (Tom Stephan Harder Mix)'
p7502
tp7503
Rp7504
ag2
(g3
(S'S11'
p7505
I0
I1
tp7506
Rp7507
(I3
S'|'
p7508
NNNI11
I1
I0
tp7509
bS'Major Lazer'
p7510
tp7511
Rp7512
ag2
(g22
S'\x14\x0b\xb1\xad\xa6\xa4\xd9?'
p7513
tp7514
Rp7515
ag2
(g22
S'\xbcJ\x84\x81vC\xce?'
p7516
tp7517
Rp7518
ag2
(g22
S"\xd0'\xf2$i\x00v@"
p7519
tp7520
Rp7521
ag2
(g22
S'\x00\x00\x00\x00\x00\x00\x00\x00'
p7522
tp7523
Rp7524
ag2
(g22
S'#\xdb\xf9~j\x00v@'
p7525
tp7526
Rp7527
aF0.0712
aF0.703
aF0.807
aF0.00146
aF-6.344
aF0.162
aF127.99
aF0.535
aa(lp7528
g2
(g3
(S'S20'
p7529
I0
I1
tp7530
Rp7531
(I3
S'|'
p7532
NNNI20
I1
I0
tp7533
bS'February Song [Live]'
p7534
tp7535
Rp7536
ag2
(g3
(S'S11'
p7537
I0
I1
tp7538
Rp7539
(I3
S'|'
p7540
NNNI11
I1
I0
tp7541
bS'Josh Groban'
p7542
tp7543
Rp7544
ag2
(g22
S'\xd9\xe9\x9b\xfd\xcd}\xe8?'
p7545
tp7546
Rp7547
ag2
(g22
S'\xf5$\x85&0*\xe8?'
p7548
tp7549
Rp7550
ag2
(g22
S'\x0e\x15\xe3\xfcMrs@'
p7551
tp7552
Rp7553
ag2
(g22
S'\x00\x00\x00\x00\x00\x00\x00\x00'
p7554
tp7555
Rp7556
ag2
(g22
S'\xfc\xa9\xf1\xd2Mrs@'
p7557
tp7558
Rp7559
aF0.68
aF0.439
aF0.377
aF0.000239
aF-8.771
aF0.0298
aF139.933
aF0.154
aa(lp7560
g2
(g3
(S'S14'
p7561
I0
I1
tp7562
Rp7563
(I3
S'|'
p7564
NNNI14
I1
I0
tp7565
bS"Don't Cha Know"
p7566
tp7567
Rp7568
ag2
(g3
(S'S14'
p7569
I0
I1
tp7570
Rp7571
(I3
S'|'
p7572
NNNI14
I1
I0
tp7573
bS'Jimmie Vaughan'
p7574
tp7575
Rp7576
ag2
(g22
S'\x0cP\xd4\xa2\x946\xe4?'
p7577
tp7578
Rp7579
ag2
(g22
S'\xb16s\xea\xae@\xdd?'
p7580
tp7581
Rp7582
ag2
(g22
S'\x8e\xaf=\xb3\xa4Kp@'
p7583
tp7584
Rp7585
ag2
(g22
S'-\xb2\x9d\xef\xa7F\x12@'
p7586
tp7587
Rp7588
ag2
(g22
S'\xcd\xcc\xcc\xcc\xcc\xb4n@'
p7589
tp7590
Rp7591
aF0.29
aF0.644
aF0.727
aF0.00025
aF-9.459
aF0.0453
aF127.93
aF0.94
aa(lp7592
g2
(g3
(S'S12'
p7593
I0
I1
tp7594
Rp7595
(I3
S'|'
p7596
NNNI12
I1
I0
tp7597
bS'Take Her Out'
p7598
tp7599
Rp7600
ag2
(g3
(S'S15'
p7601
I0
I1
tp7602
Rp7603
(I3
S'|'
p7604
NNNI15
I1
I0
tp7605
bS'Alice In Chains'
p7606
tp7607
Rp7608
ag2
(g22
S'\x94qd\xdb\x97{\xe9?'
p7609
tp7610
Rp7611
ag2
(g22
S'O\x9f_&K\xa7\xe2?'
p7612
tp7613
Rp7614
ag2
(g22
S'\xdch\x00o\x81\xebm@'
p7615
tp7616
Rp7617
ag2
(g22
S'\x00\x00\x00\x00\x00\x00\x00\x00'
p7618
tp7619
Rp7620
ag2
(g22
S'm\xe7\xfb\xa9\xf1~m@'
p7621
tp7622
Rp7623
aF2.85e-05
aF0.422
aF0.841
aF0.000446
aF-4.829
aF0.0406
aF97.063
aF0.513
aa(lp7624
g2
(g3
(S'S17'
p7625
I0
I1
tp7626
Rp7627
(I3
S'|'
p7628
NNNI17
I1
I0
tp7629
bS"Happy Valentine's"
p7630
tp7631
Rp7632
ag2
(g3
(S'S9'
p7633
I0
I1
tp7634
Rp7635
(I3
S'|'
p7636
NNNI9
I1
I0
tp7637
bS'Toby Love'
p7638
tp7639
Rp7640
ag2
(g22
S' Y \xbd\x05^\xe6?'
p7641
tp7642
Rp7643
ag2
(g22
S'\x80\xef\x87\xf0\x0f9\xd9?'
p7644
tp7645
Rp7646
ag2
(g22
S'\xe80_^\x80Hi@'
p7647
tp7648
Rp7649
ag2
(g22
S'Zd;\xdfO\x8d\xc7?'
p7650
tp7651
Rp7652
ag2
(g22
S'`\xe5\xd0"\xdbqh@'
p7653
tp7654
Rp7655
aF0.306
aF0.816
aF0.724
aI0
aF-3.091
aF0.0352
aF135.935
aF0.833
aa(lp7656
g2
(g3
(S'S13'
p7657
I0
I1
tp7658
Rp7659
(I3
S'|'
p7660
NNNI13
I1
I0
tp7661
bS"'57 Chevrolet"
p7662
tp7663
Rp7664
ag2
(g3
(S'S16'
p7665
I0
I1
tp7666
Rp7667
(I3
S'|'
p7668
NNNI16
I1
I0
tp7669
bS'Billie Jo Spears'
p7670
tp7671
Rp7672
ag2
(g22
S'>(\xc72E\xc2\xe0?'
p7673
tp7674
Rp7675
ag2
(g22
S's\xd6\xd2\xcew\x9d\xd8?'
p7676
tp7677
Rp7678
ag2
(g22
S';\xe4f\xb8\x01\xb6e@'
p7679
tp7680
Rp7681
ag2
(g22
S'\x8d\x97n\x12\x83\xc0\xee?'
p7682
tp7683
Rp7684
ag2
(g22
S'9\xb4\xc8v\xbe+d@'
p7685
tp7686
Rp7687
aF0.407
aF0.604
aF0.681
aF3.08e-06
aF-9.889
aF0.0252
aF94.298
aF0.897
aa(lp7688
g2
(g3
(S'S25'
p7689
I0
I1
tp7690
Rp7691
(I3
S'|'
p7692
NNNI25
I1
I0
tp7693
bS'The Battle Of New Orleans'
p7694
tp7695
Rp7696
ag2
(g3
(S'S13'
p7697
I0
I1
tp7698
Rp7699
(I3
S'|'
p7700
NNNI13
I1
I0
tp7701
bS'Johnny Horton'
p7702
tp7703
Rp7704
ag2
(g22
S'3?\x82\xb9\x9f\x88\xe3?'
p7705
tp7706
Rp7707
ag2
(g22
S'\x06Wf\xbe\xf2\n\xdc?'
p7708
tp7709
Rp7710
ag2
(g22
S'^\xa2zk`\x99b@'
p7711
tp7712
Rp7713
ag2
(g22
S'\x10X9\xb4\xc8v\xce?'
p7714
tp7715
Rp7716
ag2
(g22
S'Zd;\xdfOYa@'
p7717
tp7718
Rp7719
aF0.803
aF0.703
aF0.753
aI0
aF-11.783
aF0.135
aF177.162
aF0.921
aa(lp7720
g2
(g3
(S'S15'
p7721
I0
I1
tp7722
Rp7723
(I3
S'|'
p7724
NNNI15
I1
I0
tp7725
bS'Lover In Demand'
p7726
tp7727
Rp7728
ag2
(g3
(S'S17'
p7729
I0
I1
tp7730
Rp7731
(I3
S'|'
p7732
NNNI17
I1
I0
tp7733
bS'Delbert McClinton'
p7734
tp7735
Rp7736
ag2
(g22
S'Lu\xa7\x9e\xc8e\xe6?'
p7737
tp7738
Rp7739
ag2
(g22
S"f'40_\xc7\xdc?"
p7740
tp7741
Rp7742
ag2
(g22
S'\xfc\x1d\x8a\x02}VZ@'
p7743
tp7744
Rp7745
ag2
(g22
S'\x93\x18\x04V\x0e-\xc2?'
p7746
tp7747
Rp7748
ag2
(g22
S'\xd1"\xdb\xf9~\xd2W@'
p7749
tp7750
Rp7751
aF0.799
aF0.502
aF0.588
aI0
aF-9.197
aF0.0463
aF112.526
aF0.865
aa(lp7752
g2
(g3
(S'S50'
p7753
I0
I1
tp7754
Rp7755
(I3
S'|'
p7756
NNNI50
I1
I0
tp7757
bS'Speed Of Sound (Emergency Broadcast Album Version)'
p7758
tp7759
Rp7760
ag2
(g3
(S'S11'
p7761
I0
I1
tp7762
Rp7763
(I3
S'|'
p7764
NNNI11
I1
I0
tp7765
bS'White Heart'
p7766
tp7767
Rp7768
ag2
(g22
S'\xc8\x83\x0b\xe4$\x8d\xde?'
p7769
tp7770
Rp7771
ag2
(g22
S'\xb5FH,\xb8\x99\xd5?'
p7772
tp7773
Rp7774
ag2
(g22
S'9(a\xa6\xed\x15g@'
p7775
tp7776
Rp7777
ag2
(g22
S'\x04V\x0e-\xb2\x9d\xcf?'
p7778
tp7779
Rp7780
ag2
(g22
S'\x17\xd9\xce\xf7S\xabf@'
p7781
tp7782
Rp7783
aF0.00883
aF0.557
aF0.907
aF1.75e-05
aF-9.953
aF0.0474
aF104.404
aF0.65
aa(lp7784
g2
(g3
(S'S9'
p7785
I0
I1
tp7786
Rp7787
(I3
S'|'
p7788
NNNI9
I1
I0
tp7789
bS'Evergreen'
p7790
tp7791
Rp7792
ag2
(g3
(S'S9'
p7793
I0
I1
tp7794
Rp7795
(I3
S'|'
p7796
NNNI9
I1
I0
tp7797
bS'Rubyhorse'
p7798
tp7799
Rp7800
ag2
(g22
S'\xf6\xb6\xa3t\xea\x82\xe1?'
p7801
tp7802
Rp7803
ag2
(g22
S'\xf30S%\x82\x19\xd6?'
p7804
tp7805
Rp7806
ag2
(g22
S'\xd2\xe3\xf76}\xa0p@'
p7807
tp7808
Rp7809
ag2
(g22
S'\x00\x00\x00\x00\x00\x00\x00\x00'
p7810
tp7811
Rp7812
ag2
(g22
S'\xd1"\xdb\xf9~\xa0p@'
p7813
tp7814
Rp7815
aF0.00236
aF0.508
aF0.814
aF0.00805
aF-6.476
aF0.0511
aF129.893
aF0.315
aa(lp7816
g2
(g3
(S'S16'
p7817
I0
I1
tp7818
Rp7819
(I3
S'|'
p7820
NNNI16
I1
I0
tp7821
bS'Unbreak My Heart'
p7822
tp7823
Rp7824
ag2
(g3
(S'S16'
p7825
I0
I1
tp7826
Rp7827
(I3
S'|'
p7828
NNNI16
I1
I0
tp7829
bS"Alexander O'Neal"
p7830
tp7831
Rp7832
ag2
(g22
S't\xbd1Z\xf1}\xe3?'
p7833
tp7834
Rp7835
ag2
(g22
S'\xed\xd2\xddGo\x97\xdd?'
p7836
tp7837
Rp7838
ag2
(g22
S'r\xfe&\x14"\xb4p@'
p7839
tp7840
Rp7841
ag2
(g22
S'\x93\x18\x04V\x0e-\xc2?'
p7842
tp7843
Rp7844
ag2
(g22
S'P\x8d\x97n\x12;p@'
p7845
tp7846
Rp7847
aF0.00859
aF0.632
aF0.523
aI0
aF-7.509
aF0.0256
aF109.981
aF0.302
aa(lp7848
g2
(g3
(S'S14'
p7849
I0
I1
tp7850
Rp7851
(I3
S'|'
p7852
NNNI14
I1
I0
tp7853
bS'Wailing Sounds'
p7854
tp7855
Rp7856
ag2
(g3
(S'S10'
p7857
I0
I1
tp7858
Rp7859
(I3
S'|'
p7860
NNNI10
I1
I0
tp7861
bS'Jimmy Page'
p7862
tp7863
Rp7864
ag2
(g22
S'w\x02\xf3m\x16k\xe7?'
p7865
tp7866
Rp7867
ag2
(g22
S'\xc6)\xe3\xed82\xdb?'
p7868
tp7869
Rp7870
ag2
(g22
S'v\xfd\x82\xdd\xb0\xa0c@'
p7871
tp7872
Rp7873
ag2
(g22
S'\x00\x00\x00\x00\x00\x00\x00\x00'
p7874
tp7875
Rp7876
ag2
(g22
S'w\xbe\x9f\x1a/!c@'
p7877
tp7878
Rp7879
aF0.519
aF0.397
aF0.841
aF0.00731
aF-8.634
aF0.0629
aF80.821
aF0.499
aa(lp7880
g2
(g3
(S'S12'
p7881
I0
I1
tp7882
Rp7883
(I3
S'|'
p7884
NNNI12
I1
I0
tp7885
bS'Tuscan Chica'
p7886
tp7887
Rp7888
ag2
(g3
(S'S11'
p7889
I0
I1
tp7890
Rp7891
(I3
S'|'
p7892
NNNI11
I1
I0
tp7893
bS'Soul Ballet'
p7894
tp7895
Rp7896
ag2
(g22
S'\x01\xc8@,`\x8f\xdf?'
p7897
tp7898
Rp7899
ag2
(g22
S'\xb2\xb2\xca\x9c\x84\x9b\xd6?'
p7900
tp7901
Rp7902
ag2
(g22
S'Y\x868\xd6E\xe1|@'
p7903
tp7904
Rp7905
ag2
(g22
S'\x00\x00\x00\x00\x00\x00\x00\x00'
p7906
tp7907
Rp7908
ag2
(g22
S'\xdb\xf9~j\xbcZ|@'
p7909
tp7910
Rp7911
aF0.00872
aF0.808
aF0.534
aF0.807
aF-7.047
aF0.0722
aF100.99
aF0.684
aa(lp7912
g2
(g3
(S'S5'
p7913
I0
I1
tp7914
Rp7915
(I3
S'|'
p7916
NNNI5
I1
I0
tp7917
bS'Spent'
p7918
tp7919
Rp7920
ag2
(g3
(S'S21'
p7921
I0
I1
tp7922
Rp7923
(I3
S'|'
p7924
NNNI21
I1
I0
tp7925
bS"Darwin's Waiting Room"
p7926
tp7927
Rp7928
ag2
(g22
S'\x92\xe0\x9f\x9f\xfdD\xe0?'
p7929
tp7930
Rp7931
ag2
(g22
S'a\x8c\xe9G\xf1}\xd5?'
p7932
tp7933
Rp7934
ag2
(g22
S'\x8a\xb0\xe1\xe9\x95\x99i@'
p7935
tp7936
Rp7937
ag2
(g22
S'D\x8bl\xe7\xfb\xa9\xd1?'
p7938
tp7939
Rp7940
ag2
(g22
S'\x9a\x99\x99\x99\x99\x99i@'
p7941
tp7942
Rp7943
aF0.00395
aF0.63
aF0.85
aF0.000127
aF-6.311
aF0.111
aF105.037
aF0.539
aa(lp7944
g2
(g3
(S'S19'
p7945
I0
I1
tp7946
Rp7947
(I3
S'|'
p7948
NNNI19
I1
I0
tp7949
bS"It's All Understood"
p7950
tp7951
Rp7952
ag2
(g3
(S'S12'
p7953
I0
I1
tp7954
Rp7955
(I3
S'|'
p7956
NNNI12
I1
I0
tp7957
bS'Jack Johnson'
p7958
tp7959
Rp7960
ag2
(g22
S'}\xe2I%\xd7\x9f\xea?'
p7961
tp7962
Rp7963
ag2
(g22
S'\x97I7X\x0c\x94\xe4?'
p7964
tp7965
Rp7966
ag2
(g22
S'\x99\x9e\xb0\xc4\x03\xfcj@'
p7967
tp7968
Rp7969
ag2
(g22
S'\xa8\xc6K7\x89A\x0f@'
p7970
tp7971
Rp7972
ag2
(g22
S'\x85\xebQ\xb8\x1eQj@'
p7973
tp7974
Rp7975
aF0.83
aF0.696
aF0.25
aF0.574
aF-12.544
aF0.0338
aF120.843
aF0.165
aa(lp7976
g2
(g3
(S'S23'
p7977
I0
I1
tp7978
Rp7979
(I3
S'|'
p7980
NNNI23
I1
I0
tp7981
bS'The Sun is here for you'
p7982
tp7983
Rp7984
ag2
(g3
(S'S12'
p7985
I0
I1
tp7986
Rp7987
(I3
S'|'
p7988
NNNI12
I1
I0
tp7989
bS'Jane Winther'
p7990
tp7991
Rp7992
ag2
(g22
S'\x81\xd3`\xef#P\xd4?'
p7993
tp7994
Rp7995
ag2
(g22
S'd\xaf\xf2M%\x19\xd6?'
p7996
tp7997
Rp7998
ag2
(g22
S'\x9f\xb0\xc4\x03Jmq@'
p7999
tp8000
Rp8001
ag2
(g22
S'\x8bl\xe7\xfb\xa9\xf1\xc2?'
p8002
tp8003
Rp8004
ag2
(g22
S'}?5^\xbaop@'
p8005
tp8006
Rp8007
aF0.932
aF0.499
aF0.15
aF0.003
aF-14.74
aF0.0284
aF135.119
aF0.0671
aa(lp8008
g2
(g3
(S'S7'
p8009
I0
I1
tp8010
Rp8011
(I3
S'|'
p8012
NNNI7
I1
I0
tp8013
bS'Cabaret'
p8014
tp8015
Rp8016
ag2
(g3
(S'S17'
p8017
I0
I1
tp8018
Rp8019
(I3
S'|'
p8020
NNNI17
I1
I0
tp8021
bS'Mademoiselle Sane'
p8022
tp8023
Rp8024
ag2
(g22
S'\xa0\x8a{b\xda\x13\xd9?'
p8025
tp8026
Rp8027
ag2
(g22
S'>Ot\xcbV\x91\xd6?'
p8028
tp8029
Rp8030
ag2
(g22
S'\x18\xb2\xba\xd5s\xa4e@'
p8031
tp8032
Rp8033
ag2
(g22
S'H\xe1z\x14\xaeG\xd9?'
p8034
tp8035
Rp8036
ag2
(g22
S'\xcb\xa1E\xb6\xf3\xe9d@'
p8037
tp8038
Rp8039
aF0.638
aF0.687
aF0.738
aI0
aF-5.682
aF0.0558
aF121.892
aF0.96
aa(lp8040
g2
(g3
(S'S10'
p8041
I0
I1
tp8042
Rp8043
(I3
S'|'
p8044
NNNI10
I1
I0
tp8045
bS'Al maestro'
p8046
tp8047
Rp8048
ag2
(g3
(S'S9'
p8049
I0
I1
tp8050
Rp8051
(I3
S'|'
p8052
NNNI9
I1
I0
tp8053
bS'El Barrio'
p8054
tp8055
Rp8056
ag2
(g22
S'K\x88[r\xc2\x17\xe2?'
p8057
tp8058
Rp8059
ag2
(g22
S'\xdd\xd5^6&e\xd6?'
p8060
tp8061
Rp8062
ag2
(g22
S'\x0eJ\x98i\xfb$s@'
p8063
tp8064
Rp8065
ag2
(g22
S'\xc7K7\x89A`\xd5?'
p8066
tp8067
Rp8068
ag2
(g22
S'\xbe\x9f\x1a/\xdd\x84r@'
p8069
tp8070
Rp8071
aF0.266
aF0.665
aF0.708
aF0.0013
aF-8.66
aF0.083
aF120.176
aF0.4
aa(lp8072
g2
(g3
(S'S8'
p8073
I0
I1
tp8074
Rp8075
(I3
S'|'
p8076
NNNI8
I1
I0
tp8077
bS'The Ball'
p8078
tp8079
Rp8080
ag2
(g3
(S'S22'
p8081
I0
I1
tp8082
Rp8083
(I3
S'|'
p8084
NNNI22
I1
I0
tp8085
bS'Harry Gregson-Williams'
p8086
tp8087
Rp8088
ag2
(g22
S'\xe4\x98\x7fl\x97\xee\xe3?'
p8089
tp8090
Rp8091
ag2
(g22
S'Md\x9c\x18\r\x85\xdd?'
p8092
tp8093
Rp8094
ag2
(g22
S'\x0c\x02+\x87\x16iQ@'
p8095
tp8096
Rp8097
ag2
(g22
S'`\xe5\xd0"\xdb\xf9\xde?'
p8098
tp8099
Rp8100
ag2
(g22
S'\xb0rh\x91\xedlO@'
p8101
tp8102
Rp8103
aF0.021
aF0.313
aF0.401
aF0.0503
aF-8.821
aF0.0349
aF151.156
aF0.628
aa(lp8104
g2
(g3
(S'S15'
p8105
I0
I1
tp8106
Rp8107
(I3
S'|'
p8108
NNNI15
I1
I0
tp8109
bS"All That's Left"
p8110
tp8111
Rp8112
ag2
(g3
(S'S6'
p8113
I0
I1
tp8114
Rp8115
(I3
S'|'
p8116
NNNI6
I1
I0
tp8117
bS'Thrice'
p8118
tp8119
Rp8120
ag2
(g22
S'/U\xe6/\x92\xf1\xeb?'
p8121
tp8122
Rp8123
ag2
(g22
S'\x1c\xbd\x12\xa5\x8e\xa3\xe0?'
p8124
tp8125
Rp8126
ag2
(g22
S'\xcb-\xad\x86\xc42i@'
p8127
tp8128
Rp8129
ag2
(g22
S'\x93\x18\x04V\x0e-\xc2?'
p8130
tp8131
Rp8132
ag2
(g22
S'\xc9v\xbe\x9f\x1a\xa3h@'
p8133
tp8134
Rp8135
aF9.34e-05
aF0.487
aF0.985
aF0.46
aF-2.322
aF0.0882
aF183.016
aF0.537
aa(lp8136
g2
(g3
(S'S15'
p8137
I0
I1
tp8138
Rp8139
(I3
S'|'
p8140
NNNI15
I1
I0
tp8141
bS'The Song Is You'
p8142
tp8143
Rp8144
ag2
(g3
(S'S11'
p8145
I0
I1
tp8146
Rp8147
(I3
S'|'
p8148
NNNI11
I1
I0
tp8149
bS'Percy Faith'
p8150
tp8151
Rp8152
ag2
(g22
S'\xae\xa0\\\\2#\xe2?'
p8153
tp8154
Rp8155
ag2
(g22
S'\x80\x1f\xaa\xf5\xd6\xd6\xd8?'
p8156
tp8157
Rp8158
ag2
(g22
S'\xba1=a\x89\xf5a@'
p8159
tp8160
Rp8161
ag2
(g22
S'\x00\x00\x00\x00\x00\x00\x00\x00'
p8162
tp8163
Rp8164
ag2
(g22
S'\x00\x00\x00\x00\x00\xa4a@'
p8165
tp8166
Rp8167
aF0.874
aF0.226
aF0.404
aF0.0126
aF-7.799
aF0.0316
aF82.088
aF0.23
aa(lp8168
g2
(g3
(S'S10'
p8169
I0
I1
tp8170
Rp8171
(I3
S'|'
p8172
NNNI10
I1
I0
tp8173
bS'Idnnitkhtr'
p8174
tp8175
Rp8176
ag2
(g3
(S'S6'
p8177
I0
I1
tp8178
Rp8179
(I3
S'|'
p8180
NNNI6
I1
I0
tp8181
bS'TAKARU'
p8182
tp8183
Rp8184
ag2
(g22
S'\x07T\x95\x97\x88\xd2\xde?'
p8185
tp8186
Rp8187
ag2
(g22
S'\x1f\x9f>v`i\xd6?'
p8188
tp8189
Rp8190
ag2
(g22
S'~\x18!<\xda\n`@'
p8191
tp8192
Rp8193
ag2
(g22
S'\x00\x00\x00\x00\x00\x00\x00\x00'
p8194
tp8195
Rp8196
ag2
(g22
S'\x02+\x87\x16\xd9\n`@'
p8197
tp8198
Rp8199
aF0.00262
aF0.3
aF0.981
aF0.927
aF-6.274
aF0.097
aF132.982
aF0.0394
aa(lp8200
g2
(g3
(S'S12'
p8201
I0
I1
tp8202
Rp8203
(I3
S'|'
p8204
NNNI12
I1
I0
tp8205
bS'Looking Back'
p8206
tp8207
Rp8208
ag2
(g3
(S'S31'
p8209
I0
I1
tp8210
Rp8211
(I3
S'|'
p8212
NNNI31
I1
I0
tp8213
bS'John Mayall & The Bluesbreakers'
p8214
tp8215
Rp8216
ag2
(g22
S'.\xa2Vc\xc5\x0e\xe4?'
p8217
tp8218
Rp8219
ag2
(g22
S'\xdc\xbd\x08|]\xef\xd9?'
p8220
tp8221
Rp8222
ag2
(g22
S'\xd1?\xc1\xc5\x8a\xa6c@'
p8223
tp8224
Rp8225
ag2
(g22
S'\xdb\xf9~j\xbct\x05@'
p8226
tp8227
Rp8228
ag2
(g22
S'\xe7\xfb\xa9\xf1\xd2qb@'
p8229
tp8230
Rp8231
aF0.291
aF0.369
aF0.523
aF0.00351
aF-9.144
aF0.0326
aF121.435
aF0.843
aa(lp8232
g2
(g3
(S'S21'
p8233
I0
I1
tp8234
Rp8235
(I3
S'|'
p8236
NNNI21
I1
I0
tp8237
bS'Old Man Rocking Chair'
p8238
tp8239
Rp8240
ag2
(g3
(S'S13'
p8241
I0
I1
tp8242
Rp8243
(I3
S'|'
p8244
NNNI13
I1
I0
tp8245
bS'John Williams'
p8246
tp8247
Rp8248
ag2
(g22
S'\xaa\xad\xf3v\xb7\x91\xe6?'
p8249
tp8250
Rp8251
ag2
(g22
S'\xa7\x93\xb6\x92\xb4\x8d\xe0?'
p8252
tp8253
Rp8254
ag2
(g22
S'\x82\xff\xadd\xc7\x94`@'
p8255
tp8256
Rp8257
ag2
(g22
S'\x00\x00\x00\x00\x00\x00\x00\x00'
p8258
tp8259
Rp8260
ag2
(g22
S'\xe1z\x14\xaeG\xa1]@'
p8261
tp8262
Rp8263
aF0.72
aF0.552
aF0.14
aF0.832
aF-10.704
aF0.0648
aF91.456
aF0.579
aa(lp8264
g2
(g3
(S'S25'
p8265
I0
I1
tp8266
Rp8267
(I3
S'|'
p8268
NNNI25
I1
I0
tp8269
bS'Need To Belong To Someone'
p8270
tp8271
Rp8272
ag2
(g3
(S'S15'
p8273
I0
I1
tp8274
Rp8275
(I3
S'|'
p8276
NNNI15
I1
I0
tp8277
bS'The Impressions'
p8278
tp8279
Rp8280
ag2
(g22
S' \x06\xdb\xe5WC\xe4?'
p8281
tp8282
Rp8283
ag2
(g22
S'\xd8V\x98W~A\xda?'
p8284
tp8285
Rp8286
ag2
(g22
S'@\x18x\xee=\x96m@'
p8287
tp8288
Rp8289
ag2
(g22
S'\x14\xaeG\xe1z\x14\xd6?'
p8290
tp8291
Rp8292
ag2
(g22
S'\x17\xd9\xce\xf7S\xdbk@'
p8293
tp8294
Rp8295
aF0.516
aF0.416
aF0.684
aF1.98e-06
aF-7.152
aF0.131
aF161.989
aF0.598
aa(lp8296
g2
(g3
(S'S16'
p8297
I0
I1
tp8298
Rp8299
(I3
S'|'
p8300
NNNI16
I1
I0
tp8301
bS"I Can't Stand It"
p8302
tp8303
Rp8304
ag2
(g3
(S'S9'
p8305
I0
I1
tp8306
Rp8307
(I3
S'|'
p8308
NNNI9
I1
I0
tp8309
bS'Sam Baker'
p8310
tp8311
Rp8312
ag2
(g22
S'\xab\xb8T\xd8\xd1\x06\xe6?'
p8313
tp8314
Rp8315
ag2
(g22
S'\xf7\tR6Y\xdb\xd5?'
p8316
tp8317
Rp8318
ag2
(g22
S'O]\xf9,\xcf\x17b@'
p8319
tp8320
Rp8321
ag2
(g22
S'\xb2\x9d\xef\xa7\xc6K\x02@'
p8322
tp8323
Rp8324
ag2
(g22
S'\x08\xac\x1cZd\xd3`@'
p8325
tp8326
Rp8327
aF0.0149
aF0.701
aF0.755
aI0
aF-7.239
aF0.0269
aF111.751
aF0.76
aa(lp8328
g2
(g3
(S'S60'
p8329
I0
I1
tp8330
Rp8331
(I3
S'|'
p8332
NNNI60
I1
I0
tp8333
bS'Fall River Legend: Conversation: Morton Gould/Agnes de Mille'
p8334
tp8335
Rp8336
ag2
(g3
(S'S12'
p8337
I0
I1
tp8338
Rp8339
(I3
S'|'
p8340
NNNI12
I1
I0
tp8341
bS'Morton Gould'
p8342
tp8343
Rp8344
ag2
(g22
S'+\xf9\x1cA\x8dM\xd9?'
p8345
tp8346
Rp8347
ag2
(g22
S'\x81<-p\xa7\xc8\xd3?'
p8348
tp8349
Rp8350
ag2
(g22
S'-[\xeb\x8b\x04(\x99@'
p8351
tp8352
Rp8353
ag2
(g22
S'\xd9\xce\xf7S\xe3\xa5\xdb?'
p8354
tp8355
Rp8356
ag2
(g22
S'\xee|?5\xde\t\x99@'
p8357
tp8358
Rp8359
aF0.805
aF0.606
aF0.0403
aI0
aF-33.502
aF0.933
aF85.464
aF0.378
aa(lp8360
g2
(g3
(S'S15'
p8361
I0
I1
tp8362
Rp8363
(I3
S'|'
p8364
NNNI15
I1
I0
tp8365
bS'One Little Baby'
p8366
tp8367
Rp8368
ag2
(g3
(S'S12'
p8369
I0
I1
tp8370
Rp8371
(I3
S'|'
p8372
NNNI12
I1
I0
tp8373
bS'The Wilburns'
p8374
tp8375
Rp8376
ag2
(g22
S'4\x04\x1e:\x0cx\xd5?'
p8377
tp8378
Rp8379
ag2
(g22
S'\x00\x00\x00\x00\x00\x00\x00\x00'
p8380
tp8381
Rp8382
ag2
(g22
S'i\xe3\x88\xb5\xf8\x08m@'
p8383
tp8384
Rp8385
ag2
(g22
S'\x0c\x02+\x87\x16\xd9\xd6?'
p8386
tp8387
Rp8388
ag2
(g22
S'^\xbaI\x0c\x02#l@'
p8389
tp8390
Rp8391
aF0.713
aF0.619
aF0.222
aI0
aF-10.947
aF0.0336
aF116.99
aF0.21
aa(lp8392
g2
(g3
(S'S10'
p8393
I0
I1
tp8394
Rp8395
(I3
S'|'
p8396
NNNI10
I1
I0
tp8397
bS'Bonnie Mae'
p8398
tp8399
Rp8400
ag2
(g3
(S'S5'
p8401
I0
I1
tp8402
Rp8403
(I3
S'|'
p8404
NNNI5
I1
I0
tp8405
bS'Solas'
p8406
tp8407
Rp8408
ag2
(g22
S'\x0c\x18[\xf0\x89F\xe3?'
p8409
tp8410
Rp8411
ag2
(g22
S'5\x9b\x1a\xb9@r\xd7?'
p8412
tp8413
Rp8414
ag2
(g22
S'\x97s)\xae*\x12m@'
p8415
tp8416
Rp8417
ag2
(g22
S'L7\x89A`\xe5\xd0?'
p8418
tp8419
Rp8420
ag2
(g22
S'-\xb2\x9d\xef\xa7\x8al@'
p8421
tp8422
Rp8423
aF0.763
aF0.623
aF0.466
aI0
aF-9.09
aF0.0279
aF139.845
aF0.72
aa(lp8424
g2
(g3
(S'S5'
p8425
I0
I1
tp8426
Rp8427
(I3
S'|'
p8428
NNNI5
I1
I0
tp8429
bS'Light'
p8430
tp8431
Rp8432
ag2
(g3
(S'S9'
p8433
I0
I1
tp8434
Rp8435
(I3
S'|'
p8436
NNNI9
I1
I0
tp8437
bS'Dann Huff'
p8438
tp8439
Rp8440
ag2
(g22
S'\xaf\xfbb\xda"\xe9\xe2?'
p8441
tp8442
Rp8443
ag2
(g22
S'/\xdb@\x10\xd4\xd8\xd6?'
p8444
tp8445
Rp8446
ag2
(g22
S'\xf6@+0d\x17d@'
p8447
tp8448
Rp8449
ag2
(g22
S'L7\x89A`\xe5\xd0?'
p8450
tp8451
Rp8452
ag2
(g22
S'\xe5\xd0"\xdb\xf9\xdab@'
p8453
tp8454
Rp8455
aF0.0397
aF0.579
aF0.491
aF0.712
aF-14.068
aF0.0297
aF120.549
aF0.818
aa(lp8456
g2
(g3
(S'S8'
p8457
I0
I1
tp8458
Rp8459
(I3
S'|'
p8460
NNNI8
I1
I0
tp8461
bS'Macarena'
p8462
tp8463
Rp8464
ag2
(g3
(S'S11'
p8465
I0
I1
tp8466
Rp8467
(I3
S'|'
p8468
NNNI11
I1
I0
tp8469
bS'Los Del Rio'
p8470
tp8471
Rp8472
ag2
(g22
S'\x17\xe0\x18\x13\x87\xa7\xdc?'
p8473
tp8474
Rp8475
ag2
(g22
S'\xc12\xab\x9f\x92y\xd6?'
p8476
tp8477
Rp8478
ag2
(g22
S'\xdb\xa7\xe31\x03go@'
p8479
tp8480
Rp8481
ag2
(g22
S'\xcd\xcc\xcc\xcc\xcc\xcc\xdc?'
p8482
tp8483
Rp8484
ag2
(g22
S'^\xbaI\x0c\x02go@'
p8485
tp8486
Rp8487
aF0.128
aF0.718
aF0.897
aI0
aF-4.272
aF0.111
aF105.03
aF0.808
aa(lp8488
g2
(g3
(S'S53'
p8489
I0
I1
tp8490
Rp8491
(I3
S'|'
p8492
NNNI53
I1
I0
tp8493
bS'Ain`t got nothing ( feat. David Banner & Eddy Soulo )'
p8494
tp8495
Rp8496
ag2
(g3
(S'S11'
p8497
I0
I1
tp8498
Rp8499
(I3
S'|'
p8500
NNNI11
I1
I0
tp8501
bS'Samy Deluxe'
p8502
tp8503
Rp8504
ag2
(g22
S'g.E\x7fc\x93\xe6?'
p8505
tp8506
Rp8507
ag2
(g22
S'\x833o\xbcf.\xd9?'
p8508
tp8509
Rp8510
ag2
(g22
S'T\x00\x8cg\xd0Am@'
p8511
tp8512
Rp8513
ag2
(g22
S'\x14\xaeG\xe1z\x14\xce?'
p8514
tp8515
Rp8516
ag2
(g22
S'\x91\xed|?5\xcak@'
p8517
tp8518
Rp8519
aF0.000329
aF0.424
aF0.744
aF0.0297
aF-5.407
aF0.264
aF166.92
aF0.541
aa(lp8520
g2
(g3
(S'S21'
p8521
I0
I1
tp8522
Rp8523
(I3
S'|'
p8524
NNNI21
I1
I0
tp8525
bS"Why Can't You Be Mine"
p8526
tp8527
Rp8528
ag2
(g3
(S'S13'
p8529
I0
I1
tp8530
Rp8531
(I3
S'|'
p8532
NNNI13
I1
I0
tp8533
bS'Jackie Wilson'
p8534
tp8535
Rp8536
ag2
(g22
S'.Ff(\xbe/\xe6?'
p8537
tp8538
Rp8539
ag2
(g22
S'\xbc\xf6q>\x95\xd7\xda?'
p8540
tp8541
Rp8542
ag2
(g22
S'\xa6\x0f]P\xdf0^@'
p8543
tp8544
Rp8545
ag2
(g22
S'1\x08\xac\x1cZd\xcb?'
p8546
tp8547
Rp8548
ag2
(g22
S'\x93\x18\x04V\x0e\x95\\@'
p8549
tp8550
Rp8551
aF0.684
aF0.555
aF0.563
aI0
aF-8.644
aF0.0936
aF179.35
aF0.935
aa(lp8552
g2
(g3
(S'S4'
p8553
I0
I1
tp8554
Rp8555
(I3
S'|'
p8556
NNNI4
I1
I0
tp8557
bS'True'
p8558
tp8559
Rp8560
ag2
(g3
(S'S10'
p8561
I0
I1
tp8562
Rp8563
(I3
S'|'
p8564
NNNI10
I1
I0
tp8565
bS'Jim Reeves'
p8566
tp8567
Rp8568
ag2
(g22
S'HP\xa2`\xe0\xf9\xe3?'
p8569
tp8570
Rp8571
ag2
(g22
S'D$\xf0\xcd\x85\x94\xdd?'
p8572
tp8573
Rp8574
ag2
(g22
S'\xf4\xc3\x08\xe1\xd1\xf2b@'
p8575
tp8576
Rp8577
ag2
(g22
S'\xb2\x9d\xef\xa7\xc6K\xc7?'
p8578
tp8579
Rp8580
ag2
(g22
S'\x9e\xef\xa7\xc6K\x0bb@'
p8581
tp8582
Rp8583
aF0.903
aF0.405
aF0.284
aF0.00324
aF-13.526
aF0.0272
aF91.642
aF0.286
aa(lp8584
g2
(g3
(S'S13'
p8585
I0
I1
tp8586
Rp8587
(I3
S'|'
p8588
NNNI13
I1
I0
tp8589
bS'Butts n Stuff'
p8590
tp8591
Rp8592
ag2
(g3
(S'S12'
p8593
I0
I1
tp8594
Rp8595
(I3
S'|'
p8596
NNNI12
I1
I0
tp8597
bS'Josh Mullins'
p8598
tp8599
Rp8600
ag2
(g22
S'\xcb\xc0A\xa6\x1f\xb6\xd8?'
p8601
tp8602
Rp8603
ag2
(g22
S'>\t\x19\x12`N\xd1?'
p8604
tp8605
Rp8606
ag2
(g22
S"\xf2\x0c\x1a\xfa'7h@"
p8607
tp8608
Rp8609
ag2
(g22
S'\x00\x00\x00\x00\x00\x00\x00\x00'
p8610
tp8611
Rp8612
ag2
(g22
S'#\xdb\xf9~j\xbcf@'
p8613
tp8614
Rp8615
aF0.787
aF0.625
aF0.349
aI0
aF-15.405
aF0.934
aF78.233
aF0.372
aa(lp8616
g2
(g3
(S'S11'
p8617
I0
I1
tp8618
Rp8619
(I3
S'|'
p8620
NNNI11
I1
I0
tp8621
bS'Street Vibe'
p8622
tp8623
Rp8624
ag2
(g3
(S'S11'
p8625
I0
I1
tp8626
Rp8627
(I3
S'|'
p8628
NNNI11
I1
I0
tp8629
bS'Jason Miles'
p8630
tp8631
Rp8632
ag2
(g22
S'3)\xc8\xab\xc6P\xdd?'
p8633
tp8634
Rp8635
ag2
(g22
S'-\xbf\xe95\xee\xca\xd7?'
p8636
tp8637
Rp8638
ag2
(g22
S'\xfe\x0eE\x81>lr@'
p8639
tp8640
Rp8641
ag2
(g22
S'\x00\x00\x00\x00\x00\x00\x00\x00'
p8642
tp8643
Rp8644
ag2
(g22
S'\n\xd7\xa3p=lr@'
p8645
tp8646
Rp8647
aF0.0869
aF0.844
aF0.775
aF0.113
aF-6.246
aF0.0957
aF127.001
aF0.89
aa.