(lp0
(lp1
cnumpy.core.multiarray
scalar
p2
(cnumpy
dtype
p3
(S'S19'
p4
I0
I1
tp5
Rp6
(I3
S'|'
p7
NNNI19
I1
I0
tp8
bS'Now Is A Needy Time'
p9
tp10
Rp11
ag2
(g3
(S'S11'
p12
I0
I1
tp13
Rp14
(I3
S'|'
p15
NNNI11
I1
I0
tp16
bS'David Evans'
p17
tp18
Rp19
ag2
(g3
(S'f8'
p20
I0
I1
tp21
Rp22
(I3
S'<'
p23
NNNI-1
I-1
I0
tp24
bS'j\x9d\xa3\xef\xb6\x85\xdc?'
p25
tp26
Rp27
ag2
(g22
S'\xdb\xa6v\xdfE\xbf\xcf?'
p28
tp29
Rp30
ag2
(g22
S'G8-x\xd1\xe4m@'
p31
tp32
Rp33
ag2
(g22
S'\x12\x83\xc0\xca\xa1E\xd6?'
p34
tp35
Rp36
ag2
(g22
S'33333\xa3l@'
p37
tp38
Rp39
aF0.5
aF0.602
aF0.539
aI0
aF-8.366
aF0.0273
aF133.433
aF0.735
aa(lp40
g2
(g3
(S'S8'
p41
I0
I1
tp42
Rp43
(I3
S'|'
p44
NNNI8
I1
I0
tp45
bS'Les Psys'
p46
tp47
Rp48
ag2
(g3
(S'S12'
p49
I0
I1
tp50
Rp51
(I3
S'|'
p52
NNNI12
I1
I0
tp53
bS'Les Malpolis'
p54
tp55
Rp56
ag2
(g22
S'I\x89\xbb\xf2\xc7>\xdf?'
p57
tp58
Rp59
ag2
(g22
S'<\xb1\xfdu+\\\xd1?'
p60
tp61
Rp62
ag2
(g22
S'\xf2{\x9b\xfe\xec\x80c@'
p63
tp64
Rp65
ag2
(g22
S'\x00\x00\x00\x00\x00\x00\x00\x00'
p66
tp67
Rp68
ag2
(g22
S'\xdb\xf9~j\xbc\x14c@'
p69
tp70
Rp71
aF0.43
aF0.683
aF0.535
aI0
aF-7.033
aF0.265
aF84.076
aF0.868
aa(lp72
g2
(g3
(S'S26'
p73
I0
I1
tp74
Rp75
(I3
S'|'
p76
NNNI26
I1
I0
tp77
bS"I'm Alive (BT & Sasha Mix)"
p78
tp79
Rp80
ag2
(g3
(S'S4'
p81
I0
I1
tp82
Rp83
(I3
S'|'
p84
NNNI4
I1
I0
tp85
bS'Seal'
p86
tp87
Rp88
ag2
(g22
S"\xb32\x06\x10n'\xe2?"
p89
tp90
Rp91
ag2
(g22
S'M+\x7f\xcew\x8f\xe2?'
p92
tp93
Rp94
ag2
(g22
S'\x8b\x1aL\xc3p\xe0\x89@'
p95
tp96
Rp97
ag2
(g22
S'\xf2\xd2Mb\x10X\x02@'
p98
tp99
Rp100
ag2
(g22
S'\x87\x16\xd9\xce\xf7\xbb\x89@'
p101
tp102
Rp103
aF0.00447
aF0.66
aF0.787
aF0.063
aF-6.602
aF0.0342
aF128.494
aF0.335
aa(lp104
g2
(g3
(S'S31'
p105
I0
I1
tp106
Rp107
(I3
S'|'
p108
NNNI31
I1
I0
tp109
bS'Peaches (Fear of Theydon remix)'
p110
tp111
Rp112
ag2
(g3
(S'S39'
p113
I0
I1
tp114
Rp115
(I3
S'|'
p116
NNNI39
I1
I0
tp117
bS'Dub Pistols feat. Rodney P & Terry Hall'
p118
tp119
Rp120
ag2
(g22
S'?\x0cR\xf5\xfa\x00\xe6?'
p121
tp122
Rp123
ag2
(g22
S'\xe2\x13\xd6\xceA\xb1\xda?'
p124
tp125
Rp126
ag2
(g22
S'\xf7\xe9x\xcc@9t@'
p127
tp128
Rp129
ag2
(g22
S'\x00\x00\x00\x00\x00\x00\x00\x00'
p130
tp131
Rp132
ag2
(g22
S'\n\xd7\xa3p=\xa0s@'
p133
tp134
Rp135
aF0.0804
aF0.815
aF0.96
aI0
aF-5.127
aF0.197
aF92.976
aF0.964
aa(lp136
g2
(g3
(S'S13'
p137
I0
I1
tp138
Rp139
(I3
S'|'
p140
NNNI13
I1
I0
tp141
bS'Thrill Pistol'
p142
tp143
Rp144
ag2
(g3
(S'S10'
p145
I0
I1
tp146
Rp147
(I3
S'|'
p148
NNNI10
I1
I0
tp149
bS'Tigertailz'
p150
tp151
Rp152
ag2
(g22
S'\x8caJo-\xf1\xe2?'
p153
tp154
Rp155
ag2
(g22
S'\xb3e9C\x88\xf6\xd9?'
p156
tp157
Rp158
ag2
(g22
S'\xa6\nF%\xf5Rs@'
p159
tp160
Rp161
ag2
(g22
S'\x00\x00\x00\x00\x00\x00\x00\x00'
p162
tp163
Rp164
ag2
(g22
S'L7\x89A`\xfbr@'
p165
tp166
Rp167
aF4.71e-05
aF0.525
aF0.865
aF0.000474
aF-6.527
aF0.0459
aF133.962
aF0.503
aa(lp168
g2
(g3
(S'S15'
p169
I0
I1
tp170
Rp171
(I3
S'|'
p172
NNNI15
I1
I0
tp173
bS'Walking Miracle'
p174
tp175
Rp176
ag2
(g3
(S'S22'
p177
I0
I1
tp178
Rp179
(I3
S'|'
p180
NNNI22
I1
I0
tp181
bS'Vanessa Bell Armstrong'
p182
tp183
Rp184
ag2
(g22
S'%\x804=\xec\\\xe2?'
p185
tp186
Rp187
ag2
(g22
S"2\x96\xcc\x05E'\xda?"
p188
tp189
Rp190
ag2
(g22
S']\xe1].\xe2\x14l@'
p191
tp192
Rp193
ag2
(g22
S'\xaa\xf1\xd2Mb\x10\xf2?'
p194
tp195
Rp196
ag2
(g22
S'\x10X9\xb4\xc8\x8ek@'
p197
tp198
Rp199
aF0.0543
aF0.561
aF0.692
aI0
aF-6.08
aF0.0713
aF121.894
aF0.537
aa(lp200
g2
(g3
(S'S29'
p201
I0
I1
tp202
Rp203
(I3
S'|'
p204
NNNI29
I1
I0
tp205
bS'Je me sens bien pasta fagioli'
p206
tp207
Rp208
ag2
(g3
(S'S10'
p209
I0
I1
tp210
Rp211
(I3
S'|'
p212
NNNI10
I1
I0
tp213
bS'Chatelaine'
p214
tp215
Rp216
ag2
(g22
S'o\xc7$\xb65\xce\xde?'
p217
tp218
Rp219
ag2
(g22
S'1\\\x85\x1eY\xf7\xdb?'
p220
tp221
Rp222
ag2
(g22
S'\xd1\x96s)\xae\xc5b@'
p223
tp224
Rp225
ag2
(g22
S'\x17\xd9\xce\xf7S\xe3\xc5?'
p226
tp227
Rp228
ag2
(g22
S'\x98n\x12\x83\xc0.b@'
p229
tp230
Rp231
aF0.43
aF0.596
aF0.909
aI0
aF-8.203
aF0.304
aF134.538
aF0.802
aa(lp232
g2
(g3
(S'S14'
p233
I0
I1
tp234
Rp235
(I3
S'|'
p236
NNNI14
I1
I0
tp237
bS"Dieter's Theme"
p238
tp239
Rp240
ag2
(g3
(S'S12'
p241
I0
I1
tp242
Rp243
(I3
S'|'
p244
NNNI12
I1
I0
tp245
bS'Klaus Badelt'
p246
tp247
Rp248
ag2
(g22
S'\x8bbY\x99\x1f\x04\xe6?'
p249
tp250
Rp251
ag2
(g22
S'\xf7\xb1\x885\xac\t\xde?'
p252
tp253
Rp254
ag2
(g22
S'\x99d\xe4,\xecdi@'
p255
tp256
Rp257
ag2
(g22
S'\xb0rh\x91\xed|\xe3?'
p258
tp259
Rp260
ag2
(g22
S'\xb4\xc8v\xbe\x9f\xaeg@'
p261
tp262
Rp263
aF0.897
aF0.0812
aF0.236
aF0.492
aF-11.705
aF0.0353
aF79.476
aF0.0387
aa(lp264
g2
(g3
(S'S19'
p265
I0
I1
tp266
Rp267
(I3
S'|'
p268
NNNI19
I1
I0
tp269
bS'I Know You Got Soul'
p270
tp271
Rp272
ag2
(g3
(S'S15'
p273
I0
I1
tp274
Rp275
(I3
S'|'
p276
NNNI15
I1
I0
tp277
bS'Eric B. & Rakim'
p278
tp279
Rp280
ag2
(g22
S'\xd0\xa2\x9ay\x8f\x01\xe4?'
p281
tp282
Rp283
ag2
(g22
S'\xfa\xc6\x91\xb1\xc0\x07\xe0?'
p284
tp285
Rp286
ag2
(g22
S'\xfe\xf1^\xb5\xb2\xa0q@'
p287
tp288
Rp289
ag2
(g22
S'\xcb\xa1E\xb6\xf3\xfd\xd4?'
p290
tp291
Rp292
ag2
(g22
S'\xf4\xfd\xd4x\xe9\x1eq@'
p293
tp294
Rp295
aF0.0232
aF0.467
aF0.636
aI0
aF-6.96
aF0.201
aF135.014
aF0.419
aa(lp296
g2
(g3
(S'S12'
p297
I0
I1
tp298
Rp299
(I3
S'|'
p300
NNNI12
I1
I0
tp301
bS'Boogaloo Wow'
p302
tp303
Rp304
ag2
(g3
(S'S16'
p305
I0
I1
tp306
Rp307
(I3
S'|'
p308
NNNI16
I1
I0
tp309
bS'Mongo Santamaria'
p310
tp311
Rp312
ag2
(g22
S"\xcb'\xcf>\xfdG\xe1?"
p313
tp314
Rp315
ag2
(g22
S'\xce\xb3\x19\x06\x1d\x0b\xd7?'
p316
tp317
Rp318
ag2
(g22
S'\x83\xfa\x969]\xb0l@'
p319
tp320
Rp321
ag2
(g22
S'\xc1\xca\xa1E\xb6\xf3\xf9?'
p322
tp323
Rp324
ag2
(g22
S'\xecQ\xb8\x1e\x85\x0fl@'
p325
tp326
Rp327
aF0.707
aF0.701
aF0.552
aF0.000118
aF-8.459
aF0.0332
aF119.081
aF0.811
aa(lp328
g2
(g3
(S'S10'
p329
I0
I1
tp330
Rp331
(I3
S'|'
p332
NNNI10
I1
I0
tp333
bS'Einleitung'
p334
tp335
Rp336
ag2
(g3
(S'S15'
p337
I0
I1
tp338
Rp339
(I3
S'|'
p340
NNNI15
I1
I0
tp341
bS'Kurt Tepperwein'
p342
tp343
Rp344
ag2
(g22
S'\xc2;\xf8\xca\xc0\xf3\xd3?'
p345
tp346
Rp347
ag2
(g22
S'\x13\xac\x13]\x16"\xd0?'
p348
tp349
Rp350
ag2
(g22
S' \x98\xa3\xc7\xef\xd5@@'
p351
tp352
Rp353
ag2
(g22
S'+\x87\x16\xd9\xce\xf7\xb3?'
p354
tp355
Rp356
ag2
(g22
S'\xd9\xce\xf7S\xe3\xd5@@'
p357
tp358
Rp359
aF0.818
aF0.711
aF0.358
aI0
aF-21.904
aF0.942
aF127.818
aF0.227
aa(lp360
g2
(g3
(S'S34'
p361
I0
I1
tp362
Rp363
(I3
S'|'
p364
NNNI34
I1
I0
tp365
bS'When They Ring The Bells Of Heaven'
p366
tp367
Rp368
ag2
(g3
(S'S10'
p369
I0
I1
tp370
Rp371
(I3
S'|'
p372
NNNI10
I1
I0
tp373
bS'The Perrys'
p374
tp375
Rp376
ag2
(g22
S"'8\x80;\xf4\n\xe0?"
p377
tp378
Rp379
ag2
(g22
S'e\x86\xda\x1d\x0f]\xd8?'
p380
tp381
Rp382
ag2
(g22
S'jj\xd9Z_t[@'
p383
tp384
Rp385
ag2
(g22
S'\xf4\xfd\xd4x\xe9&\xb1?'
p386
tp387
Rp388
ag2
(g22
S'sh\x91\xed|WY@'
p389
tp390
Rp391
aF0.421
aF0.786
aF0.718
aI0
aF-7.622
aF0.0428
aF119.925
aF0.888
aa(lp392
g2
(g3
(S'S13'
p393
I0
I1
tp394
Rp395
(I3
S'|'
p396
NNNI13
I1
I0
tp397
bS'Ayudame Freud'
p398
tp399
Rp400
ag2
(g3
(S'S14'
p401
I0
I1
tp402
Rp403
(I3
S'|'
p404
NNNI14
I1
I0
tp405
bS'Ricardo Arjona'
p406
tp407
Rp408
ag2
(g22
S'\xc2\xce\xb9bx-\xe4?'
p409
tp410
Rp411
ag2
(g22
S'\x93\x8e`TSu\xe1?'
p412
tp413
Rp414
ag2
(g22
S'\\w\xf3T\x074y@'
p415
tp416
Rp417
ag2
(g22
S'Nb\x10X9\xb4\xc8?'
p418
tp419
Rp420
ag2
(g22
S'\n\xd7\xa3p=\xbaw@'
p421
tp422
Rp423
aF0.558
aF0.62
aF0.416
aI0
aF-11.436
aF0.0439
aF72.012
aF0.228
aa(lp424
g2
(g3
(S'S24'
p425
I0
I1
tp426
Rp427
(I3
S'|'
p428
NNNI24
I1
I0
tp429
bS'La danse des petits amis'
p430
tp431
Rp432
ag2
(g3
(S'S7'
p433
I0
I1
tp434
Rp435
(I3
S'|'
p436
NNNI7
I1
I0
tp437
bS'Oui Oui'
p438
tp439
Rp440
ag2
(g22
S'?J\xaf\x1bY:\xdc?'
p441
tp442
Rp443
ag2
(g22
S'\xc5\x1dd\x0b\\\x00\xd6?'
p444
tp445
Rp446
ag2
(g22
S'\xc3\xb6E\x99\r\xc5e@'
p447
tp448
Rp449
ag2
(g22
S'\x93\x18\x04V\x0e-\xc2?'
p450
tp451
Rp452
ag2
(g22
S'm\xe7\xfb\xa9\xf1\xfed@'
p453
tp454
Rp455
aF0.629
aF0.856
aF0.66
aI0
aF-4.852
aF0.0303
aF125.041
aF0.781
aa(lp456
g2
(g3
(S'S6'
p457
I0
I1
tp458
Rp459
(I3
S'|'
p460
NNNI6
I1
I0
tp461
bS'Pastel'
p462
tp463
Rp464
ag2
(g3
(S'S13'
p465
I0
I1
tp466
Rp467
(I3
S'|'
p468
NNNI13
I1
I0
tp469
bS'Richard Smith'
p470
tp471
Rp472
ag2
(g22
S'\xd9\x0e%\xe3\x0f1\xd6?'
p473
tp474
Rp475
ag2
(g22
S'(\xb8\xf4mY\xa2\xd3?'
p476
tp477
Rp478
ag2
(g22
S'y\xe9&1\x08Pq@'
p479
tp480
Rp481
ag2
(g22
S'\x96C\x8bl\xe7\xfb\xd1?'
p482
tp483
Rp484
ag2
(g22
S'\xdd$\x06\x81\x95up@'
p485
tp486
Rp487
aF0.588
aF0.38
aF0.741
aF0.22
aF-7.819
aF0.0789
aF82.668
aF0.214
aa(lp488
g2
(g3
(S'S23'
p489
I0
I1
tp490
Rp491
(I3
S'|'
p492
NNNI23
I1
I0
tp493
bS'Red Sails In The Sunset'
p494
tp495
Rp496
ag2
(g3
(S'S12'
p497
I0
I1
tp498
Rp499
(I3
S'|'
p500
NNNI12
I1
I0
tp501
bS'Arthur Tracy'
p502
tp503
Rp504
ag2
(g22
S'\x9e\x9b\x0c6O\x90\xd1?'
p505
tp506
Rp507
ag2
(g22
S'\xbc\xd9\xc9\x9f\xe7\t\xd1?'
p508
tp509
Rp510
ag2
(g22
S'L\x1a\xa3uT\x8af@'
p511
tp512
Rp513
ag2
(g22
S'\xbaI\x0c\x02+\x87\xc6?'
p514
tp515
Rp516
ag2
(g22
S'\xf6(\\\x8f\xc2\xa5e@'
p517
tp518
Rp519
aF0.994
aF0.267
aF0.19
aF0.0268
aF-15.146
aF0.0355
aF170.86
aF0.27
aa(lp520
g2
(g3
(S'S29'
p521
I0
I1
tp522
Rp523
(I3
S'|'
p524
NNNI29
I1
I0
tp525
bS'Smoke In The Air (A Cappella)'
p526
tp527
Rp528
ag2
(g3
(S'S11'
p529
I0
I1
tp530
Rp531
(I3
S'|'
p532
NNNI11
I1
I0
tp533
bS'C.L. Smooth'
p534
tp535
Rp536
ag2
(g22
S'\xd6\xd7\x12c\x16w\xe1?'
p537
tp538
Rp539
ag2
(g22
S'}\xd5\xfbJ\x03R\xd6?'
p540
tp541
Rp542
ag2
(g22
S'\xfb\xe8\xd4\x95\xcf%g@'
p543
tp544
Rp545
ag2
(g22
S'D\x8bl\xe7\xfb\xa9\xd1?'
p546
tp547
Rp548
ag2
(g22
S'\xe7\xfb\xa9\xf1\xd2%g@'
p549
tp550
Rp551
aF0.125
aF0.631
aF0.562
aI0
aF-13.673
aF0.956
aF175.238
aF0.729
aa(lp552
g2
(g3
(S'S30'
p553
I0
I1
tp554
Rp555
(I3
S'|'
p556
NNNI30
I1
I0
tp557
bS"(The Best Part Of) Breakin' Up"
p558
tp559
Rp560
ag2
(g3
(S'S12'
p561
I0
I1
tp562
Rp563
(I3
S'|'
p564
NNNI12
I1
I0
tp565
bS'The Ronettes'
p566
tp567
Rp568
ag2
(g22
S'B\x99\xd5\xa6\x0f+\xe5?'
p569
tp570
Rp571
ag2
(g22
S'\x91\xda\xdf\x1e\x97\x15\xe1?'
p572
tp573
Rp574
ag2
(g22
S'=a\x89\x07\x94\xdaf@'
p575
tp576
Rp577
ag2
(g22
S'\x89A`\xe5\xd0"\xcb?'
p578
tp579
Rp580
ag2
(g22
S'}?5^\xba=e@'
p581
tp582
Rp583
aF0.403
aF0.49
aF0.729
aF0.00259
aF-9.046
aF0.0481
aF105.273
aF0.546
aa(lp584
g2
(g3
(S'S9'
p585
I0
I1
tp586
Rp587
(I3
S'|'
p588
NNNI9
I1
I0
tp589
bS'Kapitel 4'
p590
tp591
Rp592
ag2
(g3
(S'S14'
p593
I0
I1
tp594
Rp595
(I3
S'|'
p596
NNNI14
I1
I0
tp597
bS'Oliver Kalkofe'
p598
tp599
Rp600
ag2
(g22
S'\xae4^\x18}\xf5\xdc?'
p601
tp602
Rp603
ag2
(g22
S'\xb9\xe9g\x08)\xff\xd9?'
p604
tp605
Rp606
ag2
(g22
S'|\xf2\xb0Pk*\x81@'
p607
tp608
Rp609
ag2
(g22
S'\xc7K7\x89A`\xd5?'
p610
tp611
Rp612
ag2
(g22
S'#\xdb\xf9~j*\x81@'
p613
tp614
Rp615
aF0.791
aF0.643
aF0.418
aI0
aF-15.573
aF0.954
aF87.999
aF0.483
aa(lp616
g2
(g3
(S'S3'
p617
I0
I1
tp618
Rp619
(I3
S'|'
p620
NNNI3
I1
I0
tp621
bS'IRM'
p622
tp623
Rp624
ag2
(g3
(S'S20'
p625
I0
I1
tp626
Rp627
(I3
S'|'
p628
NNNI20
I1
I0
tp629
bS'Charlotte Gainsbourg'
p630
tp631
Rp632
ag2
(g22
S'\x86\xb1\xb4\xaf\xe9\xce\xe7?'
p633
tp634
Rp635
ag2
(g22
S'\x1a\xc2`>?\xa4\xe0?'
p636
tp637
Rp638
ag2
(g22
S']P\xdf2\xa7^c@'
p639
tp640
Rp641
ag2
(g22
S'\x00\x00\x00\x00\x00\x00\x00\x00'
p642
tp643
Rp644
ag2
(g22
S'\xb6\xf3\xfd\xd4xab@'
p645
tp646
Rp647
aF0.00603
aF0.751
aF0.604
aF0.725
aF-8.278
aF0.0351
aF120.129
aF0.327
aa(lp648
g2
(g3
(S'S17'
p649
I0
I1
tp650
Rp651
(I3
S'|'
p652
NNNI17
I1
I0
tp653
bS'Look Thru My Eyes'
p654
tp655
Rp656
ag2
(g3
(S'S3'
p657
I0
I1
tp658
Rp659
(I3
S'|'
p660
NNNI3
I1
I0
tp661
bS'DMX'
p662
tp663
Rp664
ag2
(g22
S'R\xf7\x8f#jP\xea?'
p665
tp666
Rp667
ag2
(g22
S'u\xeb\n\x9c2H\xe0?'
p668
tp669
Rp670
ag2
(g22
S'\x07|~\x18!\xd0l@'
p671
tp672
Rp673
ag2
(g22
S'\x00\x00\x00\x00\x00\x00\x00\x00'
p674
tp675
Rp676
ag2
(g22
S'\x9e\xef\xa7\xc6Ksj@'
p677
tp678
Rp679
aF0.234
aF0.907
aF0.643
aI0
aF-8.575
aF0.277
aF95.75
aF0.684
aa(lp680
g2
(g3
(S'S25'
p681
I0
I1
tp682
Rp683
(I3
S'|'
p684
NNNI25
I1
I0
tp685
bS'I Got My Discharge Papers'
p686
tp687
Rp688
ag2
(g3
(S'S14'
p689
I0
I1
tp690
Rp691
(I3
S'|'
p692
NNNI14
I1
I0
tp693
bS'Big Joe Turner'
p694
tp695
Rp696
ag2
(g22
S'\x18#\x91\xb1\xda\x05\xe3?'
p697
tp698
Rp699
ag2
(g22
S'i.|\xeebU\xd7?'
p700
tp701
Rp702
ag2
(g22
S'\xa0T\xfbt<\xe5c@'
p703
tp704
Rp705
ag2
(g22
S'R\xb8\x1e\x85\xebQ\xd8?'
p706
tp707
Rp708
ag2
(g22
S'\xf6(\\\x8f\xc2Uc@'
p709
tp710
Rp711
aF0.973
aF0.488
aF0.383
aF0.00306
aF-10.617
aF0.0682
aF83.852
aF0.593
aa(lp712
g2
(g3
(S'S20'
p713
I0
I1
tp714
Rp715
(I3
S'|'
p716
NNNI20
I1
I0
tp717
bS'The Bells Of Rhymney'
p718
tp719
Rp720
ag2
(g3
(S'S13'
p721
I0
I1
tp722
Rp723
(I3
S'|'
p724
NNNI13
I1
I0
tp725
bS'Roger McGuinn'
p726
tp727
Rp728
ag2
(g22
S'\xff\x1an\x88x\xdd\xce?'
p729
tp730
Rp731
ag2
(g22
S'\x9b\xbb\x99\xc1\xdf\xa6\xda?'
p732
tp733
Rp734
ag2
(g22
S'I\xa2\x97Q,\x8bp@'
p735
tp736
Rp737
ag2
(g22
S'\x00\x00\x00\x00\x00\x00\x00\x00'
p738
tp739
Rp740
ag2
(g22
S'\xaeG\xe1z\x14\x04p@'
p741
tp742
Rp743
aF0.892
aF0.43
aF0.214
aF8.51e-05
aF-15.681
aF0.0465
aF122.765
aF0.48
aa(lp744
g2
(g3
(S'S21'
p745
I0
I1
tp746
Rp747
(I3
S'|'
p748
NNNI21
I1
I0
tp749
bS'Hootchie Cootchie Man'
p750
tp751
Rp752
ag2
(g3
(S'S10'
p753
I0
I1
tp754
Rp755
(I3
S'|'
p756
NNNI10
I1
I0
tp757
bS'Rocky Hill'
p758
tp759
Rp760
ag2
(g22
S'\xbf\xfe\xd7\xfd\xb8x\xd4?'
p761
tp762
Rp763
ag2
(g22
S'\xfd\x13\x19\xdc/\x07\xc9?'
p764
tp765
Rp766
ag2
(g22
S'\x1a\xa3uT58u@'
p767
tp768
Rp769
ag2
(g22
S'?5^\xbaI\x0c\xd2?'
p770
tp771
Rp772
ag2
(g22
S'\x87\x16\xd9\xce\xf7\xcbt@'
p773
tp774
Rp775
aF0.118
aF0.307
aF0.881
aF0.0106
aF-5.507
aF0.0925
aF139.666
aF0.873
aa(lp776
g2
(g3
(S'S23'
p777
I0
I1
tp778
Rp779
(I3
S'|'
p780
NNNI23
I1
I0
tp781
bS'This Is Not A Love Song'
p782
tp783
Rp784
ag2
(g3
(S'S16'
p785
I0
I1
tp786
Rp787
(I3
S'|'
p788
NNNI16
I1
I0
tp789
bS'Public Image Ltd'
p790
tp791
Rp792
ag2
(g22
S'\xc9\xb4\xd7jz\xeb\xe5?'
p793
tp794
Rp795
ag2
(g22
S'K\xf5s\xf6\xd4\x97\xda?'
p796
tp797
Rp798
ag2
(g22
S'\t8\x84*5po@'
p799
tp800
Rp801
ag2
(g22
S'%\x06\x81\x95C\x8b\xcc?'
p802
tp803
Rp804
ag2
(g22
S'\x8f\xc2\xf5(\\\x13n@'
p805
tp806
Rp807
aF0.167
aF0.612
aF0.782
aF0.079
aF-9.881
aF0.0482
aF126.945
aF0.667
aa(lp808
g2
(g3
(S'S7'
p809
I0
I1
tp810
Rp811
(I3
S'|'
p812
NNNI7
I1
I0
tp813
bS'Mind On'
p814
tp815
Rp816
ag2
(g3
(S'S14'
p817
I0
I1
tp818
Rp819
(I3
S'|'
p820
NNNI14
I1
I0
tp821
bS'Ashes to Ashes'
p822
tp823
Rp824
ag2
(g22
S'w\x91N\x00\xf6\x1d\xe2?'
p825
tp826
Rp827
ag2
(g22
S'\xd2z\xda\x1fQ\xf7\xd6?'
p828
tp829
Rp830
ag2
(g22
S'V\xb7zNz\xfdg@'
p831
tp832
Rp833
ag2
(g22
S'\xc9v\xbe\x9f\x1a/\xe1?'
p834
tp835
Rp836
ag2
(g22
S'\xf4\xfd\xd4x\xe9\xb2g@'
p837
tp838
Rp839
aF0.0725
aF0.74
aF0.569
aF0.00855
aF-9.694
aF0.0453
aF121.005
aF0.851
aa(lp840
g2
(g3
(S'S16'
p841
I0
I1
tp842
Rp843
(I3
S'|'
p844
NNNI16
I1
I0
tp845
bS'De Tha Kano Piso'
p846
tp847
Rp848
ag2
(g3
(S'S20'
p849
I0
I1
tp850
Rp851
(I3
S'|'
p852
NNNI20
I1
I0
tp853
bS'Konstantinos Galanos'
p854
tp855
Rp856
ag2
(g22
S'< \x9bKZ*\xd1?'
p857
tp858
Rp859
ag2
(g22
S'\x1d\xf9-\xa7Z\xcf\xd0?'
p860
tp861
Rp862
ag2
(g22
S'\x14\xb3^\x0c\xe5vk@'
p863
tp864
Rp865
ag2
(g22
S'\x00\x00\x00\x00\x00\x00\x00\x00'
p866
tp867
Rp868
ag2
(g22
S'#\xdb\xf9~j8j@'
p869
tp870
Rp871
aF0.383
aF0.675
aF0.727
aF3.53e-06
aF-4.105
aF0.0319
aF127.116
aF0.757
aa(lp872
g2
(g3
(S'S40'
p873
I0
I1
tp874
Rp875
(I3
S'|'
p876
NNNI40
I1
I0
tp877
bS'Pack Your Bags (Remix by Ralphi Rosario)'
p878
tp879
Rp880
ag2
(g3
(S'S5'
p881
I0
I1
tp882
Rp883
(I3
S'|'
p884
NNNI5
I1
I0
tp885
bS'Leana'
p886
tp887
Rp888
ag2
(g22
S'fm\xa5\xea\xbaR\xe0?'
p889
tp890
Rp891
ag2
(g22
S'C\xf8\xc9]\x87A\xd6?'
p892
tp893
Rp894
ag2
(g22
S'I\xf42\x8a\xe5\x84l@'
p895
tp896
Rp897
ag2
(g22
S'\xcb\xa1E\xb6\xf3\xfd\xd4?'
p898
tp899
Rp900
ag2
(g22
S'H\xe1z\x14\xae\xa7k@'
p901
tp902
Rp903
aF0.00401
aF0.691
aF0.761
aF0.0016
aF-6.4
aF0.0383
aF130.952
aF0.559
aa(lp904
g2
(g3
(S'S14'
p905
I0
I1
tp906
Rp907
(I3
S'|'
p908
NNNI14
I1
I0
tp909
bS'I Know A Place'
p910
tp911
Rp912
ag2
(g3
(S'S13'
p913
I0
I1
tp914
Rp915
(I3
S'|'
p916
NNNI13
I1
I0
tp917
bS'Joe Bonamassa'
p918
tp919
Rp920
ag2
(g22
S'/\x96\xbf\x0c"\xa1\xe5?'
p921
tp922
Rp923
ag2
(g22
S')\x14\x0f\xa9\x8eZ\xe0?'
p924
tp925
Rp926
ag2
(g22
S'\xce\x88\xd2\xde\xe0+p@'
p927
tp928
Rp929
ag2
(g22
S'\x9c\xc4 \xb0rh\xc1?'
p930
tp931
Rp932
ag2
(g22
S'\x08\xac\x1cZd/o@'
p933
tp934
Rp935
aF0.172
aF0.276
aF0.869
aF0.247
aF-4.594
aF0.115
aF161.615
aF0.486
aa(lp936
g2
(g3
(S'S34'
p937
I0
I1
tp938
Rp939
(I3
S'|'
p940
NNNI34
I1
I0
tp941
bS'The Letter That Johnny Walker Read'
p942
tp943
Rp944
ag2
(g3
(S'S19'
p945
I0
I1
tp946
Rp947
(I3
S'|'
p948
NNNI19
I1
I0
tp949
bS'Asleep At The Wheel'
p950
tp951
Rp952
ag2
(g22
S'\x9e\x9a\x9ff\x16V\xe3?'
p953
tp954
Rp955
ag2
(g22
S'{\xd2\xcf\xadf\x81\xdd?'
p956
tp957
Rp958
ag2
(g22
S'\xad\xddv\xa1\xb9\xc6m@'
p959
tp960
Rp961
ag2
(g22
S'\xf4\xfd\xd4x\xe9&\xb1?'
p962
tp963
Rp964
ag2
(g22
S'R\xb8\x1e\x85\xeb=m@'
p965
tp966
Rp967
aF0.16
aF0.537
aF0.524
aF7.33e-06
aF-7.573
aF0.0513
aF121.973
aF0.55
aa(lp968
g2
(g3
(S'S13'
p969
I0
I1
tp970
Rp971
(I3
S'|'
p972
NNNI13
I1
I0
tp973
bS'Crazy Circles'
p974
tp975
Rp976
ag2
(g3
(S'S11'
p977
I0
I1
tp978
Rp979
(I3
S'|'
p980
NNNI11
I1
I0
tp981
bS'Bad Company'
p982
tp983
Rp984
ag2
(g22
S'3[1\xf0RL\xe6?'
p985
tp986
Rp987
ag2
(g22
S"'{\xaa\t\xba\xda\xde?"
p988
tp989
Rp990
ag2
(g22
S'mV}\xae\xb6dj@'
p991
tp992
Rp993
ag2
(g22
S'\xa2E\xb6\xf3\xfd\xd4\xc8?'
p994
tp995
Rp996
ag2
(g22
S'\xdd$\x06\x81\x95\x8fi@'
p997
tp998
Rp999
aF0.354
aF0.441
aF0.612
aI0
aF-8.614
aF0.0297
aF97.417
aF0.637
aa(lp1000
g2
(g3
(S'S10'
p1001
I0
I1
tp1002
Rp1003
(I3
S'|'
p1004
NNNI10
I1
I0
tp1005
bS'Fica ma mi'
p1006
tp1007
Rp1008
ag2
(g3
(S'S7'
p1009
I0
I1
tp1010
Rp1011
(I3
S'|'
p1012
NNNI7
I1
I0
tp1013
bS'Nichols'
p1014
tp1015
Rp1016
ag2
(g22
S'\xfc\xcc_\x05\xd6\xb8\xe3?'
p1017
tp1018
Rp1019
ag2
(g22
S'\xd1\xffNM-\xc3\xd3?'
p1020
tp1021
Rp1022
ag2
(g22
S'vq\x1b\r\xe0\xcej@'
p1023
tp1024
Rp1025
ag2
(g22
S'B`\xe5\xd0"\xdb\xb9?'
p1026
tp1027
Rp1028
ag2
(g22
S'\x8f\xc2\xf5(\\\xf3h@'
p1029
tp1030
Rp1031
aF0.163
aF0.749
aF0.592
aF0.251
aF-5.55
aF0.0542
aF83.965
aF0.846
aa(lp1032
g2
(g3
(S'S12'
p1033
I0
I1
tp1034
Rp1035
(I3
S'|'
p1036
NNNI12
I1
I0
tp1037
bS'The Meantime'
p1038
tp1039
Rp1040
ag2
(g3
(S'S14'
p1041
I0
I1
tp1042
Rp1043
(I3
S'|'
p1044
NNNI14
I1
I0
tp1045
bS'Phantom Planet'
p1046
tp1047
Rp1048
ag2
(g22
S'8\x89>1\xb7r\xe8?'
p1049
tp1050
Rp1051
ag2
(g22
S'\x8c\xf4\x82\xf4L[\xe1?'
p1052
tp1053
Rp1054
ag2
(g22
S'\xd2\x00\xde\x02\t+j@'
p1055
tp1056
Rp1057
ag2
(g22
S'\x89A`\xe5\xd0"\xd3?'
p1058
tp1059
Rp1060
ag2
(g22
S'\x12\x83\xc0\xca\xa1\xc5i@'
p1061
tp1062
Rp1063
aF4.86e-05
aF0.471
aF0.978
aF0.105
aF-3.124
aF0.12
aF132.809
aF0.333
aa(lp1064
g2
(g3
(S'S11'
p1065
I0
I1
tp1066
Rp1067
(I3
S'|'
p1068
NNNI11
I1
I0
tp1069
bS'Die Meisten'
p1070
tp1071
Rp1072
ag2
(g3
(S'S11'
p1073
I0
I1
tp1074
Rp1075
(I3
S'|'
p1076
NNNI11
I1
I0
tp1077
bS'Samy Deluxe'
p1078
tp1079
Rp1080
ag2
(g22
S'g.E\x7fc\x93\xe6?'
p1081
tp1082
Rp1083
ag2
(g22
S'\x833o\xbcf.\xd9?'
p1084
tp1085
Rp1086
ag2
(g22
S'\xe9&1\x08\xac\x7fm@'
p1087
tp1088
Rp1089
ag2
(g22
S'\x00\x00\x00\x00\x00\x00\x00\x00'
p1090
tp1091
Rp1092
ag2
(g22
S'\xd7\xa3p=\n7m@'
p1093
tp1094
Rp1095
aF0.0136
aF0.694
aF0.853
aI0
aF-7.731
aF0.274
aF171.714
aF0.932
aa(lp1096
g2
(g3
(S'S17'
p1097
I0
I1
tp1098
Rp1099
(I3
S'|'
p1100
NNNI17
I1
I0
tp1101
bS'No Coward Soldier'
p1102
tp1103
Rp1104
ag2
(g3
(S'S25'
p1105
I0
I1
tp1106
Rp1107
(I3
S'|'
p1108
NNNI25
I1
I0
tp1109
bS'The Jackson Southernaires'
p1110
tp1111
Rp1112
ag2
(g22
S'cQ\x1d\xe7-\xac\xd4?'
p1113
tp1114
Rp1115
ag2
(g22
S'\xee\xbd\xfc#\x98\xee\xd3?'
p1116
tp1117
Rp1118
ag2
(g22
S';\xdfO\x8d\x97\x12q@'
p1119
tp1120
Rp1121
ag2
(g22
S'\xd7\xa3p=\n\xd7\xd3?'
p1122
tp1123
Rp1124
ag2
(g22
S'\xaeG\xe1z\x14@p@'
p1125
tp1126
Rp1127
aF0.232
aF0.614
aF0.722
aI0
aF-16.647
aF0.057
aF116.98
aF0.801
aa(lp1128
g2
(g3
(S'S17'
p1129
I0
I1
tp1130
Rp1131
(I3
S'|'
p1132
NNNI17
I1
I0
tp1133
bS"Papa Don't Preach"
p1134
tp1135
Rp1136
ag2
(g3
(S'S7'
p1137
I0
I1
tp1138
Rp1139
(I3
S'|'
p1140
NNNI7
I1
I0
tp1141
bS'Madonna'
p1142
tp1143
Rp1144
ag2
(g22
S'K1\x16\x91lN\xed?'
p1145
tp1146
Rp1147
ag2
(g22
S'xRy\xba\x15\xf8\xe4?'
p1148
tp1149
Rp1150
ag2
(g22
S'\xf8\xa5~\xdeT\xd9p@'
p1151
tp1152
Rp1153
ag2
(g22
S'\xf2\xd2Mb\x10X\xc9?'
p1154
tp1155
Rp1156
ag2
(g22
S'F\xb6\xf3\xfd\xd4<p@'
p1157
tp1158
Rp1159
aF0.311
aF0.807
aF0.906
aF0.000791
aF-8.973
aF0.0371
aF121.54
aF0.971
aa(lp1160
g2
(g3
(S'S10'
p1161
I0
I1
tp1162
Rp1163
(I3
S'|'
p1164
NNNI10
I1
I0
tp1165
bS'Thats life'
p1166
tp1167
Rp1168
ag2
(g3
(S'S9'
p1169
I0
I1
tp1170
Rp1171
(I3
S'|'
p1172
NNNI9
I1
I0
tp1173
bS'Sane Band'
p1174
tp1175
Rp1176
ag2
(g22
S'\xccz\x858\x19\xf3\xd8?'
p1177
tp1178
Rp1179
ag2
(g22
S'\x92\xbe\x9a\x83Y\xa8\xd5?'
p1180
tp1181
Rp1182
ag2
(g22
S'\\Z\r\x89{hp@'
p1183
tp1184
Rp1185
ag2
(g22
S'\x81\x95C\x8bl\xe7\xd3?'
p1186
tp1187
Rp1188
ag2
(g22
S'\xee|?5^2o@'
p1189
tp1190
Rp1191
aF0.2
aF0.721
aF0.402
aF0.154
aF-16.842
aF0.0754
aF148.041
aF0.428
aa(lp1192
g2
(g3
(S'S15'
p1193
I0
I1
tp1194
Rp1195
(I3
S'|'
p1196
NNNI15
I1
I0
tp1197
bS'Saca La Botella'
p1198
tp1199
Rp1200
ag2
(g3
(S'S16'
p1201
I0
I1
tp1202
Rp1203
(I3
S'|'
p1204
NNNI16
I1
I0
tp1205
bS'Sonora Santanera'
p1206
tp1207
Rp1208
ag2
(g22
S'\x1bF\xa1\x89\xda0\xdf?'
p1209
tp1210
Rp1211
ag2
(g22
S'VkS\x05\xbb\xfa\xd5?'
p1212
tp1213
Rp1214
ag2
(g22
S'\xf3\xc8\x1f\x0c<\xd7b@'
p1215
tp1216
Rp1217
ag2
(g22
S'\xa2E\xb6\xf3\xfd\xd4\xc8?'
p1218
tp1219
Rp1220
ag2
(g22
S'7\x89A`\xe5hb@'
p1221
tp1222
Rp1223
aF0.796
aF0.614
aF0.724
aF2.16e-06
aF-12.655
aF0.0896
aF93.597
aF0.963
aa(lp1224
g2
(g3
(S'S16'
p1225
I0
I1
tp1226
Rp1227
(I3
S'|'
p1228
NNNI16
I1
I0
tp1229
bS'Akhan Nay Sharab'
p1230
tp1231
Rp1232
ag2
(g3
(S'S7'
p1233
I0
I1
tp1234
Rp1235
(I3
S'|'
p1236
NNNI7
I1
I0
tp1237
bS'Pardesi'
p1238
tp1239
Rp1240
ag2
(g22
S'X\xbb[\x03\x83\xba\xd8?'
p1241
tp1242
Rp1243
ag2
(g22
S'\xc9l?Z\x0bh\xd0?'
p1244
tp1245
Rp1246
ag2
(g22
S'Y\xc0\x04n]xp@'
p1247
tp1248
Rp1249
ag2
(g22
S'T\xe3\xa5\x9b\xc4 \xd0?'
p1250
tp1251
Rp1252
ag2
(g22
S'B`\xe5\xd0"#o@'
p1253
tp1254
Rp1255
aF0.135
aF0.668
aF0.783
aI0
aF-12.773
aF0.0835
aF90.799
aF0.96
aa(lp1256
g2
(g3
(S'S47'
p1257
I0
I1
tp1258
Rp1259
(I3
S'|'
p1260
NNNI47
I1
I0
tp1261
bS'Two Elegiac Melodies Op. 34: 2. The Last Spring'
p1262
tp1263
Rp1264
ag2
(g3
(S'S20'
p1265
I0
I1
tp1266
Rp1267
(I3
S'|'
p1268
NNNI20
I1
I0
tp1269
bS'Sir Neville Marriner'
p1270
tp1271
Rp1272
ag2
(g22
S'\xf7^\xb9\x85\x87\x85\xdb?'
p1273
tp1274
Rp1275
ag2
(g22
S'\xb1~\xfb&\x1c\x98\xd6?'
p1276
tp1277
Rp1278
ag2
(g22
S'nnLO\xd8\x8cr@'
p1279
tp1280
Rp1281
ag2
(g22
S'\xdd$\x06\x81\x95C\x0b@'
p1282
tp1283
Rp1284
ag2
(g22
S'sh\x91\xed|eq@'
p1285
tp1286
Rp1287
aF0.906
aF0.0837
aF0.0906
aF0.808
aF-21.812
aF0.0482
aF84.275
aF0.0349
aa(lp1288
g2
(g3
(S'S6'
p1289
I0
I1
tp1290
Rp1291
(I3
S'|'
p1292
NNNI6
I1
I0
tp1293
bS'Start!'
p1294
tp1295
Rp1296
ag2
(g3
(S'S7'
p1297
I0
I1
tp1298
Rp1299
(I3
S'|'
p1300
NNNI7
I1
I0
tp1301
bS'The Jam'
p1302
tp1303
Rp1304
ag2
(g22
S'\x1c\x8fd\x91\x8b\xe6\xe8?'
p1305
tp1306
Rp1307
ag2
(g22
S'\x95\xdc\xfe1#\x87\xe1?'
p1308
tp1309
Rp1310
ag2
(g22
S'/\x17\xf1\x9d\x98tb@'
p1311
tp1312
Rp1313
ag2
(g22
S'\xe7\xfb\xa9\xf1\xd2M\x0b@'
p1314
tp1315
Rp1316
ag2
(g22
S'\xf8S\xe3\xa5\x9btb@'
p1317
tp1318
Rp1319
aF0.00719
aF0.633
aF0.329
aF7.33e-05
aF-8.863
aF0.0488
aF139.391
aF0.897
aa(lp1320
g2
(g3
(S'S8'
p1321
I0
I1
tp1322
Rp1323
(I3
S'|'
p1324
NNNI8
I1
I0
tp1325
bS'Fortress'
p1326
tp1327
Rp1328
ag2
(g3
(S'S9'
p1329
I0
I1
tp1330
Rp1331
(I3
S'|'
p1332
NNNI9
I1
I0
tp1333
bS'Tim Exile'
p1334
tp1335
Rp1336
ag2
(g22
S'%\xe1S\xda&\xdb\xe3?'
p1337
tp1338
Rp1339
ag2
(g22
S'\xf3\xcf&zvQ\xd3?'
p1340
tp1341
Rp1342
ag2
(g22
S'\x0b\xb5\xa6yG\x19w@'
p1343
tp1344
Rp1345
ag2
(g22
S'\x00\x00\x00\x00\x00\x00\x00\x00'
p1346
tp1347
Rp1348
ag2
(g22
S'\x89A`\xe5\xd0Nv@'
p1349
tp1350
Rp1351
aF0.141
aF0.624
aF0.788
aF0.0917
aF-6.755
aF0.0896
aF109.996
aF0.369
aa(lp1352
g2
(g3
(S'S49'
p1353
I0
I1
tp1354
Rp1355
(I3
S'|'
p1356
NNNI49
I1
I0
tp1357
bS'Spend the Night featuring Rock Money and Paul Law'
p1358
tp1359
Rp1360
ag2
(g3
(S'S9'
p1361
I0
I1
tp1362
Rp1363
(I3
S'|'
p1364
NNNI9
I1
I0
tp1365
bS'Tech N9ne'
p1366
tp1367
Rp1368
ag2
(g22
S'\xbc\xa50\xf9!T\xe8?'
p1369
tp1370
Rp1371
ag2
(g22
S'\x98\xeb\x8e\x08\xa2\xbf\xdf?'
p1372
tp1373
Rp1374
ag2
(g22
S'\xc7.Q\xbd5Fp@'
p1375
tp1376
Rp1377
ag2
(g22
S'\x91\xed|?5^\xca?'
p1378
tp1379
Rp1380
ag2
(g22
S'q=\n\xd7\xa3\x94o@'
p1381
tp1382
Rp1383
aF0.068
aF0.85
aF0.733
aI0
aF-4.048
aF0.226
aF79.997
aF0.933
aa(lp1384
g2
(g3
(S'S24'
p1385
I0
I1
tp1386
Rp1387
(I3
S'|'
p1388
NNNI24
I1
I0
tp1389
bS"Maybe You'll Love Me Too"
p1390
tp1391
Rp1392
ag2
(g3
(S'S11'
p1393
I0
I1
tp1394
Rp1395
(I3
S'|'
p1396
NNNI11
I1
I0
tp1397
bS'Jazz Gillum'
p1398
tp1399
Rp1400
ag2
(g22
S'3>\xe0\x15\x1e8\xd7?'
p1401
tp1402
Rp1403
ag2
(g22
S'P\x0c\x13\x00\xfb\x10\xd2?'
p1404
tp1405
Rp1406
ag2
(g22
S'm\x90IF\xce\xfbg@'
p1407
tp1408
Rp1409
ag2
(g22
S'\x98n\x12\x83\xc0\xca\xd9?'
p1410
tp1411
Rp1412
ag2
(g22
S'\xc7K7\x89A\x14g@'
p1413
tp1414
Rp1415
aF0.793
aF0.75
aF0.263
aF0.00347
aF-15.317
aF0.0635
aF98.081
aF0.845
aa(lp1416
g2
(g3
(S'S8'
p1417
I0
I1
tp1418
Rp1419
(I3
S'|'
p1420
NNNI8
I1
I0
tp1421
bS'Patience'
p1422
tp1423
Rp1424
ag2
(g3
(S'S13'
p1425
I0
I1
tp1426
Rp1427
(I3
S'|'
p1428
NNNI13
I1
I0
tp1429
bS"Guns N' Roses"
p1430
tp1431
Rp1432
ag2
(g22
S'"\x87\xb7\xac\xbe\x02\xeb?'
p1433
tp1434
Rp1435
ag2
(g22
S'F\x9a\xe7\x16b\xd6\xe6?'
p1436
tp1437
Rp1438
ag2
(g22
S'\x83\xdd\xb0m\xd1%y@'
p1439
tp1440
Rp1441
ag2
(g22
S'\x00\x00\x00\x00\x00\x00\x00\x00'
p1442
tp1443
Rp1444
ag2
(g22
S'\xe7\xfb\xa9\xf1\xd2%y@'
p1445
tp1446
Rp1447
aF0.736
aF0.463
aF0.266
aF0.00028
aF-14.307
aF0.0315
aF120.316
aF0.368
aa(lp1448
g2
(g3
(S'S16'
p1449
I0
I1
tp1450
Rp1451
(I3
S'|'
p1452
NNNI16
I1
I0
tp1453
bS'Violet Heart Box'
p1454
tp1455
Rp1456
ag2
(g3
(S'S10'
p1457
I0
I1
tp1458
Rp1459
(I3
S'|'
p1460
NNNI10
I1
I0
tp1461
bS'Willie Isz'
p1462
tp1463
Rp1464
ag2
(g22
S'\x00\x00\x00\x00\x00\x00\x00\x00'
p1465
tp1466
Rp1467
ag2
(g22
S'\xc9\x06Q\xad\xd4\x8a\xd9?'
p1468
tp1469
Rp1470
ag2
(g22
S'\xa2zk`\xab+u@'
p1471
tp1472
Rp1473
ag2
(g22
S'\x00\x00\x00\x00\x00\x00\x00\x00'
p1474
tp1475
Rp1476
ag2
(g22
S'\x1b/\xdd$\x06\xb9t@'
p1477
tp1478
Rp1479
aF0.00838
aF0.284
aF0.748
aF0.00116
aF-6.673
aF0.0726
aF113.95
aF0.215
aa(lp1480
g2
(g3
(S'S36'
p1481
I0
I1
tp1482
Rp1483
(I3
S'|'
p1484
NNNI36
I1
I0
tp1485
bS'The World Is Waiting For The Sunrise'
p1486
tp1487
Rp1488
ag2
(g3
(S'S10'
p1489
I0
I1
tp1490
Rp1491
(I3
S'|'
p1492
NNNI10
I1
I0
tp1493
bS'Bob Crosby'
p1494
tp1495
Rp1496
ag2
(g22
S'\x8c\x15\x8d&\x87Y\xe0?'
p1497
tp1498
Rp1499
ag2
(g22
S'C\xa9\xe9Tq\xee\xd8?'
p1500
tp1501
Rp1502
ag2
(g22
S'\x9bU\x9f\xab\xad\xb7e@'
p1503
tp1504
Rp1505
ag2
(g22
S'\x91\xed|?5^\xca?'
p1506
tp1507
Rp1508
ag2
(g22
S'\xa4p=\n\xd7\xe3d@'
p1509
tp1510
Rp1511
aF0.992
aF0.508
aF0.486
aF0.872
aF-11.954
aF0.0551
aF122.693
aF0.8
aa(lp1512
g2
(g3
(S'S19'
p1513
I0
I1
tp1514
Rp1515
(I3
S'|'
p1516
NNNI19
I1
I0
tp1517
bS'Let it go Interlude'
p1518
tp1519
Rp1520
ag2
(g3
(S'S3'
p1521
I0
I1
tp1522
Rp1523
(I3
S'|'
p1524
NNNI3
I1
I0
tp1525
bS'PMD'
p1526
tp1527
Rp1528
ag2
(g22
S'A\x8b\x0b\xb6\x87\xc5\xde?'
p1529
tp1530
Rp1531
ag2
(g22
S'@\xfc\x8c\x18\x1cp\xd9?'
p1532
tp1533
Rp1534
ag2
(g22
S']\xdcF\x03x#F@'
p1535
tp1536
Rp1537
ag2
(g22
S'\x00\x00\x00\x00\x00\x00\x00\x00'
p1538
tp1539
Rp1540
ag2
(g22
S'\x9e\xef\xa7\xc6K\x07E@'
p1541
tp1542
Rp1543
aF0.75
aF0.609
aF0.21
aI0
aF-19.825
aF0.794
aF97.597
aF0.403
aa(lp1544
g2
(g3
(S'S16'
p1545
I0
I1
tp1546
Rp1547
(I3
S'|'
p1548
NNNI16
I1
I0
tp1549
bS'Follow The Light'
p1550
tp1551
Rp1552
ag2
(g3
(S'S14'
p1553
I0
I1
tp1554
Rp1555
(I3
S'|'
p1556
NNNI14
I1
I0
tp1557
bS'Dungeon Family'
p1558
tp1559
Rp1560
ag2
(g22
S'-\x0f\x8e\x9c\xa9\xa1\xe0?'
p1561
tp1562
Rp1563
ag2
(g22
S'\xde\xe0\x08hb\x03\xd8?'
p1564
tp1565
Rp1566
ag2
(g22
S'\xf0\x85\xc9T\xc1\x8ap@'
p1567
tp1568
Rp1569
ag2
(g22
S'\x00\x00\x00\x00\x00\x00\x00\x00'
p1570
tp1571
Rp1572
ag2
(g22
S'\xcf\xf7S\xe3\xa5\x7fn@'
p1573
tp1574
Rp1575
aF0.3
aF0.924
aF0.743
aI0
aF-7.376
aF0.421
aF117.002
aF0.751
aa(lp1576
g2
(g3
(S'S30'
p1577
I0
I1
tp1578
Rp1579
(I3
S'|'
p1580
NNNI30
I1
I0
tp1581
bS'Night Falls (The Weight Of It)'
p1582
tp1583
Rp1584
ag2
(g3
(S'S6'
p1585
I0
I1
tp1586
Rp1587
(I3
S'|'
p1588
NNNI6
I1
I0
tp1589
bS'Strata'
p1590
tp1591
Rp1592
ag2
(g22
S'\xc2n\x96e]\x9c\xe3?'
p1593
tp1594
Rp1595
ag2
(g22
S'\x02\x91\xb9\xeb\xfb\xdd\xde?'
p1596
tp1597
Rp1598
ag2
(g22
S'\xeddp\x94\xbc(i@'
p1599
tp1600
Rp1601
ag2
(g22
S'\xbe\x9f\x1a/\xdd$\xd6?'
p1602
tp1603
Rp1604
ag2
(g22
S'\xe7\xfb\xa9\xf1\xd2\x11h@'
p1605
tp1606
Rp1607
aF0.0225
aF0.292
aF0.963
aF0.000247
aF-3.748
aF0.106
aF125.374
aF0.303
aa(lp1608
g2
(g3
(S'S15'
p1609
I0
I1
tp1610
Rp1611
(I3
S'|'
p1612
NNNI15
I1
I0
tp1613
bS'It Hurts Me Too'
p1614
tp1615
Rp1616
ag2
(g3
(S'S14'
p1617
I0
I1
tp1618
Rp1619
(I3
S'|'
p1620
NNNI14
I1
I0
tp1621
bS'Jeremy Spencer'
p1622
tp1623
Rp1624
ag2
(g22
S'n$d\xd9{\xab\xe0?'
p1625
tp1626
Rp1627
ag2
(g22
S'm\xe2\xfd#\xe0^\xca?'
p1628
tp1629
Rp1630
ag2
(g22
S')?\xa9\xf6i\x1cr@'
p1631
tp1632
Rp1633
ag2
(g22
S'!\xb0rh\x91\xed\xbc?'
p1634
tp1635
Rp1636
ag2
(g22
S'%\x06\x81\x95C}q@'
p1637
tp1638
Rp1639
aF0.925
aF0.373
aF0.219
aF0.582
aF-15.557
aF0.0328
aF184.716
aF0.304
aa(lp1640
g2
(g3
(S'S44'
p1641
I0
I1
tp1642
Rp1643
(I3
S'|'
p1644
NNNI44
I1
I0
tp1645
bS'I Woke Up One Morning And I Could Hardly See'
p1646
tp1647
Rp1648
ag2
(g3
(S'S28'
p1649
I0
I1
tp1650
Rp1651
(I3
S'|'
p1652
NNNI28
I1
I0
tp1653
bS'Sonny Terry / Brownie McGhee'
p1654
tp1655
Rp1656
ag2
(g22
S':\xef3r\x83\x8d\xe0?'
p1657
tp1658
Rp1659
ag2
(g22
S'=o%B\x15]\xd6?'
p1660
tp1661
Rp1662
ag2
(g22
S'\xf42\x8a\xe5\x96}u@'
p1663
tp1664
Rp1665
ag2
(g22
S'\x00\x00\x00\x00\x00\x00\x00\x00'
p1666
tp1667
Rp1668
ag2
(g22
S'\xcf\xf7S\xe3\xa5\x01u@'
p1669
tp1670
Rp1671
aF0.902
aF0.542
aF0.286
aF0.00622
aF-16.865
aF0.156
aF103.972
aF0.609
aa(lp1672
g2
(g3
(S'S7'
p1673
I0
I1
tp1674
Rp1675
(I3
S'|'
p1676
NNNI7
I1
I0
tp1677
bS'Lucindy'
p1678
tp1679
Rp1680
ag2
(g3
(S'S9'
p1681
I0
I1
tp1682
Rp1683
(I3
S'|'
p1684
NNNI9
I1
I0
tp1685
bS'Curt Bois'
p1686
tp1687
Rp1688
ag2
(g22
S'\xf4\xf4|\x9f\x19\x12\xd0?'
p1689
tp1690
Rp1691
ag2
(g22
S'C\x11\x90\x86\xf4\xb0\xbe?'
p1692
tp1693
Rp1694
ag2
(g22
S'\x89\xea\xad\x81\xad0c@'
p1695
tp1696
Rp1697
ag2
(g22
S'1\x08\xac\x1cZd\xbb?'
p1698
tp1699
Rp1700
ag2
(g22
S'\x93\x18\x04V\x0e=b@'
p1701
tp1702
Rp1703
aF0.793
aF0.363
aF0.304
aF0.000201
aF-16.01
aF0.13
aF99.659
aF0.24
aa(lp1704
g2
(g3
(S'S4'
p1705
I0
I1
tp1706
Rp1707
(I3
S'|'
p1708
NNNI4
I1
I0
tp1709
bS'Mort'
p1710
tp1711
Rp1712
ag2
(g3
(S'S15'
p1713
I0
I1
tp1714
Rp1715
(I3
S'|'
p1716
NNNI15
I1
I0
tp1717
bS'Monique Morelli'
p1718
tp1719
Rp1720
ag2
(g22
S'\xe0\\f\xb8\xd5\xcb\xd1?'
p1721
tp1722
Rp1723
ag2
(g22
S'\x8320\\Nr\xc9?'
p1724
tp1725
Rp1726
ag2
(g22
S'\xd5\xb2\xb5\xbeH\x02a@'
p1727
tp1728
Rp1729
ag2
(g22
S'\x89A`\xe5\xd0"\xd3?'
p1730
tp1731
Rp1732
ag2
(g22
S'\n\xd7\xa3p=\x9a^@'
p1733
tp1734
Rp1735
aF0.549
aF0.211
aF0.18
aF1.15e-06
aF-14.378
aF0.0394
aF90.001
aF0.197
aa(lp1736
g2
(g3
(S'S9'
p1737
I0
I1
tp1738
Rp1739
(I3
S'|'
p1740
NNNI9
I1
I0
tp1741
bS'Sebastian'
p1742
tp1743
Rp1744
ag2
(g3
(S'S13'
p1745
I0
I1
tp1746
Rp1747
(I3
S'|'
p1748
NNNI13
I1
I0
tp1749
bS'Daylight Torn'
p1750
tp1751
Rp1752
ag2
(g22
S'\x11\xb3\xd4\x17\xe5\xa0\xd2?'
p1753
tp1754
Rp1755
ag2
(g22
S'\xac\xb9}\xf4`\x80\xce?'
p1756
tp1757
Rp1758
ag2
(g22
S'\x85B\x04\x1cB"l@'
p1759
tp1760
Rp1761
ag2
(g22
S'\x0c\x02+\x87\x16\xd9\xce?'
p1762
tp1763
Rp1764
ag2
(g22
S'\xd3Mb\x10X\xfdj@'
p1765
tp1766
Rp1767
aF0.175
aF0.477
aF0.488
aF2.69e-06
aF-6.508
aF0.0263
aF136.129
aF0.172
aa(lp1768
g2
(g3
(S'S18'
p1769
I0
I1
tp1770
Rp1771
(I3
S'|'
p1772
NNNI18
I1
I0
tp1773
bS'My Little Blue One'
p1774
tp1775
Rp1776
ag2
(g3
(S'S12'
p1777
I0
I1
tp1778
Rp1779
(I3
S'|'
p1780
NNNI12
I1
I0
tp1781
bS'Cowboy Mouth'
p1782
tp1783
Rp1784
ag2
(g22
S'm\xf7N\xf0\xf6\xcb\xe5?'
p1785
tp1786
Rp1787
ag2
(g22
S'{\xfc;\xeb>\xba\xd9?'
p1788
tp1789
Rp1790
ag2
(g22
S'qU\xd9wE\x92d@'
p1791
tp1792
Rp1793
ag2
(g22
S'\x00\x00\x00\x00\x00\x00\x00\x00'
p1794
tp1795
Rp1796
ag2
(g22
S'w\xbe\x9f\x1a/\x99c@'
p1797
tp1798
Rp1799
aF0.00162
aF0.504
aF0.593
aI0
aF-8.919
aF0.0273
aF127.691
aF0.674
aa(lp1800
g2
(g3
(S'S25'
p1801
I0
I1
tp1802
Rp1803
(I3
S'|'
p1804
NNNI25
I1
I0
tp1805
bS'No Matter How She Done It'
p1806
tp1807
Rp1808
ag2
(g3
(S'S9'
p1809
I0
I1
tp1810
Rp1811
(I3
S'|'
p1812
NNNI9
I1
I0
tp1813
bS'Tampa Red'
p1814
tp1815
Rp1816
ag2
(g22
S'\xde\xcc\xb8@\xdf?\xe0?'
p1817
tp1818
Rp1819
ag2
(g22
S'\x942mx\xd0\xb1\xd6?'
p1820
tp1821
Rp1822
ag2
(g22
S'\xbc"\xf8\xdfJHf@'
p1823
tp1824
Rp1825
ag2
(g22
S'\xfc\xa9\xf1\xd2Mb\xd8?'
p1826
tp1827
Rp1828
ag2
(g22
S'\xf4\xfd\xd4x\xe9\xd2e@'
p1829
tp1830
Rp1831
aF0.995
aF0.659
aF0.208
aF0.0274
aF-15.914
aF0.0629
aF119.84
aF0.67
aa(lp1832
g2
(g3
(S'S9'
p1833
I0
I1
tp1834
Rp1835
(I3
S'|'
p1836
NNNI9
I1
I0
tp1837
bS'Vulture 4'
p1838
tp1839
Rp1840
ag2
(g3
(S'S8'
p1841
I0
I1
tp1842
Rp1843
(I3
S'|'
p1844
NNNI8
I1
I0
tp1845
bS'DJ Slugo'
p1846
tp1847
Rp1848
ag2
(g22
S'\xda]N\x12D\xe6\xe1?'
p1849
tp1850
Rp1851
ag2
(g22
S'i\x90\x1e\x83\xb1\x93\xd9?'
p1852
tp1853
Rp1854
ag2
(g22
S'LTo\rl!h@'
p1855
tp1856
Rp1857
ag2
(g22
S'\x00\x00\x00\x00\x00\x00\x00\x00'
p1858
tp1859
Rp1860
ag2
(g22
S'\xc5 \xb0rh!h@'
p1861
tp1862
Rp1863
aF0.000104
aF0.76
aF0.81
aF0.848
aF-11.503
aF0.0663
aF150.106
aF0.492
aa(lp1864
g2
(g3
(S'S30'
p1865
I0
I1
tp1866
Rp1867
(I3
S'|'
p1868
NNNI30
I1
I0
tp1869
bS'Alone Together (Live Acoustic)'
p1870
tp1871
Rp1872
ag2
(g3
(S'S11'
p1873
I0
I1
tp1874
Rp1875
(I3
S'|'
p1876
NNNI11
I1
I0
tp1877
bS'John Wesley'
p1878
tp1879
Rp1880
ag2
(g22
S'P\x1d\x0cL\x17\xf0\xe1?'
p1881
tp1882
Rp1883
ag2
(g22
S'\x7f\xeb\xa7\xb6\x80\xfa\xdc?'
p1884
tp1885
Rp1886
ag2
(g22
S'\xf5\xf3\xa6"\x15\xc1d@'
p1887
tp1888
Rp1889
ag2
(g22
S'\x00\x00\x00\x00\x00\x00\x00\x00'
p1890
tp1891
Rp1892
ag2
(g22
S'}?5^\xba\xddc@'
p1893
tp1894
Rp1895
aF0.793
aF0.402
aF0.19
aI0
aF-13.626
aF0.036
aF151.235
aF0.251
aa(lp1896
g2
(g3
(S'S26'
p1897
I0
I1
tp1898
Rp1899
(I3
S'|'
p1900
NNNI26
I1
I0
tp1901
bS'Diamonds From Sierra Leone'
p1902
tp1903
Rp1904
ag2
(g3
(S'S10'
p1905
I0
I1
tp1906
Rp1907
(I3
S'|'
p1908
NNNI10
I1
I0
tp1909
bS'Kanye West'
p1910
tp1911
Rp1912
ag2
(g22
S'\x14#\xcb\x8f"\x12\xec?'
p1913
tp1914
Rp1915
ag2
(g22
S'\xf4\x99o3\xeeQ\xf1?'
p1916
tp1917
Rp1918
ag2
(g22
S'T5A\xd4}\xf4n@'
p1919
tp1920
Rp1921
ag2
(g22
S'\xe9&1\x08\xac\x1c\x00@'
p1922
tp1923
Rp1924
ag2
(g22
S'\xb4\xc8v\xbe\x9fVn@'
p1925
tp1926
Rp1927
aF0.244
aF0.658
aF0.803
aI0
aF-3.742
aF0.258
aF96.808
aF0.471
aa(lp1928
g2
(g3
(S'S22'
p1929
I0
I1
tp1930
Rp1931
(I3
S'|'
p1932
NNNI22
I1
I0
tp1933
bS'On The Edge Of Forever'
p1934
tp1935
Rp1936
ag2
(g3
(S'S20'
p1937
I0
I1
tp1938
Rp1939
(I3
S'|'
p1940
NNNI20
I1
I0
tp1941
bS'Mannheim Steamroller'
p1942
tp1943
Rp1944
ag2
(g22
S'MO\x18\xbe\xa7\xa1\xe4?'
p1945
tp1946
Rp1947
ag2
(g22
S'V^\x97\n\xbb\xad\xe4?'
p1948
tp1949
Rp1950
ag2
(g22
S'\xaf\xce1 {Zq@'
p1951
tp1952
Rp1953
ag2
(g22
S'\xf8S\xe3\xa5\x9b\xc4\xc0?'
p1954
tp1955
Rp1956
ag2
(g22
S'F\xb6\xf3\xfd\xd4\xb8p@'
p1957
tp1958
Rp1959
aF0.744
aF0.507
aF0.133
aF0.849
aF-19.953
aF0.0292
aF109.687
aF0.203
aa(lp1960
g2
(g3
(S'S10'
p1961
I0
I1
tp1962
Rp1963
(I3
S'|'
p1964
NNNI10
I1
I0
tp1965
bS'La Bambola'
p1966
tp1967
Rp1968
ag2
(g3
(S'S13'
p1969
I0
I1
tp1970
Rp1971
(I3
S'|'
p1972
NNNI13
I1
I0
tp1973
bS'Los Iracundos'
p1974
tp1975
Rp1976
ag2
(g22
S'\xd2A\xa9\x1eU_\xdf?'
p1977
tp1978
Rp1979
ag2
(g22
S'B\xb2\x82r\x82(\xd8?'
p1980
tp1981
Rp1982
ag2
(g22
S'0\r\xc3G\xc4\xabb@'
p1983
tp1984
Rp1985
ag2
(g22
S'P\x8d\x97n\x12\x83\xd0?'
p1986
tp1987
Rp1988
ag2
(g22
S'\xe5\xd0"\xdb\xf9\x1eb@'
p1989
tp1990
Rp1991
aF0.718
aF0.632
aF0.47
aF0.0058
aF-10.661
aF0.0448
aF125.987
aF0.865
aa(lp1992
g2
(g3
(S'S13'
p1993
I0
I1
tp1994
Rp1995
(I3
S'|'
p1996
NNNI13
I1
I0
tp1997
bS'Is This Legal'
p1998
tp1999
Rp2000
ag2
(g3
(S'S14'
p2001
I0
I1
tp2002
Rp2003
(I3
S'|'
p2004
NNNI14
I1
I0
tp2005
bS'The Lord Henry'
p2006
tp2007
Rp2008
ag2
(g22
S'\x8aq\x86b\x99\xc8\xdc?'
p2009
tp2010
Rp2011
ag2
(g22
S'\x00\x00\x00\x00\x00\x00\x00\x00'
p2012
tp2013
Rp2014
ag2
(g22
S' \xd2o_\x07\xf3m@'
p2015
tp2016
Rp2017
ag2
(g22
S'1\x08\xac\x1cZd\xbb?'
p2018
tp2019
Rp2020
ag2
(g22
S'\xc1\xca\xa1E\xb6\x0fk@'
p2021
tp2022
Rp2023
aF1.7e-05
aF0.371
aF0.731
aF2.59e-05
aF-4.871
aF0.0396
aF143.015
aF0.224
aa(lp2024
g2
(g3
(S'S8'
p2025
I0
I1
tp2026
Rp2027
(I3
S'|'
p2028
NNNI8
I1
I0
tp2029
bS'Near You'
p2030
tp2031
Rp2032
ag2
(g3
(S'S12'
p2033
I0
I1
tp2034
Rp2035
(I3
S'|'
p2036
NNNI12
I1
I0
tp2037
bS'Floyd Cramer'
p2038
tp2039
Rp2040
ag2
(g22
S'XN\xac/\x86\xba\xe4?'
p2041
tp2042
Rp2043
ag2
(g22
S'\xf1\xe2|X\xca*\xda?'
p2044
tp2045
Rp2046
ag2
(g22
S'\xf5JY\x868^]@'
p2047
tp2048
Rp2049
ag2
(g22
S'\x8d\x97n\x12\x83\xc0\xd2?'
p2050
tp2051
Rp2052
ag2
(g22
S'\xa0\x1a/\xdd$\xa6\\@'
p2053
tp2054
Rp2055
aF0.521
aF0.828
aF0.322
aF0.867
aF-16.08
aF0.0638
aF111.645
aF0.797
aa(lp2056
g2
(g3
(S'S8'
p2057
I0
I1
tp2058
Rp2059
(I3
S'|'
p2060
NNNI8
I1
I0
tp2061
bS'Break Em'
p2062
tp2063
Rp2064
ag2
(g3
(S'S7'
p2065
I0
I1
tp2066
Rp2067
(I3
S'|'
p2068
NNNI7
I1
I0
tp2069
bS'Ultra X'
p2070
tp2071
Rp2072
ag2
(g22
S'\x82[\xa70\xd4\xf0\xd8?'
p2073
tp2074
Rp2075
ag2
(g22
S'\x00\x00\x00\x00\x00\x00\x00\x00'
p2076
tp2077
Rp2078
ag2
(g22
S'>\xd0\n\x0cY$j@'
p2079
tp2080
Rp2081
ag2
(g22
S'\xe9&1\x08\xac\x1c\xba?'
p2082
tp2083
Rp2084
ag2
(g22
S"33333'h@"
p2085
tp2086
Rp2087
aF0.0648
aF0.789
aF0.767
aI0
aF-7.927
aF0.144
aF101.582
aF0.886
aa(lp2088
g2
(g3
(S'S25'
p2089
I0
I1
tp2090
Rp2091
(I3
S'|'
p2092
NNNI25
I1
I0
tp2093
bS'Sunshine Anchorman Medley'
p2094
tp2095
Rp2096
ag2
(g3
(S'S31'
p2097
I0
I1
tp2098
Rp2099
(I3
S'|'
p2100
NNNI31
I1
I0
tp2101
bS'Jonathan Edwards / Will Ferrell'
p2102
tp2103
Rp2104
ag2
(g22
S'm%\x83\x17\xeb!\xe2?'
p2105
tp2106
Rp2107
ag2
(g22
S'\x99\x1c&\x13^\x95\xd9?'
p2108
tp2109
Rp2110
ag2
(g22
S'\xc8\xb5\xa1b\x9c\xf2c@'
p2111
tp2112
Rp2113
ag2
(g22
S'\x00\x00\x00\x00\x00\x00\x00\x00'
p2114
tp2115
Rp2116
ag2
(g22
S'?5^\xbaI<c@'
p2117
tp2118
Rp2119
aF0.351
aF0.715
aF0.512
aI0
aF-8.355
aF0.117
aF126.291
aF0.811
aa(lp2120
g2
(g3
(S'S20'
p2121
I0
I1
tp2122
Rp2123
(I3
S'|'
p2124
NNNI20
I1
I0
tp2125
bS'A Dustland Fairytale'
p2126
tp2127
Rp2128
ag2
(g3
(S'S11'
p2129
I0
I1
tp2130
Rp2131
(I3
S'|'
p2132
NNNI11
I1
I0
tp2133
bS'The Killers'
p2134
tp2135
Rp2136
ag2
(g22
S'Wc\x87\x01\xf5c\xed?'
p2137
tp2138
Rp2139
ag2
(g22
S'A\x10\x12\x82f\x86\xea?'
p2140
tp2141
Rp2142
ag2
(g22
S'\xe5\xb3<\x0f\xee#l@'
p2143
tp2144
Rp2145
ag2
(g22
S'\x00\x00\x00\x00\x00\x00\x00\x00'
p2146
tp2147
Rp2148
ag2
(g22
S'\xfc\xa9\xf1\xd2M\xf6i@'
p2149
tp2150
Rp2151
aF0.0533
aF0.441
aF0.87
aF3.7e-06
aF-4.845
aF0.057
aF134.469
aF0.274
aa(lp2152
g2
(g3
(S'S10'
p2153
I0
I1
tp2154
Rp2155
(I3
S'|'
p2156
NNNI10
I1
I0
tp2157
bS'Dr Kaotica'
p2158
tp2159
Rp2160
ag2
(g3
(S'S12'
p2161
I0
I1
tp2162
Rp2163
(I3
S'|'
p2164
NNNI12
I1
I0
tp2165
bS'Organ Donors'
p2166
tp2167
Rp2168
ag2
(g22
S'\x98H\xc9x1\xe7\xdd?'
p2169
tp2170
Rp2171
ag2
(g22
S'\x11X\xa3\x1d\xad\x0b\xdb?'
p2172
tp2173
Rp2174
ag2
(g22
S'\x8c\x10\x1em\x1cw|@'
p2175
tp2176
Rp2177
ag2
(g22
S'\n\xd7\xa3p=\n\xdf?'
p2178
tp2179
Rp2180
ag2
(g22
S'\x8d\x97n\x12\x83\xa0{@'
p2181
tp2182
Rp2183
aF0.00181
aF0.602
aF0.944
aF0.0216
aF-3.617
aF0.0505
aF134.008
aF0.215
aa(lp2184
g2
(g3
(S'S5'
p2185
I0
I1
tp2186
Rp2187
(I3
S'|'
p2188
NNNI5
I1
I0
tp2189
bS'Intro'
p2190
tp2191
Rp2192
ag2
(g3
(S'S8'
p2193
I0
I1
tp2194
Rp2195
(I3
S'|'
p2196
NNNI8
I1
I0
tp2197
bS'Tha Liks'
p2198
tp2199
Rp2200
ag2
(g22
S'CM\xa2{H,\xe1?'
p2201
tp2202
Rp2203
ag2
(g22
S'\x00\x00\x00\x00\x00\x00\x00\x00'
p2204
tp2205
Rp2206
ag2
(g22
S'\xcb\x10\xc7\xba\xb8\x9dE@'
p2207
tp2208
Rp2209
ag2
(g22
S'\xe1z\x14\xaeG\xe1\x03@'
p2210
tp2211
Rp2212
ag2
(g22
S'\x04V\x0e-\xb2\x9dE@'
p2213
tp2214
Rp2215
aF0.0109
aF0.629
aF0.413
aF0.00044
aF-11.683
aF0.498
aF47.226
aF0.848
aa(lp2216
g2
(g3
(S'S22'
p2217
I0
I1
tp2218
Rp2219
(I3
S'|'
p2220
NNNI22
I1
I0
tp2221
bS"I'm That Type Of Ni**a"
p2222
tp2223
Rp2224
ag2
(g3
(S'S12'
p2225
I0
I1
tp2226
Rp2227
(I3
S'|'
p2228
NNNI12
I1
I0
tp2229
bS'The Pharcyde'
p2230
tp2231
Rp2232
ag2
(g22
S'\x05\x01\x06\xb1_\x17\xe8?'
p2233
tp2234
Rp2235
ag2
(g22
S'\x17\xde\x00G.[\xe0?'
p2236
tp2237
Rp2238
ag2
(g22
S'I\x85\xb1\x85\xa0\xbfs@'
p2239
tp2240
Rp2241
ag2
(g22
S'\x91\xed|?5^\xca?'
p2242
tp2243
Rp2244
ag2
(g22
S'R\xb8\x1e\x85\xebes@'
p2245
tp2246
Rp2247
aF0.00104
aF0.846
aF0.778
aI0
aF-7.333
aF0.24
aF102.864
aF0.474
aa(lp2248
g2
(g3
(S'S14'
p2249
I0
I1
tp2250
Rp2251
(I3
S'|'
p2252
NNNI14
I1
I0
tp2253
bS'Somebody Sweet'
p2254
tp2255
Rp2256
ag2
(g3
(S'S18'
p2257
I0
I1
tp2258
Rp2259
(I3
S'|'
p2260
NNNI18
I1
I0
tp2261
bS'John D. Loudermilk'
p2262
tp2263
Rp2264
ag2
(g22
S'k\x866:\xfa\x82\xda?'
p2265
tp2266
Rp2267
ag2
(g22
S'C3\x1bIEd\xd2?'
p2268
tp2269
Rp2270
ag2
(g22
S'\xc7\x11k\xf1)t\\@'
p2271
tp2272
Rp2273
ag2
(g22
S'{\x14\xaeG\xe1z\xc4?'
p2274
tp2275
Rp2276
ag2
(g22
S'\xd7\xa3p=\nW[@'
p2277
tp2278
Rp2279
aF0.302
aF0.535
aF0.635
aI0
aF-11.322
aF0.0573
aF175.273
aF0.887
aa(lp2280
g2
(g3
(S'S19'
p2281
I0
I1
tp2282
Rp2283
(I3
S'|'
p2284
NNNI19
I1
I0
tp2285
bS'Just My Imagination'
p2286
tp2287
Rp2288
ag2
(g3
(S'S16'
p2289
I0
I1
tp2290
Rp2291
(I3
S'|'
p2292
NNNI16
I1
I0
tp2293
bS'Cornell Campbell'
p2294
tp2295
Rp2296
ag2
(g22
S'\xb4\xe9\xfc\x01\xe6\xc8\xe2?'
p2297
tp2298
Rp2299
ag2
(g22
S'8\xe7\x97\t\xd3\x86\xd8?'
p2300
tp2301
Rp2302
ag2
(g22
S'g\xed\xb6\x0b\xcd\xd1d@'
p2303
tp2304
Rp2305
ag2
(g22
S'\x81\x95C\x8bl\xe7\xcb?'
p2306
tp2307
Rp2308
ag2
(g22
S'33333\xb3b@'
p2309
tp2310
Rp2311
aF0.245
aF0.709
aF0.762
aI0
aF-3.701
aF0.031
aF88.992
aF0.807
aa(lp2312
g2
(g3
(S'S12'
p2313
I0
I1
tp2314
Rp2315
(I3
S'|'
p2316
NNNI12
I1
I0
tp2317
bS'Young Riders'
p2318
tp2319
Rp2320
ag2
(g3
(S'S8'
p2321
I0
I1
tp2322
Rp2323
(I3
S'|'
p2324
NNNI8
I1
I0
tp2325
bS'Hot Boys'
p2326
tp2327
Rp2328
ag2
(g22
S't/\xc2\xf7\xcd\xcb\xe0?'
p2329
tp2330
Rp2331
ag2
(g22
S'0uW\t\xaf\x83\xd7?'
p2332
tp2333
Rp2334
ag2
(g22
S'\xb5\xc3_\x935~l@'
p2335
tp2336
Rp2337
ag2
(g22
S'\x00\x00\x00\x00\x00\x00\x00\x00'
p2338
tp2339
Rp2340
ag2
(g22
S'\xe3\xa5\x9b\xc4 \xbcj@'
p2341
tp2342
Rp2343
aF0.0372
aF0.657
aF0.753
aI0
aF-6.427
aF0.357
aF92.695
aF0.764
aa(lp2344
g2
(g3
(S'S10'
p2345
I0
I1
tp2346
Rp2347
(I3
S'|'
p2348
NNNI10
I1
I0
tp2349
bS"Lovin' You"
p2350
tp2351
Rp2352
ag2
(g3
(S'S15'
p2353
I0
I1
tp2354
Rp2355
(I3
S'|'
p2356
NNNI15
I1
I0
tp2357
bS'Minnie Riperton'
p2358
tp2359
Rp2360
ag2
(g22
S'cd\xa7\xa1;\xe4\xe4?'
p2361
tp2362
Rp2363
ag2
(g22
S'\xc7\xfc4\xa14\x8c\xd8?'
p2364
tp2365
Rp2366
ag2
(g22
S"\r\x1a\xfa'\xb8\x15l@"
p2367
tp2368
Rp2369
ag2
(g22
S'\xee|?5^\xba\xd9?'
p2370
tp2371
Rp2372
ag2
(g22
S'b\x10X9\xb4\xf0j@'
p2373
tp2374
Rp2375
aF0.901
aF0.548
aF0.33
aI0
aF-8.998
aF0.044
aF123.602
aF0.309
aa(lp2376
g2
(g3
(S'S37'
p2377
I0
I1
tp2378
Rp2379
(I3
S'|'
p2380
NNNI37
I1
I0
tp2381
bS'Long Way 2 Go [Friscia & Lamboy Club]'
p2382
tp2383
Rp2384
ag2
(g3
(S'S6'
p2385
I0
I1
tp2386
Rp2387
(I3
S'|'
p2388
NNNI6
I1
I0
tp2389
bS'Cassie'
p2390
tp2391
Rp2392
ag2
(g22
S'\x00\x00\x00\x00\x00\x00\x00\x00'
p2393
tp2394
Rp2395
ag2
(g22
S'@F\x836\xf2\x83\xde?'
p2396
tp2397
Rp2398
ag2
(g22
S'\xfaD\x9e$\xdd\xad~@'
p2399
tp2400
Rp2401
ag2
(g22
S'\x10X9\xb4\xc8v\xbe?'
p2402
tp2403
Rp2404
ag2
(g22
S'\x9e\xef\xa7\xc6KC~@'
p2405
tp2406
Rp2407
aF0.0123
aF0.787
aF0.846
aF0.0506
aF-5.472
aF0.0564
aF122.991
aF0.569
aa(lp2408
g2
(g3
(S'S20'
p2409
I0
I1
tp2410
Rp2411
(I3
S'|'
p2412
NNNI20
I1
I0
tp2413
bS'Caught - Special Way'
p2414
tp2415
Rp2416
ag2
(g3
(S'S7'
p2417
I0
I1
tp2418
Rp2419
(I3
S'|'
p2420
NNNI7
I1
I0
tp2421
bS'Freedom'
p2422
tp2423
Rp2424
ag2
(g22
S'A\xc1\x05 \xf8\xf2\xe0?'
p2425
tp2426
Rp2427
ag2
(g22
S'\xd9\xac-\x0c\x07\n\xd4?'
p2428
tp2429
Rp2430
ag2
(g22
S'+\xde\xc8<\xf2\xafn@'
p2431
tp2432
Rp2433
ag2
(g22
S'\x93\x18\x04V\x0e-\xda?'
p2434
tp2435
Rp2436
ag2
(g22
S')\\\x8f\xc2\xf5\\m@'
p2437
tp2438
Rp2439
aF0.829
aF0.699
aF0.63
aF0.0185
aF-11.617
aF0.304
aF81.743
aF0.521
aa(lp2440
g2
(g3
(S'S18'
p2441
I0
I1
tp2442
Rp2443
(I3
S'|'
p2444
NNNI18
I1
I0
tp2445
bS'Monkey Faced Woman'
p2446
tp2447
Rp2448
ag2
(g3
(S'S10'
p2449
I0
I1
tp2450
Rp2451
(I3
S'|'
p2452
NNNI10
I1
I0
tp2453
bS'Otis Spann'
p2454
tp2455
Rp2456
ag2
(g22
S'?i6\xfcT\x1a\xe1?'
p2457
tp2458
Rp2459
ag2
(g22
S'S\x81^O\x9b\x98\xd7?'
p2460
tp2461
Rp2462
ag2
(g22
S'\x8b\xe0\x7f+\xd9\xa8r@'
p2463
tp2464
Rp2465
ag2
(g22
S'\xa6\x9b\xc4 \xb0r\xe0?'
p2466
tp2467
Rp2468
ag2
(g22
S'L7\x89A`-r@'
p2469
tp2470
Rp2471
aF0.965
aF0.44
aF0.106
aF0.000139
aF-24.773
aF0.0366
aF91.538
aF0.394
aa(lp2472
g2
(g3
(S'S29'
p2473
I0
I1
tp2474
Rp2475
(I3
S'|'
p2476
NNNI29
I1
I0
tp2477
bS'Strange Way To Save The World'
p2478
tp2479
Rp2480
ag2
(g3
(S'S4'
p2481
I0
I1
tp2482
Rp2483
(I3
S'|'
p2484
NNNI4
I1
I0
tp2485
bS'4Him'
p2486
tp2487
Rp2488
ag2
(g22
S'\xec\x1b\xcae7\x15\xe2?'
p2489
tp2490
Rp2491
ag2
(g22
S'\x1b\xfa\xd9\xc7\xc2\xb5\xdc?'
p2492
tp2493
Rp2494
ag2
(g22
S'\xa3\x1e\xa2\xd1\x9d\xe4p@'
p2495
tp2496
Rp2497
ag2
(g22
S'\xa2E\xb6\xf3\xfd\xd4\xc8?'
p2498
tp2499
Rp2500
ag2
(g22
S'#\xdb\xf9~j\x02p@'
p2501
tp2502
Rp2503
aF0.528
aF0.532
aF0.462
aF3.4e-06
aF-9.514
aF0.0301
aF120.938
aF0.198
aa(lp2504
g2
(g3
(S'S11'
p2505
I0
I1
tp2506
Rp2507
(I3
S'|'
p2508
NNNI11
I1
I0
tp2509
bS'La Panadera'
p2510
tp2511
Rp2512
ag2
(g3
(S'S26'
p2513
I0
I1
tp2514
Rp2515
(I3
S'|'
p2516
NNNI26
I1
I0
tp2517
bS'Pedro Laza Y Sus Pelayeros'
p2518
tp2519
Rp2520
ag2
(g22
S'\x1bZ\xce~38\xd9?'
p2521
tp2522
Rp2523
ag2
(g22
S'A\xa0s\x94xb\xd2?'
p2524
tp2525
Rp2526
ag2
(g22
S'\xd7i\xa4\xa5\xf2\xbdc@'
p2527
tp2528
Rp2529
ag2
(g22
S'{\x14\xaeG\xe1z\xc4?'
p2530
tp2531
Rp2532
ag2
(g22
S'?5^\xbaIDc@'
p2533
tp2534
Rp2535
aF0.737
aF0.712
aF0.84
aF1.04e-05
aF-2.759
aF0.109
aF123.304
aF0.862
aa(lp2536
g2
(g3
(S'S13'
p2537
I0
I1
tp2538
Rp2539
(I3
S'|'
p2540
NNNI13
I1
I0
tp2541
bS'Second Chance'
p2542
tp2543
Rp2544
ag2
(g3
(S'S10'
p2545
I0
I1
tp2546
Rp2547
(I3
S'|'
p2548
NNNI10
I1
I0
tp2549
bS'The Sterns'
p2550
tp2551
Rp2552
ag2
(g22
S'X\xdc\xa42K9\xdf?'
p2553
tp2554
Rp2555
ag2
(g22
S'\x9e\xd7\x148\x8b\x84\xd7?'
p2556
tp2557
Rp2558
ag2
(g22
S'7qr\xbfCZd@'
p2559
tp2560
Rp2561
ag2
(g22
S'\x98n\x12\x83\xc0\xca\xe9?'
p2562
tp2563
Rp2564
ag2
(g22
S'\xbe\x9f\x1a/\xdd\xf8b@'
p2565
tp2566
Rp2567
aF4.33e-05
aF0.456
aF0.946
aF0.000282
aF-3.986
aF0.0337
aF94.076
aF0.701
aa(lp2568
g2
(g3
(S'S35'
p2569
I0
I1
tp2570
Rp2571
(I3
S'|'
p2572
NNNI35
I1
I0
tp2573
bS'Class Clown/Good Old Days (Reprise)'
p2574
tp2575
Rp2576
ag2
(g3
(S'S6'
p2577
I0
I1
tp2578
Rp2579
(I3
S'|'
p2580
NNNI6
I1
I0
tp2581
bS'Owsley'
p2582
tp2583
Rp2584
ag2
(g22
S'\xc0\xe9\x83\xfc{D\xe0?'
p2585
tp2586
Rp2587
ag2
(g22
S'\x1d\x80\x83\x1c\x06Z\xd8?'
p2588
tp2589
Rp2590
ag2
(g22
S'\xf9\xbdM\x7fv\xc0u@'
p2591
tp2592
Rp2593
ag2
(g22
S'\xfe\xd4x\xe9&1\xc8?'
p2594
tp2595
Rp2596
ag2
(g22
S'%\x06\x81\x95Cwt@'
p2597
tp2598
Rp2599
aF0.00756
aF0.223
aF0.684
aF0.000272
aF-8.151
aF0.0409
aF191.973
aF0.183
aa(lp2600
g2
(g3
(S'S24'
p2601
I0
I1
tp2602
Rp2603
(I3
S'|'
p2604
NNNI24
I1
I0
tp2605
bS'Standing In The Darkness'
p2606
tp2607
Rp2608
ag2
(g3
(S'S5'
p2609
I0
I1
tp2610
Rp2611
(I3
S'|'
p2612
NNNI5
I1
I0
tp2613
bS'Alias'
p2614
tp2615
Rp2616
ag2
(g22
S'\x8d\x1b\x1f\xb3\xda\xa6\xe4?'
p2617
tp2618
Rp2619
ag2
(g22
S'3\xfb\xa9\x89\xca\x12\xdb?'
p2620
tp2621
Rp2622
ag2
(g22
S'9EGry"q@'
p2623
tp2624
Rp2625
ag2
(g22
S'\x17\xd9\xce\xf7S\xe3\xdd?'
p2626
tp2627
Rp2628
ag2
(g22
S'\xe1z\x14\xaeGUo@'
p2629
tp2630
Rp2631
aF0.015
aF0.467
aF0.768
aF0.0219
aF-10.605
aF0.0422
aF140.436
aF0.46
aa(lp2632
g2
(g3
(S'S18'
p2633
I0
I1
tp2634
Rp2635
(I3
S'|'
p2636
NNNI18
I1
I0
tp2637
bS'All About Our Love'
p2638
tp2639
Rp2640
ag2
(g3
(S'S4'
p2641
I0
I1
tp2642
Rp2643
(I3
S'|'
p2644
NNNI4
I1
I0
tp2645
bS'Sade'
p2646
tp2647
Rp2648
ag2
(g22
S'\xd10\xeaM\x10\xb0\xe8?'
p2649
tp2650
Rp2651
ag2
(g22
S'\xbd<\xe0h\x11\x8e\xe0?'
p2652
tp2653
Rp2654
ag2
(g22
S'\xac\xa8\xc14\x0c\x14d@'
p2655
tp2656
Rp2657
ag2
(g22
S'\xee|?5^\xba\xc9?'
p2658
tp2659
Rp2660
ag2
(g22
S'm\xe7\xfb\xa9\xf1jb@'
p2661
tp2662
Rp2663
aF0.182
aF0.799
aF0.521
aF0.00975
aF-8.421
aF0.0355
aF81.043
aF0.646
aa(lp2664
g2
(g3
(S'S22'
p2665
I0
I1
tp2666
Rp2667
(I3
S'|'
p2668
NNNI22
I1
I0
tp2669
bS"Gammer Gerten's Needle"
p2670
tp2671
Rp2672
ag2
(g3
(S'S19'
p2673
I0
I1
tp2674
Rp2675
(I3
S'|'
p2676
NNNI19
I1
I0
tp2677
bS'Deep Blue Something'
p2678
tp2679
Rp2680
ag2
(g22
S'\x8c\xa8\xb8;\n\xfd\xe4?'
p2681
tp2682
Rp2683
ag2
(g22
S'\x12\x08\x87\x92\x019\xda?'
p2684
tp2685
Rp2686
ag2
(g22
S'\xb8\xaf\x03\xe7\x8c\xech@'
p2687
tp2688
Rp2689
ag2
(g22
S'\xfe\xd4x\xe9&1\n@'
p2690
tp2691
Rp2692
ag2
(g22
S'\x02+\x87\x16\xd9Zg@'
p2693
tp2694
Rp2695
aF0.00254
aF0.247
aF0.769
aF0.808
aF-7.175
aF0.0602
aF158.112
aF0.0759
aa(lp2696
g2
(g3
(S'S21'
p2697
I0
I1
tp2698
Rp2699
(I3
S'|'
p2700
NNNI21
I1
I0
tp2701
bS'Leave My Kitten Alone'
p2702
tp2703
Rp2704
ag2
(g3
(S'S18'
p2705
I0
I1
tp2706
Rp2707
(I3
S'|'
p2708
NNNI18
I1
I0
tp2709
bS'Little Willie John'
p2710
tp2711
Rp2712
ag2
(g22
S'\x0e\x9a\x82I\x85Z\xe1?'
p2713
tp2714
Rp2715
ag2
(g22
S'\xff\xae\xc5\xd9\x9bu\xd6?'
p2716
tp2717
Rp2718
ag2
(g22
S'\xb7\xee\xe6\xa9\x0ehb@'
p2719
tp2720
Rp2721
ag2
(g22
S'\x00\x00\x00\x00\x00\x00\x00\x00'
p2722
tp2723
Rp2724
ag2
(g22
S'\x83\xc0\xca\xa1E\x96a@'
p2725
tp2726
Rp2727
aF0.691
aF0.402
aF0.627
aF0.00672
aF-13.545
aF0.0427
aF103.457
aF0.861
aa(lp2728
g2
(g3
(S'S40'
p2729
I0
I1
tp2730
Rp2731
(I3
S'|'
p2732
NNNI40
I1
I0
tp2733
bS"That's Not the Way Love's Supposed to Be"
p2734
tp2735
Rp2736
ag2
(g3
(S'S9'
p2737
I0
I1
tp2738
Rp2739
(I3
S'|'
p2740
NNNI9
I1
I0
tp2741
bS'Tora Tora'
p2742
tp2743
Rp2744
ag2
(g22
S';i\xb8\xb4\xf8\xd9\xe1?'
p2745
tp2746
Rp2747
ag2
(g22
S'y\x8c\xc6\xf6/\xab\xd7?'
p2748
tp2749
Rp2750
ag2
(g22
S'\xc7.Q\xbd5\x05o@'
p2751
tp2752
Rp2753
ag2
(g22
S'\x00\x00\x00\x00\x00\x00\x00\x00'
p2754
tp2755
Rp2756
ag2
(g22
S'\x98n\x12\x83\xc0vn@'
p2757
tp2758
Rp2759
aF7.88e-05
aF0.581
aF0.841
aF0.512
aF-11.796
aF0.0472
aF110.504
aF0.459
aa(lp2760
g2
(g3
(S'S13'
p2761
I0
I1
tp2762
Rp2763
(I3
S'|'
p2764
NNNI13
I1
I0
tp2765
bS'Does It Float'
p2766
tp2767
Rp2768
ag2
(g3
(S'S12'
p2769
I0
I1
tp2770
Rp2771
(I3
S'|'
p2772
NNNI12
I1
I0
tp2773
bS'Dinosaur Jr.'
p2774
tp2775
Rp2776
ag2
(g22
S'\n\x81h1V\xfe\xe7?'
p2777
tp2778
Rp2779
ag2
(g22
S'\xdd\x99\x9dUQ\xa6\xe1?'
p2780
tp2781
Rp2782
ag2
(g22
S'\xb7\xb4\x1a\x12\xf7\xd0h@'
p2783
tp2784
Rp2785
ag2
(g22
S'V\x0e-\xb2\x9d\xef\xd7?'
p2786
tp2787
Rp2788
ag2
(g22
S'\x8f\xc2\xf5(\\\xbfg@'
p2789
tp2790
Rp2791
aF0.0171
aF0.264
aF0.911
aF0.11
aF-4.367
aF0.181
aF92.606
aF0.313
aa(lp2792
g2
(g3
(S'S26'
p2793
I0
I1
tp2794
Rp2795
(I3
S'|'
p2796
NNNI26
I1
I0
tp2797
bS"Why can't we live together"
p2798
tp2799
Rp2800
ag2
(g3
(S'S9'
p2801
I0
I1
tp2802
Rp2803
(I3
S'|'
p2804
NNNI9
I1
I0
tp2805
bS'Sin Plomo'
p2806
tp2807
Rp2808
ag2
(g22
S'\xd4u\x9d\xc5\xdd\x83\xdd?'
p2809
tp2810
Rp2811
ag2
(g22
S'e.I\x97\x82\xd1\xd2?'
p2812
tp2813
Rp2814
ag2
(g22
S'\x02\x829z\xfc\xc7{@'
p2815
tp2816
Rp2817
ag2
(g22
S'\xfa~j\xbct\x93\x0f@'
p2818
tp2819
Rp2820
ag2
(g22
S'H\xe1z\x14\xaeg{@'
p2821
tp2822
Rp2823
aF0.00284
aF0.473
aF0.948
aF0.263
aF-9.304
aF0.0627
aF180.058
aF0.155
aa(lp2824
g2
(g3
(S'S16'
p2825
I0
I1
tp2826
Rp2827
(I3
S'|'
p2828
NNNI16
I1
I0
tp2829
bS'Along Comes Mary'
p2830
tp2831
Rp2832
ag2
(g3
(S'S10'
p2833
I0
I1
tp2834
Rp2835
(I3
S'|'
p2836
NNNI10
I1
I0
tp2837
bS'Cal Tjader'
p2838
tp2839
Rp2840
ag2
(g22
S'?\x0c+\xf7r\xf9\xe3?'
p2841
tp2842
Rp2843
ag2
(g22
S'\xbd\xf2-\x98\xf4\x9e\xd7?'
p2844
tp2845
Rp2846
ag2
(g22
S'\xf7\xe9x\xcc@\xf8h@'
p2847
tp2848
Rp2849
ag2
(g22
S'\xcb\xa1E\xb6\xf3\xfd\xd4?'
p2850
tp2851
Rp2852
ag2
(g22
S'\xe9&1\x08\xacdh@'
p2853
tp2854
Rp2855
aF0.929
aF0.538
aF0.329
aF0.794
aF-20.003
aF0.0346
aF143.517
aF0.847
aa(lp2856
g2
(g3
(S'S19'
p2857
I0
I1
tp2858
Rp2859
(I3
S'|'
p2860
NNNI19
I1
I0
tp2861
bS'Die Romantic [Live]'
p2862
tp2863
Rp2864
ag2
(g3
(S'S5'
p2865
I0
I1
tp2866
Rp2867
(I3
S'|'
p2868
NNNI5
I1
I0
tp2869
bS'Aiden'
p2870
tp2871
Rp2872
ag2
(g22
S'\x1b\xba\xce\xe0p\xc0\xe8?'
p2873
tp2874
Rp2875
ag2
(g22
S'\xbd\x0c\xa2\xe8\xc2\x03\xe0?'
p2876
tp2877
Rp2878
ag2
(g22
S'\xf47\xa1\x10\x01!n@'
p2879
tp2880
Rp2881
ag2
(g22
S'\x00\x00\x00\x00\x00\x00\x00\x00'
p2882
tp2883
Rp2884
ag2
(g22
S')\\\x8f\xc2\xf5\x88m@'
p2885
tp2886
Rp2887
aF2.82e-05
aF0.302
aF0.893
aF7.87e-05
aF-7.522
aF0.119
aF127.078
aF0.29
aa(lp2888
g2
(g3
(S'S16'
p2889
I0
I1
tp2890
Rp2891
(I3
S'|'
p2892
NNNI16
I1
I0
tp2893
bS'Crayon Sharpener'
p2894
tp2895
Rp2896
ag2
(g3
(S'S10'
p2897
I0
I1
tp2898
Rp2899
(I3
S'|'
p2900
NNNI10
I1
I0
tp2901
bS'themselves'
p2902
tp2903
Rp2904
ag2
(g22
S'\xca\x8cb\x04\xd3\x1a\xe4?'
p2905
tp2906
Rp2907
ag2
(g22
S'u\x80\x1ci\x06r\xdb?'
p2908
tp2909
Rp2910
ag2
(g22
S'v\x89\xea\xad\x01\xf7p@'
p2911
tp2912
Rp2913
ag2
(g22
S'\xaa\xf1\xd2Mb\x10\xb8?'
p2914
tp2915
Rp2916
ag2
(g22
S'V\x0e-\xb2\x9d\xbbp@'
p2917
tp2918
Rp2919
aF0.554
aF0.814
aF0.573
aF3.19e-05
aF-13.452
aF0.21
aF167.885
aF0.546
aa(lp2920
g2
(g3
(S'S12'
p2921
I0
I1
tp2922
Rp2923
(I3
S'|'
p2924
NNNI12
I1
I0
tp2925
bS'Le Precipice'
p2926
tp2927
Rp2928
ag2
(g3
(S'S7'
p2929
I0
I1
tp2930
Rp2931
(I3
S'|'
p2932
NNNI7
I1
I0
tp2933
bS'Daara J'
p2934
tp2935
Rp2936
ag2
(g22
S'\xab\xd8\xe9~\xbb\xed\xe0?'
p2937
tp2938
Rp2939
ag2
(g22
S'\x83Q"Z<?\xd3?'
p2940
tp2941
Rp2942
ag2
(g22
S'fI\x80\x9a\xdaYp@'
p2943
tp2944
Rp2945
ag2
(g22
S'=\n\xd7\xa3p=\x08@'
p2946
tp2947
Rp2948
ag2
(g22
S'\x04V\x0e-\xb2\xe9o@'
p2949
tp2950
Rp2951
aF0.0682
aF0.782
aF0.607
aF0.000145
aF-8.148
aF0.171
aI91
aF0.434
aa(lp2952
g2
(g3
(S'S27'
p2953
I0
I1
tp2954
Rp2955
(I3
S'|'
p2956
NNNI27
I1
I0
tp2957
bS"Don't Let Her Pull You Down"
p2958
tp2959
Rp2960
ag2
(g3
(S'S15'
p2961
I0
I1
tp2962
Rp2963
(I3
S'|'
p2964
NNNI15
I1
I0
tp2965
bS'New Found Glory'
p2966
tp2967
Rp2968
ag2
(g22
S'a{\x12\xf0\x10\x8a\xec?'
p2969
tp2970
Rp2971
ag2
(g22
S'()\xa7\xe2\x15\x8b\xe1?'
p2972
tp2973
Rp2974
ag2
(g22
S'=\xd5!7\xc3\x08j@'
p2975
tp2976
Rp2977
ag2
(g22
S'!\xb0rh\x91\xed\xbc?'
p2978
tp2979
Rp2980
ag2
(g22
S')\\\x8f\xc2\xf5\xe8g@'
p2981
tp2982
Rp2983
aF0.00521
aF0.472
aF0.988
aF1.44e-05
aF-3.007
aF0.111
aF96.028
aF0.483
aa(lp2984
g2
(g3
(S'S19'
p2985
I0
I1
tp2986
Rp2987
(I3
S'|'
p2988
NNNI19
I1
I0
tp2989
bS'Ten Thousand Angels'
p2990
tp2991
Rp2992
ag2
(g3
(S'S14'
p2993
I0
I1
tp2994
Rp2995
(I3
S'|'
p2996
NNNI14
I1
I0
tp2997
bS'Mindy McCready'
p2998
tp2999
Rp3000
ag2
(g22
S'o\xa7\x93\xf6\xc2\xbc\xe5?'
p3001
tp3002
Rp3003
ag2
(g22
S'\xa4b\x8b\x92\xf7\xa3\xdb?'
p3004
tp3005
Rp3006
ag2
(g22
S'\x90IF\xce\xc2\xfal@'
p3007
tp3008
Rp3009
ag2
(g22
S'\x00\x00\x00\x00\x00\x00\x00\x00'
p3010
tp3011
Rp3012
ag2
(g22
S'h\x91\xed|?\xf9j@'
p3013
tp3014
Rp3015
aF0.151
aF0.469
aF0.606
aI0
aF-5.684
aF0.0357
aF201.26
aF0.53
aa(lp3016
g2
(g3
(S'S14'
p3017
I0
I1
tp3018
Rp3019
(I3
S'|'
p3020
NNNI14
I1
I0
tp3021
bS'Leaders Of Men'
p3022
tp3023
Rp3024
ag2
(g3
(S'S12'
p3025
I0
I1
tp3026
Rp3027
(I3
S'|'
p3028
NNNI12
I1
I0
tp3029
bS'Joy Division'
p3030
tp3031
Rp3032
ag2
(g22
S'\xe0\xa5\xb2d\nu\xe8?'
p3033
tp3034
Rp3035
ag2
(g22
S'\x8c-\xf0z\x01q\xe2?'
p3036
tp3037
Rp3038
ag2
(g22
S'/\x8b\x89\xcd\xc7\xa2a@'
p3039
tp3040
Rp3041
ag2
(g22
S'\x00\x00\x00\x00\x00\x00\x00\x00'
p3042
tp3043
Rp3044
ag2
(g22
S'H\xe1z\x14\xae\x03a@'
p3045
tp3046
Rp3047
aF0.198
aF0.519
aF0.662
aI0
aF-10.643
aF0.0442
aF140.742
aF0.82
aa(lp3048
g2
(g3
(S'S24'
p3049
I0
I1
tp3050
Rp3051
(I3
S'|'
p3052
NNNI24
I1
I0
tp3053
bS'Overture (Genesis & Job)'
p3054
tp3055
Rp3056
ag2
(g3
(S'S13'
p3057
I0
I1
tp3058
Rp3059
(I3
S'|'
p3060
NNNI13
I1
I0
tp3061
bS'Don Francisco'
p3062
tp3063
Rp3064
ag2
(g22
S'\x1aT\xdc"\x04B\xe0?'
p3065
tp3066
Rp3067
ag2
(g22
S'\x8d\xdd\xc9d\xbd\xd3\xd7?'
p3068
tp3069
Rp3070
ag2
(g22
S'\x16jM\xf3\x8ess@'
p3071
tp3072
Rp3073
ag2
(g22
S'^\xbaI\x0c\x02+\r@'
p3074
tp3075
Rp3076
ag2
(g22
S'b\x10X9\xb4pr@'
p3077
tp3078
Rp3079
aF0.0378
aF0.24
aF0.214
aF0.0972
aF-18.023
aF0.034
aF137.768
aF0.0525
aa(lp3080
g2
(g3
(S'S7'
p3081
I0
I1
tp3082
Rp3083
(I3
S'|'
p3084
NNNI7
I1
I0
tp3085
bS'Zindegi'
p3086
tp3087
Rp3088
ag2
(g3
(S'S16'
p3089
I0
I1
tp3090
Rp3091
(I3
S'|'
p3092
NNNI16
I1
I0
tp3093
bS'Chantal Chamandy'
p3094
tp3095
Rp3096
ag2
(g22
S'\r\x17w\xc9#\xd4\xe4?'
p3097
tp3098
Rp3099
ag2
(g22
S'\x97|\xde\x98a)\xd4?'
p3100
tp3101
Rp3102
ag2
(g22
S'M\x10u\x1f\x80\x02p@'
p3103
tp3104
Rp3105
ag2
(g22
S'Zd;\xdfO\x8d\xd7?'
p3106
tp3107
Rp3108
ag2
(g22
S'T\xe3\xa5\x9b\xc44o@'
p3109
tp3110
Rp3111
aF0.674
aF0.497
aF0.609
aF9.5e-05
aF-7.14
aF0.0447
aF169.879
aF0.335
aa(lp3112
g2
(g3
(S'S23'
p3113
I0
I1
tp3114
Rp3115
(I3
S'|'
p3116
NNNI23
I1
I0
tp3117
bS'Harboring An Apparition'
p3118
tp3119
Rp3120
ag2
(g3
(S'S22'
p3121
I0
I1
tp3122
Rp3123
(I3
S'|'
p3124
NNNI22
I1
I0
tp3125
bS'Mouth Of The Architect'
p3126
tp3127
Rp3128
ag2
(g22
S'\xfb\x1f\xb8o\x07\xa0\xe2?'
p3129
tp3130
Rp3131
ag2
(g22
S'\xd6\x1a\xf4Z\x03\x05\xde?'
p3132
tp3133
Rp3134
ag2
(g22
S'\xed\xd3\xf1\x98\x81\xb3}@'
p3135
tp3136
Rp3137
ag2
(g22
S'\x00\x00\x00\x00\x00\x00\x00\x00'
p3138
tp3139
Rp3140
ag2
(g22
S'sh\x91\xed|y|@'
p3141
tp3142
Rp3143
aF0.007
aF0.374
aF0.454
aF0.822
aF-8.33
aF0.0397
aF125.177
aF0.0374
aa(lp3144
g2
(g3
(S'S27'
p3145
I0
I1
tp3146
Rp3147
(I3
S'|'
p3148
NNNI27
I1
I0
tp3149
bS'One the road (to Damnation)'
p3150
tp3151
Rp3152
ag2
(g3
(S'S13'
p3153
I0
I1
tp3154
Rp3155
(I3
S'|'
p3156
NNNI13
I1
I0
tp3157
bS'It Dies Today'
p3158
tp3159
Rp3160
ag2
(g22
S'(\xa6\x14\x9c\x1c\xb6\xe8?'
p3161
tp3162
Rp3163
ag2
(g22
S'\xfa&\x02F\xd6^\xe0?'
p3164
tp3165
Rp3166
ag2
(g22
S'\xeb\xad\x81\xad\x12mf@'
p3167
tp3168
Rp3169
ag2
(g22
S'\x00\x00\x00\x00\x00\x00\x00\x00'
p3170
tp3171
Rp3172
ag2
(g22
S'\x0c\x02+\x87\x16mf@'
p3173
tp3174
Rp3175
aF1.87e-05
aF0.329
aF0.963
aF0.00138
aF-3.501
aF0.145
aF116.847
aF0.205
aa(lp3176
g2
(g3
(S'S22'
p3177
I0
I1
tp3178
Rp3179
(I3
S'|'
p3180
NNNI22
I1
I0
tp3181
bS'Dark End Of The Street'
p3182
tp3183
Rp3184
ag2
(g3
(S'S14'
p3185
I0
I1
tp3186
Rp3187
(I3
S'|'
p3188
NNNI14
I1
I0
tp3189
bS'Diamanda Galas'
p3190
tp3191
Rp3192
ag2
(g22
S'\x99D\xea2\xc2$\xe3?'
p3193
tp3194
Rp3195
ag2
(g22
S'\xba\xb8\x80\\\xa9F\xd7?'
p3196
tp3197
Rp3198
ag2
(g22
S'1Bx\xb4q^d@'
p3199
tp3200
Rp3201
ag2
(g22
S'}?5^\xbaI\xdc?'
p3202
tp3203
Rp3204
ag2
(g22
S'T\xe3\xa5\x9b\xc4@c@'
p3205
tp3206
Rp3207
aF0.162
aF0.586
aF0.412
aF0.00195
aF-13.356
aF0.0378
aF80.91
aF0.7
aa(lp3208
g2
(g3
(S'S19'
p3209
I0
I1
tp3210
Rp3211
(I3
S'|'
p3212
NNNI19
I1
I0
tp3213
bS'The Forgotten Lands'
p3214
tp3215
Rp3216
ag2
(g3
(S'S16'
p3217
I0
I1
tp3218
Rp3219
(I3
S'|'
p3220
NNNI16
I1
I0
tp3221
bS'David Arkenstone'
p3222
tp3223
Rp3224
ag2
(g22
S'\xa2\xf3\x1b\x9b\xefu\xe4?'
p3225
tp3226
Rp3227
ag2
(g22
S'\x08\xbc\xc1\xef\x8d\x94\xdb?'
p3228
tp3229
Rp3230
ag2
(g22
S'\x0f\x0b\xb5\xa6y\xa9s@'
p3231
tp3232
Rp3233
ag2
(g22
S')\\\x8f\xc2\xf5(\x0f@'
p3234
tp3235
Rp3236
ag2
(g22
S'\x9c\xc4 \xb0r\x82r@'
p3237
tp3238
Rp3239
aF0.456
aF0.562
aF0.525
aF0.883
aF-14.594
aF0.0283
aF141.957
aF0.713
aa(lp3240
g2
(g3
(S'S13'
p3241
I0
I1
tp3242
Rp3243
(I3
S'|'
p3244
NNNI13
I1
I0
tp3245
bS'Down In Dixie'
p3246
tp3247
Rp3248
ag2
(g3
(S'S13'
p3249
I0
I1
tp3250
Rp3251
(I3
S'|'
p3252
NNNI13
I1
I0
tp3253
bS'Grandpa Jones'
p3254
tp3255
Rp3256
ag2
(g22
S'7\xac\xebNb\xd7\xdc?'
p3257
tp3258
Rp3259
ag2
(g22
S'2>\xb4\x88\xdd7\xd5?'
p3260
tp3261
Rp3262
ag2
(g22
S'\x9bU\x9f\xab\xad\xb7a@'
p3263
tp3264
Rp3265
ag2
(g22
S'\x06\x81\x95C\x8bl\xdf?'
p3266
tp3267
Rp3268
ag2
(g22
S'H\xe1z\x14\xae\x13a@'
p3269
tp3270
Rp3271
aF0.933
aF0.88
aF0.59
aF0.125
aF-4.452
aF0.0356
aF117.512
aF0.96
aa(lp3272
g2
(g3
(S'S22'
p3273
I0
I1
tp3274
Rp3275
(I3
S'|'
p3276
NNNI22
I1
I0
tp3277
bS"God Don't Never Change"
p3278
tp3279
Rp3280
ag2
(g3
(S'S20'
p3281
I0
I1
tp3282
Rp3283
(I3
S'|'
p3284
NNNI20
I1
I0
tp3285
bS'Blind Willie Johnson'
p3286
tp3287
Rp3288
ag2
(g22
S'J \xdb\xfe8o\xe3?'
p3289
tp3290
Rp3291
ag2
(g22
S'\x97\x01g\xfeZ\xac\xd9?'
p3292
tp3293
Rp3294
ag2
(g22
S'g~5\x07\x08\x88e@'
p3295
tp3296
Rp3297
ag2
(g22
S'\xa2E\xb6\xf3\xfd\xd4\xb8?'
p3298
tp3299
Rp3300
ag2
(g22
S'\xd9\xce\xf7S\xe3\xe5d@'
p3301
tp3302
Rp3303
aF0.956
aF0.651
aF0.135
aF2.2e-06
aF-15.917
aF0.0548
aF83.441
aF0.582
aa(lp3304
g2
(g3
(S'S14'
p3305
I0
I1
tp3306
Rp3307
(I3
S'|'
p3308
NNNI14
I1
I0
tp3309
bS'The Hanged Man'
p3310
tp3311
Rp3312
ag2
(g3
(S'S9'
p3313
I0
I1
tp3314
Rp3315
(I3
S'|'
p3316
NNNI9
I1
I0
tp3317
bS'Moonspell'
p3318
tp3319
Rp3320
ag2
(g22
S'\xbc\xe5\xc8RL\x1f\xe7?'
p3321
tp3322
Rp3323
ag2
(g22
S"Np\x95\x81'\xfd\xdf?"
p3324
tp3325
Rp3326
ag2
(g22
S'\xbdo|\xed\x19#x@'
p3327
tp3328
Rp3329
ag2
(g22
S'\x0e-\xb2\x9d\xef\xa7\xc6?'
p3330
tp3331
Rp3332
ag2
(g22
S'\xc9v\xbe\x9f\x1a#x@'
p3333
tp3334
Rp3335
aF0.0643
aF0.404
aF0.636
aF0.653
aF-8.798
aF0.0325
aF140.105
aF0.0979
aa(lp3336
g2
(g3
(S'S32'
p3337
I0
I1
tp3338
Rp3339
(I3
S'|'
p3340
NNNI32
I1
I0
tp3341
bS'The Wonderful World Of The Young'
p3342
tp3343
Rp3344
ag2
(g3
(S'S14'
p3345
I0
I1
tp3346
Rp3347
(I3
S'|'
p3348
NNNI14
I1
I0
tp3349
bS'Danny Williams'
p3350
tp3351
Rp3352
ag2
(g22
S'\x80\xd5\x8d\x04\x8c_\xe0?'
p3353
tp3354
Rp3355
ag2
(g22
S'`\x97~\xb0\xd19\xda?'
p3356
tp3357
Rp3358
ag2
(g22
S'tA}\xcb\x9c\x00e@'
p3359
tp3360
Rp3361
ag2
(g22
S'\x98n\x12\x83\xc0\xca\xd9?'
p3362
tp3363
Rp3364
ag2
(g22
S'\x89A`\xe5\xd0nd@'
p3365
tp3366
Rp3367
aF0.944
aF0.194
aF0.251
aI0
aF-12.959
aF0.0371
aF179.31
aF0.31
aa(lp3368
g2
(g3
(S'S15'
p3369
I0
I1
tp3370
Rp3371
(I3
S'|'
p3372
NNNI15
I1
I0
tp3373
bS'Sentimental Man'
p3374
tp3375
Rp3376
ag2
(g3
(S'S13'
p3377
I0
I1
tp3378
Rp3379
(I3
S'|'
p3380
NNNI13
I1
I0
tp3381
bS'Winston Reedy'
p3382
tp3383
Rp3384
ag2
(g22
S'\x05>w\xc5\x96\xbe\xdb?'
p3385
tp3386
Rp3387
ag2
(g22
S'\xce\x8a\x91\x06\xc5\x8d\xd2?'
p3388
tp3389
Rp3390
ag2
(g22
S"\xf2\x0c\x1a\xfa'7h@"
p3391
tp3392
Rp3393
ag2
(g22
S'\xbe\x9f\x1a/\xdd$\xc6?'
p3394
tp3395
Rp3396
ag2
(g22
S'\x14\xaeG\xe1z@g@'
p3397
tp3398
Rp3399
aF0.0236
aF0.984
aF0.395
aF8.36e-05
aF-11.838
aF0.0653
aF118.089
aF0.922
aa(lp3400
g2
(g3
(S'S17'
p3401
I0
I1
tp3402
Rp3403
(I3
S'|'
p3404
NNNI17
I1
I0
tp3405
bS'Zydeco In D-Minor'
p3406
tp3407
Rp3408
ag2
(g3
(S'S24'
p3409
I0
I1
tp3410
Rp3411
(I3
S'|'
p3412
NNNI24
I1
I0
tp3413
bS'Myrick "Freeze" Guillory'
p3414
tp3415
Rp3416
ag2
(g22
S"m'mI\xbcg\xd5?"
p3417
tp3418
Rp3419
ag2
(g22
S'|\xaf\x11\x87\x0c\xc1\xcb?'
p3420
tp3421
Rp3422
ag2
(g22
S'\x9d\xf4\xbe\xf15\xcdr@'
p3423
tp3424
Rp3425
ag2
(g22
S'\x00\x00\x00\x00\x00\x00\x00\x00'
p3426
tp3427
Rp3428
ag2
(g22
S'\xf0\xa7\xc6K7\xcdr@'
p3429
tp3430
Rp3431
aF0.0844
aF0.369
aF0.771
aF0.000762
aF-12.679
aF0.224
aF139.026
aF0.685
aa(lp3432
g2
(g3
(S'S14'
p3433
I0
I1
tp3434
Rp3435
(I3
S'|'
p3436
NNNI14
I1
I0
tp3437
bS'Shattered Life'
p3438
tp3439
Rp3440
ag2
(g3
(S'S19'
p3441
I0
I1
tp3442
Rp3443
(I3
S'|'
p3444
NNNI19
I1
I0
tp3445
bS'Seventh Day Slumber'
p3446
tp3447
Rp3448
ag2
(g22
S'=\x8b\x93;k~\xe3?'
p3449
tp3450
Rp3451
ag2
(g22
S'\x9a:\xd1.\xb8K\xe0?'
p3452
tp3453
Rp3454
ag2
(g22
S'J)\xe8\xf6\x927j@'
p3455
tp3456
Rp3457
ag2
(g22
S'\x00\x00\x00\x00\x00\x00\xc0?'
p3458
tp3459
Rp3460
ag2
(g22
S'\xd3Mb\x10X%h@'
p3461
tp3462
Rp3463
aF0.000429
aF0.406
aF0.895
aF3.25e-05
aF-5.282
aF0.0563
aF150.326
aF0.278
aa.