(lp0
(iSong
Song
p1
(dp2
S'attributes'
p3
(dp4
S'accousticness'
p5
F0.000545
sS'title'
p6
VI'm Glad Trouble Don't Last Always
p7
sS'tempo'
p8
F0.327876
sS'energy'
p9
F0.522
sS'from_playlist'
p10
S'blues'
p11
sS'speechiness'
p12
F0.0232
sS'artist_name'
p13
VLuke Winslow-King
p14
sS'cluster_id'
p15
I9999
sS'danceability'
p16
F0.579
sS'end_of_fade_in'
p17
NsS'loudness'
p18
F0.8812666666666666
sS'duration'
p19
NsS'artist_familiarity'
p20
NsS'rec_value'
p21
F0.33983383231667197
sS'valence'
p22
F0.286
sS'start_of_fade_out'
p23
NsS'artist_hotness'
p24
NsS'instrumentalness'
p25
F0.00811
ssS'isNormalized'
p26
I01
sS'hasData'
p27
I01
sba(iSong
Song
p28
(dp29
g3
(dp30
g5
F0.228
sg6
VThousand Mile Night
p31
sg8
F0.562608
sg9
F0.35
sg10
S'blues'
p32
sg12
F0.0471
sg13
VJonah Tolchin
p33
sg15
I9999
sg16
F0.584
sg17
Nsg18
F0.7676333333333333
sg19
Nsg20
Nsg21
F0.33983383231667197
sg22
F0.498
sg23
Nsg24
Nsg25
F0.0719
ssg26
I01
sg27
I01
sba(iSong
Song
p34
(dp35
g3
(dp36
g5
F0.0234
sg6
VNo Good
p37
sg8
F0.43410000000000004
sg9
F0.925
sg10
S'blues'
p38
sg12
F0.185
sg13
VKaleo
p39
sg15
I9999
sg16
F0.378
sg17
Nsg18
F0.9369833333333334
sg19
Nsg20
Nsg21
F0.33983383231667197
sg22
F0.584
sg23
Nsg24
Nsg25
F0.00062
ssg26
I01
sg27
I01
sba(iSong
Song
p40
(dp41
g3
(dp42
g5
F0.351
sg6
VOn Our Own
p43
sg8
F0.41902
sg9
F0.504
sg10
S'blues'
p44
sg12
F0.0267
sg13
VThe Suitcase Junket
p45
sg15
I9999
sg16
F0.509
sg17
Nsg18
F0.88685
sg19
Nsg20
Nsg21
F0.33983383231667197
sg22
F0.327
sg23
Nsg24
Nsg25
F0.15
ssg26
I01
sg27
I01
sba(iSong
Song
p46
(dp47
g3
(dp48
g5
F0.383
sg6
VBad Things
p49
sg8
F0.323224
sg9
F0.586
sg10
S'blues'
p50
sg12
F0.0375
sg13
VRayland Baxter
p51
sg15
I9999
sg16
F0.318
sg17
Nsg18
F0.8732333333333333
sg19
Nsg20
Nsg21
F0.33983383231667197
sg22
F0.211
sg23
Nsg24
Nsg25
I0
ssg26
I01
sg27
I01
sba(iSong
Song
p52
(dp53
g3
(dp54
g5
F0.0286
sg6
VBottle Rocket
p55
sg8
F0.368184
sg9
F0.634
sg10
S'blues'
p56
sg12
F0.0522
sg13
VThe Weeks
p57
sg15
I9999
sg16
F0.679
sg17
Nsg18
F0.9449166666666666
sg19
Nsg20
Nsg21
F0.33983383231667197
sg22
F0.642
sg23
Nsg24
Nsg25
I0
ssg26
I01
sg27
I01
sba(iSong
Song
p58
(dp59
g3
(dp60
g5
F0.285
sg6
VIt Came to Me
p61
sg8
F0.46838799999999997
sg9
F0.931
sg10
S'blues'
p62
sg12
F0.0388
sg13
VThe Barr Brothers
p63
sg15
I9999
sg16
F0.516
sg17
Nsg18
F0.89515
sg19
Nsg20
Nsg21
F0.33983383231667197
sg22
F0.578
sg23
Nsg24
Nsg25
F0.013
ssg26
I01
sg27
I01
sba(iSong
Song
p64
(dp65
g3
(dp66
g5
F0.0245
sg6
VHades Pleads
p67
sg8
F0.659292
sg9
F0.632
sg10
S'blues'
p68
sg12
F0.161
sg13
VParker Millsap
p69
sg15
I9999
sg16
F0.568
sg17
Nsg18
F0.8840333333333333
sg19
Nsg20
Nsg21
F0.33983383231667197
sg22
F0.711
sg23
Nsg24
Nsg25
F0.000246
ssg26
I01
sg27
I01
sba(iSong
Song
p70
(dp71
g3
(dp72
g5
F0.479
sg6
VWhite House Road - OurVinyl Sessions
p73
sg8
F0.31972
sg9
F0.41
sg10
S'blues'
p74
sg12
F0.0396
sg13
VTyler Childers
p75
sg15
I9999
sg16
F0.406
sg17
Nsg18
F0.8558333333333333
sg19
Nsg20
Nsg21
F0.33983383231667197
sg22
F0.368
sg23
Nsg24
Nsg25
I0
ssg26
I01
sg27
I01
sba(iSong
Song
p76
(dp77
g3
(dp78
g5
F0.112
sg6
VSallisaw Blue
p79
sg8
F0.6030800000000001
sg9
F0.866
sg10
S'blues'
p80
sg12
F0.0691
sg13
VJohn Moreland
p81
sg15
I9999
sg16
F0.395
sg17
Nsg18
F0.8825500000000001
sg19
Nsg20
Nsg21
F0.33983383231667197
sg22
F0.836
sg23
Nsg24
Nsg25
F9.85e-06
ssg26
I01
sg27
I01
sba(iSong
Song
p82
(dp83
g3
(dp84
g5
F0.685
sg6
VThirty
p85
sg8
F0.6503239999999999
sg9
F0.553
sg10
S'blues'
p86
sg12
F0.0552
sg13
VThe Weather Station
p87
sg15
I9999
sg16
F0.403
sg17
Nsg18
F0.8543666666666667
sg19
Nsg20
Nsg21
F0.33983383231667197
sg22
F0.543
sg23
Nsg24
Nsg25
F3.85e-05
ssg26
I01
sg27
I01
sba(iSong
Song
p88
(dp89
g3
(dp90
g5
F0.115
sg6
VI Know
p91
sg8
F0.48062
sg9
F0.908
sg10
S'blues'
p92
sg12
F0.0512
sg13
VShovels & Rope
p93
sg15
I9999
sg16
F0.545
sg17
Nsg18
F0.8908666666666666
sg19
Nsg20
Nsg21
F0.33983383231667197
sg22
F0.391
sg23
Nsg24
Nsg25
I0
ssg26
I01
sg27
I01
sba(iSong
Song
p94
(dp95
g3
(dp96
g5
F0.0664
sg6
VLUCKY PENNY
p97
sg8
F0.511916
sg9
F0.736
sg10
S'blues'
p98
sg12
F0.0481
sg13
VJD McPherson
p99
sg15
I9999
sg16
F0.698
sg17
Nsg18
F0.9079166666666667
sg19
Nsg20
Nsg21
F0.33983383231667197
sg22
F0.822
sg23
Nsg24
Nsg25
F2.16e-05
ssg26
I01
sg27
I01
sba(iSong
Song
p100
(dp101
g3
(dp102
g5
F0.843
sg6
VIf I Was The Devil
p103
sg8
F0.358848
sg9
F0.432
sg10
S'blues'
p104
sg12
F0.0362
sg13
VJustin Townes Earle
p105
sg15
I9999
sg16
F0.535
sg17
Nsg18
F0.7927
sg19
Nsg20
Nsg21
F0.33983383231667197
sg22
F0.287
sg23
Nsg24
Nsg25
F0.0212
ssg26
I01
sg27
I01
sba(iSong
Song
p106
(dp107
g3
(dp108
g5
F0.00381
sg6
VCalifornia
p109
sg8
F0.498712
sg9
F0.741
sg10
S'blues'
p110
sg12
F0.0326
sg13
VThe Delta Saints
p111
sg15
I9999
sg16
F0.585
sg17
Nsg18
F0.8841
sg19
Nsg20
Nsg21
F0.33983383231667197
sg22
F0.676
sg23
Nsg24
Nsg25
F8.96e-06
ssg26
I01
sg27
I01
sba(iSong
Song
p112
(dp113
g3
(dp114
g5
F0.587
sg6
VBarleycorn
p115
sg8
F0.39632
sg9
F0.422
sg10
S'blues'
p116
sg12
F0.0354
sg13
VJohnny Flynn
p117
sg15
I9999
sg16
F0.661
sg17
Nsg18
F0.8330166666666667
sg19
Nsg20
Nsg21
F0.33983383231667197
sg22
F0.251
sg23
Nsg24
Nsg25
F0.132
ssg26
I01
sg27
I01
sba(iSong
Song
p118
(dp119
g3
(dp120
g5
F0.343
sg6
VSugar Daddy - Theme from Vinyl
p121
sg8
F0.327884
sg9
F0.929
sg10
S'blues'
p122
sg12
F0.143
sg13
VSturgill Simpson
p123
sg15
I9999
sg16
F0.26
sg17
Nsg18
F0.90265
sg19
Nsg20
Nsg21
F0.33983383231667197
sg22
F0.358
sg23
Nsg24
Nsg25
F0.0356
ssg26
I01
sg27
I01
sba(iSong
Song
p124
(dp125
g3
(dp126
g5
F0.02
sg6
VDidn't He Ramble
p127
sg8
F0.72054
sg9
F0.764
sg10
S'blues'
p128
sg12
F0.0563
sg13
VGlen Hansard
p129
sg15
I9999
sg16
F0.257
sg17
Nsg18
F0.8849333333333333
sg19
Nsg20
Nsg21
F0.33983383231667197
sg22
F0.446
sg23
Nsg24
Nsg25
F0.000685
ssg26
I01
sg27
I01
sba(iSong
Song
p130
(dp131
g3
(dp132
g5
F0.724
sg6
VProphet Story
p133
sg8
F0.369528
sg9
F0.478
sg10
S'blues'
p134
sg12
F0.0274
sg13
VCobi
p135
sg15
I9999
sg16
F0.433
sg17
Nsg18
F0.9328666666666667
sg19
Nsg20
Nsg21
F0.33983383231667197
sg22
F0.235
sg23
Nsg24
Nsg25
I0
ssg26
I01
sg27
I01
sba(iSong
Song
p136
(dp137
g3
(dp138
g5
F0.0325
sg6
VJust to Be with You
p139
sg8
F0.679728
sg9
F0.739
sg10
S'blues'
p140
sg12
F0.0481
sg13
VAubrie Sellers
p141
sg15
I9999
sg16
F0.336
sg17
Nsg18
F0.9101
sg19
Nsg20
Nsg21
F0.33983383231667197
sg22
F0.578
sg23
Nsg24
Nsg25
F5.9e-05
ssg26
I01
sg27
I01
sba(iSong
Song
p142
(dp143
g3
(dp144
g5
F0.717
sg6
VBlack Crow
p145
sg8
F0.525248
sg9
F0.327
sg10
S'blues'
p146
sg12
F0.0687
sg13
VBrent Cobb
p147
sg15
I9999
sg16
F0.706
sg17
Nsg18
F0.8066166666666666
sg19
Nsg20
Nsg21
F0.33983383231667197
sg22
F0.632
sg23
Nsg24
Nsg25
F0.0192
ssg26
I01
sg27
I01
sba(iSong
Song
p148
(dp149
g3
(dp150
g5
F0.456
sg6
VShelter
p151
sg8
F0.45743599999999995
sg9
F0.299
sg10
S'blues'
p152
sg12
F0.0309
sg13
VDorothy
p153
sg15
I9999
sg16
F0.568
sg17
Nsg18
F0.8349
sg19
Nsg20
Nsg21
F0.33983383231667197
sg22
F0.139
sg23
Nsg24
Nsg25
I0
ssg26
I01
sg27
I01
sba(iSong
Song
p154
(dp155
g3
(dp156
g5
F0.361
sg6
VSinking Down
p157
sg8
F0.568372
sg9
F0.796
sg10
S'blues'
p158
sg12
F0.0461
sg13
VSon Volt
p159
sg15
I9999
sg16
F0.36
sg17
Nsg18
F0.89795
sg19
Nsg20
Nsg21
F0.33983383231667197
sg22
F0.494
sg23
Nsg24
Nsg25
F0.392
ssg26
I01
sg27
I01
sba(iSong
Song
p160
(dp161
g3
(dp162
g5
F0.00385
sg6
VGot It Bad
p163
sg8
F0.685096
sg9
F0.785
sg10
S'blues'
p164
sg12
F0.0505
sg13
VThe Sore Losers
p165
sg15
I9999
sg16
F0.263
sg17
Nsg18
F0.9223666666666667
sg19
Nsg20
Nsg21
F0.33983383231667197
sg22
F0.379
sg23
Nsg24
Nsg25
F0.000272
ssg26
I01
sg27
I01
sba(iSong
Song
p166
(dp167
g3
(dp168
g5
F0.00252
sg6
VLift Me Up (Leave Me Here)
p169
sg8
F0.6715399999999999
sg9
F0.767
sg10
S'blues'
p170
sg12
F0.0367
sg13
VBrent Cowles
p171
sg15
I9999
sg16
F0.4
sg17
Nsg18
F0.9426
sg19
Nsg20
Nsg21
F0.33983383231667197
sg22
F0.482
sg23
Nsg24
Nsg25
F0.0334
ssg26
I01
sg27
I01
sba(iSong
Song
p172
(dp173
g3
(dp174
g5
F0.000477
sg6
VOh No
p175
sg8
F0.53188
sg9
F0.978
sg10
S'blues'
p176
sg12
F0.22
sg13
VGoodbye June
p177
sg15
I9999
sg16
F0.259
sg17
Nsg18
F0.9359666666666667
sg19
Nsg20
Nsg21
F0.33983383231667197
sg22
F0.266
sg23
Nsg24
Nsg25
F0.000314
ssg26
I01
sg27
I01
sba(iSong
Song
p178
(dp179
g3
(dp180
g5
F0.203
sg6
VI Own You
p181
sg8
F0.5677559999999999
sg9
F0.721
sg10
S'blues'
p182
sg12
F0.0347
sg13
VMick Flannery
p183
sg15
I9999
sg16
F0.54
sg17
Nsg18
F0.8991666666666667
sg19
Nsg20
Nsg21
F0.33983383231667197
sg22
F0.346
sg23
Nsg24
Nsg25
F5.83e-05
ssg26
I01
sg27
I01
sba(iSong
Song
p184
(dp185
g3
(dp186
g5
F0.0367
sg6
VHabbie Doobie
p187
sg8
F0.359856
sg9
F0.723
sg10
S'blues'
p188
sg12
F0.0331
sg13
VThe Texas Gentlemen
p189
sg15
I9999
sg16
F0.51
sg17
Nsg18
F0.888
sg19
Nsg20
Nsg21
F0.33983383231667197
sg22
F0.499
sg23
Nsg24
Nsg25
F7.88e-05
ssg26
I01
sg27
I01
sba(iSong
Song
p190
(dp191
g3
(dp192
g5
F0.0283
sg6
VMy Church Is Black
p193
sg8
F0.42422000000000004
sg9
F0.817
sg10
S'blues'
p194
sg12
F0.0343
sg13
VMe And That Man
p195
sg15
I9999
sg16
F0.39
sg17
Nsg18
F0.9508500000000001
sg19
Nsg20
Nsg21
F0.33983383231667197
sg22
F0.323
sg23
Nsg24
Nsg25
F0.486
ssg26
I01
sg27
I01
sba(iSong
Song
p196
(dp197
g3
(dp198
g5
F0.185
sg6
VDon't Give Up
p199
sg8
F0.44894
sg9
F0.689
sg10
S'blues'
p200
sg12
F0.0389
sg13
VSouthern Avenue
p201
sg15
I9999
sg16
F0.638
sg17
Nsg18
F0.9243333333333333
sg19
Nsg20
Nsg21
F0.33983383231667197
sg22
F0.555
sg23
Nsg24
Nsg25
F2.91e-05
ssg26
I01
sg27
I01
sba(iSong
Song
p202
(dp203
g3
(dp204
g5
F0.0419
sg6
VLost on the Young
p205
sg8
F0.64436
sg9
F0.738
sg10
S'blues'
p206
sg12
F0.0464
sg13
VBalto
p207
sg15
I9999
sg16
F0.267
sg17
Nsg18
F0.9076500000000001
sg19
Nsg20
Nsg21
F0.33983383231667197
sg22
F0.488
sg23
Nsg24
Nsg25
F1.35e-06
ssg26
I01
sg27
I01
sba(iSong
Song
p208
(dp209
g3
(dp210
g5
F0.11
sg6
VPart One - Hey, No Pressure
p211
sg8
F0.6050599999999999
sg9
F0.748
sg10
S'blues'
p212
sg12
F0.0522
sg13
VRay LaMontagne
p213
sg15
I9999
sg16
F0.434
sg17
Nsg18
F0.8715499999999999
sg19
Nsg20
Nsg21
F0.33983383231667197
sg22
F0.703
sg23
Nsg24
Nsg25
F0.000273
ssg26
I01
sg27
I01
sba(iSong
Song
p214
(dp215
g3
(dp216
g5
F0.404
sg6
VBring Down The Wall
p217
sg8
F0.391868
sg9
F0.392
sg10
S'blues'
p218
sg12
F0.034
sg13
VPiers Faccini
p219
sg15
I9999
sg16
F0.697
sg17
Nsg18
F0.8315833333333332
sg19
Nsg20
Nsg21
F0.33983383231667197
sg22
F0.725
sg23
Nsg24
Nsg25
F0.00121
ssg26
I01
sg27
I01
sba(iSong
Song
p220
(dp221
g3
(dp222
g5
F0.0069
sg6
VSiren
p223
sg8
F0.39277999999999996
sg9
F0.788
sg10
S'blues'
p224
sg12
F0.0625
sg13
VMonica Heldal
p225
sg15
I9999
sg16
F0.279
sg17
Nsg18
F0.8579666666666667
sg19
Nsg20
Nsg21
F0.33983383231667197
sg22
F0.381
sg23
Nsg24
Nsg25
F0.048
ssg26
I01
sg27
I01
sba(iSong
Song
p226
(dp227
g3
(dp228
g5
F0.00253
sg6
VSomething\u2019s Got a Hold on Me
p229
sg8
F0.440184
sg9
F0.333
sg10
S'blues'
p230
sg12
F0.0274
sg13
VAngel Snow
p231
sg15
I9999
sg16
F0.74
sg17
Nsg18
F0.8059999999999999
sg19
Nsg20
Nsg21
F0.33983383231667197
sg22
F0.266
sg23
Nsg24
Nsg25
F0.0507
ssg26
I01
sg27
I01
sba(iSong
Song
p232
(dp233
g3
(dp234
g5
F0.144
sg6
VTrinity Lane
p235
sg8
F0.5802240000000001
sg9
F0.811
sg10
S'blues'
p236
sg12
F0.027
sg13
VLilly Hiatt
p237
sg15
I9999
sg16
F0.578
sg17
Nsg18
F0.8962
sg19
Nsg20
Nsg21
F0.33983383231667197
sg22
F0.752
sg23
Nsg24
Nsg25
F0.0054
ssg26
I01
sg27
I01
sba(iSong
Song
p238
(dp239
g3
(dp240
g5
F0.0134
sg6
VGood Evening
p241
sg8
F0.422036
sg9
F0.606
sg10
S'blues'
p242
sg12
F0.0305
sg13
VQuaker City Night Hawks
p243
sg15
I9999
sg16
F0.527
sg17
Nsg18
F0.8866833333333334
sg19
Nsg20
Nsg21
F0.33983383231667197
sg22
F0.267
sg23
Nsg24
Nsg25
F0.00029
ssg26
I01
sg27
I01
sba(iSong
Song
p244
(dp245
g3
(dp246
g5
F0.452
sg6
VCall It What It Is
p247
sg8
F0.264936
sg9
F0.572
sg10
S'blues'
p248
sg12
F0.0357
sg13
VBen Harper And The Innocent Criminals
p249
sg15
I9999
sg16
F0.603
sg17
Nsg18
F0.8709166666666667
sg19
Nsg20
Nsg21
F0.33983383231667197
sg22
F0.465
sg23
Nsg24
Nsg25
F5.39e-06
ssg26
I01
sg27
I01
sba(iSong
Song
p250
(dp251
g3
(dp252
g5
F0.0112
sg6
VFleet Foot
p253
sg8
F0.42954000000000003
sg9
F0.957
sg10
S'blues'
p254
sg12
F0.259
sg13
VBlack Pistol Fire
p255
sg15
I9999
sg16
F0.348
sg17
Nsg18
F0.9361166666666667
sg19
Nsg20
Nsg21
F0.33983383231667197
sg22
F0.216
sg23
Nsg24
Nsg25
I0
ssg26
I01
sg27
I01
sba(iSong
Song
p256
(dp257
g3
(dp258
g5
F0.0319
sg6
VRun Devil Run
p259
sg8
F0.698776
sg9
F0.958
sg10
S'blues'
p260
sg12
F0.171
sg13
VCrowder
p261
sg15
I9999
sg16
F0.417
sg17
Nsg18
F0.9454499999999999
sg19
Nsg20
Nsg21
F0.33983383231667197
sg22
F0.815
sg23
Nsg24
Nsg25
I0
ssg26
I01
sg27
I01
sba(iSong
Song
p262
(dp263
g3
(dp264
g5
F0.353
sg6
VChampagne And Reefer
p265
sg8
F0.48500400000000005
sg9
F0.836
sg10
S'blues'
p266
sg12
F0.0451
sg13
VThe Devil Makes Three
p267
sg15
I9999
sg16
F0.735
sg17
Nsg18
F0.87555
sg19
Nsg20
Nsg21
F0.33983383231667197
sg22
F0.781
sg23
Nsg24
Nsg25
F0.0143
ssg26
I01
sg27
I01
sba(iSong
Song
p268
(dp269
g3
(dp270
g5
F0.033
sg6
VPlunder
p271
sg8
F0.5402680000000001
sg9
F0.828
sg10
S'blues'
p272
sg12
F0.0359
sg13
VThe Felice Brothers
p273
sg15
I9999
sg16
F0.383
sg17
Nsg18
F0.8946333333333333
sg19
Nsg20
Nsg21
F0.33983383231667197
sg22
F0.845
sg23
Nsg24
Nsg25
F3.05e-05
ssg26
I01
sg27
I01
sba(iSong
Song
p274
(dp275
g3
(dp276
g5
F0.00016
sg6
VLeadfoot
p277
sg8
F0.548356
sg9
F0.852
sg10
S'blues'
p278
sg12
F0.0499
sg13
VNo Sinner
p279
sg15
I9999
sg16
F0.345
sg17
Nsg18
F0.92925
sg19
Nsg20
Nsg21
F0.33983383231667197
sg22
F0.396
sg23
Nsg24
Nsg25
F0.0165
ssg26
I01
sg27
I01
sba(iSong
Song
p280
(dp281
g3
(dp282
g5
F0.775
sg6
VIt Runs Together
p283
sg8
F0.415932
sg9
F0.548
sg10
S'blues'
p284
sg12
F0.0555
sg13
VHard Working Americans
p285
sg15
I9999
sg16
F0.61
sg17
Nsg18
F0.8265333333333333
sg19
Nsg20
Nsg21
F0.33983383231667197
sg22
F0.413
sg23
Nsg24
Nsg25
F0.0347
ssg26
I01
sg27
I01
sba(iSong
Song
p286
(dp287
g3
(dp288
g5
F0.0988
sg6
VGimme Something Good - Live At The Village
p289
sg8
F0.381484
sg9
F0.791
sg10
S'blues'
p290
sg12
F0.0359
sg13
VRyan Adams
p291
sg15
I9999
sg16
F0.416
sg17
Nsg18
F0.9441
sg19
Nsg20
Nsg21
F0.33983383231667197
sg22
F0.511
sg23
Nsg24
Nsg25
F0.383
ssg26
I01
sg27
I01
sba(iSong
Song
p292
(dp293
g3
(dp294
g5
F0.102
sg6
VWaiting for the Thunder
p295
sg8
F0.576188
sg9
F0.805
sg10
S'blues'
p296
sg12
F0.0301
sg13
VBlackberry Smoke
p297
sg15
I9999
sg16
F0.582
sg17
Nsg18
F0.9122166666666666
sg19
Nsg20
Nsg21
F0.33983383231667197
sg22
F0.895
sg23
Nsg24
Nsg25
F3.14e-06
ssg26
I01
sg27
I01
sba(iSong
Song
p298
(dp299
g3
(dp300
g5
F0.242
sg6
VFire
p301
sg8
F0.433448
sg9
F0.625
sg10
S'blues'
p302
sg12
F0.0296
sg13
VBarns Courtney
p303
sg15
I9999
sg16
F0.552
sg17
Nsg18
F0.8991166666666667
sg19
Nsg20
Nsg21
F0.33983383231667197
sg22
F0.425
sg23
Nsg24
Nsg25
F0.000558
ssg26
I01
sg27
I01
sba(iSong
Song
p304
(dp305
g3
(dp306
g5
F0.0928
sg6
VPretty Pimpin
p307
sg8
F0.364468
sg9
F0.664
sg10
S'blues'
p308
sg12
F0.0281
sg13
VKurt Vile
p309
sg15
I9999
sg16
F0.566
sg17
Nsg18
F0.8486499999999999
sg19
Nsg20
Nsg21
F0.33983383231667197
sg22
F0.764
sg23
Nsg24
Nsg25
F0.305
ssg26
I01
sg27
I01
sba(iSong
Song
p310
(dp311
g3
(dp312
g5
F0.0588
sg6
VWorking Poor
p313
sg8
F0.334064
sg9
F0.396
sg10
S'blues'
p314
sg12
F0.0485
sg13
VFantastic Negrito
p315
sg15
I9999
sg16
F0.77
sg17
Nsg18
F0.716
sg19
Nsg20
Nsg21
F0.33983383231667197
sg22
F0.567
sg23
Nsg24
Nsg25
F0.000164
ssg26
I01
sg27
I01
sba(iSong
Song
p316
(dp317
g3
(dp318
g5
F0.00183
sg6
VSmoke Rising
p319
sg8
F0.5406920000000001
sg9
F0.735
sg10
S'blues'
p320
sg12
F0.0266
sg13
VBrown Bird
p321
sg15
I9999
sg16
F0.572
sg17
Nsg18
F0.8993
sg19
Nsg20
Nsg21
F0.33983383231667197
sg22
F0.599
sg23
Nsg24
Nsg25
F0.782
ssg26
I01
sg27
I01
sba(iSong
Song
p322
(dp323
g3
(dp324
g5
F0.0255
sg6
VRain Dance (feat. Bo Diddley)
p325
sg8
F0.7504679999999999
sg9
F0.691
sg10
S'blues'
p326
sg12
F0.0499
sg13
VHollis Brown
p327
sg15
I9999
sg16
F0.563
sg17
Nsg18
F0.8823166666666666
sg19
Nsg20
Nsg21
F0.33983383231667197
sg22
F0.514
sg23
Nsg24
Nsg25
F3.55e-05
ssg26
I01
sg27
I01
sba(iSong
Song
p328
(dp329
g3
(dp330
g5
F0.00625
sg6
VJack Is Back
p331
sg8
F0.527996
sg9
F0.766
sg10
S'blues'
p332
sg12
F0.0419
sg13
VSonia Leigh
p333
sg15
I9999
sg16
F0.677
sg17
Nsg18
F0.8669999999999999
sg19
Nsg20
Nsg21
F0.33983383231667197
sg22
F0.589
sg23
Nsg24
Nsg25
F0.000123
ssg26
I01
sg27
I01
sba(iSong
Song
p334
(dp335
g3
(dp336
g5
F0.00356
sg6
VHurry Up And Wait
p337
sg8
F0.49198000000000003
sg9
F0.874
sg10
S'blues'
p338
sg12
F0.0511
sg13
VBen Miller Band
p339
sg15
I9999
sg16
F0.563
sg17
Nsg18
F0.89165
sg19
Nsg20
Nsg21
F0.33983383231667197
sg22
F0.499
sg23
Nsg24
Nsg25
F0.528
ssg26
I01
sg27
I01
sba(iSong
Song
p340
(dp341
g3
(dp342
g5
F0.171
sg6
VSun Sets West
p343
sg8
F0.45090399999999997
sg9
F0.698
sg10
S'blues'
p344
sg12
F0.0643
sg13
Vlittle hurricane
p345
sg15
I9999
sg16
F0.439
sg17
Nsg18
F0.8872666666666666
sg19
Nsg20
Nsg21
F0.33983383231667197
sg22
F0.815
sg23
Nsg24
Nsg25
F3.73e-06
ssg26
I01
sg27
I01
sba(iSong
Song
p346
(dp347
g3
(dp348
g5
F0.0685
sg6
VDead Eyes
p349
sg8
F0.775024
sg9
F0.635
sg10
S'blues'
p350
sg12
F0.056
sg13
VAdia Victoria
p351
sg15
I9999
sg16
F0.28
sg17
Nsg18
F0.86215
sg19
Nsg20
Nsg21
F0.33983383231667197
sg22
F0.375
sg23
Nsg24
Nsg25
F0.121
ssg26
I01
sg27
I01
sba(iSong
Song
p352
(dp353
g3
(dp354
g5
F0.0062
sg6
VShape Shifter
p355
sg8
F0.52012
sg9
F0.685
sg10
S'blues'
p356
sg12
F0.0294
sg13
VLera Lynn
p357
sg15
I9999
sg16
F0.806
sg17
Nsg18
F0.8617333333333334
sg19
Nsg20
Nsg21
F0.33983383231667197
sg22
F0.961
sg23
Nsg24
Nsg25
F0.0831
ssg26
I01
sg27
I01
sba(iSong
Song
p358
(dp359
g3
(dp360
g5
F0.00104
sg6
VLet You Go
p361
sg8
F0.471988
sg9
F0.616
sg10
S'blues'
p362
sg12
F0.0282
sg13
VGreat Peacock
p363
sg15
I9999
sg16
F0.616
sg17
Nsg18
F0.8556333333333334
sg19
Nsg20
Nsg21
F0.33983383231667197
sg22
F0.598
sg23
Nsg24
Nsg25
F0.0806
ssg26
I01
sg27
I01
sba(iSong
Song
p364
(dp365
g3
(dp366
g5
F0.102
sg6
VI\u2019m a Raven (Shake Children)
p367
sg8
F0.681744
sg9
F0.503
sg10
S'blues'
p368
sg12
F0.0275
sg13
VHiss Golden Messenger
p369
sg15
I9999
sg16
F0.503
sg17
Nsg18
F0.87505
sg19
Nsg20
Nsg21
F0.33983383231667197
sg22
F0.867
sg23
Nsg24
Nsg25
I0
ssg26
I01
sg27
I01
sba(iSong
Song
p370
(dp371
g3
(dp372
g5
F0.115
sg6
VMy Babe
p373
sg8
F0.688408
sg9
F0.79
sg10
S'blues'
p374
sg12
F0.0884
sg13
VWhitehorse
p375
sg15
I9999
sg16
F0.621
sg17
Nsg18
F0.9256
sg19
Nsg20
Nsg21
F0.33983383231667197
sg22
F0.947
sg23
Nsg24
Nsg25
F1.32e-05
ssg26
I01
sg27
I01
sba(iSong
Song
p376
(dp377
g3
(dp378
g5
F0.00124
sg6
VVagabond
p379
sg8
F0.47193999999999997
sg9
F0.842
sg10
S'blues'
p380
sg12
F0.0721
sg13
VAquila Young
p381
sg15
I9999
sg16
F0.624
sg17
Nsg18
F0.875
sg19
Nsg20
Nsg21
F0.33983383231667197
sg22
F0.55
sg23
Nsg24
Nsg25
F0.0124
ssg26
I01
sg27
I01
sba(iSong
Song
p382
(dp383
g3
(dp384
g5
F0.0078
sg6
VThe Hurricane's Eye
p385
sg8
F0.656884
sg9
F0.658
sg10
S'blues'
p386
sg12
F0.0621
sg13
VJesse Roper
p387
sg15
I9999
sg16
F0.357
sg17
Nsg18
F0.8633833333333333
sg19
Nsg20
Nsg21
F0.33983383231667197
sg22
F0.227
sg23
Nsg24
Nsg25
F0.00274
ssg26
I01
sg27
I01
sba(iSong
Song
p388
(dp389
g3
(dp390
g5
F0.144
sg6
VDon't Strike Me Down
p391
sg8
F0.619464
sg9
F0.844
sg10
S'blues'
p392
sg12
F0.0463
sg13
VWilliam Elliott Whitmore
p393
sg15
I9999
sg16
F0.466
sg17
Nsg18
F0.90085
sg19
Nsg20
Nsg21
F0.33983383231667197
sg22
F0.45
sg23
Nsg24
Nsg25
F3.65e-05
ssg26
I01
sg27
I01
sba(iSong
Song
p394
(dp395
g3
(dp396
g5
F0.426
sg6
VOn the Road Again
p397
sg8
F0.586444
sg9
F0.414
sg10
S'blues'
p398
sg12
F0.0421
sg13
VJack Broadbent
p399
sg15
I9999
sg16
F0.408
sg17
Nsg18
F0.87305
sg19
Nsg20
Nsg21
F0.33983383231667197
sg22
F0.219
sg23
Nsg24
Nsg25
F0.0535
ssg26
I01
sg27
I01
sba(iSong
Song
p400
(dp401
g3
(dp402
g5
F0.594
sg6
VOff The Ground
p403
sg8
F0.369448
sg9
F0.694
sg10
S'blues'
p404
sg12
F0.0397
sg13
VThe Record Company
p405
sg15
I9999
sg16
F0.537
sg17
Nsg18
F0.9243
sg19
Nsg20
Nsg21
F0.33983383231667197
sg22
F0.864
sg23
Nsg24
Nsg25
F0.241
ssg26
I01
sg27
I01
sba(iSong
Song
p406
(dp407
g3
(dp408
g5
F0.045
sg6
VSnake Eyes
p409
sg8
F0.373004
sg9
F0.885
sg10
S'blues'
p410
sg12
F0.0472
sg13
VThe Wood Brothers
p411
sg15
I9999
sg16
F0.572
sg17
Nsg18
F0.9110166666666667
sg19
Nsg20
Nsg21
F0.33983383231667197
sg22
F0.649
sg23
Nsg24
Nsg25
F1.78e-06
ssg26
I01
sg27
I01
sba(iSong
Song
p412
(dp413
g3
(dp414
g5
F0.437
sg6
VI Am A Man Of Constant Sorrow
p415
sg8
F0.35999200000000003
sg9
F0.79
sg10
S'blues'
p416
sg12
F0.0253
sg13
VBlitzen Trapper
p417
sg15
I9999
sg16
F0.728
sg17
Nsg18
F0.9154666666666667
sg19
Nsg20
Nsg21
F0.33983383231667197
sg22
F0.894
sg23
Nsg24
Nsg25
F2.46e-05
ssg26
I01
sg27
I01
sba(iSong
Song
p418
(dp419
g3
(dp420
g5
F0.124
sg6
VTrouble
p421
sg8
F0.5682440000000001
sg9
F0.782
sg10
S'blues'
p422
sg12
F0.0391
sg13
VHamish Anderson
p423
sg15
I9999
sg16
F0.588
sg17
Nsg18
F0.8852166666666667
sg19
Nsg20
Nsg21
F0.33983383231667197
sg22
F0.892
sg23
Nsg24
Nsg25
F0.13
ssg26
I01
sg27
I01
sba(iSong
Song
p424
(dp425
g3
(dp426
g5
F0.278
sg6
VGold to Glass
p427
sg8
F0.32954
sg9
F0.648
sg10
S'blues'
p428
sg12
F0.146
sg13
VThe Revivalists
p429
sg15
I9999
sg16
F0.64
sg17
Nsg18
F0.8715166666666666
sg19
Nsg20
Nsg21
F0.33983383231667197
sg22
F0.398
sg23
Nsg24
Nsg25
F2.84e-05
ssg26
I01
sg27
I01
sba(iSong
Song
p430
(dp431
g3
(dp432
g5
F0.373
sg6
VBlack and Blue
p433
sg8
F0.69636
sg9
F0.726
sg10
S'blues'
p434
sg12
F0.0457
sg13
VThe Harpoonist & the Axe Murderer
p435
sg15
I9999
sg16
F0.539
sg17
Nsg18
F0.9038666666666667
sg19
Nsg20
Nsg21
F0.33983383231667197
sg22
F0.724
sg23
Nsg24
Nsg25
F0.00327
ssg26
I01
sg27
I01
sba(iSong
Song
p436
(dp437
g3
(dp438
g5
F0.00818
sg6
VRide On / Right On
p439
sg8
F0.38027999999999995
sg9
F0.582
sg10
S'blues'
p440
sg12
F0.0328
sg13
VPhosphorescent
p441
sg15
I9999
sg16
F0.539
sg17
Nsg18
F0.8764333333333333
sg19
Nsg20
Nsg21
F0.33983383231667197
sg22
F0.245
sg23
Nsg24
Nsg25
F0.0717
ssg26
I01
sg27
I01
sba(iSong
Song
p442
(dp443
g3
(dp444
g5
F0.0751
sg6
VMockingbird
p445
sg8
F0.5882999999999999
sg9
F0.806
sg10
S'blues'
p446
sg12
F0.0452
sg13
VQuaker City Night Hawks
p447
sg15
I9999
sg16
F0.35
sg17
Nsg18
F0.9343
sg19
Nsg20
Nsg21
F0.33983383231667197
sg22
F0.395
sg23
Nsg24
Nsg25
F5.93e-05
ssg26
I01
sg27
I01
sba(iSong
Song
p448
(dp449
g3
(dp450
g5
F0.000183
sg6
VBetter Way
p451
sg8
F0.42442
sg9
F0.67
sg10
S'blues'
p452
sg12
F0.0292
sg13
VKim Logan
p453
sg15
I9999
sg16
F0.477
sg17
Nsg18
F0.8973
sg19
Nsg20
Nsg21
F0.33983383231667197
sg22
F0.323
sg23
Nsg24
Nsg25
F0.777
ssg26
I01
sg27
I01
sba(iSong
Song
p454
(dp455
g3
(dp456
g5
F0.000843
sg6
VBoone
p457
sg8
F0.679924
sg9
F0.757
sg10
S'blues'
p458
sg12
F0.041
sg13
VThe Marcus King Band
p459
sg15
I9999
sg16
F0.357
sg17
Nsg18
F0.8752166666666666
sg19
Nsg20
Nsg21
F0.33983383231667197
sg22
F0.488
sg23
Nsg24
Nsg25
F0.00435
ssg26
I01
sg27
I01
sba(iSong
Song
p460
(dp461
g3
(dp462
g5
F0.00855
sg6
VGrinder
p463
sg8
F0.647732
sg9
F0.792
sg10
S'blues'
p464
sg12
F0.0363
sg13
VGary Clark Jr.
p465
sg15
I9999
sg16
F0.293
sg17
Nsg18
F0.93755
sg19
Nsg20
Nsg21
F0.33983383231667197
sg22
F0.697
sg23
Nsg24
Nsg25
F0.0111
ssg26
I01
sg27
I01
sba(iSong
Song
p466
(dp467
g3
(dp468
g5
F0.843
sg6
VBoneyard - Edit
p469
sg8
F0.426152
sg9
F0.475
sg10
S'blues'
p470
sg12
F0.0265
sg13
VFink
p471
sg15
I9999
sg16
F0.386
sg17
Nsg18
F0.8624333333333334
sg19
Nsg20
Nsg21
F0.33983383231667197
sg22
F0.391
sg23
Nsg24
Nsg25
F0.000106
ssg26
I01
sg27
I01
sba(iSong
Song
p472
(dp473
g3
(dp474
g5
F0.0066
sg6
VBotched Execution
p475
sg8
F0.640204
sg9
F0.938
sg10
S'blues'
p476
sg12
F0.0854
sg13
VShovels & Rope
p477
sg15
I9999
sg16
F0.495
sg17
Nsg18
F0.90555
sg19
Nsg20
Nsg21
F0.33983383231667197
sg22
F0.783
sg23
Nsg24
Nsg25
I0
ssg26
I01
sg27
I01
sba(iSong
Song
p478
(dp479
g3
(dp480
g5
F0.112
sg6
VMagnolia
p481
sg8
F0.378532
sg9
F0.507
sg10
S'blues'
p482
sg12
F0.0292
sg13
VMail the Horse
p483
sg15
I9999
sg16
F0.647
sg17
Nsg18
F0.8469
sg19
Nsg20
Nsg21
F0.33983383231667197
sg22
F0.711
sg23
Nsg24
Nsg25
F0.0117
ssg26
I01
sg27
I01
sba(iSong
Song
p484
(dp485
g3
(dp486
g5
F0.000369
sg6
VHeavy Is the Head
p487
sg8
F0.34210399999999996
sg9
F0.923
sg10
S'blues'
p488
sg12
F0.0392
sg13
VZac Brown Band
p489
sg15
I9999
sg16
F0.508
sg17
Nsg18
F0.9457
sg19
Nsg20
Nsg21
F0.33983383231667197
sg22
F0.689
sg23
Nsg24
Nsg25
F0.00171
ssg26
I01
sg27
I01
sba(iSong
Song
p490
(dp491
g3
(dp492
g5
F0.0091
sg6
VI Feel Love (Every Million Miles)
p493
sg8
F0.37568
sg9
F0.919
sg10
S'blues'
p494
sg12
F0.139
sg13
VThe Dead Weather
p495
sg15
I9999
sg16
F0.404
sg17
Nsg18
F0.8873333333333334
sg19
Nsg20
Nsg21
F0.33983383231667197
sg22
F0.207
sg23
Nsg24
Nsg25
I0
ssg26
I01
sg27
I01
sba(iSong
Song
p496
(dp497
g3
(dp498
g5
F0.0657
sg6
VDead In The Water
p499
sg8
F0.319904
sg9
F0.785
sg10
S'blues'
p500
sg12
F0.036
sg13
VRandall Bramblett
p501
sg15
I9999
sg16
F0.617
sg17
Nsg18
F0.8758833333333332
sg19
Nsg20
Nsg21
F0.33983383231667197
sg22
F0.766
sg23
Nsg24
Nsg25
F0.018
ssg26
I01
sg27
I01
sba(iSong
Song
p502
(dp503
g3
(dp504
g5
F0.144
sg6
VRiverbottom
p505
sg8
F0.583824
sg9
F0.604
sg10
S'blues'
p506
sg12
F0.0401
sg13
VJonathan Tyler
p507
sg15
I9999
sg16
F0.626
sg17
Nsg18
F0.9425666666666667
sg19
Nsg20
Nsg21
F0.33983383231667197
sg22
F0.481
sg23
Nsg24
Nsg25
F0.000225
ssg26
I01
sg27
I01
sba(iSong
Song
p508
(dp509
g3
(dp510
g5
F0.143
sg6
VDreamcatchers
p511
sg8
F0.315768
sg9
F0.553
sg10
S'blues'
p512
sg12
F0.0322
sg13
VOdetta Hartman
p513
sg15
I9999
sg16
F0.502
sg17
Nsg18
F0.8665166666666667
sg19
Nsg20
Nsg21
F0.33983383231667197
sg22
F0.568
sg23
Nsg24
Nsg25
F0.168
ssg26
I01
sg27
I01
sba(iSong
Song
p514
(dp515
g3
(dp516
g5
F0.0011
sg6
VWicked Waters
p517
sg8
F0.411128
sg9
F0.978
sg10
S'blues'
p518
sg12
F0.14
sg13
VBenjamin Booker
p519
sg15
I9999
sg16
F0.367
sg17
Nsg18
F0.9028833333333334
sg19
Nsg20
Nsg21
F0.33983383231667197
sg22
F0.318
sg23
Nsg24
Nsg25
I0
ssg26
I01
sg27
I01
sba(iSong
Song
p520
(dp521
g3
(dp522
g5
F0.000385
sg6
VCompany Man
p523
sg8
F0.47956
sg9
F0.889
sg10
S'blues'
p524
sg12
F0.0428
sg13
VJamestown Revival
p525
sg15
I9999
sg16
F0.551
sg17
Nsg18
F0.9162833333333334
sg19
Nsg20
Nsg21
F0.33983383231667197
sg22
F0.851
sg23
Nsg24
Nsg25
F3.94e-05
ssg26
I01
sg27
I01
sba(iSong
Song
p526
(dp527
g3
(dp528
g5
F0.0239
sg6
VThese American Blues
p529
sg8
F0.5076080000000001
sg9
F0.701
sg10
S'blues'
p530
sg12
F0.0268
sg13
VLevi Parham
p531
sg15
I9999
sg16
F0.701
sg17
Nsg18
F0.8365833333333333
sg19
Nsg20
Nsg21
F0.33983383231667197
sg22
F0.962
sg23
Nsg24
Nsg25
F0.00501
ssg26
I01
sg27
I01
sba(iSong
Song
p532
(dp533
g3
(dp534
g5
F0.565
sg6
VSomebody Was Watching
p535
sg8
F0.667996
sg9
F0.374
sg10
S'blues'
p536
sg12
F0.177
sg13
VPops Staples
p537
sg15
I9999
sg16
F0.63
sg17
Nsg18
F0.8115833333333333
sg19
Nsg20
Nsg21
F0.33983383231667197
sg22
F0.562
sg23
Nsg24
Nsg25
F0.00146
ssg26
I01
sg27
I01
sba(iSong
Song
p538
(dp539
g3
(dp540
g5
F0.789
sg6
VYou're The Best Lover That I Ever Had
p541
sg8
F0.6030760000000001
sg9
F0.504
sg10
S'blues'
p542
sg12
F0.032
sg13
VSteve Earle
p543
sg15
I9999
sg16
F0.547
sg17
Nsg18
F0.8317833333333333
sg19
Nsg20
Nsg21
F0.33983383231667197
sg22
F0.766
sg23
Nsg24
Nsg25
F0.0799
ssg26
I01
sg27
I01
sba(iSong
Song
p544
(dp545
g3
(dp546
g5
F0.215
sg6
VSleepy Lagoon
p547
sg8
F0.32185199999999997
sg9
F0.629
sg10
S'blues'
p548
sg12
F0.0275
sg13
VCarl Broemel
p549
sg15
I9999
sg16
F0.604
sg17
Nsg18
F0.85285
sg19
Nsg20
Nsg21
F0.33983383231667197
sg22
F0.756
sg23
Nsg24
Nsg25
F0.481
ssg26
I01
sg27
I01
sba(iSong
Song
p550
(dp551
g3
(dp552
g5
F0.772
sg6
VPromise Land (feat. Jason Eskridge)
p553
sg8
F0.40058
sg9
F0.306
sg10
S'blues'
p554
sg12
F0.036
sg13
VHannah Miller
p555
sg15
I9999
sg16
F0.341
sg17
Nsg18
F0.8241833333333334
sg19
Nsg20
Nsg21
F0.33983383231667197
sg22
F0.122
sg23
Nsg24
Nsg25
F0.0196
ssg26
I01
sg27
I01
sba(iSong
Song
p556
(dp557
g3
(dp558
g5
F0.0495
sg6
VThe Perfect Parts
p559
sg8
F0.498948
sg9
F0.657
sg10
S'blues'
p560
sg12
F0.0454
sg13
VShakey Graves
p561
sg15
I9999
sg16
F0.534
sg17
Nsg18
F0.8981333333333333
sg19
Nsg20
Nsg21
F0.33983383231667197
sg22
F0.282
sg23
Nsg24
Nsg25
F0.000301
ssg26
I01
sg27
I01
sba(iSong
Song
p562
(dp563
g3
(dp564
g5
F0.178
sg6
VRaising Hands Raising Hell Raise 'em High
p565
sg8
F0.40004
sg9
F0.821
sg10
S'blues'
p566
sg12
F0.0426
sg13
VThe Wind and The Wave
p567
sg15
I9999
sg16
F0.623
sg17
Nsg18
F0.9036500000000001
sg19
Nsg20
Nsg21
F0.33983383231667197
sg22
F0.577
sg23
Nsg24
Nsg25
F0.528
ssg26
I01
sg27
I01
sba(iSong
Song
p568
(dp569
g3
(dp570
g5
F0.11
sg6
VBetter Feeln' Better Days
p571
sg8
F0.59968
sg9
F0.401
sg10
S'blues'
p572
sg12
F0.0423
sg13
VKail Baxley
p573
sg15
I9999
sg16
F0.764
sg17
Nsg18
F0.8564666666666666
sg19
Nsg20
Nsg21
F0.33983383231667197
sg22
F0.0716
sg23
Nsg24
Nsg25
F0.833
ssg26
I01
sg27
I01
sba(iSong
Song
p574
(dp575
g3
(dp576
g5
F0.3
sg6
VGlitter & Gold
p577
sg8
F0.6812999999999999
sg9
F0.62
sg10
S'blues'
p578
sg12
F0.0441
sg13
VBarns Courtney
p579
sg15
I9999
sg16
F0.488
sg17
Nsg18
F0.9120333333333334
sg19
Nsg20
Nsg21
F0.33983383231667197
sg22
F0.357
sg23
Nsg24
Nsg25
I0
ssg26
I01
sg27
I01
sba(iSong
Song
p580
(dp581
g3
(dp582
g5
F0.596
sg6
VI'm Going to Live the Life I Sing About in My Song
p583
sg8
F0.4747
sg9
F0.29
sg10
S'blues'
p584
sg12
F0.0361
sg13
VThe Last Internationale
p585
sg15
I9999
sg16
F0.541
sg17
Nsg18
F0.8566166666666667
sg19
Nsg20
Nsg21
F0.33983383231667197
sg22
F0.272
sg23
Nsg24
Nsg25
F0.00372
ssg26
I01
sg27
I01
sba(iSong
Song
p586
(dp587
g3
(dp588
g5
F0.344
sg6
VFirst Of The Week
p589
sg8
F0.31601999999999997
sg9
F0.327
sg10
S'blues'
p590
sg12
F0.0347
sg13
VPatrick Sweany
p591
sg15
I9999
sg16
F0.684
sg17
Nsg18
F0.7695166666666666
sg19
Nsg20
Nsg21
F0.33983383231667197
sg22
F0.535
sg23
Nsg24
Nsg25
F0.239
ssg26
I01
sg27
I01
sba(iSong
Song
p592
(dp593
g3
(dp594
g5
F0.928
sg6
VAngel of Small Death and the Codeine Scene - Live From Spotify London
p595
sg8
F0.371284
sg9
F0.2
sg10
S'blues'
p596
sg12
F0.0622
sg13
VHozier
p597
sg15
I9999
sg16
F0.594
sg17
Nsg18
F0.8254666666666667
sg19
Nsg20
Nsg21
F0.33983383231667197
sg22
F0.415
sg23
Nsg24
Nsg25
I0
ssg26
I01
sg27
I01
sba(iSong
Song
p598
(dp599
g3
(dp600
g5
F9.24e-06
sg6
VThe 28th of January - Electric
p601
sg8
F0.343952
sg9
F0.854
sg10
S'blues'
p602
sg12
F0.0331
sg13
VMichael Daves
p603
sg15
I9999
sg16
F0.414
sg17
Nsg18
F0.85215
sg19
Nsg20
Nsg21
F0.33983383231667197
sg22
F0.737
sg23
Nsg24
Nsg25
F0.906
ssg26
I01
sg27
I01
sba(iSong
Song
p604
(dp605
g3
(dp606
g5
F0.0658
sg6
VSweat Shock
p607
sg8
F0.452724
sg9
F0.948
sg10
S'blues'
p608
sg12
F0.214
sg13
VJ. Roddy Walston & The Business
p609
sg15
I9999
sg16
F0.495
sg17
Nsg18
F0.9409
sg19
Nsg20
Nsg21
F0.33983383231667197
sg22
F0.158
sg23
Nsg24
Nsg25
F7.4e-05
ssg26
I01
sg27
I01
sba(iSong
Song
p610
(dp611
g3
(dp612
g5
F0.00428
sg6
VLazaretto
p613
sg8
F0.720164
sg9
F0.831
sg10
S'blues'
p614
sg12
F0.0811
sg13
VJack White
p615
sg15
I9999
sg16
F0.325
sg17
Nsg18
F0.8904333333333334
sg19
Nsg20
Nsg21
F0.33983383231667197
sg22
F0.541
sg23
Nsg24
Nsg25
F3.72e-05
ssg26
I01
sg27
I01
sba(iSong
Song
p616
(dp617
g3
(dp618
g5
F0.0451
sg6
VStrike Your Light
p619
sg8
F0.679308
sg9
F0.938
sg10
S'blues'
p620
sg12
F0.135
sg13
VVintage Trouble
p621
sg15
I9999
sg16
F0.309
sg17
Nsg18
F0.9336666666666668
sg19
Nsg20
Nsg21
F0.33983383231667197
sg22
F0.611
sg23
Nsg24
Nsg25
F1.42e-06
ssg26
I01
sg27
I01
sba(iSong
Song
p622
(dp623
g3
(dp624
g5
F0.82
sg6
VDry Dirt (Stripped)
p625
sg8
F0.50478
sg9
F0.33
sg10
S'blues'
p626
sg12
F0.0588
sg13
VThe Bones of J.R. Jones
p627
sg15
I9999
sg16
F0.682
sg17
Nsg18
F0.7880833333333332
sg19
Nsg20
Nsg21
F0.33983383231667197
sg22
F0.326
sg23
Nsg24
Nsg25
F0.358
ssg26
I01
sg27
I01
sba(iSong
Song
p628
(dp629
g3
(dp630
g5
F0.228
sg6
VThousand Mile Night
p631
sg8
F0.562608
sg9
F0.35
sg10
S'blues'
p632
sg12
F0.0471
sg13
VJonah Tolchin
p633
sg15
I9999
sg16
F0.584
sg17
Nsg18
F0.7676333333333333
sg19
Nsg20
Nsg21
F0.33983383231667197
sg22
F0.498
sg23
Nsg24
Nsg25
F0.0719
ssg26
I01
sg27
I01
sba(iSong
Song
p634
(dp635
g3
(dp636
g5
F0.828
sg6
VLead Me Home - The Walking Dead Soundtrack
p637
sg8
F0.5451119999999999
sg9
F0.276
sg10
S'blues'
p638
sg12
F0.0323
sg13
VJamie N Commons
p639
sg15
I9999
sg16
F0.435
sg17
Nsg18
F0.8155166666666667
sg19
Nsg20
Nsg21
F0.33983383231667197
sg22
F0.175
sg23
Nsg24
Nsg25
F0.00015
ssg26
I01
sg27
I01
sba(iSong
Song
p640
(dp641
g3
(dp642
g5
F0.804
sg6
VWhispered Words (Pretty Lies)
p643
sg8
F0.346788
sg9
F0.585
sg10
S'blues'
p644
sg12
F0.0734
sg13
VDan Auerbach
p645
sg15
I9999
sg16
F0.481
sg17
Nsg18
F0.885
sg19
Nsg20
Nsg21
F0.33983383231667197
sg22
F0.481
sg23
Nsg24
Nsg25
F0.000453
ssg26
I01
sg27
I01
sba(iSong
Song
p646
(dp647
g3
(dp648
g5
F0.426
sg6
VOn the Road Again
p649
sg8
F0.586444
sg9
F0.414
sg10
S'blues'
p650
sg12
F0.0421
sg13
VJack Broadbent
p651
sg15
I9999
sg16
F0.408
sg17
Nsg18
F0.87305
sg19
Nsg20
Nsg21
F0.33983383231667197
sg22
F0.219
sg23
Nsg24
Nsg25
F0.0535
ssg26
I01
sg27
I01
sba(iSong
Song
p652
(dp653
g3
(dp654
g5
F0.819
sg6
VSleeping on the Blacktop
p655
sg8
F0.33212400000000003
sg9
F0.308
sg10
S'blues'
p656
sg12
F0.0478
sg13
VColter Wall
p657
sg15
I9999
sg16
F0.566
sg17
Nsg18
F0.7588666666666666
sg19
Nsg20
Nsg21
F0.33983383231667197
sg22
F0.461
sg23
Nsg24
Nsg25
F0.272
ssg26
I01
sg27
I01
sba(iSong
Song
p658
(dp659
g3
(dp660
g5
F0.802
sg6
VBroken Bones
p661
sg8
F0.49597199999999997
sg9
F0.486
sg10
S'blues'
p662
sg12
F0.193
sg13
VKaleo
p663
sg15
I9999
sg16
F0.779
sg17
Nsg18
F0.8799166666666667
sg19
Nsg20
Nsg21
F0.33983383231667197
sg22
F0.654
sg23
Nsg24
Nsg25
F5.76e-05
ssg26
I01
sg27
I01
sba(iSong
Song
p664
(dp665
g3
(dp666
g5
F0.749
sg6
VWork Song
p667
sg8
F0.485648
sg9
F0.363
sg10
S'blues'
p668
sg12
F0.0608
sg13
VHozier
p669
sg15
I9999
sg16
F0.531
sg17
Nsg18
F0.8721333333333334
sg19
Nsg20
Nsg21
F0.33983383231667197
sg22
F0.259
sg23
Nsg24
Nsg25
I0
ssg26
I01
sg27
I01
sba(iSong
Song
p670
(dp671
g3
(dp672
g5
F0.991
sg6
VHow Long
p673
sg8
F0.5739160000000001
sg9
F0.327
sg10
S'blues'
p674
sg12
F0.0981
sg13
VC.W. Stoneking
p675
sg15
I9999
sg16
F0.562
sg17
Nsg18
F0.8113499999999999
sg19
Nsg20
Nsg21
F0.33983383231667197
sg22
F0.802
sg23
Nsg24
Nsg25
F0.0328
ssg26
I01
sg27
I01
sba(iSong
Song
p676
(dp677
g3
(dp678
g5
F0.454
sg6
VHeaven Sent
p679
sg8
F0.451524
sg9
F0.281
sg10
S'blues'
p680
sg12
F0.0292
sg13
VParker Millsap
p681
sg15
I9999
sg16
F0.403
sg17
Nsg18
F0.8272499999999999
sg19
Nsg20
Nsg21
F0.33983383231667197
sg22
F0.182
sg23
Nsg24
Nsg25
I0
ssg26
I01
sg27
I01
sba(iSong
Song
p682
(dp683
g3
(dp684
g5
F0.844
sg6
VHeaven Bent
p685
sg8
F0.496452
sg9
F0.157
sg10
S'blues'
p686
sg12
F0.0437
sg13
VLady Lamb
p687
sg15
I9999
sg16
F0.492
sg17
Nsg18
F0.8544666666666667
sg19
Nsg20
Nsg21
F0.33983383231667197
sg22
F0.131
sg23
Nsg24
Nsg25
I0
ssg26
I01
sg27
I01
sba(iSong
Song
p688
(dp689
g3
(dp690
g5
F0.763
sg6
VDarkwater
p691
sg8
F0.45516
sg9
F0.277
sg10
S'blues'
p692
sg12
F0.0308
sg13
VSam Williams
p693
sg15
I9999
sg16
F0.629
sg17
Nsg18
F0.7876833333333333
sg19
Nsg20
Nsg21
F0.33983383231667197
sg22
F0.628
sg23
Nsg24
Nsg25
F0.000147
ssg26
I01
sg27
I01
sba(iSong
Song
p694
(dp695
g3
(dp696
g5
F0.801
sg6
VLittle Jose
p697
sg8
F0.696668
sg9
F0.2
sg10
S'blues'
p698
sg12
F0.0385
sg13
VGrey Reverend
p699
sg15
I9999
sg16
F0.354
sg17
Nsg18
F0.7369833333333333
sg19
Nsg20
Nsg21
F0.33983383231667197
sg22
F0.228
sg23
Nsg24
Nsg25
F0.847
ssg26
I01
sg27
I01
sba(iSong
Song
p700
(dp701
g3
(dp702
g5
F0.955
sg6
VGold
p703
sg8
F0.495496
sg9
F0.137
sg10
S'blues'
p704
sg12
F0.0378
sg13
VArum Rae
p705
sg15
I9999
sg16
F0.325
sg17
Nsg18
F0.7484
sg19
Nsg20
Nsg21
F0.33983383231667197
sg22
F0.255
sg23
Nsg24
Nsg25
F0.144
ssg26
I01
sg27
I01
sba(iSong
Song
p706
(dp707
g3
(dp708
g5
F0.922
sg6
VBloodshot - Demo
p709
sg8
F0.301832
sg9
F0.0838
sg10
S'blues'
p710
sg12
F0.0561
sg13
VAlbin Lee Meldau
p711
sg15
I9999
sg16
F0.483
sg17
Nsg18
F0.7941833333333332
sg19
Nsg20
Nsg21
F0.33983383231667197
sg22
F0.162
sg23
Nsg24
Nsg25
F1.74e-05
ssg26
I01
sg27
I01
sba(iSong
Song
p712
(dp713
g3
(dp714
g5
F0.124
sg6
VSinging Saw
p715
sg8
F0.7368279999999999
sg9
F0.513
sg10
S'blues'
p716
sg12
F0.0284
sg13
VKevin Morby
p717
sg15
I9999
sg16
F0.462
sg17
Nsg18
F0.8684833333333334
sg19
Nsg20
Nsg21
F0.33983383231667197
sg22
F0.47
sg23
Nsg24
Nsg25
F0.205
ssg26
I01
sg27
I01
sba(iSong
Song
p718
(dp719
g3
(dp720
g5
F0.899
sg6
VOak Tree
p721
sg8
F0.403824
sg9
F0.273
sg10
S'blues'
p722
sg12
F0.0304
sg13
VMirel Wagner
p723
sg15
I9999
sg16
F0.553
sg17
Nsg18
F0.8070166666666666
sg19
Nsg20
Nsg21
F0.33983383231667197
sg22
F0.23
sg23
Nsg24
Nsg25
F0.442
ssg26
I01
sg27
I01
sba(iSong
Song
p724
(dp725
g3
(dp726
g5
F0.00203
sg6
VLittle Red Rooster
p727
sg8
F0.34448
sg9
F0.709
sg10
S'blues'
p728
sg12
F0.0504
sg13
VDan Owen
p729
sg15
I9999
sg16
F0.217
sg17
Nsg18
F0.9077333333333333
sg19
Nsg20
Nsg21
F0.33983383231667197
sg22
F0.401
sg23
Nsg24
Nsg25
F0.000442
ssg26
I01
sg27
I01
sba(iSong
Song
p730
(dp731
g3
(dp732
g5
F0.869
sg6
VBig Boss Man
p733
sg8
F0.5596720000000001
sg9
F0.261
sg10
S'blues'
p734
sg12
F0.0511
sg13
VWhitehorse
p735
sg15
I9999
sg16
F0.588
sg17
Nsg18
F0.8068833333333333
sg19
Nsg20
Nsg21
F0.33983383231667197
sg22
F0.316
sg23
Nsg24
Nsg25
F5.22e-05
ssg26
I01
sg27
I01
sba(iSong
Song
p736
(dp737
g3
(dp738
g5
F0.843
sg6
VBoneyard - Edit
p739
sg8
F0.426152
sg9
F0.475
sg10
S'blues'
p740
sg12
F0.0265
sg13
VFink
p741
sg15
I9999
sg16
F0.386
sg17
Nsg18
F0.8624333333333334
sg19
Nsg20
Nsg21
F0.33983383231667197
sg22
F0.391
sg23
Nsg24
Nsg25
F0.000106
ssg26
I01
sg27
I01
sba(iSong
Song
p742
(dp743
g3
(dp744
g5
F0.482
sg6
VMissing At Sea
p745
sg8
F0.497424
sg9
F0.5
sg10
S'blues'
p746
sg12
F0.0266
sg13
VMaggie Bjorklund
p747
sg15
I9999
sg16
F0.497
sg17
Nsg18
F0.8483499999999999
sg19
Nsg20
Nsg21
F0.33983383231667197
sg22
F0.263
sg23
Nsg24
Nsg25
F0.97
ssg26
I01
sg27
I01
sba(iSong
Song
p748
(dp749
g3
(dp750
g5
F0.139
sg6
VRed Right Hand - 2011 - Remaster
p751
sg8
F0.462632
sg9
F0.403
sg10
S'blues'
p752
sg12
F0.037
sg13
VNick Cave & The Bad Seeds
p753
sg15
I9999
sg16
F0.735
sg17
Nsg18
F0.8066833333333333
sg19
Nsg20
Nsg21
F0.33983383231667197
sg22
F0.453
sg23
Nsg24
Nsg25
F0.473
ssg26
I01
sg27
I01
sba(iSong
Song
p754
(dp755
g3
(dp756
g5
F0.868
sg6
VSlow Coming
p757
sg8
F0.484044
sg9
F0.511
sg10
S'blues'
p758
sg12
F0.0481
sg13
VBenjamin Booker
p759
sg15
I9999
sg16
F0.375
sg17
Nsg18
F0.8393666666666667
sg19
Nsg20
Nsg21
F0.33983383231667197
sg22
F0.474
sg23
Nsg24
Nsg25
F0.0138
ssg26
I01
sg27
I01
sba(iSong
Song
p760
(dp761
g3
(dp762
g5
F0.725
sg6
VAn Honest Man
p763
sg8
F0.519676
sg9
F0.548
sg10
S'blues'
p764
sg12
F0.0521
sg13
VFantastic Negrito
p765
sg15
I9999
sg16
F0.735
sg17
Nsg18
F0.9208833333333334
sg19
Nsg20
Nsg21
F0.33983383231667197
sg22
F0.391
sg23
Nsg24
Nsg25
I0
ssg26
I01
sg27
I01
sba(iSong
Song
p766
(dp767
g3
(dp768
g5
F0.0688
sg6
VCrocodile Tears
p769
sg8
F0.513204
sg9
F0.561
sg10
S'blues'
p770
sg12
F0.0491
sg13
Vlittle hurricane
p771
sg15
I9999
sg16
F0.341
sg17
Nsg18
F0.8372833333333334
sg19
Nsg20
Nsg21
F0.33983383231667197
sg22
F0.333
sg23
Nsg24
Nsg25
F0.0222
ssg26
I01
sg27
I01
sba(iSong
Song
p772
(dp773
g3
(dp774
g5
F0.655
sg6
VI Can't Go On Without You
p775
sg8
F0.36751999999999996
sg9
F0.267
sg10
S'blues'
p776
sg12
F0.0428
sg13
VKaleo
p777
sg15
I9999
sg16
F0.368
sg17
Nsg18
F0.8434166666666667
sg19
Nsg20
Nsg21
F0.33983383231667197
sg22
F0.194
sg23
Nsg24
Nsg25
F2.24e-05
ssg26
I01
sg27
I01
sba(iSong
Song
p778
(dp779
g3
(dp780
g5
F0.403
sg6
VTo Be Alone
p781
sg8
F0.2682
sg9
F0.443
sg10
S'blues'
p782
sg12
F0.0259
sg13
VHozier
p783
sg15
I9999
sg16
F0.559
sg17
Nsg18
F0.8913333333333334
sg19
Nsg20
Nsg21
F0.33983383231667197
sg22
F0.264
sg23
Nsg24
Nsg25
F0.000183
ssg26
I01
sg27
I01
sba(iSong
Song
p784
(dp785
g3
(dp786
g5
F0.634
sg6
VWild Horses - Acoustic
p787
sg8
F0.51986
sg9
F0.27
sg10
S'blues'
p788
sg12
F0.0349
sg13
VBishop Briggs
p789
sg15
I9999
sg16
F0.719
sg17
Nsg18
F0.8244333333333334
sg19
Nsg20
Nsg21
F0.33983383231667197
sg22
F0.299
sg23
Nsg24
Nsg25
I0
ssg26
I01
sg27
I01
sba(iSong
Song
p790
(dp791
g3
(dp792
g5
F0.777
sg6
VThe Dirt
p793
sg8
F0.40189600000000003
sg9
F0.092
sg10
S'blues'
p794
sg12
F0.158
sg13
VMirel Wagner
p795
sg15
I9999
sg16
F0.617
sg17
Nsg18
F0.7370833333333333
sg19
Nsg20
Nsg21
F0.33983383231667197
sg22
F0.17
sg23
Nsg24
Nsg25
F0.00613
ssg26
I01
sg27
I01
sba(iSong
Song
p796
(dp797
g3
(dp798
g5
F0.197
sg6
VCome on in My Kitchen
p799
sg8
F0.444224
sg9
F0.623
sg10
S'blues'
p800
sg12
F0.0406
sg13
VWhitehorse
p801
sg15
I9999
sg16
F0.481
sg17
Nsg18
F0.9020499999999999
sg19
Nsg20
Nsg21
F0.33983383231667197
sg22
F0.622
sg23
Nsg24
Nsg25
F0.0678
ssg26
I01
sg27
I01
sba(iSong
Song
p802
(dp803
g3
(dp804
g5
F0.942
sg6
VThe Mark - Live Solo
p805
sg8
F0.4183
sg9
F0.0591
sg10
S'blues'
p806
sg12
F0.0325
sg13
VCold Specks
p807
sg15
I9999
sg16
F0.469
sg17
Nsg18
F0.7239666666666668
sg19
Nsg20
Nsg21
F0.33983383231667197
sg22
F0.128
sg23
Nsg24
Nsg25
I0
ssg26
I01
sg27
I01
sba(iSong
Song
p808
(dp809
g3
(dp810
g5
F0.936
sg6
VForget - Live From Spotify NYC
p811
sg8
F0.38418
sg9
F0.38
sg10
S'blues'
p812
sg12
F0.0988
sg13
VLianne La Havas
p813
sg15
I9999
sg16
F0.558
sg17
Nsg18
F0.7838166666666666
sg19
Nsg20
Nsg21
F0.33983383231667197
sg22
F0.485
sg23
Nsg24
Nsg25
F0.000228
ssg26
I01
sg27
I01
sba(iSong
Song
p814
(dp815
g3
(dp816
g5
F0.915
sg6
VI Thought I Heard You Screaming
p817
sg8
F0.39472
sg9
F0.0734
sg10
S'blues'
p818
sg12
F0.0319
sg13
VBenjamin Booker
p819
sg15
I9999
sg16
F0.535
sg17
Nsg18
F0.7386
sg19
Nsg20
Nsg21
F0.33983383231667197
sg22
F0.321
sg23
Nsg24
Nsg25
F2.31e-05
ssg26
I01
sg27
I01
sba(iSong
Song
p820
(dp821
g3
(dp822
g5
F0.715
sg6
VLump in Your Throat - Radio Edit
p823
sg8
F0.480136
sg9
F0.467
sg10
S'blues'
p824
sg12
F0.0305
sg13
VAndrea Bignasca
p825
sg15
I9999
sg16
F0.677
sg17
Nsg18
F0.8667833333333334
sg19
Nsg20
Nsg21
F0.33983383231667197
sg22
F0.452
sg23
Nsg24
Nsg25
F0.0351
ssg26
I01
sg27
I01
sba(iSong
Song
p826
(dp827
g3
(dp828
g5
F0.464
sg6
VHoneysuckle Reel
p829
sg8
F0.461984
sg9
F0.414
sg10
S'blues'
p830
sg12
F0.0368
sg13
VDaniel Bachman
p831
sg15
I9999
sg16
F0.314
sg17
Nsg18
F0.78455
sg19
Nsg20
Nsg21
F0.33983383231667197
sg22
F0.388
sg23
Nsg24
Nsg25
F0.939
ssg26
I01
sg27
I01
sba(iSong
Song
p832
(dp833
g3
(dp834
g5
F0.558
sg6
VBy The Evening
p835
sg8
F0.694948
sg9
F0.328
sg10
S'blues'
p836
sg12
F0.0364
sg13
VBenjamin Booker
p837
sg15
I9999
sg16
F0.33
sg17
Nsg18
F0.8387833333333333
sg19
Nsg20
Nsg21
F0.33983383231667197
sg22
F0.332
sg23
Nsg24
Nsg25
F0.00114
ssg26
I01
sg27
I01
sba(iSong
Song
p838
(dp839
g3
(dp840
g5
F0.0046
sg6
VLazaretto
p841
sg8
F0.472856
sg9
F0.838
sg10
S'blues'
p842
sg12
F0.0709
sg13
VJack White
p843
sg15
I9999
sg16
F0.381
sg17
Nsg18
F0.8906333333333334
sg19
Nsg20
Nsg21
F0.33983383231667197
sg22
F0.581
sg23
Nsg24
Nsg25
F3.77e-05
ssg26
I01
sg27
I01
sba(iSong
Song
p844
(dp845
g3
(dp846
g5
F0.00274
sg6
VShake It
p847
sg8
F0.315984
sg9
F0.811
sg10
S'blues'
p848
sg12
F0.0786
sg13
VSteve Smyth
p849
sg15
I9999
sg16
F0.449
sg17
Nsg18
F0.9010333333333332
sg19
Nsg20
Nsg21
F0.33983383231667197
sg22
F0.274
sg23
Nsg24
Nsg25
F4.03e-05
ssg26
I01
sg27
I01
sba(iSong
Song
p850
(dp851
g3
(dp852
g5
F0.404
sg6
VIt Will Come Back
p853
sg8
F0.695572
sg9
F0.441
sg10
S'blues'
p854
sg12
F0.0397
sg13
VHozier
p855
sg15
I9999
sg16
F0.36
sg17
Nsg18
F0.8722666666666666
sg19
Nsg20
Nsg21
F0.33983383231667197
sg22
F0.201
sg23
Nsg24
Nsg25
F4.93e-06
ssg26
I01
sg27
I01
sba(iSong
Song
p856
(dp857
g3
(dp858
g5
F0.602
sg6
VDon't Need It
p859
sg8
F0.452444
sg9
F0.739
sg10
S'blues'
p860
sg12
F0.0383
sg13
VWilliam Elliott Whitmore
p861
sg15
I9999
sg16
F0.761
sg17
Nsg18
F0.8417666666666667
sg19
Nsg20
Nsg21
F0.33983383231667197
sg22
F0.392
sg23
Nsg24
Nsg25
F1.78e-06
ssg26
I01
sg27
I01
sba(iSong
Song
p862
(dp863
g3
(dp864
g5
F0.188
sg6
VTop Yourself
p865
sg8
F0.343596
sg9
F0.727
sg10
S'blues'
p866
sg12
F0.058
sg13
VThe Raconteurs
p867
sg15
I9999
sg16
F0.505
sg17
Nsg18
F0.91015
sg19
Nsg20
Nsg21
F0.33983383231667197
sg22
F0.254
sg23
Nsg24
Nsg25
F0.000826
ssg26
I01
sg27
I01
sba(iSong
Song
p868
(dp869
g3
(dp870
g5
F0.575
sg6
VNo Sugar In My Coffee
p871
sg8
F0.34014
sg9
F0.576
sg10
S'blues'
p872
sg12
F0.224
sg13
VCaught A Ghost
p873
sg15
I9999
sg16
F0.719
sg17
Nsg18
F0.89395
sg19
Nsg20
Nsg21
F0.33983383231667197
sg22
F0.429
sg23
Nsg24
Nsg25
F1.03e-05
ssg26
I01
sg27
I01
sba(iSong
Song
p874
(dp875
g3
(dp876
g5
F0.0762
sg6
VBang Bang Bang
p877
sg8
F0.568228
sg9
F0.62
sg10
S'blues'
p878
sg12
F0.0362
sg13
VDorothy
p879
sg15
I9999
sg16
F0.455
sg17
Nsg18
F0.91
sg19
Nsg20
Nsg21
F0.33983383231667197
sg22
F0.297
sg23
Nsg24
Nsg25
F0.015
ssg26
I01
sg27
I01
sba(iSong
Song
p880
(dp881
g3
(dp882
g5
F0.0657
sg6
VAin't No Easy Way
p883
sg8
F0.383144
sg9
F0.947
sg10
S'blues'
p884
sg12
F0.0457
sg13
VBlack Rebel Motorcycle Club
p885
sg15
I9999
sg16
F0.532
sg17
Nsg18
F0.9299999999999999
sg19
Nsg20
Nsg21
F0.33983383231667197
sg22
F0.748
sg23
Nsg24
Nsg25
F1.49e-06
ssg26
I01
sg27
I01
sba(iSong
Song
p886
(dp887
g3
(dp888
g5
F0.761
sg6
VLittle Lady Blues
p889
sg8
F0.548832
sg9
F0.328
sg10
S'blues'
p890
sg12
F0.045
sg13
VDaniel Bachman
p891
sg15
I9999
sg16
F0.407
sg17
Nsg18
F0.8493333333333334
sg19
Nsg20
Nsg21
F0.33983383231667197
sg22
F0.349
sg23
Nsg24
Nsg25
F0.772
ssg26
I01
sg27
I01
sba(iSong
Song
p892
(dp893
g3
(dp894
g5
F0.224
sg6
VHenry Nearly Killed Me (It's a Shame)
p895
sg8
F0.539184
sg9
F0.599
sg10
S'blues'
p896
sg12
F0.033
sg13
VRay LaMontagne
p897
sg15
I9999
sg16
F0.538
sg17
Nsg18
F0.8414666666666667
sg19
Nsg20
Nsg21
F0.33983383231667197
sg22
F0.429
sg23
Nsg24
Nsg25
F0.0703
ssg26
I01
sg27
I01
sba(iSong
Song
p898
(dp899
g3
(dp900
g5
F0.358
sg6
VGone Forever
p901
sg8
F0.38462
sg9
F0.729
sg10
S'blues'
p902
sg12
F0.0316
sg13
VMick Flannery
p903
sg15
I9999
sg16
F0.621
sg17
Nsg18
F0.9092166666666667
sg19
Nsg20
Nsg21
F0.33983383231667197
sg22
F0.767
sg23
Nsg24
Nsg25
I0
ssg26
I01
sg27
I01
sba(iSong
Song
p904
(dp905
g3
(dp906
g5
F0.878
sg6
VMy Love Will Never Die
p907
sg8
F0.33784
sg9
F0.0532
sg10
S'blues'
p908
sg12
F0.0318
sg13
VHozier
p909
sg15
I9999
sg16
F0.613
sg17
Nsg18
F0.755
sg19
Nsg20
Nsg21
F0.33983383231667197
sg22
F0.218
sg23
Nsg24
Nsg25
F0.0113
ssg26
I01
sg27
I01
sba(iSong
Song
p910
(dp911
g3
(dp912
g5
F0.202
sg6
VOld Number Seven
p913
sg8
F0.569816
sg9
F0.427
sg10
S'blues'
p914
sg12
F0.0405
sg13
VThe Devil Makes Three
p915
sg15
I9999
sg16
F0.571
sg17
Nsg18
F0.8737666666666667
sg19
Nsg20
Nsg21
F0.33983383231667197
sg22
F0.894
sg23
Nsg24
Nsg25
I0
ssg26
I01
sg27
I01
sba(iSong
Song
p916
(dp917
g3
(dp918
g5
F0.2
sg6
VNight Has Turned to Day
p919
sg8
F0.819696
sg9
F0.675
sg10
S'blues'
p920
sg12
F0.286
sg13
VFantastic Negrito
p921
sg15
I9999
sg16
F0.522
sg17
Nsg18
F0.91435
sg19
Nsg20
Nsg21
F0.33983383231667197
sg22
F0.588
sg23
Nsg24
Nsg25
I0
ssg26
I01
sg27
I01
sba(iSong
Song
p922
(dp923
g3
(dp924
g5
F0.126
sg6
VThree More Days
p925
sg8
F0.33564
sg9
F0.681
sg10
S'blues'
p926
sg12
F0.0328
sg13
VRay LaMontagne
p927
sg15
I9999
sg16
F0.56
sg17
Nsg18
F0.8606999999999999
sg19
Nsg20
Nsg21
F0.33983383231667197
sg22
F0.901
sg23
Nsg24
Nsg25
F0.000889
ssg26
I01
sg27
I01
sba(iSong
Song
p928
(dp929
g3
(dp930
g5
F0.725
sg6
V1922 Blues
p931
sg8
F0.47004399999999996
sg9
F0.715
sg10
S'blues'
p932
sg12
F0.0341
sg13
VCharlie Parr
p933
sg15
I9999
sg16
F0.466
sg17
Nsg18
F0.8732000000000001
sg19
Nsg20
Nsg21
F0.33983383231667197
sg22
F0.824
sg23
Nsg24
Nsg25
F0.353
ssg26
I01
sg27
I01
sba(iSong
Song
p934
(dp935
g3
(dp936
g5
F0.47
sg6
VCrazy Woman
p937
sg8
F0.394336
sg9
F0.704
sg10
S'blues'
p938
sg12
F0.0589
sg13
VJoseph LeMay
p939
sg15
I9999
sg16
F0.633
sg17
Nsg18
F0.8764666666666667
sg19
Nsg20
Nsg21
F0.33983383231667197
sg22
F0.742
sg23
Nsg24
Nsg25
F0.00047
ssg26
I01
sg27
I01
sba(iSong
Song
p940
(dp941
g3
(dp942
g5
F0.342
sg6
VTrouble
p943
sg8
F0.69296
sg9
F0.425
sg10
S'blues'
p944
sg12
F0.0455
sg13
VRay LaMontagne
p945
sg15
I9999
sg16
F0.321
sg17
Nsg18
F0.7878333333333333
sg19
Nsg20
Nsg21
F0.33983383231667197
sg22
F0.493
sg23
Nsg24
Nsg25
F0.000262
ssg26
I01
sg27
I01
sba(iSong
Song
p946
(dp947
g3
(dp948
g5
F0.962
sg6
VJohnny law
p949
sg8
F0.431012
sg9
F0.322
sg10
S'blues'
p950
sg12
F0.06
sg13
VWilliam Elliott Whitmore
p951
sg15
I9999
sg16
F0.687
sg17
Nsg18
F0.7830833333333334
sg19
Nsg20
Nsg21
F0.33983383231667197
sg22
F0.312
sg23
Nsg24
Nsg25
I0
ssg26
I01
sg27
I01
sba(iSong
Song
p952
(dp953
g3
(dp954
g5
F0.000943
sg6
VHoney Forgive Me
p955
sg8
F0.372228
sg9
F0.932
sg10
S'blues'
p956
sg12
F0.034
sg13
VJared James Nichols
p957
sg15
I9999
sg16
F0.596
sg17
Nsg18
F0.9278166666666666
sg19
Nsg20
Nsg21
F0.33983383231667197
sg22
F0.839
sg23
Nsg24
Nsg25
F0.0178
ssg26
I01
sg27
I01
sba(iSong
Song
p958
(dp959
g3
(dp960
g5
F0.00194
sg6
VU got 2 believe
p961
sg8
F0.371936
sg9
F0.908
sg10
S'blues'
p962
sg12
F0.0551
sg13
VPaulo Mendonca
p963
sg15
I9999
sg16
F0.616
sg17
Nsg18
F0.8855500000000001
sg19
Nsg20
Nsg21
F0.33983383231667197
sg22
F0.808
sg23
Nsg24
Nsg25
F0.00235
ssg26
I01
sg27
I01
sba(iSong
Song
p964
(dp965
g3
(dp966
g5
F0.00032
sg6
VTrue Lies
p967
sg8
F0.692744
sg9
F0.769
sg10
S'blues'
p968
sg12
F0.0317
sg13
VKenny Wayne Shepherd
p969
sg15
I9999
sg16
F0.367
sg17
Nsg18
F0.8790333333333333
sg19
Nsg20
Nsg21
F0.33983383231667197
sg22
F0.7
sg23
Nsg24
Nsg25
F0.628
ssg26
I01
sg27
I01
sba(iSong
Song
p970
(dp971
g3
(dp972
g5
F0.187
sg6
VHump Thru the Winter
p973
sg8
F0.304072
sg9
F0.697
sg10
S'blues'
p974
sg12
F0.164
sg13
VFantastic Negrito
p975
sg15
I9999
sg16
F0.734
sg17
Nsg18
F0.9071166666666667
sg19
Nsg20
Nsg21
F0.33983383231667197
sg22
F0.537
sg23
Nsg24
Nsg25
I0
ssg26
I01
sg27
I01
sba(iSong
Song
p976
(dp977
g3
(dp978
g5
F0.00321
sg6
VLong Coal Train
p979
sg8
F0.552136
sg9
F0.843
sg10
S'blues'
p980
sg12
F0.094
sg13
VBig Head Todd and The Monsters
p981
sg15
I9999
sg16
F0.58
sg17
Nsg18
F0.9070833333333332
sg19
Nsg20
Nsg21
F0.33983383231667197
sg22
F0.666
sg23
Nsg24
Nsg25
F0.112
ssg26
I01
sg27
I01
sba(iSong
Song
p982
(dp983
g3
(dp984
g5
F3.71e-05
sg6
VMake It Easy
p985
sg8
F0.495712
sg9
F0.908
sg10
S'blues'
p986
sg12
F0.0561
sg13
VRichie Kotzen
p987
sg15
I9999
sg16
F0.505
sg17
Nsg18
F0.9213833333333333
sg19
Nsg20
Nsg21
F0.33983383231667197
sg22
F0.494
sg23
Nsg24
Nsg25
F0.0092
ssg26
I01
sg27
I01
sba(iSong
Song
p988
(dp989
g3
(dp990
g5
F0.0315
sg6
VLove Is
p991
sg8
F0.396024
sg9
F0.776
sg10
S'blues'
p992
sg12
F0.0645
sg13
VTommy Castro
p993
sg15
I9999
sg16
F0.76
sg17
Nsg18
F0.9151
sg19
Nsg20
Nsg21
F0.33983383231667197
sg22
F0.935
sg23
Nsg24
Nsg25
F0.000124
ssg26
I01
sg27
I01
sba(iSong
Song
p994
(dp995
g3
(dp996
g5
F0.000697
sg6
VShake It
p997
sg8
F0.743692
sg9
F0.964
sg10
S'blues'
p998
sg12
F0.12
sg13
VRobert Randolph & The Family Band
p999
sg15
I9999
sg16
F0.351
sg17
Nsg18
F0.9375833333333333
sg19
Nsg20
Nsg21
F0.33983383231667197
sg22
F0.496
sg23
Nsg24
Nsg25
F0.0304
ssg26
I01
sg27
I01
sba(iSong
Song
p1000
(dp1001
g3
(dp1002
g5
F0.219
sg6
VStronger
p1003
sg8
F0.388108
sg9
F0.676
sg10
S'blues'
p1004
sg12
F0.0307
sg13
VJessy Martens and Band
p1005
sg15
I9999
sg16
F0.718
sg17
Nsg18
F0.8759666666666667
sg19
Nsg20
Nsg21
F0.33983383231667197
sg22
F0.595
sg23
Nsg24
Nsg25
F0.000167
ssg26
I01
sg27
I01
sba(iSong
Song
p1006
(dp1007
g3
(dp1008
g5
F0.00683
sg6
VMorning Star
p1009
sg8
F0.31262799999999996
sg9
F0.913
sg10
S'blues'
p1010
sg12
F0.0713
sg13
VPhilip Sayce Group
p1011
sg15
I9999
sg16
F0.393
sg17
Nsg18
F0.9165166666666666
sg19
Nsg20
Nsg21
F0.33983383231667197
sg22
F0.651
sg23
Nsg24
Nsg25
F0.00328
ssg26
I01
sg27
I01
sba(iSong
Song
p1012
(dp1013
g3
(dp1014
g5
F0.0371
sg6
VDiamonds & Gold
p1015
sg8
F0.36816000000000004
sg9
F0.846
sg10
S'blues'
p1016
sg12
F0.0339
sg13
VKenny Wayne Shepherd
p1017
sg15
I9999
sg16
F0.574
sg17
Nsg18
F0.9049499999999999
sg19
Nsg20
Nsg21
F0.33983383231667197
sg22
F0.794
sg23
Nsg24
Nsg25
F4.08e-05
ssg26
I01
sg27
I01
sba(iSong
Song
p1018
(dp1019
g3
(dp1020
g5
F0.736
sg6
VCarry Yourself
p1021
sg8
F0.343848
sg9
F0.575
sg10
S'blues'
p1022
sg12
F0.0303
sg13
VEric Gales
p1023
sg15
I9999
sg16
F0.675
sg17
Nsg18
F0.9184
sg19
Nsg20
Nsg21
F0.33983383231667197
sg22
F0.778
sg23
Nsg24
Nsg25
F0.0171
ssg26
I01
sg27
I01
sba(iSong
Song
p1024
(dp1025
g3
(dp1026
g5
F0.00229
sg6
VOpenness
p1027
sg8
F0.679476
sg9
F0.891
sg10
S'blues'
p1028
sg12
F0.0621
sg13
VHenrik Freischlader Trio
p1029
sg15
I9999
sg16
F0.454
sg17
Nsg18
F0.9149833333333334
sg19
Nsg20
Nsg21
F0.33983383231667197
sg22
F0.752
sg23
Nsg24
Nsg25
F0.0135
ssg26
I01
sg27
I01
sba(iSong
Song
p1030
(dp1031
g3
(dp1032
g5
F0.43
sg6
VJust in case
p1033
sg8
F0.339524
sg9
F0.969
sg10
S'blues'
p1034
sg12
F0.0915
sg13
VPaulo Mendonca
p1035
sg15
I9999
sg16
F0.536
sg17
Nsg18
F0.9563333333333334
sg19
Nsg20
Nsg21
F0.33983383231667197
sg22
F0.805
sg23
Nsg24
Nsg25
F1.26e-06
ssg26
I01
sg27
I01
sba(iSong
Song
p1036
(dp1037
g3
(dp1038
g5
F0.000455
sg6
VBuilt For Comfort
p1039
sg8
F0.6513519999999999
sg9
F0.88
sg10
S'blues'
p1040
sg12
F0.0963
sg13
VBlack Stone Cherry
p1041
sg15
I9999
sg16
F0.333
sg17
Nsg18
F0.9486666666666667
sg19
Nsg20
Nsg21
F0.33983383231667197
sg22
F0.49
sg23
Nsg24
Nsg25
F0.135
ssg26
I01
sg27
I01
sba(iSong
Song
p1042
(dp1043
g3
(dp1044
g5
F0.00703
sg6
VThe Answer
p1045
sg8
F0.463856
sg9
F0.648
sg10
S'blues'
p1046
sg12
F0.0294
sg13
VTony Spinner
p1047
sg15
I9999
sg16
F0.676
sg17
Nsg18
F0.8924
sg19
Nsg20
Nsg21
F0.33983383231667197
sg22
F0.889
sg23
Nsg24
Nsg25
F0.00137
ssg26
I01
sg27
I01
sba(iSong
Song
p1048
(dp1049
g3
(dp1050
g5
F0.00279
sg6
VHighway Jones
p1051
sg8
F0.510992
sg9
F0.675
sg10
S'blues'
p1052
sg12
F0.0379
sg13
VCry Of Love
p1053
sg15
I9999
sg16
F0.611
sg17
Nsg18
F0.8278833333333334
sg19
Nsg20
Nsg21
F0.33983383231667197
sg22
F0.606
sg23
Nsg24
Nsg25
F0.00628
ssg26
I01
sg27
I01
sba(iSong
Song
p1054
(dp1055
g3
(dp1056
g5
F0.075
sg6
VStand Tall
p1057
sg8
F0.7352000000000001
sg9
F0.679
sg10
S'blues'
p1058
sg12
F0.0684
sg13
VRichie Kotzen
p1059
sg15
I9999
sg16
F0.606
sg17
Nsg18
F0.8984833333333333
sg19
Nsg20
Nsg21
F0.33983383231667197
sg22
F0.964
sg23
Nsg24
Nsg25
F0.00274
ssg26
I01
sg27
I01
sba(iSong
Song
p1060
(dp1061
g3
(dp1062
g5
F0.007
sg6
VFind a Way
p1063
sg8
F0.616004
sg9
F0.78
sg10
S'blues'
p1064
sg12
F0.0479
sg13
VRobert Randolph & The Family Band
p1065
sg15
I9999
sg16
F0.442
sg17
Nsg18
F0.9070666666666667
sg19
Nsg20
Nsg21
F0.33983383231667197
sg22
F0.666
sg23
Nsg24
Nsg25
I0
ssg26
I01
sg27
I01
sba(iSong
Song
p1066
(dp1067
g3
(dp1068
g5
F0.00357
sg6
VChills & Thrills
p1069
sg8
F0.4647
sg9
F0.657
sg10
S'blues'
p1070
sg12
F0.0429
sg13
VBernard Allison
p1071
sg15
I9999
sg16
F0.723
sg17
Nsg18
F0.9104666666666666
sg19
Nsg20
Nsg21
F0.33983383231667197
sg22
F0.803
sg23
Nsg24
Nsg25
F0.0179
ssg26
I01
sg27
I01
sba(iSong
Song
p1072
(dp1073
g3
(dp1074
g5
F0.112
sg6
VDon't Be a Fool
p1075
sg8
F0.47200400000000003
sg9
F0.878
sg10
S'blues'
p1076
sg12
F0.0396
sg13
VSimon McBride
p1077
sg15
I9999
sg16
F0.604
sg17
Nsg18
F0.9117666666666667
sg19
Nsg20
Nsg21
F0.33983383231667197
sg22
F0.705
sg23
Nsg24
Nsg25
F0.0282
ssg26
I01
sg27
I01
sba(iSong
Song
p1078
(dp1079
g3
(dp1080
g5
F0.0753
sg6
VShe Was a Doorman
p1081
sg8
F0.744892
sg9
F0.897
sg10
S'blues'
p1082
sg12
F0.131
sg13
VAna Popovic
p1083
sg15
I9999
sg16
F0.429
sg17
Nsg18
F0.9316666666666666
sg19
Nsg20
Nsg21
F0.33983383231667197
sg22
F0.823
sg23
Nsg24
Nsg25
F2.23e-05
ssg26
I01
sg27
I01
sba(iSong
Song
p1084
(dp1085
g3
(dp1086
g5
F0.0602
sg6
VWell Run Dry
p1087
sg8
F0.500156
sg9
F0.914
sg10
S'blues'
p1088
sg12
F0.0749
sg13
VPhat Phunktion
p1089
sg15
I9999
sg16
F0.71
sg17
Nsg18
F0.9401333333333334
sg19
Nsg20
Nsg21
F0.33983383231667197
sg22
F0.742
sg23
Nsg24
Nsg25
F0.00377
ssg26
I01
sg27
I01
sba(iSong
Song
p1090
(dp1091
g3
(dp1092
g5
F0.02
sg6
VSailin' Shoes
p1093
sg8
F0.378072
sg9
F0.913
sg10
S'blues'
p1094
sg12
F0.0594
sg13
VPhilip Sayce
p1095
sg15
I9999
sg16
F0.473
sg17
Nsg18
F0.8991666666666667
sg19
Nsg20
Nsg21
F0.33983383231667197
sg22
F0.594
sg23
Nsg24
Nsg25
F0.000109
ssg26
I01
sg27
I01
sba(iSong
Song
p1096
(dp1097
g3
(dp1098
g5
F0.0175
sg6
VPoint of View
p1099
sg8
F0.80872
sg9
F0.924
sg10
S'blues'
p1100
sg12
F0.0497
sg13
VHenrik Freischlader
p1101
sg15
I9999
sg16
F0.317
sg17
Nsg18
F0.94385
sg19
Nsg20
Nsg21
F0.33983383231667197
sg22
F0.701
sg23
Nsg24
Nsg25
F0.000148
ssg26
I01
sg27
I01
sba(iSong
Song
p1102
(dp1103
g3
(dp1104
g5
F0.295
sg6
VLove Sweet Love
p1105
sg8
F0.443912
sg9
F0.777
sg10
S'blues'
p1106
sg12
F0.0262
sg13
VAnthony Gomes
p1107
sg15
I9999
sg16
F0.612
sg17
Nsg18
F0.9526166666666666
sg19
Nsg20
Nsg21
F0.33983383231667197
sg22
F0.857
sg23
Nsg24
Nsg25
I0
ssg26
I01
sg27
I01
sba(iSong
Song
p1108
(dp1109
g3
(dp1110
g5
F0.0971
sg6
VBig Mouth
p1111
sg8
F0.39748
sg9
F0.743
sg10
S'blues'
p1112
sg12
F0.0349
sg13
VMike Zito
p1113
sg15
I9999
sg16
F0.604
sg17
Nsg18
F0.8926333333333333
sg19
Nsg20
Nsg21
F0.33983383231667197
sg22
F0.823
sg23
Nsg24
Nsg25
F0.000131
ssg26
I01
sg27
I01
sba(iSong
Song
p1114
(dp1115
g3
(dp1116
g5
F0.133
sg6
VGo Faster
p1117
sg8
F0.47236
sg9
F0.939
sg10
S'blues'
p1118
sg12
F0.0554
sg13
VRichie Kotzen
p1119
sg15
I9999
sg16
F0.504
sg17
Nsg18
F0.9702333333333333
sg19
Nsg20
Nsg21
F0.33983383231667197
sg22
F0.741
sg23
Nsg24
Nsg25
F0.00758
ssg26
I01
sg27
I01
sba(iSong
Song
p1120
(dp1121
g3
(dp1122
g5
F0.0846
sg6
VFew And Far Between
p1123
sg8
F0.76166
sg9
F0.627
sg10
S'blues'
p1124
sg12
F0.122
sg13
VShannon Curfman
p1125
sg15
I9999
sg16
F0.574
sg17
Nsg18
F0.8969666666666666
sg19
Nsg20
Nsg21
F0.33983383231667197
sg22
F0.864
sg23
Nsg24
Nsg25
I0
ssg26
I01
sg27
I01
sba(iSong
Song
p1126
(dp1127
g3
(dp1128
g5
F0.212
sg6
VOpen Road
p1129
sg8
F0.36804000000000003
sg9
F0.576
sg10
S'blues'
p1130
sg12
F0.0565
sg13
VOli Brown
p1131
sg15
I9999
sg16
F0.628
sg17
Nsg18
F0.9217666666666666
sg19
Nsg20
Nsg21
F0.33983383231667197
sg22
F0.693
sg23
Nsg24
Nsg25
F4.47e-05
ssg26
I01
sg27
I01
sba(iSong
Song
p1132
(dp1133
g3
(dp1134
g5
F0.0143
sg6
VLife On The Outside
p1135
sg8
F0.427156
sg9
F0.99
sg10
S'blues'
p1136
sg12
F0.125
sg13
VGov't Mule
p1137
sg15
I9999
sg16
F0.498
sg17
Nsg18
F0.9546499999999999
sg19
Nsg20
Nsg21
F0.33983383231667197
sg22
F0.394
sg23
Nsg24
Nsg25
F0.0258
ssg26
I01
sg27
I01
sba(iSong
Song
p1138
(dp1139
g3
(dp1140
g5
F0.16
sg6
VBefore You Hit The Ground
p1141
sg8
F0.368676
sg9
F0.876
sg10
S'blues'
p1142
sg12
F0.0873
sg13
VJonny Lang
p1143
sg15
I9999
sg16
F0.724
sg17
Nsg18
F0.9024333333333333
sg19
Nsg20
Nsg21
F0.33983383231667197
sg22
F0.812
sg23
Nsg24
Nsg25
F0.00278
ssg26
I01
sg27
I01
sba(iSong
Song
p1144
(dp1145
g3
(dp1146
g5
F0.00371
sg6
VMotivational Speaker
p1147
sg8
F0.406068
sg9
F0.849
sg10
S'blues'
p1148
sg12
F0.0389
sg13
VAlvin Youngblood Hart
p1149
sg15
I9999
sg16
F0.608
sg17
Nsg18
F0.889
sg19
Nsg20
Nsg21
F0.33983383231667197
sg22
F0.644
sg23
Nsg24
Nsg25
F0.0259
ssg26
I01
sg27
I01
sba(iSong
Song
p1150
(dp1151
g3
(dp1152
g5
F0.000197
sg6
VFunky Guitar Blues
p1153
sg8
F0.45957600000000004
sg9
F0.871
sg10
S'blues'
p1154
sg12
F0.029
sg13
VBryce Janey
p1155
sg15
I9999
sg16
F0.563
sg17
Nsg18
F0.9029166666666666
sg19
Nsg20
Nsg21
F0.33983383231667197
sg22
F0.517
sg23
Nsg24
Nsg25
F0.0128
ssg26
I01
sg27
I01
sba(iSong
Song
p1156
(dp1157
g3
(dp1158
g5
F0.0203
sg6
VWho Do You Love?
p1159
sg8
F0.416056
sg9
F0.648
sg10
S'blues'
p1160
sg12
F0.0382
sg13
VJoanne Shaw Taylor
p1161
sg15
I9999
sg16
F0.629
sg17
Nsg18
F0.7656166666666666
sg19
Nsg20
Nsg21
F0.33983383231667197
sg22
F0.691
sg23
Nsg24
Nsg25
F0.0356
ssg26
I01
sg27
I01
sba(iSong
Song
p1162
(dp1163
g3
(dp1164
g5
F0.251
sg6
VT.C.B. or T.Y.A.
p1165
sg8
F0.41627600000000003
sg9
F0.958
sg10
S'blues'
p1166
sg12
F0.154
sg13
VEdwin McCain
p1167
sg15
I9999
sg16
F0.74
sg17
Nsg18
F0.9627333333333333
sg19
Nsg20
Nsg21
F0.33983383231667197
sg22
F0.83
sg23
Nsg24
Nsg25
F5.84e-06
ssg26
I01
sg27
I01
sba(iSong
Song
p1168
(dp1169
g3
(dp1170
g5
F0.0766
sg6
VVixen Eyes
p1171
sg8
F0.44020800000000004
sg9
F0.873
sg10
S'blues'
p1172
sg12
F0.0538
sg13
VGugun Power Trio
p1173
sg15
I9999
sg16
F0.688
sg17
Nsg18
F0.8758666666666667
sg19
Nsg20
Nsg21
F0.33983383231667197
sg22
F0.905
sg23
Nsg24
Nsg25
F0.00173
ssg26
I01
sg27
I01
sba(iSong
Song
p1174
(dp1175
g3
(dp1176
g5
F0.000233
sg6
VSoul On Fire
p1177
sg8
F0.52616
sg9
F0.858
sg10
S'blues'
p1178
sg12
F0.0392
sg13
VSaint Jude
p1179
sg15
I9999
sg16
F0.46
sg17
Nsg18
F0.9250833333333334
sg19
Nsg20
Nsg21
F0.33983383231667197
sg22
F0.502
sg23
Nsg24
Nsg25
F6.72e-05
ssg26
I01
sg27
I01
sba(iSong
Song
p1180
(dp1181
g3
(dp1182
g5
F0.0132
sg6
VWalkin' The Dawg
p1183
sg8
F0.349508
sg9
F0.923
sg10
S'blues'
p1184
sg12
F0.0474
sg13
VTony Spinner
p1185
sg15
I9999
sg16
F0.626
sg17
Nsg18
F0.9258666666666666
sg19
Nsg20
Nsg21
F0.33983383231667197
sg22
F0.845
sg23
Nsg24
Nsg25
F0.000771
ssg26
I01
sg27
I01
sba(iSong
Song
p1186
(dp1187
g3
(dp1188
g5
F0.0929
sg6
VLives That Don't Exist
p1189
sg8
F0.40244
sg9
F0.92
sg10
S'blues'
p1190
sg12
F0.0849
sg13
VAna Popovic
p1191
sg15
I9999
sg16
F0.715
sg17
Nsg18
F0.9301833333333334
sg19
Nsg20
Nsg21
F0.33983383231667197
sg22
F0.798
sg23
Nsg24
Nsg25
I0
ssg26
I01
sg27
I01
sba(iSong
Song
p1192
(dp1193
g3
(dp1194
g5
F0.0582
sg6
VDark Side Of Love
p1195
sg8
F0.47231599999999996
sg9
F0.879
sg10
S'blues'
p1196
sg12
F0.0469
sg13
VKenny Wayne Shepherd
p1197
sg15
I9999
sg16
F0.525
sg17
Nsg18
F0.9178833333333334
sg19
Nsg20
Nsg21
F0.33983383231667197
sg22
F0.842
sg23
Nsg24
Nsg25
F0.00396
ssg26
I01
sg27
I01
sba(iSong
Song
p1198
(dp1199
g3
(dp1200
g5
F0.00178
sg6
VHoney
p1201
sg8
F0.669
sg9
F0.887
sg10
S'blues'
p1202
sg12
F0.0497
sg13
VPaulo Mendonca
p1203
sg15
I9999
sg16
F0.467
sg17
Nsg18
F0.91255
sg19
Nsg20
Nsg21
F0.33983383231667197
sg22
F0.756
sg23
Nsg24
Nsg25
I0
ssg26
I01
sg27
I01
sba(iSong
Song
p1204
(dp1205
g3
(dp1206
g5
F0.000744
sg6
VLove Ain't a Love Song
p1207
sg8
F0.377656
sg9
F0.944
sg10
S'blues'
p1208
sg12
F0.0686
sg13
VJoe Bonamassa
p1209
sg15
I9999
sg16
F0.471
sg17
Nsg18
F0.9221166666666666
sg19
Nsg20
Nsg21
F0.33983383231667197
sg22
F0.763
sg23
Nsg24
Nsg25
F0.000587
ssg26
I01
sg27
I01
sba(iSong
Song
p1210
(dp1211
g3
(dp1212
g5
F0.194
sg6
VGroove With Me
p1213
sg8
F0.398092
sg9
F0.689
sg10
S'blues'
p1214
sg12
F0.0715
sg13
VBernard Allison
p1215
sg15
I9999
sg16
F0.816
sg17
Nsg18
F0.90345
sg19
Nsg20
Nsg21
F0.33983383231667197
sg22
F0.567
sg23
Nsg24
Nsg25
F0.0322
ssg26
I01
sg27
I01
sba(iSong
Song
p1216
(dp1217
g3
(dp1218
g5
F0.815
sg6
VDiving Duck Blues
p1219
sg8
F0.526288
sg9
F0.269
sg10
S'blues'
p1220
sg12
F0.0394
sg13
VTaj Mahal
p1221
sg15
I9999
sg16
F0.616
sg17
Nsg18
F0.80615
sg19
Nsg20
Nsg21
F0.33983383231667197
sg22
F0.696
sg23
Nsg24
Nsg25
I0
ssg26
I01
sg27
I01
sba(iSong
Song
p1222
(dp1223
g3
(dp1224
g5
F0.814
sg6
VBumble Bee (Live)
p1225
sg8
F0.302908
sg9
F0.244
sg10
S'blues'
p1226
sg12
F0.063
sg13
VDani Wilde
p1227
sg15
I9999
sg16
F0.471
sg17
Nsg18
F0.8496166666666667
sg19
Nsg20
Nsg21
F0.33983383231667197
sg22
F0.444
sg23
Nsg24
Nsg25
F4.25e-05
ssg26
I01
sg27
I01
sba(iSong
Song
p1228
(dp1229
g3
(dp1230
g5
F0.716
sg6
VNo Expectations
p1231
sg8
F0.33784800000000004
sg9
F0.28
sg10
S'blues'
p1232
sg12
F0.0361
sg13
VGeorge Thorogood
p1233
sg15
I9999
sg16
F0.47
sg17
Nsg18
F0.8484499999999999
sg19
Nsg20
Nsg21
F0.33983383231667197
sg22
F0.261
sg23
Nsg24
Nsg25
F0.0029
ssg26
I01
sg27
I01
sba(iSong
Song
p1234
(dp1235
g3
(dp1236
g5
F0.913
sg6
VKansas City Blues
p1237
sg8
F0.318304
sg9
F0.276
sg10
S'blues'
p1238
sg12
F0.0481
sg13
VSteve Howell
p1239
sg15
I9999
sg16
F0.584
sg17
Nsg18
F0.7957333333333333
sg19
Nsg20
Nsg21
F0.33983383231667197
sg22
F0.398
sg23
Nsg24
Nsg25
F0.000562
ssg26
I01
sg27
I01
sba(iSong
Song
p1240
(dp1241
g3
(dp1242
g5
F0.872
sg6
VDelta Getaway
p1243
sg8
F0.397216
sg9
F0.281
sg10
S'blues'
p1244
sg12
F0.0489
sg13
VEric Bibb
p1245
sg15
I9999
sg16
F0.778
sg17
Nsg18
F0.78345
sg19
Nsg20
Nsg21
F0.33983383231667197
sg22
F0.783
sg23
Nsg24
Nsg25
F0.00878
ssg26
I01
sg27
I01
sba(iSong
Song
p1246
(dp1247
g3
(dp1248
g5
F0.816
sg6
VBreak My Fall
p1249
sg8
F0.557232
sg9
F0.317
sg10
S'blues'
p1250
sg12
F0.0297
sg13
VThe Cold Stares
p1251
sg15
I9999
sg16
F0.49
sg17
Nsg18
F0.8646666666666667
sg19
Nsg20
Nsg21
F0.33983383231667197
sg22
F0.251
sg23
Nsg24
Nsg25
F0.000123
ssg26
I01
sg27
I01
sba(iSong
Song
p1252
(dp1253
g3
(dp1254
g5
F0.816
sg6
VBad to the Bone
p1255
sg8
F0.675756
sg9
F0.0704
sg10
S'blues'
p1256
sg12
F0.0678
sg13
VCarolyn Wonderland
p1257
sg15
I9999
sg16
F0.578
sg17
Nsg18
F0.776
sg19
Nsg20
Nsg21
F0.33983383231667197
sg22
F0.288
sg23
Nsg24
Nsg25
F0.00298
ssg26
I01
sg27
I01
sba(iSong
Song
p1258
(dp1259
g3
(dp1260
g5
F0.834
sg6
VLead Me On
p1261
sg8
F0.706664
sg9
F0.307
sg10
S'blues'
p1262
sg12
F0.031
sg13
VKelly Joe Phelps
p1263
sg15
I9999
sg16
F0.345
sg17
Nsg18
F0.7671666666666667
sg19
Nsg20
Nsg21
F0.33983383231667197
sg22
F0.483
sg23
Nsg24
Nsg25
F0.000239
ssg26
I01
sg27
I01
sba(iSong
Song
p1264
(dp1265
g3
(dp1266
g5
F0.458
sg6
VAm I Wrong
p1267
sg8
F0.4506
sg9
F0.476
sg10
S'blues'
p1268
sg12
F0.0528
sg13
VKeb' Mo'
p1269
sg15
I9999
sg16
F0.882
sg17
Nsg18
F0.8460833333333333
sg19
Nsg20
Nsg21
F0.33983383231667197
sg22
F0.964
sg23
Nsg24
Nsg25
F2.47e-06
ssg26
I01
sg27
I01
sba(iSong
Song
p1270
(dp1271
g3
(dp1272
g5
F0.522
sg6
VCross Creek Road
p1273
sg8
F0.53012
sg9
F0.248
sg10
S'blues'
p1274
sg12
F0.0752
sg13
VBig Daddy Wilson
p1275
sg15
I9999
sg16
F0.708
sg17
Nsg18
F0.8351000000000001
sg19
Nsg20
Nsg21
F0.33983383231667197
sg22
F0.612
sg23
Nsg24
Nsg25
F2.7e-06
ssg26
I01
sg27
I01
sba(iSong
Song
p1276
(dp1277
g3
(dp1278
g5
F0.952
sg6
VOh Lord
p1279
sg8
F0.535432
sg9
F0.197
sg10
S'blues'
p1280
sg12
F0.0324
sg13
VJj Thames
p1281
sg15
I9999
sg16
F0.492
sg17
Nsg18
F0.7573333333333333
sg19
Nsg20
Nsg21
F0.33983383231667197
sg22
F0.29
sg23
Nsg24
Nsg25
F0.000171
ssg26
I01
sg27
I01
sba(iSong
Song
p1282
(dp1283
g3
(dp1284
g5
F0.773
sg6
VWith My Maker I Am One
p1285
sg8
F0.39180000000000004
sg9
F0.213
sg10
S'blues'
p1286
sg12
F0.0479
sg13
VEric Bibb
p1287
sg15
I9999
sg16
F0.791
sg17
Nsg18
F0.8141
sg19
Nsg20
Nsg21
F0.33983383231667197
sg22
F0.597
sg23
Nsg24
Nsg25
F2.39e-05
ssg26
I01
sg27
I01
sba(iSong
Song
p1288
(dp1289
g3
(dp1290
g5
F0.618
sg6
VRiding In the Moonlight / Mr. Luck
p1291
sg8
F0.524492
sg9
F0.697
sg10
S'blues'
p1292
sg12
F0.0813
sg13
VColin James
p1293
sg15
I9999
sg16
F0.619
sg17
Nsg18
F0.8972166666666667
sg19
Nsg20
Nsg21
F0.33983383231667197
sg22
F0.961
sg23
Nsg24
Nsg25
F0.000315
ssg26
I01
sg27
I01
sba(iSong
Song
p1294
(dp1295
g3
(dp1296
g5
F0.885
sg6
VRight Here
p1297
sg8
F0.573504
sg9
F0.194
sg10
S'blues'
p1298
sg12
F0.0729
sg13
VKeller Williams
p1299
sg15
I9999
sg16
F0.633
sg17
Nsg18
F0.7576166666666667
sg19
Nsg20
Nsg21
F0.33983383231667197
sg22
F0.421
sg23
Nsg24
Nsg25
F0.404
ssg26
I01
sg27
I01
sba(iSong
Song
p1300
(dp1301
g3
(dp1302
g5
F0.346
sg6
VGoing Down the Road Feeling Bad
p1303
sg8
F0.7318640000000001
sg9
F0.567
sg10
S'blues'
p1304
sg12
F0.0397
sg13
VSteve Hill
p1305
sg15
I9999
sg16
F0.401
sg17
Nsg18
F0.84455
sg19
Nsg20
Nsg21
F0.33983383231667197
sg22
F0.622
sg23
Nsg24
Nsg25
F0.125
ssg26
I01
sg27
I01
sba(iSong
Song
p1306
(dp1307
g3
(dp1308
g5
F0.871
sg6
VDon't Ask Me (Bonus Track)
p1309
sg8
F0.4249
sg9
F0.391
sg10
S'blues'
p1310
sg12
F0.121
sg13
VSeasick Steve
p1311
sg15
I9999
sg16
F0.671
sg17
Nsg18
F0.7761666666666667
sg19
Nsg20
Nsg21
F0.33983383231667197
sg22
F0.288
sg23
Nsg24
Nsg25
F0.0265
ssg26
I01
sg27
I01
sba(iSong
Song
p1312
(dp1313
g3
(dp1314
g5
F0.928
sg6
VRefugee Moan
p1315
sg8
F0.512632
sg9
F0.22
sg10
S'blues'
p1316
sg12
F0.0953
sg13
VEric Bibb
p1317
sg15
I9999
sg16
F0.639
sg17
Nsg18
F0.7884333333333333
sg19
Nsg20
Nsg21
F0.33983383231667197
sg22
F0.514
sg23
Nsg24
Nsg25
F0.00156
ssg26
I01
sg27
I01
sba(iSong
Song
p1318
(dp1319
g3
(dp1320
g5
F0.983
sg6
VSo Grateful
p1321
sg8
F0.374636
sg9
F0.109
sg10
S'blues'
p1322
sg12
F0.0355
sg13
VCee Cee James
p1323
sg15
I9999
sg16
F0.434
sg17
Nsg18
F0.7453500000000001
sg19
Nsg20
Nsg21
F0.33983383231667197
sg22
F0.25
sg23
Nsg24
Nsg25
F0.000376
ssg26
I01
sg27
I01
sba(iSong
Song
p1324
(dp1325
g3
(dp1326
g5
F0.906
sg6
VOh Now
p1327
sg8
F0.697708
sg9
F0.207
sg10
S'blues'
p1328
sg12
F0.0299
sg13
VBrian Casey
p1329
sg15
I9999
sg16
F0.452
sg17
Nsg18
F0.7826166666666666
sg19
Nsg20
Nsg21
F0.33983383231667197
sg22
F0.347
sg23
Nsg24
Nsg25
F0.283
ssg26
I01
sg27
I01
sba(iSong
Song
p1330
(dp1331
g3
(dp1332
g5
F0.872
sg6
VWhen the Levee Breaks (feat. Jean Jacques Milteau)
p1333
sg8
F0.417888
sg9
F0.211
sg10
S'blues'
p1334
sg12
F0.0497
sg13
VCary Morin
p1335
sg15
I9999
sg16
F0.73
sg17
Nsg18
F0.7847666666666666
sg19
Nsg20
Nsg21
F0.33983383231667197
sg22
F0.76
sg23
Nsg24
Nsg25
F0.19
ssg26
I01
sg27
I01
sba(iSong
Song
p1336
(dp1337
g3
(dp1338
g5
F0.91
sg6
VLong Way Home
p1339
sg8
F0.312132
sg9
F0.054
sg10
S'blues'
p1340
sg12
F0.038
sg13
VClarence "Gatemouth" Brown
p1341
sg15
I9999
sg16
F0.728
sg17
Nsg18
F0.62405
sg19
Nsg20
Nsg21
F0.33983383231667197
sg22
F0.425
sg23
Nsg24
Nsg25
F0.048
ssg26
I01
sg27
I01
sba(iSong
Song
p1342
(dp1343
g3
(dp1344
g5
F0.861
sg6
VYou Don't Care for Me Enough to Cry
p1345
sg8
F0.36138400000000004
sg9
F0.208
sg10
S'blues'
p1346
sg12
F0.0359
sg13
VJohn Moreland
p1347
sg15
I9999
sg16
F0.389
sg17
Nsg18
F0.8055166666666668
sg19
Nsg20
Nsg21
F0.33983383231667197
sg22
F0.233
sg23
Nsg24
Nsg25
F7.76e-06
ssg26
I01
sg27
I01
sba(iSong
Song
p1348
(dp1349
g3
(dp1350
g5
F0.84
sg6
VThumb A Ride
p1351
sg8
F0.38416
sg9
F0.27
sg10
S'blues'
p1352
sg12
F0.0367
sg13
VBig Daddy Wilson
p1353
sg15
I9999
sg16
F0.727
sg17
Nsg18
F0.78035
sg19
Nsg20
Nsg21
F0.33983383231667197
sg22
F0.742
sg23
Nsg24
Nsg25
F0.124
ssg26
I01
sg27
I01
sba(iSong
Song
p1354
(dp1355
g3
(dp1356
g5
F0.818
sg6
VApple Picker (Acoustic)
p1357
sg8
F0.456544
sg9
F0.102
sg10
S'blues'
p1358
sg12
F0.061
sg13
VLittle G Weevil
p1359
sg15
I9999
sg16
F0.692
sg17
Nsg18
F0.80465
sg19
Nsg20
Nsg21
F0.33983383231667197
sg22
F0.475
sg23
Nsg24
Nsg25
F0.00328
ssg26
I01
sg27
I01
sba(iSong
Song
p1360
(dp1361
g3
(dp1362
g5
F0.837
sg6
VBaby, Please Don't Go
p1363
sg8
F0.49724799999999997
sg9
F0.408
sg10
S'blues'
p1364
sg12
F0.0328
sg13
VPreacher Boy
p1365
sg15
I9999
sg16
F0.553
sg17
Nsg18
F0.8754000000000001
sg19
Nsg20
Nsg21
F0.33983383231667197
sg22
F0.16
sg23
Nsg24
Nsg25
F0.00034
ssg26
I01
sg27
I01
sba(iSong
Song
p1366
(dp1367
g3
(dp1368
g5
F0.924
sg6
VWalking Blues
p1369
sg8
F0.425712
sg9
F0.104
sg10
S'blues'
p1370
sg12
F0.053
sg13
VRory Block
p1371
sg15
I9999
sg16
F0.831
sg17
Nsg18
F0.75575
sg19
Nsg20
Nsg21
F0.33983383231667197
sg22
F0.572
sg23
Nsg24
Nsg25
I0
ssg26
I01
sg27
I01
sba(iSong
Song
p1372
(dp1373
g3
(dp1374
g5
F0.746
sg6
VGoing To Canada
p1375
sg8
F0.37891199999999997
sg9
F0.416
sg10
S'blues'
p1376
sg12
F0.111
sg13
VJoe Louis Walker
p1377
sg15
I9999
sg16
F0.528
sg17
Nsg18
F0.7695166666666666
sg19
Nsg20
Nsg21
F0.33983383231667197
sg22
F0.826
sg23
Nsg24
Nsg25
F0.00864
ssg26
I01
sg27
I01
sba(iSong
Song
p1378
(dp1379
g3
(dp1380
g5
F0.774
sg6
VMake Me A Pallet On Your Floor
p1381
sg8
F0.720872
sg9
F0.398
sg10
S'blues'
p1382
sg12
F0.0328
sg13
VRory Block
p1383
sg15
I9999
sg16
F0.392
sg17
Nsg18
F0.8417833333333333
sg19
Nsg20
Nsg21
F0.33983383231667197
sg22
F0.721
sg23
Nsg24
Nsg25
F0.00229
ssg26
I01
sg27
I01
sba(iSong
Song
p1384
(dp1385
g3
(dp1386
g5
F0.676
sg6
VSeven Hours Of Light
p1387
sg8
F0.698504
sg9
F0.098
sg10
S'blues'
p1388
sg12
F0.122
sg13
VOtis Taylor
p1389
sg15
I9999
sg16
F0.595
sg17
Nsg18
F0.7544
sg19
Nsg20
Nsg21
F0.33983383231667197
sg22
F0.451
sg23
Nsg24
Nsg25
F0.128
ssg26
I01
sg27
I01
sba(iSong
Song
p1390
(dp1391
g3
(dp1392
g5
F0.758
sg6
VPrisoner
p1393
sg8
F0.35982
sg9
F0.086
sg10
S'blues'
p1394
sg12
F0.036
sg13
VCary Morin
p1395
sg15
I9999
sg16
F0.54
sg17
Nsg18
F0.7284666666666666
sg19
Nsg20
Nsg21
F0.33983383231667197
sg22
F0.285
sg23
Nsg24
Nsg25
F6e-05
ssg26
I01
sg27
I01
sba(iSong
Song
p1396
(dp1397
g3
(dp1398
g5
F0.823
sg6
VAmerica the Beautiful
p1399
sg8
F0.319232
sg9
F0.31
sg10
S'blues'
p1400
sg12
F0.0303
sg13
VKeb' Mo'
p1401
sg15
I9999
sg16
F0.67
sg17
Nsg18
F0.8418833333333333
sg19
Nsg20
Nsg21
F0.33983383231667197
sg22
F0.501
sg23
Nsg24
Nsg25
F0.000154
ssg26
I01
sg27
I01
sba(iSong
Song
p1402
(dp1403
g3
(dp1404
g5
F0.81
sg6
VPlay With Your Poodle
p1405
sg8
F0.663572
sg9
F0.43
sg10
S'blues'
p1406
sg12
F0.25
sg13
VJames Cotton
p1407
sg15
I9999
sg16
F0.515
sg17
Nsg18
F0.8181333333333334
sg19
Nsg20
Nsg21
F0.33983383231667197
sg22
F0.624
sg23
Nsg24
Nsg25
F0.0069
ssg26
I01
sg27
I01
sba(iSong
Song
p1408
(dp1409
g3
(dp1410
g5
F0.941
sg6
VTalkin' To Jehova
p1411
sg8
F0.42853600000000003
sg9
F0.142
sg10
S'blues'
p1412
sg12
F0.05
sg13
VKelly Joe Phelps
p1413
sg15
I9999
sg16
F0.72
sg17
Nsg18
F0.6956666666666665
sg19
Nsg20
Nsg21
F0.33983383231667197
sg22
F0.64
sg23
Nsg24
Nsg25
F0.0969
ssg26
I01
sg27
I01
sba(iSong
Song
p1414
(dp1415
g3
(dp1416
g5
F0.873
sg6
VMaybe I'll Go
p1417
sg8
F0.317612
sg9
F0.247
sg10
S'blues'
p1418
sg12
F0.047
sg13
VGuy Davis
p1419
sg15
I9999
sg16
F0.666
sg17
Nsg18
F0.7787833333333334
sg19
Nsg20
Nsg21
F0.33983383231667197
sg22
F0.721
sg23
Nsg24
Nsg25
F0.00656
ssg26
I01
sg27
I01
sba(iSong
Song
p1420
(dp1421
g3
(dp1422
g5
F0.311
sg6
VSlowly Slipping Away
p1423
sg8
F0.70968
sg9
F0.444
sg10
S'blues'
p1424
sg12
F0.0345
sg13
VSteve Hill
p1425
sg15
I9999
sg16
F0.384
sg17
Nsg18
F0.8496666666666667
sg19
Nsg20
Nsg21
F0.33983383231667197
sg22
F0.663
sg23
Nsg24
Nsg25
F0.000449
ssg26
I01
sg27
I01
sba(iSong
Song
p1426
(dp1427
g3
(dp1428
g5
F0.98
sg6
VLet's Have Some Fun
p1429
sg8
F0.365028
sg9
F0.318
sg10
S'blues'
p1430
sg12
F0.0281
sg13
VSamantha Fish
p1431
sg15
I9999
sg16
F0.674
sg17
Nsg18
F0.88625
sg19
Nsg20
Nsg21
F0.33983383231667197
sg22
F0.189
sg23
Nsg24
Nsg25
F0.00144
ssg26
I01
sg27
I01
sba(iSong
Song
p1432
(dp1433
g3
(dp1434
g5
F0.848
sg6
VBig Mama's Door
p1435
sg8
F0.394108
sg9
F0.195
sg10
S'blues'
p1436
sg12
F0.0406
sg13
VAlvin Youngblood Hart
p1437
sg15
I9999
sg16
F0.628
sg17
Nsg18
F0.7824333333333333
sg19
Nsg20
Nsg21
F0.33983383231667197
sg22
F0.538
sg23
Nsg24
Nsg25
F5.05e-05
ssg26
I01
sg27
I01
sba(iSong
Song
p1438
(dp1439
g3
(dp1440
g5
F0.964
sg6
VCalling Out To You
p1441
sg8
F0.40826799999999996
sg9
F0.118
sg10
S'blues'
p1442
sg12
F0.0358
sg13
VTedeschi Trucks Band
p1443
sg15
I9999
sg16
F0.597
sg17
Nsg18
F0.7682
sg19
Nsg20
Nsg21
F0.33983383231667197
sg22
F0.316
sg23
Nsg24
Nsg25
F0.00132
ssg26
I01
sg27
I01
sba(iSong
Song
p1444
(dp1445
g3
(dp1446
g5
F0.837
sg6
VSearching Blues
p1447
sg8
F0.46768400000000004
sg9
F0.249
sg10
S'blues'
p1448
sg12
F0.0338
sg13
VManuel Galvin
p1449
sg15
I9999
sg16
F0.687
sg17
Nsg18
F0.7647999999999999
sg19
Nsg20
Nsg21
F0.33983383231667197
sg22
F0.471
sg23
Nsg24
Nsg25
F0.0033
ssg26
I01
sg27
I01
sba(iSong
Song
p1450
(dp1451
g3
(dp1452
g5
F0.419
sg6
VWalking the dog
p1453
sg8
F0.452884
sg9
F0.165
sg10
S'blues'
p1454
sg12
F0.0584
sg13
VHans Theessink
p1455
sg15
I9999
sg16
F0.837
sg17
Nsg18
F0.8175666666666667
sg19
Nsg20
Nsg21
F0.33983383231667197
sg22
F0.446
sg23
Nsg24
Nsg25
F2.92e-06
ssg26
I01
sg27
I01
sba(iSong
Song
p1456
(dp1457
g3
(dp1458
g5
F0.878
sg6
VSamson And Delilah
p1459
sg8
F0.457208
sg9
F0.237
sg10
S'blues'
p1460
sg12
F0.0567
sg13
VRev. Gary Davis
p1461
sg15
I9999
sg16
F0.712
sg17
Nsg18
F0.7683666666666668
sg19
Nsg20
Nsg21
F0.33983383231667197
sg22
F0.751
sg23
Nsg24
Nsg25
F0.000601
ssg26
I01
sg27
I01
sba(iSong
Song
p1462
(dp1463
g3
(dp1464
g5
F0.978
sg6
VKeep Your Lamp Trimmed And Burning
p1465
sg8
F0.536948
sg9
F0.0422
sg10
S'blues'
p1466
sg12
F0.0423
sg13
VCorey Harris
p1467
sg15
I9999
sg16
F0.642
sg17
Nsg18
I0
sg19
Nsg20
Nsg21
F0.33983383231667197
sg22
F0.331
sg23
Nsg24
Nsg25
F0.000295
ssg26
I01
sg27
I01
sba(iSong
Song
p1468
(dp1469
g3
(dp1470
g5
F0.962
sg6
VPray For Rain
p1471
sg8
F0.617312
sg9
F0.0863
sg10
S'blues'
p1472
sg12
F0.0357
sg13
VWalter Trout
p1473
sg15
I9999
sg16
F0.425
sg17
Nsg18
F0.7472833333333334
sg19
Nsg20
Nsg21
F0.33983383231667197
sg22
F0.362
sg23
Nsg24
Nsg25
F0.00615
ssg26
I01
sg27
I01
sba(iSong
Song
p1474
(dp1475
g3
(dp1476
g5
F0.9
sg6
VI'm So Lonely
p1477
sg8
F0.7102200000000001
sg9
F0.0488
sg10
S'blues'
p1478
sg12
F0.0491
sg13
VThe Holmes Brothers
p1479
sg15
I9999
sg16
F0.472
sg17
Nsg18
F0.67275
sg19
Nsg20
Nsg21
F0.33983383231667197
sg22
F0.166
sg23
Nsg24
Nsg25
F0.00799
ssg26
I01
sg27
I01
sba(iSong
Song
p1480
(dp1481
g3
(dp1482
g5
F0.511
sg6
VDeath Row
p1483
sg8
F0.565984
sg9
F0.596
sg10
S'blues'
p1484
sg12
F0.0288
sg13
VMike Zito
p1485
sg15
I9999
sg16
F0.714
sg17
Nsg18
F0.8618666666666667
sg19
Nsg20
Nsg21
F0.33983383231667197
sg22
F0.665
sg23
Nsg24
Nsg25
F0.00718
ssg26
I01
sg27
I01
sba(iSong
Song
p1486
(dp1487
g3
(dp1488
g5
F0.75
sg6
VRatchet Blues
p1489
sg8
F0.371828
sg9
F0.668
sg10
S'blues'
p1490
sg12
F0.0734
sg13
VEric Sardinas
p1491
sg15
I9999
sg16
F0.709
sg17
Nsg18
F0.8998666666666666
sg19
Nsg20
Nsg21
F0.33983383231667197
sg22
F0.873
sg23
Nsg24
Nsg25
I0
ssg26
I01
sg27
I01
sba(iSong
Song
p1492
(dp1493
g3
(dp1494
g5
F0.964
sg6
VCoffee Blues
p1495
sg8
F0.416932
sg9
F0.0785
sg10
S'blues'
p1496
sg12
F0.0503
sg13
VMississippi John Hurt
p1497
sg15
I9999
sg16
F0.61
sg17
Nsg18
F0.6576166666666666
sg19
Nsg20
Nsg21
F0.33983383231667197
sg22
F0.763
sg23
Nsg24
Nsg25
F0.00014
ssg26
I01
sg27
I01
sba(iSong
Song
p1498
(dp1499
g3
(dp1500
g5
F0.694
sg6
VWhat They Say
p1501
sg8
F0.333092
sg9
F0.574
sg10
S'blues'
p1502
sg12
F0.0322
sg13
VChris Smither
p1503
sg15
I9999
sg16
F0.57
sg17
Nsg18
F0.8927999999999999
sg19
Nsg20
Nsg21
F0.33983383231667197
sg22
F0.963
sg23
Nsg24
Nsg25
F3.02e-06
ssg26
I01
sg27
I01
sba(iSong
Song
p1504
(dp1505
g3
(dp1506
g5
F0.869
sg6
VLiving With The Blues
p1507
sg8
F0.447548
sg9
F0.11
sg10
S'blues'
p1508
sg12
F0.16
sg13
VHans Theessink
p1509
sg15
I9999
sg16
F0.774
sg17
Nsg18
F0.6845333333333333
sg19
Nsg20
Nsg21
F0.33983383231667197
sg22
F0.383
sg23
Nsg24
Nsg25
F9.27e-05
ssg26
I01
sg27
I01
sba(iSong
Song
p1510
(dp1511
g3
(dp1512
g5
F0.925
sg6
VOutside In
p1513
sg8
F0.31924
sg9
F0.307
sg10
S'blues'
p1514
sg12
F0.0342
sg13
VChris Smither
p1515
sg15
I9999
sg16
F0.485
sg17
Nsg18
F0.7885000000000001
sg19
Nsg20
Nsg21
F0.33983383231667197
sg22
F0.437
sg23
Nsg24
Nsg25
F0.015
ssg26
I01
sg27
I01
sba(iSong
Song
p1516
(dp1517
g3
(dp1518
g5
F0.968
sg6
VTurtle Beach
p1519
sg8
F0.382656
sg9
F0.141
sg10
S'blues'
p1520
sg12
F0.0325
sg13
VEric Von Schmidt
p1521
sg15
I9999
sg16
F0.535
sg17
Nsg18
F0.7238666666666667
sg19
Nsg20
Nsg21
F0.33983383231667197
sg22
F0.536
sg23
Nsg24
Nsg25
F0.0738
ssg26
I01
sg27
I01
sba(iSong
Song
p1522
(dp1523
g3
(dp1524
g5
F0.805
sg6
VLife By The Drop
p1525
sg8
F0.38385199999999997
sg9
F0.204
sg10
S'blues'
p1526
sg12
F0.0358
sg13
VStevie Ray Vaughan
p1527
sg15
I9999
sg16
F0.663
sg17
Nsg18
F0.83465
sg19
Nsg20
Nsg21
F0.33983383231667197
sg22
F0.52
sg23
Nsg24
Nsg25
F1.42e-05
ssg26
I01
sg27
I01
sba(iSong
Song
p1528
(dp1529
g3
(dp1530
g5
F0.813
sg6
VGuitar & Harmonica Rag
p1531
sg8
F0.458672
sg9
F0.314
sg10
S'blues'
p1532
sg12
F0.0718
sg13
VBowling Green John Cephas
p1533
sg15
I9999
sg16
F0.724
sg17
Nsg18
F0.81855
sg19
Nsg20
Nsg21
F0.33983383231667197
sg22
F0.877
sg23
Nsg24
Nsg25
F0.937
ssg26
I01
sg27
I01
sba(iSong
Song
p1534
(dp1535
g3
(dp1536
g5
F0.581
sg6
VYou'll All Get What's Coming To You
p1537
sg8
F0.468792
sg9
F0.531
sg10
S'blues'
p1538
sg12
F0.0325
sg13
VDan Arborise
p1539
sg15
I9999
sg16
F0.467
sg17
Nsg18
F0.8492166666666667
sg19
Nsg20
Nsg21
F0.33983383231667197
sg22
F0.232
sg23
Nsg24
Nsg25
F0.0299
ssg26
I01
sg27
I01
sba(iSong
Song
p1540
(dp1541
g3
(dp1542
g5
F0.824
sg6
VAlabama Blues
p1543
sg8
F0.389784
sg9
F0.308
sg10
S'blues'
p1544
sg12
F0.0348
sg13
VJ.B. Lenoir
p1545
sg15
I9999
sg16
F0.675
sg17
Nsg18
F0.8653166666666666
sg19
Nsg20
Nsg21
F0.33983383231667197
sg22
F0.69
sg23
Nsg24
Nsg25
F3.75e-05
ssg26
I01
sg27
I01
sba(iSong
Song
p1546
(dp1547
g3
(dp1548
g5
F0.962
sg6
VJohnny law
p1549
sg8
F0.431012
sg9
F0.322
sg10
S'blues'
p1550
sg12
F0.06
sg13
VWilliam Elliott Whitmore
p1551
sg15
I9999
sg16
F0.687
sg17
Nsg18
F0.7830833333333334
sg19
Nsg20
Nsg21
F0.33983383231667197
sg22
F0.312
sg23
Nsg24
Nsg25
I0
ssg26
I01
sg27
I01
sba(iSong
Song
p1552
(dp1553
g3
(dp1554
g5
F0.54
sg6
VPay Day
p1555
sg8
F0.360196
sg9
F0.678
sg10
S'blues'
p1556
sg12
F0.0279
sg13
VThe Blues Preachers
p1557
sg15
I9999
sg16
F0.629
sg17
Nsg18
F0.9026833333333334
sg19
Nsg20
Nsg21
F0.33983383231667197
sg22
F0.0635
sg23
Nsg24
Nsg25
F5.37e-05
ssg26
I01
sg27
I01
sba(iSong
Song
p1558
(dp1559
g3
(dp1560
g5
F0.673
sg6
VGood Morning Little Schoolgirl
p1561
sg8
F0.421828
sg9
F0.435
sg10
S'blues'
p1562
sg12
F0.0343
sg13
VMississippi Fred McDowell
p1563
sg15
I9999
sg16
F0.511
sg17
Nsg18
F0.7551833333333333
sg19
Nsg20
Nsg21
F0.33983383231667197
sg22
F0.601
sg23
Nsg24
Nsg25
F0.00552
ssg26
I01
sg27
I01
sba(iSong
Song
p1564
(dp1565
g3
(dp1566
g5
F0.93
sg6
VCross Road Blues
p1567
sg8
F0.38863600000000004
sg9
F0.311
sg10
S'blues'
p1568
sg12
F0.0525
sg13
VRobert Johnson
p1569
sg15
I9999
sg16
F0.675
sg17
Nsg18
F0.8006833333333333
sg19
Nsg20
Nsg21
F0.33983383231667197
sg22
F0.638
sg23
Nsg24
Nsg25
F0.000261
ssg26
I01
sg27
I01
sba(iSong
Song
p1570
(dp1571
g3
(dp1572
g5
F0.876
sg6
VDeep River Blues
p1573
sg8
F0.374876
sg9
F0.157
sg10
S'blues'
p1574
sg12
F0.0354
sg13
VDoc Watson
p1575
sg15
I9999
sg16
F0.516
sg17
Nsg18
F0.6797833333333333
sg19
Nsg20
Nsg21
F0.33983383231667197
sg22
F0.783
sg23
Nsg24
Nsg25
F1.42e-05
ssg26
I01
sg27
I01
sba(iSong
Song
p1576
(dp1577
g3
(dp1578
g5
F0.708
sg6
VSpoonful
p1579
sg8
F0.476432
sg9
F0.466
sg10
S'blues'
p1580
sg12
F0.0426
sg13
VHowlin' Wolf
p1581
sg15
I9999
sg16
F0.854
sg17
Nsg18
F0.85005
sg19
Nsg20
Nsg21
F0.33983383231667197
sg22
F0.634
sg23
Nsg24
Nsg25
F0.000267
ssg26
I01
sg27
I01
sba(iSong
Song
p1582
(dp1583
g3
(dp1584
g5
F0.284
sg6
VI'm A Man - Single Version
p1585
sg8
F0.509988
sg9
F0.54
sg10
S'blues'
p1586
sg12
F0.0462
sg13
VBo Diddley
p1587
sg15
I9999
sg16
F0.617
sg17
Nsg18
F0.7751
sg19
Nsg20
Nsg21
F0.33983383231667197
sg22
F0.86
sg23
Nsg24
Nsg25
I0
ssg26
I01
sg27
I01
sba(iSong
Song
p1588
(dp1589
g3
(dp1590
g5
F0.841
sg6
VMannish Boy
p1591
sg8
F0.45411599999999996
sg9
F0.666
sg10
S'blues'
p1592
sg12
F0.145
sg13
VMuddy Waters
p1593
sg15
I9999
sg16
F0.567
sg17
Nsg18
F0.8557
sg19
Nsg20
Nsg21
F0.33983383231667197
sg22
F0.768
sg23
Nsg24
Nsg25
F2.53e-05
ssg26
I01
sg27
I01
sba(iSong
Song
p1594
(dp1595
g3
(dp1596
g5
F0.678
sg6
VHelp Me
p1597
sg8
F0.45612
sg9
F0.43
sg10
S'blues'
p1598
sg12
F0.0525
sg13
VSonny Boy Williamson II
p1599
sg15
I9999
sg16
F0.717
sg17
Nsg18
F0.8255166666666667
sg19
Nsg20
Nsg21
F0.33983383231667197
sg22
F0.8
sg23
Nsg24
Nsg25
F0.106
ssg26
I01
sg27
I01
sba(iSong
Song
p1600
(dp1601
g3
(dp1602
g5
F0.97
sg6
VI Can't Quit You Baby
p1603
sg8
F0.347808
sg9
F0.596
sg10
S'blues'
p1604
sg12
F0.0395
sg13
VOtis Rush
p1605
sg15
I9999
sg16
F0.492
sg17
Nsg18
F0.9327000000000001
sg19
Nsg20
Nsg21
F0.33983383231667197
sg22
F0.548
sg23
Nsg24
Nsg25
F0.043
ssg26
I01
sg27
I01
sba(iSong
Song
p1606
(dp1607
g3
(dp1608
g5
F0.773
sg6
VMonday Morning Blues - Live
p1609
sg8
F0.365788
sg9
F0.413
sg10
S'blues'
p1610
sg12
F0.13
sg13
VMississippi John Hurt
p1611
sg15
I9999
sg16
F0.679
sg17
Nsg18
F0.7239
sg19
Nsg20
Nsg21
F0.33983383231667197
sg22
F0.538
sg23
Nsg24
Nsg25
F0.000183
ssg26
I01
sg27
I01
sba(iSong
Song
p1612
(dp1613
g3
(dp1614
g5
F0.949
sg6
VThree O'Clock Blues
p1615
sg8
F0.28304
sg9
F0.461
sg10
S'blues'
p1616
sg12
F0.0357
sg13
VB.B. King
p1617
sg15
I9999
sg16
F0.521
sg17
Nsg18
F0.8785166666666666
sg19
Nsg20
Nsg21
F0.33983383231667197
sg22
F0.583
sg23
Nsg24
Nsg25
F0.00161
ssg26
I01
sg27
I01
sba(iSong
Song
p1618
(dp1619
g3
(dp1620
g5
F0.971
sg6
VFive Long Years - Live
p1621
sg8
F0.31020400000000004
sg9
F0.592
sg10
S'blues'
p1622
sg12
F0.874
sg13
VEddie Boyd
p1623
sg15
I9999
sg16
F0.594
sg17
Nsg18
F0.8015333333333333
sg19
Nsg20
Nsg21
F0.33983383231667197
sg22
F0.842
sg23
Nsg24
Nsg25
F0.112
ssg26
I01
sg27
I01
sba(iSong
Song
p1624
(dp1625
g3
(dp1626
g5
F0.0155
sg6
VHave A Good Time
p1627
sg8
F0.624928
sg9
F0.597
sg10
S'blues'
p1628
sg12
F0.289
sg13
VBig Walter Horton
p1629
sg15
I9999
sg16
F0.641
sg17
Nsg18
F0.7546999999999999
sg19
Nsg20
Nsg21
F0.33983383231667197
sg22
F0.89
sg23
Nsg24
Nsg25
F0.00218
ssg26
I01
sg27
I01
sba(iSong
Song
p1630
(dp1631
g3
(dp1632
g5
F0.656
sg6
VMojo Hand
p1633
sg8
F0.588032
sg9
F0.56
sg10
S'blues'
p1634
sg12
F0.147
sg13
VLightnin' Hopkins
p1635
sg15
I9999
sg16
F0.567
sg17
Nsg18
F0.8607333333333334
sg19
Nsg20
Nsg21
F0.33983383231667197
sg22
F0.766
sg23
Nsg24
Nsg25
F0.000102
ssg26
I01
sg27
I01
sba(iSong
Song
p1636
(dp1637
g3
(dp1638
g5
F0.93
sg6
VCross Road Blues
p1639
sg8
F0.38863600000000004
sg9
F0.311
sg10
S'blues'
p1640
sg12
F0.0525
sg13
VRobert Johnson
p1641
sg15
I9999
sg16
F0.675
sg17
Nsg18
F0.8006833333333333
sg19
Nsg20
Nsg21
F0.33983383231667197
sg22
F0.638
sg23
Nsg24
Nsg25
F0.000261
ssg26
I01
sg27
I01
sba(iSong
Song
p1642
(dp1643
g3
(dp1644
g5
F0.0984
sg6
VSnatch It Back And Hold It
p1645
sg8
F0.546852
sg9
F0.408
sg10
S'blues'
p1646
sg12
F0.167
sg13
VJunior Wells
p1647
sg15
I9999
sg16
F0.765
sg17
Nsg18
F0.7820166666666667
sg19
Nsg20
Nsg21
F0.33983383231667197
sg22
F0.891
sg23
Nsg24
Nsg25
I0
ssg26
I01
sg27
I01
sba(iSong
Song
p1648
(dp1649
g3
(dp1650
g5
F0.769
sg6
VWalkin' Thru The Park
p1651
sg8
F0.5364479999999999
sg9
F0.686
sg10
S'blues'
p1652
sg12
F0.0545
sg13
VMuddy Waters
p1653
sg15
I9999
sg16
F0.678
sg17
Nsg18
F0.9026333333333334
sg19
Nsg20
Nsg21
F0.33983383231667197
sg22
F0.799
sg23
Nsg24
Nsg25
F0.000712
ssg26
I01
sg27
I01
sba(iSong
Song
p1654
(dp1655
g3
(dp1656
g5
F0.91
sg6
VI Got The Cross The River Jordan
p1657
sg8
F0.309584
sg9
F0.177
sg10
S'blues'
p1658
sg12
F0.0447
sg13
VBlind Willie McTell
p1659
sg15
I9999
sg16
F0.538
sg17
Nsg18
F0.7640333333333333
sg19
Nsg20
Nsg21
F0.33983383231667197
sg22
F0.415
sg23
Nsg24
Nsg25
F0.00825
ssg26
I01
sg27
I01
sba(iSong
Song
p1660
(dp1661
g3
(dp1662
g5
F0.685
sg6
VGet Back
p1663
sg8
F0.491584
sg9
F0.0995
sg10
S'blues'
p1664
sg12
F0.047
sg13
VBig Bill Broonzy
p1665
sg15
I9999
sg16
F0.846
sg17
Nsg18
F0.75335
sg19
Nsg20
Nsg21
F0.33983383231667197
sg22
F0.526
sg23
Nsg24
Nsg25
I0
ssg26
I01
sg27
I01
sba(iSong
Song
p1666
(dp1667
g3
(dp1668
g5
F0.892
sg6
VReconsider Baby - Single Version
p1669
sg8
F0.377828
sg9
F0.643
sg10
S'blues'
p1670
sg12
F0.0673
sg13
VLowell Fulson
p1671
sg15
I9999
sg16
F0.659
sg17
Nsg18
F0.8670166666666667
sg19
Nsg20
Nsg21
F0.33983383231667197
sg22
F0.659
sg23
Nsg24
Nsg25
F0.103
ssg26
I01
sg27
I01
sba(iSong
Song
p1672
(dp1673
g3
(dp1674
g5
F0.442
sg6
VHoodoo Man Blues
p1675
sg8
F0.415696
sg9
F0.324
sg10
S'blues'
p1676
sg12
F0.332
sg13
VJunior Wells
p1677
sg15
I9999
sg16
F0.708
sg17
Nsg18
F0.7792166666666667
sg19
Nsg20
Nsg21
F0.33983383231667197
sg22
F0.638
sg23
Nsg24
Nsg25
F0.000147
ssg26
I01
sg27
I01
sba(iSong
Song
p1678
(dp1679
g3
(dp1680
g5
F0.805
sg6
VT-Bone Blues
p1681
sg8
F0.30731200000000003
sg9
F0.283
sg10
S'blues'
p1682
sg12
F0.0527
sg13
VT-Bone Walker
p1683
sg15
I9999
sg16
F0.541
sg17
Nsg18
F0.77235
sg19
Nsg20
Nsg21
F0.33983383231667197
sg22
F0.564
sg23
Nsg24
Nsg25
F0.0367
ssg26
I01
sg27
I01
sba(iSong
Song
p1684
(dp1685
g3
(dp1686
g5
F0.862
sg6
VLonesome
p1687
sg8
F0.635884
sg9
F0.749
sg10
S'blues'
p1688
sg12
F0.086
sg13
VMemphis Slim
p1689
sg15
I9999
sg16
F0.622
sg17
Nsg18
F0.9330999999999999
sg19
Nsg20
Nsg21
F0.33983383231667197
sg22
F0.854
sg23
Nsg24
Nsg25
F0.00514
ssg26
I01
sg27
I01
sba(iSong
Song
p1690
(dp1691
g3
(dp1692
g5
F0.0226
sg6
VThe Sky Is Crying
p1693
sg8
F0.7127640000000001
sg9
F0.611
sg10
S'blues'
p1694
sg12
F0.0348
sg13
VElmore James
p1695
sg15
I9999
sg16
F0.294
sg17
Nsg18
F0.8955333333333333
sg19
Nsg20
Nsg21
F0.33983383231667197
sg22
F0.567
sg23
Nsg24
Nsg25
F0.435
ssg26
I01
sg27
I01
sba(iSong
Song
p1696
(dp1697
g3
(dp1698
g5
F0.516
sg6
VI'm In The Mood - Single Version
p1699
sg8
F0.802
sg9
F0.302
sg10
S'blues'
p1700
sg12
F0.0493
sg13
VJohn Lee Hooker
p1701
sg15
I9999
sg16
F0.602
sg17
Nsg18
F0.7849166666666666
sg19
Nsg20
Nsg21
F0.33983383231667197
sg22
F0.724
sg23
Nsg24
Nsg25
F0.00291
ssg26
I01
sg27
I01
sba(iSong
Song
p1702
(dp1703
g3
(dp1704
g5
F0.968
sg6
VDark Was the Night, Cold Was the Ground
p1705
sg8
F0.464468
sg9
F0.0406
sg10
S'blues'
p1706
sg12
F0.044
sg13
VBlind Willie Johnson
p1707
sg15
I9999
sg16
F0.394
sg17
Nsg18
F0.6136833333333332
sg19
Nsg20
Nsg21
F0.33983383231667197
sg22
F0.2
sg23
Nsg24
Nsg25
F0.0453
ssg26
I01
sg27
I01
sba(iSong
Song
p1708
(dp1709
g3
(dp1710
g5
F0.887
sg6
VWhen You Get Home, Write Me a Few Little Lines
p1711
sg8
F0.452772
sg9
F0.383
sg10
S'blues'
p1712
sg12
F0.0314
sg13
VMississippi Fred McDowell
p1713
sg15
I9999
sg16
F0.483
sg17
Nsg18
F0.7716333333333334
sg19
Nsg20
Nsg21
F0.33983383231667197
sg22
F0.51
sg23
Nsg24
Nsg25
F0.0977
ssg26
I01
sg27
I01
sba(iSong
Song
p1714
(dp1715
g3
(dp1716
g5
F0.992
sg6
VBlack Betty
p1717
sg8
F0.41714
sg9
F0.128
sg10
S'blues'
p1718
sg12
F0.433
sg13
VLead Belly
p1719
sg15
I9999
sg16
F0.708
sg17
Nsg18
F0.7387
sg19
Nsg20
Nsg21
F0.33983383231667197
sg22
F0.194
sg23
Nsg24
Nsg25
F0.000594
ssg26
I01
sg27
I01
sba(iSong
Song
p1720
(dp1721
g3
(dp1722
g5
F0.18
sg6
VBo Diddley
p1723
sg8
F0.422752
sg9
F0.737
sg10
S'blues'
p1724
sg12
F0.0481
sg13
VBo Diddley
p1725
sg15
I9999
sg16
F0.814
sg17
Nsg18
F0.8183333333333334
sg19
Nsg20
Nsg21
F0.33983383231667197
sg22
F0.55
sg23
Nsg24
Nsg25
I0
ssg26
I01
sg27
I01
sba(iSong
Song
p1726
(dp1727
g3
(dp1728
g5
F0.856
sg6
VJunker's Blues
p1729
sg8
F0.413008
sg9
F0.155
sg10
S'blues'
p1730
sg12
F0.112
sg13
VChampion Jack Dupree
p1731
sg15
I9999
sg16
F0.779
sg17
Nsg18
F0.6405
sg19
Nsg20
Nsg21
F0.33983383231667197
sg22
F0.696
sg23
Nsg24
Nsg25
F7.82e-06
ssg26
I01
sg27
I01
sba(iSong
Song
p1732
(dp1733
g3
(dp1734
g5
F0.982
sg6
VDown The Dirt Road Blues
p1735
sg8
F0.476372
sg9
F0.0536
sg10
S'blues'
p1736
sg12
F0.0453
sg13
VCharley Patton
p1737
sg15
I9999
sg16
F0.494
sg17
Nsg18
F0.6486166666666667
sg19
Nsg20
Nsg21
F0.33983383231667197
sg22
F0.612
sg23
Nsg24
Nsg25
F0.00081
ssg26
I01
sg27
I01
sba(iSong
Song
p1738
(dp1739
g3
(dp1740
g5
F0.867
sg6
VBobby Sox Blues
p1741
sg8
F0.44429599999999997
sg9
F0.0883
sg10
S'blues'
p1742
sg12
F0.0704
sg13
VT-Bone Walker
p1743
sg15
I9999
sg16
F0.627
sg17
Nsg18
F0.7704500000000001
sg19
Nsg20
Nsg21
F0.33983383231667197
sg22
F0.406
sg23
Nsg24
Nsg25
F0.000165
ssg26
I01
sg27
I01
sba(iSong
Song
p1744
(dp1745
g3
(dp1746
g5
F0.898
sg6
VMy Babe
p1747
sg8
F0.6340119999999999
sg9
F0.258
sg10
S'blues'
p1748
sg12
F0.061
sg13
VLittle Walter
p1749
sg15
I9999
sg16
F0.71
sg17
Nsg18
F0.7730333333333334
sg19
Nsg20
Nsg21
F0.33983383231667197
sg22
F0.923
sg23
Nsg24
Nsg25
I0
ssg26
I01
sg27
I01
sba(iSong
Song
p1750
(dp1751
g3
(dp1752
g5
F0.865
sg6
VDeath Letter Blues
p1753
sg8
F0.46274
sg9
F0.288
sg10
S'blues'
p1754
sg12
F0.0629
sg13
VSon House
p1755
sg15
I9999
sg16
F0.803
sg17
Nsg18
F0.7430333333333333
sg19
Nsg20
Nsg21
F0.33983383231667197
sg22
F0.865
sg23
Nsg24
Nsg25
F0.0593
ssg26
I01
sg27
I01
sba(iSong
Song
p1756
(dp1757
g3
(dp1758
g5
F0.947
sg6
VBaby What You Want Me To Do
p1759
sg8
F0.377152
sg9
F0.302
sg10
S'blues'
p1760
sg12
F0.0353
sg13
VJimmy Reed
p1761
sg15
I9999
sg16
F0.582
sg17
Nsg18
F0.8062666666666666
sg19
Nsg20
Nsg21
F0.33983383231667197
sg22
F0.642
sg23
Nsg24
Nsg25
F0.0107
ssg26
I01
sg27
I01
sba(iSong
Song
p1762
(dp1763
g3
(dp1764
g5
F0.989
sg6
VSouthern Can Is Mine
p1765
sg8
F0.43902800000000003
sg9
F0.275
sg10
S'blues'
p1766
sg12
F0.191
sg13
VBlind Sammie a.k.a. Blind Willie McTell
p1767
sg15
I9999
sg16
F0.716
sg17
Nsg18
F0.7944
sg19
Nsg20
Nsg21
F0.33983383231667197
sg22
F0.878
sg23
Nsg24
Nsg25
F0.018
ssg26
I01
sg27
I01
sba(iSong
Song
p1768
(dp1769
g3
(dp1770
g5
F0.147
sg6
VShe's a Sweet One
p1771
sg8
F0.49119999999999997
sg9
F0.579
sg10
S'blues'
p1772
sg12
F0.0581
sg13
VJunior Wells
p1773
sg15
I9999
sg16
F0.688
sg17
Nsg18
F0.84765
sg19
Nsg20
Nsg21
F0.33983383231667197
sg22
F0.676
sg23
Nsg24
Nsg25
F0.0174
ssg26
I01
sg27
I01
sba(iSong
Song
p1774
(dp1775
g3
(dp1776
g5
F0.964
sg6
VCoffee Blues
p1777
sg8
F0.416932
sg9
F0.0785
sg10
S'blues'
p1778
sg12
F0.0503
sg13
VMississippi John Hurt
p1779
sg15
I9999
sg16
F0.61
sg17
Nsg18
F0.6576166666666666
sg19
Nsg20
Nsg21
F0.33983383231667197
sg22
F0.763
sg23
Nsg24
Nsg25
F0.00014
ssg26
I01
sg27
I01
sba(iSong
Song
p1780
(dp1781
g3
(dp1782
g5
F0.799
sg6
VSmokestack Lightnin'
p1783
sg8
F0.5845520000000001
sg9
F0.502
sg10
S'blues'
p1784
sg12
F0.0401
sg13
VHowlin' Wolf
p1785
sg15
I9999
sg16
F0.683
sg17
Nsg18
F0.8528333333333333
sg19
Nsg20
Nsg21
F0.33983383231667197
sg22
F0.5
sg23
Nsg24
Nsg25
F0.000116
ssg26
I01
sg27
I01
sba(iSong
Song
p1786
(dp1787
g3
(dp1788
g5
F0.899
sg6
VYou Got To Move
p1789
sg8
F0.32424000000000003
sg9
F0.185
sg10
S'blues'
p1790
sg12
F0.0631
sg13
VMississippi Fred McDowell
p1791
sg15
I9999
sg16
F0.66
sg17
Nsg18
F0.7101000000000001
sg19
Nsg20
Nsg21
F0.33983383231667197
sg22
F0.507
sg23
Nsg24
Nsg25
F0.00875
ssg26
I01
sg27
I01
sba(iSong
Song
p1792
(dp1793
g3
(dp1794
g5
F0.843
sg6
VAll Your Love
p1795
sg8
F0.322492
sg9
F0.7
sg10
S'blues'
p1796
sg12
F0.163
sg13
VMagic Sam
p1797
sg15
I9999
sg16
F0.433
sg17
Nsg18
F0.8633833333333333
sg19
Nsg20
Nsg21
F0.33983383231667197
sg22
F0.8
sg23
Nsg24
Nsg25
F0.324
ssg26
I01
sg27
I01
sba(iSong
Song
p1798
(dp1799
g3
(dp1800
g5
F0.805
sg6
VJohn the Revelator
p1801
sg8
F0.5179279999999999
sg9
F0.0423
sg10
S'blues'
p1802
sg12
F0.369
sg13
VSon House
p1803
sg15
I9999
sg16
F0.668
sg17
Nsg18
F0.7271000000000001
sg19
Nsg20
Nsg21
F0.33983383231667197
sg22
F0.564
sg23
Nsg24
Nsg25
I0
ssg26
I01
sg27
I01
sba(iSong
Song
p1804
(dp1805
g3
(dp1806
g5
F0.965
sg6
VAwful Dreams
p1807
sg8
F0.74822
sg9
F0.0566
sg10
S'blues'
p1808
sg12
F0.0706
sg13
VLightnin' Hopkins
p1809
sg15
I9999
sg16
F0.527
sg17
Nsg18
F0.6745333333333333
sg19
Nsg20
Nsg21
F0.33983383231667197
sg22
F0.275
sg23
Nsg24
Nsg25
F0.188
ssg26
I01
sg27
I01
sba(iSong
Song
p1810
(dp1811
g3
(dp1812
g5
F0.976
sg6
VMatch Box Blues
p1813
sg8
F0.33107600000000004
sg9
F0.16
sg10
S'blues'
p1814
sg12
F0.0565
sg13
VBlind Lemon Jefferson
p1815
sg15
I9999
sg16
F0.483
sg17
Nsg18
F0.6825
sg19
Nsg20
Nsg21
F0.33983383231667197
sg22
F0.522
sg23
Nsg24
Nsg25
F0.0126
ssg26
I01
sg27
I01
sba(iSong
Song
p1816
(dp1817
g3
(dp1818
g5
F0.247
sg6
VDust My Broom
p1819
sg8
F0.40771199999999996
sg9
F0.664
sg10
S'blues'
p1820
sg12
F0.0354
sg13
VElmore James
p1821
sg15
I9999
sg16
F0.526
sg17
Nsg18
F0.8896666666666667
sg19
Nsg20
Nsg21
F0.33983383231667197
sg22
F0.797
sg23
Nsg24
Nsg25
F0.0124
ssg26
I01
sg27
I01
sba(iSong
Song
p1822
(dp1823
g3
(dp1824
g5
F0.995
sg6
VJohn the Revelator
p1825
sg8
F0.5024
sg9
F0.334
sg10
S'blues'
p1826
sg12
F0.27
sg13
VBlind Willie Johnson
p1827
sg15
I9999
sg16
F0.738
sg17
Nsg18
F0.7837999999999999
sg19
Nsg20
Nsg21
F0.33983383231667197
sg22
F0.503
sg23
Nsg24
Nsg25
F0.0675
ssg26
I01
sg27
I01
sba(iSong
Song
p1828
(dp1829
g3
(dp1830
g5
F0.346
sg6
VBoom Boom
p1831
sg8
F0.6450119999999999
sg9
F0.473
sg10
S'blues'
p1832
sg12
F0.0458
sg13
VJohn Lee Hooker
p1833
sg15
I9999
sg16
F0.469
sg17
Nsg18
F0.7655333333333334
sg19
Nsg20
Nsg21
F0.33983383231667197
sg22
F0.849
sg23
Nsg24
Nsg25
F0.0194
ssg26
I01
sg27
I01
sba(iSong
Song
p1834
(dp1835
g3
(dp1836
g5
F0.979
sg6
VBlue Guitar
p1837
sg8
F0.320928
sg9
F0.459
sg10
S'blues'
p1838
sg12
F0.0357
sg13
VEarl Hooker
p1839
sg15
I9999
sg16
F0.272
sg17
Nsg18
F0.8437666666666667
sg19
Nsg20
Nsg21
F0.33983383231667197
sg22
F0.467
sg23
Nsg24
Nsg25
F0.826
ssg26
I01
sg27
I01
sba(iSong
Song
p1840
(dp1841
g3
(dp1842
g5
F0.436
sg6
VBorn Under A Bad Sign
p1843
sg8
F0.365592
sg9
F0.633
sg10
S'blues'
p1844
sg12
F0.0261
sg13
VAlbert King
p1845
sg15
I9999
sg16
F0.699
sg17
Nsg18
F0.8958499999999999
sg19
Nsg20
Nsg21
F0.33983383231667197
sg22
F0.907
sg23
Nsg24
Nsg25
F9.32e-05
ssg26
I01
sg27
I01
sba(iSong
Song
p1846
(dp1847
g3
(dp1848
g5
F0.44
sg6
VMannish Boy
p1849
sg8
F0.444516
sg9
F0.735
sg10
S'blues'
p1850
sg12
F0.0973
sg13
VMuddy Waters
p1851
sg15
I9999
sg16
F0.598
sg17
Nsg18
F0.8186333333333333
sg19
Nsg20
Nsg21
F0.33983383231667197
sg22
F0.615
sg23
Nsg24
Nsg25
F0.000215
ssg26
I01
sg27
I01
sba(iSong
Song
p1852
(dp1853
g3
(dp1854
g5
F0.799
sg6
VSmokestack Lightnin'
p1855
sg8
F0.5845520000000001
sg9
F0.502
sg10
S'blues'
p1856
sg12
F0.0401
sg13
VHowlin' Wolf
p1857
sg15
I9999
sg16
F0.683
sg17
Nsg18
F0.8528333333333333
sg19
Nsg20
Nsg21
F0.33983383231667197
sg22
F0.5
sg23
Nsg24
Nsg25
F0.000116
ssg26
I01
sg27
I01
sba(iSong
Song
p1858
(dp1859
g3
(dp1860
g5
F0.612
sg6
VBoom Boom
p1861
sg8
F0.634124
sg9
F0.464
sg10
S'blues'
p1862
sg12
F0.0515
sg13
VJohn Lee Hooker
p1863
sg15
I9999
sg16
F0.442
sg17
Nsg18
F0.7646666666666667
sg19
Nsg20
Nsg21
F0.33983383231667197
sg22
F0.944
sg23
Nsg24
Nsg25
F0.00189
ssg26
I01
sg27
I01
sba(iSong
Song
p1864
(dp1865
g3
(dp1866
g5
F0.0719
sg6
VEveryday (I Have The Blues)
p1867
sg8
F0.420856
sg9
F0.628
sg10
S'blues'
p1868
sg12
F0.0347
sg13
VB.B. King
p1869
sg15
I9999
sg16
F0.529
sg17
Nsg18
F0.8402333333333334
sg19
Nsg20
Nsg21
F0.33983383231667197
sg22
F0.67
sg23
Nsg24
Nsg25
F0.00325
ssg26
I01
sg27
I01
sba(iSong
Song
p1870
(dp1871
g3
(dp1872
g5
F0.439
sg6
VFirst Time I Met The Blues - 1960 Single Version
p1873
sg8
F0.399384
sg9
F0.66
sg10
S'blues'
p1874
sg12
F0.0505
sg13
VBuddy Guy
p1875
sg15
I9999
sg16
F0.429
sg17
Nsg18
F0.8829833333333333
sg19
Nsg20
Nsg21
F0.33983383231667197
sg22
F0.692
sg23
Nsg24
Nsg25
F4.51e-05
ssg26
I01
sg27
I01
sba(iSong
Song
p1876
(dp1877
g3
(dp1878
g5
F0.656
sg6
VMojo Hand
p1879
sg8
F0.588032
sg9
F0.56
sg10
S'blues'
p1880
sg12
F0.147
sg13
VLightnin' Hopkins
p1881
sg15
I9999
sg16
F0.567
sg17
Nsg18
F0.8607333333333334
sg19
Nsg20
Nsg21
F0.33983383231667197
sg22
F0.766
sg23
Nsg24
Nsg25
F0.000102
ssg26
I01
sg27
I01
sba(iSong
Song
p1882
(dp1883
g3
(dp1884
g5
F0.661
sg6
VI'd Rather Go Blind
p1885
sg8
F0.326316
sg9
F0.398
sg10
S'blues'
p1886
sg12
F0.0253
sg13
VEtta James
p1887
sg15
I9999
sg16
F0.539
sg17
Nsg18
F0.8914500000000001
sg19
Nsg20
Nsg21
F0.33983383231667197
sg22
F0.588
sg23
Nsg24
Nsg25
F0.000519
ssg26
I01
sg27
I01
sba(iSong
Song
p1888
(dp1889
g3
(dp1890
g5
F0.0115
sg6
VDust My Broom
p1891
sg8
F0.403132
sg9
F0.66
sg10
S'blues'
p1892
sg12
F0.0306
sg13
VElmore James
p1893
sg15
I9999
sg16
F0.507
sg17
Nsg18
F0.9173833333333333
sg19
Nsg20
Nsg21
F0.33983383231667197
sg22
F0.696
sg23
Nsg24
Nsg25
F0.336
ssg26
I01
sg27
I01
sba(iSong
Song
p1894
(dp1895
g3
(dp1896
g5
F0.886
sg6
VMy Babe - Single Version
p1897
sg8
F0.631548
sg9
F0.333
sg10
S'blues'
p1898
sg12
F0.0524
sg13
VLittle Walter
p1899
sg15
I9999
sg16
F0.684
sg17
Nsg18
F0.8252166666666666
sg19
Nsg20
Nsg21
F0.33983383231667197
sg22
F0.833
sg23
Nsg24
Nsg25
I0
ssg26
I01
sg27
I01
sba(iSong
Song
p1900
(dp1901
g3
(dp1902
g5
F0.67
sg6
VI'm Your Hoochie Coochie Man
p1903
sg8
F0.455792
sg9
F0.588
sg10
S'blues'
p1904
sg12
F0.0665
sg13
VMuddy Waters
p1905
sg15
I9999
sg16
F0.542
sg17
Nsg18
F0.8455333333333334
sg19
Nsg20
Nsg21
F0.33983383231667197
sg22
F0.881
sg23
Nsg24
Nsg25
F0.158
ssg26
I01
sg27
I01
sba(iSong
Song
p1906
(dp1907
g3
(dp1908
g5
F0.805
sg6
VJohn the Revelator
p1909
sg8
F0.5179279999999999
sg9
F0.0423
sg10
S'blues'
p1910
sg12
F0.369
sg13
VSon House
p1911
sg15
I9999
sg16
F0.668
sg17
Nsg18
F0.7271000000000001
sg19
Nsg20
Nsg21
F0.33983383231667197
sg22
F0.564
sg23
Nsg24
Nsg25
I0
ssg26
I01
sg27
I01
sba(iSong
Song
p1912
(dp1913
g3
(dp1914
g5
F0.678
sg6
VHelp Me
p1915
sg8
F0.45612
sg9
F0.43
sg10
S'blues'
p1916
sg12
F0.0525
sg13
VSonny Boy Williamson II
p1917
sg15
I9999
sg16
F0.717
sg17
Nsg18
F0.8255166666666667
sg19
Nsg20
Nsg21
F0.33983383231667197
sg22
F0.8
sg23
Nsg24
Nsg25
F0.106
ssg26
I01
sg27
I01
sba(iSong
Song
p1918
(dp1919
g3
(dp1920
g5
F0.231
sg6
VCrosscut Saw
p1921
sg8
F0.48985199999999995
sg9
F0.389
sg10
S'blues'
p1922
sg12
F0.0517
sg13
VAlbert King
p1923
sg15
I9999
sg16
F0.861
sg17
Nsg18
F0.7661833333333334
sg19
Nsg20
Nsg21
F0.33983383231667197
sg22
F0.94
sg23
Nsg24
Nsg25
F0.577
ssg26
I01
sg27
I01
sba(iSong
Song
p1924
(dp1925
g3
(dp1926
g5
F0.805
sg6
VT-Bone Blues
p1927
sg8
F0.30731200000000003
sg9
F0.283
sg10
S'blues'
p1928
sg12
F0.0527
sg13
VT-Bone Walker
p1929
sg15
I9999
sg16
F0.541
sg17
Nsg18
F0.77235
sg19
Nsg20
Nsg21
F0.33983383231667197
sg22
F0.564
sg23
Nsg24
Nsg25
F0.0367
ssg26
I01
sg27
I01
sba(iSong
Song
p1930
(dp1931
g3
(dp1932
g5
F0.101
sg6
VStumble
p1933
sg8
F0.473524
sg9
F0.612
sg10
S'blues'
p1934
sg12
F0.0339
sg13
VFreddie King
p1935
sg15
I9999
sg16
F0.678
sg17
Nsg18
F0.8372666666666667
sg19
Nsg20
Nsg21
F0.33983383231667197
sg22
F0.857
sg23
Nsg24
Nsg25
F0.318
ssg26
I01
sg27
I01
sba(iSong
Song
p1936
(dp1937
g3
(dp1938
g5
F0.442
sg6
VHoodoo Man Blues
p1939
sg8
F0.415696
sg9
F0.324
sg10
S'blues'
p1940
sg12
F0.332
sg13
VJunior Wells
p1941
sg15
I9999
sg16
F0.708
sg17
Nsg18
F0.7792166666666667
sg19
Nsg20
Nsg21
F0.33983383231667197
sg22
F0.638
sg23
Nsg24
Nsg25
F0.000147
ssg26
I01
sg27
I01
sba(iSong
Song
p1942
(dp1943
g3
(dp1944
g5
F0.833
sg6
VI've Got A Woman
p1945
sg8
F0.797492
sg9
F0.61
sg10
S'blues'
p1946
sg12
F0.213
sg13
VRay Charles
p1947
sg15
I9999
sg16
F0.556
sg17
Nsg18
F0.9211833333333334
sg19
Nsg20
Nsg21
F0.33983383231667197
sg22
F0.665
sg23
Nsg24
Nsg25
F2.22e-06
ssg26
I01
sg27
I01
sba(iSong
Song
p1948
(dp1949
g3
(dp1950
g5
F0.708
sg6
VSpoonful
p1951
sg8
F0.476432
sg9
F0.466
sg10
S'blues'
p1952
sg12
F0.0426
sg13
VHowlin' Wolf
p1953
sg15
I9999
sg16
F0.854
sg17
Nsg18
F0.85005
sg19
Nsg20
Nsg21
F0.33983383231667197
sg22
F0.634
sg23
Nsg24
Nsg25
F0.000267
ssg26
I01
sg27
I01
sba(iSong
Song
p1954
(dp1955
g3
(dp1956
g5
F0.416
sg6
VBack Door Man
p1957
sg8
F0.439556
sg9
F0.441
sg10
S'blues'
p1958
sg12
F0.0604
sg13
VWillie Dixon
p1959
sg15
I9999
sg16
F0.8
sg17
Nsg18
F0.7336666666666666
sg19
Nsg20
Nsg21
F0.33983383231667197
sg22
F0.795
sg23
Nsg24
Nsg25
F0.0404
ssg26
I01
sg27
I01
sba(iSong
Song
p1960
(dp1961
g3
(dp1962
g5
F0.492
sg6
VWorking Man
p1963
sg8
F0.41342
sg9
F0.625
sg10
S'blues'
p1964
sg12
F0.0436
sg13
VOtis Rush
p1965
sg15
I9999
sg16
F0.633
sg17
Nsg18
F0.8174833333333333
sg19
Nsg20
Nsg21
F0.33983383231667197
sg22
F0.841
sg23
Nsg24
Nsg25
F0.000418
ssg26
I01
sg27
I01
sba(iSong
Song
p1966
(dp1967
g3
(dp1968
g5
F0.284
sg6
VI'm A Man - Single Version
p1969
sg8
F0.509988
sg9
F0.54
sg10
S'blues'
p1970
sg12
F0.0462
sg13
VBo Diddley
p1971
sg15
I9999
sg16
F0.617
sg17
Nsg18
F0.7751
sg19
Nsg20
Nsg21
F0.33983383231667197
sg22
F0.86
sg23
Nsg24
Nsg25
I0
ssg26
I01
sg27
I01
sba(iSong
Song
p1972
(dp1973
g3
(dp1974
g5
F0.944
sg6
VSomeday (Electric)
p1975
sg8
F0.376788
sg9
F0.333
sg10
S'blues'
p1976
sg12
F0.032
sg13
VOtis Spann
p1977
sg15
I9999
sg16
F0.581
sg17
Nsg18
F0.7631833333333333
sg19
Nsg20
Nsg21
F0.33983383231667197
sg22
F0.488
sg23
Nsg24
Nsg25
F0.472
ssg26
I01
sg27
I01
sba(iSong
Song
p1978
(dp1979
g3
(dp1980
g5
F0.545
sg6
VCall It Stormy Monday
p1981
sg8
F0.403916
sg9
F0.301
sg10
S'blues'
p1982
sg12
F0.0423
sg13
VT-Bone Walker
p1983
sg15
I9999
sg16
F0.606
sg17
Nsg18
F0.8099666666666666
sg19
Nsg20
Nsg21
F0.33983383231667197
sg22
F0.457
sg23
Nsg24
Nsg25
F0.00194
ssg26
I01
sg27
I01
sba(iSong
Song
p1984
(dp1985
g3
(dp1986
g5
F0.0226
sg6
VThe Sky Is Crying
p1987
sg8
F0.7127640000000001
sg9
F0.611
sg10
S'blues'
p1988
sg12
F0.0348
sg13
VElmore James
p1989
sg15
I9999
sg16
F0.294
sg17
Nsg18
F0.8955333333333333
sg19
Nsg20
Nsg21
F0.33983383231667197
sg22
F0.567
sg23
Nsg24
Nsg25
F0.435
ssg26
I01
sg27
I01
sba(iSong
Song
p1990
(dp1991
g3
(dp1992
g5
F0.225
sg6
VNo Angels
p1993
sg8
F0.526608
sg9
F0.655
sg10
S'blues'
p1994
sg12
F0.0837
sg13
VSamantha Fish
p1995
sg15
I9999
sg16
F0.635
sg17
Nsg18
F0.8444
sg19
Nsg20
Nsg21
F0.33983383231667197
sg22
F0.373
sg23
Nsg24
Nsg25
F0.00149
ssg26
I01
sg27
I01
sba(iSong
Song
p1996
(dp1997
g3
(dp1998
g5
F0.0791
sg6
VWe're All In This Together (feat. Joe Bonamassa)
p1999
sg8
F0.440836
sg9
F0.858
sg10
S'blues'
p2000
sg12
F0.065
sg13
VWalter Trout
p2001
sg15
I9999
sg16
F0.372
sg17
Nsg18
F0.9263333333333333
sg19
Nsg20
Nsg21
F0.33983383231667197
sg22
F0.612
sg23
Nsg24
Nsg25
F0.342
ssg26
I01
sg27
I01
sba(iSong
Song
p2002
(dp2003
g3
(dp2004
g5
F0.00726
sg6
VWhat Would You Do
p2005
sg8
F0.392144
sg9
F0.702
sg10
S'blues'
p2006
sg12
F0.0354
sg13
VLaurence Jones
p2007
sg15
I9999
sg16
F0.709
sg17
Nsg18
F0.9071333333333332
sg19
Nsg20
Nsg21
F0.33983383231667197
sg22
F0.573
sg23
Nsg24
Nsg25
F1.5e-06
ssg26
I01
sg27
I01
sba(iSong
Song
p2008
(dp2009
g3
(dp2010
g5
F0.11
sg6
VHeadful of Blues
p2011
sg8
F0.592248
sg9
F0.521
sg10
S'blues'
p2012
sg12
F0.0325
sg13
VSnowy White
p2013
sg15
I9999
sg16
F0.595
sg17
Nsg18
F0.8576
sg19
Nsg20
Nsg21
F0.33983383231667197
sg22
F0.66
sg23
Nsg24
Nsg25
F0.0369
ssg26
I01
sg27
I01
sba(iSong
Song
p2014
(dp2015
g3
(dp2016
g5
F0.167
sg6
VLet 'Em In
p2017
sg8
F0.34799599999999997
sg9
F0.446
sg10
S'blues'
p2018
sg12
F0.0313
sg13
VThe Bros. Landreth
p2019
sg15
I9999
sg16
F0.768
sg17
Nsg18
F0.8790833333333333
sg19
Nsg20
Nsg21
F0.33983383231667197
sg22
F0.489
sg23
Nsg24
Nsg25
F5.36e-06
ssg26
I01
sg27
I01
sba(iSong
Song
p2020
(dp2021
g3
(dp2022
g5
F0.191
sg6
VDon't Give Up
p2023
sg8
F0.44898000000000005
sg9
F0.693
sg10
S'blues'
p2024
sg12
F0.0392
sg13
VSouthern Avenue
p2025
sg15
I9999
sg16
F0.639
sg17
Nsg18
F0.9241833333333334
sg19
Nsg20
Nsg21
F0.33983383231667197
sg22
F0.537
sg23
Nsg24
Nsg25
F3.18e-05
ssg26
I01
sg27
I01
sba(iSong
Song
p2026
(dp2027
g3
(dp2028
g5
F0.05
sg6
VMs. Molly
p2029
sg8
F0.325724
sg9
F0.786
sg10
S'blues'
p2030
sg12
F0.0809
sg13
VCabinet
p2031
sg15
I9999
sg16
F0.588
sg17
Nsg18
F0.9076166666666666
sg19
Nsg20
Nsg21
F0.33983383231667197
sg22
F0.53
sg23
Nsg24
Nsg25
F0.000134
ssg26
I01
sg27
I01
sba(iSong
Song
p2032
(dp2033
g3
(dp2034
g5
F0.184
sg6
VGood Advice
p2035
sg8
F0.44024
sg9
F0.739
sg10
S'blues'
p2036
sg12
F0.0589
sg13
VJackie Greene
p2037
sg15
I9999
sg16
F0.745
sg17
Nsg18
F0.9269999999999999
sg19
Nsg20
Nsg21
F0.33983383231667197
sg22
F0.753
sg23
Nsg24
Nsg25
F0.0137
ssg26
I01
sg27
I01
sba(iSong
Song
p2038
(dp2039
g3
(dp2040
g5
F0.0515
sg6
VBetrayed Me
p2041
sg8
F0.331852
sg9
F0.718
sg10
S'blues'
p2042
sg12
F0.0294
sg13
VKing King
p2043
sg15
I9999
sg16
F0.535
sg17
Nsg18
F0.8984
sg19
Nsg20
Nsg21
F0.33983383231667197
sg22
F0.531
sg23
Nsg24
Nsg25
F0.0507
ssg26
I01
sg27
I01
sba(iSong
Song
p2044
(dp2045
g3
(dp2046
g5
F0.0474
sg6
VBlues Been Good to Me
p2047
sg8
F0.464168
sg9
F0.79
sg10
S'blues'
p2048
sg12
F0.0391
sg13
VJames Armstrong
p2049
sg15
I9999
sg16
F0.747
sg17
Nsg18
F0.8894833333333333
sg19
Nsg20
Nsg21
F0.33983383231667197
sg22
F0.798
sg23
Nsg24
Nsg25
F0.000183
ssg26
I01
sg27
I01
sba(iSong
Song
p2050
(dp2051
g3
(dp2052
g5
F0.96
sg6
VCome on in My Kitchen
p2053
sg8
F0.32689999999999997
sg9
F0.25
sg10
S'blues'
p2054
sg12
F0.0493
sg13
VLarkin Poe
p2055
sg15
I9999
sg16
F0.531
sg17
Nsg18
F0.8412833333333334
sg19
Nsg20
Nsg21
F0.33983383231667197
sg22
F0.425
sg23
Nsg24
Nsg25
F1.69e-05
ssg26
I01
sg27
I01
sba(iSong
Song
p2056
(dp2057
g3
(dp2058
g5
F0.241
sg6
VLittle Bit
p2059
sg8
F0.336964
sg9
F0.463
sg10
S'blues'
p2060
sg12
F0.0346
sg13
VMavis Staples
p2061
sg15
I9999
sg16
F0.804
sg17
Nsg18
F0.8521166666666667
sg19
Nsg20
Nsg21
F0.33983383231667197
sg22
F0.662
sg23
Nsg24
Nsg25
F0.0167
ssg26
I01
sg27
I01
sba(iSong
Song
p2062
(dp2063
g3
(dp2064
g5
F0.455
sg6
VMake It Move
p2065
sg8
F0.310328
sg9
F0.473
sg10
S'blues'
p2066
sg12
F0.102
sg13
VJonny Lang
p2067
sg15
I9999
sg16
F0.647
sg17
Nsg18
F0.8989333333333334
sg19
Nsg20
Nsg21
F0.33983383231667197
sg22
F0.67
sg23
Nsg24
Nsg25
I0
ssg26
I01
sg27
I01
sba(iSong
Song
p2068
(dp2069
g3
(dp2070
g5
F0.376
sg6
VIf You Believe in Me
p2071
sg8
F0.41192
sg9
F0.577
sg10
S'blues'
p2072
sg12
F0.0264
sg13
VRobin Trower
p2073
sg15
I9999
sg16
F0.678
sg17
Nsg18
F0.8496
sg19
Nsg20
Nsg21
F0.33983383231667197
sg22
F0.27
sg23
Nsg24
Nsg25
F0.00272
ssg26
I01
sg27
I01
sba(iSong
Song
p2074
(dp2075
g3
(dp2076
g5
F0.0334
sg6
VBaby Got Gone
p2077
sg8
F0.39604
sg9
F0.878
sg10
S'blues'
p2078
sg12
F0.032
sg13
VKenny Wayne Shepherd
p2079
sg15
I9999
sg16
F0.576
sg17
Nsg18
F0.91515
sg19
Nsg20
Nsg21
F0.33983383231667197
sg22
F0.764
sg23
Nsg24
Nsg25
I0
ssg26
I01
sg27
I01
sba(iSong
Song
p2080
(dp2081
g3
(dp2082
g5
F0.626
sg6
VNobody Gets Out Alive (From "The Hitman's Bodyguard")
p2083
sg8
F0.420084
sg9
F0.572
sg10
S'blues'
p2084
sg12
F0.0591
sg13
VSamuel L. Jackson
p2085
sg15
I9999
sg16
F0.594
sg17
Nsg18
F0.8780833333333333
sg19
Nsg20
Nsg21
F0.33983383231667197
sg22
F0.779
sg23
Nsg24
Nsg25
I0
ssg26
I01
sg27
I01
sba(iSong
Song
p2086
(dp2087
g3
(dp2088
g5
F0.742
sg6
VMigration Blues
p2089
sg8
F0.6178640000000001
sg9
F0.488
sg10
S'blues'
p2090
sg12
F0.0311
sg13
VEric Bibb
p2091
sg15
I9999
sg16
F0.47
sg17
Nsg18
F0.837
sg19
Nsg20
Nsg21
F0.33983383231667197
sg22
F0.613
sg23
Nsg24
Nsg25
F0.427
ssg26
I01
sg27
I01
sba(iSong
Song
p2092
(dp2093
g3
(dp2094
g5
F0.0068
sg6
VGonna Hurt Like Hell (feat. Kenny Wayne Shepherd)
p2095
sg8
F0.47256
sg9
F0.843
sg10
S'blues'
p2096
sg12
F0.0429
sg13
VWalter Trout
p2097
sg15
I9999
sg16
F0.48
sg17
Nsg18
F0.9057
sg19
Nsg20
Nsg21
F0.33983383231667197
sg22
F0.86
sg23
Nsg24
Nsg25
F0.0507
ssg26
I01
sg27
I01
sba(iSong
Song
p2098
(dp2099
g3
(dp2100
g5
F0.178
sg6
VUnder the Midnight Sun
p2101
sg8
F0.41583600000000004
sg9
F0.544
sg10
S'blues'
p2102
sg12
F0.0281
sg13
VKaren Lovely
p2103
sg15
I9999
sg16
F0.746
sg17
Nsg18
F0.8923166666666666
sg19
Nsg20
Nsg21
F0.33983383231667197
sg22
F0.771
sg23
Nsg24
Nsg25
F0.000594
ssg26
I01
sg27
I01
sba(iSong
Song
p2104
(dp2105
g3
(dp2106
g5
F0.0453
sg6
VStronger Together
p2107
sg8
F0.6281599999999999
sg9
F0.635
sg10
S'blues'
p2108
sg12
F0.154
sg13
VJonny Lang
p2109
sg15
I9999
sg16
F0.685
sg17
Nsg18
F0.8830833333333333
sg19
Nsg20
Nsg21
F0.33983383231667197
sg22
F0.862
sg23
Nsg24
Nsg25
I0
ssg26
I01
sg27
I01
sba(iSong
Song
p2110
(dp2111
g3
(dp2112
g5
F0.528
sg6
VSomeday After a While
p2113
sg8
F0.461852
sg9
F0.588
sg10
S'blues'
p2114
sg12
F0.0378
sg13
VCarl Verheyen
p2115
sg15
I9999
sg16
F0.724
sg17
Nsg18
F0.8981333333333333
sg19
Nsg20
Nsg21
F0.33983383231667197
sg22
F0.447
sg23
Nsg24
Nsg25
F0.00157
ssg26
I01
sg27
I01
sba(iSong
Song
p2116
(dp2117
g3
(dp2118
g5
F0.00358
sg6
VI Can Tell
p2119
sg8
F0.47216
sg9
F0.801
sg10
S'blues'
p2120
sg12
F0.036
sg13
VJaniva Magness
p2121
sg15
I9999
sg16
F0.644
sg17
Nsg18
F0.8963666666666666
sg19
Nsg20
Nsg21
F0.33983383231667197
sg22
F0.913
sg23
Nsg24
Nsg25
F0.000871
ssg26
I01
sg27
I01
sba(iSong
Song
p2122
(dp2123
g3
(dp2124
g5
F0.282
sg6
VAin't Gonna Name Names
p2125
sg8
F0.480252
sg9
F0.736
sg10
S'blues'
p2126
sg12
F0.0546
sg13
VThe Reverend Shawn Amos
p2127
sg15
I9999
sg16
F0.714
sg17
Nsg18
F0.9254166666666667
sg19
Nsg20
Nsg21
F0.33983383231667197
sg22
F0.64
sg23
Nsg24
Nsg25
F0.000173
ssg26
I01
sg27
I01
sba(iSong
Song
p2128
(dp2129
g3
(dp2130
g5
F0.018
sg6
VDown To The Bottom
p2131
sg8
F0.34986
sg9
F0.6
sg10
S'blues'
p2132
sg12
F0.0266
sg13
VDorothy
p2133
sg15
I9999
sg16
F0.608
sg17
Nsg18
F0.9090166666666666
sg19
Nsg20
Nsg21
F0.33983383231667197
sg22
F0.553
sg23
Nsg24
Nsg25
I0
ssg26
I01
sg27
I01
sba(iSong
Song
p2134
(dp2135
g3
(dp2136
g5
F0.825
sg6
VTwelve String Mile
p2137
sg8
F0.359736
sg9
F0.283
sg10
S'blues'
p2138
sg12
F0.0431
sg13
VOtis Taylor
p2139
sg15
I9999
sg16
F0.76
sg17
Nsg18
F0.76365
sg19
Nsg20
Nsg21
F0.33983383231667197
sg22
F0.68
sg23
Nsg24
Nsg25
F0.36
ssg26
I01
sg27
I01
sba(iSong
Song
p2140
(dp2141
g3
(dp2142
g5
F0.449
sg6
VDo You Still See Me At All (feat. Jon Trout)
p2143
sg8
F0.45567599999999997
sg9
F0.788
sg10
S'blues'
p2144
sg12
F0.0442
sg13
VWalter Trout
p2145
sg15
I9999
sg16
F0.466
sg17
Nsg18
F0.9219166666666666
sg19
Nsg20
Nsg21
F0.33983383231667197
sg22
F0.709
sg23
Nsg24
Nsg25
F0.195
ssg26
I01
sg27
I01
sba(iSong
Song
p2146
(dp2147
g3
(dp2148
g5
F0.611
sg6
VSpoonful
p2149
sg8
F0.45114800000000005
sg9
F0.432
sg10
S'blues'
p2150
sg12
F0.0347
sg13
VBenjamin Booker
p2151
sg15
I9999
sg16
F0.789
sg17
Nsg18
F0.8237666666666666
sg19
Nsg20
Nsg21
F0.33983383231667197
sg22
F0.846
sg23
Nsg24
Nsg25
F4.97e-05
ssg26
I01
sg27
I01
sba(iSong
Song
p2152
(dp2153
g3
(dp2154
g5
F0.00124
sg6
VGot Soul
p2155
sg8
F0.479808
sg9
F0.808
sg10
S'blues'
p2156
sg12
F0.0502
sg13
VRobert Randolph & The Family Band
p2157
sg15
I9999
sg16
F0.616
sg17
Nsg18
F0.9249166666666666
sg19
Nsg20
Nsg21
F0.33983383231667197
sg22
F0.531
sg23
Nsg24
Nsg25
F0.000111
ssg26
I01
sg27
I01
sba(iSong
Song
p2158
(dp2159
g3
(dp2160
g5
F0.509
sg6
VCan't Turn Back the Clock
p2161
sg8
F0.5602039999999999
sg9
F0.677
sg10
S'blues'
p2162
sg12
F0.0367
sg13
VRobin Trower
p2163
sg15
I9999
sg16
F0.703
sg17
Nsg18
F0.8625
sg19
Nsg20
Nsg21
F0.33983383231667197
sg22
F0.749
sg23
Nsg24
Nsg25
F2.26e-06
ssg26
I01
sg27
I01
sba(iSong
Song
p2164
(dp2165
g3
(dp2166
g5
F0.0068
sg6
VAre You
p2167
sg8
F0.3735
sg9
F0.852
sg10
S'blues'
p2168
sg12
F0.0309
sg13
VThe Delta Saints
p2169
sg15
I9999
sg16
F0.43
sg17
Nsg18
F0.8782833333333334
sg19
Nsg20
Nsg21
F0.33983383231667197
sg22
F0.509
sg23
Nsg24
Nsg25
F0.00011
ssg26
I01
sg27
I01
sba(iSong
Song
p2170
(dp2171
g3
(dp2172
g5
F0.513
sg6
VWasted
p2173
sg8
F0.359876
sg9
F0.774
sg10
S'blues'
p2174
sg12
F0.0288
sg13
VBlack Joe Lewis & The Honeybears
p2175
sg15
I9999
sg16
F0.558
sg17
Nsg18
F0.9489333333333333
sg19
Nsg20
Nsg21
F0.33983383231667197
sg22
F0.787
sg23
Nsg24
Nsg25
F0.0456
ssg26
I01
sg27
I01
sba(iSong
Song
p2176
(dp2177
g3
(dp2178
g5
F0.762
sg6
VMiddle of Nowhere
p2179
sg8
F0.352176
sg9
F0.401
sg10
S'blues'
p2180
sg12
F0.0315
sg13
VDelbert McClinton
p2181
sg15
I9999
sg16
F0.797
sg17
Nsg18
F0.8879666666666667
sg19
Nsg20
Nsg21
F0.33983383231667197
sg22
F0.748
sg23
Nsg24
Nsg25
F0.0019
ssg26
I01
sg27
I01
sba(iSong
Song
p2182
(dp2183
g3
(dp2184
g5
F0.843
sg6
VBoneyard - Edit
p2185
sg8
F0.426152
sg9
F0.475
sg10
S'blues'
p2186
sg12
F0.0265
sg13
VFink
p2187
sg15
I9999
sg16
F0.386
sg17
Nsg18
F0.8624333333333334
sg19
Nsg20
Nsg21
F0.33983383231667197
sg22
F0.391
sg23
Nsg24
Nsg25
F0.000106
ssg26
I01
sg27
I01
sba(iSong
Song
p2188
(dp2189
g3
(dp2190
g5
F0.0684
sg6
VMidnight Highway
p2191
sg8
F0.498816
sg9
F0.707
sg10
S'blues'
p2192
sg12
F0.0428
sg13
VQuinn Sullivan
p2193
sg15
I9999
sg16
F0.482
sg17
Nsg18
F0.9190833333333333
sg19
Nsg20
Nsg21
F0.33983383231667197
sg22
F0.489
sg23
Nsg24
Nsg25
F1.6e-05
ssg26
I01
sg27
I01
sba(iSong
Song
p2194
(dp2195
g3
(dp2196
g5
F0.175
sg6
VLove Is A Lie
p2197
sg8
F0.455648
sg9
F0.534
sg10
S'blues'
p2198
sg12
F0.0419
sg13
VBeth Hart
p2199
sg15
I9999
sg16
F0.73
sg17
Nsg18
F0.88935
sg19
Nsg20
Nsg21
F0.33983383231667197
sg22
F0.709
sg23
Nsg24
Nsg25
F0.000185
ssg26
I01
sg27
I01
sba(iSong
Song
p2200
(dp2201
g3
(dp2202
g5
F0.116
sg6
VThe Reformation
p2203
sg8
F0.359936
sg9
F0.585
sg10
S'blues'
p2204
sg12
F0.0409
sg13
VJo Harman
p2205
sg15
I9999
sg16
F0.572
sg17
Nsg18
F0.8704666666666667
sg19
Nsg20
Nsg21
F0.33983383231667197
sg22
F0.611
sg23
Nsg24
Nsg25
F1.47e-05
ssg26
I01
sg27
I01
sba(iSong
Song
p2206
(dp2207
g3
(dp2208
g5
F2.42e-06
sg6
VBlood from a Stone
p2209
sg8
F0.506292
sg9
F0.945
sg10
S'blues'
p2210
sg12
F0.181
sg13
VEric Krasno
p2211
sg15
I9999
sg16
F0.275
sg17
Nsg18
F0.9200666666666667
sg19
Nsg20
Nsg21
F0.33983383231667197
sg22
F0.321
sg23
Nsg24
Nsg25
F0.914
ssg26
I01
sg27
I01
sba(iSong
Song
p2212
(dp2213
g3
(dp2214
g5
F0.179
sg6
VLong Story Short
p2215
sg8
F0.409208
sg9
F0.84
sg10
S'blues'
p2216
sg12
F0.0369
sg13
VRonnie Baker Brooks
p2217
sg15
I9999
sg16
F0.655
sg17
Nsg18
F0.9229
sg19
Nsg20
Nsg21
F0.33983383231667197
sg22
F0.924
sg23
Nsg24
Nsg25
F0.328
ssg26
I01
sg27
I01
sba(iSong
Song
p2218
(dp2219
g3
(dp2220
g5
F0.15
sg6
VHonest Man
p2221
sg8
F0.373924
sg9
F0.536
sg10
S'blues'
p2222
sg12
F0.0372
sg13
VMatt Andersen
p2223
sg15
I9999
sg16
F0.823
sg17
Nsg18
F0.90345
sg19
Nsg20
Nsg21
F0.33983383231667197
sg22
F0.777
sg23
Nsg24
Nsg25
F7.19e-06
ssg26
I01
sg27
I01
sba(iSong
Song
p2224
(dp2225
g3
(dp2226
g5
F0.578
sg6
VKillin' Floor
p2227
sg8
F0.467448
sg9
F0.242
sg10
S'blues'
p2228
sg12
F0.0382
sg13
VKail Baxley
p2229
sg15
I9999
sg16
F0.744
sg17
Nsg18
F0.7951166666666667
sg19
Nsg20
Nsg21
F0.33983383231667197
sg22
F0.229
sg23
Nsg24
Nsg25
F0.243
ssg26
I01
sg27
I01
sba(iSong
Song
p2230
(dp2231
g3
(dp2232
g5
F0.00909
sg6
VPTP
p2233
sg8
F0.423568
sg9
F0.878
sg10
S'blues'
p2234
sg12
F0.0471
sg13
VBlack Joe Lewis & The Honeybears
p2235
sg15
I9999
sg16
F0.649
sg17
Nsg18
F0.9396833333333333
sg19
Nsg20
Nsg21
F0.33983383231667197
sg22
F0.81
sg23
Nsg24
Nsg25
F0.000159
ssg26
I01
sg27
I01
sba(iSong
Song
p2236
(dp2237
g3
(dp2238
g5
F0.0166
sg6
VAll of Your Love
p2239
sg8
F0.6159640000000001
sg9
F0.891
sg10
S'blues'
p2240
sg12
F0.0445
sg13
VAynsley Lister
p2241
sg15
I9999
sg16
F0.457
sg17
Nsg18
F0.9151
sg19
Nsg20
Nsg21
F0.33983383231667197
sg22
F0.6
sg23
Nsg24
Nsg25
F0.0179
ssg26
I01
sg27
I01
sba(iSong
Song
p2242
(dp2243
g3
(dp2244
g5
F0.401
sg6
VBrother, What Happened?
p2245
sg8
F0.36016000000000004
sg9
F0.697
sg10
S'blues'
p2246
sg12
F0.0481
sg13
VMuddy Magnolias
p2247
sg15
I9999
sg16
F0.629
sg17
Nsg18
F0.8780333333333333
sg19
Nsg20
Nsg21
F0.33983383231667197
sg22
F0.795
sg23
Nsg24
Nsg25
I0
ssg26
I01
sg27
I01
sba(iSong
Song
p2248
(dp2249
g3
(dp2250
g5
F0.0732
sg6
VTimes Have Changed (feat. Al Kapone)
p2251
sg8
F0.347536
sg9
F0.779
sg10
S'blues'
p2252
sg12
F0.0371
sg13
VRonnie Baker Brooks
p2253
sg15
I9999
sg16
F0.679
sg17
Nsg18
F0.9136000000000001
sg19
Nsg20
Nsg21
F0.33983383231667197
sg22
F0.847
sg23
Nsg24
Nsg25
F0.0631
ssg26
I01
sg27
I01
sba(iSong
Song
p2254
(dp2255
g3
(dp2256
g5
F0.401
sg6
VI Know A Good Thing
p2257
sg8
F0.36448
sg9
F0.624
sg10
S'blues'
p2258
sg12
F0.0388
sg13
VCurtis Salgado
p2259
sg15
I9999
sg16
F0.751
sg17
Nsg18
F0.8995833333333334
sg19
Nsg20
Nsg21
F0.33983383231667197
sg22
F0.847
sg23
Nsg24
Nsg25
F0.000584
ssg26
I01
sg27
I01
sba(iSong
Song
p2260
(dp2261
g3
(dp2262
g5
F0.104
sg6
VAbandoned
p2263
sg8
F0.50774
sg9
F0.647
sg10
S'blues'
p2264
sg12
F0.0283
sg13
VGina Sicilia
p2265
sg15
I9999
sg16
F0.643
sg17
Nsg18
F0.9218666666666666
sg19
Nsg20
Nsg21
F0.33983383231667197
sg22
F0.547
sg23
Nsg24
Nsg25
F2.14e-06
ssg26
I01
sg27
I01
sba(iSong
Song
p2266
(dp2267
g3
(dp2268
g5
F0.0455
sg6
VEarly Morning Blues
p2269
sg8
F0.399084
sg9
F0.553
sg10
S'blues'
p2270
sg12
F0.0638
sg13
VHenrik Freischlader Trio
p2271
sg15
I9999
sg16
F0.649
sg17
Nsg18
F0.8484166666666667
sg19
Nsg20
Nsg21
F0.33983383231667197
sg22
F0.514
sg23
Nsg24
Nsg25
F2.88e-05
ssg26
I01
sg27
I01
sba(iSong
Song
p2272
(dp2273
g3
(dp2274
g5
F0.412
sg6
VGoing Down
p2275
sg8
F0.36962
sg9
F0.81
sg10
S'blues'
p2276
sg12
F0.0308
sg13
VColin James
p2277
sg15
I9999
sg16
F0.579
sg17
Nsg18
F0.8912166666666667
sg19
Nsg20
Nsg21
F0.33983383231667197
sg22
F0.2
sg23
Nsg24
Nsg25
F0.0942
ssg26
I01
sg27
I01
sba(iSong
Song
p2278
(dp2279
g3
(dp2280
g5
F0.0937
sg6
VAngel in the Shadows
p2281
sg8
F0.411216
sg9
F0.69
sg10
S'blues'
p2282
sg12
F0.0252
sg13
VHitman Blues Band
p2283
sg15
I9999
sg16
F0.516
sg17
Nsg18
F0.9025333333333333
sg19
Nsg20
Nsg21
F0.33983383231667197
sg22
F0.299
sg23
Nsg24
Nsg25
F4.11e-05
ssg26
I01
sg27
I01
sba(iSong
Song
p2284
(dp2285
g3
(dp2286
g5
F0.476
sg6
VWaiting Around To Die
p2287
sg8
F0.5757559999999999
sg9
F0.16
sg10
S'blues'
p2288
sg12
F0.045
sg13
VThe Devil Makes Three
p2289
sg15
I9999
sg16
F0.4
sg17
Nsg18
F0.7429166666666667
sg19
Nsg20
Nsg21
F0.33983383231667197
sg22
F0.097
sg23
Nsg24
Nsg25
F1.42e-05
ssg26
I01
sg27
I01
sba(iSong
Song
p2290
(dp2291
g3
(dp2292
g5
F0.428
sg6
VRough and Tumble
p2293
sg8
F0.472
sg9
F0.86
sg10
S'blues'
p2294
sg12
F0.0356
sg13
VJono Manson
p2295
sg15
I9999
sg16
F0.656
sg17
Nsg18
F0.8641333333333333
sg19
Nsg20
Nsg21
F0.33983383231667197
sg22
F0.898
sg23
Nsg24
Nsg25
F0.00127
ssg26
I01
sg27
I01
sba(iSong
Song
p2296
(dp2297
g3
(dp2298
g5
F0.293
sg6
VDon't Burn Me (feat. Anson Funderburgh)
p2299
sg8
F0.400112
sg9
F0.561
sg10
S'blues'
p2300
sg12
F0.0302
sg13
VThe Fabulous Thunderbirds
p2301
sg15
I9999
sg16
F0.883
sg17
Nsg18
F0.8479166666666667
sg19
Nsg20
Nsg21
F0.33983383231667197
sg22
F0.659
sg23
Nsg24
Nsg25
F0.0232
ssg26
I01
sg27
I01
sba(iSong
Song
p2302
(dp2303
g3
(dp2304
g5
F0.561
sg6
VBad Man
p2305
sg8
F0.648308
sg9
F0.711
sg10
S'blues'
p2306
sg12
F0.0652
sg13
VJj Thames
p2307
sg15
I9999
sg16
F0.547
sg17
Nsg18
F0.8870333333333333
sg19
Nsg20
Nsg21
F0.33983383231667197
sg22
F0.834
sg23
Nsg24
Nsg25
F0.0265
ssg26
I01
sg27
I01
sba(iSong
Song
p2308
(dp2309
g3
(dp2310
g5
F0.0863
sg6
VCan't Be Helped
p2311
sg8
F0.35196
sg9
F0.717
sg10
S'blues'
p2312
sg12
F0.0275
sg13
VThe Soul Of John Black
p2313
sg15
I9999
sg16
F0.771
sg17
Nsg18
F0.9343666666666667
sg19
Nsg20
Nsg21
F0.33983383231667197
sg22
F0.845
sg23
Nsg24
Nsg25
F0.000501
ssg26
I01
sg27
I01
sba(iSong
Song
p2314
(dp2315
g3
(dp2316
g5
F0.879
sg6
VIs It Me
p2317
sg8
F0.276284
sg9
F0.164
sg10
S'blues'
p2318
sg12
F0.0389
sg13
VSt. Paul & The Broken Bones
p2319
sg15
I9999
sg16
F0.269
sg17
Nsg18
F0.7855833333333333
sg19
Nsg20
Nsg21
F0.33983383231667197
sg22
F0.254
sg23
Nsg24
Nsg25
F0.00066
ssg26
I01
sg27
I01
sba(iSong
Song
p2320
(dp2321
g3
(dp2322
g5
F0.353
sg6
VChampagne And Reefer
p2323
sg8
F0.48500400000000005
sg9
F0.836
sg10
S'blues'
p2324
sg12
F0.0451
sg13
VThe Devil Makes Three
p2325
sg15
I9999
sg16
F0.735
sg17
Nsg18
F0.87555
sg19
Nsg20
Nsg21
F0.33983383231667197
sg22
F0.781
sg23
Nsg24
Nsg25
F0.0143
ssg26
I01
sg27
I01
sba(iSong
Song
p2326
(dp2327
g3
(dp2328
g5
F0.00712
sg6
VDyin' to Know
p2329
sg8
F0.560068
sg9
F0.773
sg10
S'blues'
p2330
sg12
F0.0353
sg13
VJoanne Shaw Taylor
p2331
sg15
I9999
sg16
F0.528
sg17
Nsg18
F0.8641166666666666
sg19
Nsg20
Nsg21
F0.33983383231667197
sg22
F0.506
sg23
Nsg24
Nsg25
F0.864
ssg26
I01
sg27
I01
sba(iSong
Song
p2332
(dp2333
g3
(dp2334
g5
F0.00855
sg6
VGrinder
p2335
sg8
F0.647732
sg9
F0.792
sg10
S'blues'
p2336
sg12
F0.0363
sg13
VGary Clark Jr.
p2337
sg15
I9999
sg16
F0.293
sg17
Nsg18
F0.93755
sg19
Nsg20
Nsg21
F0.33983383231667197
sg22
F0.697
sg23
Nsg24
Nsg25
F0.0111
ssg26
I01
sg27
I01
sba(iSong
Song
p2338
(dp2339
g3
(dp2340
g5
F0.301
sg6
VI Think I Love You Too Much
p2341
sg8
F0.445168
sg9
F0.39
sg10
S'blues'
p2342
sg12
F0.0319
sg13
VBen Poole
p2343
sg15
I9999
sg16
F0.804
sg17
Nsg18
F0.8173333333333334
sg19
Nsg20
Nsg21
F0.33983383231667197
sg22
F0.86
sg23
Nsg24
Nsg25
F0.446
ssg26
I01
sg27
I01
sba(iSong
Song
p2344
(dp2345
g3
(dp2346
g5
F0.306
sg6
VThe Valley Runs Low
p2347
sg8
F0.383924
sg9
F0.546
sg10
S'blues'
p2348
sg12
F0.0239
sg13
VJoe Bonamassa
p2349
sg15
I9999
sg16
F0.749
sg17
Nsg18
F0.8905666666666666
sg19
Nsg20
Nsg21
F0.33983383231667197
sg22
F0.601
sg23
Nsg24
Nsg25
F1.84e-05
ssg26
I01
sg27
I01
sba(iSong
Song
p2350
(dp2351
g3
(dp2352
g5
F0.753
sg6
VOnly a River
p2353
sg8
F0.512076
sg9
F0.464
sg10
S'blues'
p2354
sg12
F0.0279
sg13
VBob Weir
p2355
sg15
I9999
sg16
F0.525
sg17
Nsg18
F0.8436833333333333
sg19
Nsg20
Nsg21
F0.33983383231667197
sg22
F0.453
sg23
Nsg24
Nsg25
F0.0683
ssg26
I01
sg27
I01
sba(iSong
Song
p2356
(dp2357
g3
(dp2358
g5
F0.00462
sg6
VYou Ain't My Dog No More
p2359
sg8
F0.461784
sg9
F0.735
sg10
S'blues'
p2360
sg12
F0.0352
sg13
VEliza Neals
p2361
sg15
I9999
sg16
F0.527
sg17
Nsg18
F0.8904
sg19
Nsg20
Nsg21
F0.33983383231667197
sg22
F0.448
sg23
Nsg24
Nsg25
F0.211
ssg26
I01
sg27
I01
sba(iSong
Song
p2362
(dp2363
g3
(dp2364
g5
F0.00804
sg6
VShadows
p2365
sg8
F0.47176
sg9
F0.978
sg10
S'blues'
p2366
sg12
F0.104
sg13
VPaul Reddick
p2367
sg15
I9999
sg16
F0.478
sg17
Nsg18
F0.9361333333333334
sg19
Nsg20
Nsg21
F0.33983383231667197
sg22
F0.287
sg23
Nsg24
Nsg25
F2.71e-05
ssg26
I01
sg27
I01
sba(iSong
Song
p2368
(dp2369
g3
(dp2370
g5
F0.427
sg6
VDon't Know What It Means
p2371
sg8
F0.366408
sg9
F0.624
sg10
S'blues'
p2372
sg12
F0.0343
sg13
VTedeschi Trucks Band
p2373
sg15
I9999
sg16
F0.648
sg17
Nsg18
F0.8461166666666666
sg19
Nsg20
Nsg21
F0.33983383231667197
sg22
F0.78
sg23
Nsg24
Nsg25
F0.0139
ssg26
I01
sg27
I01
sba(iSong
Song
p2374
(dp2375
g3
(dp2376
g5
F0.351
sg6
VCan't Let You Do It
p2377
sg8
F0.39863600000000005
sg9
F0.456
sg10
S'blues'
p2378
sg12
F0.031
sg13
VEric Clapton
p2379
sg15
I9999
sg16
F0.83
sg17
Nsg18
F0.7786333333333334
sg19
Nsg20
Nsg21
F0.33983383231667197
sg22
F0.918
sg23
Nsg24
Nsg25
F0.0187
ssg26
I01
sg27
I01
sba(iSong
Song
p2380
(dp2381
g3
(dp2382
g5
F0.278
sg6
VDon't Hurt Me Now
p2383
sg8
F0.39233999999999997
sg9
F0.681
sg10
S'blues'
p2384
sg12
F0.0291
sg13
VIna Forsman
p2385
sg15
I9999
sg16
F0.523
sg17
Nsg18
F0.9292833333333334
sg19
Nsg20
Nsg21
F0.33983383231667197
sg22
F0.51
sg23
Nsg24
Nsg25
F9.77e-06
ssg26
I01
sg27
I01
sba(iSong
Song
p2386
(dp2387
g3
(dp2388
g5
F0.425
sg6
VHigh Note
p2389
sg8
F0.3328
sg9
F0.575
sg10
S'blues'
p2390
sg12
F0.151
sg13
VMavis Staples
p2391
sg15
I9999
sg16
F0.609
sg17
Nsg18
F0.8776333333333334
sg19
Nsg20
Nsg21
F0.33983383231667197
sg22
F0.495
sg23
Nsg24
Nsg25
F5.21e-05
ssg26
I01
sg27
I01
sba(iSong
Song
p2392
(dp2393
g3
(dp2394
g5
F0.768
sg6
VBorn To Play Guitar
p2395
sg8
F0.6781079999999999
sg9
F0.423
sg10
S'blues'
p2396
sg12
F0.0694
sg13
VBuddy Guy
p2397
sg15
I9999
sg16
F0.479
sg17
Nsg18
F0.8714333333333334
sg19
Nsg20
Nsg21
F0.33983383231667197
sg22
F0.4
sg23
Nsg24
Nsg25
F0.000305
ssg26
I01
sg27
I01
sba(iSong
Song
p2398
(dp2399
g3
(dp2400
g5
F0.021
sg6
VDon't Leave Me Here
p2401
sg8
F0.38012
sg9
F0.775
sg10
S'blues'
p2402
sg12
F0.0389
sg13
VTaj Mahal
p2403
sg15
I9999
sg16
F0.784
sg17
Nsg18
F0.8858666666666667
sg19
Nsg20
Nsg21
F0.33983383231667197
sg22
F0.789
sg23
Nsg24
Nsg25
F0.00351
ssg26
I01
sg27
I01
sba(iSong
Song
p2404
(dp2405
g3
(dp2406
g5
F0.84
sg6
VI Love You More Than You'll Ever Know
p2407
sg8
F0.416488
sg9
F0.401
sg10
S'blues'
p2408
sg12
F0.0959
sg13
VJaniva Magness
p2409
sg15
I9999
sg16
F0.442
sg17
Nsg18
F0.8544833333333333
sg19
Nsg20
Nsg21
F0.33983383231667197
sg22
F0.268
sg23
Nsg24
Nsg25
F0.000502
ssg26
I01
sg27
I01
sba(iSong
Song
p2410
(dp2411
g3
(dp2412
g5
F0.112
sg6
VSallisaw Blue
p2413
sg8
F0.6030800000000001
sg9
F0.866
sg10
S'blues'
p2414
sg12
F0.0691
sg13
VJohn Moreland
p2415
sg15
I9999
sg16
F0.395
sg17
Nsg18
F0.8825500000000001
sg19
Nsg20
Nsg21
F0.33983383231667197
sg22
F0.836
sg23
Nsg24
Nsg25
F9.85e-06
ssg26
I01
sg27
I01
sba(iSong
Song
p2416
(dp2417
g3
(dp2418
g5
F0.26
sg6
VWorking Woman
p2419
sg8
F0.30392
sg9
F0.825
sg10
S'blues'
p2420
sg12
F0.0509
sg13
VRuthie Foster
p2421
sg15
I9999
sg16
F0.547
sg17
Nsg18
F0.9496
sg19
Nsg20
Nsg21
F0.33983383231667197
sg22
F0.508
sg23
Nsg24
Nsg25
I0
ssg26
I01
sg27
I01
sba(iSong
Song
p2422
(dp2423
g3
(dp2424
g5
F0.00614
sg6
VChange of Pace
p2425
sg8
F0.36856
sg9
F0.655
sg10
S'blues'
p2426
sg12
F0.0308
sg13
VGreyhounds
p2427
sg15
I9999
sg16
F0.641
sg17
Nsg18
F0.8429166666666668
sg19
Nsg20
Nsg21
F0.33983383231667197
sg22
F0.514
sg23
Nsg24
Nsg25
F0.000431
ssg26
I01
sg27
I01
sba(iSong
Song
p2428
(dp2429
g3
(dp2430
g5
F0.00829
sg6
VDyin' To Know
p2431
sg8
F0.560068
sg9
F0.79
sg10
S'blues'
p2432
sg12
F0.0383
sg13
VJoanne Shaw Taylor
p2433
sg15
I9999
sg16
F0.538
sg17
Nsg18
F0.8856
sg19
Nsg20
Nsg21
F0.33983383231667197
sg22
F0.528
sg23
Nsg24
Nsg25
F0.834
ssg26
I01
sg27
I01
sba(iSong
Song
p2434
(dp2435
g3
(dp2436
g5
F0.346
sg6
VCall My Name
p2437
sg8
F0.302116
sg9
F0.424
sg10
S'blues'
p2438
sg12
F0.0414
sg13
VSeth Walker
p2439
sg15
I9999
sg16
F0.701
sg17
Nsg18
F0.8831333333333333
sg19
Nsg20
Nsg21
F0.33983383231667197
sg22
F0.437
sg23
Nsg24
Nsg25
F0.000203
ssg26
I01
sg27
I01
sba(iSong
Song
p2440
(dp2441
g3
(dp2442
g5
F0.978
sg6
VOhio
p2443
sg8
F0.48837200000000003
sg9
F0.204
sg10
S'blues'
p2444
sg12
F0.0334
sg13
VJon Batiste
p2445
sg15
I9999
sg16
F0.425
sg17
Nsg18
F0.7817166666666666
sg19
Nsg20
Nsg21
F0.33983383231667197
sg22
F0.121
sg23
Nsg24
Nsg25
F0.000481
ssg26
I01
sg27
I01
sba(iSong
Song
p2446
(dp2447
g3
(dp2448
g5
F0.186
sg6
VLong Haired Doney
p2449
sg8
F0.3845
sg9
F0.789
sg10
S'blues'
p2450
sg12
F0.0371
sg13
VNorth Mississippi Allstars
p2451
sg15
I9999
sg16
F0.573
sg17
Nsg18
F0.8253
sg19
Nsg20
Nsg21
F0.33983383231667197
sg22
F0.773
sg23
Nsg24
Nsg25
F0.835
ssg26
I01
sg27
I01
sba(iSong
Song
p2452
(dp2453
g3
(dp2454
g5
F0.0277
sg6
VHoller
p2455
sg8
F0.391792
sg9
F0.853
sg10
S'blues'
p2456
sg12
F0.0692
sg13
VBand of Rascals
p2457
sg15
I9999
sg16
F0.369
sg17
Nsg18
F0.9427
sg19
Nsg20
Nsg21
F0.33983383231667197
sg22
F0.383
sg23
Nsg24
Nsg25
I0
ssg26
I01
sg27
I01
sba(iSong
Song
p2458
(dp2459
g3
(dp2460
g5
F0.236
sg6
VLet The Good Times Roll - Live
p2461
sg8
F0.5873400000000001
sg9
F0.881
sg10
S'blues'
p2462
sg12
F0.0572
sg13
VJoe Bonamassa
p2463
sg15
I9999
sg16
F0.334
sg17
Nsg18
F0.8852
sg19
Nsg20
Nsg21
F0.33983383231667197
sg22
F0.508
sg23
Nsg24
Nsg25
F7.96e-05
ssg26
I01
sg27
I01
sba(iSong
Song
p2464
(dp2465
g3
(dp2466
g5
F0.222
sg6
VThe Healing - Live
p2467
sg8
F0.356772
sg9
F0.56
sg10
S'blues'
p2468
sg12
F0.031
sg13
VGary Clark Jr.
p2469
sg15
I9999
sg16
F0.344
sg17
Nsg18
F0.8606166666666667
sg19
Nsg20
Nsg21
F0.33983383231667197
sg22
F0.345
sg23
Nsg24
Nsg25
F0.00141
ssg26
I01
sg27
I01
sba(iSong
Song
p2470
(dp2471
g3
(dp2472
g5
F0.184
sg6
VSoul Salvation - Live
p2473
sg8
F0.528164
sg9
F0.836
sg10
S'blues'
p2474
sg12
F0.0913
sg13
VSonny Landreth
p2475
sg15
I9999
sg16
F0.561
sg17
Nsg18
F0.8516
sg19
Nsg20
Nsg21
F0.33983383231667197
sg22
F0.495
sg23
Nsg24
Nsg25
F0.00355
ssg26
I01
sg27
I01
sba(iSong
Song
p2476
(dp2477
g3
(dp2478
g5
F0.613
sg6
VBird On The Wire - Live
p2479
sg8
F0.424468
sg9
F0.362
sg10
S'blues'
p2480
sg12
F0.0339
sg13
VTedeschi Trucks Band
p2481
sg15
I9999
sg16
F0.449
sg17
Nsg18
F0.8101833333333334
sg19
Nsg20
Nsg21
F0.33983383231667197
sg22
F0.392
sg23
Nsg24
Nsg25
F0.000252
ssg26
I01
sg27
I01
sba(iSong
Song
p2482
(dp2483
g3
(dp2484
g5
F0.0231
sg6
VTexas Flood - Live at Ripley's Music Hall, Philadelphia, PA, Oct. 20, 1983
p2485
sg8
F0.5541520000000001
sg9
F0.613
sg10
S'blues'
p2486
sg12
F0.0414
sg13
VStevie Ray Vaughan
p2487
sg15
I9999
sg16
F0.261
sg17
Nsg18
F0.8370333333333334
sg19
Nsg20
Nsg21
F0.33983383231667197
sg22
F0.402
sg23
Nsg24
Nsg25
F0.0867
ssg26
I01
sg27
I01
sba(iSong
Song
p2488
(dp2489
g3
(dp2490
g5
F0.0447
sg6
VTrue Lies
p2491
sg8
F0.6918759999999999
sg9
F0.913
sg10
S'blues'
p2492
sg12
F0.102
sg13
VKenny Wayne Shepherd
p2493
sg15
I9999
sg16
F0.116
sg17
Nsg18
F0.8709666666666667
sg19
Nsg20
Nsg21
F0.33983383231667197
sg22
F0.604
sg23
Nsg24
Nsg25
F0.0524
ssg26
I01
sg27
I01
sba(iSong
Song
p2494
(dp2495
g3
(dp2496
g5
F0.00257
sg6
VStop Breakin' Down - Live
p2497
sg8
F0.46563600000000005
sg9
F0.777
sg10
S'blues'
p2498
sg12
F0.137
sg13
VThe Jeff Healey Band
p2499
sg15
I9999
sg16
F0.376
sg17
Nsg18
F0.8548666666666667
sg19
Nsg20
Nsg21
F0.33983383231667197
sg22
F0.37
sg23
Nsg24
Nsg25
F0.000925
ssg26
I01
sg27
I01
sba(iSong
Song
p2500
(dp2501
g3
(dp2502
g5
F0.355
sg6
VWeatherman
p2503
sg8
F0.6823279999999999
sg9
F0.574
sg10
S'blues'
p2504
sg12
F0.208
sg13
VIna Forsman
p2505
sg15
I9999
sg16
F0.652
sg17
Nsg18
F0.8484666666666667
sg19
Nsg20
Nsg21
F0.33983383231667197
sg22
F0.628
sg23
Nsg24
Nsg25
F9.66e-05
ssg26
I01
sg27
I01
sba(iSong
Song
p2506
(dp2507
g3
(dp2508
g5
F0.0687
sg6
VSteamroller / Powerful Thing - Live
p2509
sg8
F0.35631599999999997
sg9
F0.967
sg10
S'blues'
p2510
sg12
F0.155
sg13
VPhilip Sayce
p2511
sg15
I9999
sg16
F0.328
sg17
Nsg18
F0.9170833333333334
sg19
Nsg20
Nsg21
F0.33983383231667197
sg22
F0.152
sg23
Nsg24
Nsg25
I0
ssg26
I01
sg27
I01
sba(iSong
Song
p2512
(dp2513
g3
(dp2514
g5
F0.0264
sg6
VKeep On Growing - Live
p2515
sg8
F0.400472
sg9
F0.821
sg10
S'blues'
p2516
sg12
F0.0602
sg13
VTedeschi Trucks Band
p2517
sg15
I9999
sg16
F0.318
sg17
Nsg18
F0.8339166666666666
sg19
Nsg20
Nsg21
F0.33983383231667197
sg22
F0.424
sg23
Nsg24
Nsg25
F0.0789
ssg26
I01
sg27
I01
sba(iSong
Song
p2518
(dp2519
g3
(dp2520
g5
F0.0117
sg6
VFeeling Good - Live
p2521
sg8
F0.499576
sg9
F0.844
sg10
S'blues'
p2522
sg12
F0.0593
sg13
VThe Sheepdogs
p2523
sg15
I9999
sg16
F0.292
sg17
Nsg18
F0.8659833333333334
sg19
Nsg20
Nsg21
F0.33983383231667197
sg22
F0.526
sg23
Nsg24
Nsg25
F7.27e-06
ssg26
I01
sg27
I01
sba(iSong
Song
p2524
(dp2525
g3
(dp2526
g5
F0.197
sg6
VPocket Full of Dust (Live)
p2527
sg8
F0.7357079999999999
sg9
F0.669
sg10
S'blues'
p2528
sg12
F0.103
sg13
VDave Fields
p2529
sg15
I9999
sg16
F0.257
sg17
Nsg18
F0.8495166666666667
sg19
Nsg20
Nsg21
F0.33983383231667197
sg22
F0.393
sg23
Nsg24
Nsg25
F0.0491
ssg26
I01
sg27
I01
sba(iSong
Song
p2530
(dp2531
g3
(dp2532
g5
F0.0171
sg6
VTouch My Blues Away - Live
p2533
sg8
F0.634644
sg9
F0.466
sg10
S'blues'
p2534
sg12
F0.0367
sg13
VJessy Martens and Band
p2535
sg15
I9999
sg16
F0.311
sg17
Nsg18
F0.8639500000000001
sg19
Nsg20
Nsg21
F0.33983383231667197
sg22
F0.233
sg23
Nsg24
Nsg25
F0.00023
ssg26
I01
sg27
I01
sba(iSong
Song
p2536
(dp2537
g3
(dp2538
g5
F0.04
sg6
VWait On Time - Live
p2539
sg8
F0.47230399999999995
sg9
F0.801
sg10
S'blues'
p2540
sg12
F0.0688
sg13
VKing King
p2541
sg15
I9999
sg16
F0.567
sg17
Nsg18
F0.8603666666666666
sg19
Nsg20
Nsg21
F0.33983383231667197
sg22
F0.58
sg23
Nsg24
Nsg25
F0.00189
ssg26
I01
sg27
I01
sba(iSong
Song
p2542
(dp2543
g3
(dp2544
g5
F0.15
sg6
VRed Light - Live
p2545
sg8
F0.480508
sg9
F0.462
sg10
S'blues'
p2546
sg12
F0.0541
sg13
VJonny Lang
p2547
sg15
I9999
sg16
F0.667
sg17
Nsg18
F0.8517666666666667
sg19
Nsg20
Nsg21
F0.33983383231667197
sg22
F0.341
sg23
Nsg24
Nsg25
F1.16e-05
ssg26
I01
sg27
I01
sba(iSong
Song
p2548
(dp2549
g3
(dp2550
g5
F0.0809
sg6
VSome Other Day, Some Other Time - Live
p2551
sg8
F0.48742399999999997
sg9
F0.82
sg10
S'blues'
p2552
sg12
F0.0365
sg13
VJoe Bonamassa
p2553
sg15
I9999
sg16
F0.645
sg17
Nsg18
F0.86485
sg19
Nsg20
Nsg21
F0.33983383231667197
sg22
F0.816
sg23
Nsg24
Nsg25
F0.00174
ssg26
I01
sg27
I01
sba(iSong
Song
p2554
(dp2555
g3
(dp2556
g5
F0.37
sg6
VEveryday I Have The Blues - Live (San Quentin)
p2557
sg8
F0.55202
sg9
F0.805
sg10
S'blues'
p2558
sg12
F0.0557
sg13
VB.B. King
p2559
sg15
I9999
sg16
F0.431
sg17
Nsg18
F0.8869166666666667
sg19
Nsg20
Nsg21
F0.33983383231667197
sg22
F0.589
sg23
Nsg24
Nsg25
F2.27e-06
ssg26
I01
sg27
I01
sba(iSong
Song
p2560
(dp2561
g3
(dp2562
g5
F0.123
sg6
VA Better Man
p2563
sg8
F0.569652
sg9
F0.772
sg10
S'blues'
p2564
sg12
F0.0544
sg13
VHenrik Freischlader
p2565
sg15
I9999
sg16
F0.312
sg17
Nsg18
F0.8998833333333334
sg19
Nsg20
Nsg21
F0.33983383231667197
sg22
F0.628
sg23
Nsg24
Nsg25
F0.069
ssg26
I01
sg27
I01
sba(iSong
Song
p2566
(dp2567
g3
(dp2568
g5
F0.00491
sg6
VRoll With Me - Live
p2569
sg8
F0.5853959999999999
sg9
F0.964
sg10
S'blues'
p2570
sg12
F0.065
sg13
VJohnny Winter
p2571
sg15
I9999
sg16
F0.401
sg17
Nsg18
F0.8605166666666667
sg19
Nsg20
Nsg21
F0.33983383231667197
sg22
F0.583
sg23
Nsg24
Nsg25
F4.3e-05
ssg26
I01
sg27
I01
sba(iSong
Song
p2572
(dp2573
g3
(dp2574
g5
F0.083
sg6
VRiver Of Tears - Live
p2575
sg8
F0.43447199999999997
sg9
F0.525
sg10
S'blues'
p2576
sg12
F0.0299
sg13
VEric Clapton
p2577
sg15
I9999
sg16
F0.457
sg17
Nsg18
F0.8605999999999999
sg19
Nsg20
Nsg21
F0.33983383231667197
sg22
F0.194
sg23
Nsg24
Nsg25
F0.0975
ssg26
I01
sg27
I01
sba(iSong
Song
p2578
(dp2579
g3
(dp2580
g5
F0.0793
sg6
VWhy Me - Live
p2581
sg8
F0.6612279999999999
sg9
F0.961
sg10
S'blues'
p2582
sg12
F0.0671
sg13
VAlbert Cummings
p2583
sg15
I9999
sg16
F0.255
sg17
Nsg18
F0.9354166666666667
sg19
Nsg20
Nsg21
F0.33983383231667197
sg22
F0.862
sg23
Nsg24
Nsg25
F1.85e-05
ssg26
I01
sg27
I01
sba(iSong
Song
p2584
(dp2585
g3
(dp2586
g5
F0.0209
sg6
VDamn Right I've Got The Blues - Live
p2587
sg8
F0.40817200000000003
sg9
F0.587
sg10
S'blues'
p2588
sg12
F0.12
sg13
VBuddy Guy
p2589
sg15
I9999
sg16
F0.348
sg17
Nsg18
F0.8326666666666667
sg19
Nsg20
Nsg21
F0.33983383231667197
sg22
F0.557
sg23
Nsg24
Nsg25
F0.0818
ssg26
I01
sg27
I01
sba(iSong
Song
p2590
(dp2591
g3
(dp2592
g5
F0.0131
sg6
VCrying For My Baby
p2593
sg8
F0.614152
sg9
F0.873
sg10
S'blues'
p2594
sg12
F0.0719
sg13
VSon Seals
p2595
sg15
I9999
sg16
F0.402
sg17
Nsg18
F0.8633166666666666
sg19
Nsg20
Nsg21
F0.33983383231667197
sg22
F0.658
sg23
Nsg24
Nsg25
F5.02e-05
ssg26
I01
sg27
I01
sba(iSong
Song
p2596
(dp2597
g3
(dp2598
g5
F0.0191
sg6
VLonesome Whistle Blues - Live
p2599
sg8
F0.416772
sg9
F0.72
sg10
S'blues'
p2600
sg12
F0.0315
sg13
VJoe Bonamassa
p2601
sg15
I9999
sg16
F0.545
sg17
Nsg18
F0.85325
sg19
Nsg20
Nsg21
F0.33983383231667197
sg22
F0.624
sg23
Nsg24
Nsg25
F0.00337
ssg26
I01
sg27
I01
sba(iSong
Song
p2602
(dp2603
g3
(dp2604
g5
F0.0215
sg6
VCamp Washington Chile/If You Have To Know
p2605
sg8
F0.496724
sg9
F0.726
sg10
S'blues'
p2606
sg12
F0.0336
sg13
VLonnie Mack
p2607
sg15
I9999
sg16
F0.395
sg17
Nsg18
F0.8120333333333334
sg19
Nsg20
Nsg21
F0.33983383231667197
sg22
F0.804
sg23
Nsg24
Nsg25
F0.595
ssg26
I01
sg27
I01
sba(iSong
Song
p2608
(dp2609
g3
(dp2610
g5
F0.673
sg6
VGravity - Live In Concert
p2611
sg8
F0.46112400000000003
sg9
F0.344
sg10
S'blues'
p2612
sg12
F0.035
sg13
VJohn Mayer Trio
p2613
sg15
I9999
sg16
F0.543
sg17
Nsg18
F0.8400166666666666
sg19
Nsg20
Nsg21
F0.33983383231667197
sg22
F0.477
sg23
Nsg24
Nsg25
F0.00329
ssg26
I01
sg27
I01
sba(iSong
Song
p2614
(dp2615
g3
(dp2616
g5
F0.24
sg6
VThings Are Changin' - Live
p2617
sg8
F0.750644
sg9
F0.639
sg10
S'blues'
p2618
sg12
F0.0963
sg13
VGary Clark Jr.
p2619
sg15
I9999
sg16
F0.303
sg17
Nsg18
F0.8709333333333333
sg19
Nsg20
Nsg21
F0.33983383231667197
sg22
F0.237
sg23
Nsg24
Nsg25
F0.00328
ssg26
I01
sg27
I01
sba(iSong
Song
p2620
(dp2621
g3
(dp2622
g5
F0.0545
sg6
VHideaway
p2623
sg8
F0.502508
sg9
F0.903
sg10
S'blues'
p2624
sg12
F0.122
sg13
VJohn Mayall & The Bluesbreakers
p2625
sg15
I9999
sg16
F0.495
sg17
Nsg18
F0.8733666666666667
sg19
Nsg20
Nsg21
F0.33983383231667197
sg22
F0.63
sg23
Nsg24
Nsg25
F0.511
ssg26
I01
sg27
I01
sba(iSong
Song
p2626
(dp2627
g3
(dp2628
g5
F0.081
sg6
VChills & Thrills
p2629
sg8
F0.44764
sg9
F0.752
sg10
S'blues'
p2630
sg12
F0.065
sg13
VBernard Allison
p2631
sg15
I9999
sg16
F0.581
sg17
Nsg18
F0.84695
sg19
Nsg20
Nsg21
F0.33983383231667197
sg22
F0.627
sg23
Nsg24
Nsg25
F0.304
ssg26
I01
sg27
I01
sba(iSong
Song
p2632
(dp2633
g3
(dp2634
g5
F0.00162
sg6
VFreedom
p2635
sg8
F0.42482
sg9
F0.8
sg10
S'blues'
p2636
sg12
F0.0698
sg13
VTony Spinner
p2637
sg15
I9999
sg16
F0.373
sg17
Nsg18
F0.8851333333333333
sg19
Nsg20
Nsg21
F0.33983383231667197
sg22
F0.89
sg23
Nsg24
Nsg25
F0.00659
ssg26
I01
sg27
I01
sba(iSong
Song
p2638
(dp2639
g3
(dp2640
g5
F0.157
sg6
VBorn Under A Bad Sign - Live
p2641
sg8
F0.35831599999999997
sg9
F0.793
sg10
S'blues'
p2642
sg12
F0.0269
sg13
VJoe Bonamassa
p2643
sg15
I9999
sg16
F0.443
sg17
Nsg18
F0.8919166666666667
sg19
Nsg20
Nsg21
F0.33983383231667197
sg22
F0.796
sg23
Nsg24
Nsg25
F0.00304
ssg26
I01
sg27
I01
sba(iSong
Song
p2644
(dp2645
g3
(dp2646
g5
F0.0164
sg6
VKey To The Highway - Live
p2647
sg8
F0.447232
sg9
F0.728
sg10
S'blues'
p2648
sg12
F0.0671
sg13
VThe Derek Trucks Band
p2649
sg15
I9999
sg16
F0.399
sg17
Nsg18
F0.8979833333333332
sg19
Nsg20
Nsg21
F0.33983383231667197
sg22
F0.504
sg23
Nsg24
Nsg25
F0.0221
ssg26
I01
sg27
I01
sba(iSong
Song
p2650
(dp2651
g3
(dp2652
g5
F0.0827
sg6
VJudgment Day
p2653
sg8
F0.32761599999999996
sg9
F0.716
sg10
S'blues'
p2654
sg12
F0.0283
sg13
VMike Zito
p2655
sg15
I9999
sg16
F0.493
sg17
Nsg18
F0.90465
sg19
Nsg20
Nsg21
F0.33983383231667197
sg22
F0.757
sg23
Nsg24
Nsg25
F0.00837
ssg26
I01
sg27
I01
sba(iSong
Song
p2656
(dp2657
g3
(dp2658
g5
F0.467
sg6
VStoop Down Baby - Live
p2659
sg8
F0.43547199999999997
sg9
F0.941
sg10
S'blues'
p2660
sg12
F0.0722
sg13
VPopa Chubby
p2661
sg15
I9999
sg16
F0.571
sg17
Nsg18
F0.9282666666666667
sg19
Nsg20
Nsg21
F0.33983383231667197
sg22
F0.599
sg23
Nsg24
Nsg25
F0.351
ssg26
I01
sg27
I01
sba(iSong
Song
p2662
(dp2663
g3
(dp2664
g5
F0.0665
sg6
VLet Me Know
p2665
sg8
F0.6179479999999999
sg9
F0.799
sg10
S'blues'
p2666
sg12
F0.109
sg13
VWalter Trout and The Free Radicals
p2667
sg15
I9999
sg16
F0.285
sg17
Nsg18
F0.8964
sg19
Nsg20
Nsg21
F0.33983383231667197
sg22
F0.611
sg23
Nsg24
Nsg25
F0.00186
ssg26
I01
sg27
I01
sba(iSong
Song
p2668
(dp2669
g3
(dp2670
g5
F0.0935
sg6
VSoulshine
p2671
sg8
F0.491124
sg9
F0.633
sg10
S'blues'
p2672
sg12
F0.0462
sg13
VGov't Mule
p2673
sg15
I9999
sg16
F0.418
sg17
Nsg18
F0.8643666666666667
sg19
Nsg20
Nsg21
F0.33983383231667197
sg22
F0.483
sg23
Nsg24
Nsg25
F0.079
ssg26
I01
sg27
I01
sba(iSong
Song
p2674
(dp2675
g3
(dp2676
g5
F0.118
sg6
VMe & the Devil Blues
p2677
sg8
F0.442336
sg9
F0.424
sg10
S'blues'
p2678
sg12
F0.0376
sg13
VJonah Tolchin
p2679
sg15
I9999
sg16
F0.492
sg17
Nsg18
F0.8492333333333334
sg19
Nsg20
Nsg21
F0.33983383231667197
sg22
F0.506
sg23
Nsg24
Nsg25
F0.00513
ssg26
I01
sg27
I01
sba(iSong
Song
p2680
(dp2681
g3
(dp2682
g5
F0.75
sg6
VRestless Sinner
p2683
sg8
F0.48194
sg9
F0.281
sg10
S'blues'
p2684
sg12
F0.036
sg13
VBlack Rebel Motorcycle Club
p2685
sg15
I9999
sg16
F0.381
sg17
Nsg18
F0.79395
sg19
Nsg20
Nsg21
F0.33983383231667197
sg22
F0.298
sg23
Nsg24
Nsg25
I0
ssg26
I01
sg27
I01
sba(iSong
Song
p2686
(dp2687
g3
(dp2688
g5
F0.0051
sg6
VSeven Hells
p2689
sg8
F0.57266
sg9
F0.613
sg10
S'blues'
p2690
sg12
F0.0838
sg13
VBrown Bird
p2691
sg15
I9999
sg16
F0.514
sg17
Nsg18
F0.8415
sg19
Nsg20
Nsg21
F0.33983383231667197
sg22
F0.545
sg23
Nsg24
Nsg25
F0.00134
ssg26
I01
sg27
I01
sba(iSong
Song
p2692
(dp2693
g3
(dp2694
g5
F0.515
sg6
VDevil's Resting Place
p2695
sg8
F0.717068
sg9
F0.59
sg10
S'blues'
p2696
sg12
F0.0916
sg13
VLaura Marling
p2697
sg15
I9999
sg16
F0.221
sg17
Nsg18
F0.7950166666666667
sg19
Nsg20
Nsg21
F0.33983383231667197
sg22
F0.713
sg23
Nsg24
Nsg25
F0.0636
ssg26
I01
sg27
I01
sba(iSong
Song
p2698
(dp2699
g3
(dp2700
g5
F0.93
sg6
VCross Road Blues
p2701
sg8
F0.38863600000000004
sg9
F0.311
sg10
S'blues'
p2702
sg12
F0.0525
sg13
VRobert Johnson
p2703
sg15
I9999
sg16
F0.675
sg17
Nsg18
F0.8006833333333333
sg19
Nsg20
Nsg21
F0.33983383231667197
sg22
F0.638
sg23
Nsg24
Nsg25
F0.000261
ssg26
I01
sg27
I01
sba(iSong
Song
p2704
(dp2705
g3
(dp2706
g5
F0.875
sg6
VThe High Price of Inspiration
p2707
sg8
F0.52252
sg9
F0.188
sg10
S'blues'
p2708
sg12
F0.0586
sg13
VHard Working Americans
p2709
sg15
I9999
sg16
F0.575
sg17
Nsg18
F0.7250166666666668
sg19
Nsg20
Nsg21
F0.33983383231667197
sg22
F0.322
sg23
Nsg24
Nsg25
F0.00205
ssg26
I01
sg27
I01
sba(iSong
Song
p2710
(dp2711
g3
(dp2712
g5
F0.0446
sg6
VBad Things
p2713
sg8
F0.524024
sg9
F0.864
sg10
S'blues'
p2714
sg12
F0.0399
sg13
VJace Everett
p2715
sg15
I9999
sg16
F0.591
sg17
Nsg18
F0.9215666666666666
sg19
Nsg20
Nsg21
F0.33983383231667197
sg22
F0.728
sg23
Nsg24
Nsg25
F0.00571
ssg26
I01
sg27
I01
sba(iSong
Song
p2716
(dp2717
g3
(dp2718
g5
F0.381
sg6
VOld devils
p2719
sg8
F0.408464
sg9
F0.461
sg10
S'blues'
p2720
sg12
F0.026
sg13
VWilliam Elliott Whitmore
p2721
sg15
I9999
sg16
F0.473
sg17
Nsg18
F0.8226166666666667
sg19
Nsg20
Nsg21
F0.33983383231667197
sg22
F0.408
sg23
Nsg24
Nsg25
F1.44e-06
ssg26
I01
sg27
I01
sba(iSong
Song
p2722
(dp2723
g3
(dp2724
g5
F0.407
sg6
VGraveyard
p2725
sg8
F0.5092559999999999
sg9
F0.494
sg10
S'blues'
p2726
sg12
F0.0275
sg13
VThe Devil Makes Three
p2727
sg15
I9999
sg16
F0.69
sg17
Nsg18
F0.84755
sg19
Nsg20
Nsg21
F0.33983383231667197
sg22
F0.84
sg23
Nsg24
Nsg25
F3.79e-06
ssg26
I01
sg27
I01
sba(iSong
Song
p2728
(dp2729
g3
(dp2730
g5
F0.221
sg6
VCrossroads
p2731
sg8
F0.456864
sg9
F0.507
sg10
S'blues'
p2732
sg12
F0.0564
sg13
VJohn Mayer
p2733
sg15
I9999
sg16
F0.894
sg17
Nsg18
F0.88425
sg19
Nsg20
Nsg21
F0.33983383231667197
sg22
F0.916
sg23
Nsg24
Nsg25
F0.0661
ssg26
I01
sg27
I01
sba(iSong
Song
p2734
(dp2735
g3
(dp2736
g5
F0.993
sg6
VDevil's Gonna Git You
p2737
sg8
F0.285736
sg9
F0.0442
sg10
S'blues'
p2738
sg12
F0.0371
sg13
VBessie Smith
p2739
sg15
I9999
sg16
F0.653
sg17
Nsg18
F0.7955166666666666
sg19
Nsg20
Nsg21
F0.33983383231667197
sg22
F0.346
sg23
Nsg24
Nsg25
I0
ssg26
I01
sg27
I01
sba(iSong
Song
p2740
(dp2741
g3
(dp2742
g5
F0.931
sg6
VMe and the Devil Blues
p2743
sg8
F0.328724
sg9
F0.111
sg10
S'blues'
p2744
sg12
F0.0873
sg13
VRobert Johnson
p2745
sg15
I9999
sg16
F0.717
sg17
Nsg18
F0.7699166666666667
sg19
Nsg20
Nsg21
F0.33983383231667197
sg22
F0.15
sg23
Nsg24
Nsg25
F0.000163
ssg26
I01
sg27
I01
sba(iSong
Song
p2746
(dp2747
g3
(dp2748
g5
F0.995
sg6
VEvil Devil Woman Blues
p2749
sg8
F0.580356
sg9
F0.0708
sg10
S'blues'
p2750
sg12
F0.0541
sg13
VMemphis Minnie & Kansas Joe
p2751
sg15
I9999
sg16
F0.476
sg17
Nsg18
F0.7293833333333334
sg19
Nsg20
Nsg21
F0.33983383231667197
sg22
F0.495
sg23
Nsg24
Nsg25
F0.00912
ssg26
I01
sg27
I01
sba(iSong
Song
p2752
(dp2753
g3
(dp2754
g5
F0.763
sg6
VBlue Guitar
p2755
sg8
F0.275216
sg9
F0.325
sg10
S'blues'
p2756
sg12
F0.0305
sg13
VEarl Hooker
p2757
sg15
I9999
sg16
F0.515
sg17
Nsg18
F0.7750333333333334
sg19
Nsg20
Nsg21
F0.33983383231667197
sg22
F0.553
sg23
Nsg24
Nsg25
F0.912
ssg26
I01
sg27
I01
sba(iSong
Song
p2758
(dp2759
g3
(dp2760
g5
F0.994
sg6
VBlue Guitar Stomp
p2761
sg8
F0.7308680000000001
sg9
F0.162
sg10
S'blues'
p2762
sg12
F0.055
sg13
VBuddy Burton & Fats Hudson
p2763
sg15
I9999
sg16
F0.533
sg17
Nsg18
F0.7371
sg19
Nsg20
Nsg21
F0.33983383231667197
sg22
F0.764
sg23
Nsg24
Nsg25
F0.671
ssg26
I01
sg27
I01
sba(iSong
Song
p2764
(dp2765
g3
(dp2766
g5
F0.673
sg6
VBlue Guitar
p2767
sg8
F0.717068
sg9
F0.203
sg10
S'blues'
p2768
sg12
F0.0407
sg13
VWillie Kent
p2769
sg15
I9999
sg16
F0.425
sg17
Nsg18
F0.7355
sg19
Nsg20
Nsg21
F0.33983383231667197
sg22
F0.457
sg23
Nsg24
Nsg25
F0.849
ssg26
I01
sg27
I01
sba(iSong
Song
p2770
(dp2771
g3
(dp2772
g5
F0.767
sg6
VEvil Woman
p2773
sg8
F0.455852
sg9
F0.271
sg10
S'blues'
p2774
sg12
F0.0667
sg13
VChampion Jack Dupree
p2775
sg15
I9999
sg16
F0.545
sg17
Nsg18
F0.7051666666666667
sg19
Nsg20
Nsg21
F0.33983383231667197
sg22
F0.679
sg23
Nsg24
Nsg25
F6e-06
ssg26
I01
sg27
I01
sba(iSong
Song
p2776
(dp2777
g3
(dp2778
g5
F0.901
sg6
VI Put A Spell On You
p2779
sg8
F0.696732
sg9
F0.384
sg10
S'blues'
p2780
sg12
F0.0321
sg13
VJesse Cook
p2781
sg15
I9999
sg16
F0.43
sg17
Nsg18
F0.847
sg19
Nsg20
Nsg21
F0.33983383231667197
sg22
F0.304
sg23
Nsg24
Nsg25
F0.0481
ssg26
I01
sg27
I01
sba(iSong
Song
p2782
(dp2783
g3
(dp2784
g5
F0.157
sg6
VDon't You Lie To Me (I Get Evil) - 2002 - Remaster
p2785
sg8
F0.5919840000000001
sg9
F0.829
sg10
S'blues'
p2786
sg12
F0.0792
sg13
VGary Moore
p2787
sg15
I9999
sg16
F0.598
sg17
Nsg18
F0.8581333333333333
sg19
Nsg20
Nsg21
F0.33983383231667197
sg22
F0.777
sg23
Nsg24
Nsg25
F6.78e-06
ssg26
I01
sg27
I01
sba(iSong
Song
p2788
(dp2789
g3
(dp2790
g5
F0.315
sg6
VStanding At The Crossroads
p2791
sg8
F0.39846800000000004
sg9
F0.765
sg10
S'blues'
p2792
sg12
F0.0331
sg13
VElmore James
p2793
sg15
I9999
sg16
F0.632
sg17
Nsg18
F0.9237166666666667
sg19
Nsg20
Nsg21
F0.33983383231667197
sg22
F0.95
sg23
Nsg24
Nsg25
F0.000246
ssg26
I01
sg27
I01
sba(iSong
Song
p2794
(dp2795
g3
(dp2796
g5
F0.489
sg6
VEvil Is Going On
p2797
sg8
F0.37486
sg9
F0.284
sg10
S'blues'
p2798
sg12
F0.0668
sg13
VJohn Hammond
p2799
sg15
I9999
sg16
F0.622
sg17
Nsg18
F0.7723166666666667
sg19
Nsg20
Nsg21
F0.33983383231667197
sg22
F0.671
sg23
Nsg24
Nsg25
F0.0744
ssg26
I01
sg27
I01
sba(iSong
Song
p2800
(dp2801
g3
(dp2802
g5
F0.446
sg6
VSweet Love and Evil Women
p2803
sg8
F0.42793200000000003
sg9
F0.715
sg10
S'blues'
p2804
sg12
F0.0482
sg13
VJohnny Winter
p2805
sg15
I9999
sg16
F0.597
sg17
Nsg18
F0.77215
sg19
Nsg20
Nsg21
F0.33983383231667197
sg22
F0.772
sg23
Nsg24
Nsg25
F0.454
ssg26
I01
sg27
I01
sba(iSong
Song
p2806
(dp2807
g3
(dp2808
g5
F0.989
sg6
VCross And Evil Woman Blues
p2809
sg8
F0.585844
sg9
F0.0976
sg10
S'blues'
p2810
sg12
F0.0611
sg13
VRev. Blind Gary Davis
p2811
sg15
I9999
sg16
F0.586
sg17
Nsg18
F0.706
sg19
Nsg20
Nsg21
F0.33983383231667197
sg22
F0.841
sg23
Nsg24
Nsg25
F0.0472
ssg26
I01
sg27
I01
sba(iSong
Song
p2812
(dp2813
g3
(dp2814
g5
F0.911
sg6
VEvil Hearted Woman - Alternate Take
p2815
sg8
F0.26414
sg9
F0.254
sg10
S'blues'
p2816
sg12
F0.0639
sg13
VT-Bone Walker
p2817
sg15
I9999
sg16
F0.582
sg17
Nsg18
F0.8060333333333334
sg19
Nsg20
Nsg21
F0.33983383231667197
sg22
F0.551
sg23
Nsg24
Nsg25
F0.0208
ssg26
I01
sg27
I01
sba(iSong
Song
p2818
(dp2819
g3
(dp2820
g5
F0.987
sg6
VEvil Blues
p2821
sg8
F0.797712
sg9
F0.0757
sg10
S'blues'
p2822
sg12
F0.0478
sg13
VMelvin "Lil' Son" Jackson
p2823
sg15
I9999
sg16
F0.599
sg17
Nsg18
F0.7867
sg19
Nsg20
Nsg21
F0.33983383231667197
sg22
F0.641
sg23
Nsg24
Nsg25
F0.00555
ssg26
I01
sg27
I01
sba(iSong
Song
p2824
(dp2825
g3
(dp2826
g5
F0.781
sg6
VMean and Evil
p2827
sg8
F0.383036
sg9
F0.269
sg10
S'blues'
p2828
sg12
F0.0633
sg13
VElmore James
p2829
sg15
I9999
sg16
F0.738
sg17
Nsg18
F0.7622333333333333
sg19
Nsg20
Nsg21
F0.33983383231667197
sg22
F0.679
sg23
Nsg24
Nsg25
F0.071
ssg26
I01
sg27
I01
sba(iSong
Song
p2830
(dp2831
g3
(dp2832
g5
F0.992
sg6
VBlue And Evil Blues - Remastered - 1997
p2833
sg8
F0.325852
sg9
F0.165
sg10
S'blues'
p2834
sg12
F0.0488
sg13
VTampa Red
p2835
sg15
I9999
sg16
F0.593
sg17
Nsg18
F0.7722833333333334
sg19
Nsg20
Nsg21
F0.33983383231667197
sg22
F0.455
sg23
Nsg24
Nsg25
F0.0374
ssg26
I01
sg27
I01
sba(iSong
Song
p2836
(dp2837
g3
(dp2838
g5
F0.986
sg6
VBlack And Evil Blues
p2839
sg8
F0.447988
sg9
F0.0851
sg10
S'blues'
p2840
sg12
F0.0759
sg13
VJosh White
p2841
sg15
I9999
sg16
F0.731
sg17
Nsg18
F0.755
sg19
Nsg20
Nsg21
F0.33983383231667197
sg22
F0.641
sg23
Nsg24
Nsg25
F9.63e-05
ssg26
I01
sg27
I01
sba(iSong
Song
p2842
(dp2843
g3
(dp2844
g5
F0.746
sg6
VDevil Don't Want Me Blues
p2845
sg8
F0.345888
sg9
F0.469
sg10
S'blues'
p2846
sg12
F0.0305
sg13
VTristan Omand
p2847
sg15
I9999
sg16
F0.583
sg17
Nsg18
F0.8987166666666667
sg19
Nsg20
Nsg21
F0.33983383231667197
sg22
F0.357
sg23
Nsg24
Nsg25
F0.00322
ssg26
I01
sg27
I01
sba(iSong
Song
p2848
(dp2849
g3
(dp2850
g5
F0.0109
sg6
VShe's Got The Devil In Her
p2851
sg8
F0.47656400000000004
sg9
F0.9
sg10
S'blues'
p2852
sg12
F0.095
sg13
VBuddy Guy
p2853
sg15
I9999
sg16
F0.441
sg17
Nsg18
F0.9328333333333333
sg19
Nsg20
Nsg21
F0.33983383231667197
sg22
F0.465
sg23
Nsg24
Nsg25
F0.462
ssg26
I01
sg27
I01
sba(iSong
Song
p2854
(dp2855
g3
(dp2856
g5
F0.917
sg6
VPreachin' Blues (Up Jumped the Devil)
p2857
sg8
F0.5536599999999999
sg9
F0.313
sg10
S'blues'
p2858
sg12
F0.0526
sg13
VRobert Johnson
p2859
sg15
I9999
sg16
F0.665
sg17
Nsg18
F0.7468666666666667
sg19
Nsg20
Nsg21
F0.33983383231667197
sg22
F0.531
sg23
Nsg24
Nsg25
F0.0118
ssg26
I01
sg27
I01
sba(iSong
Song
p2860
(dp2861
g3
(dp2862
g5
F0.000119
sg6
VDevil In My Closet
p2863
sg8
F0.324072
sg9
F0.495
sg10
S'blues'
p2864
sg12
F0.0344
sg13
VJohn Campbell
p2865
sg15
I9999
sg16
F0.353
sg17
Nsg18
F0.8082833333333334
sg19
Nsg20
Nsg21
F0.33983383231667197
sg22
F0.567
sg23
Nsg24
Nsg25
F0.0119
ssg26
I01
sg27
I01
sba(iSong
Song
p2866
(dp2867
g3
(dp2868
g5
F0.718
sg6
VBlue Devil Jump
p2869
sg8
F0.428056
sg9
F0.349
sg10
S'blues'
p2870
sg12
F0.0362
sg13
VJay McShann
p2871
sg15
I9999
sg16
F0.732
sg17
Nsg18
F0.8435666666666667
sg19
Nsg20
Nsg21
F0.33983383231667197
sg22
F0.77
sg23
Nsg24
Nsg25
F0.245
ssg26
I01
sg27
I01
sba(iSong
Song
p2872
(dp2873
g3
(dp2874
g5
F0.927
sg6
VCrossroads
p2875
sg8
F0.369596
sg9
F0.356
sg10
S'blues'
p2876
sg12
F0.0458
sg13
VDavid "Honeyboy" Edwards
p2877
sg15
I9999
sg16
F0.537
sg17
Nsg18
F0.8566666666666667
sg19
Nsg20
Nsg21
F0.33983383231667197
sg22
F0.312
sg23
Nsg24
Nsg25
F0.0653
ssg26
I01
sg27
I01
sba(iSong
Song
p2878
(dp2879
g3
(dp2880
g5
F0.0959
sg6
VDon't Give The Devil No Ground
p2881
sg8
F0.42842399999999997
sg9
F0.945
sg10
S'blues'
p2882
sg12
F0.048
sg13
VJames & Lucky Peterson
p2883
sg15
I9999
sg16
F0.662
sg17
Nsg18
F0.9227166666666666
sg19
Nsg20
Nsg21
F0.33983383231667197
sg22
F0.874
sg23
Nsg24
Nsg25
F0.000886
ssg26
I01
sg27
I01
sba(iSong
Song
p2884
(dp2885
g3
(dp2886
g5
F0.597
sg6
VDealin' With the Devil
p2887
sg8
F0.329736
sg9
F0.713
sg10
S'blues'
p2888
sg12
F0.114
sg13
VMuddy Waters
p2889
sg15
I9999
sg16
F0.365
sg17
Nsg18
F0.8835999999999999
sg19
Nsg20
Nsg21
F0.33983383231667197
sg22
F0.324
sg23
Nsg24
Nsg25
F2.07e-05
ssg26
I01
sg27
I01
sba(iSong
Song
p2890
(dp2891
g3
(dp2892
g5
F0.0451
sg6
VWhen The Devil Starts Crying
p2893
sg8
F0.560868
sg9
F0.799
sg10
S'blues'
p2894
sg12
F0.0459
sg13
VJohn Mayall & The Bluesbreakers
p2895
sg15
I9999
sg16
F0.481
sg17
Nsg18
F0.8650333333333333
sg19
Nsg20
Nsg21
F0.33983383231667197
sg22
F0.745
sg23
Nsg24
Nsg25
F0.000438
ssg26
I01
sg27
I01
sba(iSong
Song
p2896
(dp2897
g3
(dp2898
g5
F0.942
sg6
VDevil's Dream
p2899
sg8
F0.419416
sg9
F0.0971
sg10
S'blues'
p2900
sg12
F0.0528
sg13
VRev. Gary Davis
p2901
sg15
I9999
sg16
F0.578
sg17
Nsg18
F0.6088333333333333
sg19
Nsg20
Nsg21
F0.33983383231667197
sg22
F0.699
sg23
Nsg24
Nsg25
F0.805
ssg26
I01
sg27
I01
sba(iSong
Song
p2902
(dp2903
g3
(dp2904
g5
F0.161
sg6
VShe Wasn't Nothin' But a Devil
p2905
sg8
F0.495976
sg9
F0.831
sg10
S'blues'
p2906
sg12
F0.12
sg13
VJohn Lee Hooker, Jr.
p2907
sg15
I9999
sg16
F0.418
sg17
Nsg18
F0.9628666666666666
sg19
Nsg20
Nsg21
F0.33983383231667197
sg22
F0.76
sg23
Nsg24
Nsg25
I0
ssg26
I01
sg27
I01
sba(iSong
Song
p2908
(dp2909
g3
(dp2910
g5
F0.841
sg6
VDevil Got My Woman
p2911
sg8
F0.305496
sg9
F0.202
sg10
S'blues'
p2912
sg12
F0.0407
sg13
VSkip James
p2913
sg15
I9999
sg16
F0.597
sg17
Nsg18
F0.8050666666666667
sg19
Nsg20
Nsg21
F0.33983383231667197
sg22
F0.521
sg23
Nsg24
Nsg25
F1.44e-06
ssg26
I01
sg27
I01
sba(iSong
Song
p2914
(dp2915
g3
(dp2916
g5
F0.966
sg6
VSay No to the Devil
p2917
sg8
F0.688532
sg9
F0.201
sg10
S'blues'
p2918
sg12
F0.0495
sg13
VRev. Gary Davis
p2919
sg15
I9999
sg16
F0.559
sg17
Nsg18
F0.7750666666666667
sg19
Nsg20
Nsg21
F0.33983383231667197
sg22
F0.627
sg23
Nsg24
Nsg25
F0.00496
ssg26
I01
sg27
I01
sba(iSong
Song
p2920
(dp2921
g3
(dp2922
g5
F0.471
sg6
VOld Devil Moon
p2923
sg8
F0.5738759999999999
sg9
F0.714
sg10
S'blues'
p2924
sg12
F0.0307
sg13
VMickey Baker
p2925
sg15
I9999
sg16
F0.5
sg17
Nsg18
F0.8675166666666667
sg19
Nsg20
Nsg21
F0.33983383231667197
sg22
F0.872
sg23
Nsg24
Nsg25
F0.531
ssg26
I01
sg27
I01
sba(iSong
Song
p2926
(dp2927
g3
(dp2928
g5
F0.865
sg6
VDevil Is Watching You
p2929
sg8
F0.441872
sg9
F0.424
sg10
S'blues'
p2930
sg12
F0.041
sg13
VLightnin' Hopkins
p2931
sg15
I9999
sg16
F0.559
sg17
Nsg18
F0.8480166666666666
sg19
Nsg20
Nsg21
F0.33983383231667197
sg22
F0.385
sg23
Nsg24
Nsg25
F0.00118
ssg26
I01
sg27
I01
sba(iSong
Song
p2932
(dp2933
g3
(dp2934
g5
F0.979
sg6
VBlue Devil Blues
p2935
sg8
F0.303488
sg9
F0.0132
sg10
S'blues'
p2936
sg12
F0.086
sg13
VTexas Alexander
p2937
sg15
I9999
sg16
F0.541
sg17
Nsg18
F0.5938
sg19
Nsg20
Nsg21
F0.33983383231667197
sg22
F0.319
sg23
Nsg24
Nsg25
F1.95e-05
ssg26
I01
sg27
I01
sba(iSong
Song
p2938
(dp2939
g3
(dp2940
g5
F0.0995
sg6
VShoot The Devil
p2941
sg8
F0.47992
sg9
F0.72
sg10
S'blues'
p2942
sg12
F0.0357
sg13
VDavid Jacobs-Strain
p2943
sg15
I9999
sg16
F0.561
sg17
Nsg18
F0.9353833333333333
sg19
Nsg20
Nsg21
F0.33983383231667197
sg22
F0.472
sg23
Nsg24
Nsg25
F7.83e-06
ssg26
I01
sg27
I01
sba(iSong
Song
p2944
(dp2945
g3
(dp2946
g5
F0.322
sg6
VCrossroads - Remastered Version
p2947
sg8
F0.545492
sg9
F0.736
sg10
S'blues'
p2948
sg12
F0.0481
sg13
VRy Cooder
p2949
sg15
I9999
sg16
F0.632
sg17
Nsg18
F0.7675833333333333
sg19
Nsg20
Nsg21
F0.33983383231667197
sg22
F0.744
sg23
Nsg24
Nsg25
I0
ssg26
I01
sg27
I01
sba(iSong
Song
p2950
(dp2951
g3
(dp2952
g5
F0.417
sg6
VShake Hands With The Devil
p2953
sg8
F0.454428
sg9
F0.479
sg10
S'blues'
p2954
sg12
F0.0338
sg13
VKenny Parker
p2955
sg15
I9999
sg16
F0.472
sg17
Nsg18
F0.75065
sg19
Nsg20
Nsg21
F0.33983383231667197
sg22
F0.619
sg23
Nsg24
Nsg25
F0.00519
ssg26
I01
sg27
I01
sba(iSong
Song
p2956
(dp2957
g3
(dp2958
g5
F0.868
sg6
VThe Devil With The Devil
p2959
sg8
F0.35492
sg9
F0.2
sg10
S'blues'
p2960
sg12
F0.106
sg13
VThe Golden Gate Quartet
p2961
sg15
I9999
sg16
F0.419
sg17
Nsg18
F0.68245
sg19
Nsg20
Nsg21
F0.33983383231667197
sg22
F0.48
sg23
Nsg24
Nsg25
F0.827
ssg26
I01
sg27
I01
sba(iSong
Song
p2962
(dp2963
g3
(dp2964
g5
F0.876
sg6
VGwine Dig A Hole To Put The Devil In (142-B-1)
p2965
sg8
F0.49842000000000003
sg9
F0.916
sg10
S'blues'
p2966
sg12
F0.393
sg13
VLead Belly
p2967
sg15
I9999
sg16
F0.668
sg17
Nsg18
F0.8649166666666666
sg19
Nsg20
Nsg21
F0.33983383231667197
sg22
F0.671
sg23
Nsg24
Nsg25
F0.00584
ssg26
I01
sg27
I01
sba(iSong
Song
p2968
(dp2969
g3
(dp2970
g5
F0.865
sg6
VDevil Got My Woman
p2971
sg8
F0.37056
sg9
F0.265
sg10
S'blues'
p2972
sg12
F0.03
sg13
VPaul Geremia
p2973
sg15
I9999
sg16
F0.497
sg17
Nsg18
F0.7651
sg19
Nsg20
Nsg21
F0.33983383231667197
sg22
F0.474
sg23
Nsg24
Nsg25
F0.000585
ssg26
I01
sg27
I01
sba(iSong
Song
p2974
(dp2975
g3
(dp2976
g5
F0.345
sg6
VCrossRoads
p2977
sg8
F0.571496
sg9
F0.591
sg10
S'blues'
p2978
sg12
F0.0337
sg13
VElmore James
p2979
sg15
I9999
sg16
F0.358
sg17
Nsg18
F0.7318333333333332
sg19
Nsg20
Nsg21
F0.33983383231667197
sg22
F0.885
sg23
Nsg24
Nsg25
F0.00251
ssg26
I01
sg27
I01
sba(iSong
Song
p2980
(dp2981
g3
(dp2982
g5
F0.984
sg6
VThe Devil Is A Busy Man
p2983
sg8
F0.277628
sg9
F0.635
sg10
S'blues'
p2984
sg12
F0.558
sg13
VJ.B. Lenoir, Sunny Land Slim and Friends
p2985
sg15
I9999
sg16
F0.557
sg17
Nsg18
F0.8802166666666668
sg19
Nsg20
Nsg21
F0.33983383231667197
sg22
F0.586
sg23
Nsg24
Nsg25
F0.0118
ssg26
I01
sg27
I01
sba(iSong
Song
p2986
(dp2987
g3
(dp2988
g5
F0.208
sg6
VCrossroads - Crossroad 2 Box/Set Version/Live Version
p2989
sg8
F0.370968
sg9
F0.637
sg10
S'blues'
p2990
sg12
F0.0308
sg13
VEric Clapton
p2991
sg15
I9999
sg16
F0.542
sg17
Nsg18
F0.7700166666666667
sg19
Nsg20
Nsg21
F0.33983383231667197
sg22
F0.835
sg23
Nsg24
Nsg25
F0.277
ssg26
I01
sg27
I01
sba(iSong
Song
p2992
(dp2993
g3
(dp2994
g5
F0.971
sg6
VDevil Sent The Rain Blues
p2995
sg8
F0.731604
sg9
F0.166
sg10
S'blues'
p2996
sg12
F0.0406
sg13
VCharley Patton
p2997
sg15
I9999
sg16
F0.485
sg17
Nsg18
F0.7462833333333333
sg19
Nsg20
Nsg21
F0.33983383231667197
sg22
F0.336
sg23
Nsg24
Nsg25
F0.813
ssg26
I01
sg27
I01
sba(iSong
Song
p2998
(dp2999
g3
(dp3000
g5
F0.951
sg6
VDealing With The Devil
p3001
sg8
F0.32982
sg9
F0.272
sg10
S'blues'
p3002
sg12
F0.0524
sg13
VBrownie McGhee
p3003
sg15
I9999
sg16
F0.645
sg17
Nsg18
F0.7396166666666667
sg19
Nsg20
Nsg21
F0.33983383231667197
sg22
F0.903
sg23
Nsg24
Nsg25
F0.00252
ssg26
I01
sg27
I01
sba(iSong
Song
p3004
(dp3005
g3
(dp3006
g5
F0.777
sg6
VCrossroads
p3007
sg8
F0.42388
sg9
F0.255
sg10
S'blues'
p3008
sg12
F0.0399
sg13
VTracy Chapman
p3009
sg15
I9999
sg16
F0.787
sg17
Nsg18
F0.75445
sg19
Nsg20
Nsg21
F0.33983383231667197
sg22
F0.6
sg23
Nsg24
Nsg25
F0.00959
ssg26
I01
sg27
I01
sba(iSong
Song
p3010
(dp3011
g3
(dp3012
g5
F0.686
sg6
VLady Weeping at the Crossroads
p3013
sg8
F0.315496
sg9
F0.253
sg10
S'blues'
p3014
sg12
F0.0403
sg13
VCarla Bruni
p3015
sg15
I9999
sg16
F0.59
sg17
Nsg18
F0.7752
sg19
Nsg20
Nsg21
F0.33983383231667197
sg22
F0.139
sg23
Nsg24
Nsg25
F1.59e-05
ssg26
I01
sg27
I01
sba(iSong
Song
p3016
(dp3017
g3
(dp3018
g5
F0.953
sg6
VHellhound On My Trail - Take 1-Complete Master Version/Remix
p3019
sg8
F0.263296
sg9
F0.063
sg10
S'blues'
p3020
sg12
F0.039
sg13
VFleetwood Mac
p3021
sg15
I9999
sg16
F0.388
sg17
Nsg18
F0.7320833333333333
sg19
Nsg20
Nsg21
F0.33983383231667197
sg22
F0.286
sg23
Nsg24
Nsg25
F0.00851
ssg26
I01
sg27
I01
sba(iSong
Song
p3022
(dp3023
g3
(dp3024
g5
F0.261
sg6
VBoom Boom
p3025
sg8
F0.622936
sg9
F0.388
sg10
S'blues'
p3026
sg12
F0.247
sg13
VJohn Lee Hooker
p3027
sg15
I9999
sg16
F0.632
sg17
Nsg18
F0.7852833333333334
sg19
Nsg20
Nsg21
F0.33983383231667197
sg22
F0.825
sg23
Nsg24
Nsg25
F0.00688
ssg26
I01
sg27
I01
sba(iSong
Song
p3028
(dp3029
g3
(dp3030
g5
F0.0406
sg6
VMustang Sally
p3031
sg8
F0.429092
sg9
F0.934
sg10
S'blues'
p3032
sg12
F0.0342
sg13
VBuddy Guy
p3033
sg15
I9999
sg16
F0.613
sg17
Nsg18
F0.93815
sg19
Nsg20
Nsg21
F0.33983383231667197
sg22
F0.776
sg23
Nsg24
Nsg25
F0.000313
ssg26
I01
sg27
I01
sba(iSong
Song
p3034
(dp3035
g3
(dp3036
g5
F0.262
sg6
VMilkcow's Calf Blues
p3037
sg8
F0.6758959999999999
sg9
F0.758
sg10
S'blues'
p3038
sg12
F0.0286
sg13
VEric Clapton
p3039
sg15
I9999
sg16
F0.458
sg17
Nsg18
F0.8967833333333334
sg19
Nsg20
Nsg21
F0.33983383231667197
sg22
F0.784
sg23
Nsg24
Nsg25
F0.000504
ssg26
I01
sg27
I01
sba(iSong
Song
p3040
(dp3041
g3
(dp3042
g5
F0.561
sg6
VWorld's In A Tangle
p3043
sg8
F0.41374
sg9
F0.369
sg10
S'blues'
p3044
sg12
F0.0536
sg13
VFleetwood Mac
p3045
sg15
I9999
sg16
F0.521
sg17
Nsg18
F0.7704500000000001
sg19
Nsg20
Nsg21
F0.33983383231667197
sg22
F0.536
sg23
Nsg24
Nsg25
F0.0772
ssg26
I01
sg27
I01
sba(iSong
Song
p3046
(dp3047
g3
(dp3048
g5
F0.704
sg6
VHound Dog
p3049
sg8
F0.533252
sg9
F0.542
sg10
S'blues'
p3050
sg12
F0.0977
sg13
VBig Mama Thornton
p3051
sg15
I9999
sg16
F0.552
sg17
Nsg18
F0.8189666666666666
sg19
Nsg20
Nsg21
F0.33983383231667197
sg22
F0.784
sg23
Nsg24
Nsg25
F3.59e-05
ssg26
I01
sg27
I01
sba(iSong
Song
p3052
(dp3053
g3
(dp3054
g5
F0.142
sg6
VPut The Pot On
p3055
sg8
F0.4774
sg9
F0.616
sg10
S'blues'
p3056
sg12
F0.0448
sg13
VKoko Taylor
p3057
sg15
I9999
sg16
F0.64
sg17
Nsg18
F0.8259666666666666
sg19
Nsg20
Nsg21
F0.33983383231667197
sg22
F0.844
sg23
Nsg24
Nsg25
F3e-05
ssg26
I01
sg27
I01
sba(iSong
Song
p3058
(dp3059
g3
(dp3060
g5
F0.468
sg6
VI Just Want To Make Love To You
p3061
sg8
F0.32356799999999997
sg9
F0.347
sg10
S'blues'
p3062
sg12
F0.0503
sg13
VMuddy Waters
p3063
sg15
I9999
sg16
F0.565
sg17
Nsg18
F0.8433666666666667
sg19
Nsg20
Nsg21
F0.33983383231667197
sg22
F0.238
sg23
Nsg24
Nsg25
F5.73e-06
ssg26
I01
sg27
I01
sba(iSong
Song
p3064
(dp3065
g3
(dp3066
g5
F0.951
sg6
VMy Babe - Single Version
p3067
sg8
F0.6381760000000001
sg9
F0.403
sg10
S'blues'
p3068
sg12
F0.0434
sg13
VLittle Walter
p3069
sg15
I9999
sg16
F0.606
sg17
Nsg18
F0.8583833333333334
sg19
Nsg20
Nsg21
F0.33983383231667197
sg22
F0.844
sg23
Nsg24
Nsg25
I0
ssg26
I01
sg27
I01
sba(iSong
Song
p3070
(dp3071
g3
(dp3072
g5
F0.701
sg6
VShake Your Money Maker
p3073
sg8
F0.405528
sg9
F0.659
sg10
S'blues'
p3074
sg12
F0.0416
sg13
VElmore James
p3075
sg15
I9999
sg16
F0.502
sg17
Nsg18
F0.8754500000000001
sg19
Nsg20
Nsg21
F0.33983383231667197
sg22
F0.841
sg23
Nsg24
Nsg25
F0.000225
ssg26
I01
sg27
I01
sba(iSong
Song
p3076
(dp3077
g3
(dp3078
g5
F0.575
sg6
VThe Hunter
p3079
sg8
F0.5348440000000001
sg9
F0.287
sg10
S'blues'
p3080
sg12
F0.0352
sg13
VAlbert King
p3081
sg15
I9999
sg16
F0.8
sg17
Nsg18
F0.7081166666666666
sg19
Nsg20
Nsg21
F0.33983383231667197
sg22
F0.748
sg23
Nsg24
Nsg25
F0.000768
ssg26
I01
sg27
I01
sba(iSong
Song
p3082
(dp3083
g3
(dp3084
g5
F0.266
sg6
VTen Long Years
p3085
sg8
F0.39106799999999997
sg9
F0.551
sg10
S'blues'
p3086
sg12
F0.0261
sg13
VEric Clapton
p3087
sg15
I9999
sg16
F0.678
sg17
Nsg18
F0.8778
sg19
Nsg20
Nsg21
F0.33983383231667197
sg22
F0.767
sg23
Nsg24
Nsg25
F0.00322
ssg26
I01
sg27
I01
sba(iSong
Song
p3088
(dp3089
g3
(dp3090
g5
F0.15
sg6
VThird Degree
p3091
sg8
F0.805836
sg9
F0.571
sg10
S'blues'
p3092
sg12
F0.0414
sg13
VJohnny Winter
p3093
sg15
I9999
sg16
F0.257
sg17
Nsg18
F0.79695
sg19
Nsg20
Nsg21
F0.33983383231667197
sg22
F0.832
sg23
Nsg24
Nsg25
F0.0207
ssg26
I01
sg27
I01
sba(iSong
Song
p3094
(dp3095
g3
(dp3096
g5
F0.44
sg6
VMannish Boy
p3097
sg8
F0.444516
sg9
F0.735
sg10
S'blues'
p3098
sg12
F0.0973
sg13
VMuddy Waters
p3099
sg15
I9999
sg16
F0.598
sg17
Nsg18
F0.8186333333333333
sg19
Nsg20
Nsg21
F0.33983383231667197
sg22
F0.615
sg23
Nsg24
Nsg25
F0.000215
ssg26
I01
sg27
I01
sba(iSong
Song
p3100
(dp3101
g3
(dp3102
g5
F0.76
sg6
VDriftin' Blues
p3103
sg8
F0.685988
sg9
F0.453
sg10
S'blues'
p3104
sg12
F0.0466
sg13
VBobby "Blue" Bland
p3105
sg15
I9999
sg16
F0.437
sg17
Nsg18
F0.8866833333333334
sg19
Nsg20
Nsg21
F0.33983383231667197
sg22
F0.456
sg23
Nsg24
Nsg25
F2.07e-06
ssg26
I01
sg27
I01
sba(iSong
Song
p3106
(dp3107
g3
(dp3108
g5
F0.934
sg6
VEmpty Arms
p3109
sg8
F0.561784
sg9
F0.447
sg10
S'blues'
p3110
sg12
F0.0501
sg13
VEddie Boyd
p3111
sg15
I9999
sg16
F0.705
sg17
Nsg18
F0.8112166666666667
sg19
Nsg20
Nsg21
F0.33983383231667197
sg22
F0.547
sg23
Nsg24
Nsg25
F0.172
ssg26
I01
sg27
I01
sba(iSong
Song
p3112
(dp3113
g3
(dp3114
g5
F0.639
sg6
VAvailable Space
p3115
sg8
F0.5895520000000001
sg9
F0.434
sg10
S'blues'
p3116
sg12
F0.0379
sg13
VRy Cooder
p3117
sg15
I9999
sg16
F0.568
sg17
Nsg18
F0.7638333333333333
sg19
Nsg20
Nsg21
F0.33983383231667197
sg22
F0.694
sg23
Nsg24
Nsg25
F0.626
ssg26
I01
sg27
I01
sba(iSong
Song
p3118
(dp3119
g3
(dp3120
g5
F0.458
sg6
VAm I Wrong
p3121
sg8
F0.4506
sg9
F0.476
sg10
S'blues'
p3122
sg12
F0.0528
sg13
VKeb' Mo'
p3123
sg15
I9999
sg16
F0.882
sg17
Nsg18
F0.8460833333333333
sg19
Nsg20
Nsg21
F0.33983383231667197
sg22
F0.964
sg23
Nsg24
Nsg25
F2.47e-06
ssg26
I01
sg27
I01
sba(iSong
Song
p3124
(dp3125
g3
(dp3126
g5
F0.109
sg6
VOne Scotch, One Bourbon, One Beer - Bonus track
p3127
sg8
F0.702824
sg9
F0.668
sg10
S'blues'
p3128
sg12
F0.0538
sg13
VChampion Jack Dupree
p3129
sg15
I9999
sg16
F0.431
sg17
Nsg18
F0.8717666666666666
sg19
Nsg20
Nsg21
F0.33983383231667197
sg22
F0.901
sg23
Nsg24
Nsg25
F0.000157
ssg26
I01
sg27
I01
sba(iSong
Song
p3130
(dp3131
g3
(dp3132
g5
F0.00614
sg6
VBad To The Bone
p3133
sg8
F0.596916
sg9
F0.727
sg10
S'blues'
p3134
sg12
F0.0303
sg13
VGeorge Thorogood & The Destroyers
p3135
sg15
I9999
sg16
F0.459
sg17
Nsg18
F0.8037166666666666
sg19
Nsg20
Nsg21
F0.33983383231667197
sg22
F0.954
sg23
Nsg24
Nsg25
F0.065
ssg26
I01
sg27
I01
sba(iSong
Song
p3136
(dp3137
g3
(dp3138
g5
F0.0984
sg6
VSnatch It Back And Hold It
p3139
sg8
F0.546852
sg9
F0.408
sg10
S'blues'
p3140
sg12
F0.167
sg13
VJunior Wells
p3141
sg15
I9999
sg16
F0.765
sg17
Nsg18
F0.7820166666666667
sg19
Nsg20
Nsg21
F0.33983383231667197
sg22
F0.891
sg23
Nsg24
Nsg25
I0
ssg26
I01
sg27
I01
sba(iSong
Song
p3142
(dp3143
g3
(dp3144
g5
F0.544
sg6
VMadison Blues
p3145
sg8
F0.466368
sg9
F0.813
sg10
S'blues'
p3146
sg12
F0.148
sg13
VFleetwood Mac
p3147
sg15
I9999
sg16
F0.453
sg17
Nsg18
F0.8425166666666667
sg19
Nsg20
Nsg21
F0.33983383231667197
sg22
F0.517
sg23
Nsg24
Nsg25
F0.0222
ssg26
I01
sg27
I01
sba(iSong
Song
p3148
(dp3149
g3
(dp3150
g5
F0.0459
sg6
VGoing Down - 2000 - Remastered
p3151
sg8
F0.670608
sg9
F0.669
sg10
S'blues'
p3152
sg12
F0.0311
sg13
VFreddie King
p3153
sg15
I9999
sg16
F0.555
sg17
Nsg18
F0.8756666666666667
sg19
Nsg20
Nsg21
F0.33983383231667197
sg22
F0.691
sg23
Nsg24
Nsg25
F0.000521
ssg26
I01
sg27
I01
sba(iSong
Song
p3154
(dp3155
g3
(dp3156
g5
F0.33
sg6
VWalking The Backstreets And Crying
p3157
sg8
F0.493008
sg9
F0.256
sg10
S'blues'
p3158
sg12
F0.0622
sg13
VLittle Milton
p3159
sg15
I9999
sg16
F0.724
sg17
Nsg18
F0.7370666666666668
sg19
Nsg20
Nsg21
F0.33983383231667197
sg22
F0.442
sg23
Nsg24
Nsg25
F0.00181
ssg26
I01
sg27
I01
sba(iSong
Song
p3160
(dp3161
g3
(dp3162
g5
F0.705
sg6
VGood Morning Little School Girl
p3163
sg8
F0.350508
sg9
F0.306
sg10
S'blues'
p3164
sg12
F0.0652
sg13
VMuddy Waters
p3165
sg15
I9999
sg16
F0.767
sg17
Nsg18
F0.755
sg19
Nsg20
Nsg21
F0.33983383231667197
sg22
F0.56
sg23
Nsg24
Nsg25
F0.00545
ssg26
I01
sg27
I01
sba(iSong
Song
p3166
(dp3167
g3
(dp3168
g5
F0.68
sg6
VIt Hurt So Bad
p3169
sg8
F0.831736
sg9
F0.518
sg10
S'blues'
p3170
sg12
F0.0949
sg13
VSusan Tedeschi
p3171
sg15
I9999
sg16
F0.354
sg17
Nsg18
F0.8979666666666667
sg19
Nsg20
Nsg21
F0.33983383231667197
sg22
F0.528
sg23
Nsg24
Nsg25
F3.46e-05
ssg26
I01
sg27
I01
sba(iSong
Song
p3172
(dp3173
g3
(dp3174
g5
F0.707
sg6
VMean Old Frisco Blues
p3175
sg8
F0.430848
sg9
F0.757
sg10
S'blues'
p3176
sg12
F0.0267
sg13
VMuddy Waters
p3177
sg15
I9999
sg16
F0.686
sg17
Nsg18
F0.8777166666666666
sg19
Nsg20
Nsg21
F0.33983383231667197
sg22
F0.896
sg23
Nsg24
Nsg25
F0.000153
ssg26
I01
sg27
I01
sba(iSong
Song
p3178
(dp3179
g3
(dp3180
g5
F0.0114
sg6
VSo Many Roads
p3181
sg8
F0.585832
sg9
F0.756
sg10
S'blues'
p3182
sg12
F0.039
sg13
VJoe Bonamassa
p3183
sg15
I9999
sg16
F0.29
sg17
Nsg18
F0.9098666666666666
sg19
Nsg20
Nsg21
F0.33983383231667197
sg22
F0.546
sg23
Nsg24
Nsg25
F0.148
ssg26
I01
sg27
I01
sba(iSong
Song
p3184
(dp3185
g3
(dp3186
g5
F0.285
sg6
VHolding You Up For Love
p3187
sg8
F0.38988
sg9
F0.727
sg10
S'blues'
p3188
sg12
F0.0264
sg13
VOtis Grand
p3189
sg15
I9999
sg16
F0.554
sg17
Nsg18
F0.8644666666666667
sg19
Nsg20
Nsg21
F0.33983383231667197
sg22
F0.582
sg23
Nsg24
Nsg25
F7.79e-06
ssg26
I01
sg27
I01
sba(iSong
Song
p3190
(dp3191
g3
(dp3192
g5
F0.687
sg6
VAll The Way
p3193
sg8
F0.6873640000000001
sg9
F0.398
sg10
S'blues'
p3194
sg12
F0.0607
sg13
VThe Robert Cray Band
p3195
sg15
I9999
sg16
F0.563
sg17
Nsg18
F0.7858666666666667
sg19
Nsg20
Nsg21
F0.33983383231667197
sg22
F0.364
sg23
Nsg24
Nsg25
F0.00246
ssg26
I01
sg27
I01
sba(iSong
Song
p3196
(dp3197
g3
(dp3198
g5
F0.795
sg6
VNine Below Zero - 1961 Single Version
p3199
sg8
F0.394208
sg9
F0.535
sg10
S'blues'
p3200
sg12
F0.0351
sg13
VSonny Boy Williamson II
p3201
sg15
I9999
sg16
F0.56
sg17
Nsg18
F0.9186333333333334
sg19
Nsg20
Nsg21
F0.33983383231667197
sg22
F0.677
sg23
Nsg24
Nsg25
F0.00184
ssg26
I01
sg27
I01
sba(iSong
Song
p3202
(dp3203
g3
(dp3204
g5
F0.0792
sg6
VBlues for Mrs. Pauline / Leave My Boy Alown
p3205
sg8
F0.69486
sg9
F0.752
sg10
S'blues'
p3206
sg12
F0.1
sg13
VAna Popovic
p3207
sg15
I9999
sg16
F0.364
sg17
Nsg18
F0.9062833333333333
sg19
Nsg20
Nsg21
F0.33983383231667197
sg22
F0.636
sg23
Nsg24
Nsg25
F1.57e-05
ssg26
I01
sg27
I01
sba(iSong
Song
p3208
(dp3209
g3
(dp3210
g5
F0.0496
sg6
VTime Has Come
p3211
sg8
F0.38444799999999996
sg9
F0.564
sg10
S'blues'
p3212
sg12
F0.0337
sg13
VJoanne Shaw Taylor
p3213
sg15
I9999
sg16
F0.569
sg17
Nsg18
F0.8776666666666666
sg19
Nsg20
Nsg21
F0.33983383231667197
sg22
F0.526
sg23
Nsg24
Nsg25
F0.0138
ssg26
I01
sg27
I01
sba(iSong
Song
p3214
(dp3215
g3
(dp3216
g5
F0.0377
sg6
VFarther On Up the Road - 2012 Remastered Version
p3217
sg8
F0.460804
sg9
F0.918
sg10
S'blues'
p3218
sg12
F0.173
sg13
VRobin Trower
p3219
sg15
I9999
sg16
F0.469
sg17
Nsg18
F0.8902666666666667
sg19
Nsg20
Nsg21
F0.33983383231667197
sg22
F0.77
sg23
Nsg24
Nsg25
F0.000392
ssg26
I01
sg27
I01
sba(iSong
Song
p3220
(dp3221
g3
(dp3222
g5
F0.011
sg6
VSittin On Top Of The World
p3223
sg8
F0.6530560000000001
sg9
F0.924
sg10
S'blues'
p3224
sg12
F0.0561
sg13
VWalter Trout
p3225
sg15
I9999
sg16
F0.167
sg17
Nsg18
F0.9022
sg19
Nsg20
Nsg21
F0.33983383231667197
sg22
F0.555
sg23
Nsg24
Nsg25
F0.0593
ssg26
I01
sg27
I01
sba(iSong
Song
p3226
(dp3227
g3
(dp3228
g5
F0.561
sg6
VLie To Me
p3229
sg8
F0.449512
sg9
F0.684
sg10
S'blues'
p3230
sg12
F0.043
sg13
VJonny Lang
p3231
sg15
I9999
sg16
F0.615
sg17
Nsg18
F0.8553499999999999
sg19
Nsg20
Nsg21
F0.33983383231667197
sg22
F0.894
sg23
Nsg24
Nsg25
F0.000492
ssg26
I01
sg27
I01
sba(iSong
Song
p3232
(dp3233
g3
(dp3234
g5
F0.13
sg6
VBlues I Believe to My Soul
p3235
sg8
F0.595828
sg9
F0.612
sg10
S'blues'
p3236
sg12
F0.0572
sg13
VHumble Pie
p3237
sg15
I9999
sg16
F0.328
sg17
Nsg18
F0.8595
sg19
Nsg20
Nsg21
F0.33983383231667197
sg22
F0.433
sg23
Nsg24
Nsg25
F0.000599
ssg26
I01
sg27
I01
sba(iSong
Song
p3238
(dp3239
g3
(dp3240
g5
F0.978
sg6
VGood Morning, Little Schoolgirl
p3241
sg8
F0.369244
sg9
F0.137
sg10
S'blues'
p3242
sg12
F0.117
sg13
VSonny Boy Williamson II
p3243
sg15
I9999
sg16
F0.577
sg17
Nsg18
F0.6981499999999999
sg19
Nsg20
Nsg21
F0.33983383231667197
sg22
F0.823
sg23
Nsg24
Nsg25
F0.0134
ssg26
I01
sg27
I01
sba(iSong
Song
p3244
(dp3245
g3
(dp3246
g5
F0.818
sg6
VKokomo Blues
p3247
sg8
F0.4298
sg9
F0.247
sg10
S'blues'
p3248
sg12
F0.0385
sg13
VMississippi Fred McDowell
p3249
sg15
I9999
sg16
F0.554
sg17
Nsg18
F0.73405
sg19
Nsg20
Nsg21
F0.33983383231667197
sg22
F0.466
sg23
Nsg24
Nsg25
F8.38e-06
ssg26
I01
sg27
I01
sba(iSong
Song
p3250
(dp3251
g3
(dp3252
g5
F0.511
sg6
VThe Man Who Hated Mornings
p3253
sg8
F0.25582
sg9
F0.578
sg10
S'blues'
p3254
sg12
F0.0372
sg13
VMichael Chapman
p3255
sg15
I9999
sg16
F0.514
sg17
Nsg18
F0.8565333333333333
sg19
Nsg20
Nsg21
F0.33983383231667197
sg22
F0.492
sg23
Nsg24
Nsg25
F0.0533
ssg26
I01
sg27
I01
sba(iSong
Song
p3256
(dp3257
g3
(dp3258
g5
F0.0671
sg6
VI Ain't Superstitious (feat. Eric Clapton)
p3259
sg8
F0.385668
sg9
F0.853
sg10
S'blues'
p3260
sg12
F0.0346
sg13
VHowlin' Wolf
p3261
sg15
I9999
sg16
F0.59
sg17
Nsg18
F0.8703166666666667
sg19
Nsg20
Nsg21
F0.33983383231667197
sg22
F0.806
sg23
Nsg24
Nsg25
F0.000204
ssg26
I01
sg27
I01
sba(iSong
Song
p3262
(dp3263
g3
(dp3264
g5
F0.0472
sg6
VSmokestack Lightnin'
p3265
sg8
F0.74188
sg9
F0.657
sg10
S'blues'
p3266
sg12
F0.0639
sg13
VThe Groundhogs
p3267
sg15
I9999
sg16
F0.388
sg17
Nsg18
F0.8303999999999999
sg19
Nsg20
Nsg21
F0.33983383231667197
sg22
F0.905
sg23
Nsg24
Nsg25
F0.00198
ssg26
I01
sg27
I01
sba(iSong
Song
p3268
(dp3269
g3
(dp3270
g5
F0.0995
sg6
VSince I've Been Loving You - "In Concert" Live Version From BBC Sessions
p3271
sg8
F0.5137480000000001
sg9
F0.67
sg10
S'blues'
p3272
sg12
F0.0545
sg13
VLed Zeppelin
p3273
sg15
I9999
sg16
F0.376
sg17
Nsg18
F0.8687666666666666
sg19
Nsg20
Nsg21
F0.33983383231667197
sg22
F0.348
sg23
Nsg24
Nsg25
F0.00831
ssg26
I01
sg27
I01
sba(iSong
Song
p3274
(dp3275
g3
(dp3276
g5
F0.118
sg6
VHideaway
p3277
sg8
F0.490664
sg9
F0.71
sg10
S'blues'
p3278
sg12
F0.065
sg13
VFreddie King
p3279
sg15
I9999
sg16
F0.658
sg17
Nsg18
F0.80845
sg19
Nsg20
Nsg21
F0.33983383231667197
sg22
F0.899
sg23
Nsg24
Nsg25
F0.862
ssg26
I01
sg27
I01
sba(iSong
Song
p3280
(dp3281
g3
(dp3282
g5
F0.888
sg6
VHow Many More Years
p3283
sg8
F0.439316
sg9
F0.444
sg10
S'blues'
p3284
sg12
F0.136
sg13
VHowlin' Wolf
p3285
sg15
I9999
sg16
F0.677
sg17
Nsg18
F0.7066333333333332
sg19
Nsg20
Nsg21
F0.33983383231667197
sg22
F0.53
sg23
Nsg24
Nsg25
F0.00821
ssg26
I01
sg27
I01
sba(iSong
Song
p3286
(dp3287
g3
(dp3288
g5
F0.354
sg6
VI'm Ready - 2000 Digital Remaster
p3289
sg8
F0.528924
sg9
F0.716
sg10
S'blues'
p3290
sg12
F0.0933
sg13
VFreddie King
p3291
sg15
I9999
sg16
F0.466
sg17
Nsg18
F0.87915
sg19
Nsg20
Nsg21
F0.33983383231667197
sg22
F0.859
sg23
Nsg24
Nsg25
F0.000125
ssg26
I01
sg27
I01
sba(iSong
Song
p3292
(dp3293
g3
(dp3294
g5
F0.0226
sg6
VThe Sky Is Crying
p3295
sg8
F0.7127640000000001
sg9
F0.611
sg10
S'blues'
p3296
sg12
F0.0348
sg13
VElmore James
p3297
sg15
I9999
sg16
F0.294
sg17
Nsg18
F0.8955333333333333
sg19
Nsg20
Nsg21
F0.33983383231667197
sg22
F0.567
sg23
Nsg24
Nsg25
F0.435
ssg26
I01
sg27
I01
sba(iSong
Song
p3298
(dp3299
g3
(dp3300
g5
F0.824
sg6
VAlabama Blues
p3301
sg8
F0.389784
sg9
F0.308
sg10
S'blues'
p3302
sg12
F0.0348
sg13
VJ.B. Lenoir
p3303
sg15
I9999
sg16
F0.675
sg17
Nsg18
F0.8653166666666666
sg19
Nsg20
Nsg21
F0.33983383231667197
sg22
F0.69
sg23
Nsg24
Nsg25
F3.75e-05
ssg26
I01
sg27
I01
sba(iSong
Song
p3304
(dp3305
g3
(dp3306
g5
F0.67
sg6
VI'm Your Hoochie Coochie Man
p3307
sg8
F0.455792
sg9
F0.588
sg10
S'blues'
p3308
sg12
F0.0665
sg13
VMuddy Waters
p3309
sg15
I9999
sg16
F0.542
sg17
Nsg18
F0.8455333333333334
sg19
Nsg20
Nsg21
F0.33983383231667197
sg22
F0.881
sg23
Nsg24
Nsg25
F0.158
ssg26
I01
sg27
I01
sba(iSong
Song
p3310
(dp3311
g3
(dp3312
g5
F0.943
sg6
VTake It Easy Baby
p3313
sg8
F0.646712
sg9
F0.254
sg10
S'blues'
p3314
sg12
F0.0485
sg13
VPinetop Perkins
p3315
sg15
I9999
sg16
F0.575
sg17
Nsg18
F0.7801333333333333
sg19
Nsg20
Nsg21
F0.33983383231667197
sg22
F0.526
sg23
Nsg24
Nsg25
F2.34e-05
ssg26
I01
sg27
I01
sba(iSong
Song
p3316
(dp3317
g3
(dp3318
g5
F0.944
sg6
VSomeday (Electric)
p3319
sg8
F0.376788
sg9
F0.333
sg10
S'blues'
p3320
sg12
F0.032
sg13
VOtis Spann
p3321
sg15
I9999
sg16
F0.581
sg17
Nsg18
F0.7631833333333333
sg19
Nsg20
Nsg21
F0.33983383231667197
sg22
F0.488
sg23
Nsg24
Nsg25
F0.472
ssg26
I01
sg27
I01
sba(iSong
Song
p3322
(dp3323
g3
(dp3324
g5
F0.0876
sg6
VInto the Blues
p3325
sg8
F0.48022000000000004
sg9
F0.544
sg10
S'blues'
p3326
sg12
F0.0393
sg13
VJoan Armatrading
p3327
sg15
I9999
sg16
F0.77
sg17
Nsg18
F0.8920999999999999
sg19
Nsg20
Nsg21
F0.33983383231667197
sg22
F0.506
sg23
Nsg24
Nsg25
F0.00375
ssg26
I01
sg27
I01
sba(iSong
Song
p3328
(dp3329
g3
(dp3330
g5
F0.0589
sg6
VAlone In The Dark
p3331
sg8
F0.39236
sg9
F0.388
sg10
S'blues'
p3332
sg12
F0.0317
sg13
VJohn Hiatt
p3333
sg15
I9999
sg16
F0.611
sg17
Nsg18
F0.8169166666666666
sg19
Nsg20
Nsg21
F0.33983383231667197
sg22
F0.656
sg23
Nsg24
Nsg25
F0.000581
ssg26
I01
sg27
I01
sba(iSong
Song
p3334
(dp3335
g3
(dp3336
g5
F0.0535
sg6
VGet Lost
p3337
sg8
F0.496788
sg9
F0.781
sg10
S'blues'
p3338
sg12
F0.0862
sg13
VAl King
p3339
sg15
I9999
sg16
F0.347
sg17
Nsg18
F0.8636666666666667
sg19
Nsg20
Nsg21
F0.33983383231667197
sg22
F0.736
sg23
Nsg24
Nsg25
F7.74e-06
ssg26
I01
sg27
I01
sba(iSong
Song
p3340
(dp3341
g3
(dp3342
g5
F0.393
sg6
VBo Diddley
p3343
sg8
F0.421892
sg9
F0.753
sg10
S'blues'
p3344
sg12
F0.0572
sg13
VBo Diddley
p3345
sg15
I9999
sg16
F0.826
sg17
Nsg18
F0.86295
sg19
Nsg20
Nsg21
F0.33983383231667197
sg22
F0.48
sg23
Nsg24
Nsg25
I0
ssg26
I01
sg27
I01
sba(iSong
Song
p3346
(dp3347
g3
(dp3348
g5
F0.964
sg6
VCoffee Blues
p3349
sg8
F0.416932
sg9
F0.0785
sg10
S'blues'
p3350
sg12
F0.0503
sg13
VMississippi John Hurt
p3351
sg15
I9999
sg16
F0.61
sg17
Nsg18
F0.6576166666666666
sg19
Nsg20
Nsg21
F0.33983383231667197
sg22
F0.763
sg23
Nsg24
Nsg25
F0.00014
ssg26
I01
sg27
I01
sba(iSong
Song
p3352
(dp3353
g3
(dp3354
g5
F0.44
sg6
VMannish Boy
p3355
sg8
F0.444516
sg9
F0.735
sg10
S'blues'
p3356
sg12
F0.0973
sg13
VMuddy Waters
p3357
sg15
I9999
sg16
F0.598
sg17
Nsg18
F0.8186333333333333
sg19
Nsg20
Nsg21
F0.33983383231667197
sg22
F0.615
sg23
Nsg24
Nsg25
F0.000215
ssg26
I01
sg27
I01
sba(iSong
Song
p3358
(dp3359
g3
(dp3360
g5
F0.799
sg6
VSmokestack Lightnin'
p3361
sg8
F0.5845520000000001
sg9
F0.502
sg10
S'blues'
p3362
sg12
F0.0401
sg13
VHowlin' Wolf
p3363
sg15
I9999
sg16
F0.683
sg17
Nsg18
F0.8528333333333333
sg19
Nsg20
Nsg21
F0.33983383231667197
sg22
F0.5
sg23
Nsg24
Nsg25
F0.000116
ssg26
I01
sg27
I01
sba(iSong
Song
p3364
(dp3365
g3
(dp3366
g5
F0.651
sg6
VTwo Bugs And A Roach
p3367
sg8
F0.5411
sg9
F0.568
sg10
S'blues'
p3368
sg12
F0.0752
sg13
VEarl Hooker
p3369
sg15
I9999
sg16
F0.541
sg17
Nsg18
F0.7902666666666666
sg19
Nsg20
Nsg21
F0.33983383231667197
sg22
F0.815
sg23
Nsg24
Nsg25
F0.00563
ssg26
I01
sg27
I01
sba(iSong
Song
p3370
(dp3371
g3
(dp3372
g5
F0.369
sg6
VWang Dang Doodle - Single Version
p3373
sg8
F0.6111
sg9
F0.561
sg10
S'blues'
p3374
sg12
F0.199
sg13
VKoko Taylor
p3375
sg15
I9999
sg16
F0.655
sg17
Nsg18
F0.8523333333333334
sg19
Nsg20
Nsg21
F0.33983383231667197
sg22
F0.659
sg23
Nsg24
Nsg25
F5.04e-06
ssg26
I01
sg27
I01
sba(iSong
Song
p3376
(dp3377
g3
(dp3378
g5
F0.442
sg6
VHoodoo Man Blues
p3379
sg8
F0.415696
sg9
F0.324
sg10
S'blues'
p3380
sg12
F0.332
sg13
VJunior Wells
p3381
sg15
I9999
sg16
F0.708
sg17
Nsg18
F0.7792166666666667
sg19
Nsg20
Nsg21
F0.33983383231667197
sg22
F0.638
sg23
Nsg24
Nsg25
F0.000147
ssg26
I01
sg27
I01
sba(iSong
Song
p3382
(dp3383
g3
(dp3384
g5
F0.97
sg6
VI Can't Quit You Baby
p3385
sg8
F0.347808
sg9
F0.596
sg10
S'blues'
p3386
sg12
F0.0395
sg13
VOtis Rush
p3387
sg15
I9999
sg16
F0.492
sg17
Nsg18
F0.9327000000000001
sg19
Nsg20
Nsg21
F0.33983383231667197
sg22
F0.548
sg23
Nsg24
Nsg25
F0.043
ssg26
I01
sg27
I01
sba(iSong
Song
p3388
(dp3389
g3
(dp3390
g5
F0.843
sg6
VAll Your Love
p3391
sg8
F0.322492
sg9
F0.7
sg10
S'blues'
p3392
sg12
F0.163
sg13
VMagic Sam
p3393
sg15
I9999
sg16
F0.433
sg17
Nsg18
F0.8633833333333333
sg19
Nsg20
Nsg21
F0.33983383231667197
sg22
F0.8
sg23
Nsg24
Nsg25
F0.324
ssg26
I01
sg27
I01
sba(iSong
Song
p3394
(dp3395
g3
(dp3396
g5
F0.554
sg6
VThe Little Red Rooster
p3397
sg8
F0.490356
sg9
F0.29
sg10
S'blues'
p3398
sg12
F0.0374
sg13
VWillie Dixon
p3399
sg15
I9999
sg16
F0.477
sg17
Nsg18
F0.6989
sg19
Nsg20
Nsg21
F0.33983383231667197
sg22
F0.727
sg23
Nsg24
Nsg25
F0.178
ssg26
I01
sg27
I01
sba(iSong
Song
p3400
(dp3401
g3
(dp3402
g5
F0.978
sg6
VLast Night - Single Version
p3403
sg8
F0.41654
sg9
F0.406
sg10
S'blues'
p3404
sg12
F0.0518
sg13
VLittle Walter
p3405
sg15
I9999
sg16
F0.711
sg17
Nsg18
F0.8208666666666667
sg19
Nsg20
Nsg21
F0.33983383231667197
sg22
F0.484
sg23
Nsg24
Nsg25
F0.000997
ssg26
I01
sg27
I01
sba(iSong
Song
p3406
(dp3407
g3
(dp3408
g5
F0.67
sg6
VI'm Your Hoochie Coochie Man
p3409
sg8
F0.455792
sg9
F0.588
sg10
S'blues'
p3410
sg12
F0.0665
sg13
VMuddy Waters
p3411
sg15
I9999
sg16
F0.542
sg17
Nsg18
F0.8455333333333334
sg19
Nsg20
Nsg21
F0.33983383231667197
sg22
F0.881
sg23
Nsg24
Nsg25
F0.158
ssg26
I01
sg27
I01
sba(iSong
Song
p3412
(dp3413
g3
(dp3414
g5
F0.787
sg6
VFirst Time I Met The Blues
p3415
sg8
F0.409128
sg9
F0.818
sg10
S'blues'
p3416
sg12
F0.0455
sg13
VBuddy Guy
p3417
sg15
I9999
sg16
F0.414
sg17
Nsg18
F0.9007000000000001
sg19
Nsg20
Nsg21
F0.33983383231667197
sg22
F0.743
sg23
Nsg24
Nsg25
F0.00303
ssg26
I01
sg27
I01
sba(iSong
Song
p3418
(dp3419
g3
(dp3420
g5
F0.644
sg6
VThat's All Right - Single Version
p3421
sg8
F0.30272000000000004
sg9
F0.247
sg10
S'blues'
p3422
sg12
F0.0414
sg13
VJimmy Rogers
p3423
sg15
I9999
sg16
F0.481
sg17
Nsg18
F0.7777166666666666
sg19
Nsg20
Nsg21
F0.33983383231667197
sg22
F0.567
sg23
Nsg24
Nsg25
F2.81e-05
ssg26
I01
sg27
I01
sba(iSong
Song
p3424
(dp3425
g3
(dp3426
g5
F0.0226
sg6
VThe Sky Is Crying
p3427
sg8
F0.7127640000000001
sg9
F0.611
sg10
S'blues'
p3428
sg12
F0.0348
sg13
VElmore James
p3429
sg15
I9999
sg16
F0.294
sg17
Nsg18
F0.8955333333333333
sg19
Nsg20
Nsg21
F0.33983383231667197
sg22
F0.567
sg23
Nsg24
Nsg25
F0.435
ssg26
I01
sg27
I01
sba(iSong
Song
p3430
(dp3431
g3
(dp3432
g5
F0.687
sg6
VBack Door Man
p3433
sg8
F0.6312559999999999
sg9
F0.701
sg10
S'blues'
p3434
sg12
F0.094
sg13
VHowlin' Wolf
p3435
sg15
I9999
sg16
F0.562
sg17
Nsg18
F0.86565
sg19
Nsg20
Nsg21
F0.33983383231667197
sg22
F0.876
sg23
Nsg24
Nsg25
F1.43e-05
ssg26
I01
sg27
I01
sba(iSong
Song
p3436
(dp3437
g3
(dp3438
g5
F0.885
sg6
VDark Road
p3439
sg8
F0.278248
sg9
F0.513
sg10
S'blues'
p3440
sg12
F0.034
sg13
VEddie Taylor
p3441
sg15
I9999
sg16
F0.617
sg17
Nsg18
F0.7852666666666667
sg19
Nsg20
Nsg21
F0.33983383231667197
sg22
F0.626
sg23
Nsg24
Nsg25
F0.00108
ssg26
I01
sg27
I01
sba(iSong
Song
p3442
(dp3443
g3
(dp3444
g5
F0.284
sg6
VI'm A Man - Single Version
p3445
sg8
F0.509988
sg9
F0.54
sg10
S'blues'
p3446
sg12
F0.0462
sg13
VBo Diddley
p3447
sg15
I9999
sg16
F0.617
sg17
Nsg18
F0.7751
sg19
Nsg20
Nsg21
F0.33983383231667197
sg22
F0.86
sg23
Nsg24
Nsg25
I0
ssg26
I01
sg27
I01
sba(iSong
Song
p3448
(dp3449
g3
(dp3450
g5
F0.944
sg6
VSomeday (Electric)
p3451
sg8
F0.376788
sg9
F0.333
sg10
S'blues'
p3452
sg12
F0.032
sg13
VOtis Spann
p3453
sg15
I9999
sg16
F0.581
sg17
Nsg18
F0.7631833333333333
sg19
Nsg20
Nsg21
F0.33983383231667197
sg22
F0.488
sg23
Nsg24
Nsg25
F0.472
ssg26
I01
sg27
I01
sba(iSong
Song
p3454
(dp3455
g3
(dp3456
g5
F0.113
sg6
VRock Me Baby
p3457
sg8
F0.424408
sg9
F0.697
sg10
S'blues'
p3458
sg12
F0.045
sg13
VMighty Joe Young
p3459
sg15
I9999
sg16
F0.581
sg17
Nsg18
F0.8626833333333332
sg19
Nsg20
Nsg21
F0.33983383231667197
sg22
F0.906
sg23
Nsg24
Nsg25
F0.000924
ssg26
I01
sg27
I01
sba(iSong
Song
p3460
(dp3461
g3
(dp3462
g5
F0.886
sg6
VMy Babe - Single Version
p3463
sg8
F0.631548
sg9
F0.333
sg10
S'blues'
p3464
sg12
F0.0524
sg13
VLittle Walter
p3465
sg15
I9999
sg16
F0.684
sg17
Nsg18
F0.8252166666666666
sg19
Nsg20
Nsg21
F0.33983383231667197
sg22
F0.833
sg23
Nsg24
Nsg25
I0
ssg26
I01
sg27
I01
sba(iSong
Song
p3466
(dp3467
g3
(dp3468
g5
F0.561
sg6
VMadison Blues
p3469
sg8
F0.542452
sg9
F0.844
sg10
S'blues'
p3470
sg12
F0.0432
sg13
VElmore James
p3471
sg15
I9999
sg16
F0.496
sg17
Nsg18
F0.8953166666666666
sg19
Nsg20
Nsg21
F0.33983383231667197
sg22
F0.822
sg23
Nsg24
Nsg25
F0.193
ssg26
I01
sg27
I01
sba.