(lp0
(iSong
Song
p1
(dp2
S'attributes'
p3
(dp4
S'accousticness'
p5
F0.000545
sS'title'
p6
VI'm Glad Trouble Don't Last Always
p7
sS'tempo'
p8
F81.969
sS'energy'
p9
F0.522
sS'from_playlist'
p10
S'blues'
p11
sS'speechiness'
p12
F0.0232
sS'artist_name'
p13
VLuke Winslow-King
p14
sS'cluster_id'
p15
I9999
sS'danceability'
p16
F0.579
sS'end_of_fade_in'
p17
NsS'artist_familiarity'
p18
NsS'duration'
p19
NsS'loudness'
p20
F0.00811
sS'rec_value'
p21
F0.34035211461608245
sS'valence'
p22
F0.286
sS'start_of_fade_out'
p23
NsS'artist_hotness'
p24
NsS'instrumentalness'
p25
F-7.124
ssS'hasData'
p26
I01
sba(iSong
Song
p27
(dp28
g3
(dp29
g5
F0.228
sg6
VThousand Mile Night
p30
sg8
F140.652
sg9
F0.35
sg10
S'blues'
p31
sg12
F0.0471
sg13
VJonah Tolchin
p32
sg15
I9999
sg16
F0.584
sg17
Nsg18
Nsg19
Nsg20
F0.0719
sg21
F0.34035211461608245
sg22
F0.498
sg23
Nsg24
Nsg25
F-13.942
ssg26
I01
sba(iSong
Song
p33
(dp34
g3
(dp35
g5
F0.0234
sg6
VNo Good
p36
sg8
F108.525
sg9
F0.925
sg10
S'blues'
p37
sg12
F0.185
sg13
VKaleo
p38
sg15
I9999
sg16
F0.378
sg17
Nsg18
Nsg19
Nsg20
F0.00062
sg21
F0.34035211461608245
sg22
F0.584
sg23
Nsg24
Nsg25
F-3.781
ssg26
I01
sba(iSong
Song
p39
(dp40
g3
(dp41
g5
F0.351
sg6
VOn Our Own
p42
sg8
F104.755
sg9
F0.504
sg10
S'blues'
p43
sg12
F0.0267
sg13
VThe Suitcase Junket
p44
sg15
I9999
sg16
F0.509
sg17
Nsg18
Nsg19
Nsg20
F0.15
sg21
F0.34035211461608245
sg22
F0.327
sg23
Nsg24
Nsg25
F-6.789
ssg26
I01
sba(iSong
Song
p45
(dp46
g3
(dp47
g5
F0.383
sg6
VBad Things
p48
sg8
F80.806
sg9
F0.586
sg10
S'blues'
p49
sg12
F0.0375
sg13
VRayland Baxter
p50
sg15
I9999
sg16
F0.318
sg17
Nsg18
Nsg19
Nsg20
I0
sg21
F0.34035211461608245
sg22
F0.211
sg23
Nsg24
Nsg25
F-7.606
ssg26
I01
sba(iSong
Song
p51
(dp52
g3
(dp53
g5
F0.0286
sg6
VBottle Rocket
p54
sg8
F92.046
sg9
F0.634
sg10
S'blues'
p55
sg12
F0.0522
sg13
VThe Weeks
p56
sg15
I9999
sg16
F0.679
sg17
Nsg18
Nsg19
Nsg20
I0
sg21
F0.34035211461608245
sg22
F0.642
sg23
Nsg24
Nsg25
F-3.305
ssg26
I01
sba(iSong
Song
p57
(dp58
g3
(dp59
g5
F0.285
sg6
VIt Came to Me
p60
sg8
F117.097
sg9
F0.931
sg10
S'blues'
p61
sg12
F0.0388
sg13
VThe Barr Brothers
p62
sg15
I9999
sg16
F0.516
sg17
Nsg18
Nsg19
Nsg20
F0.013
sg21
F0.34035211461608245
sg22
F0.578
sg23
Nsg24
Nsg25
F-6.291
ssg26
I01
sba(iSong
Song
p63
(dp64
g3
(dp65
g5
F0.0245
sg6
VHades Pleads
p66
sg8
F164.823
sg9
F0.632
sg10
S'blues'
p67
sg12
F0.161
sg13
VParker Millsap
p68
sg15
I9999
sg16
F0.568
sg17
Nsg18
Nsg19
Nsg20
F0.000246
sg21
F0.34035211461608245
sg22
F0.711
sg23
Nsg24
Nsg25
F-6.958
ssg26
I01
sba(iSong
Song
p69
(dp70
g3
(dp71
g5
F0.479
sg6
VWhite House Road - OurVinyl Sessions
p72
sg8
F79.93
sg9
F0.41
sg10
S'blues'
p73
sg12
F0.0396
sg13
VTyler Childers
p74
sg15
I9999
sg16
F0.406
sg17
Nsg18
Nsg19
Nsg20
I0
sg21
F0.34035211461608245
sg22
F0.368
sg23
Nsg24
Nsg25
F-8.65
ssg26
I01
sba(iSong
Song
p75
(dp76
g3
(dp77
g5
F0.112
sg6
VSallisaw Blue
p78
sg8
F150.77
sg9
F0.866
sg10
S'blues'
p79
sg12
F0.0691
sg13
VJohn Moreland
p80
sg15
I9999
sg16
F0.395
sg17
Nsg18
Nsg19
Nsg20
F9.85e-06
sg21
F0.34035211461608245
sg22
F0.836
sg23
Nsg24
Nsg25
F-7.047
ssg26
I01
sba(iSong
Song
p81
(dp82
g3
(dp83
g5
F0.685
sg6
VThirty
p84
sg8
F162.581
sg9
F0.553
sg10
S'blues'
p85
sg12
F0.0552
sg13
VThe Weather Station
p86
sg15
I9999
sg16
F0.403
sg17
Nsg18
Nsg19
Nsg20
F3.85e-05
sg21
F0.34035211461608245
sg22
F0.543
sg23
Nsg24
Nsg25
F-8.738
ssg26
I01
sba(iSong
Song
p87
(dp88
g3
(dp89
g5
F0.115
sg6
VI Know
p90
sg8
F120.155
sg9
F0.908
sg10
S'blues'
p91
sg12
F0.0512
sg13
VShovels & Rope
p92
sg15
I9999
sg16
F0.545
sg17
Nsg18
Nsg19
Nsg20
I0
sg21
F0.34035211461608245
sg22
F0.391
sg23
Nsg24
Nsg25
F-6.548
ssg26
I01
sba(iSong
Song
p93
(dp94
g3
(dp95
g5
F0.0664
sg6
VLUCKY PENNY
p96
sg8
F127.979
sg9
F0.736
sg10
S'blues'
p97
sg12
F0.0481
sg13
VJD McPherson
p98
sg15
I9999
sg16
F0.698
sg17
Nsg18
Nsg19
Nsg20
F2.16e-05
sg21
F0.34035211461608245
sg22
F0.822
sg23
Nsg24
Nsg25
F-5.525
ssg26
I01
sba(iSong
Song
p99
(dp100
g3
(dp101
g5
F0.843
sg6
VIf I Was The Devil
p102
sg8
F89.712
sg9
F0.432
sg10
S'blues'
p103
sg12
F0.0362
sg13
VJustin Townes Earle
p104
sg15
I9999
sg16
F0.535
sg17
Nsg18
Nsg19
Nsg20
F0.0212
sg21
F0.34035211461608245
sg22
F0.287
sg23
Nsg24
Nsg25
F-12.438
ssg26
I01
sba(iSong
Song
p105
(dp106
g3
(dp107
g5
F0.00381
sg6
VCalifornia
p108
sg8
F124.678
sg9
F0.741
sg10
S'blues'
p109
sg12
F0.0326
sg13
VThe Delta Saints
p110
sg15
I9999
sg16
F0.585
sg17
Nsg18
Nsg19
Nsg20
F8.96e-06
sg21
F0.34035211461608245
sg22
F0.676
sg23
Nsg24
Nsg25
F-6.954
ssg26
I01
sba(iSong
Song
p111
(dp112
g3
(dp113
g5
F0.587
sg6
VBarleycorn
p114
sg8
F99.08
sg9
F0.422
sg10
S'blues'
p115
sg12
F0.0354
sg13
VJohnny Flynn
p116
sg15
I9999
sg16
F0.661
sg17
Nsg18
Nsg19
Nsg20
F0.132
sg21
F0.34035211461608245
sg22
F0.251
sg23
Nsg24
Nsg25
F-10.019
ssg26
I01
sba(iSong
Song
p117
(dp118
g3
(dp119
g5
F0.343
sg6
VSugar Daddy - Theme from Vinyl
p120
sg8
F81.971
sg9
F0.929
sg10
S'blues'
p121
sg12
F0.143
sg13
VSturgill Simpson
p122
sg15
I9999
sg16
F0.26
sg17
Nsg18
Nsg19
Nsg20
F0.0356
sg21
F0.34035211461608245
sg22
F0.358
sg23
Nsg24
Nsg25
F-5.841
ssg26
I01
sba(iSong
Song
p123
(dp124
g3
(dp125
g5
F0.02
sg6
VDidn't He Ramble
p126
sg8
F180.135
sg9
F0.764
sg10
S'blues'
p127
sg12
F0.0563
sg13
VGlen Hansard
p128
sg15
I9999
sg16
F0.257
sg17
Nsg18
Nsg19
Nsg20
F0.000685
sg21
F0.34035211461608245
sg22
F0.446
sg23
Nsg24
Nsg25
F-6.904
ssg26
I01
sba(iSong
Song
p129
(dp130
g3
(dp131
g5
F0.724
sg6
VProphet Story
p132
sg8
F92.382
sg9
F0.478
sg10
S'blues'
p133
sg12
F0.0274
sg13
VCobi
p134
sg15
I9999
sg16
F0.433
sg17
Nsg18
Nsg19
Nsg20
I0
sg21
F0.34035211461608245
sg22
F0.235
sg23
Nsg24
Nsg25
F-4.028
ssg26
I01
sba(iSong
Song
p135
(dp136
g3
(dp137
g5
F0.0325
sg6
VJust to Be with You
p138
sg8
F169.932
sg9
F0.739
sg10
S'blues'
p139
sg12
F0.0481
sg13
VAubrie Sellers
p140
sg15
I9999
sg16
F0.336
sg17
Nsg18
Nsg19
Nsg20
F5.9e-05
sg21
F0.34035211461608245
sg22
F0.578
sg23
Nsg24
Nsg25
F-5.394
ssg26
I01
sba(iSong
Song
p141
(dp142
g3
(dp143
g5
F0.717
sg6
VBlack Crow
p144
sg8
F131.312
sg9
F0.327
sg10
S'blues'
p145
sg12
F0.0687
sg13
VBrent Cobb
p146
sg15
I9999
sg16
F0.706
sg17
Nsg18
Nsg19
Nsg20
F0.0192
sg21
F0.34035211461608245
sg22
F0.632
sg23
Nsg24
Nsg25
F-11.603
ssg26
I01
sba(iSong
Song
p147
(dp148
g3
(dp149
g5
F0.456
sg6
VShelter
p150
sg8
F114.359
sg9
F0.299
sg10
S'blues'
p151
sg12
F0.0309
sg13
VDorothy
p152
sg15
I9999
sg16
F0.568
sg17
Nsg18
Nsg19
Nsg20
I0
sg21
F0.34035211461608245
sg22
F0.139
sg23
Nsg24
Nsg25
F-9.906
ssg26
I01
sba(iSong
Song
p153
(dp154
g3
(dp155
g5
F0.361
sg6
VSinking Down
p156
sg8
F142.093
sg9
F0.796
sg10
S'blues'
p157
sg12
F0.0461
sg13
VSon Volt
p158
sg15
I9999
sg16
F0.36
sg17
Nsg18
Nsg19
Nsg20
F0.392
sg21
F0.34035211461608245
sg22
F0.494
sg23
Nsg24
Nsg25
F-6.123
ssg26
I01
sba(iSong
Song
p159
(dp160
g3
(dp161
g5
F0.00385
sg6
VGot It Bad
p162
sg8
F171.274
sg9
F0.785
sg10
S'blues'
p163
sg12
F0.0505
sg13
VThe Sore Losers
p164
sg15
I9999
sg16
F0.263
sg17
Nsg18
Nsg19
Nsg20
F0.000272
sg21
F0.34035211461608245
sg22
F0.379
sg23
Nsg24
Nsg25
F-4.658
ssg26
I01
sba(iSong
Song
p165
(dp166
g3
(dp167
g5
F0.00252
sg6
VLift Me Up (Leave Me Here)
p168
sg8
F167.885
sg9
F0.767
sg10
S'blues'
p169
sg12
F0.0367
sg13
VBrent Cowles
p170
sg15
I9999
sg16
F0.4
sg17
Nsg18
Nsg19
Nsg20
F0.0334
sg21
F0.34035211461608245
sg22
F0.482
sg23
Nsg24
Nsg25
F-3.444
ssg26
I01
sba(iSong
Song
p171
(dp172
g3
(dp173
g5
F0.000477
sg6
VOh No
p174
sg8
F132.97
sg9
F0.978
sg10
S'blues'
p175
sg12
F0.22
sg13
VGoodbye June
p176
sg15
I9999
sg16
F0.259
sg17
Nsg18
Nsg19
Nsg20
F0.000314
sg21
F0.34035211461608245
sg22
F0.266
sg23
Nsg24
Nsg25
F-3.842
ssg26
I01
sba(iSong
Song
p177
(dp178
g3
(dp179
g5
F0.203
sg6
VI Own You
p180
sg8
F141.939
sg9
F0.721
sg10
S'blues'
p181
sg12
F0.0347
sg13
VMick Flannery
p182
sg15
I9999
sg16
F0.54
sg17
Nsg18
Nsg19
Nsg20
F5.83e-05
sg21
F0.34035211461608245
sg22
F0.346
sg23
Nsg24
Nsg25
F-6.05
ssg26
I01
sba(iSong
Song
p183
(dp184
g3
(dp185
g5
F0.0367
sg6
VHabbie Doobie
p186
sg8
F89.964
sg9
F0.723
sg10
S'blues'
p187
sg12
F0.0331
sg13
VThe Texas Gentlemen
p188
sg15
I9999
sg16
F0.51
sg17
Nsg18
Nsg19
Nsg20
F7.88e-05
sg21
F0.34035211461608245
sg22
F0.499
sg23
Nsg24
Nsg25
F-6.72
ssg26
I01
sba(iSong
Song
p189
(dp190
g3
(dp191
g5
F0.0283
sg6
VMy Church Is Black
p192
sg8
F106.055
sg9
F0.817
sg10
S'blues'
p193
sg12
F0.0343
sg13
VMe And That Man
p194
sg15
I9999
sg16
F0.39
sg17
Nsg18
Nsg19
Nsg20
F0.486
sg21
F0.34035211461608245
sg22
F0.323
sg23
Nsg24
Nsg25
F-2.949
ssg26
I01
sba(iSong
Song
p195
(dp196
g3
(dp197
g5
F0.185
sg6
VDon't Give Up
p198
sg8
F112.235
sg9
F0.689
sg10
S'blues'
p199
sg12
F0.0389
sg13
VSouthern Avenue
p200
sg15
I9999
sg16
F0.638
sg17
Nsg18
Nsg19
Nsg20
F2.91e-05
sg21
F0.34035211461608245
sg22
F0.555
sg23
Nsg24
Nsg25
F-4.54
ssg26
I01
sba(iSong
Song
p201
(dp202
g3
(dp203
g5
F0.0419
sg6
VLost on the Young
p204
sg8
F161.09
sg9
F0.738
sg10
S'blues'
p205
sg12
F0.0464
sg13
VBalto
p206
sg15
I9999
sg16
F0.267
sg17
Nsg18
Nsg19
Nsg20
F1.35e-06
sg21
F0.34035211461608245
sg22
F0.488
sg23
Nsg24
Nsg25
F-5.541
ssg26
I01
sba(iSong
Song
p207
(dp208
g3
(dp209
g5
F0.11
sg6
VPart One - Hey, No Pressure
p210
sg8
F151.265
sg9
F0.748
sg10
S'blues'
p211
sg12
F0.0522
sg13
VRay LaMontagne
p212
sg15
I9999
sg16
F0.434
sg17
Nsg18
Nsg19
Nsg20
F0.000273
sg21
F0.34035211461608245
sg22
F0.703
sg23
Nsg24
Nsg25
F-7.707
ssg26
I01
sba(iSong
Song
p213
(dp214
g3
(dp215
g5
F0.404
sg6
VBring Down The Wall
p216
sg8
F97.967
sg9
F0.392
sg10
S'blues'
p217
sg12
F0.034
sg13
VPiers Faccini
p218
sg15
I9999
sg16
F0.697
sg17
Nsg18
Nsg19
Nsg20
F0.00121
sg21
F0.34035211461608245
sg22
F0.725
sg23
Nsg24
Nsg25
F-10.105
ssg26
I01
sba(iSong
Song
p219
(dp220
g3
(dp221
g5
F0.0069
sg6
VSiren
p222
sg8
F98.195
sg9
F0.788
sg10
S'blues'
p223
sg12
F0.0625
sg13
VMonica Heldal
p224
sg15
I9999
sg16
F0.279
sg17
Nsg18
Nsg19
Nsg20
F0.048
sg21
F0.34035211461608245
sg22
F0.381
sg23
Nsg24
Nsg25
F-8.522
ssg26
I01
sba(iSong
Song
p225
(dp226
g3
(dp227
g5
F0.00253
sg6
VSomething\u2019s Got a Hold on Me
p228
sg8
F110.046
sg9
F0.333
sg10
S'blues'
p229
sg12
F0.0274
sg13
VAngel Snow
p230
sg15
I9999
sg16
F0.74
sg17
Nsg18
Nsg19
Nsg20
F0.0507
sg21
F0.34035211461608245
sg22
F0.266
sg23
Nsg24
Nsg25
F-11.64
ssg26
I01
sba(iSong
Song
p231
(dp232
g3
(dp233
g5
F0.144
sg6
VTrinity Lane
p234
sg8
F145.056
sg9
F0.811
sg10
S'blues'
p235
sg12
F0.027
sg13
VLilly Hiatt
p236
sg15
I9999
sg16
F0.578
sg17
Nsg18
Nsg19
Nsg20
F0.0054
sg21
F0.34035211461608245
sg22
F0.752
sg23
Nsg24
Nsg25
F-6.228
ssg26
I01
sba(iSong
Song
p237
(dp238
g3
(dp239
g5
F0.0134
sg6
VGood Evening
p240
sg8
F105.509
sg9
F0.606
sg10
S'blues'
p241
sg12
F0.0305
sg13
VQuaker City Night Hawks
p242
sg15
I9999
sg16
F0.527
sg17
Nsg18
Nsg19
Nsg20
F0.00029
sg21
F0.34035211461608245
sg22
F0.267
sg23
Nsg24
Nsg25
F-6.799
ssg26
I01
sba(iSong
Song
p243
(dp244
g3
(dp245
g5
F0.452
sg6
VCall It What It Is
p246
sg8
F66.234
sg9
F0.572
sg10
S'blues'
p247
sg12
F0.0357
sg13
VBen Harper And The Innocent Criminals
p248
sg15
I9999
sg16
F0.603
sg17
Nsg18
Nsg19
Nsg20
F5.39e-06
sg21
F0.34035211461608245
sg22
F0.465
sg23
Nsg24
Nsg25
F-7.745
ssg26
I01
sba(iSong
Song
p249
(dp250
g3
(dp251
g5
F0.0112
sg6
VFleet Foot
p252
sg8
F107.385
sg9
F0.957
sg10
S'blues'
p253
sg12
F0.259
sg13
VBlack Pistol Fire
p254
sg15
I9999
sg16
F0.348
sg17
Nsg18
Nsg19
Nsg20
I0
sg21
F0.34035211461608245
sg22
F0.216
sg23
Nsg24
Nsg25
F-3.833
ssg26
I01
sba(iSong
Song
p255
(dp256
g3
(dp257
g5
F0.0319
sg6
VRun Devil Run
p258
sg8
F174.694
sg9
F0.958
sg10
S'blues'
p259
sg12
F0.171
sg13
VCrowder
p260
sg15
I9999
sg16
F0.417
sg17
Nsg18
Nsg19
Nsg20
I0
sg21
F0.34035211461608245
sg22
F0.815
sg23
Nsg24
Nsg25
F-3.273
ssg26
I01
sba(iSong
Song
p261
(dp262
g3
(dp263
g5
F0.353
sg6
VChampagne And Reefer
p264
sg8
F121.251
sg9
F0.836
sg10
S'blues'
p265
sg12
F0.0451
sg13
VThe Devil Makes Three
p266
sg15
I9999
sg16
F0.735
sg17
Nsg18
Nsg19
Nsg20
F0.0143
sg21
F0.34035211461608245
sg22
F0.781
sg23
Nsg24
Nsg25
F-7.467
ssg26
I01
sba(iSong
Song
p267
(dp268
g3
(dp269
g5
F0.033
sg6
VPlunder
p270
sg8
F135.067
sg9
F0.828
sg10
S'blues'
p271
sg12
F0.0359
sg13
VThe Felice Brothers
p272
sg15
I9999
sg16
F0.383
sg17
Nsg18
Nsg19
Nsg20
F3.05e-05
sg21
F0.34035211461608245
sg22
F0.845
sg23
Nsg24
Nsg25
F-6.322
ssg26
I01
sba(iSong
Song
p273
(dp274
g3
(dp275
g5
F0.00016
sg6
VLeadfoot
p276
sg8
F137.089
sg9
F0.852
sg10
S'blues'
p277
sg12
F0.0499
sg13
VNo Sinner
p278
sg15
I9999
sg16
F0.345
sg17
Nsg18
Nsg19
Nsg20
F0.0165
sg21
F0.34035211461608245
sg22
F0.396
sg23
Nsg24
Nsg25
F-4.245
ssg26
I01
sba(iSong
Song
p279
(dp280
g3
(dp281
g5
F0.775
sg6
VIt Runs Together
p282
sg8
F103.983
sg9
F0.548
sg10
S'blues'
p283
sg12
F0.0555
sg13
VHard Working Americans
p284
sg15
I9999
sg16
F0.61
sg17
Nsg18
Nsg19
Nsg20
F0.0347
sg21
F0.34035211461608245
sg22
F0.413
sg23
Nsg24
Nsg25
F-10.408
ssg26
I01
sba(iSong
Song
p285
(dp286
g3
(dp287
g5
F0.0988
sg6
VGimme Something Good - Live At The Village
p288
sg8
F95.371
sg9
F0.791
sg10
S'blues'
p289
sg12
F0.0359
sg13
VRyan Adams
p290
sg15
I9999
sg16
F0.416
sg17
Nsg18
Nsg19
Nsg20
F0.383
sg21
F0.34035211461608245
sg22
F0.511
sg23
Nsg24
Nsg25
F-3.354
ssg26
I01
sba(iSong
Song
p291
(dp292
g3
(dp293
g5
F0.102
sg6
VWaiting for the Thunder
p294
sg8
F144.047
sg9
F0.805
sg10
S'blues'
p295
sg12
F0.0301
sg13
VBlackberry Smoke
p296
sg15
I9999
sg16
F0.582
sg17
Nsg18
Nsg19
Nsg20
F3.14e-06
sg21
F0.34035211461608245
sg22
F0.895
sg23
Nsg24
Nsg25
F-5.267
ssg26
I01
sba(iSong
Song
p297
(dp298
g3
(dp299
g5
F0.242
sg6
VFire
p300
sg8
F108.362
sg9
F0.625
sg10
S'blues'
p301
sg12
F0.0296
sg13
VBarns Courtney
p302
sg15
I9999
sg16
F0.552
sg17
Nsg18
Nsg19
Nsg20
F0.000558
sg21
F0.34035211461608245
sg22
F0.425
sg23
Nsg24
Nsg25
F-6.053
ssg26
I01
sba(iSong
Song
p303
(dp304
g3
(dp305
g5
F0.0928
sg6
VPretty Pimpin
p306
sg8
F91.117
sg9
F0.664
sg10
S'blues'
p307
sg12
F0.0281
sg13
VKurt Vile
p308
sg15
I9999
sg16
F0.566
sg17
Nsg18
Nsg19
Nsg20
F0.305
sg21
F0.34035211461608245
sg22
F0.764
sg23
Nsg24
Nsg25
F-9.081
ssg26
I01
sba(iSong
Song
p309
(dp310
g3
(dp311
g5
F0.0588
sg6
VWorking Poor
p312
sg8
F83.516
sg9
F0.396
sg10
S'blues'
p313
sg12
F0.0485
sg13
VFantastic Negrito
p314
sg15
I9999
sg16
F0.77
sg17
Nsg18
Nsg19
Nsg20
F0.000164
sg21
F0.34035211461608245
sg22
F0.567
sg23
Nsg24
Nsg25
F-17.04
ssg26
I01
sba(iSong
Song
p315
(dp316
g3
(dp317
g5
F0.00183
sg6
VSmoke Rising
p318
sg8
F135.173
sg9
F0.735
sg10
S'blues'
p319
sg12
F0.0266
sg13
VBrown Bird
p320
sg15
I9999
sg16
F0.572
sg17
Nsg18
Nsg19
Nsg20
F0.782
sg21
F0.34035211461608245
sg22
F0.599
sg23
Nsg24
Nsg25
F-6.042
ssg26
I01
sba(iSong
Song
p321
(dp322
g3
(dp323
g5
F0.0255
sg6
VRain Dance (feat. Bo Diddley)
p324
sg8
F187.617
sg9
F0.691
sg10
S'blues'
p325
sg12
F0.0499
sg13
VHollis Brown
p326
sg15
I9999
sg16
F0.563
sg17
Nsg18
Nsg19
Nsg20
F3.55e-05
sg21
F0.34035211461608245
sg22
F0.514
sg23
Nsg24
Nsg25
F-7.061
ssg26
I01
sba(iSong
Song
p327
(dp328
g3
(dp329
g5
F0.00625
sg6
VJack Is Back
p330
sg8
F131.999
sg9
F0.766
sg10
S'blues'
p331
sg12
F0.0419
sg13
VSonia Leigh
p332
sg15
I9999
sg16
F0.677
sg17
Nsg18
Nsg19
Nsg20
F0.000123
sg21
F0.34035211461608245
sg22
F0.589
sg23
Nsg24
Nsg25
F-7.98
ssg26
I01
sba(iSong
Song
p333
(dp334
g3
(dp335
g5
F0.00356
sg6
VHurry Up And Wait
p336
sg8
F122.995
sg9
F0.874
sg10
S'blues'
p337
sg12
F0.0511
sg13
VBen Miller Band
p338
sg15
I9999
sg16
F0.563
sg17
Nsg18
Nsg19
Nsg20
F0.528
sg21
F0.34035211461608245
sg22
F0.499
sg23
Nsg24
Nsg25
F-6.501
ssg26
I01
sba(iSong
Song
p339
(dp340
g3
(dp341
g5
F0.171
sg6
VSun Sets West
p342
sg8
F112.726
sg9
F0.698
sg10
S'blues'
p343
sg12
F0.0643
sg13
Vlittle hurricane
p344
sg15
I9999
sg16
F0.439
sg17
Nsg18
Nsg19
Nsg20
F3.73e-06
sg21
F0.34035211461608245
sg22
F0.815
sg23
Nsg24
Nsg25
F-6.764
ssg26
I01
sba(iSong
Song
p345
(dp346
g3
(dp347
g5
F0.0685
sg6
VDead Eyes
p348
sg8
F193.756
sg9
F0.635
sg10
S'blues'
p349
sg12
F0.056
sg13
VAdia Victoria
p350
sg15
I9999
sg16
F0.28
sg17
Nsg18
Nsg19
Nsg20
F0.121
sg21
F0.34035211461608245
sg22
F0.375
sg23
Nsg24
Nsg25
F-8.271
ssg26
I01
sba(iSong
Song
p351
(dp352
g3
(dp353
g5
F0.0062
sg6
VShape Shifter
p354
sg8
F130.03
sg9
F0.685
sg10
S'blues'
p355
sg12
F0.0294
sg13
VLera Lynn
p356
sg15
I9999
sg16
F0.806
sg17
Nsg18
Nsg19
Nsg20
F0.0831
sg21
F0.34035211461608245
sg22
F0.961
sg23
Nsg24
Nsg25
F-8.296
ssg26
I01
sba(iSong
Song
p357
(dp358
g3
(dp359
g5
F0.00104
sg6
VLet You Go
p360
sg8
F117.997
sg9
F0.616
sg10
S'blues'
p361
sg12
F0.0282
sg13
VGreat Peacock
p362
sg15
I9999
sg16
F0.616
sg17
Nsg18
Nsg19
Nsg20
F0.0806
sg21
F0.34035211461608245
sg22
F0.598
sg23
Nsg24
Nsg25
F-8.662
ssg26
I01
sba(iSong
Song
p363
(dp364
g3
(dp365
g5
F0.102
sg6
VI\u2019m a Raven (Shake Children)
p366
sg8
F170.436
sg9
F0.503
sg10
S'blues'
p367
sg12
F0.0275
sg13
VHiss Golden Messenger
p368
sg15
I9999
sg16
F0.503
sg17
Nsg18
Nsg19
Nsg20
I0
sg21
F0.34035211461608245
sg22
F0.867
sg23
Nsg24
Nsg25
F-7.497
ssg26
I01
sba(iSong
Song
p369
(dp370
g3
(dp371
g5
F0.115
sg6
VMy Babe
p372
sg8
F172.102
sg9
F0.79
sg10
S'blues'
p373
sg12
F0.0884
sg13
VWhitehorse
p374
sg15
I9999
sg16
F0.621
sg17
Nsg18
Nsg19
Nsg20
F1.32e-05
sg21
F0.34035211461608245
sg22
F0.947
sg23
Nsg24
Nsg25
F-4.464
ssg26
I01
sba(iSong
Song
p375
(dp376
g3
(dp377
g5
F0.00124
sg6
VVagabond
p378
sg8
F117.985
sg9
F0.842
sg10
S'blues'
p379
sg12
F0.0721
sg13
VAquila Young
p380
sg15
I9999
sg16
F0.624
sg17
Nsg18
Nsg19
Nsg20
F0.0124
sg21
F0.34035211461608245
sg22
F0.55
sg23
Nsg24
Nsg25
F-7.5
ssg26
I01
sba(iSong
Song
p381
(dp382
g3
(dp383
g5
F0.0078
sg6
VThe Hurricane's Eye
p384
sg8
F164.221
sg9
F0.658
sg10
S'blues'
p385
sg12
F0.0621
sg13
VJesse Roper
p386
sg15
I9999
sg16
F0.357
sg17
Nsg18
Nsg19
Nsg20
F0.00274
sg21
F0.34035211461608245
sg22
F0.227
sg23
Nsg24
Nsg25
F-8.197
ssg26
I01
sba(iSong
Song
p387
(dp388
g3
(dp389
g5
F0.144
sg6
VDon't Strike Me Down
p390
sg8
F154.866
sg9
F0.844
sg10
S'blues'
p391
sg12
F0.0463
sg13
VWilliam Elliott Whitmore
p392
sg15
I9999
sg16
F0.466
sg17
Nsg18
Nsg19
Nsg20
F3.65e-05
sg21
F0.34035211461608245
sg22
F0.45
sg23
Nsg24
Nsg25
F-5.949
ssg26
I01
sba(iSong
Song
p393
(dp394
g3
(dp395
g5
F0.426
sg6
VOn the Road Again
p396
sg8
F146.611
sg9
F0.414
sg10
S'blues'
p397
sg12
F0.0421
sg13
VJack Broadbent
p398
sg15
I9999
sg16
F0.408
sg17
Nsg18
Nsg19
Nsg20
F0.0535
sg21
F0.34035211461608245
sg22
F0.219
sg23
Nsg24
Nsg25
F-7.617
ssg26
I01
sba(iSong
Song
p399
(dp400
g3
(dp401
g5
F0.594
sg6
VOff The Ground
p402
sg8
F92.362
sg9
F0.694
sg10
S'blues'
p403
sg12
F0.0397
sg13
VThe Record Company
p404
sg15
I9999
sg16
F0.537
sg17
Nsg18
Nsg19
Nsg20
F0.241
sg21
F0.34035211461608245
sg22
F0.864
sg23
Nsg24
Nsg25
F-4.542
ssg26
I01
sba(iSong
Song
p405
(dp406
g3
(dp407
g5
F0.045
sg6
VSnake Eyes
p408
sg8
F93.251
sg9
F0.885
sg10
S'blues'
p409
sg12
F0.0472
sg13
VThe Wood Brothers
p410
sg15
I9999
sg16
F0.572
sg17
Nsg18
Nsg19
Nsg20
F1.78e-06
sg21
F0.34035211461608245
sg22
F0.649
sg23
Nsg24
Nsg25
F-5.339
ssg26
I01
sba(iSong
Song
p411
(dp412
g3
(dp413
g5
F0.437
sg6
VI Am A Man Of Constant Sorrow
p414
sg8
F89.998
sg9
F0.79
sg10
S'blues'
p415
sg12
F0.0253
sg13
VBlitzen Trapper
p416
sg15
I9999
sg16
F0.728
sg17
Nsg18
Nsg19
Nsg20
F2.46e-05
sg21
F0.34035211461608245
sg22
F0.894
sg23
Nsg24
Nsg25
F-5.072
ssg26
I01
sba(iSong
Song
p417
(dp418
g3
(dp419
g5
F0.124
sg6
VTrouble
p420
sg8
F142.061
sg9
F0.782
sg10
S'blues'
p421
sg12
F0.0391
sg13
VHamish Anderson
p422
sg15
I9999
sg16
F0.588
sg17
Nsg18
Nsg19
Nsg20
F0.13
sg21
F0.34035211461608245
sg22
F0.892
sg23
Nsg24
Nsg25
F-6.887
ssg26
I01
sba(iSong
Song
p423
(dp424
g3
(dp425
g5
F0.278
sg6
VGold to Glass
p426
sg8
F82.385
sg9
F0.648
sg10
S'blues'
p427
sg12
F0.146
sg13
VThe Revivalists
p428
sg15
I9999
sg16
F0.64
sg17
Nsg18
Nsg19
Nsg20
F2.84e-05
sg21
F0.34035211461608245
sg22
F0.398
sg23
Nsg24
Nsg25
F-7.709
ssg26
I01
sba(iSong
Song
p429
(dp430
g3
(dp431
g5
F0.373
sg6
VBlack and Blue
p432
sg8
F174.09
sg9
F0.726
sg10
S'blues'
p433
sg12
F0.0457
sg13
VThe Harpoonist & the Axe Murderer
p434
sg15
I9999
sg16
F0.539
sg17
Nsg18
Nsg19
Nsg20
F0.00327
sg21
F0.34035211461608245
sg22
F0.724
sg23
Nsg24
Nsg25
F-5.768
ssg26
I01
sba(iSong
Song
p435
(dp436
g3
(dp437
g5
F0.00818
sg6
VRide On / Right On
p438
sg8
F95.07
sg9
F0.582
sg10
S'blues'
p439
sg12
F0.0328
sg13
VPhosphorescent
p440
sg15
I9999
sg16
F0.539
sg17
Nsg18
Nsg19
Nsg20
F0.0717
sg21
F0.34035211461608245
sg22
F0.245
sg23
Nsg24
Nsg25
F-7.414
ssg26
I01
sba(iSong
Song
p441
(dp442
g3
(dp443
g5
F0.0751
sg6
VMockingbird
p444
sg8
F147.075
sg9
F0.806
sg10
S'blues'
p445
sg12
F0.0452
sg13
VQuaker City Night Hawks
p446
sg15
I9999
sg16
F0.35
sg17
Nsg18
Nsg19
Nsg20
F5.93e-05
sg21
F0.34035211461608245
sg22
F0.395
sg23
Nsg24
Nsg25
F-3.942
ssg26
I01
sba(iSong
Song
p447
(dp448
g3
(dp449
g5
F0.000183
sg6
VBetter Way
p450
sg8
F106.105
sg9
F0.67
sg10
S'blues'
p451
sg12
F0.0292
sg13
VKim Logan
p452
sg15
I9999
sg16
F0.477
sg17
Nsg18
Nsg19
Nsg20
F0.777
sg21
F0.34035211461608245
sg22
F0.323
sg23
Nsg24
Nsg25
F-6.162
ssg26
I01
sba(iSong
Song
p453
(dp454
g3
(dp455
g5
F0.000843
sg6
VBoone
p456
sg8
F169.981
sg9
F0.757
sg10
S'blues'
p457
sg12
F0.041
sg13
VThe Marcus King Band
p458
sg15
I9999
sg16
F0.357
sg17
Nsg18
Nsg19
Nsg20
F0.00435
sg21
F0.34035211461608245
sg22
F0.488
sg23
Nsg24
Nsg25
F-7.487
ssg26
I01
sba(iSong
Song
p459
(dp460
g3
(dp461
g5
F0.00855
sg6
VGrinder
p462
sg8
F161.933
sg9
F0.792
sg10
S'blues'
p463
sg12
F0.0363
sg13
VGary Clark Jr.
p464
sg15
I9999
sg16
F0.293
sg17
Nsg18
Nsg19
Nsg20
F0.0111
sg21
F0.34035211461608245
sg22
F0.697
sg23
Nsg24
Nsg25
F-3.747
ssg26
I01
sba(iSong
Song
p465
(dp466
g3
(dp467
g5
F0.843
sg6
VBoneyard - Edit
p468
sg8
F106.538
sg9
F0.475
sg10
S'blues'
p469
sg12
F0.0265
sg13
VFink
p470
sg15
I9999
sg16
F0.386
sg17
Nsg18
Nsg19
Nsg20
F0.000106
sg21
F0.34035211461608245
sg22
F0.391
sg23
Nsg24
Nsg25
F-8.254
ssg26
I01
sba(iSong
Song
p471
(dp472
g3
(dp473
g5
F0.0066
sg6
VBotched Execution
p474
sg8
F160.051
sg9
F0.938
sg10
S'blues'
p475
sg12
F0.0854
sg13
VShovels & Rope
p476
sg15
I9999
sg16
F0.495
sg17
Nsg18
Nsg19
Nsg20
I0
sg21
F0.34035211461608245
sg22
F0.783
sg23
Nsg24
Nsg25
F-5.667
ssg26
I01
sba(iSong
Song
p477
(dp478
g3
(dp479
g5
F0.112
sg6
VMagnolia
p480
sg8
F94.633
sg9
F0.507
sg10
S'blues'
p481
sg12
F0.0292
sg13
VMail the Horse
p482
sg15
I9999
sg16
F0.647
sg17
Nsg18
Nsg19
Nsg20
F0.0117
sg21
F0.34035211461608245
sg22
F0.711
sg23
Nsg24
Nsg25
F-9.186
ssg26
I01
sba(iSong
Song
p483
(dp484
g3
(dp485
g5
F0.000369
sg6
VHeavy Is the Head
p486
sg8
F85.526
sg9
F0.923
sg10
S'blues'
p487
sg12
F0.0392
sg13
VZac Brown Band
p488
sg15
I9999
sg16
F0.508
sg17
Nsg18
Nsg19
Nsg20
F0.00171
sg21
F0.34035211461608245
sg22
F0.689
sg23
Nsg24
Nsg25
F-3.258
ssg26
I01
sba(iSong
Song
p489
(dp490
g3
(dp491
g5
F0.0091
sg6
VI Feel Love (Every Million Miles)
p492
sg8
F93.92
sg9
F0.919
sg10
S'blues'
p493
sg12
F0.139
sg13
VThe Dead Weather
p494
sg15
I9999
sg16
F0.404
sg17
Nsg18
Nsg19
Nsg20
I0
sg21
F0.34035211461608245
sg22
F0.207
sg23
Nsg24
Nsg25
F-6.76
ssg26
I01
sba(iSong
Song
p495
(dp496
g3
(dp497
g5
F0.0657
sg6
VDead In The Water
p498
sg8
F79.976
sg9
F0.785
sg10
S'blues'
p499
sg12
F0.036
sg13
VRandall Bramblett
p500
sg15
I9999
sg16
F0.617
sg17
Nsg18
Nsg19
Nsg20
F0.018
sg21
F0.34035211461608245
sg22
F0.766
sg23
Nsg24
Nsg25
F-7.447
ssg26
I01
sba(iSong
Song
p501
(dp502
g3
(dp503
g5
F0.144
sg6
VRiverbottom
p504
sg8
F145.956
sg9
F0.604
sg10
S'blues'
p505
sg12
F0.0401
sg13
VJonathan Tyler
p506
sg15
I9999
sg16
F0.626
sg17
Nsg18
Nsg19
Nsg20
F0.000225
sg21
F0.34035211461608245
sg22
F0.481
sg23
Nsg24
Nsg25
F-3.446
ssg26
I01
sba(iSong
Song
p507
(dp508
g3
(dp509
g5
F0.143
sg6
VDreamcatchers
p510
sg8
F78.942
sg9
F0.553
sg10
S'blues'
p511
sg12
F0.0322
sg13
VOdetta Hartman
p512
sg15
I9999
sg16
F0.502
sg17
Nsg18
Nsg19
Nsg20
F0.168
sg21
F0.34035211461608245
sg22
F0.568
sg23
Nsg24
Nsg25
F-8.009
ssg26
I01
sba(iSong
Song
p513
(dp514
g3
(dp515
g5
F0.0011
sg6
VWicked Waters
p516
sg8
F102.782
sg9
F0.978
sg10
S'blues'
p517
sg12
F0.14
sg13
VBenjamin Booker
p518
sg15
I9999
sg16
F0.367
sg17
Nsg18
Nsg19
Nsg20
I0
sg21
F0.34035211461608245
sg22
F0.318
sg23
Nsg24
Nsg25
F-5.827
ssg26
I01
sba(iSong
Song
p519
(dp520
g3
(dp521
g5
F0.000385
sg6
VCompany Man
p522
sg8
F119.89
sg9
F0.889
sg10
S'blues'
p523
sg12
F0.0428
sg13
VJamestown Revival
p524
sg15
I9999
sg16
F0.551
sg17
Nsg18
Nsg19
Nsg20
F3.94e-05
sg21
F0.34035211461608245
sg22
F0.851
sg23
Nsg24
Nsg25
F-5.023
ssg26
I01
sba(iSong
Song
p525
(dp526
g3
(dp527
g5
F0.0239
sg6
VThese American Blues
p528
sg8
F126.902
sg9
F0.701
sg10
S'blues'
p529
sg12
F0.0268
sg13
VLevi Parham
p530
sg15
I9999
sg16
F0.701
sg17
Nsg18
Nsg19
Nsg20
F0.00501
sg21
F0.34035211461608245
sg22
F0.962
sg23
Nsg24
Nsg25
F-9.805
ssg26
I01
sba(iSong
Song
p531
(dp532
g3
(dp533
g5
F0.565
sg6
VSomebody Was Watching
p534
sg8
F166.999
sg9
F0.374
sg10
S'blues'
p535
sg12
F0.177
sg13
VPops Staples
p536
sg15
I9999
sg16
F0.63
sg17
Nsg18
Nsg19
Nsg20
F0.00146
sg21
F0.34035211461608245
sg22
F0.562
sg23
Nsg24
Nsg25
F-11.305
ssg26
I01
sba(iSong
Song
p537
(dp538
g3
(dp539
g5
F0.789
sg6
VYou're The Best Lover That I Ever Had
p540
sg8
F150.769
sg9
F0.504
sg10
S'blues'
p541
sg12
F0.032
sg13
VSteve Earle
p542
sg15
I9999
sg16
F0.547
sg17
Nsg18
Nsg19
Nsg20
F0.0799
sg21
F0.34035211461608245
sg22
F0.766
sg23
Nsg24
Nsg25
F-10.093
ssg26
I01
sba(iSong
Song
p543
(dp544
g3
(dp545
g5
F0.215
sg6
VSleepy Lagoon
p546
sg8
F80.463
sg9
F0.629
sg10
S'blues'
p547
sg12
F0.0275
sg13
VCarl Broemel
p548
sg15
I9999
sg16
F0.604
sg17
Nsg18
Nsg19
Nsg20
F0.481
sg21
F0.34035211461608245
sg22
F0.756
sg23
Nsg24
Nsg25
F-8.829
ssg26
I01
sba(iSong
Song
p549
(dp550
g3
(dp551
g5
F0.772
sg6
VPromise Land (feat. Jason Eskridge)
p552
sg8
F100.145
sg9
F0.306
sg10
S'blues'
p553
sg12
F0.036
sg13
VHannah Miller
p554
sg15
I9999
sg16
F0.341
sg17
Nsg18
Nsg19
Nsg20
F0.0196
sg21
F0.34035211461608245
sg22
F0.122
sg23
Nsg24
Nsg25
F-10.549
ssg26
I01
sba(iSong
Song
p555
(dp556
g3
(dp557
g5
F0.0495
sg6
VThe Perfect Parts
p558
sg8
F124.737
sg9
F0.657
sg10
S'blues'
p559
sg12
F0.0454
sg13
VShakey Graves
p560
sg15
I9999
sg16
F0.534
sg17
Nsg18
Nsg19
Nsg20
F0.000301
sg21
F0.34035211461608245
sg22
F0.282
sg23
Nsg24
Nsg25
F-6.112
ssg26
I01
sba(iSong
Song
p561
(dp562
g3
(dp563
g5
F0.178
sg6
VRaising Hands Raising Hell Raise 'em High
p564
sg8
F100.01
sg9
F0.821
sg10
S'blues'
p565
sg12
F0.0426
sg13
VThe Wind and The Wave
p566
sg15
I9999
sg16
F0.623
sg17
Nsg18
Nsg19
Nsg20
F0.528
sg21
F0.34035211461608245
sg22
F0.577
sg23
Nsg24
Nsg25
F-5.781
ssg26
I01
sba(iSong
Song
p567
(dp568
g3
(dp569
g5
F0.11
sg6
VBetter Feeln' Better Days
p570
sg8
F149.92
sg9
F0.401
sg10
S'blues'
p571
sg12
F0.0423
sg13
VKail Baxley
p572
sg15
I9999
sg16
F0.764
sg17
Nsg18
Nsg19
Nsg20
F0.833
sg21
F0.34035211461608245
sg22
F0.0716
sg23
Nsg24
Nsg25
F-8.612
ssg26
I01
sba(iSong
Song
p573
(dp574
g3
(dp575
g5
F0.3
sg6
VGlitter & Gold
p576
sg8
F170.325
sg9
F0.62
sg10
S'blues'
p577
sg12
F0.0441
sg13
VBarns Courtney
p578
sg15
I9999
sg16
F0.488
sg17
Nsg18
Nsg19
Nsg20
I0
sg21
F0.34035211461608245
sg22
F0.357
sg23
Nsg24
Nsg25
F-5.278
ssg26
I01
sba(iSong
Song
p579
(dp580
g3
(dp581
g5
F0.596
sg6
VI'm Going to Live the Life I Sing About in My Song
p582
sg8
F118.675
sg9
F0.29
sg10
S'blues'
p583
sg12
F0.0361
sg13
VThe Last Internationale
p584
sg15
I9999
sg16
F0.541
sg17
Nsg18
Nsg19
Nsg20
F0.00372
sg21
F0.34035211461608245
sg22
F0.272
sg23
Nsg24
Nsg25
F-8.603
ssg26
I01
sba(iSong
Song
p585
(dp586
g3
(dp587
g5
F0.344
sg6
VFirst Of The Week
p588
sg8
F79.005
sg9
F0.327
sg10
S'blues'
p589
sg12
F0.0347
sg13
VPatrick Sweany
p590
sg15
I9999
sg16
F0.684
sg17
Nsg18
Nsg19
Nsg20
F0.239
sg21
F0.34035211461608245
sg22
F0.535
sg23
Nsg24
Nsg25
F-13.829
ssg26
I01
sba(iSong
Song
p591
(dp592
g3
(dp593
g5
F0.928
sg6
VAngel of Small Death and the Codeine Scene - Live From Spotify London
p594
sg8
F92.821
sg9
F0.2
sg10
S'blues'
p595
sg12
F0.0622
sg13
VHozier
p596
sg15
I9999
sg16
F0.594
sg17
Nsg18
Nsg19
Nsg20
I0
sg21
F0.34035211461608245
sg22
F0.415
sg23
Nsg24
Nsg25
F-10.472
ssg26
I01
sba(iSong
Song
p597
(dp598
g3
(dp599
g5
F9.24e-06
sg6
VThe 28th of January - Electric
p600
sg8
F85.988
sg9
F0.854
sg10
S'blues'
p601
sg12
F0.0331
sg13
VMichael Daves
p602
sg15
I9999
sg16
F0.414
sg17
Nsg18
Nsg19
Nsg20
F0.906
sg21
F0.34035211461608245
sg22
F0.737
sg23
Nsg24
Nsg25
F-8.871
ssg26
I01
sba(iSong
Song
p603
(dp604
g3
(dp605
g5
F0.0658
sg6
VSweat Shock
p606
sg8
F113.181
sg9
F0.948
sg10
S'blues'
p607
sg12
F0.214
sg13
VJ. Roddy Walston & The Business
p608
sg15
I9999
sg16
F0.495
sg17
Nsg18
Nsg19
Nsg20
F7.4e-05
sg21
F0.34035211461608245
sg22
F0.158
sg23
Nsg24
Nsg25
F-3.546
ssg26
I01
sba(iSong
Song
p609
(dp610
g3
(dp611
g5
F0.00428
sg6
VLazaretto
p612
sg8
F180.041
sg9
F0.831
sg10
S'blues'
p613
sg12
F0.0811
sg13
VJack White
p614
sg15
I9999
sg16
F0.325
sg17
Nsg18
Nsg19
Nsg20
F3.72e-05
sg21
F0.34035211461608245
sg22
F0.541
sg23
Nsg24
Nsg25
F-6.574
ssg26
I01
sba(iSong
Song
p615
(dp616
g3
(dp617
g5
F0.0451
sg6
VStrike Your Light
p618
sg8
F169.827
sg9
F0.938
sg10
S'blues'
p619
sg12
F0.135
sg13
VVintage Trouble
p620
sg15
I9999
sg16
F0.309
sg17
Nsg18
Nsg19
Nsg20
F1.42e-06
sg21
F0.34035211461608245
sg22
F0.611
sg23
Nsg24
Nsg25
F-3.98
ssg26
I01
sba(iSong
Song
p621
(dp622
g3
(dp623
g5
F0.82
sg6
VDry Dirt (Stripped)
p624
sg8
F126.195
sg9
F0.33
sg10
S'blues'
p625
sg12
F0.0588
sg13
VThe Bones of J.R. Jones
p626
sg15
I9999
sg16
F0.682
sg17
Nsg18
Nsg19
Nsg20
F0.358
sg21
F0.34035211461608245
sg22
F0.326
sg23
Nsg24
Nsg25
F-12.715
ssg26
I01
sba(iSong
Song
p627
(dp628
g3
(dp629
g5
F0.228
sg6
VThousand Mile Night
p630
sg8
F140.652
sg9
F0.35
sg10
S'blues'
p631
sg12
F0.0471
sg13
VJonah Tolchin
p632
sg15
I9999
sg16
F0.584
sg17
Nsg18
Nsg19
Nsg20
F0.0719
sg21
F0.34035211461608245
sg22
F0.498
sg23
Nsg24
Nsg25
F-13.942
ssg26
I01
sba(iSong
Song
p633
(dp634
g3
(dp635
g5
F0.828
sg6
VLead Me Home - The Walking Dead Soundtrack
p636
sg8
F136.278
sg9
F0.276
sg10
S'blues'
p637
sg12
F0.0323
sg13
VJamie N Commons
p638
sg15
I9999
sg16
F0.435
sg17
Nsg18
Nsg19
Nsg20
F0.00015
sg21
F0.34035211461608245
sg22
F0.175
sg23
Nsg24
Nsg25
F-11.069
ssg26
I01
sba(iSong
Song
p639
(dp640
g3
(dp641
g5
F0.804
sg6
VWhispered Words (Pretty Lies)
p642
sg8
F86.697
sg9
F0.585
sg10
S'blues'
p643
sg12
F0.0734
sg13
VDan Auerbach
p644
sg15
I9999
sg16
F0.481
sg17
Nsg18
Nsg19
Nsg20
F0.000453
sg21
F0.34035211461608245
sg22
F0.481
sg23
Nsg24
Nsg25
F-6.9
ssg26
I01
sba(iSong
Song
p645
(dp646
g3
(dp647
g5
F0.426
sg6
VOn the Road Again
p648
sg8
F146.611
sg9
F0.414
sg10
S'blues'
p649
sg12
F0.0421
sg13
VJack Broadbent
p650
sg15
I9999
sg16
F0.408
sg17
Nsg18
Nsg19
Nsg20
F0.0535
sg21
F0.34035211461608245
sg22
F0.219
sg23
Nsg24
Nsg25
F-7.617
ssg26
I01
sba(iSong
Song
p651
(dp652
g3
(dp653
g5
F0.819
sg6
VSleeping on the Blacktop
p654
sg8
F83.031
sg9
F0.308
sg10
S'blues'
p655
sg12
F0.0478
sg13
VColter Wall
p656
sg15
I9999
sg16
F0.566
sg17
Nsg18
Nsg19
Nsg20
F0.272
sg21
F0.34035211461608245
sg22
F0.461
sg23
Nsg24
Nsg25
F-14.468
ssg26
I01
sba(iSong
Song
p657
(dp658
g3
(dp659
g5
F0.802
sg6
VBroken Bones
p660
sg8
F123.993
sg9
F0.486
sg10
S'blues'
p661
sg12
F0.193
sg13
VKaleo
p662
sg15
I9999
sg16
F0.779
sg17
Nsg18
Nsg19
Nsg20
F5.76e-05
sg21
F0.34035211461608245
sg22
F0.654
sg23
Nsg24
Nsg25
F-7.205
ssg26
I01
sba(iSong
Song
p663
(dp664
g3
(dp665
g5
F0.749
sg6
VWork Song
p666
sg8
F121.412
sg9
F0.363
sg10
S'blues'
p667
sg12
F0.0608
sg13
VHozier
p668
sg15
I9999
sg16
F0.531
sg17
Nsg18
Nsg19
Nsg20
I0
sg21
F0.34035211461608245
sg22
F0.259
sg23
Nsg24
Nsg25
F-7.672
ssg26
I01
sba(iSong
Song
p669
(dp670
g3
(dp671
g5
F0.991
sg6
VHow Long
p672
sg8
F143.479
sg9
F0.327
sg10
S'blues'
p673
sg12
F0.0981
sg13
VC.W. Stoneking
p674
sg15
I9999
sg16
F0.562
sg17
Nsg18
Nsg19
Nsg20
F0.0328
sg21
F0.34035211461608245
sg22
F0.802
sg23
Nsg24
Nsg25
F-11.319
ssg26
I01
sba(iSong
Song
p675
(dp676
g3
(dp677
g5
F0.454
sg6
VHeaven Sent
p678
sg8
F112.881
sg9
F0.281
sg10
S'blues'
p679
sg12
F0.0292
sg13
VParker Millsap
p680
sg15
I9999
sg16
F0.403
sg17
Nsg18
Nsg19
Nsg20
I0
sg21
F0.34035211461608245
sg22
F0.182
sg23
Nsg24
Nsg25
F-10.365
ssg26
I01
sba(iSong
Song
p681
(dp682
g3
(dp683
g5
F0.844
sg6
VHeaven Bent
p684
sg8
F124.113
sg9
F0.157
sg10
S'blues'
p685
sg12
F0.0437
sg13
VLady Lamb
p686
sg15
I9999
sg16
F0.492
sg17
Nsg18
Nsg19
Nsg20
I0
sg21
F0.34035211461608245
sg22
F0.131
sg23
Nsg24
Nsg25
F-8.732
ssg26
I01
sba(iSong
Song
p687
(dp688
g3
(dp689
g5
F0.763
sg6
VDarkwater
p690
sg8
F113.79
sg9
F0.277
sg10
S'blues'
p691
sg12
F0.0308
sg13
VSam Williams
p692
sg15
I9999
sg16
F0.629
sg17
Nsg18
Nsg19
Nsg20
F0.000147
sg21
F0.34035211461608245
sg22
F0.628
sg23
Nsg24
Nsg25
F-12.739
ssg26
I01
sba(iSong
Song
p693
(dp694
g3
(dp695
g5
F0.801
sg6
VLittle Jose
p696
sg8
F174.167
sg9
F0.2
sg10
S'blues'
p697
sg12
F0.0385
sg13
VGrey Reverend
p698
sg15
I9999
sg16
F0.354
sg17
Nsg18
Nsg19
Nsg20
F0.847
sg21
F0.34035211461608245
sg22
F0.228
sg23
Nsg24
Nsg25
F-15.781
ssg26
I01
sba(iSong
Song
p699
(dp700
g3
(dp701
g5
F0.955
sg6
VGold
p702
sg8
F123.874
sg9
F0.137
sg10
S'blues'
p703
sg12
F0.0378
sg13
VArum Rae
p704
sg15
I9999
sg16
F0.325
sg17
Nsg18
Nsg19
Nsg20
F0.144
sg21
F0.34035211461608245
sg22
F0.255
sg23
Nsg24
Nsg25
F-15.096
ssg26
I01
sba(iSong
Song
p705
(dp706
g3
(dp707
g5
F0.922
sg6
VBloodshot - Demo
p708
sg8
F75.458
sg9
F0.0838
sg10
S'blues'
p709
sg12
F0.0561
sg13
VAlbin Lee Meldau
p710
sg15
I9999
sg16
F0.483
sg17
Nsg18
Nsg19
Nsg20
F1.74e-05
sg21
F0.34035211461608245
sg22
F0.162
sg23
Nsg24
Nsg25
F-12.349
ssg26
I01
sba(iSong
Song
p711
(dp712
g3
(dp713
g5
F0.124
sg6
VSinging Saw
p714
sg8
F184.207
sg9
F0.513
sg10
S'blues'
p715
sg12
F0.0284
sg13
VKevin Morby
p716
sg15
I9999
sg16
F0.462
sg17
Nsg18
Nsg19
Nsg20
F0.205
sg21
F0.34035211461608245
sg22
F0.47
sg23
Nsg24
Nsg25
F-7.891
ssg26
I01
sba(iSong
Song
p717
(dp718
g3
(dp719
g5
F0.899
sg6
VOak Tree
p720
sg8
F100.956
sg9
F0.273
sg10
S'blues'
p721
sg12
F0.0304
sg13
VMirel Wagner
p722
sg15
I9999
sg16
F0.553
sg17
Nsg18
Nsg19
Nsg20
F0.442
sg21
F0.34035211461608245
sg22
F0.23
sg23
Nsg24
Nsg25
F-11.579
ssg26
I01
sba(iSong
Song
p723
(dp724
g3
(dp725
g5
F0.00203
sg6
VLittle Red Rooster
p726
sg8
F86.12
sg9
F0.709
sg10
S'blues'
p727
sg12
F0.0504
sg13
VDan Owen
p728
sg15
I9999
sg16
F0.217
sg17
Nsg18
Nsg19
Nsg20
F0.000442
sg21
F0.34035211461608245
sg22
F0.401
sg23
Nsg24
Nsg25
F-5.536
ssg26
I01
sba(iSong
Song
p729
(dp730
g3
(dp731
g5
F0.869
sg6
VBig Boss Man
p732
sg8
F139.918
sg9
F0.261
sg10
S'blues'
p733
sg12
F0.0511
sg13
VWhitehorse
p734
sg15
I9999
sg16
F0.588
sg17
Nsg18
Nsg19
Nsg20
F5.22e-05
sg21
F0.34035211461608245
sg22
F0.316
sg23
Nsg24
Nsg25
F-11.587
ssg26
I01
sba(iSong
Song
p735
(dp736
g3
(dp737
g5
F0.843
sg6
VBoneyard - Edit
p738
sg8
F106.538
sg9
F0.475
sg10
S'blues'
p739
sg12
F0.0265
sg13
VFink
p740
sg15
I9999
sg16
F0.386
sg17
Nsg18
Nsg19
Nsg20
F0.000106
sg21
F0.34035211461608245
sg22
F0.391
sg23
Nsg24
Nsg25
F-8.254
ssg26
I01
sba(iSong
Song
p741
(dp742
g3
(dp743
g5
F0.482
sg6
VMissing At Sea
p744
sg8
F124.356
sg9
F0.5
sg10
S'blues'
p745
sg12
F0.0266
sg13
VMaggie Bjorklund
p746
sg15
I9999
sg16
F0.497
sg17
Nsg18
Nsg19
Nsg20
F0.97
sg21
F0.34035211461608245
sg22
F0.263
sg23
Nsg24
Nsg25
F-9.099
ssg26
I01
sba(iSong
Song
p747
(dp748
g3
(dp749
g5
F0.139
sg6
VRed Right Hand - 2011 - Remaster
p750
sg8
F115.658
sg9
F0.403
sg10
S'blues'
p751
sg12
F0.037
sg13
VNick Cave & The Bad Seeds
p752
sg15
I9999
sg16
F0.735
sg17
Nsg18
Nsg19
Nsg20
F0.473
sg21
F0.34035211461608245
sg22
F0.453
sg23
Nsg24
Nsg25
F-11.599
ssg26
I01
sba(iSong
Song
p753
(dp754
g3
(dp755
g5
F0.868
sg6
VSlow Coming
p756
sg8
F121.011
sg9
F0.511
sg10
S'blues'
p757
sg12
F0.0481
sg13
VBenjamin Booker
p758
sg15
I9999
sg16
F0.375
sg17
Nsg18
Nsg19
Nsg20
F0.0138
sg21
F0.34035211461608245
sg22
F0.474
sg23
Nsg24
Nsg25
F-9.638
ssg26
I01
sba(iSong
Song
p759
(dp760
g3
(dp761
g5
F0.725
sg6
VAn Honest Man
p762
sg8
F129.919
sg9
F0.548
sg10
S'blues'
p763
sg12
F0.0521
sg13
VFantastic Negrito
p764
sg15
I9999
sg16
F0.735
sg17
Nsg18
Nsg19
Nsg20
I0
sg21
F0.34035211461608245
sg22
F0.391
sg23
Nsg24
Nsg25
F-4.747
ssg26
I01
sba(iSong
Song
p765
(dp766
g3
(dp767
g5
F0.0688
sg6
VCrocodile Tears
p768
sg8
F128.301
sg9
F0.561
sg10
S'blues'
p769
sg12
F0.0491
sg13
Vlittle hurricane
p770
sg15
I9999
sg16
F0.341
sg17
Nsg18
Nsg19
Nsg20
F0.0222
sg21
F0.34035211461608245
sg22
F0.333
sg23
Nsg24
Nsg25
F-9.763
ssg26
I01
sba(iSong
Song
p771
(dp772
g3
(dp773
g5
F0.655
sg6
VI Can't Go On Without You
p774
sg8
F91.88
sg9
F0.267
sg10
S'blues'
p775
sg12
F0.0428
sg13
VKaleo
p776
sg15
I9999
sg16
F0.368
sg17
Nsg18
Nsg19
Nsg20
F2.24e-05
sg21
F0.34035211461608245
sg22
F0.194
sg23
Nsg24
Nsg25
F-9.395
ssg26
I01
sba(iSong
Song
p777
(dp778
g3
(dp779
g5
F0.403
sg6
VTo Be Alone
p780
sg8
F67.05
sg9
F0.443
sg10
S'blues'
p781
sg12
F0.0259
sg13
VHozier
p782
sg15
I9999
sg16
F0.559
sg17
Nsg18
Nsg19
Nsg20
F0.000183
sg21
F0.34035211461608245
sg22
F0.264
sg23
Nsg24
Nsg25
F-6.52
ssg26
I01
sba(iSong
Song
p783
(dp784
g3
(dp785
g5
F0.634
sg6
VWild Horses - Acoustic
p786
sg8
F129.965
sg9
F0.27
sg10
S'blues'
p787
sg12
F0.0349
sg13
VBishop Briggs
p788
sg15
I9999
sg16
F0.719
sg17
Nsg18
Nsg19
Nsg20
I0
sg21
F0.34035211461608245
sg22
F0.299
sg23
Nsg24
Nsg25
F-10.534
ssg26
I01
sba(iSong
Song
p789
(dp790
g3
(dp791
g5
F0.777
sg6
VThe Dirt
p792
sg8
F100.474
sg9
F0.092
sg10
S'blues'
p793
sg12
F0.158
sg13
VMirel Wagner
p794
sg15
I9999
sg16
F0.617
sg17
Nsg18
Nsg19
Nsg20
F0.00613
sg21
F0.34035211461608245
sg22
F0.17
sg23
Nsg24
Nsg25
F-15.775
ssg26
I01
sba(iSong
Song
p795
(dp796
g3
(dp797
g5
F0.197
sg6
VCome on in My Kitchen
p798
sg8
F111.056
sg9
F0.623
sg10
S'blues'
p799
sg12
F0.0406
sg13
VWhitehorse
p800
sg15
I9999
sg16
F0.481
sg17
Nsg18
Nsg19
Nsg20
F0.0678
sg21
F0.34035211461608245
sg22
F0.622
sg23
Nsg24
Nsg25
F-5.877
ssg26
I01
sba(iSong
Song
p801
(dp802
g3
(dp803
g5
F0.942
sg6
VThe Mark - Live Solo
p804
sg8
F104.575
sg9
F0.0591
sg10
S'blues'
p805
sg12
F0.0325
sg13
VCold Specks
p806
sg15
I9999
sg16
F0.469
sg17
Nsg18
Nsg19
Nsg20
I0
sg21
F0.34035211461608245
sg22
F0.128
sg23
Nsg24
Nsg25
F-16.562
ssg26
I01
sba(iSong
Song
p807
(dp808
g3
(dp809
g5
F0.936
sg6
VForget - Live From Spotify NYC
p810
sg8
F96.045
sg9
F0.38
sg10
S'blues'
p811
sg12
F0.0988
sg13
VLianne La Havas
p812
sg15
I9999
sg16
F0.558
sg17
Nsg18
Nsg19
Nsg20
F0.000228
sg21
F0.34035211461608245
sg22
F0.485
sg23
Nsg24
Nsg25
F-12.971
ssg26
I01
sba(iSong
Song
p813
(dp814
g3
(dp815
g5
F0.915
sg6
VI Thought I Heard You Screaming
p816
sg8
F98.68
sg9
F0.0734
sg10
S'blues'
p817
sg12
F0.0319
sg13
VBenjamin Booker
p818
sg15
I9999
sg16
F0.535
sg17
Nsg18
Nsg19
Nsg20
F2.31e-05
sg21
F0.34035211461608245
sg22
F0.321
sg23
Nsg24
Nsg25
F-15.684
ssg26
I01
sba(iSong
Song
p819
(dp820
g3
(dp821
g5
F0.715
sg6
VLump in Your Throat - Radio Edit
p822
sg8
F120.034
sg9
F0.467
sg10
S'blues'
p823
sg12
F0.0305
sg13
VAndrea Bignasca
p824
sg15
I9999
sg16
F0.677
sg17
Nsg18
Nsg19
Nsg20
F0.0351
sg21
F0.34035211461608245
sg22
F0.452
sg23
Nsg24
Nsg25
F-7.993
ssg26
I01
sba(iSong
Song
p825
(dp826
g3
(dp827
g5
F0.464
sg6
VHoneysuckle Reel
p828
sg8
F115.496
sg9
F0.414
sg10
S'blues'
p829
sg12
F0.0368
sg13
VDaniel Bachman
p830
sg15
I9999
sg16
F0.314
sg17
Nsg18
Nsg19
Nsg20
F0.939
sg21
F0.34035211461608245
sg22
F0.388
sg23
Nsg24
Nsg25
F-12.927
ssg26
I01
sba(iSong
Song
p831
(dp832
g3
(dp833
g5
F0.558
sg6
VBy The Evening
p834
sg8
F173.737
sg9
F0.328
sg10
S'blues'
p835
sg12
F0.0364
sg13
VBenjamin Booker
p836
sg15
I9999
sg16
F0.33
sg17
Nsg18
Nsg19
Nsg20
F0.00114
sg21
F0.34035211461608245
sg22
F0.332
sg23
Nsg24
Nsg25
F-9.673
ssg26
I01
sba(iSong
Song
p837
(dp838
g3
(dp839
g5
F0.0046
sg6
VLazaretto
p840
sg8
F118.214
sg9
F0.838
sg10
S'blues'
p841
sg12
F0.0709
sg13
VJack White
p842
sg15
I9999
sg16
F0.381
sg17
Nsg18
Nsg19
Nsg20
F3.77e-05
sg21
F0.34035211461608245
sg22
F0.581
sg23
Nsg24
Nsg25
F-6.562
ssg26
I01
sba(iSong
Song
p843
(dp844
g3
(dp845
g5
F0.00274
sg6
VShake It
p846
sg8
F78.996
sg9
F0.811
sg10
S'blues'
p847
sg12
F0.0786
sg13
VSteve Smyth
p848
sg15
I9999
sg16
F0.449
sg17
Nsg18
Nsg19
Nsg20
F4.03e-05
sg21
F0.34035211461608245
sg22
F0.274
sg23
Nsg24
Nsg25
F-5.938
ssg26
I01
sba(iSong
Song
p849
(dp850
g3
(dp851
g5
F0.404
sg6
VIt Will Come Back
p852
sg8
F173.893
sg9
F0.441
sg10
S'blues'
p853
sg12
F0.0397
sg13
VHozier
p854
sg15
I9999
sg16
F0.36
sg17
Nsg18
Nsg19
Nsg20
F4.93e-06
sg21
F0.34035211461608245
sg22
F0.201
sg23
Nsg24
Nsg25
F-7.664
ssg26
I01
sba(iSong
Song
p855
(dp856
g3
(dp857
g5
F0.602
sg6
VDon't Need It
p858
sg8
F113.111
sg9
F0.739
sg10
S'blues'
p859
sg12
F0.0383
sg13
VWilliam Elliott Whitmore
p860
sg15
I9999
sg16
F0.761
sg17
Nsg18
Nsg19
Nsg20
F1.78e-06
sg21
F0.34035211461608245
sg22
F0.392
sg23
Nsg24
Nsg25
F-9.494
ssg26
I01
sba(iSong
Song
p861
(dp862
g3
(dp863
g5
F0.188
sg6
VTop Yourself
p864
sg8
F85.899
sg9
F0.727
sg10
S'blues'
p865
sg12
F0.058
sg13
VThe Raconteurs
p866
sg15
I9999
sg16
F0.505
sg17
Nsg18
Nsg19
Nsg20
F0.000826
sg21
F0.34035211461608245
sg22
F0.254
sg23
Nsg24
Nsg25
F-5.391
ssg26
I01
sba(iSong
Song
p867
(dp868
g3
(dp869
g5
F0.575
sg6
VNo Sugar In My Coffee
p870
sg8
F85.035
sg9
F0.576
sg10
S'blues'
p871
sg12
F0.224
sg13
VCaught A Ghost
p872
sg15
I9999
sg16
F0.719
sg17
Nsg18
Nsg19
Nsg20
F1.03e-05
sg21
F0.34035211461608245
sg22
F0.429
sg23
Nsg24
Nsg25
F-6.363
ssg26
I01
sba(iSong
Song
p873
(dp874
g3
(dp875
g5
F0.0762
sg6
VBang Bang Bang
p876
sg8
F142.057
sg9
F0.62
sg10
S'blues'
p877
sg12
F0.0362
sg13
VDorothy
p878
sg15
I9999
sg16
F0.455
sg17
Nsg18
Nsg19
Nsg20
F0.015
sg21
F0.34035211461608245
sg22
F0.297
sg23
Nsg24
Nsg25
F-5.4
ssg26
I01
sba(iSong
Song
p879
(dp880
g3
(dp881
g5
F0.0657
sg6
VAin't No Easy Way
p882
sg8
F95.786
sg9
F0.947
sg10
S'blues'
p883
sg12
F0.0457
sg13
VBlack Rebel Motorcycle Club
p884
sg15
I9999
sg16
F0.532
sg17
Nsg18
Nsg19
Nsg20
F1.49e-06
sg21
F0.34035211461608245
sg22
F0.748
sg23
Nsg24
Nsg25
F-4.2
ssg26
I01
sba(iSong
Song
p885
(dp886
g3
(dp887
g5
F0.761
sg6
VLittle Lady Blues
p888
sg8
F137.208
sg9
F0.328
sg10
S'blues'
p889
sg12
F0.045
sg13
VDaniel Bachman
p890
sg15
I9999
sg16
F0.407
sg17
Nsg18
Nsg19
Nsg20
F0.772
sg21
F0.34035211461608245
sg22
F0.349
sg23
Nsg24
Nsg25
F-9.04
ssg26
I01
sba(iSong
Song
p891
(dp892
g3
(dp893
g5
F0.224
sg6
VHenry Nearly Killed Me (It's a Shame)
p894
sg8
F134.796
sg9
F0.599
sg10
S'blues'
p895
sg12
F0.033
sg13
VRay LaMontagne
p896
sg15
I9999
sg16
F0.538
sg17
Nsg18
Nsg19
Nsg20
F0.0703
sg21
F0.34035211461608245
sg22
F0.429
sg23
Nsg24
Nsg25
F-9.512
ssg26
I01
sba(iSong
Song
p897
(dp898
g3
(dp899
g5
F0.358
sg6
VGone Forever
p900
sg8
F96.155
sg9
F0.729
sg10
S'blues'
p901
sg12
F0.0316
sg13
VMick Flannery
p902
sg15
I9999
sg16
F0.621
sg17
Nsg18
Nsg19
Nsg20
I0
sg21
F0.34035211461608245
sg22
F0.767
sg23
Nsg24
Nsg25
F-5.447
ssg26
I01
sba(iSong
Song
p903
(dp904
g3
(dp905
g5
F0.878
sg6
VMy Love Will Never Die
p906
sg8
F84.46
sg9
F0.0532
sg10
S'blues'
p907
sg12
F0.0318
sg13
VHozier
p908
sg15
I9999
sg16
F0.613
sg17
Nsg18
Nsg19
Nsg20
F0.0113
sg21
F0.34035211461608245
sg22
F0.218
sg23
Nsg24
Nsg25
F-14.7
ssg26
I01
sba(iSong
Song
p909
(dp910
g3
(dp911
g5
F0.202
sg6
VOld Number Seven
p912
sg8
F142.454
sg9
F0.427
sg10
S'blues'
p913
sg12
F0.0405
sg13
VThe Devil Makes Three
p914
sg15
I9999
sg16
F0.571
sg17
Nsg18
Nsg19
Nsg20
I0
sg21
F0.34035211461608245
sg22
F0.894
sg23
Nsg24
Nsg25
F-7.574
ssg26
I01
sba(iSong
Song
p915
(dp916
g3
(dp917
g5
F0.2
sg6
VNight Has Turned to Day
p918
sg8
F204.924
sg9
F0.675
sg10
S'blues'
p919
sg12
F0.286
sg13
VFantastic Negrito
p920
sg15
I9999
sg16
F0.522
sg17
Nsg18
Nsg19
Nsg20
I0
sg21
F0.34035211461608245
sg22
F0.588
sg23
Nsg24
Nsg25
F-5.139
ssg26
I01
sba(iSong
Song
p921
(dp922
g3
(dp923
g5
F0.126
sg6
VThree More Days
p924
sg8
F83.91
sg9
F0.681
sg10
S'blues'
p925
sg12
F0.0328
sg13
VRay LaMontagne
p926
sg15
I9999
sg16
F0.56
sg17
Nsg18
Nsg19
Nsg20
F0.000889
sg21
F0.34035211461608245
sg22
F0.901
sg23
Nsg24
Nsg25
F-8.358
ssg26
I01
sba(iSong
Song
p927
(dp928
g3
(dp929
g5
F0.725
sg6
V1922 Blues
p930
sg8
F117.511
sg9
F0.715
sg10
S'blues'
p931
sg12
F0.0341
sg13
VCharlie Parr
p932
sg15
I9999
sg16
F0.466
sg17
Nsg18
Nsg19
Nsg20
F0.353
sg21
F0.34035211461608245
sg22
F0.824
sg23
Nsg24
Nsg25
F-7.608
ssg26
I01
sba(iSong
Song
p933
(dp934
g3
(dp935
g5
F0.47
sg6
VCrazy Woman
p936
sg8
F98.584
sg9
F0.704
sg10
S'blues'
p937
sg12
F0.0589
sg13
VJoseph LeMay
p938
sg15
I9999
sg16
F0.633
sg17
Nsg18
Nsg19
Nsg20
F0.00047
sg21
F0.34035211461608245
sg22
F0.742
sg23
Nsg24
Nsg25
F-7.412
ssg26
I01
sba(iSong
Song
p939
(dp940
g3
(dp941
g5
F0.342
sg6
VTrouble
p942
sg8
F173.24
sg9
F0.425
sg10
S'blues'
p943
sg12
F0.0455
sg13
VRay LaMontagne
p944
sg15
I9999
sg16
F0.321
sg17
Nsg18
Nsg19
Nsg20
F0.000262
sg21
F0.34035211461608245
sg22
F0.493
sg23
Nsg24
Nsg25
F-12.73
ssg26
I01
sba(iSong
Song
p945
(dp946
g3
(dp947
g5
F0.962
sg6
VJohnny law
p948
sg8
F107.753
sg9
F0.322
sg10
S'blues'
p949
sg12
F0.06
sg13
VWilliam Elliott Whitmore
p950
sg15
I9999
sg16
F0.687
sg17
Nsg18
Nsg19
Nsg20
I0
sg21
F0.34035211461608245
sg22
F0.312
sg23
Nsg24
Nsg25
F-13.015
ssg26
I01
sba(iSong
Song
p951
(dp952
g3
(dp953
g5
F0.000943
sg6
VHoney Forgive Me
p954
sg8
F93.057
sg9
F0.932
sg10
S'blues'
p955
sg12
F0.034
sg13
VJared James Nichols
p956
sg15
I9999
sg16
F0.596
sg17
Nsg18
Nsg19
Nsg20
F0.0178
sg21
F0.34035211461608245
sg22
F0.839
sg23
Nsg24
Nsg25
F-4.331
ssg26
I01
sba(iSong
Song
p957
(dp958
g3
(dp959
g5
F0.00194
sg6
VU got 2 believe
p960
sg8
F92.984
sg9
F0.908
sg10
S'blues'
p961
sg12
F0.0551
sg13
VPaulo Mendonca
p962
sg15
I9999
sg16
F0.616
sg17
Nsg18
Nsg19
Nsg20
F0.00235
sg21
F0.34035211461608245
sg22
F0.808
sg23
Nsg24
Nsg25
F-6.867
ssg26
I01
sba(iSong
Song
p963
(dp964
g3
(dp965
g5
F0.00032
sg6
VTrue Lies
p966
sg8
F173.186
sg9
F0.769
sg10
S'blues'
p967
sg12
F0.0317
sg13
VKenny Wayne Shepherd
p968
sg15
I9999
sg16
F0.367
sg17
Nsg18
Nsg19
Nsg20
F0.628
sg21
F0.34035211461608245
sg22
F0.7
sg23
Nsg24
Nsg25
F-7.258
ssg26
I01
sba(iSong
Song
p969
(dp970
g3
(dp971
g5
F0.187
sg6
VHump Thru the Winter
p972
sg8
F76.018
sg9
F0.697
sg10
S'blues'
p973
sg12
F0.164
sg13
VFantastic Negrito
p974
sg15
I9999
sg16
F0.734
sg17
Nsg18
Nsg19
Nsg20
I0
sg21
F0.34035211461608245
sg22
F0.537
sg23
Nsg24
Nsg25
F-5.573
ssg26
I01
sba(iSong
Song
p975
(dp976
g3
(dp977
g5
F0.00321
sg6
VLong Coal Train
p978
sg8
F138.034
sg9
F0.843
sg10
S'blues'
p979
sg12
F0.094
sg13
VBig Head Todd and The Monsters
p980
sg15
I9999
sg16
F0.58
sg17
Nsg18
Nsg19
Nsg20
F0.112
sg21
F0.34035211461608245
sg22
F0.666
sg23
Nsg24
Nsg25
F-5.575
ssg26
I01
sba(iSong
Song
p981
(dp982
g3
(dp983
g5
F3.71e-05
sg6
VMake It Easy
p984
sg8
F123.928
sg9
F0.908
sg10
S'blues'
p985
sg12
F0.0561
sg13
VRichie Kotzen
p986
sg15
I9999
sg16
F0.505
sg17
Nsg18
Nsg19
Nsg20
F0.0092
sg21
F0.34035211461608245
sg22
F0.494
sg23
Nsg24
Nsg25
F-4.717
ssg26
I01
sba(iSong
Song
p987
(dp988
g3
(dp989
g5
F0.0315
sg6
VLove Is
p990
sg8
F99.006
sg9
F0.776
sg10
S'blues'
p991
sg12
F0.0645
sg13
VTommy Castro
p992
sg15
I9999
sg16
F0.76
sg17
Nsg18
Nsg19
Nsg20
F0.000124
sg21
F0.34035211461608245
sg22
F0.935
sg23
Nsg24
Nsg25
F-5.094
ssg26
I01
sba(iSong
Song
p993
(dp994
g3
(dp995
g5
F0.000697
sg6
VShake It
p996
sg8
F185.923
sg9
F0.964
sg10
S'blues'
p997
sg12
F0.12
sg13
VRobert Randolph & The Family Band
p998
sg15
I9999
sg16
F0.351
sg17
Nsg18
Nsg19
Nsg20
F0.0304
sg21
F0.34035211461608245
sg22
F0.496
sg23
Nsg24
Nsg25
F-3.745
ssg26
I01
sba(iSong
Song
p999
(dp1000
g3
(dp1001
g5
F0.219
sg6
VStronger
p1002
sg8
F97.027
sg9
F0.676
sg10
S'blues'
p1003
sg12
F0.0307
sg13
VJessy Martens and Band
p1004
sg15
I9999
sg16
F0.718
sg17
Nsg18
Nsg19
Nsg20
F0.000167
sg21
F0.34035211461608245
sg22
F0.595
sg23
Nsg24
Nsg25
F-7.442
ssg26
I01
sba(iSong
Song
p1005
(dp1006
g3
(dp1007
g5
F0.00683
sg6
VMorning Star
p1008
sg8
F78.157
sg9
F0.913
sg10
S'blues'
p1009
sg12
F0.0713
sg13
VPhilip Sayce Group
p1010
sg15
I9999
sg16
F0.393
sg17
Nsg18
Nsg19
Nsg20
F0.00328
sg21
F0.34035211461608245
sg22
F0.651
sg23
Nsg24
Nsg25
F-5.009
ssg26
I01
sba(iSong
Song
p1011
(dp1012
g3
(dp1013
g5
F0.0371
sg6
VDiamonds & Gold
p1014
sg8
F92.04
sg9
F0.846
sg10
S'blues'
p1015
sg12
F0.0339
sg13
VKenny Wayne Shepherd
p1016
sg15
I9999
sg16
F0.574
sg17
Nsg18
Nsg19
Nsg20
F4.08e-05
sg21
F0.34035211461608245
sg22
F0.794
sg23
Nsg24
Nsg25
F-5.703
ssg26
I01
sba(iSong
Song
p1017
(dp1018
g3
(dp1019
g5
F0.736
sg6
VCarry Yourself
p1020
sg8
F85.962
sg9
F0.575
sg10
S'blues'
p1021
sg12
F0.0303
sg13
VEric Gales
p1022
sg15
I9999
sg16
F0.675
sg17
Nsg18
Nsg19
Nsg20
F0.0171
sg21
F0.34035211461608245
sg22
F0.778
sg23
Nsg24
Nsg25
F-4.896
ssg26
I01
sba(iSong
Song
p1023
(dp1024
g3
(dp1025
g5
F0.00229
sg6
VOpenness
p1026
sg8
F169.869
sg9
F0.891
sg10
S'blues'
p1027
sg12
F0.0621
sg13
VHenrik Freischlader Trio
p1028
sg15
I9999
sg16
F0.454
sg17
Nsg18
Nsg19
Nsg20
F0.0135
sg21
F0.34035211461608245
sg22
F0.752
sg23
Nsg24
Nsg25
F-5.101
ssg26
I01
sba(iSong
Song
p1029
(dp1030
g3
(dp1031
g5
F0.43
sg6
VJust in case
p1032
sg8
F84.881
sg9
F0.969
sg10
S'blues'
p1033
sg12
F0.0915
sg13
VPaulo Mendonca
p1034
sg15
I9999
sg16
F0.536
sg17
Nsg18
Nsg19
Nsg20
F1.26e-06
sg21
F0.34035211461608245
sg22
F0.805
sg23
Nsg24
Nsg25
F-2.62
ssg26
I01
sba(iSong
Song
p1035
(dp1036
g3
(dp1037
g5
F0.000455
sg6
VBuilt For Comfort
p1038
sg8
F162.838
sg9
F0.88
sg10
S'blues'
p1039
sg12
F0.0963
sg13
VBlack Stone Cherry
p1040
sg15
I9999
sg16
F0.333
sg17
Nsg18
Nsg19
Nsg20
F0.135
sg21
F0.34035211461608245
sg22
F0.49
sg23
Nsg24
Nsg25
F-3.08
ssg26
I01
sba(iSong
Song
p1041
(dp1042
g3
(dp1043
g5
F0.00703
sg6
VThe Answer
p1044
sg8
F115.964
sg9
F0.648
sg10
S'blues'
p1045
sg12
F0.0294
sg13
VTony Spinner
p1046
sg15
I9999
sg16
F0.676
sg17
Nsg18
Nsg19
Nsg20
F0.00137
sg21
F0.34035211461608245
sg22
F0.889
sg23
Nsg24
Nsg25
F-6.456
ssg26
I01
sba(iSong
Song
p1047
(dp1048
g3
(dp1049
g5
F0.00279
sg6
VHighway Jones
p1050
sg8
F127.748
sg9
F0.675
sg10
S'blues'
p1051
sg12
F0.0379
sg13
VCry Of Love
p1052
sg15
I9999
sg16
F0.611
sg17
Nsg18
Nsg19
Nsg20
F0.00628
sg21
F0.34035211461608245
sg22
F0.606
sg23
Nsg24
Nsg25
F-10.327
ssg26
I01
sba(iSong
Song
p1053
(dp1054
g3
(dp1055
g5
F0.075
sg6
VStand Tall
p1056
sg8
F183.8
sg9
F0.679
sg10
S'blues'
p1057
sg12
F0.0684
sg13
VRichie Kotzen
p1058
sg15
I9999
sg16
F0.606
sg17
Nsg18
Nsg19
Nsg20
F0.00274
sg21
F0.34035211461608245
sg22
F0.964
sg23
Nsg24
Nsg25
F-6.091
ssg26
I01
sba(iSong
Song
p1059
(dp1060
g3
(dp1061
g5
F0.007
sg6
VFind a Way
p1062
sg8
F154.001
sg9
F0.78
sg10
S'blues'
p1063
sg12
F0.0479
sg13
VRobert Randolph & The Family Band
p1064
sg15
I9999
sg16
F0.442
sg17
Nsg18
Nsg19
Nsg20
I0
sg21
F0.34035211461608245
sg22
F0.666
sg23
Nsg24
Nsg25
F-5.576
ssg26
I01
sba(iSong
Song
p1065
(dp1066
g3
(dp1067
g5
F0.00357
sg6
VChills & Thrills
p1068
sg8
F116.175
sg9
F0.657
sg10
S'blues'
p1069
sg12
F0.0429
sg13
VBernard Allison
p1070
sg15
I9999
sg16
F0.723
sg17
Nsg18
Nsg19
Nsg20
F0.0179
sg21
F0.34035211461608245
sg22
F0.803
sg23
Nsg24
Nsg25
F-5.372
ssg26
I01
sba(iSong
Song
p1071
(dp1072
g3
(dp1073
g5
F0.112
sg6
VDon't Be a Fool
p1074
sg8
F118.001
sg9
F0.878
sg10
S'blues'
p1075
sg12
F0.0396
sg13
VSimon McBride
p1076
sg15
I9999
sg16
F0.604
sg17
Nsg18
Nsg19
Nsg20
F0.0282
sg21
F0.34035211461608245
sg22
F0.705
sg23
Nsg24
Nsg25
F-5.294
ssg26
I01
sba(iSong
Song
p1077
(dp1078
g3
(dp1079
g5
F0.0753
sg6
VShe Was a Doorman
p1080
sg8
F186.223
sg9
F0.897
sg10
S'blues'
p1081
sg12
F0.131
sg13
VAna Popovic
p1082
sg15
I9999
sg16
F0.429
sg17
Nsg18
Nsg19
Nsg20
F2.23e-05
sg21
F0.34035211461608245
sg22
F0.823
sg23
Nsg24
Nsg25
F-4.1
ssg26
I01
sba(iSong
Song
p1083
(dp1084
g3
(dp1085
g5
F0.0602
sg6
VWell Run Dry
p1086
sg8
F125.039
sg9
F0.914
sg10
S'blues'
p1087
sg12
F0.0749
sg13
VPhat Phunktion
p1088
sg15
I9999
sg16
F0.71
sg17
Nsg18
Nsg19
Nsg20
F0.00377
sg21
F0.34035211461608245
sg22
F0.742
sg23
Nsg24
Nsg25
F-3.592
ssg26
I01
sba(iSong
Song
p1089
(dp1090
g3
(dp1091
g5
F0.02
sg6
VSailin' Shoes
p1092
sg8
F94.518
sg9
F0.913
sg10
S'blues'
p1093
sg12
F0.0594
sg13
VPhilip Sayce
p1094
sg15
I9999
sg16
F0.473
sg17
Nsg18
Nsg19
Nsg20
F0.000109
sg21
F0.34035211461608245
sg22
F0.594
sg23
Nsg24
Nsg25
F-6.05
ssg26
I01
sba(iSong
Song
p1095
(dp1096
g3
(dp1097
g5
F0.0175
sg6
VPoint of View
p1098
sg8
F202.18
sg9
F0.924
sg10
S'blues'
p1099
sg12
F0.0497
sg13
VHenrik Freischlader
p1100
sg15
I9999
sg16
F0.317
sg17
Nsg18
Nsg19
Nsg20
F0.000148
sg21
F0.34035211461608245
sg22
F0.701
sg23
Nsg24
Nsg25
F-3.369
ssg26
I01
sba(iSong
Song
p1101
(dp1102
g3
(dp1103
g5
F0.295
sg6
VLove Sweet Love
p1104
sg8
F110.978
sg9
F0.777
sg10
S'blues'
p1105
sg12
F0.0262
sg13
VAnthony Gomes
p1106
sg15
I9999
sg16
F0.612
sg17
Nsg18
Nsg19
Nsg20
I0
sg21
F0.34035211461608245
sg22
F0.857
sg23
Nsg24
Nsg25
F-2.843
ssg26
I01
sba(iSong
Song
p1107
(dp1108
g3
(dp1109
g5
F0.0971
sg6
VBig Mouth
p1110
sg8
F99.37
sg9
F0.743
sg10
S'blues'
p1111
sg12
F0.0349
sg13
VMike Zito
p1112
sg15
I9999
sg16
F0.604
sg17
Nsg18
Nsg19
Nsg20
F0.000131
sg21
F0.34035211461608245
sg22
F0.823
sg23
Nsg24
Nsg25
F-6.442
ssg26
I01
sba(iSong
Song
p1113
(dp1114
g3
(dp1115
g5
F0.133
sg6
VGo Faster
p1116
sg8
F118.09
sg9
F0.939
sg10
S'blues'
p1117
sg12
F0.0554
sg13
VRichie Kotzen
p1118
sg15
I9999
sg16
F0.504
sg17
Nsg18
Nsg19
Nsg20
F0.00758
sg21
F0.34035211461608245
sg22
F0.741
sg23
Nsg24
Nsg25
F-1.786
ssg26
I01
sba(iSong
Song
p1119
(dp1120
g3
(dp1121
g5
F0.0846
sg6
VFew And Far Between
p1122
sg8
F190.415
sg9
F0.627
sg10
S'blues'
p1123
sg12
F0.122
sg13
VShannon Curfman
p1124
sg15
I9999
sg16
F0.574
sg17
Nsg18
Nsg19
Nsg20
I0
sg21
F0.34035211461608245
sg22
F0.864
sg23
Nsg24
Nsg25
F-6.182
ssg26
I01
sba(iSong
Song
p1125
(dp1126
g3
(dp1127
g5
F0.212
sg6
VOpen Road
p1128
sg8
F92.01
sg9
F0.576
sg10
S'blues'
p1129
sg12
F0.0565
sg13
VOli Brown
p1130
sg15
I9999
sg16
F0.628
sg17
Nsg18
Nsg19
Nsg20
F4.47e-05
sg21
F0.34035211461608245
sg22
F0.693
sg23
Nsg24
Nsg25
F-4.694
ssg26
I01
sba(iSong
Song
p1131
(dp1132
g3
(dp1133
g5
F0.0143
sg6
VLife On The Outside
p1134
sg8
F106.789
sg9
F0.99
sg10
S'blues'
p1135
sg12
F0.125
sg13
VGov't Mule
p1136
sg15
I9999
sg16
F0.498
sg17
Nsg18
Nsg19
Nsg20
F0.0258
sg21
F0.34035211461608245
sg22
F0.394
sg23
Nsg24
Nsg25
F-2.721
ssg26
I01
sba(iSong
Song
p1137
(dp1138
g3
(dp1139
g5
F0.16
sg6
VBefore You Hit The Ground
p1140
sg8
F92.169
sg9
F0.876
sg10
S'blues'
p1141
sg12
F0.0873
sg13
VJonny Lang
p1142
sg15
I9999
sg16
F0.724
sg17
Nsg18
Nsg19
Nsg20
F0.00278
sg21
F0.34035211461608245
sg22
F0.812
sg23
Nsg24
Nsg25
F-5.854
ssg26
I01
sba(iSong
Song
p1143
(dp1144
g3
(dp1145
g5
F0.00371
sg6
VMotivational Speaker
p1146
sg8
F101.517
sg9
F0.849
sg10
S'blues'
p1147
sg12
F0.0389
sg13
VAlvin Youngblood Hart
p1148
sg15
I9999
sg16
F0.608
sg17
Nsg18
Nsg19
Nsg20
F0.0259
sg21
F0.34035211461608245
sg22
F0.644
sg23
Nsg24
Nsg25
F-6.66
ssg26
I01
sba(iSong
Song
p1149
(dp1150
g3
(dp1151
g5
F0.000197
sg6
VFunky Guitar Blues
p1152
sg8
F114.894
sg9
F0.871
sg10
S'blues'
p1153
sg12
F0.029
sg13
VBryce Janey
p1154
sg15
I9999
sg16
F0.563
sg17
Nsg18
Nsg19
Nsg20
F0.0128
sg21
F0.34035211461608245
sg22
F0.517
sg23
Nsg24
Nsg25
F-5.825
ssg26
I01
sba(iSong
Song
p1155
(dp1156
g3
(dp1157
g5
F0.0203
sg6
VWho Do You Love?
p1158
sg8
F104.014
sg9
F0.648
sg10
S'blues'
p1159
sg12
F0.0382
sg13
VJoanne Shaw Taylor
p1160
sg15
I9999
sg16
F0.629
sg17
Nsg18
Nsg19
Nsg20
F0.0356
sg21
F0.34035211461608245
sg22
F0.691
sg23
Nsg24
Nsg25
F-14.063
ssg26
I01
sba(iSong
Song
p1161
(dp1162
g3
(dp1163
g5
F0.251
sg6
VT.C.B. or T.Y.A.
p1164
sg8
F104.069
sg9
F0.958
sg10
S'blues'
p1165
sg12
F0.154
sg13
VEdwin McCain
p1166
sg15
I9999
sg16
F0.74
sg17
Nsg18
Nsg19
Nsg20
F5.84e-06
sg21
F0.34035211461608245
sg22
F0.83
sg23
Nsg24
Nsg25
F-2.236
ssg26
I01
sba(iSong
Song
p1167
(dp1168
g3
(dp1169
g5
F0.0766
sg6
VVixen Eyes
p1170
sg8
F110.052
sg9
F0.873
sg10
S'blues'
p1171
sg12
F0.0538
sg13
VGugun Power Trio
p1172
sg15
I9999
sg16
F0.688
sg17
Nsg18
Nsg19
Nsg20
F0.00173
sg21
F0.34035211461608245
sg22
F0.905
sg23
Nsg24
Nsg25
F-7.448
ssg26
I01
sba(iSong
Song
p1173
(dp1174
g3
(dp1175
g5
F0.000233
sg6
VSoul On Fire
p1176
sg8
F131.54
sg9
F0.858
sg10
S'blues'
p1177
sg12
F0.0392
sg13
VSaint Jude
p1178
sg15
I9999
sg16
F0.46
sg17
Nsg18
Nsg19
Nsg20
F6.72e-05
sg21
F0.34035211461608245
sg22
F0.502
sg23
Nsg24
Nsg25
F-4.495
ssg26
I01
sba(iSong
Song
p1179
(dp1180
g3
(dp1181
g5
F0.0132
sg6
VWalkin' The Dawg
p1182
sg8
F87.377
sg9
F0.923
sg10
S'blues'
p1183
sg12
F0.0474
sg13
VTony Spinner
p1184
sg15
I9999
sg16
F0.626
sg17
Nsg18
Nsg19
Nsg20
F0.000771
sg21
F0.34035211461608245
sg22
F0.845
sg23
Nsg24
Nsg25
F-4.448
ssg26
I01
sba(iSong
Song
p1185
(dp1186
g3
(dp1187
g5
F0.0929
sg6
VLives That Don't Exist
p1188
sg8
F100.61
sg9
F0.92
sg10
S'blues'
p1189
sg12
F0.0849
sg13
VAna Popovic
p1190
sg15
I9999
sg16
F0.715
sg17
Nsg18
Nsg19
Nsg20
I0
sg21
F0.34035211461608245
sg22
F0.798
sg23
Nsg24
Nsg25
F-4.189
ssg26
I01
sba(iSong
Song
p1191
(dp1192
g3
(dp1193
g5
F0.0582
sg6
VDark Side Of Love
p1194
sg8
F118.079
sg9
F0.879
sg10
S'blues'
p1195
sg12
F0.0469
sg13
VKenny Wayne Shepherd
p1196
sg15
I9999
sg16
F0.525
sg17
Nsg18
Nsg19
Nsg20
F0.00396
sg21
F0.34035211461608245
sg22
F0.842
sg23
Nsg24
Nsg25
F-4.927
ssg26
I01
sba(iSong
Song
p1197
(dp1198
g3
(dp1199
g5
F0.00178
sg6
VHoney
p1200
sg8
F167.25
sg9
F0.887
sg10
S'blues'
p1201
sg12
F0.0497
sg13
VPaulo Mendonca
p1202
sg15
I9999
sg16
F0.467
sg17
Nsg18
Nsg19
Nsg20
I0
sg21
F0.34035211461608245
sg22
F0.756
sg23
Nsg24
Nsg25
F-5.247
ssg26
I01
sba(iSong
Song
p1203
(dp1204
g3
(dp1205
g5
F0.000744
sg6
VLove Ain't a Love Song
p1206
sg8
F94.414
sg9
F0.944
sg10
S'blues'
p1207
sg12
F0.0686
sg13
VJoe Bonamassa
p1208
sg15
I9999
sg16
F0.471
sg17
Nsg18
Nsg19
Nsg20
F0.000587
sg21
F0.34035211461608245
sg22
F0.763
sg23
Nsg24
Nsg25
F-4.673
ssg26
I01
sba(iSong
Song
p1209
(dp1210
g3
(dp1211
g5
F0.194
sg6
VGroove With Me
p1212
sg8
F99.523
sg9
F0.689
sg10
S'blues'
p1213
sg12
F0.0715
sg13
VBernard Allison
p1214
sg15
I9999
sg16
F0.816
sg17
Nsg18
Nsg19
Nsg20
F0.0322
sg21
F0.34035211461608245
sg22
F0.567
sg23
Nsg24
Nsg25
F-5.793
ssg26
I01
sba(iSong
Song
p1215
(dp1216
g3
(dp1217
g5
F0.815
sg6
VDiving Duck Blues
p1218
sg8
F131.572
sg9
F0.269
sg10
S'blues'
p1219
sg12
F0.0394
sg13
VTaj Mahal
p1220
sg15
I9999
sg16
F0.616
sg17
Nsg18
Nsg19
Nsg20
I0
sg21
F0.34035211461608245
sg22
F0.696
sg23
Nsg24
Nsg25
F-11.631
ssg26
I01
sba(iSong
Song
p1221
(dp1222
g3
(dp1223
g5
F0.814
sg6
VBumble Bee (Live)
p1224
sg8
F75.727
sg9
F0.244
sg10
S'blues'
p1225
sg12
F0.063
sg13
VDani Wilde
p1226
sg15
I9999
sg16
F0.471
sg17
Nsg18
Nsg19
Nsg20
F4.25e-05
sg21
F0.34035211461608245
sg22
F0.444
sg23
Nsg24
Nsg25
F-9.023
ssg26
I01
sba(iSong
Song
p1227
(dp1228
g3
(dp1229
g5
F0.716
sg6
VNo Expectations
p1230
sg8
F84.462
sg9
F0.28
sg10
S'blues'
p1231
sg12
F0.0361
sg13
VGeorge Thorogood
p1232
sg15
I9999
sg16
F0.47
sg17
Nsg18
Nsg19
Nsg20
F0.0029
sg21
F0.34035211461608245
sg22
F0.261
sg23
Nsg24
Nsg25
F-9.093
ssg26
I01
sba(iSong
Song
p1233
(dp1234
g3
(dp1235
g5
F0.913
sg6
VKansas City Blues
p1236
sg8
F79.576
sg9
F0.276
sg10
S'blues'
p1237
sg12
F0.0481
sg13
VSteve Howell
p1238
sg15
I9999
sg16
F0.584
sg17
Nsg18
Nsg19
Nsg20
F0.000562
sg21
F0.34035211461608245
sg22
F0.398
sg23
Nsg24
Nsg25
F-12.256
ssg26
I01
sba(iSong
Song
p1239
(dp1240
g3
(dp1241
g5
F0.872
sg6
VDelta Getaway
p1242
sg8
F99.304
sg9
F0.281
sg10
S'blues'
p1243
sg12
F0.0489
sg13
VEric Bibb
p1244
sg15
I9999
sg16
F0.778
sg17
Nsg18
Nsg19
Nsg20
F0.00878
sg21
F0.34035211461608245
sg22
F0.783
sg23
Nsg24
Nsg25
F-12.993
ssg26
I01
sba(iSong
Song
p1245
(dp1246
g3
(dp1247
g5
F0.816
sg6
VBreak My Fall
p1248
sg8
F139.308
sg9
F0.317
sg10
S'blues'
p1249
sg12
F0.0297
sg13
VThe Cold Stares
p1250
sg15
I9999
sg16
F0.49
sg17
Nsg18
Nsg19
Nsg20
F0.000123
sg21
F0.34035211461608245
sg22
F0.251
sg23
Nsg24
Nsg25
F-8.12
ssg26
I01
sba(iSong
Song
p1251
(dp1252
g3
(dp1253
g5
F0.816
sg6
VBad to the Bone
p1254
sg8
F168.939
sg9
F0.0704
sg10
S'blues'
p1255
sg12
F0.0678
sg13
VCarolyn Wonderland
p1256
sg15
I9999
sg16
F0.578
sg17
Nsg18
Nsg19
Nsg20
F0.00298
sg21
F0.34035211461608245
sg22
F0.288
sg23
Nsg24
Nsg25
F-13.44
ssg26
I01
sba(iSong
Song
p1257
(dp1258
g3
(dp1259
g5
F0.834
sg6
VLead Me On
p1260
sg8
F176.666
sg9
F0.307
sg10
S'blues'
p1261
sg12
F0.031
sg13
VKelly Joe Phelps
p1262
sg15
I9999
sg16
F0.345
sg17
Nsg18
Nsg19
Nsg20
F0.000239
sg21
F0.34035211461608245
sg22
F0.483
sg23
Nsg24
Nsg25
F-13.97
ssg26
I01
sba(iSong
Song
p1263
(dp1264
g3
(dp1265
g5
F0.458
sg6
VAm I Wrong
p1266
sg8
F112.65
sg9
F0.476
sg10
S'blues'
p1267
sg12
F0.0528
sg13
VKeb' Mo'
p1268
sg15
I9999
sg16
F0.882
sg17
Nsg18
Nsg19
Nsg20
F2.47e-06
sg21
F0.34035211461608245
sg22
F0.964
sg23
Nsg24
Nsg25
F-9.235
ssg26
I01
sba(iSong
Song
p1269
(dp1270
g3
(dp1271
g5
F0.522
sg6
VCross Creek Road
p1272
sg8
F132.53
sg9
F0.248
sg10
S'blues'
p1273
sg12
F0.0752
sg13
VBig Daddy Wilson
p1274
sg15
I9999
sg16
F0.708
sg17
Nsg18
Nsg19
Nsg20
F2.7e-06
sg21
F0.34035211461608245
sg22
F0.612
sg23
Nsg24
Nsg25
F-9.894
ssg26
I01
sba(iSong
Song
p1275
(dp1276
g3
(dp1277
g5
F0.952
sg6
VOh Lord
p1278
sg8
F133.858
sg9
F0.197
sg10
S'blues'
p1279
sg12
F0.0324
sg13
VJj Thames
p1280
sg15
I9999
sg16
F0.492
sg17
Nsg18
Nsg19
Nsg20
F0.000171
sg21
F0.34035211461608245
sg22
F0.29
sg23
Nsg24
Nsg25
F-14.56
ssg26
I01
sba(iSong
Song
p1281
(dp1282
g3
(dp1283
g5
F0.773
sg6
VWith My Maker I Am One
p1284
sg8
F97.95
sg9
F0.213
sg10
S'blues'
p1285
sg12
F0.0479
sg13
VEric Bibb
p1286
sg15
I9999
sg16
F0.791
sg17
Nsg18
Nsg19
Nsg20
F2.39e-05
sg21
F0.34035211461608245
sg22
F0.597
sg23
Nsg24
Nsg25
F-11.154
ssg26
I01
sba(iSong
Song
p1287
(dp1288
g3
(dp1289
g5
F0.618
sg6
VRiding In the Moonlight / Mr. Luck
p1290
sg8
F131.123
sg9
F0.697
sg10
S'blues'
p1291
sg12
F0.0813
sg13
VColin James
p1292
sg15
I9999
sg16
F0.619
sg17
Nsg18
Nsg19
Nsg20
F0.000315
sg21
F0.34035211461608245
sg22
F0.961
sg23
Nsg24
Nsg25
F-6.167
ssg26
I01
sba(iSong
Song
p1293
(dp1294
g3
(dp1295
g5
F0.885
sg6
VRight Here
p1296
sg8
F143.376
sg9
F0.194
sg10
S'blues'
p1297
sg12
F0.0729
sg13
VKeller Williams
p1298
sg15
I9999
sg16
F0.633
sg17
Nsg18
Nsg19
Nsg20
F0.404
sg21
F0.34035211461608245
sg22
F0.421
sg23
Nsg24
Nsg25
F-14.543
ssg26
I01
sba(iSong
Song
p1299
(dp1300
g3
(dp1301
g5
F0.346
sg6
VGoing Down the Road Feeling Bad
p1302
sg8
F182.966
sg9
F0.567
sg10
S'blues'
p1303
sg12
F0.0397
sg13
VSteve Hill
p1304
sg15
I9999
sg16
F0.401
sg17
Nsg18
Nsg19
Nsg20
F0.125
sg21
F0.34035211461608245
sg22
F0.622
sg23
Nsg24
Nsg25
F-9.327
ssg26
I01
sba(iSong
Song
p1305
(dp1306
g3
(dp1307
g5
F0.871
sg6
VDon't Ask Me (Bonus Track)
p1308
sg8
F106.225
sg9
F0.391
sg10
S'blues'
p1309
sg12
F0.121
sg13
VSeasick Steve
p1310
sg15
I9999
sg16
F0.671
sg17
Nsg18
Nsg19
Nsg20
F0.0265
sg21
F0.34035211461608245
sg22
F0.288
sg23
Nsg24
Nsg25
F-13.43
ssg26
I01
sba(iSong
Song
p1311
(dp1312
g3
(dp1313
g5
F0.928
sg6
VRefugee Moan
p1314
sg8
F128.158
sg9
F0.22
sg10
S'blues'
p1315
sg12
F0.0953
sg13
VEric Bibb
p1316
sg15
I9999
sg16
F0.639
sg17
Nsg18
Nsg19
Nsg20
F0.00156
sg21
F0.34035211461608245
sg22
F0.514
sg23
Nsg24
Nsg25
F-12.694
ssg26
I01
sba(iSong
Song
p1317
(dp1318
g3
(dp1319
g5
F0.983
sg6
VSo Grateful
p1320
sg8
F93.659
sg9
F0.109
sg10
S'blues'
p1321
sg12
F0.0355
sg13
VCee Cee James
p1322
sg15
I9999
sg16
F0.434
sg17
Nsg18
Nsg19
Nsg20
F0.000376
sg21
F0.34035211461608245
sg22
F0.25
sg23
Nsg24
Nsg25
F-15.279
ssg26
I01
sba(iSong
Song
p1323
(dp1324
g3
(dp1325
g5
F0.906
sg6
VOh Now
p1326
sg8
F174.427
sg9
F0.207
sg10
S'blues'
p1327
sg12
F0.0299
sg13
VBrian Casey
p1328
sg15
I9999
sg16
F0.452
sg17
Nsg18
Nsg19
Nsg20
F0.283
sg21
F0.34035211461608245
sg22
F0.347
sg23
Nsg24
Nsg25
F-13.043
ssg26
I01
sba(iSong
Song
p1329
(dp1330
g3
(dp1331
g5
F0.872
sg6
VWhen the Levee Breaks (feat. Jean Jacques Milteau)
p1332
sg8
F104.472
sg9
F0.211
sg10
S'blues'
p1333
sg12
F0.0497
sg13
VCary Morin
p1334
sg15
I9999
sg16
F0.73
sg17
Nsg18
Nsg19
Nsg20
F0.19
sg21
F0.34035211461608245
sg22
F0.76
sg23
Nsg24
Nsg25
F-12.914
ssg26
I01
sba(iSong
Song
p1335
(dp1336
g3
(dp1337
g5
F0.91
sg6
VLong Way Home
p1338
sg8
F78.033
sg9
F0.054
sg10
S'blues'
p1339
sg12
F0.038
sg13
VClarence "Gatemouth" Brown
p1340
sg15
I9999
sg16
F0.728
sg17
Nsg18
Nsg19
Nsg20
F0.048
sg21
F0.34035211461608245
sg22
F0.425
sg23
Nsg24
Nsg25
F-22.557
ssg26
I01
sba(iSong
Song
p1341
(dp1342
g3
(dp1343
g5
F0.861
sg6
VYou Don't Care for Me Enough to Cry
p1344
sg8
F90.346
sg9
F0.208
sg10
S'blues'
p1345
sg12
F0.0359
sg13
VJohn Moreland
p1346
sg15
I9999
sg16
F0.389
sg17
Nsg18
Nsg19
Nsg20
F7.76e-06
sg21
F0.34035211461608245
sg22
F0.233
sg23
Nsg24
Nsg25
F-11.669
ssg26
I01
sba(iSong
Song
p1347
(dp1348
g3
(dp1349
g5
F0.84
sg6
VThumb A Ride
p1350
sg8
F96.04
sg9
F0.27
sg10
S'blues'
p1351
sg12
F0.0367
sg13
VBig Daddy Wilson
p1352
sg15
I9999
sg16
F0.727
sg17
Nsg18
Nsg19
Nsg20
F0.124
sg21
F0.34035211461608245
sg22
F0.742
sg23
Nsg24
Nsg25
F-13.179
ssg26
I01
sba(iSong
Song
p1353
(dp1354
g3
(dp1355
g5
F0.818
sg6
VApple Picker (Acoustic)
p1356
sg8
F114.136
sg9
F0.102
sg10
S'blues'
p1357
sg12
F0.061
sg13
VLittle G Weevil
p1358
sg15
I9999
sg16
F0.692
sg17
Nsg18
Nsg19
Nsg20
F0.00328
sg21
F0.34035211461608245
sg22
F0.475
sg23
Nsg24
Nsg25
F-11.721
ssg26
I01
sba(iSong
Song
p1359
(dp1360
g3
(dp1361
g5
F0.837
sg6
VBaby, Please Don't Go
p1362
sg8
F124.312
sg9
F0.408
sg10
S'blues'
p1363
sg12
F0.0328
sg13
VPreacher Boy
p1364
sg15
I9999
sg16
F0.553
sg17
Nsg18
Nsg19
Nsg20
F0.00034
sg21
F0.34035211461608245
sg22
F0.16
sg23
Nsg24
Nsg25
F-7.476
ssg26
I01
sba(iSong
Song
p1365
(dp1366
g3
(dp1367
g5
F0.924
sg6
VWalking Blues
p1368
sg8
F106.428
sg9
F0.104
sg10
S'blues'
p1369
sg12
F0.053
sg13
VRory Block
p1370
sg15
I9999
sg16
F0.831
sg17
Nsg18
Nsg19
Nsg20
I0
sg21
F0.34035211461608245
sg22
F0.572
sg23
Nsg24
Nsg25
F-14.655
ssg26
I01
sba(iSong
Song
p1371
(dp1372
g3
(dp1373
g5
F0.746
sg6
VGoing To Canada
p1374
sg8
F94.728
sg9
F0.416
sg10
S'blues'
p1375
sg12
F0.111
sg13
VJoe Louis Walker
p1376
sg15
I9999
sg16
F0.528
sg17
Nsg18
Nsg19
Nsg20
F0.00864
sg21
F0.34035211461608245
sg22
F0.826
sg23
Nsg24
Nsg25
F-13.829
ssg26
I01
sba(iSong
Song
p1377
(dp1378
g3
(dp1379
g5
F0.774
sg6
VMake Me A Pallet On Your Floor
p1380
sg8
F180.218
sg9
F0.398
sg10
S'blues'
p1381
sg12
F0.0328
sg13
VRory Block
p1382
sg15
I9999
sg16
F0.392
sg17
Nsg18
Nsg19
Nsg20
F0.00229
sg21
F0.34035211461608245
sg22
F0.721
sg23
Nsg24
Nsg25
F-9.493
ssg26
I01
sba(iSong
Song
p1383
(dp1384
g3
(dp1385
g5
F0.676
sg6
VSeven Hours Of Light
p1386
sg8
F174.626
sg9
F0.098
sg10
S'blues'
p1387
sg12
F0.122
sg13
VOtis Taylor
p1388
sg15
I9999
sg16
F0.595
sg17
Nsg18
Nsg19
Nsg20
F0.128
sg21
F0.34035211461608245
sg22
F0.451
sg23
Nsg24
Nsg25
F-14.736
ssg26
I01
sba(iSong
Song
p1389
(dp1390
g3
(dp1391
g5
F0.758
sg6
VPrisoner
p1392
sg8
F89.955
sg9
F0.086
sg10
S'blues'
p1393
sg12
F0.036
sg13
VCary Morin
p1394
sg15
I9999
sg16
F0.54
sg17
Nsg18
Nsg19
Nsg20
F6e-05
sg21
F0.34035211461608245
sg22
F0.285
sg23
Nsg24
Nsg25
F-16.292
ssg26
I01
sba(iSong
Song
p1395
(dp1396
g3
(dp1397
g5
F0.823
sg6
VAmerica the Beautiful
p1398
sg8
F79.808
sg9
F0.31
sg10
S'blues'
p1399
sg12
F0.0303
sg13
VKeb' Mo'
p1400
sg15
I9999
sg16
F0.67
sg17
Nsg18
Nsg19
Nsg20
F0.000154
sg21
F0.34035211461608245
sg22
F0.501
sg23
Nsg24
Nsg25
F-9.487
ssg26
I01
sba(iSong
Song
p1401
(dp1402
g3
(dp1403
g5
F0.81
sg6
VPlay With Your Poodle
p1404
sg8
F165.893
sg9
F0.43
sg10
S'blues'
p1405
sg12
F0.25
sg13
VJames Cotton
p1406
sg15
I9999
sg16
F0.515
sg17
Nsg18
Nsg19
Nsg20
F0.0069
sg21
F0.34035211461608245
sg22
F0.624
sg23
Nsg24
Nsg25
F-10.912
ssg26
I01
sba(iSong
Song
p1407
(dp1408
g3
(dp1409
g5
F0.941
sg6
VTalkin' To Jehova
p1410
sg8
F107.134
sg9
F0.142
sg10
S'blues'
p1411
sg12
F0.05
sg13
VKelly Joe Phelps
p1412
sg15
I9999
sg16
F0.72
sg17
Nsg18
Nsg19
Nsg20
F0.0969
sg21
F0.34035211461608245
sg22
F0.64
sg23
Nsg24
Nsg25
F-18.26
ssg26
I01
sba(iSong
Song
p1413
(dp1414
g3
(dp1415
g5
F0.873
sg6
VMaybe I'll Go
p1416
sg8
F79.403
sg9
F0.247
sg10
S'blues'
p1417
sg12
F0.047
sg13
VGuy Davis
p1418
sg15
I9999
sg16
F0.666
sg17
Nsg18
Nsg19
Nsg20
F0.00656
sg21
F0.34035211461608245
sg22
F0.721
sg23
Nsg24
Nsg25
F-13.273
ssg26
I01
sba(iSong
Song
p1419
(dp1420
g3
(dp1421
g5
F0.311
sg6
VSlowly Slipping Away
p1422
sg8
F177.42
sg9
F0.444
sg10
S'blues'
p1423
sg12
F0.0345
sg13
VSteve Hill
p1424
sg15
I9999
sg16
F0.384
sg17
Nsg18
Nsg19
Nsg20
F0.000449
sg21
F0.34035211461608245
sg22
F0.663
sg23
Nsg24
Nsg25
F-9.02
ssg26
I01
sba(iSong
Song
p1425
(dp1426
g3
(dp1427
g5
F0.98
sg6
VLet's Have Some Fun
p1428
sg8
F91.257
sg9
F0.318
sg10
S'blues'
p1429
sg12
F0.0281
sg13
VSamantha Fish
p1430
sg15
I9999
sg16
F0.674
sg17
Nsg18
Nsg19
Nsg20
F0.00144
sg21
F0.34035211461608245
sg22
F0.189
sg23
Nsg24
Nsg25
F-6.825
ssg26
I01
sba(iSong
Song
p1431
(dp1432
g3
(dp1433
g5
F0.848
sg6
VBig Mama's Door
p1434
sg8
F98.527
sg9
F0.195
sg10
S'blues'
p1435
sg12
F0.0406
sg13
VAlvin Youngblood Hart
p1436
sg15
I9999
sg16
F0.628
sg17
Nsg18
Nsg19
Nsg20
F5.05e-05
sg21
F0.34035211461608245
sg22
F0.538
sg23
Nsg24
Nsg25
F-13.054
ssg26
I01
sba(iSong
Song
p1437
(dp1438
g3
(dp1439
g5
F0.964
sg6
VCalling Out To You
p1440
sg8
F102.067
sg9
F0.118
sg10
S'blues'
p1441
sg12
F0.0358
sg13
VTedeschi Trucks Band
p1442
sg15
I9999
sg16
F0.597
sg17
Nsg18
Nsg19
Nsg20
F0.00132
sg21
F0.34035211461608245
sg22
F0.316
sg23
Nsg24
Nsg25
F-13.908
ssg26
I01
sba(iSong
Song
p1443
(dp1444
g3
(dp1445
g5
F0.837
sg6
VSearching Blues
p1446
sg8
F116.921
sg9
F0.249
sg10
S'blues'
p1447
sg12
F0.0338
sg13
VManuel Galvin
p1448
sg15
I9999
sg16
F0.687
sg17
Nsg18
Nsg19
Nsg20
F0.0033
sg21
F0.34035211461608245
sg22
F0.471
sg23
Nsg24
Nsg25
F-14.112
ssg26
I01
sba(iSong
Song
p1449
(dp1450
g3
(dp1451
g5
F0.419
sg6
VWalking the dog
p1452
sg8
F113.221
sg9
F0.165
sg10
S'blues'
p1453
sg12
F0.0584
sg13
VHans Theessink
p1454
sg15
I9999
sg16
F0.837
sg17
Nsg18
Nsg19
Nsg20
F2.92e-06
sg21
F0.34035211461608245
sg22
F0.446
sg23
Nsg24
Nsg25
F-10.946
ssg26
I01
sba(iSong
Song
p1455
(dp1456
g3
(dp1457
g5
F0.878
sg6
VSamson And Delilah
p1458
sg8
F114.302
sg9
F0.237
sg10
S'blues'
p1459
sg12
F0.0567
sg13
VRev. Gary Davis
p1460
sg15
I9999
sg16
F0.712
sg17
Nsg18
Nsg19
Nsg20
F0.000601
sg21
F0.34035211461608245
sg22
F0.751
sg23
Nsg24
Nsg25
F-13.898
ssg26
I01
sba(iSong
Song
p1461
(dp1462
g3
(dp1463
g5
F0.978
sg6
VKeep Your Lamp Trimmed And Burning
p1464
sg8
F134.237
sg9
F0.0422
sg10
S'blues'
p1465
sg12
F0.0423
sg13
VCorey Harris
p1466
sg15
I9999
sg16
F0.642
sg17
Nsg18
Nsg19
Nsg20
F0.000295
sg21
F0.34035211461608245
sg22
F0.331
sg23
Nsg24
Nsg25
I-21
ssg26
I01
sba(iSong
Song
p1467
(dp1468
g3
(dp1469
g5
F0.962
sg6
VPray For Rain
p1470
sg8
F154.328
sg9
F0.0863
sg10
S'blues'
p1471
sg12
F0.0357
sg13
VWalter Trout
p1472
sg15
I9999
sg16
F0.425
sg17
Nsg18
Nsg19
Nsg20
F0.00615
sg21
F0.34035211461608245
sg22
F0.362
sg23
Nsg24
Nsg25
F-15.163
ssg26
I01
sba(iSong
Song
p1473
(dp1474
g3
(dp1475
g5
F0.9
sg6
VI'm So Lonely
p1476
sg8
F177.555
sg9
F0.0488
sg10
S'blues'
p1477
sg12
F0.0491
sg13
VThe Holmes Brothers
p1478
sg15
I9999
sg16
F0.472
sg17
Nsg18
Nsg19
Nsg20
F0.00799
sg21
F0.34035211461608245
sg22
F0.166
sg23
Nsg24
Nsg25
F-19.635
ssg26
I01
sba(iSong
Song
p1479
(dp1480
g3
(dp1481
g5
F0.511
sg6
VDeath Row
p1482
sg8
F141.496
sg9
F0.596
sg10
S'blues'
p1483
sg12
F0.0288
sg13
VMike Zito
p1484
sg15
I9999
sg16
F0.714
sg17
Nsg18
Nsg19
Nsg20
F0.00718
sg21
F0.34035211461608245
sg22
F0.665
sg23
Nsg24
Nsg25
F-8.288
ssg26
I01
sba(iSong
Song
p1485
(dp1486
g3
(dp1487
g5
F0.75
sg6
VRatchet Blues
p1488
sg8
F92.957
sg9
F0.668
sg10
S'blues'
p1489
sg12
F0.0734
sg13
VEric Sardinas
p1490
sg15
I9999
sg16
F0.709
sg17
Nsg18
Nsg19
Nsg20
I0
sg21
F0.34035211461608245
sg22
F0.873
sg23
Nsg24
Nsg25
F-6.008
ssg26
I01
sba(iSong
Song
p1491
(dp1492
g3
(dp1493
g5
F0.964
sg6
VCoffee Blues
p1494
sg8
F104.233
sg9
F0.0785
sg10
S'blues'
p1495
sg12
F0.0503
sg13
VMississippi John Hurt
p1496
sg15
I9999
sg16
F0.61
sg17
Nsg18
Nsg19
Nsg20
F0.00014
sg21
F0.34035211461608245
sg22
F0.763
sg23
Nsg24
Nsg25
F-20.543
ssg26
I01
sba(iSong
Song
p1497
(dp1498
g3
(dp1499
g5
F0.694
sg6
VWhat They Say
p1500
sg8
F83.273
sg9
F0.574
sg10
S'blues'
p1501
sg12
F0.0322
sg13
VChris Smither
p1502
sg15
I9999
sg16
F0.57
sg17
Nsg18
Nsg19
Nsg20
F3.02e-06
sg21
F0.34035211461608245
sg22
F0.963
sg23
Nsg24
Nsg25
F-6.432
ssg26
I01
sba(iSong
Song
p1503
(dp1504
g3
(dp1505
g5
F0.869
sg6
VLiving With The Blues
p1506
sg8
F111.887
sg9
F0.11
sg10
S'blues'
p1507
sg12
F0.16
sg13
VHans Theessink
p1508
sg15
I9999
sg16
F0.774
sg17
Nsg18
Nsg19
Nsg20
F9.27e-05
sg21
F0.34035211461608245
sg22
F0.383
sg23
Nsg24
Nsg25
F-18.928
ssg26
I01
sba(iSong
Song
p1509
(dp1510
g3
(dp1511
g5
F0.925
sg6
VOutside In
p1512
sg8
F79.81
sg9
F0.307
sg10
S'blues'
p1513
sg12
F0.0342
sg13
VChris Smither
p1514
sg15
I9999
sg16
F0.485
sg17
Nsg18
Nsg19
Nsg20
F0.015
sg21
F0.34035211461608245
sg22
F0.437
sg23
Nsg24
Nsg25
F-12.69
ssg26
I01
sba(iSong
Song
p1515
(dp1516
g3
(dp1517
g5
F0.968
sg6
VTurtle Beach
p1518
sg8
F95.664
sg9
F0.141
sg10
S'blues'
p1519
sg12
F0.0325
sg13
VEric Von Schmidt
p1520
sg15
I9999
sg16
F0.535
sg17
Nsg18
Nsg19
Nsg20
F0.0738
sg21
F0.34035211461608245
sg22
F0.536
sg23
Nsg24
Nsg25
F-16.568
ssg26
I01
sba(iSong
Song
p1521
(dp1522
g3
(dp1523
g5
F0.805
sg6
VLife By The Drop
p1524
sg8
F95.963
sg9
F0.204
sg10
S'blues'
p1525
sg12
F0.0358
sg13
VStevie Ray Vaughan
p1526
sg15
I9999
sg16
F0.663
sg17
Nsg18
Nsg19
Nsg20
F1.42e-05
sg21
F0.34035211461608245
sg22
F0.52
sg23
Nsg24
Nsg25
F-9.921
ssg26
I01
sba(iSong
Song
p1527
(dp1528
g3
(dp1529
g5
F0.813
sg6
VGuitar & Harmonica Rag
p1530
sg8
F114.668
sg9
F0.314
sg10
S'blues'
p1531
sg12
F0.0718
sg13
VBowling Green John Cephas
p1532
sg15
I9999
sg16
F0.724
sg17
Nsg18
Nsg19
Nsg20
F0.937
sg21
F0.34035211461608245
sg22
F0.877
sg23
Nsg24
Nsg25
F-10.887
ssg26
I01
sba(iSong
Song
p1533
(dp1534
g3
(dp1535
g5
F0.581
sg6
VYou'll All Get What's Coming To You
p1536
sg8
F117.198
sg9
F0.531
sg10
S'blues'
p1537
sg12
F0.0325
sg13
VDan Arborise
p1538
sg15
I9999
sg16
F0.467
sg17
Nsg18
Nsg19
Nsg20
F0.0299
sg21
F0.34035211461608245
sg22
F0.232
sg23
Nsg24
Nsg25
F-9.047
ssg26
I01
sba(iSong
Song
p1539
(dp1540
g3
(dp1541
g5
F0.824
sg6
VAlabama Blues
p1542
sg8
F97.446
sg9
F0.308
sg10
S'blues'
p1543
sg12
F0.0348
sg13
VJ.B. Lenoir
p1544
sg15
I9999
sg16
F0.675
sg17
Nsg18
Nsg19
Nsg20
F3.75e-05
sg21
F0.34035211461608245
sg22
F0.69
sg23
Nsg24
Nsg25
F-8.081
ssg26
I01
sba(iSong
Song
p1545
(dp1546
g3
(dp1547
g5
F0.962
sg6
VJohnny law
p1548
sg8
F107.753
sg9
F0.322
sg10
S'blues'
p1549
sg12
F0.06
sg13
VWilliam Elliott Whitmore
p1550
sg15
I9999
sg16
F0.687
sg17
Nsg18
Nsg19
Nsg20
I0
sg21
F0.34035211461608245
sg22
F0.312
sg23
Nsg24
Nsg25
F-13.015
ssg26
I01
sba(iSong
Song
p1551
(dp1552
g3
(dp1553
g5
F0.54
sg6
VPay Day
p1554
sg8
F90.049
sg9
F0.678
sg10
S'blues'
p1555
sg12
F0.0279
sg13
VThe Blues Preachers
p1556
sg15
I9999
sg16
F0.629
sg17
Nsg18
Nsg19
Nsg20
F5.37e-05
sg21
F0.34035211461608245
sg22
F0.0635
sg23
Nsg24
Nsg25
F-5.839
ssg26
I01
sba(iSong
Song
p1557
(dp1558
g3
(dp1559
g5
F0.673
sg6
VGood Morning Little Schoolgirl
p1560
sg8
F105.457
sg9
F0.435
sg10
S'blues'
p1561
sg12
F0.0343
sg13
VMississippi Fred McDowell
p1562
sg15
I9999
sg16
F0.511
sg17
Nsg18
Nsg19
Nsg20
F0.00552
sg21
F0.34035211461608245
sg22
F0.601
sg23
Nsg24
Nsg25
F-14.689
ssg26
I01
sba(iSong
Song
p1563
(dp1564
g3
(dp1565
g5
F0.93
sg6
VCross Road Blues
p1566
sg8
F97.159
sg9
F0.311
sg10
S'blues'
p1567
sg12
F0.0525
sg13
VRobert Johnson
p1568
sg15
I9999
sg16
F0.675
sg17
Nsg18
Nsg19
Nsg20
F0.000261
sg21
F0.34035211461608245
sg22
F0.638
sg23
Nsg24
Nsg25
F-11.959
ssg26
I01
sba(iSong
Song
p1569
(dp1570
g3
(dp1571
g5
F0.876
sg6
VDeep River Blues
p1572
sg8
F93.719
sg9
F0.157
sg10
S'blues'
p1573
sg12
F0.0354
sg13
VDoc Watson
p1574
sg15
I9999
sg16
F0.516
sg17
Nsg18
Nsg19
Nsg20
F1.42e-05
sg21
F0.34035211461608245
sg22
F0.783
sg23
Nsg24
Nsg25
F-19.213
ssg26
I01
sba(iSong
Song
p1575
(dp1576
g3
(dp1577
g5
F0.708
sg6
VSpoonful
p1578
sg8
F119.108
sg9
F0.466
sg10
S'blues'
p1579
sg12
F0.0426
sg13
VHowlin' Wolf
p1580
sg15
I9999
sg16
F0.854
sg17
Nsg18
Nsg19
Nsg20
F0.000267
sg21
F0.34035211461608245
sg22
F0.634
sg23
Nsg24
Nsg25
F-8.997
ssg26
I01
sba(iSong
Song
p1581
(dp1582
g3
(dp1583
g5
F0.284
sg6
VI'm A Man - Single Version
p1584
sg8
F127.497
sg9
F0.54
sg10
S'blues'
p1585
sg12
F0.0462
sg13
VBo Diddley
p1586
sg15
I9999
sg16
F0.617
sg17
Nsg18
Nsg19
Nsg20
I0
sg21
F0.34035211461608245
sg22
F0.86
sg23
Nsg24
Nsg25
F-13.494
ssg26
I01
sba(iSong
Song
p1587
(dp1588
g3
(dp1589
g5
F0.841
sg6
VMannish Boy
p1590
sg8
F113.529
sg9
F0.666
sg10
S'blues'
p1591
sg12
F0.145
sg13
VMuddy Waters
p1592
sg15
I9999
sg16
F0.567
sg17
Nsg18
Nsg19
Nsg20
F2.53e-05
sg21
F0.34035211461608245
sg22
F0.768
sg23
Nsg24
Nsg25
F-8.658
ssg26
I01
sba(iSong
Song
p1593
(dp1594
g3
(dp1595
g5
F0.678
sg6
VHelp Me
p1596
sg8
F114.03
sg9
F0.43
sg10
S'blues'
p1597
sg12
F0.0525
sg13
VSonny Boy Williamson II
p1598
sg15
I9999
sg16
F0.717
sg17
Nsg18
Nsg19
Nsg20
F0.106
sg21
F0.34035211461608245
sg22
F0.8
sg23
Nsg24
Nsg25
F-10.469
ssg26
I01
sba(iSong
Song
p1599
(dp1600
g3
(dp1601
g5
F0.97
sg6
VI Can't Quit You Baby
p1602
sg8
F86.952
sg9
F0.596
sg10
S'blues'
p1603
sg12
F0.0395
sg13
VOtis Rush
p1604
sg15
I9999
sg16
F0.492
sg17
Nsg18
Nsg19
Nsg20
F0.043
sg21
F0.34035211461608245
sg22
F0.548
sg23
Nsg24
Nsg25
F-4.038
ssg26
I01
sba(iSong
Song
p1605
(dp1606
g3
(dp1607
g5
F0.773
sg6
VMonday Morning Blues - Live
p1608
sg8
F91.447
sg9
F0.413
sg10
S'blues'
p1609
sg12
F0.13
sg13
VMississippi John Hurt
p1610
sg15
I9999
sg16
F0.679
sg17
Nsg18
Nsg19
Nsg20
F0.000183
sg21
F0.34035211461608245
sg22
F0.538
sg23
Nsg24
Nsg25
F-16.566
ssg26
I01
sba(iSong
Song
p1611
(dp1612
g3
(dp1613
g5
F0.949
sg6
VThree O'Clock Blues
p1614
sg8
F70.76
sg9
F0.461
sg10
S'blues'
p1615
sg12
F0.0357
sg13
VB.B. King
p1616
sg15
I9999
sg16
F0.521
sg17
Nsg18
Nsg19
Nsg20
F0.00161
sg21
F0.34035211461608245
sg22
F0.583
sg23
Nsg24
Nsg25
F-7.289
ssg26
I01
sba(iSong
Song
p1617
(dp1618
g3
(dp1619
g5
F0.971
sg6
VFive Long Years - Live
p1620
sg8
F77.551
sg9
F0.592
sg10
S'blues'
p1621
sg12
F0.874
sg13
VEddie Boyd
p1622
sg15
I9999
sg16
F0.594
sg17
Nsg18
Nsg19
Nsg20
F0.112
sg21
F0.34035211461608245
sg22
F0.842
sg23
Nsg24
Nsg25
F-11.908
ssg26
I01
sba(iSong
Song
p1623
(dp1624
g3
(dp1625
g5
F0.0155
sg6
VHave A Good Time
p1626
sg8
F156.232
sg9
F0.597
sg10
S'blues'
p1627
sg12
F0.289
sg13
VBig Walter Horton
p1628
sg15
I9999
sg16
F0.641
sg17
Nsg18
Nsg19
Nsg20
F0.00218
sg21
F0.34035211461608245
sg22
F0.89
sg23
Nsg24
Nsg25
F-14.718
ssg26
I01
sba(iSong
Song
p1629
(dp1630
g3
(dp1631
g5
F0.656
sg6
VMojo Hand
p1632
sg8
F147.008
sg9
F0.56
sg10
S'blues'
p1633
sg12
F0.147
sg13
VLightnin' Hopkins
p1634
sg15
I9999
sg16
F0.567
sg17
Nsg18
Nsg19
Nsg20
F0.000102
sg21
F0.34035211461608245
sg22
F0.766
sg23
Nsg24
Nsg25
F-8.356
ssg26
I01
sba(iSong
Song
p1635
(dp1636
g3
(dp1637
g5
F0.93
sg6
VCross Road Blues
p1638
sg8
F97.159
sg9
F0.311
sg10
S'blues'
p1639
sg12
F0.0525
sg13
VRobert Johnson
p1640
sg15
I9999
sg16
F0.675
sg17
Nsg18
Nsg19
Nsg20
F0.000261
sg21
F0.34035211461608245
sg22
F0.638
sg23
Nsg24
Nsg25
F-11.959
ssg26
I01
sba(iSong
Song
p1641
(dp1642
g3
(dp1643
g5
F0.0984
sg6
VSnatch It Back And Hold It
p1644
sg8
F136.713
sg9
F0.408
sg10
S'blues'
p1645
sg12
F0.167
sg13
VJunior Wells
p1646
sg15
I9999
sg16
F0.765
sg17
Nsg18
Nsg19
Nsg20
I0
sg21
F0.34035211461608245
sg22
F0.891
sg23
Nsg24
Nsg25
F-13.079
ssg26
I01
sba(iSong
Song
p1647
(dp1648
g3
(dp1649
g5
F0.769
sg6
VWalkin' Thru The Park
p1650
sg8
F134.112
sg9
F0.686
sg10
S'blues'
p1651
sg12
F0.0545
sg13
VMuddy Waters
p1652
sg15
I9999
sg16
F0.678
sg17
Nsg18
Nsg19
Nsg20
F0.000712
sg21
F0.34035211461608245
sg22
F0.799
sg23
Nsg24
Nsg25
F-5.842
ssg26
I01
sba(iSong
Song
p1653
(dp1654
g3
(dp1655
g5
F0.91
sg6
VI Got The Cross The River Jordan
p1656
sg8
F77.396
sg9
F0.177
sg10
S'blues'
p1657
sg12
F0.0447
sg13
VBlind Willie McTell
p1658
sg15
I9999
sg16
F0.538
sg17
Nsg18
Nsg19
Nsg20
F0.00825
sg21
F0.34035211461608245
sg22
F0.415
sg23
Nsg24
Nsg25
F-14.158
ssg26
I01
sba(iSong
Song
p1659
(dp1660
g3
(dp1661
g5
F0.685
sg6
VGet Back
p1662
sg8
F122.896
sg9
F0.0995
sg10
S'blues'
p1663
sg12
F0.047
sg13
VBig Bill Broonzy
p1664
sg15
I9999
sg16
F0.846
sg17
Nsg18
Nsg19
Nsg20
I0
sg21
F0.34035211461608245
sg22
F0.526
sg23
Nsg24
Nsg25
F-14.799
ssg26
I01
sba(iSong
Song
p1665
(dp1666
g3
(dp1667
g5
F0.892
sg6
VReconsider Baby - Single Version
p1668
sg8
F94.457
sg9
F0.643
sg10
S'blues'
p1669
sg12
F0.0673
sg13
VLowell Fulson
p1670
sg15
I9999
sg16
F0.659
sg17
Nsg18
Nsg19
Nsg20
F0.103
sg21
F0.34035211461608245
sg22
F0.659
sg23
Nsg24
Nsg25
F-7.979
ssg26
I01
sba(iSong
Song
p1671
(dp1672
g3
(dp1673
g5
F0.442
sg6
VHoodoo Man Blues
p1674
sg8
F103.924
sg9
F0.324
sg10
S'blues'
p1675
sg12
F0.332
sg13
VJunior Wells
p1676
sg15
I9999
sg16
F0.708
sg17
Nsg18
Nsg19
Nsg20
F0.000147
sg21
F0.34035211461608245
sg22
F0.638
sg23
Nsg24
Nsg25
F-13.247
ssg26
I01
sba(iSong
Song
p1677
(dp1678
g3
(dp1679
g5
F0.805
sg6
VT-Bone Blues
p1680
sg8
F76.828
sg9
F0.283
sg10
S'blues'
p1681
sg12
F0.0527
sg13
VT-Bone Walker
p1682
sg15
I9999
sg16
F0.541
sg17
Nsg18
Nsg19
Nsg20
F0.0367
sg21
F0.34035211461608245
sg22
F0.564
sg23
Nsg24
Nsg25
F-13.659
ssg26
I01
sba(iSong
Song
p1683
(dp1684
g3
(dp1685
g5
F0.862
sg6
VLonesome
p1686
sg8
F158.971
sg9
F0.749
sg10
S'blues'
p1687
sg12
F0.086
sg13
VMemphis Slim
p1688
sg15
I9999
sg16
F0.622
sg17
Nsg18
Nsg19
Nsg20
F0.00514
sg21
F0.34035211461608245
sg22
F0.854
sg23
Nsg24
Nsg25
F-4.014
ssg26
I01
sba(iSong
Song
p1689
(dp1690
g3
(dp1691
g5
F0.0226
sg6
VThe Sky Is Crying
p1692
sg8
F178.191
sg9
F0.611
sg10
S'blues'
p1693
sg12
F0.0348
sg13
VElmore James
p1694
sg15
I9999
sg16
F0.294
sg17
Nsg18
Nsg19
Nsg20
F0.435
sg21
F0.34035211461608245
sg22
F0.567
sg23
Nsg24
Nsg25
F-6.268
ssg26
I01
sba(iSong
Song
p1695
(dp1696
g3
(dp1697
g5
F0.516
sg6
VI'm In The Mood - Single Version
p1698
sg8
F200.5
sg9
F0.302
sg10
S'blues'
p1699
sg12
F0.0493
sg13
VJohn Lee Hooker
p1700
sg15
I9999
sg16
F0.602
sg17
Nsg18
Nsg19
Nsg20
F0.00291
sg21
F0.34035211461608245
sg22
F0.724
sg23
Nsg24
Nsg25
F-12.905
ssg26
I01
sba(iSong
Song
p1701
(dp1702
g3
(dp1703
g5
F0.968
sg6
VDark Was the Night, Cold Was the Ground
p1704
sg8
F116.117
sg9
F0.0406
sg10
S'blues'
p1705
sg12
F0.044
sg13
VBlind Willie Johnson
p1706
sg15
I9999
sg16
F0.394
sg17
Nsg18
Nsg19
Nsg20
F0.0453
sg21
F0.34035211461608245
sg22
F0.2
sg23
Nsg24
Nsg25
F-23.179
ssg26
I01
sba(iSong
Song
p1707
(dp1708
g3
(dp1709
g5
F0.887
sg6
VWhen You Get Home, Write Me a Few Little Lines
p1710
sg8
F113.193
sg9
F0.383
sg10
S'blues'
p1711
sg12
F0.0314
sg13
VMississippi Fred McDowell
p1712
sg15
I9999
sg16
F0.483
sg17
Nsg18
Nsg19
Nsg20
F0.0977
sg21
F0.34035211461608245
sg22
F0.51
sg23
Nsg24
Nsg25
F-13.702
ssg26
I01
sba(iSong
Song
p1713
(dp1714
g3
(dp1715
g5
F0.992
sg6
VBlack Betty
p1716
sg8
F104.285
sg9
F0.128
sg10
S'blues'
p1717
sg12
F0.433
sg13
VLead Belly
p1718
sg15
I9999
sg16
F0.708
sg17
Nsg18
Nsg19
Nsg20
F0.000594
sg21
F0.34035211461608245
sg22
F0.194
sg23
Nsg24
Nsg25
F-15.678
ssg26
I01
sba(iSong
Song
p1719
(dp1720
g3
(dp1721
g5
F0.18
sg6
VBo Diddley
p1722
sg8
F105.688
sg9
F0.737
sg10
S'blues'
p1723
sg12
F0.0481
sg13
VBo Diddley
p1724
sg15
I9999
sg16
F0.814
sg17
Nsg18
Nsg19
Nsg20
I0
sg21
F0.34035211461608245
sg22
F0.55
sg23
Nsg24
Nsg25
F-10.9
ssg26
I01
sba(iSong
Song
p1725
(dp1726
g3
(dp1727
g5
F0.856
sg6
VJunker's Blues
p1728
sg8
F103.252
sg9
F0.155
sg10
S'blues'
p1729
sg12
F0.112
sg13
VChampion Jack Dupree
p1730
sg15
I9999
sg16
F0.779
sg17
Nsg18
Nsg19
Nsg20
F7.82e-06
sg21
F0.34035211461608245
sg22
F0.696
sg23
Nsg24
Nsg25
F-21.57
ssg26
I01
sba(iSong
Song
p1731
(dp1732
g3
(dp1733
g5
F0.982
sg6
VDown The Dirt Road Blues
p1734
sg8
F119.093
sg9
F0.0536
sg10
S'blues'
p1735
sg12
F0.0453
sg13
VCharley Patton
p1736
sg15
I9999
sg16
F0.494
sg17
Nsg18
Nsg19
Nsg20
F0.00081
sg21
F0.34035211461608245
sg22
F0.612
sg23
Nsg24
Nsg25
F-21.083
ssg26
I01
sba(iSong
Song
p1737
(dp1738
g3
(dp1739
g5
F0.867
sg6
VBobby Sox Blues
p1740
sg8
F111.074
sg9
F0.0883
sg10
S'blues'
p1741
sg12
F0.0704
sg13
VT-Bone Walker
p1742
sg15
I9999
sg16
F0.627
sg17
Nsg18
Nsg19
Nsg20
F0.000165
sg21
F0.34035211461608245
sg22
F0.406
sg23
Nsg24
Nsg25
F-13.773
ssg26
I01
sba(iSong
Song
p1743
(dp1744
g3
(dp1745
g5
F0.898
sg6
VMy Babe
p1746
sg8
F158.503
sg9
F0.258
sg10
S'blues'
p1747
sg12
F0.061
sg13
VLittle Walter
p1748
sg15
I9999
sg16
F0.71
sg17
Nsg18
Nsg19
Nsg20
I0
sg21
F0.34035211461608245
sg22
F0.923
sg23
Nsg24
Nsg25
F-13.618
ssg26
I01
sba(iSong
Song
p1749
(dp1750
g3
(dp1751
g5
F0.865
sg6
VDeath Letter Blues
p1752
sg8
F115.685
sg9
F0.288
sg10
S'blues'
p1753
sg12
F0.0629
sg13
VSon House
p1754
sg15
I9999
sg16
F0.803
sg17
Nsg18
Nsg19
Nsg20
F0.0593
sg21
F0.34035211461608245
sg22
F0.865
sg23
Nsg24
Nsg25
F-15.418
ssg26
I01
sba(iSong
Song
p1755
(dp1756
g3
(dp1757
g5
F0.947
sg6
VBaby What You Want Me To Do
p1758
sg8
F94.288
sg9
F0.302
sg10
S'blues'
p1759
sg12
F0.0353
sg13
VJimmy Reed
p1760
sg15
I9999
sg16
F0.582
sg17
Nsg18
Nsg19
Nsg20
F0.0107
sg21
F0.34035211461608245
sg22
F0.642
sg23
Nsg24
Nsg25
F-11.624
ssg26
I01
sba(iSong
Song
p1761
(dp1762
g3
(dp1763
g5
F0.989
sg6
VSouthern Can Is Mine
p1764
sg8
F109.757
sg9
F0.275
sg10
S'blues'
p1765
sg12
F0.191
sg13
VBlind Sammie a.k.a. Blind Willie McTell
p1766
sg15
I9999
sg16
F0.716
sg17
Nsg18
Nsg19
Nsg20
F0.018
sg21
F0.34035211461608245
sg22
F0.878
sg23
Nsg24
Nsg25
F-12.336
ssg26
I01
sba(iSong
Song
p1767
(dp1768
g3
(dp1769
g5
F0.147
sg6
VShe's a Sweet One
p1770
sg8
F122.8
sg9
F0.579
sg10
S'blues'
p1771
sg12
F0.0581
sg13
VJunior Wells
p1772
sg15
I9999
sg16
F0.688
sg17
Nsg18
Nsg19
Nsg20
F0.0174
sg21
F0.34035211461608245
sg22
F0.676
sg23
Nsg24
Nsg25
F-9.141
ssg26
I01
sba(iSong
Song
p1773
(dp1774
g3
(dp1775
g5
F0.964
sg6
VCoffee Blues
p1776
sg8
F104.233
sg9
F0.0785
sg10
S'blues'
p1777
sg12
F0.0503
sg13
VMississippi John Hurt
p1778
sg15
I9999
sg16
F0.61
sg17
Nsg18
Nsg19
Nsg20
F0.00014
sg21
F0.34035211461608245
sg22
F0.763
sg23
Nsg24
Nsg25
F-20.543
ssg26
I01
sba(iSong
Song
p1779
(dp1780
g3
(dp1781
g5
F0.799
sg6
VSmokestack Lightnin'
p1782
sg8
F146.138
sg9
F0.502
sg10
S'blues'
p1783
sg12
F0.0401
sg13
VHowlin' Wolf
p1784
sg15
I9999
sg16
F0.683
sg17
Nsg18
Nsg19
Nsg20
F0.000116
sg21
F0.34035211461608245
sg22
F0.5
sg23
Nsg24
Nsg25
F-8.83
ssg26
I01
sba(iSong
Song
p1785
(dp1786
g3
(dp1787
g5
F0.899
sg6
VYou Got To Move
p1788
sg8
F81.06
sg9
F0.185
sg10
S'blues'
p1789
sg12
F0.0631
sg13
VMississippi Fred McDowell
p1790
sg15
I9999
sg16
F0.66
sg17
Nsg18
Nsg19
Nsg20
F0.00875
sg21
F0.34035211461608245
sg22
F0.507
sg23
Nsg24
Nsg25
F-17.394
ssg26
I01
sba(iSong
Song
p1791
(dp1792
g3
(dp1793
g5
F0.843
sg6
VAll Your Love
p1794
sg8
F80.623
sg9
F0.7
sg10
S'blues'
p1795
sg12
F0.163
sg13
VMagic Sam
p1796
sg15
I9999
sg16
F0.433
sg17
Nsg18
Nsg19
Nsg20
F0.324
sg21
F0.34035211461608245
sg22
F0.8
sg23
Nsg24
Nsg25
F-8.197
ssg26
I01
sba(iSong
Song
p1797
(dp1798
g3
(dp1799
g5
F0.805
sg6
VJohn the Revelator
p1800
sg8
F129.482
sg9
F0.0423
sg10
S'blues'
p1801
sg12
F0.369
sg13
VSon House
p1802
sg15
I9999
sg16
F0.668
sg17
Nsg18
Nsg19
Nsg20
I0
sg21
F0.34035211461608245
sg22
F0.564
sg23
Nsg24
Nsg25
F-16.374
ssg26
I01
sba(iSong
Song
p1803
(dp1804
g3
(dp1805
g5
F0.965
sg6
VAwful Dreams
p1806
sg8
F187.055
sg9
F0.0566
sg10
S'blues'
p1807
sg12
F0.0706
sg13
VLightnin' Hopkins
p1808
sg15
I9999
sg16
F0.527
sg17
Nsg18
Nsg19
Nsg20
F0.188
sg21
F0.34035211461608245
sg22
F0.275
sg23
Nsg24
Nsg25
F-19.528
ssg26
I01
sba(iSong
Song
p1809
(dp1810
g3
(dp1811
g5
F0.976
sg6
VMatch Box Blues
p1812
sg8
F82.769
sg9
F0.16
sg10
S'blues'
p1813
sg12
F0.0565
sg13
VBlind Lemon Jefferson
p1814
sg15
I9999
sg16
F0.483
sg17
Nsg18
Nsg19
Nsg20
F0.0126
sg21
F0.34035211461608245
sg22
F0.522
sg23
Nsg24
Nsg25
F-19.05
ssg26
I01
sba(iSong
Song
p1815
(dp1816
g3
(dp1817
g5
F0.247
sg6
VDust My Broom
p1818
sg8
F101.928
sg9
F0.664
sg10
S'blues'
p1819
sg12
F0.0354
sg13
VElmore James
p1820
sg15
I9999
sg16
F0.526
sg17
Nsg18
Nsg19
Nsg20
F0.0124
sg21
F0.34035211461608245
sg22
F0.797
sg23
Nsg24
Nsg25
F-6.62
ssg26
I01
sba(iSong
Song
p1821
(dp1822
g3
(dp1823
g5
F0.995
sg6
VJohn the Revelator
p1824
sg8
F125.6
sg9
F0.334
sg10
S'blues'
p1825
sg12
F0.27
sg13
VBlind Willie Johnson
p1826
sg15
I9999
sg16
F0.738
sg17
Nsg18
Nsg19
Nsg20
F0.0675
sg21
F0.34035211461608245
sg22
F0.503
sg23
Nsg24
Nsg25
F-12.972
ssg26
I01
sba(iSong
Song
p1827
(dp1828
g3
(dp1829
g5
F0.346
sg6
VBoom Boom
p1830
sg8
F161.253
sg9
F0.473
sg10
S'blues'
p1831
sg12
F0.0458
sg13
VJohn Lee Hooker
p1832
sg15
I9999
sg16
F0.469
sg17
Nsg18
Nsg19
Nsg20
F0.0194
sg21
F0.34035211461608245
sg22
F0.849
sg23
Nsg24
Nsg25
F-14.068
ssg26
I01
sba(iSong
Song
p1833
(dp1834
g3
(dp1835
g5
F0.979
sg6
VBlue Guitar
p1836
sg8
F80.232
sg9
F0.459
sg10
S'blues'
p1837
sg12
F0.0357
sg13
VEarl Hooker
p1838
sg15
I9999
sg16
F0.272
sg17
Nsg18
Nsg19
Nsg20
F0.826
sg21
F0.34035211461608245
sg22
F0.467
sg23
Nsg24
Nsg25
F-9.374
ssg26
I01
sba(iSong
Song
p1839
(dp1840
g3
(dp1841
g5
F0.436
sg6
VBorn Under A Bad Sign
p1842
sg8
F91.398
sg9
F0.633
sg10
S'blues'
p1843
sg12
F0.0261
sg13
VAlbert King
p1844
sg15
I9999
sg16
F0.699
sg17
Nsg18
Nsg19
Nsg20
F9.32e-05
sg21
F0.34035211461608245
sg22
F0.907
sg23
Nsg24
Nsg25
F-6.249
ssg26
I01
sba(iSong
Song
p1845
(dp1846
g3
(dp1847
g5
F0.44
sg6
VMannish Boy
p1848
sg8
F111.129
sg9
F0.735
sg10
S'blues'
p1849
sg12
F0.0973
sg13
VMuddy Waters
p1850
sg15
I9999
sg16
F0.598
sg17
Nsg18
Nsg19
Nsg20
F0.000215
sg21
F0.34035211461608245
sg22
F0.615
sg23
Nsg24
Nsg25
F-10.882
ssg26
I01
sba(iSong
Song
p1851
(dp1852
g3
(dp1853
g5
F0.799
sg6
VSmokestack Lightnin'
p1854
sg8
F146.138
sg9
F0.502
sg10
S'blues'
p1855
sg12
F0.0401
sg13
VHowlin' Wolf
p1856
sg15
I9999
sg16
F0.683
sg17
Nsg18
Nsg19
Nsg20
F0.000116
sg21
F0.34035211461608245
sg22
F0.5
sg23
Nsg24
Nsg25
F-8.83
ssg26
I01
sba(iSong
Song
p1857
(dp1858
g3
(dp1859
g5
F0.612
sg6
VBoom Boom
p1860
sg8
F158.531
sg9
F0.464
sg10
S'blues'
p1861
sg12
F0.0515
sg13
VJohn Lee Hooker
p1862
sg15
I9999
sg16
F0.442
sg17
Nsg18
Nsg19
Nsg20
F0.00189
sg21
F0.34035211461608245
sg22
F0.944
sg23
Nsg24
Nsg25
F-14.12
ssg26
I01
sba(iSong
Song
p1863
(dp1864
g3
(dp1865
g5
F0.0719
sg6
VEveryday (I Have The Blues)
p1866
sg8
F105.214
sg9
F0.628
sg10
S'blues'
p1867
sg12
F0.0347
sg13
VB.B. King
p1868
sg15
I9999
sg16
F0.529
sg17
Nsg18
Nsg19
Nsg20
F0.00325
sg21
F0.34035211461608245
sg22
F0.67
sg23
Nsg24
Nsg25
F-9.586
ssg26
I01
sba(iSong
Song
p1869
(dp1870
g3
(dp1871
g5
F0.439
sg6
VFirst Time I Met The Blues - 1960 Single Version
p1872
sg8
F99.846
sg9
F0.66
sg10
S'blues'
p1873
sg12
F0.0505
sg13
VBuddy Guy
p1874
sg15
I9999
sg16
F0.429
sg17
Nsg18
Nsg19
Nsg20
F4.51e-05
sg21
F0.34035211461608245
sg22
F0.692
sg23
Nsg24
Nsg25
F-7.021
ssg26
I01
sba(iSong
Song
p1875
(dp1876
g3
(dp1877
g5
F0.656
sg6
VMojo Hand
p1878
sg8
F147.008
sg9
F0.56
sg10
S'blues'
p1879
sg12
F0.147
sg13
VLightnin' Hopkins
p1880
sg15
I9999
sg16
F0.567
sg17
Nsg18
Nsg19
Nsg20
F0.000102
sg21
F0.34035211461608245
sg22
F0.766
sg23
Nsg24
Nsg25
F-8.356
ssg26
I01
sba(iSong
Song
p1881
(dp1882
g3
(dp1883
g5
F0.661
sg6
VI'd Rather Go Blind
p1884
sg8
F81.579
sg9
F0.398
sg10
S'blues'
p1885
sg12
F0.0253
sg13
VEtta James
p1886
sg15
I9999
sg16
F0.539
sg17
Nsg18
Nsg19
Nsg20
F0.000519
sg21
F0.34035211461608245
sg22
F0.588
sg23
Nsg24
Nsg25
F-6.513
ssg26
I01
sba(iSong
Song
p1887
(dp1888
g3
(dp1889
g5
F0.0115
sg6
VDust My Broom
p1890
sg8
F100.783
sg9
F0.66
sg10
S'blues'
p1891
sg12
F0.0306
sg13
VElmore James
p1892
sg15
I9999
sg16
F0.507
sg17
Nsg18
Nsg19
Nsg20
F0.336
sg21
F0.34035211461608245
sg22
F0.696
sg23
Nsg24
Nsg25
F-4.957
ssg26
I01
sba(iSong
Song
p1893
(dp1894
g3
(dp1895
g5
F0.886
sg6
VMy Babe - Single Version
p1896
sg8
F157.887
sg9
F0.333
sg10
S'blues'
p1897
sg12
F0.0524
sg13
VLittle Walter
p1898
sg15
I9999
sg16
F0.684
sg17
Nsg18
Nsg19
Nsg20
I0
sg21
F0.34035211461608245
sg22
F0.833
sg23
Nsg24
Nsg25
F-10.487
ssg26
I01
sba(iSong
Song
p1899
(dp1900
g3
(dp1901
g5
F0.67
sg6
VI'm Your Hoochie Coochie Man
p1902
sg8
F113.948
sg9
F0.588
sg10
S'blues'
p1903
sg12
F0.0665
sg13
VMuddy Waters
p1904
sg15
I9999
sg16
F0.542
sg17
Nsg18
Nsg19
Nsg20
F0.158
sg21
F0.34035211461608245
sg22
F0.881
sg23
Nsg24
Nsg25
F-9.268
ssg26
I01
sba(iSong
Song
p1905
(dp1906
g3
(dp1907
g5
F0.805
sg6
VJohn the Revelator
p1908
sg8
F129.482
sg9
F0.0423
sg10
S'blues'
p1909
sg12
F0.369
sg13
VSon House
p1910
sg15
I9999
sg16
F0.668
sg17
Nsg18
Nsg19
Nsg20
I0
sg21
F0.34035211461608245
sg22
F0.564
sg23
Nsg24
Nsg25
F-16.374
ssg26
I01
sba(iSong
Song
p1911
(dp1912
g3
(dp1913
g5
F0.678
sg6
VHelp Me
p1914
sg8
F114.03
sg9
F0.43
sg10
S'blues'
p1915
sg12
F0.0525
sg13
VSonny Boy Williamson II
p1916
sg15
I9999
sg16
F0.717
sg17
Nsg18
Nsg19
Nsg20
F0.106
sg21
F0.34035211461608245
sg22
F0.8
sg23
Nsg24
Nsg25
F-10.469
ssg26
I01
sba(iSong
Song
p1917
(dp1918
g3
(dp1919
g5
F0.231
sg6
VCrosscut Saw
p1920
sg8
F122.463
sg9
F0.389
sg10
S'blues'
p1921
sg12
F0.0517
sg13
VAlbert King
p1922
sg15
I9999
sg16
F0.861
sg17
Nsg18
Nsg19
Nsg20
F0.577
sg21
F0.34035211461608245
sg22
F0.94
sg23
Nsg24
Nsg25
F-14.029
ssg26
I01
sba(iSong
Song
p1923
(dp1924
g3
(dp1925
g5
F0.805
sg6
VT-Bone Blues
p1926
sg8
F76.828
sg9
F0.283
sg10
S'blues'
p1927
sg12
F0.0527
sg13
VT-Bone Walker
p1928
sg15
I9999
sg16
F0.541
sg17
Nsg18
Nsg19
Nsg20
F0.0367
sg21
F0.34035211461608245
sg22
F0.564
sg23
Nsg24
Nsg25
F-13.659
ssg26
I01
sba(iSong
Song
p1929
(dp1930
g3
(dp1931
g5
F0.101
sg6
VStumble
p1932
sg8
F118.381
sg9
F0.612
sg10
S'blues'
p1933
sg12
F0.0339
sg13
VFreddie King
p1934
sg15
I9999
sg16
F0.678
sg17
Nsg18
Nsg19
Nsg20
F0.318
sg21
F0.34035211461608245
sg22
F0.857
sg23
Nsg24
Nsg25
F-9.764
ssg26
I01
sba(iSong
Song
p1935
(dp1936
g3
(dp1937
g5
F0.442
sg6
VHoodoo Man Blues
p1938
sg8
F103.924
sg9
F0.324
sg10
S'blues'
p1939
sg12
F0.332
sg13
VJunior Wells
p1940
sg15
I9999
sg16
F0.708
sg17
Nsg18
Nsg19
Nsg20
F0.000147
sg21
F0.34035211461608245
sg22
F0.638
sg23
Nsg24
Nsg25
F-13.247
ssg26
I01
sba(iSong
Song
p1941
(dp1942
g3
(dp1943
g5
F0.833
sg6
VI've Got A Woman
p1944
sg8
F199.373
sg9
F0.61
sg10
S'blues'
p1945
sg12
F0.213
sg13
VRay Charles
p1946
sg15
I9999
sg16
F0.556
sg17
Nsg18
Nsg19
Nsg20
F2.22e-06
sg21
F0.34035211461608245
sg22
F0.665
sg23
Nsg24
Nsg25
F-4.729
ssg26
I01
sba(iSong
Song
p1947
(dp1948
g3
(dp1949
g5
F0.708
sg6
VSpoonful
p1950
sg8
F119.108
sg9
F0.466
sg10
S'blues'
p1951
sg12
F0.0426
sg13
VHowlin' Wolf
p1952
sg15
I9999
sg16
F0.854
sg17
Nsg18
Nsg19
Nsg20
F0.000267
sg21
F0.34035211461608245
sg22
F0.634
sg23
Nsg24
Nsg25
F-8.997
ssg26
I01
sba(iSong
Song
p1953
(dp1954
g3
(dp1955
g5
F0.416
sg6
VBack Door Man
p1956
sg8
F109.889
sg9
F0.441
sg10
S'blues'
p1957
sg12
F0.0604
sg13
VWillie Dixon
p1958
sg15
I9999
sg16
F0.8
sg17
Nsg18
Nsg19
Nsg20
F0.0404
sg21
F0.34035211461608245
sg22
F0.795
sg23
Nsg24
Nsg25
F-15.98
ssg26
I01
sba(iSong
Song
p1959
(dp1960
g3
(dp1961
g5
F0.492
sg6
VWorking Man
p1962
sg8
F103.355
sg9
F0.625
sg10
S'blues'
p1963
sg12
F0.0436
sg13
VOtis Rush
p1964
sg15
I9999
sg16
F0.633
sg17
Nsg18
Nsg19
Nsg20
F0.000418
sg21
F0.34035211461608245
sg22
F0.841
sg23
Nsg24
Nsg25
F-10.951
ssg26
I01
sba(iSong
Song
p1965
(dp1966
g3
(dp1967
g5
F0.284
sg6
VI'm A Man - Single Version
p1968
sg8
F127.497
sg9
F0.54
sg10
S'blues'
p1969
sg12
F0.0462
sg13
VBo Diddley
p1970
sg15
I9999
sg16
F0.617
sg17
Nsg18
Nsg19
Nsg20
I0
sg21
F0.34035211461608245
sg22
F0.86
sg23
Nsg24
Nsg25
F-13.494
ssg26
I01
sba(iSong
Song
p1971
(dp1972
g3
(dp1973
g5
F0.944
sg6
VSomeday (Electric)
p1974
sg8
F94.197
sg9
F0.333
sg10
S'blues'
p1975
sg12
F0.032
sg13
VOtis Spann
p1976
sg15
I9999
sg16
F0.581
sg17
Nsg18
Nsg19
Nsg20
F0.472
sg21
F0.34035211461608245
sg22
F0.488
sg23
Nsg24
Nsg25
F-14.209
ssg26
I01
sba(iSong
Song
p1977
(dp1978
g3
(dp1979
g5
F0.545
sg6
VCall It Stormy Monday
p1980
sg8
F100.979
sg9
F0.301
sg10
S'blues'
p1981
sg12
F0.0423
sg13
VT-Bone Walker
p1982
sg15
I9999
sg16
F0.606
sg17
Nsg18
Nsg19
Nsg20
F0.00194
sg21
F0.34035211461608245
sg22
F0.457
sg23
Nsg24
Nsg25
F-11.402
ssg26
I01
sba(iSong
Song
p1983
(dp1984
g3
(dp1985
g5
F0.0226
sg6
VThe Sky Is Crying
p1986
sg8
F178.191
sg9
F0.611
sg10
S'blues'
p1987
sg12
F0.0348
sg13
VElmore James
p1988
sg15
I9999
sg16
F0.294
sg17
Nsg18
Nsg19
Nsg20
F0.435
sg21
F0.34035211461608245
sg22
F0.567
sg23
Nsg24
Nsg25
F-6.268
ssg26
I01
sba(iSong
Song
p1989
(dp1990
g3
(dp1991
g5
F0.225
sg6
VNo Angels
p1992
sg8
F131.652
sg9
F0.655
sg10
S'blues'
p1993
sg12
F0.0837
sg13
VSamantha Fish
p1994
sg15
I9999
sg16
F0.635
sg17
Nsg18
Nsg19
Nsg20
F0.00149
sg21
F0.34035211461608245
sg22
F0.373
sg23
Nsg24
Nsg25
F-9.336
ssg26
I01
sba(iSong
Song
p1995
(dp1996
g3
(dp1997
g5
F0.0791
sg6
VWe're All In This Together (feat. Joe Bonamassa)
p1998
sg8
F110.209
sg9
F0.858
sg10
S'blues'
p1999
sg12
F0.065
sg13
VWalter Trout
p2000
sg15
I9999
sg16
F0.372
sg17
Nsg18
Nsg19
Nsg20
F0.342
sg21
F0.34035211461608245
sg22
F0.612
sg23
Nsg24
Nsg25
F-4.42
ssg26
I01
sba(iSong
Song
p2001
(dp2002
g3
(dp2003
g5
F0.00726
sg6
VWhat Would You Do
p2004
sg8
F98.036
sg9
F0.702
sg10
S'blues'
p2005
sg12
F0.0354
sg13
VLaurence Jones
p2006
sg15
I9999
sg16
F0.709
sg17
Nsg18
Nsg19
Nsg20
F1.5e-06
sg21
F0.34035211461608245
sg22
F0.573
sg23
Nsg24
Nsg25
F-5.572
ssg26
I01
sba(iSong
Song
p2007
(dp2008
g3
(dp2009
g5
F0.11
sg6
VHeadful of Blues
p2010
sg8
F148.062
sg9
F0.521
sg10
S'blues'
p2011
sg12
F0.0325
sg13
VSnowy White
p2012
sg15
I9999
sg16
F0.595
sg17
Nsg18
Nsg19
Nsg20
F0.0369
sg21
F0.34035211461608245
sg22
F0.66
sg23
Nsg24
Nsg25
F-8.544
ssg26
I01
sba(iSong
Song
p2013
(dp2014
g3
(dp2015
g5
F0.167
sg6
VLet 'Em In
p2016
sg8
F86.999
sg9
F0.446
sg10
S'blues'
p2017
sg12
F0.0313
sg13
VThe Bros. Landreth
p2018
sg15
I9999
sg16
F0.768
sg17
Nsg18
Nsg19
Nsg20
F5.36e-06
sg21
F0.34035211461608245
sg22
F0.489
sg23
Nsg24
Nsg25
F-7.255
ssg26
I01
sba(iSong
Song
p2019
(dp2020
g3
(dp2021
g5
F0.191
sg6
VDon't Give Up
p2022
sg8
F112.245
sg9
F0.693
sg10
S'blues'
p2023
sg12
F0.0392
sg13
VSouthern Avenue
p2024
sg15
I9999
sg16
F0.639
sg17
Nsg18
Nsg19
Nsg20
F3.18e-05
sg21
F0.34035211461608245
sg22
F0.537
sg23
Nsg24
Nsg25
F-4.549
ssg26
I01
sba(iSong
Song
p2025
(dp2026
g3
(dp2027
g5
F0.05
sg6
VMs. Molly
p2028
sg8
F81.431
sg9
F0.786
sg10
S'blues'
p2029
sg12
F0.0809
sg13
VCabinet
p2030
sg15
I9999
sg16
F0.588
sg17
Nsg18
Nsg19
Nsg20
F0.000134
sg21
F0.34035211461608245
sg22
F0.53
sg23
Nsg24
Nsg25
F-5.543
ssg26
I01
sba(iSong
Song
p2031
(dp2032
g3
(dp2033
g5
F0.184
sg6
VGood Advice
p2034
sg8
F110.06
sg9
F0.739
sg10
S'blues'
p2035
sg12
F0.0589
sg13
VJackie Greene
p2036
sg15
I9999
sg16
F0.745
sg17
Nsg18
Nsg19
Nsg20
F0.0137
sg21
F0.34035211461608245
sg22
F0.753
sg23
Nsg24
Nsg25
F-4.38
ssg26
I01
sba(iSong
Song
p2037
(dp2038
g3
(dp2039
g5
F0.0515
sg6
VBetrayed Me
p2040
sg8
F82.963
sg9
F0.718
sg10
S'blues'
p2041
sg12
F0.0294
sg13
VKing King
p2042
sg15
I9999
sg16
F0.535
sg17
Nsg18
Nsg19
Nsg20
F0.0507
sg21
F0.34035211461608245
sg22
F0.531
sg23
Nsg24
Nsg25
F-6.096
ssg26
I01
sba(iSong
Song
p2043
(dp2044
g3
(dp2045
g5
F0.0474
sg6
VBlues Been Good to Me
p2046
sg8
F116.042
sg9
F0.79
sg10
S'blues'
p2047
sg12
F0.0391
sg13
VJames Armstrong
p2048
sg15
I9999
sg16
F0.747
sg17
Nsg18
Nsg19
Nsg20
F0.000183
sg21
F0.34035211461608245
sg22
F0.798
sg23
Nsg24
Nsg25
F-6.631
ssg26
I01
sba(iSong
Song
p2049
(dp2050
g3
(dp2051
g5
F0.96
sg6
VCome on in My Kitchen
p2052
sg8
F81.725
sg9
F0.25
sg10
S'blues'
p2053
sg12
F0.0493
sg13
VLarkin Poe
p2054
sg15
I9999
sg16
F0.531
sg17
Nsg18
Nsg19
Nsg20
F1.69e-05
sg21
F0.34035211461608245
sg22
F0.425
sg23
Nsg24
Nsg25
F-9.523
ssg26
I01
sba(iSong
Song
p2055
(dp2056
g3
(dp2057
g5
F0.241
sg6
VLittle Bit
p2058
sg8
F84.241
sg9
F0.463
sg10
S'blues'
p2059
sg12
F0.0346
sg13
VMavis Staples
p2060
sg15
I9999
sg16
F0.804
sg17
Nsg18
Nsg19
Nsg20
F0.0167
sg21
F0.34035211461608245
sg22
F0.662
sg23
Nsg24
Nsg25
F-8.873
ssg26
I01
sba(iSong
Song
p2061
(dp2062
g3
(dp2063
g5
F0.455
sg6
VMake It Move
p2064
sg8
F77.582
sg9
F0.473
sg10
S'blues'
p2065
sg12
F0.102
sg13
VJonny Lang
p2066
sg15
I9999
sg16
F0.647
sg17
Nsg18
Nsg19
Nsg20
I0
sg21
F0.34035211461608245
sg22
F0.67
sg23
Nsg24
Nsg25
F-6.064
ssg26
I01
sba(iSong
Song
p2067
(dp2068
g3
(dp2069
g5
F0.376
sg6
VIf You Believe in Me
p2070
sg8
F102.98
sg9
F0.577
sg10
S'blues'
p2071
sg12
F0.0264
sg13
VRobin Trower
p2072
sg15
I9999
sg16
F0.678
sg17
Nsg18
Nsg19
Nsg20
F0.00272
sg21
F0.34035211461608245
sg22
F0.27
sg23
Nsg24
Nsg25
F-9.024
ssg26
I01
sba(iSong
Song
p2073
(dp2074
g3
(dp2075
g5
F0.0334
sg6
VBaby Got Gone
p2076
sg8
F99.01
sg9
F0.878
sg10
S'blues'
p2077
sg12
F0.032
sg13
VKenny Wayne Shepherd
p2078
sg15
I9999
sg16
F0.576
sg17
Nsg18
Nsg19
Nsg20
I0
sg21
F0.34035211461608245
sg22
F0.764
sg23
Nsg24
Nsg25
F-5.091
ssg26
I01
sba(iSong
Song
p2079
(dp2080
g3
(dp2081
g5
F0.626
sg6
VNobody Gets Out Alive (From "The Hitman's Bodyguard")
p2082
sg8
F105.021
sg9
F0.572
sg10
S'blues'
p2083
sg12
F0.0591
sg13
VSamuel L. Jackson
p2084
sg15
I9999
sg16
F0.594
sg17
Nsg18
Nsg19
Nsg20
I0
sg21
F0.34035211461608245
sg22
F0.779
sg23
Nsg24
Nsg25
F-7.315
ssg26
I01
sba(iSong
Song
p2085
(dp2086
g3
(dp2087
g5
F0.742
sg6
VMigration Blues
p2088
sg8
F154.466
sg9
F0.488
sg10
S'blues'
p2089
sg12
F0.0311
sg13
VEric Bibb
p2090
sg15
I9999
sg16
F0.47
sg17
Nsg18
Nsg19
Nsg20
F0.427
sg21
F0.34035211461608245
sg22
F0.613
sg23
Nsg24
Nsg25
F-9.78
ssg26
I01
sba(iSong
Song
p2091
(dp2092
g3
(dp2093
g5
F0.0068
sg6
VGonna Hurt Like Hell (feat. Kenny Wayne Shepherd)
p2094
sg8
F118.14
sg9
F0.843
sg10
S'blues'
p2095
sg12
F0.0429
sg13
VWalter Trout
p2096
sg15
I9999
sg16
F0.48
sg17
Nsg18
Nsg19
Nsg20
F0.0507
sg21
F0.34035211461608245
sg22
F0.86
sg23
Nsg24
Nsg25
F-5.658
ssg26
I01
sba(iSong
Song
p2097
(dp2098
g3
(dp2099
g5
F0.178
sg6
VUnder the Midnight Sun
p2100
sg8
F103.959
sg9
F0.544
sg10
S'blues'
p2101
sg12
F0.0281
sg13
VKaren Lovely
p2102
sg15
I9999
sg16
F0.746
sg17
Nsg18
Nsg19
Nsg20
F0.000594
sg21
F0.34035211461608245
sg22
F0.771
sg23
Nsg24
Nsg25
F-6.461
ssg26
I01
sba(iSong
Song
p2103
(dp2104
g3
(dp2105
g5
F0.0453
sg6
VStronger Together
p2106
sg8
F157.04
sg9
F0.635
sg10
S'blues'
p2107
sg12
F0.154
sg13
VJonny Lang
p2108
sg15
I9999
sg16
F0.685
sg17
Nsg18
Nsg19
Nsg20
I0
sg21
F0.34035211461608245
sg22
F0.862
sg23
Nsg24
Nsg25
F-7.015
ssg26
I01
sba(iSong
Song
p2109
(dp2110
g3
(dp2111
g5
F0.528
sg6
VSomeday After a While
p2112
sg8
F115.463
sg9
F0.588
sg10
S'blues'
p2113
sg12
F0.0378
sg13
VCarl Verheyen
p2114
sg15
I9999
sg16
F0.724
sg17
Nsg18
Nsg19
Nsg20
F0.00157
sg21
F0.34035211461608245
sg22
F0.447
sg23
Nsg24
Nsg25
F-6.112
ssg26
I01
sba(iSong
Song
p2115
(dp2116
g3
(dp2117
g5
F0.00358
sg6
VI Can Tell
p2118
sg8
F118.04
sg9
F0.801
sg10
S'blues'
p2119
sg12
F0.036
sg13
VJaniva Magness
p2120
sg15
I9999
sg16
F0.644
sg17
Nsg18
Nsg19
Nsg20
F0.000871
sg21
F0.34035211461608245
sg22
F0.913
sg23
Nsg24
Nsg25
F-6.218
ssg26
I01
sba(iSong
Song
p2121
(dp2122
g3
(dp2123
g5
F0.282
sg6
VAin't Gonna Name Names
p2124
sg8
F120.063
sg9
F0.736
sg10
S'blues'
p2125
sg12
F0.0546
sg13
VThe Reverend Shawn Amos
p2126
sg15
I9999
sg16
F0.714
sg17
Nsg18
Nsg19
Nsg20
F0.000173
sg21
F0.34035211461608245
sg22
F0.64
sg23
Nsg24
Nsg25
F-4.475
ssg26
I01
sba(iSong
Song
p2127
(dp2128
g3
(dp2129
g5
F0.018
sg6
VDown To The Bottom
p2130
sg8
F87.465
sg9
F0.6
sg10
S'blues'
p2131
sg12
F0.0266
sg13
VDorothy
p2132
sg15
I9999
sg16
F0.608
sg17
Nsg18
Nsg19
Nsg20
I0
sg21
F0.34035211461608245
sg22
F0.553
sg23
Nsg24
Nsg25
F-5.459
ssg26
I01
sba(iSong
Song
p2133
(dp2134
g3
(dp2135
g5
F0.825
sg6
VTwelve String Mile
p2136
sg8
F89.934
sg9
F0.283
sg10
S'blues'
p2137
sg12
F0.0431
sg13
VOtis Taylor
p2138
sg15
I9999
sg16
F0.76
sg17
Nsg18
Nsg19
Nsg20
F0.36
sg21
F0.34035211461608245
sg22
F0.68
sg23
Nsg24
Nsg25
F-14.181
ssg26
I01
sba(iSong
Song
p2139
(dp2140
g3
(dp2141
g5
F0.449
sg6
VDo You Still See Me At All (feat. Jon Trout)
p2142
sg8
F113.919
sg9
F0.788
sg10
S'blues'
p2143
sg12
F0.0442
sg13
VWalter Trout
p2144
sg15
I9999
sg16
F0.466
sg17
Nsg18
Nsg19
Nsg20
F0.195
sg21
F0.34035211461608245
sg22
F0.709
sg23
Nsg24
Nsg25
F-4.685
ssg26
I01
sba(iSong
Song
p2145
(dp2146
g3
(dp2147
g5
F0.611
sg6
VSpoonful
p2148
sg8
F112.787
sg9
F0.432
sg10
S'blues'
p2149
sg12
F0.0347
sg13
VBenjamin Booker
p2150
sg15
I9999
sg16
F0.789
sg17
Nsg18
Nsg19
Nsg20
F4.97e-05
sg21
F0.34035211461608245
sg22
F0.846
sg23
Nsg24
Nsg25
F-10.574
ssg26
I01
sba(iSong
Song
p2151
(dp2152
g3
(dp2153
g5
F0.00124
sg6
VGot Soul
p2154
sg8
F119.952
sg9
F0.808
sg10
S'blues'
p2155
sg12
F0.0502
sg13
VRobert Randolph & The Family Band
p2156
sg15
I9999
sg16
F0.616
sg17
Nsg18
Nsg19
Nsg20
F0.000111
sg21
F0.34035211461608245
sg22
F0.531
sg23
Nsg24
Nsg25
F-4.505
ssg26
I01
sba(iSong
Song
p2157
(dp2158
g3
(dp2159
g5
F0.509
sg6
VCan't Turn Back the Clock
p2160
sg8
F140.051
sg9
F0.677
sg10
S'blues'
p2161
sg12
F0.0367
sg13
VRobin Trower
p2162
sg15
I9999
sg16
F0.703
sg17
Nsg18
Nsg19
Nsg20
F2.26e-06
sg21
F0.34035211461608245
sg22
F0.749
sg23
Nsg24
Nsg25
F-8.25
ssg26
I01
sba(iSong
Song
p2163
(dp2164
g3
(dp2165
g5
F0.0068
sg6
VAre You
p2166
sg8
F93.375
sg9
F0.852
sg10
S'blues'
p2167
sg12
F0.0309
sg13
VThe Delta Saints
p2168
sg15
I9999
sg16
F0.43
sg17
Nsg18
Nsg19
Nsg20
F0.00011
sg21
F0.34035211461608245
sg22
F0.509
sg23
Nsg24
Nsg25
F-7.303
ssg26
I01
sba(iSong
Song
p2169
(dp2170
g3
(dp2171
g5
F0.513
sg6
VWasted
p2172
sg8
F89.969
sg9
F0.774
sg10
S'blues'
p2173
sg12
F0.0288
sg13
VBlack Joe Lewis & The Honeybears
p2174
sg15
I9999
sg16
F0.558
sg17
Nsg18
Nsg19
Nsg20
F0.0456
sg21
F0.34035211461608245
sg22
F0.787
sg23
Nsg24
Nsg25
F-3.064
ssg26
I01
sba(iSong
Song
p2175
(dp2176
g3
(dp2177
g5
F0.762
sg6
VMiddle of Nowhere
p2178
sg8
F88.044
sg9
F0.401
sg10
S'blues'
p2179
sg12
F0.0315
sg13
VDelbert McClinton
p2180
sg15
I9999
sg16
F0.797
sg17
Nsg18
Nsg19
Nsg20
F0.0019
sg21
F0.34035211461608245
sg22
F0.748
sg23
Nsg24
Nsg25
F-6.722
ssg26
I01
sba(iSong
Song
p2181
(dp2182
g3
(dp2183
g5
F0.843
sg6
VBoneyard - Edit
p2184
sg8
F106.538
sg9
F0.475
sg10
S'blues'
p2185
sg12
F0.0265
sg13
VFink
p2186
sg15
I9999
sg16
F0.386
sg17
Nsg18
Nsg19
Nsg20
F0.000106
sg21
F0.34035211461608245
sg22
F0.391
sg23
Nsg24
Nsg25
F-8.254
ssg26
I01
sba(iSong
Song
p2187
(dp2188
g3
(dp2189
g5
F0.0684
sg6
VMidnight Highway
p2190
sg8
F124.704
sg9
F0.707
sg10
S'blues'
p2191
sg12
F0.0428
sg13
VQuinn Sullivan
p2192
sg15
I9999
sg16
F0.482
sg17
Nsg18
Nsg19
Nsg20
F1.6e-05
sg21
F0.34035211461608245
sg22
F0.489
sg23
Nsg24
Nsg25
F-4.855
ssg26
I01
sba(iSong
Song
p2193
(dp2194
g3
(dp2195
g5
F0.175
sg6
VLove Is A Lie
p2196
sg8
F113.912
sg9
F0.534
sg10
S'blues'
p2197
sg12
F0.0419
sg13
VBeth Hart
p2198
sg15
I9999
sg16
F0.73
sg17
Nsg18
Nsg19
Nsg20
F0.000185
sg21
F0.34035211461608245
sg22
F0.709
sg23
Nsg24
Nsg25
F-6.639
ssg26
I01
sba(iSong
Song
p2199
(dp2200
g3
(dp2201
g5
F0.116
sg6
VThe Reformation
p2202
sg8
F89.984
sg9
F0.585
sg10
S'blues'
p2203
sg12
F0.0409
sg13
VJo Harman
p2204
sg15
I9999
sg16
F0.572
sg17
Nsg18
Nsg19
Nsg20
F1.47e-05
sg21
F0.34035211461608245
sg22
F0.611
sg23
Nsg24
Nsg25
F-7.772
ssg26
I01
sba(iSong
Song
p2205
(dp2206
g3
(dp2207
g5
F2.42e-06
sg6
VBlood from a Stone
p2208
sg8
F126.573
sg9
F0.945
sg10
S'blues'
p2209
sg12
F0.181
sg13
VEric Krasno
p2210
sg15
I9999
sg16
F0.275
sg17
Nsg18
Nsg19
Nsg20
F0.914
sg21
F0.34035211461608245
sg22
F0.321
sg23
Nsg24
Nsg25
F-4.796
ssg26
I01
sba(iSong
Song
p2211
(dp2212
g3
(dp2213
g5
F0.179
sg6
VLong Story Short
p2214
sg8
F102.302
sg9
F0.84
sg10
S'blues'
p2215
sg12
F0.0369
sg13
VRonnie Baker Brooks
p2216
sg15
I9999
sg16
F0.655
sg17
Nsg18
Nsg19
Nsg20
F0.328
sg21
F0.34035211461608245
sg22
F0.924
sg23
Nsg24
Nsg25
F-4.626
ssg26
I01
sba(iSong
Song
p2217
(dp2218
g3
(dp2219
g5
F0.15
sg6
VHonest Man
p2220
sg8
F93.481
sg9
F0.536
sg10
S'blues'
p2221
sg12
F0.0372
sg13
VMatt Andersen
p2222
sg15
I9999
sg16
F0.823
sg17
Nsg18
Nsg19
Nsg20
F7.19e-06
sg21
F0.34035211461608245
sg22
F0.777
sg23
Nsg24
Nsg25
F-5.793
ssg26
I01
sba(iSong
Song
p2223
(dp2224
g3
(dp2225
g5
F0.578
sg6
VKillin' Floor
p2226
sg8
F116.862
sg9
F0.242
sg10
S'blues'
p2227
sg12
F0.0382
sg13
VKail Baxley
p2228
sg15
I9999
sg16
F0.744
sg17
Nsg18
Nsg19
Nsg20
F0.243
sg21
F0.34035211461608245
sg22
F0.229
sg23
Nsg24
Nsg25
F-12.293
ssg26
I01
sba(iSong
Song
p2229
(dp2230
g3
(dp2231
g5
F0.00909
sg6
VPTP
p2232
sg8
F105.892
sg9
F0.878
sg10
S'blues'
p2233
sg12
F0.0471
sg13
VBlack Joe Lewis & The Honeybears
p2234
sg15
I9999
sg16
F0.649
sg17
Nsg18
Nsg19
Nsg20
F0.000159
sg21
F0.34035211461608245
sg22
F0.81
sg23
Nsg24
Nsg25
F-3.619
ssg26
I01
sba(iSong
Song
p2235
(dp2236
g3
(dp2237
g5
F0.0166
sg6
VAll of Your Love
p2238
sg8
F153.991
sg9
F0.891
sg10
S'blues'
p2239
sg12
F0.0445
sg13
VAynsley Lister
p2240
sg15
I9999
sg16
F0.457
sg17
Nsg18
Nsg19
Nsg20
F0.0179
sg21
F0.34035211461608245
sg22
F0.6
sg23
Nsg24
Nsg25
F-5.094
ssg26
I01
sba(iSong
Song
p2241
(dp2242
g3
(dp2243
g5
F0.401
sg6
VBrother, What Happened?
p2244
sg8
F90.04
sg9
F0.697
sg10
S'blues'
p2245
sg12
F0.0481
sg13
VMuddy Magnolias
p2246
sg15
I9999
sg16
F0.629
sg17
Nsg18
Nsg19
Nsg20
I0
sg21
F0.34035211461608245
sg22
F0.795
sg23
Nsg24
Nsg25
F-7.318
ssg26
I01
sba(iSong
Song
p2247
(dp2248
g3
(dp2249
g5
F0.0732
sg6
VTimes Have Changed (feat. Al Kapone)
p2250
sg8
F86.884
sg9
F0.779
sg10
S'blues'
p2251
sg12
F0.0371
sg13
VRonnie Baker Brooks
p2252
sg15
I9999
sg16
F0.679
sg17
Nsg18
Nsg19
Nsg20
F0.0631
sg21
F0.34035211461608245
sg22
F0.847
sg23
Nsg24
Nsg25
F-5.184
ssg26
I01
sba(iSong
Song
p2253
(dp2254
g3
(dp2255
g5
F0.401
sg6
VI Know A Good Thing
p2256
sg8
F91.12
sg9
F0.624
sg10
S'blues'
p2257
sg12
F0.0388
sg13
VCurtis Salgado
p2258
sg15
I9999
sg16
F0.751
sg17
Nsg18
Nsg19
Nsg20
F0.000584
sg21
F0.34035211461608245
sg22
F0.847
sg23
Nsg24
Nsg25
F-6.025
ssg26
I01
sba(iSong
Song
p2259
(dp2260
g3
(dp2261
g5
F0.104
sg6
VAbandoned
p2262
sg8
F126.935
sg9
F0.647
sg10
S'blues'
p2263
sg12
F0.0283
sg13
VGina Sicilia
p2264
sg15
I9999
sg16
F0.643
sg17
Nsg18
Nsg19
Nsg20
F2.14e-06
sg21
F0.34035211461608245
sg22
F0.547
sg23
Nsg24
Nsg25
F-4.688
ssg26
I01
sba(iSong
Song
p2265
(dp2266
g3
(dp2267
g5
F0.0455
sg6
VEarly Morning Blues
p2268
sg8
F99.771
sg9
F0.553
sg10
S'blues'
p2269
sg12
F0.0638
sg13
VHenrik Freischlader Trio
p2270
sg15
I9999
sg16
F0.649
sg17
Nsg18
Nsg19
Nsg20
F2.88e-05
sg21
F0.34035211461608245
sg22
F0.514
sg23
Nsg24
Nsg25
F-9.095
ssg26
I01
sba(iSong
Song
p2271
(dp2272
g3
(dp2273
g5
F0.412
sg6
VGoing Down
p2274
sg8
F92.405
sg9
F0.81
sg10
S'blues'
p2275
sg12
F0.0308
sg13
VColin James
p2276
sg15
I9999
sg16
F0.579
sg17
Nsg18
Nsg19
Nsg20
F0.0942
sg21
F0.34035211461608245
sg22
F0.2
sg23
Nsg24
Nsg25
F-6.527
ssg26
I01
sba(iSong
Song
p2277
(dp2278
g3
(dp2279
g5
F0.0937
sg6
VAngel in the Shadows
p2280
sg8
F102.804
sg9
F0.69
sg10
S'blues'
p2281
sg12
F0.0252
sg13
VHitman Blues Band
p2282
sg15
I9999
sg16
F0.516
sg17
Nsg18
Nsg19
Nsg20
F4.11e-05
sg21
F0.34035211461608245
sg22
F0.299
sg23
Nsg24
Nsg25
F-5.848
ssg26
I01
sba(iSong
Song
p2283
(dp2284
g3
(dp2285
g5
F0.476
sg6
VWaiting Around To Die
p2286
sg8
F143.939
sg9
F0.16
sg10
S'blues'
p2287
sg12
F0.045
sg13
VThe Devil Makes Three
p2288
sg15
I9999
sg16
F0.4
sg17
Nsg18
Nsg19
Nsg20
F1.42e-05
sg21
F0.34035211461608245
sg22
F0.097
sg23
Nsg24
Nsg25
F-15.425
ssg26
I01
sba(iSong
Song
p2289
(dp2290
g3
(dp2291
g5
F0.428
sg6
VRough and Tumble
p2292
sg8
I118
sg9
F0.86
sg10
S'blues'
p2293
sg12
F0.0356
sg13
VJono Manson
p2294
sg15
I9999
sg16
F0.656
sg17
Nsg18
Nsg19
Nsg20
F0.00127
sg21
F0.34035211461608245
sg22
F0.898
sg23
Nsg24
Nsg25
F-8.152
ssg26
I01
sba(iSong
Song
p2295
(dp2296
g3
(dp2297
g5
F0.293
sg6
VDon't Burn Me (feat. Anson Funderburgh)
p2298
sg8
F100.028
sg9
F0.561
sg10
S'blues'
p2299
sg12
F0.0302
sg13
VThe Fabulous Thunderbirds
p2300
sg15
I9999
sg16
F0.883
sg17
Nsg18
Nsg19
Nsg20
F0.0232
sg21
F0.34035211461608245
sg22
F0.659
sg23
Nsg24
Nsg25
F-9.125
ssg26
I01
sba(iSong
Song
p2301
(dp2302
g3
(dp2303
g5
F0.561
sg6
VBad Man
p2304
sg8
F162.077
sg9
F0.711
sg10
S'blues'
p2305
sg12
F0.0652
sg13
VJj Thames
p2306
sg15
I9999
sg16
F0.547
sg17
Nsg18
Nsg19
Nsg20
F0.0265
sg21
F0.34035211461608245
sg22
F0.834
sg23
Nsg24
Nsg25
F-6.778
ssg26
I01
sba(iSong
Song
p2307
(dp2308
g3
(dp2309
g5
F0.0863
sg6
VCan't Be Helped
p2310
sg8
F87.99
sg9
F0.717
sg10
S'blues'
p2311
sg12
F0.0275
sg13
VThe Soul Of John Black
p2312
sg15
I9999
sg16
F0.771
sg17
Nsg18
Nsg19
Nsg20
F0.000501
sg21
F0.34035211461608245
sg22
F0.845
sg23
Nsg24
Nsg25
F-3.938
ssg26
I01
sba(iSong
Song
p2313
(dp2314
g3
(dp2315
g5
F0.879
sg6
VIs It Me
p2316
sg8
F69.071
sg9
F0.164
sg10
S'blues'
p2317
sg12
F0.0389
sg13
VSt. Paul & The Broken Bones
p2318
sg15
I9999
sg16
F0.269
sg17
Nsg18
Nsg19
Nsg20
F0.00066
sg21
F0.34035211461608245
sg22
F0.254
sg23
Nsg24
Nsg25
F-12.865
ssg26
I01
sba(iSong
Song
p2319
(dp2320
g3
(dp2321
g5
F0.353
sg6
VChampagne And Reefer
p2322
sg8
F121.251
sg9
F0.836
sg10
S'blues'
p2323
sg12
F0.0451
sg13
VThe Devil Makes Three
p2324
sg15
I9999
sg16
F0.735
sg17
Nsg18
Nsg19
Nsg20
F0.0143
sg21
F0.34035211461608245
sg22
F0.781
sg23
Nsg24
Nsg25
F-7.467
ssg26
I01
sba(iSong
Song
p2325
(dp2326
g3
(dp2327
g5
F0.00712
sg6
VDyin' to Know
p2328
sg8
F140.017
sg9
F0.773
sg10
S'blues'
p2329
sg12
F0.0353
sg13
VJoanne Shaw Taylor
p2330
sg15
I9999
sg16
F0.528
sg17
Nsg18
Nsg19
Nsg20
F0.864
sg21
F0.34035211461608245
sg22
F0.506
sg23
Nsg24
Nsg25
F-8.153
ssg26
I01
sba(iSong
Song
p2331
(dp2332
g3
(dp2333
g5
F0.00855
sg6
VGrinder
p2334
sg8
F161.933
sg9
F0.792
sg10
S'blues'
p2335
sg12
F0.0363
sg13
VGary Clark Jr.
p2336
sg15
I9999
sg16
F0.293
sg17
Nsg18
Nsg19
Nsg20
F0.0111
sg21
F0.34035211461608245
sg22
F0.697
sg23
Nsg24
Nsg25
F-3.747
ssg26
I01
sba(iSong
Song
p2337
(dp2338
g3
(dp2339
g5
F0.301
sg6
VI Think I Love You Too Much
p2340
sg8
F111.292
sg9
F0.39
sg10
S'blues'
p2341
sg12
F0.0319
sg13
VBen Poole
p2342
sg15
I9999
sg16
F0.804
sg17
Nsg18
Nsg19
Nsg20
F0.446
sg21
F0.34035211461608245
sg22
F0.86
sg23
Nsg24
Nsg25
F-10.96
ssg26
I01
sba(iSong
Song
p2343
(dp2344
g3
(dp2345
g5
F0.306
sg6
VThe Valley Runs Low
p2346
sg8
F95.981
sg9
F0.546
sg10
S'blues'
p2347
sg12
F0.0239
sg13
VJoe Bonamassa
p2348
sg15
I9999
sg16
F0.749
sg17
Nsg18
Nsg19
Nsg20
F1.84e-05
sg21
F0.34035211461608245
sg22
F0.601
sg23
Nsg24
Nsg25
F-6.566
ssg26
I01
sba(iSong
Song
p2349
(dp2350
g3
(dp2351
g5
F0.753
sg6
VOnly a River
p2352
sg8
F128.019
sg9
F0.464
sg10
S'blues'
p2353
sg12
F0.0279
sg13
VBob Weir
p2354
sg15
I9999
sg16
F0.525
sg17
Nsg18
Nsg19
Nsg20
F0.0683
sg21
F0.34035211461608245
sg22
F0.453
sg23
Nsg24
Nsg25
F-9.379
ssg26
I01
sba(iSong
Song
p2355
(dp2356
g3
(dp2357
g5
F0.00462
sg6
VYou Ain't My Dog No More
p2358
sg8
F115.446
sg9
F0.735
sg10
S'blues'
p2359
sg12
F0.0352
sg13
VEliza Neals
p2360
sg15
I9999
sg16
F0.527
sg17
Nsg18
Nsg19
Nsg20
F0.211
sg21
F0.34035211461608245
sg22
F0.448
sg23
Nsg24
Nsg25
F-6.576
ssg26
I01
sba(iSong
Song
p2361
(dp2362
g3
(dp2363
g5
F0.00804
sg6
VShadows
p2364
sg8
F117.94
sg9
F0.978
sg10
S'blues'
p2365
sg12
F0.104
sg13
VPaul Reddick
p2366
sg15
I9999
sg16
F0.478
sg17
Nsg18
Nsg19
Nsg20
F2.71e-05
sg21
F0.34035211461608245
sg22
F0.287
sg23
Nsg24
Nsg25
F-3.832
ssg26
I01
sba(iSong
Song
p2367
(dp2368
g3
(dp2369
g5
F0.427
sg6
VDon't Know What It Means
p2370
sg8
F91.602
sg9
F0.624
sg10
S'blues'
p2371
sg12
F0.0343
sg13
VTedeschi Trucks Band
p2372
sg15
I9999
sg16
F0.648
sg17
Nsg18
Nsg19
Nsg20
F0.0139
sg21
F0.34035211461608245
sg22
F0.78
sg23
Nsg24
Nsg25
F-9.233
ssg26
I01
sba(iSong
Song
p2373
(dp2374
g3
(dp2375
g5
F0.351
sg6
VCan't Let You Do It
p2376
sg8
F99.659
sg9
F0.456
sg10
S'blues'
p2377
sg12
F0.031
sg13
VEric Clapton
p2378
sg15
I9999
sg16
F0.83
sg17
Nsg18
Nsg19
Nsg20
F0.0187
sg21
F0.34035211461608245
sg22
F0.918
sg23
Nsg24
Nsg25
F-13.282
ssg26
I01
sba(iSong
Song
p2379
(dp2380
g3
(dp2381
g5
F0.278
sg6
VDon't Hurt Me Now
p2382
sg8
F98.085
sg9
F0.681
sg10
S'blues'
p2383
sg12
F0.0291
sg13
VIna Forsman
p2384
sg15
I9999
sg16
F0.523
sg17
Nsg18
Nsg19
Nsg20
F9.77e-06
sg21
F0.34035211461608245
sg22
F0.51
sg23
Nsg24
Nsg25
F-4.243
ssg26
I01
sba(iSong
Song
p2385
(dp2386
g3
(dp2387
g5
F0.425
sg6
VHigh Note
p2388
sg8
F83.2
sg9
F0.575
sg10
S'blues'
p2389
sg12
F0.151
sg13
VMavis Staples
p2390
sg15
I9999
sg16
F0.609
sg17
Nsg18
Nsg19
Nsg20
F5.21e-05
sg21
F0.34035211461608245
sg22
F0.495
sg23
Nsg24
Nsg25
F-7.342
ssg26
I01
sba(iSong
Song
p2391
(dp2392
g3
(dp2393
g5
F0.768
sg6
VBorn To Play Guitar
p2394
sg8
F169.527
sg9
F0.423
sg10
S'blues'
p2395
sg12
F0.0694
sg13
VBuddy Guy
p2396
sg15
I9999
sg16
F0.479
sg17
Nsg18
Nsg19
Nsg20
F0.000305
sg21
F0.34035211461608245
sg22
F0.4
sg23
Nsg24
Nsg25
F-7.714
ssg26
I01
sba(iSong
Song
p2397
(dp2398
g3
(dp2399
g5
F0.021
sg6
VDon't Leave Me Here
p2400
sg8
F95.03
sg9
F0.775
sg10
S'blues'
p2401
sg12
F0.0389
sg13
VTaj Mahal
p2402
sg15
I9999
sg16
F0.784
sg17
Nsg18
Nsg19
Nsg20
F0.00351
sg21
F0.34035211461608245
sg22
F0.789
sg23
Nsg24
Nsg25
F-6.848
ssg26
I01
sba(iSong
Song
p2403
(dp2404
g3
(dp2405
g5
F0.84
sg6
VI Love You More Than You'll Ever Know
p2406
sg8
F104.122
sg9
F0.401
sg10
S'blues'
p2407
sg12
F0.0959
sg13
VJaniva Magness
p2408
sg15
I9999
sg16
F0.442
sg17
Nsg18
Nsg19
Nsg20
F0.000502
sg21
F0.34035211461608245
sg22
F0.268
sg23
Nsg24
Nsg25
F-8.731
ssg26
I01
sba(iSong
Song
p2409
(dp2410
g3
(dp2411
g5
F0.112
sg6
VSallisaw Blue
p2412
sg8
F150.77
sg9
F0.866
sg10
S'blues'
p2413
sg12
F0.0691
sg13
VJohn Moreland
p2414
sg15
I9999
sg16
F0.395
sg17
Nsg18
Nsg19
Nsg20
F9.85e-06
sg21
F0.34035211461608245
sg22
F0.836
sg23
Nsg24
Nsg25
F-7.047
ssg26
I01
sba(iSong
Song
p2415
(dp2416
g3
(dp2417
g5
F0.26
sg6
VWorking Woman
p2418
sg8
F75.98
sg9
F0.825
sg10
S'blues'
p2419
sg12
F0.0509
sg13
VRuthie Foster
p2420
sg15
I9999
sg16
F0.547
sg17
Nsg18
Nsg19
Nsg20
I0
sg21
F0.34035211461608245
sg22
F0.508
sg23
Nsg24
Nsg25
F-3.024
ssg26
I01
sba(iSong
Song
p2421
(dp2422
g3
(dp2423
g5
F0.00614
sg6
VChange of Pace
p2424
sg8
F92.14
sg9
F0.655
sg10
S'blues'
p2425
sg12
F0.0308
sg13
VGreyhounds
p2426
sg15
I9999
sg16
F0.641
sg17
Nsg18
Nsg19
Nsg20
F0.000431
sg21
F0.34035211461608245
sg22
F0.514
sg23
Nsg24
Nsg25
F-9.425
ssg26
I01
sba(iSong
Song
p2427
(dp2428
g3
(dp2429
g5
F0.00829
sg6
VDyin' To Know
p2430
sg8
F140.017
sg9
F0.79
sg10
S'blues'
p2431
sg12
F0.0383
sg13
VJoanne Shaw Taylor
p2432
sg15
I9999
sg16
F0.538
sg17
Nsg18
Nsg19
Nsg20
F0.834
sg21
F0.34035211461608245
sg22
F0.528
sg23
Nsg24
Nsg25
F-6.864
ssg26
I01
sba(iSong
Song
p2433
(dp2434
g3
(dp2435
g5
F0.346
sg6
VCall My Name
p2436
sg8
F75.529
sg9
F0.424
sg10
S'blues'
p2437
sg12
F0.0414
sg13
VSeth Walker
p2438
sg15
I9999
sg16
F0.701
sg17
Nsg18
Nsg19
Nsg20
F0.000203
sg21
F0.34035211461608245
sg22
F0.437
sg23
Nsg24
Nsg25
F-7.012
ssg26
I01
sba(iSong
Song
p2439
(dp2440
g3
(dp2441
g5
F0.978
sg6
VOhio
p2442
sg8
F122.093
sg9
F0.204
sg10
S'blues'
p2443
sg12
F0.0334
sg13
VJon Batiste
p2444
sg15
I9999
sg16
F0.425
sg17
Nsg18
Nsg19
Nsg20
F0.000481
sg21
F0.34035211461608245
sg22
F0.121
sg23
Nsg24
Nsg25
F-13.097
ssg26
I01
sba(iSong
Song
p2445
(dp2446
g3
(dp2447
g5
F0.186
sg6
VLong Haired Doney
p2448
sg8
F96.125
sg9
F0.789
sg10
S'blues'
p2449
sg12
F0.0371
sg13
VNorth Mississippi Allstars
p2450
sg15
I9999
sg16
F0.573
sg17
Nsg18
Nsg19
Nsg20
F0.835
sg21
F0.34035211461608245
sg22
F0.773
sg23
Nsg24
Nsg25
F-10.482
ssg26
I01
sba(iSong
Song
p2451
(dp2452
g3
(dp2453
g5
F0.0277
sg6
VHoller
p2454
sg8
F97.948
sg9
F0.853
sg10
S'blues'
p2455
sg12
F0.0692
sg13
VBand of Rascals
p2456
sg15
I9999
sg16
F0.369
sg17
Nsg18
Nsg19
Nsg20
I0
sg21
F0.34035211461608245
sg22
F0.383
sg23
Nsg24
Nsg25
F-3.438
ssg26
I01
sba(iSong
Song
p2457
(dp2458
g3
(dp2459
g5
F0.236
sg6
VLet The Good Times Roll - Live
p2460
sg8
F146.835
sg9
F0.881
sg10
S'blues'
p2461
sg12
F0.0572
sg13
VJoe Bonamassa
p2462
sg15
I9999
sg16
F0.334
sg17
Nsg18
Nsg19
Nsg20
F7.96e-05
sg21
F0.34035211461608245
sg22
F0.508
sg23
Nsg24
Nsg25
F-6.888
ssg26
I01
sba(iSong
Song
p2463
(dp2464
g3
(dp2465
g5
F0.222
sg6
VThe Healing - Live
p2466
sg8
F89.193
sg9
F0.56
sg10
S'blues'
p2467
sg12
F0.031
sg13
VGary Clark Jr.
p2468
sg15
I9999
sg16
F0.344
sg17
Nsg18
Nsg19
Nsg20
F0.00141
sg21
F0.34035211461608245
sg22
F0.345
sg23
Nsg24
Nsg25
F-8.363
ssg26
I01
sba(iSong
Song
p2469
(dp2470
g3
(dp2471
g5
F0.184
sg6
VSoul Salvation - Live
p2472
sg8
F132.041
sg9
F0.836
sg10
S'blues'
p2473
sg12
F0.0913
sg13
VSonny Landreth
p2474
sg15
I9999
sg16
F0.561
sg17
Nsg18
Nsg19
Nsg20
F0.00355
sg21
F0.34035211461608245
sg22
F0.495
sg23
Nsg24
Nsg25
F-8.904
ssg26
I01
sba(iSong
Song
p2475
(dp2476
g3
(dp2477
g5
F0.613
sg6
VBird On The Wire - Live
p2478
sg8
F106.117
sg9
F0.362
sg10
S'blues'
p2479
sg12
F0.0339
sg13
VTedeschi Trucks Band
p2480
sg15
I9999
sg16
F0.449
sg17
Nsg18
Nsg19
Nsg20
F0.000252
sg21
F0.34035211461608245
sg22
F0.392
sg23
Nsg24
Nsg25
F-11.389
ssg26
I01
sba(iSong
Song
p2481
(dp2482
g3
(dp2483
g5
F0.0231
sg6
VTexas Flood - Live at Ripley's Music Hall, Philadelphia, PA, Oct. 20, 1983
p2484
sg8
F138.538
sg9
F0.613
sg10
S'blues'
p2485
sg12
F0.0414
sg13
VStevie Ray Vaughan
p2486
sg15
I9999
sg16
F0.261
sg17
Nsg18
Nsg19
Nsg20
F0.0867
sg21
F0.34035211461608245
sg22
F0.402
sg23
Nsg24
Nsg25
F-9.778
ssg26
I01
sba(iSong
Song
p2487
(dp2488
g3
(dp2489
g5
F0.0447
sg6
VTrue Lies
p2490
sg8
F172.969
sg9
F0.913
sg10
S'blues'
p2491
sg12
F0.102
sg13
VKenny Wayne Shepherd
p2492
sg15
I9999
sg16
F0.116
sg17
Nsg18
Nsg19
Nsg20
F0.0524
sg21
F0.34035211461608245
sg22
F0.604
sg23
Nsg24
Nsg25
F-7.742
ssg26
I01
sba(iSong
Song
p2493
(dp2494
g3
(dp2495
g5
F0.00257
sg6
VStop Breakin' Down - Live
p2496
sg8
F116.409
sg9
F0.777
sg10
S'blues'
p2497
sg12
F0.137
sg13
VThe Jeff Healey Band
p2498
sg15
I9999
sg16
F0.376
sg17
Nsg18
Nsg19
Nsg20
F0.000925
sg21
F0.34035211461608245
sg22
F0.37
sg23
Nsg24
Nsg25
F-8.708
ssg26
I01
sba(iSong
Song
p2499
(dp2500
g3
(dp2501
g5
F0.355
sg6
VWeatherman
p2502
sg8
F170.582
sg9
F0.574
sg10
S'blues'
p2503
sg12
F0.208
sg13
VIna Forsman
p2504
sg15
I9999
sg16
F0.652
sg17
Nsg18
Nsg19
Nsg20
F9.66e-05
sg21
F0.34035211461608245
sg22
F0.628
sg23
Nsg24
Nsg25
F-9.092
ssg26
I01
sba(iSong
Song
p2505
(dp2506
g3
(dp2507
g5
F0.0687
sg6
VSteamroller / Powerful Thing - Live
p2508
sg8
F89.079
sg9
F0.967
sg10
S'blues'
p2509
sg12
F0.155
sg13
VPhilip Sayce
p2510
sg15
I9999
sg16
F0.328
sg17
Nsg18
Nsg19
Nsg20
I0
sg21
F0.34035211461608245
sg22
F0.152
sg23
Nsg24
Nsg25
F-4.975
ssg26
I01
sba(iSong
Song
p2511
(dp2512
g3
(dp2513
g5
F0.0264
sg6
VKeep On Growing - Live
p2514
sg8
F100.118
sg9
F0.821
sg10
S'blues'
p2515
sg12
F0.0602
sg13
VTedeschi Trucks Band
p2516
sg15
I9999
sg16
F0.318
sg17
Nsg18
Nsg19
Nsg20
F0.0789
sg21
F0.34035211461608245
sg22
F0.424
sg23
Nsg24
Nsg25
F-9.965
ssg26
I01
sba(iSong
Song
p2517
(dp2518
g3
(dp2519
g5
F0.0117
sg6
VFeeling Good - Live
p2520
sg8
F124.894
sg9
F0.844
sg10
S'blues'
p2521
sg12
F0.0593
sg13
VThe Sheepdogs
p2522
sg15
I9999
sg16
F0.292
sg17
Nsg18
Nsg19
Nsg20
F7.27e-06
sg21
F0.34035211461608245
sg22
F0.526
sg23
Nsg24
Nsg25
F-8.041
ssg26
I01
sba(iSong
Song
p2523
(dp2524
g3
(dp2525
g5
F0.197
sg6
VPocket Full of Dust (Live)
p2526
sg8
F183.927
sg9
F0.669
sg10
S'blues'
p2527
sg12
F0.103
sg13
VDave Fields
p2528
sg15
I9999
sg16
F0.257
sg17
Nsg18
Nsg19
Nsg20
F0.0491
sg21
F0.34035211461608245
sg22
F0.393
sg23
Nsg24
Nsg25
F-9.029
ssg26
I01
sba(iSong
Song
p2529
(dp2530
g3
(dp2531
g5
F0.0171
sg6
VTouch My Blues Away - Live
p2532
sg8
F158.661
sg9
F0.466
sg10
S'blues'
p2533
sg12
F0.0367
sg13
VJessy Martens and Band
p2534
sg15
I9999
sg16
F0.311
sg17
Nsg18
Nsg19
Nsg20
F0.00023
sg21
F0.34035211461608245
sg22
F0.233
sg23
Nsg24
Nsg25
F-8.163
ssg26
I01
sba(iSong
Song
p2535
(dp2536
g3
(dp2537
g5
F0.04
sg6
VWait On Time - Live
p2538
sg8
F118.076
sg9
F0.801
sg10
S'blues'
p2539
sg12
F0.0688
sg13
VKing King
p2540
sg15
I9999
sg16
F0.567
sg17
Nsg18
Nsg19
Nsg20
F0.00189
sg21
F0.34035211461608245
sg22
F0.58
sg23
Nsg24
Nsg25
F-8.378
ssg26
I01
sba(iSong
Song
p2541
(dp2542
g3
(dp2543
g5
F0.15
sg6
VRed Light - Live
p2544
sg8
F120.127
sg9
F0.462
sg10
S'blues'
p2545
sg12
F0.0541
sg13
VJonny Lang
p2546
sg15
I9999
sg16
F0.667
sg17
Nsg18
Nsg19
Nsg20
F1.16e-05
sg21
F0.34035211461608245
sg22
F0.341
sg23
Nsg24
Nsg25
F-8.894
ssg26
I01
sba(iSong
Song
p2547
(dp2548
g3
(dp2549
g5
F0.0809
sg6
VSome Other Day, Some Other Time - Live
p2550
sg8
F121.856
sg9
F0.82
sg10
S'blues'
p2551
sg12
F0.0365
sg13
VJoe Bonamassa
p2552
sg15
I9999
sg16
F0.645
sg17
Nsg18
Nsg19
Nsg20
F0.00174
sg21
F0.34035211461608245
sg22
F0.816
sg23
Nsg24
Nsg25
F-8.109
ssg26
I01
sba(iSong
Song
p2553
(dp2554
g3
(dp2555
g5
F0.37
sg6
VEveryday I Have The Blues - Live (San Quentin)
p2556
sg8
F138.005
sg9
F0.805
sg10
S'blues'
p2557
sg12
F0.0557
sg13
VB.B. King
p2558
sg15
I9999
sg16
F0.431
sg17
Nsg18
Nsg19
Nsg20
F2.27e-06
sg21
F0.34035211461608245
sg22
F0.589
sg23
Nsg24
Nsg25
F-6.785
ssg26
I01
sba(iSong
Song
p2559
(dp2560
g3
(dp2561
g5
F0.123
sg6
VA Better Man
p2562
sg8
F142.413
sg9
F0.772
sg10
S'blues'
p2563
sg12
F0.0544
sg13
VHenrik Freischlader
p2564
sg15
I9999
sg16
F0.312
sg17
Nsg18
Nsg19
Nsg20
F0.069
sg21
F0.34035211461608245
sg22
F0.628
sg23
Nsg24
Nsg25
F-6.007
ssg26
I01
sba(iSong
Song
p2565
(dp2566
g3
(dp2567
g5
F0.00491
sg6
VRoll With Me - Live
p2568
sg8
F146.349
sg9
F0.964
sg10
S'blues'
p2569
sg12
F0.065
sg13
VJohnny Winter
p2570
sg15
I9999
sg16
F0.401
sg17
Nsg18
Nsg19
Nsg20
F4.3e-05
sg21
F0.34035211461608245
sg22
F0.583
sg23
Nsg24
Nsg25
F-8.369
ssg26
I01
sba(iSong
Song
p2571
(dp2572
g3
(dp2573
g5
F0.083
sg6
VRiver Of Tears - Live
p2574
sg8
F108.618
sg9
F0.525
sg10
S'blues'
p2575
sg12
F0.0299
sg13
VEric Clapton
p2576
sg15
I9999
sg16
F0.457
sg17
Nsg18
Nsg19
Nsg20
F0.0975
sg21
F0.34035211461608245
sg22
F0.194
sg23
Nsg24
Nsg25
F-8.364
ssg26
I01
sba(iSong
Song
p2577
(dp2578
g3
(dp2579
g5
F0.0793
sg6
VWhy Me - Live
p2580
sg8
F165.307
sg9
F0.961
sg10
S'blues'
p2581
sg12
F0.0671
sg13
VAlbert Cummings
p2582
sg15
I9999
sg16
F0.255
sg17
Nsg18
Nsg19
Nsg20
F1.85e-05
sg21
F0.34035211461608245
sg22
F0.862
sg23
Nsg24
Nsg25
F-3.875
ssg26
I01
sba(iSong
Song
p2583
(dp2584
g3
(dp2585
g5
F0.0209
sg6
VDamn Right I've Got The Blues - Live
p2586
sg8
F102.043
sg9
F0.587
sg10
S'blues'
p2587
sg12
F0.12
sg13
VBuddy Guy
p2588
sg15
I9999
sg16
F0.348
sg17
Nsg18
Nsg19
Nsg20
F0.0818
sg21
F0.34035211461608245
sg22
F0.557
sg23
Nsg24
Nsg25
F-10.04
ssg26
I01
sba(iSong
Song
p2589
(dp2590
g3
(dp2591
g5
F0.0131
sg6
VCrying For My Baby
p2592
sg8
F153.538
sg9
F0.873
sg10
S'blues'
p2593
sg12
F0.0719
sg13
VSon Seals
p2594
sg15
I9999
sg16
F0.402
sg17
Nsg18
Nsg19
Nsg20
F5.02e-05
sg21
F0.34035211461608245
sg22
F0.658
sg23
Nsg24
Nsg25
F-8.201
ssg26
I01
sba(iSong
Song
p2595
(dp2596
g3
(dp2597
g5
F0.0191
sg6
VLonesome Whistle Blues - Live
p2598
sg8
F104.193
sg9
F0.72
sg10
S'blues'
p2599
sg12
F0.0315
sg13
VJoe Bonamassa
p2600
sg15
I9999
sg16
F0.545
sg17
Nsg18
Nsg19
Nsg20
F0.00337
sg21
F0.34035211461608245
sg22
F0.624
sg23
Nsg24
Nsg25
F-8.805
ssg26
I01
sba(iSong
Song
p2601
(dp2602
g3
(dp2603
g5
F0.0215
sg6
VCamp Washington Chile/If You Have To Know
p2604
sg8
F124.181
sg9
F0.726
sg10
S'blues'
p2605
sg12
F0.0336
sg13
VLonnie Mack
p2606
sg15
I9999
sg16
F0.395
sg17
Nsg18
Nsg19
Nsg20
F0.595
sg21
F0.34035211461608245
sg22
F0.804
sg23
Nsg24
Nsg25
F-11.278
ssg26
I01
sba(iSong
Song
p2607
(dp2608
g3
(dp2609
g5
F0.673
sg6
VGravity - Live In Concert
p2610
sg8
F115.281
sg9
F0.344
sg10
S'blues'
p2611
sg12
F0.035
sg13
VJohn Mayer Trio
p2612
sg15
I9999
sg16
F0.543
sg17
Nsg18
Nsg19
Nsg20
F0.00329
sg21
F0.34035211461608245
sg22
F0.477
sg23
Nsg24
Nsg25
F-9.599
ssg26
I01
sba(iSong
Song
p2613
(dp2614
g3
(dp2615
g5
F0.24
sg6
VThings Are Changin' - Live
p2616
sg8
F187.661
sg9
F0.639
sg10
S'blues'
p2617
sg12
F0.0963
sg13
VGary Clark Jr.
p2618
sg15
I9999
sg16
F0.303
sg17
Nsg18
Nsg19
Nsg20
F0.00328
sg21
F0.34035211461608245
sg22
F0.237
sg23
Nsg24
Nsg25
F-7.744
ssg26
I01
sba(iSong
Song
p2619
(dp2620
g3
(dp2621
g5
F0.0545
sg6
VHideaway
p2622
sg8
F125.627
sg9
F0.903
sg10
S'blues'
p2623
sg12
F0.122
sg13
VJohn Mayall & The Bluesbreakers
p2624
sg15
I9999
sg16
F0.495
sg17
Nsg18
Nsg19
Nsg20
F0.511
sg21
F0.34035211461608245
sg22
F0.63
sg23
Nsg24
Nsg25
F-7.598
ssg26
I01
sba(iSong
Song
p2625
(dp2626
g3
(dp2627
g5
F0.081
sg6
VChills & Thrills
p2628
sg8
F111.91
sg9
F0.752
sg10
S'blues'
p2629
sg12
F0.065
sg13
VBernard Allison
p2630
sg15
I9999
sg16
F0.581
sg17
Nsg18
Nsg19
Nsg20
F0.304
sg21
F0.34035211461608245
sg22
F0.627
sg23
Nsg24
Nsg25
F-9.183
ssg26
I01
sba(iSong
Song
p2631
(dp2632
g3
(dp2633
g5
F0.00162
sg6
VFreedom
p2634
sg8
F106.205
sg9
F0.8
sg10
S'blues'
p2635
sg12
F0.0698
sg13
VTony Spinner
p2636
sg15
I9999
sg16
F0.373
sg17
Nsg18
Nsg19
Nsg20
F0.00659
sg21
F0.34035211461608245
sg22
F0.89
sg23
Nsg24
Nsg25
F-6.892
ssg26
I01
sba(iSong
Song
p2637
(dp2638
g3
(dp2639
g5
F0.157
sg6
VBorn Under A Bad Sign - Live
p2640
sg8
F89.579
sg9
F0.793
sg10
S'blues'
p2641
sg12
F0.0269
sg13
VJoe Bonamassa
p2642
sg15
I9999
sg16
F0.443
sg17
Nsg18
Nsg19
Nsg20
F0.00304
sg21
F0.34035211461608245
sg22
F0.796
sg23
Nsg24
Nsg25
F-6.485
ssg26
I01
sba(iSong
Song
p2643
(dp2644
g3
(dp2645
g5
F0.0164
sg6
VKey To The Highway - Live
p2646
sg8
F111.808
sg9
F0.728
sg10
S'blues'
p2647
sg12
F0.0671
sg13
VThe Derek Trucks Band
p2648
sg15
I9999
sg16
F0.399
sg17
Nsg18
Nsg19
Nsg20
F0.0221
sg21
F0.34035211461608245
sg22
F0.504
sg23
Nsg24
Nsg25
F-6.121
ssg26
I01
sba(iSong
Song
p2649
(dp2650
g3
(dp2651
g5
F0.0827
sg6
VJudgment Day
p2652
sg8
F81.904
sg9
F0.716
sg10
S'blues'
p2653
sg12
F0.0283
sg13
VMike Zito
p2654
sg15
I9999
sg16
F0.493
sg17
Nsg18
Nsg19
Nsg20
F0.00837
sg21
F0.34035211461608245
sg22
F0.757
sg23
Nsg24
Nsg25
F-5.721
ssg26
I01
sba(iSong
Song
p2655
(dp2656
g3
(dp2657
g5
F0.467
sg6
VStoop Down Baby - Live
p2658
sg8
F108.868
sg9
F0.941
sg10
S'blues'
p2659
sg12
F0.0722
sg13
VPopa Chubby
p2660
sg15
I9999
sg16
F0.571
sg17
Nsg18
Nsg19
Nsg20
F0.351
sg21
F0.34035211461608245
sg22
F0.599
sg23
Nsg24
Nsg25
F-4.304
ssg26
I01
sba(iSong
Song
p2661
(dp2662
g3
(dp2663
g5
F0.0665
sg6
VLet Me Know
p2664
sg8
F154.487
sg9
F0.799
sg10
S'blues'
p2665
sg12
F0.109
sg13
VWalter Trout and The Free Radicals
p2666
sg15
I9999
sg16
F0.285
sg17
Nsg18
Nsg19
Nsg20
F0.00186
sg21
F0.34035211461608245
sg22
F0.611
sg23
Nsg24
Nsg25
F-6.216
ssg26
I01
sba(iSong
Song
p2667
(dp2668
g3
(dp2669
g5
F0.0935
sg6
VSoulshine
p2670
sg8
F122.781
sg9
F0.633
sg10
S'blues'
p2671
sg12
F0.0462
sg13
VGov't Mule
p2672
sg15
I9999
sg16
F0.418
sg17
Nsg18
Nsg19
Nsg20
F0.079
sg21
F0.34035211461608245
sg22
F0.483
sg23
Nsg24
Nsg25
F-8.138
ssg26
I01
sba(iSong
Song
p2673
(dp2674
g3
(dp2675
g5
F0.118
sg6
VMe & the Devil Blues
p2676
sg8
F110.584
sg9
F0.424
sg10
S'blues'
p2677
sg12
F0.0376
sg13
VJonah Tolchin
p2678
sg15
I9999
sg16
F0.492
sg17
Nsg18
Nsg19
Nsg20
F0.00513
sg21
F0.34035211461608245
sg22
F0.506
sg23
Nsg24
Nsg25
F-9.046
ssg26
I01
sba(iSong
Song
p2679
(dp2680
g3
(dp2681
g5
F0.75
sg6
VRestless Sinner
p2682
sg8
F120.485
sg9
F0.281
sg10
S'blues'
p2683
sg12
F0.036
sg13
VBlack Rebel Motorcycle Club
p2684
sg15
I9999
sg16
F0.381
sg17
Nsg18
Nsg19
Nsg20
I0
sg21
F0.34035211461608245
sg22
F0.298
sg23
Nsg24
Nsg25
F-12.363
ssg26
I01
sba(iSong
Song
p2685
(dp2686
g3
(dp2687
g5
F0.0051
sg6
VSeven Hells
p2688
sg8
F143.165
sg9
F0.613
sg10
S'blues'
p2689
sg12
F0.0838
sg13
VBrown Bird
p2690
sg15
I9999
sg16
F0.514
sg17
Nsg18
Nsg19
Nsg20
F0.00134
sg21
F0.34035211461608245
sg22
F0.545
sg23
Nsg24
Nsg25
F-9.51
ssg26
I01
sba(iSong
Song
p2691
(dp2692
g3
(dp2693
g5
F0.515
sg6
VDevil's Resting Place
p2694
sg8
F179.267
sg9
F0.59
sg10
S'blues'
p2695
sg12
F0.0916
sg13
VLaura Marling
p2696
sg15
I9999
sg16
F0.221
sg17
Nsg18
Nsg19
Nsg20
F0.0636
sg21
F0.34035211461608245
sg22
F0.713
sg23
Nsg24
Nsg25
F-12.299
ssg26
I01
sba(iSong
Song
p2697
(dp2698
g3
(dp2699
g5
F0.93
sg6
VCross Road Blues
p2700
sg8
F97.159
sg9
F0.311
sg10
S'blues'
p2701
sg12
F0.0525
sg13
VRobert Johnson
p2702
sg15
I9999
sg16
F0.675
sg17
Nsg18
Nsg19
Nsg20
F0.000261
sg21
F0.34035211461608245
sg22
F0.638
sg23
Nsg24
Nsg25
F-11.959
ssg26
I01
sba(iSong
Song
p2703
(dp2704
g3
(dp2705
g5
F0.875
sg6
VThe High Price of Inspiration
p2706
sg8
F130.63
sg9
F0.188
sg10
S'blues'
p2707
sg12
F0.0586
sg13
VHard Working Americans
p2708
sg15
I9999
sg16
F0.575
sg17
Nsg18
Nsg19
Nsg20
F0.00205
sg21
F0.34035211461608245
sg22
F0.322
sg23
Nsg24
Nsg25
F-16.499
ssg26
I01
sba(iSong
Song
p2709
(dp2710
g3
(dp2711
g5
F0.0446
sg6
VBad Things
p2712
sg8
F131.006
sg9
F0.864
sg10
S'blues'
p2713
sg12
F0.0399
sg13
VJace Everett
p2714
sg15
I9999
sg16
F0.591
sg17
Nsg18
Nsg19
Nsg20
F0.00571
sg21
F0.34035211461608245
sg22
F0.728
sg23
Nsg24
Nsg25
F-4.706
ssg26
I01
sba(iSong
Song
p2715
(dp2716
g3
(dp2717
g5
F0.381
sg6
VOld devils
p2718
sg8
F102.116
sg9
F0.461
sg10
S'blues'
p2719
sg12
F0.026
sg13
VWilliam Elliott Whitmore
p2720
sg15
I9999
sg16
F0.473
sg17
Nsg18
Nsg19
Nsg20
F1.44e-06
sg21
F0.34035211461608245
sg22
F0.408
sg23
Nsg24
Nsg25
F-10.643
ssg26
I01
sba(iSong
Song
p2721
(dp2722
g3
(dp2723
g5
F0.407
sg6
VGraveyard
p2724
sg8
F127.314
sg9
F0.494
sg10
S'blues'
p2725
sg12
F0.0275
sg13
VThe Devil Makes Three
p2726
sg15
I9999
sg16
F0.69
sg17
Nsg18
Nsg19
Nsg20
F3.79e-06
sg21
F0.34035211461608245
sg22
F0.84
sg23
Nsg24
Nsg25
F-9.147
ssg26
I01
sba(iSong
Song
p2727
(dp2728
g3
(dp2729
g5
F0.221
sg6
VCrossroads
p2730
sg8
F114.216
sg9
F0.507
sg10
S'blues'
p2731
sg12
F0.0564
sg13
VJohn Mayer
p2732
sg15
I9999
sg16
F0.894
sg17
Nsg18
Nsg19
Nsg20
F0.0661
sg21
F0.34035211461608245
sg22
F0.916
sg23
Nsg24
Nsg25
F-6.945
ssg26
I01
sba(iSong
Song
p2733
(dp2734
g3
(dp2735
g5
F0.993
sg6
VDevil's Gonna Git You
p2736
sg8
F71.434
sg9
F0.0442
sg10
S'blues'
p2737
sg12
F0.0371
sg13
VBessie Smith
p2738
sg15
I9999
sg16
F0.653
sg17
Nsg18
Nsg19
Nsg20
I0
sg21
F0.34035211461608245
sg22
F0.346
sg23
Nsg24
Nsg25
F-12.269
ssg26
I01
sba(iSong
Song
p2739
(dp2740
g3
(dp2741
g5
F0.931
sg6
VMe and the Devil Blues
p2742
sg8
F82.181
sg9
F0.111
sg10
S'blues'
p2743
sg12
F0.0873
sg13
VRobert Johnson
p2744
sg15
I9999
sg16
F0.717
sg17
Nsg18
Nsg19
Nsg20
F0.000163
sg21
F0.34035211461608245
sg22
F0.15
sg23
Nsg24
Nsg25
F-13.805
ssg26
I01
sba(iSong
Song
p2745
(dp2746
g3
(dp2747
g5
F0.995
sg6
VEvil Devil Woman Blues
p2748
sg8
F145.089
sg9
F0.0708
sg10
S'blues'
p2749
sg12
F0.0541
sg13
VMemphis Minnie & Kansas Joe
p2750
sg15
I9999
sg16
F0.476
sg17
Nsg18
Nsg19
Nsg20
F0.00912
sg21
F0.34035211461608245
sg22
F0.495
sg23
Nsg24
Nsg25
F-16.237
ssg26
I01
sba(iSong
Song
p2751
(dp2752
g3
(dp2753
g5
F0.763
sg6
VBlue Guitar
p2754
sg8
F68.804
sg9
F0.325
sg10
S'blues'
p2755
sg12
F0.0305
sg13
VEarl Hooker
p2756
sg15
I9999
sg16
F0.515
sg17
Nsg18
Nsg19
Nsg20
F0.912
sg21
F0.34035211461608245
sg22
F0.553
sg23
Nsg24
Nsg25
F-13.498
ssg26
I01
sba(iSong
Song
p2757
(dp2758
g3
(dp2759
g5
F0.994
sg6
VBlue Guitar Stomp
p2760
sg8
F182.717
sg9
F0.162
sg10
S'blues'
p2761
sg12
F0.055
sg13
VBuddy Burton & Fats Hudson
p2762
sg15
I9999
sg16
F0.533
sg17
Nsg18
Nsg19
Nsg20
F0.671
sg21
F0.34035211461608245
sg22
F0.764
sg23
Nsg24
Nsg25
F-15.774
ssg26
I01
sba(iSong
Song
p2763
(dp2764
g3
(dp2765
g5
F0.673
sg6
VBlue Guitar
p2766
sg8
F179.267
sg9
F0.203
sg10
S'blues'
p2767
sg12
F0.0407
sg13
VWillie Kent
p2768
sg15
I9999
sg16
F0.425
sg17
Nsg18
Nsg19
Nsg20
F0.849
sg21
F0.34035211461608245
sg22
F0.457
sg23
Nsg24
Nsg25
F-15.87
ssg26
I01
sba(iSong
Song
p2769
(dp2770
g3
(dp2771
g5
F0.767
sg6
VEvil Woman
p2772
sg8
F113.963
sg9
F0.271
sg10
S'blues'
p2773
sg12
F0.0667
sg13
VChampion Jack Dupree
p2774
sg15
I9999
sg16
F0.545
sg17
Nsg18
Nsg19
Nsg20
F6e-06
sg21
F0.34035211461608245
sg22
F0.679
sg23
Nsg24
Nsg25
F-17.69
ssg26
I01
sba(iSong
Song
p2775
(dp2776
g3
(dp2777
g5
F0.901
sg6
VI Put A Spell On You
p2778
sg8
F174.183
sg9
F0.384
sg10
S'blues'
p2779
sg12
F0.0321
sg13
VJesse Cook
p2780
sg15
I9999
sg16
F0.43
sg17
Nsg18
Nsg19
Nsg20
F0.0481
sg21
F0.34035211461608245
sg22
F0.304
sg23
Nsg24
Nsg25
F-9.18
ssg26
I01
sba(iSong
Song
p2781
(dp2782
g3
(dp2783
g5
F0.157
sg6
VDon't You Lie To Me (I Get Evil) - 2002 - Remaster
p2784
sg8
F147.996
sg9
F0.829
sg10
S'blues'
p2785
sg12
F0.0792
sg13
VGary Moore
p2786
sg15
I9999
sg16
F0.598
sg17
Nsg18
Nsg19
Nsg20
F6.78e-06
sg21
F0.34035211461608245
sg22
F0.777
sg23
Nsg24
Nsg25
F-8.512
ssg26
I01
sba(iSong
Song
p2787
(dp2788
g3
(dp2789
g5
F0.315
sg6
VStanding At The Crossroads
p2790
sg8
F99.617
sg9
F0.765
sg10
S'blues'
p2791
sg12
F0.0331
sg13
VElmore James
p2792
sg15
I9999
sg16
F0.632
sg17
Nsg18
Nsg19
Nsg20
F0.000246
sg21
F0.34035211461608245
sg22
F0.95
sg23
Nsg24
Nsg25
F-4.577
ssg26
I01
sba(iSong
Song
p2793
(dp2794
g3
(dp2795
g5
F0.489
sg6
VEvil Is Going On
p2796
sg8
F93.715
sg9
F0.284
sg10
S'blues'
p2797
sg12
F0.0668
sg13
VJohn Hammond
p2798
sg15
I9999
sg16
F0.622
sg17
Nsg18
Nsg19
Nsg20
F0.0744
sg21
F0.34035211461608245
sg22
F0.671
sg23
Nsg24
Nsg25
F-13.661
ssg26
I01
sba(iSong
Song
p2799
(dp2800
g3
(dp2801
g5
F0.446
sg6
VSweet Love and Evil Women
p2802
sg8
F106.983
sg9
F0.715
sg10
S'blues'
p2803
sg12
F0.0482
sg13
VJohnny Winter
p2804
sg15
I9999
sg16
F0.597
sg17
Nsg18
Nsg19
Nsg20
F0.454
sg21
F0.34035211461608245
sg22
F0.772
sg23
Nsg24
Nsg25
F-13.671
ssg26
I01
sba(iSong
Song
p2805
(dp2806
g3
(dp2807
g5
F0.989
sg6
VCross And Evil Woman Blues
p2808
sg8
F146.461
sg9
F0.0976
sg10
S'blues'
p2809
sg12
F0.0611
sg13
VRev. Blind Gary Davis
p2810
sg15
I9999
sg16
F0.586
sg17
Nsg18
Nsg19
Nsg20
F0.0472
sg21
F0.34035211461608245
sg22
F0.841
sg23
Nsg24
Nsg25
F-17.64
ssg26
I01
sba(iSong
Song
p2811
(dp2812
g3
(dp2813
g5
F0.911
sg6
VEvil Hearted Woman - Alternate Take
p2814
sg8
F66.035
sg9
F0.254
sg10
S'blues'
p2815
sg12
F0.0639
sg13
VT-Bone Walker
p2816
sg15
I9999
sg16
F0.582
sg17
Nsg18
Nsg19
Nsg20
F0.0208
sg21
F0.34035211461608245
sg22
F0.551
sg23
Nsg24
Nsg25
F-11.638
ssg26
I01
sba(iSong
Song
p2817
(dp2818
g3
(dp2819
g5
F0.987
sg6
VEvil Blues
p2820
sg8
F199.428
sg9
F0.0757
sg10
S'blues'
p2821
sg12
F0.0478
sg13
VMelvin "Lil' Son" Jackson
p2822
sg15
I9999
sg16
F0.599
sg17
Nsg18
Nsg19
Nsg20
F0.00555
sg21
F0.34035211461608245
sg22
F0.641
sg23
Nsg24
Nsg25
F-12.798
ssg26
I01
sba(iSong
Song
p2823
(dp2824
g3
(dp2825
g5
F0.781
sg6
VMean and Evil
p2826
sg8
F95.759
sg9
F0.269
sg10
S'blues'
p2827
sg12
F0.0633
sg13
VElmore James
p2828
sg15
I9999
sg16
F0.738
sg17
Nsg18
Nsg19
Nsg20
F0.071
sg21
F0.34035211461608245
sg22
F0.679
sg23
Nsg24
Nsg25
F-14.266
ssg26
I01
sba(iSong
Song
p2829
(dp2830
g3
(dp2831
g5
F0.992
sg6
VBlue And Evil Blues - Remastered - 1997
p2832
sg8
F81.463
sg9
F0.165
sg10
S'blues'
p2833
sg12
F0.0488
sg13
VTampa Red
p2834
sg15
I9999
sg16
F0.593
sg17
Nsg18
Nsg19
Nsg20
F0.0374
sg21
F0.34035211461608245
sg22
F0.455
sg23
Nsg24
Nsg25
F-13.663
ssg26
I01
sba(iSong
Song
p2835
(dp2836
g3
(dp2837
g5
F0.986
sg6
VBlack And Evil Blues
p2838
sg8
F111.997
sg9
F0.0851
sg10
S'blues'
p2839
sg12
F0.0759
sg13
VJosh White
p2840
sg15
I9999
sg16
F0.731
sg17
Nsg18
Nsg19
Nsg20
F9.63e-05
sg21
F0.34035211461608245
sg22
F0.641
sg23
Nsg24
Nsg25
F-14.7
ssg26
I01
sba(iSong
Song
p2841
(dp2842
g3
(dp2843
g5
F0.746
sg6
VDevil Don't Want Me Blues
p2844
sg8
F86.472
sg9
F0.469
sg10
S'blues'
p2845
sg12
F0.0305
sg13
VTristan Omand
p2846
sg15
I9999
sg16
F0.583
sg17
Nsg18
Nsg19
Nsg20
F0.00322
sg21
F0.34035211461608245
sg22
F0.357
sg23
Nsg24
Nsg25
F-6.077
ssg26
I01
sba(iSong
Song
p2847
(dp2848
g3
(dp2849
g5
F0.0109
sg6
VShe's Got The Devil In Her
p2850
sg8
F119.141
sg9
F0.9
sg10
S'blues'
p2851
sg12
F0.095
sg13
VBuddy Guy
p2852
sg15
I9999
sg16
F0.441
sg17
Nsg18
Nsg19
Nsg20
F0.462
sg21
F0.34035211461608245
sg22
F0.465
sg23
Nsg24
Nsg25
F-4.03
ssg26
I01
sba(iSong
Song
p2853
(dp2854
g3
(dp2855
g5
F0.917
sg6
VPreachin' Blues (Up Jumped the Devil)
p2856
sg8
F138.415
sg9
F0.313
sg10
S'blues'
p2857
sg12
F0.0526
sg13
VRobert Johnson
p2858
sg15
I9999
sg16
F0.665
sg17
Nsg18
Nsg19
Nsg20
F0.0118
sg21
F0.34035211461608245
sg22
F0.531
sg23
Nsg24
Nsg25
F-15.188
ssg26
I01
sba(iSong
Song
p2859
(dp2860
g3
(dp2861
g5
F0.000119
sg6
VDevil In My Closet
p2862
sg8
F81.018
sg9
F0.495
sg10
S'blues'
p2863
sg12
F0.0344
sg13
VJohn Campbell
p2864
sg15
I9999
sg16
F0.353
sg17
Nsg18
Nsg19
Nsg20
F0.0119
sg21
F0.34035211461608245
sg22
F0.567
sg23
Nsg24
Nsg25
F-11.503
ssg26
I01
sba(iSong
Song
p2865
(dp2866
g3
(dp2867
g5
F0.718
sg6
VBlue Devil Jump
p2868
sg8
F107.014
sg9
F0.349
sg10
S'blues'
p2869
sg12
F0.0362
sg13
VJay McShann
p2870
sg15
I9999
sg16
F0.732
sg17
Nsg18
Nsg19
Nsg20
F0.245
sg21
F0.34035211461608245
sg22
F0.77
sg23
Nsg24
Nsg25
F-9.386
ssg26
I01
sba(iSong
Song
p2871
(dp2872
g3
(dp2873
g5
F0.927
sg6
VCrossroads
p2874
sg8
F92.399
sg9
F0.356
sg10
S'blues'
p2875
sg12
F0.0458
sg13
VDavid "Honeyboy" Edwards
p2876
sg15
I9999
sg16
F0.537
sg17
Nsg18
Nsg19
Nsg20
F0.0653
sg21
F0.34035211461608245
sg22
F0.312
sg23
Nsg24
Nsg25
F-8.6
ssg26
I01
sba(iSong
Song
p2877
(dp2878
g3
(dp2879
g5
F0.0959
sg6
VDon't Give The Devil No Ground
p2880
sg8
F107.106
sg9
F0.945
sg10
S'blues'
p2881
sg12
F0.048
sg13
VJames & Lucky Peterson
p2882
sg15
I9999
sg16
F0.662
sg17
Nsg18
Nsg19
Nsg20
F0.000886
sg21
F0.34035211461608245
sg22
F0.874
sg23
Nsg24
Nsg25
F-4.637
ssg26
I01
sba(iSong
Song
p2883
(dp2884
g3
(dp2885
g5
F0.597
sg6
VDealin' With the Devil
p2886
sg8
F82.434
sg9
F0.713
sg10
S'blues'
p2887
sg12
F0.114
sg13
VMuddy Waters
p2888
sg15
I9999
sg16
F0.365
sg17
Nsg18
Nsg19
Nsg20
F2.07e-05
sg21
F0.34035211461608245
sg22
F0.324
sg23
Nsg24
Nsg25
F-6.984
ssg26
I01
sba(iSong
Song
p2889
(dp2890
g3
(dp2891
g5
F0.0451
sg6
VWhen The Devil Starts Crying
p2892
sg8
F140.217
sg9
F0.799
sg10
S'blues'
p2893
sg12
F0.0459
sg13
VJohn Mayall & The Bluesbreakers
p2894
sg15
I9999
sg16
F0.481
sg17
Nsg18
Nsg19
Nsg20
F0.000438
sg21
F0.34035211461608245
sg22
F0.745
sg23
Nsg24
Nsg25
F-8.098
ssg26
I01
sba(iSong
Song
p2895
(dp2896
g3
(dp2897
g5
F0.942
sg6
VDevil's Dream
p2898
sg8
F104.854
sg9
F0.0971
sg10
S'blues'
p2899
sg12
F0.0528
sg13
VRev. Gary Davis
p2900
sg15
I9999
sg16
F0.578
sg17
Nsg18
Nsg19
Nsg20
F0.805
sg21
F0.34035211461608245
sg22
F0.699
sg23
Nsg24
Nsg25
F-23.47
ssg26
I01
sba(iSong
Song
p2901
(dp2902
g3
(dp2903
g5
F0.161
sg6
VShe Wasn't Nothin' But a Devil
p2904
sg8
F123.994
sg9
F0.831
sg10
S'blues'
p2905
sg12
F0.12
sg13
VJohn Lee Hooker, Jr.
p2906
sg15
I9999
sg16
F0.418
sg17
Nsg18
Nsg19
Nsg20
I0
sg21
F0.34035211461608245
sg22
F0.76
sg23
Nsg24
Nsg25
F-2.228
ssg26
I01
sba(iSong
Song
p2907
(dp2908
g3
(dp2909
g5
F0.841
sg6
VDevil Got My Woman
p2910
sg8
F76.374
sg9
F0.202
sg10
S'blues'
p2911
sg12
F0.0407
sg13
VSkip James
p2912
sg15
I9999
sg16
F0.597
sg17
Nsg18
Nsg19
Nsg20
F1.44e-06
sg21
F0.34035211461608245
sg22
F0.521
sg23
Nsg24
Nsg25
F-11.696
ssg26
I01
sba(iSong
Song
p2913
(dp2914
g3
(dp2915
g5
F0.966
sg6
VSay No to the Devil
p2916
sg8
F172.133
sg9
F0.201
sg10
S'blues'
p2917
sg12
F0.0495
sg13
VRev. Gary Davis
p2918
sg15
I9999
sg16
F0.559
sg17
Nsg18
Nsg19
Nsg20
F0.00496
sg21
F0.34035211461608245
sg22
F0.627
sg23
Nsg24
Nsg25
F-13.496
ssg26
I01
sba(iSong
Song
p2919
(dp2920
g3
(dp2921
g5
F0.471
sg6
VOld Devil Moon
p2922
sg8
F143.469
sg9
F0.714
sg10
S'blues'
p2923
sg12
F0.0307
sg13
VMickey Baker
p2924
sg15
I9999
sg16
F0.5
sg17
Nsg18
Nsg19
Nsg20
F0.531
sg21
F0.34035211461608245
sg22
F0.872
sg23
Nsg24
Nsg25
F-7.949
ssg26
I01
sba(iSong
Song
p2925
(dp2926
g3
(dp2927
g5
F0.865
sg6
VDevil Is Watching You
p2928
sg8
F110.468
sg9
F0.424
sg10
S'blues'
p2929
sg12
F0.041
sg13
VLightnin' Hopkins
p2930
sg15
I9999
sg16
F0.559
sg17
Nsg18
Nsg19
Nsg20
F0.00118
sg21
F0.34035211461608245
sg22
F0.385
sg23
Nsg24
Nsg25
F-9.119
ssg26
I01
sba(iSong
Song
p2931
(dp2932
g3
(dp2933
g5
F0.979
sg6
VBlue Devil Blues
p2934
sg8
F75.872
sg9
F0.0132
sg10
S'blues'
p2935
sg12
F0.086
sg13
VTexas Alexander
p2936
sg15
I9999
sg16
F0.541
sg17
Nsg18
Nsg19
Nsg20
F1.95e-05
sg21
F0.34035211461608245
sg22
F0.319
sg23
Nsg24
Nsg25
F-24.372
ssg26
I01
sba(iSong
Song
p2937
(dp2938
g3
(dp2939
g5
F0.0995
sg6
VShoot The Devil
p2940
sg8
F119.98
sg9
F0.72
sg10
S'blues'
p2941
sg12
F0.0357
sg13
VDavid Jacobs-Strain
p2942
sg15
I9999
sg16
F0.561
sg17
Nsg18
Nsg19
Nsg20
F7.83e-06
sg21
F0.34035211461608245
sg22
F0.472
sg23
Nsg24
Nsg25
F-3.877
ssg26
I01
sba(iSong
Song
p2943
(dp2944
g3
(dp2945
g5
F0.322
sg6
VCrossroads - Remastered Version
p2946
sg8
F136.373
sg9
F0.736
sg10
S'blues'
p2947
sg12
F0.0481
sg13
VRy Cooder
p2948
sg15
I9999
sg16
F0.632
sg17
Nsg18
Nsg19
Nsg20
I0
sg21
F0.34035211461608245
sg22
F0.744
sg23
Nsg24
Nsg25
F-13.945
ssg26
I01
sba(iSong
Song
p2949
(dp2950
g3
(dp2951
g5
F0.417
sg6
VShake Hands With The Devil
p2952
sg8
F113.607
sg9
F0.479
sg10
S'blues'
p2953
sg12
F0.0338
sg13
VKenny Parker
p2954
sg15
I9999
sg16
F0.472
sg17
Nsg18
Nsg19
Nsg20
F0.00519
sg21
F0.34035211461608245
sg22
F0.619
sg23
Nsg24
Nsg25
F-14.961
ssg26
I01
sba(iSong
Song
p2955
(dp2956
g3
(dp2957
g5
F0.868
sg6
VThe Devil With The Devil
p2958
sg8
F88.73
sg9
F0.2
sg10
S'blues'
p2959
sg12
F0.106
sg13
VThe Golden Gate Quartet
p2960
sg15
I9999
sg16
F0.419
sg17
Nsg18
Nsg19
Nsg20
F0.827
sg21
F0.34035211461608245
sg22
F0.48
sg23
Nsg24
Nsg25
F-19.053
ssg26
I01
sba(iSong
Song
p2961
(dp2962
g3
(dp2963
g5
F0.876
sg6
VGwine Dig A Hole To Put The Devil In (142-B-1)
p2964
sg8
F124.605
sg9
F0.916
sg10
S'blues'
p2965
sg12
F0.393
sg13
VLead Belly
p2966
sg15
I9999
sg16
F0.668
sg17
Nsg18
Nsg19
Nsg20
F0.00584
sg21
F0.34035211461608245
sg22
F0.671
sg23
Nsg24
Nsg25
F-8.105
ssg26
I01
sba(iSong
Song
p2967
(dp2968
g3
(dp2969
g5
F0.865
sg6
VDevil Got My Woman
p2970
sg8
F92.64
sg9
F0.265
sg10
S'blues'
p2971
sg12
F0.03
sg13
VPaul Geremia
p2972
sg15
I9999
sg16
F0.497
sg17
Nsg18
Nsg19
Nsg20
F0.000585
sg21
F0.34035211461608245
sg22
F0.474
sg23
Nsg24
Nsg25
F-14.094
ssg26
I01
sba(iSong
Song
p2973
(dp2974
g3
(dp2975
g5
F0.345
sg6
VCrossRoads
p2976
sg8
F142.874
sg9
F0.591
sg10
S'blues'
p2977
sg12
F0.0337
sg13
VElmore James
p2978
sg15
I9999
sg16
F0.358
sg17
Nsg18
Nsg19
Nsg20
F0.00251
sg21
F0.34035211461608245
sg22
F0.885
sg23
Nsg24
Nsg25
F-16.09
ssg26
I01
sba(iSong
Song
p2979
(dp2980
g3
(dp2981
g5
F0.984
sg6
VThe Devil Is A Busy Man
p2982
sg8
F69.407
sg9
F0.635
sg10
S'blues'
p2983
sg12
F0.558
sg13
VJ.B. Lenoir, Sunny Land Slim and Friends
p2984
sg15
I9999
sg16
F0.557
sg17
Nsg18
Nsg19
Nsg20
F0.0118
sg21
F0.34035211461608245
sg22
F0.586
sg23
Nsg24
Nsg25
F-7.187
ssg26
I01
sba(iSong
Song
p2985
(dp2986
g3
(dp2987
g5
F0.208
sg6
VCrossroads - Crossroad 2 Box/Set Version/Live Version
p2988
sg8
F92.742
sg9
F0.637
sg10
S'blues'
p2989
sg12
F0.0308
sg13
VEric Clapton
p2990
sg15
I9999
sg16
F0.542
sg17
Nsg18
Nsg19
Nsg20
F0.277
sg21
F0.34035211461608245
sg22
F0.835
sg23
Nsg24
Nsg25
F-13.799
ssg26
I01
sba(iSong
Song
p2991
(dp2992
g3
(dp2993
g5
F0.971
sg6
VDevil Sent The Rain Blues
p2994
sg8
F182.901
sg9
F0.166
sg10
S'blues'
p2995
sg12
F0.0406
sg13
VCharley Patton
p2996
sg15
I9999
sg16
F0.485
sg17
Nsg18
Nsg19
Nsg20
F0.813
sg21
F0.34035211461608245
sg22
F0.336
sg23
Nsg24
Nsg25
F-15.223
ssg26
I01
sba(iSong
Song
p2997
(dp2998
g3
(dp2999
g5
F0.951
sg6
VDealing With The Devil
p3000
sg8
F82.455
sg9
F0.272
sg10
S'blues'
p3001
sg12
F0.0524
sg13
VBrownie McGhee
p3002
sg15
I9999
sg16
F0.645
sg17
Nsg18
Nsg19
Nsg20
F0.00252
sg21
F0.34035211461608245
sg22
F0.903
sg23
Nsg24
Nsg25
F-15.623
ssg26
I01
sba(iSong
Song
p3003
(dp3004
g3
(dp3005
g5
F0.777
sg6
VCrossroads
p3006
sg8
F105.97
sg9
F0.255
sg10
S'blues'
p3007
sg12
F0.0399
sg13
VTracy Chapman
p3008
sg15
I9999
sg16
F0.787
sg17
Nsg18
Nsg19
Nsg20
F0.00959
sg21
F0.34035211461608245
sg22
F0.6
sg23
Nsg24
Nsg25
F-14.733
ssg26
I01
sba(iSong
Song
p3009
(dp3010
g3
(dp3011
g5
F0.686
sg6
VLady Weeping at the Crossroads
p3012
sg8
F78.874
sg9
F0.253
sg10
S'blues'
p3013
sg12
F0.0403
sg13
VCarla Bruni
p3014
sg15
I9999
sg16
F0.59
sg17
Nsg18
Nsg19
Nsg20
F1.59e-05
sg21
F0.34035211461608245
sg22
F0.139
sg23
Nsg24
Nsg25
F-13.488
ssg26
I01
sba(iSong
Song
p3015
(dp3016
g3
(dp3017
g5
F0.953
sg6
VHellhound On My Trail - Take 1-Complete Master Version/Remix
p3018
sg8
F65.824
sg9
F0.063
sg10
S'blues'
p3019
sg12
F0.039
sg13
VFleetwood Mac
p3020
sg15
I9999
sg16
F0.388
sg17
Nsg18
Nsg19
Nsg20
F0.00851
sg21
F0.34035211461608245
sg22
F0.286
sg23
Nsg24
Nsg25
F-16.075
ssg26
I01
sba(iSong
Song
p3021
(dp3022
g3
(dp3023
g5
F0.261
sg6
VBoom Boom
p3024
sg8
F155.734
sg9
F0.388
sg10
S'blues'
p3025
sg12
F0.247
sg13
VJohn Lee Hooker
p3026
sg15
I9999
sg16
F0.632
sg17
Nsg18
Nsg19
Nsg20
F0.00688
sg21
F0.34035211461608245
sg22
F0.825
sg23
Nsg24
Nsg25
F-12.883
ssg26
I01
sba(iSong
Song
p3027
(dp3028
g3
(dp3029
g5
F0.0406
sg6
VMustang Sally
p3030
sg8
F107.273
sg9
F0.934
sg10
S'blues'
p3031
sg12
F0.0342
sg13
VBuddy Guy
p3032
sg15
I9999
sg16
F0.613
sg17
Nsg18
Nsg19
Nsg20
F0.000313
sg21
F0.34035211461608245
sg22
F0.776
sg23
Nsg24
Nsg25
F-3.711
ssg26
I01
sba(iSong
Song
p3033
(dp3034
g3
(dp3035
g5
F0.262
sg6
VMilkcow's Calf Blues
p3036
sg8
F168.974
sg9
F0.758
sg10
S'blues'
p3037
sg12
F0.0286
sg13
VEric Clapton
p3038
sg15
I9999
sg16
F0.458
sg17
Nsg18
Nsg19
Nsg20
F0.000504
sg21
F0.34035211461608245
sg22
F0.784
sg23
Nsg24
Nsg25
F-6.193
ssg26
I01
sba(iSong
Song
p3039
(dp3040
g3
(dp3041
g5
F0.561
sg6
VWorld's In A Tangle
p3042
sg8
F103.435
sg9
F0.369
sg10
S'blues'
p3043
sg12
F0.0536
sg13
VFleetwood Mac
p3044
sg15
I9999
sg16
F0.521
sg17
Nsg18
Nsg19
Nsg20
F0.0772
sg21
F0.34035211461608245
sg22
F0.536
sg23
Nsg24
Nsg25
F-13.773
ssg26
I01
sba(iSong
Song
p3045
(dp3046
g3
(dp3047
g5
F0.704
sg6
VHound Dog
p3048
sg8
F133.313
sg9
F0.542
sg10
S'blues'
p3049
sg12
F0.0977
sg13
VBig Mama Thornton
p3050
sg15
I9999
sg16
F0.552
sg17
Nsg18
Nsg19
Nsg20
F3.59e-05
sg21
F0.34035211461608245
sg22
F0.784
sg23
Nsg24
Nsg25
F-10.862
ssg26
I01
sba(iSong
Song
p3051
(dp3052
g3
(dp3053
g5
F0.142
sg6
VPut The Pot On
p3054
sg8
F119.35
sg9
F0.616
sg10
S'blues'
p3055
sg12
F0.0448
sg13
VKoko Taylor
p3056
sg15
I9999
sg16
F0.64
sg17
Nsg18
Nsg19
Nsg20
F3e-05
sg21
F0.34035211461608245
sg22
F0.844
sg23
Nsg24
Nsg25
F-10.442
ssg26
I01
sba(iSong
Song
p3057
(dp3058
g3
(dp3059
g5
F0.468
sg6
VI Just Want To Make Love To You
p3060
sg8
F80.892
sg9
F0.347
sg10
S'blues'
p3061
sg12
F0.0503
sg13
VMuddy Waters
p3062
sg15
I9999
sg16
F0.565
sg17
Nsg18
Nsg19
Nsg20
F5.73e-06
sg21
F0.34035211461608245
sg22
F0.238
sg23
Nsg24
Nsg25
F-9.398
ssg26
I01
sba(iSong
Song
p3063
(dp3064
g3
(dp3065
g5
F0.951
sg6
VMy Babe - Single Version
p3066
sg8
F159.544
sg9
F0.403
sg10
S'blues'
p3067
sg12
F0.0434
sg13
VLittle Walter
p3068
sg15
I9999
sg16
F0.606
sg17
Nsg18
Nsg19
Nsg20
I0
sg21
F0.34035211461608245
sg22
F0.844
sg23
Nsg24
Nsg25
F-8.497
ssg26
I01
sba(iSong
Song
p3069
(dp3070
g3
(dp3071
g5
F0.701
sg6
VShake Your Money Maker
p3072
sg8
F101.382
sg9
F0.659
sg10
S'blues'
p3073
sg12
F0.0416
sg13
VElmore James
p3074
sg15
I9999
sg16
F0.502
sg17
Nsg18
Nsg19
Nsg20
F0.000225
sg21
F0.34035211461608245
sg22
F0.841
sg23
Nsg24
Nsg25
F-7.473
ssg26
I01
sba(iSong
Song
p3075
(dp3076
g3
(dp3077
g5
F0.575
sg6
VThe Hunter
p3078
sg8
F133.711
sg9
F0.287
sg10
S'blues'
p3079
sg12
F0.0352
sg13
VAlbert King
p3080
sg15
I9999
sg16
F0.8
sg17
Nsg18
Nsg19
Nsg20
F0.000768
sg21
F0.34035211461608245
sg22
F0.748
sg23
Nsg24
Nsg25
F-17.513
ssg26
I01
sba(iSong
Song
p3081
(dp3082
g3
(dp3083
g5
F0.266
sg6
VTen Long Years
p3084
sg8
F97.767
sg9
F0.551
sg10
S'blues'
p3085
sg12
F0.0261
sg13
VEric Clapton
p3086
sg15
I9999
sg16
F0.678
sg17
Nsg18
Nsg19
Nsg20
F0.00322
sg21
F0.34035211461608245
sg22
F0.767
sg23
Nsg24
Nsg25
F-7.332
ssg26
I01
sba(iSong
Song
p3087
(dp3088
g3
(dp3089
g5
F0.15
sg6
VThird Degree
p3090
sg8
F201.459
sg9
F0.571
sg10
S'blues'
p3091
sg12
F0.0414
sg13
VJohnny Winter
p3092
sg15
I9999
sg16
F0.257
sg17
Nsg18
Nsg19
Nsg20
F0.0207
sg21
F0.34035211461608245
sg22
F0.832
sg23
Nsg24
Nsg25
F-12.183
ssg26
I01
sba(iSong
Song
p3093
(dp3094
g3
(dp3095
g5
F0.44
sg6
VMannish Boy
p3096
sg8
F111.129
sg9
F0.735
sg10
S'blues'
p3097
sg12
F0.0973
sg13
VMuddy Waters
p3098
sg15
I9999
sg16
F0.598
sg17
Nsg18
Nsg19
Nsg20
F0.000215
sg21
F0.34035211461608245
sg22
F0.615
sg23
Nsg24
Nsg25
F-10.882
ssg26
I01
sba(iSong
Song
p3099
(dp3100
g3
(dp3101
g5
F0.76
sg6
VDriftin' Blues
p3102
sg8
F171.497
sg9
F0.453
sg10
S'blues'
p3103
sg12
F0.0466
sg13
VBobby "Blue" Bland
p3104
sg15
I9999
sg16
F0.437
sg17
Nsg18
Nsg19
Nsg20
F2.07e-06
sg21
F0.34035211461608245
sg22
F0.456
sg23
Nsg24
Nsg25
F-6.799
ssg26
I01
sba(iSong
Song
p3105
(dp3106
g3
(dp3107
g5
F0.934
sg6
VEmpty Arms
p3108
sg8
F140.446
sg9
F0.447
sg10
S'blues'
p3109
sg12
F0.0501
sg13
VEddie Boyd
p3110
sg15
I9999
sg16
F0.705
sg17
Nsg18
Nsg19
Nsg20
F0.172
sg21
F0.34035211461608245
sg22
F0.547
sg23
Nsg24
Nsg25
F-11.327
ssg26
I01
sba(iSong
Song
p3111
(dp3112
g3
(dp3113
g5
F0.639
sg6
VAvailable Space
p3114
sg8
F147.388
sg9
F0.434
sg10
S'blues'
p3115
sg12
F0.0379
sg13
VRy Cooder
p3116
sg15
I9999
sg16
F0.568
sg17
Nsg18
Nsg19
Nsg20
F0.626
sg21
F0.34035211461608245
sg22
F0.694
sg23
Nsg24
Nsg25
F-14.17
ssg26
I01
sba(iSong
Song
p3117
(dp3118
g3
(dp3119
g5
F0.458
sg6
VAm I Wrong
p3120
sg8
F112.65
sg9
F0.476
sg10
S'blues'
p3121
sg12
F0.0528
sg13
VKeb' Mo'
p3122
sg15
I9999
sg16
F0.882
sg17
Nsg18
Nsg19
Nsg20
F2.47e-06
sg21
F0.34035211461608245
sg22
F0.964
sg23
Nsg24
Nsg25
F-9.235
ssg26
I01
sba(iSong
Song
p3123
(dp3124
g3
(dp3125
g5
F0.109
sg6
VOne Scotch, One Bourbon, One Beer - Bonus track
p3126
sg8
F175.706
sg9
F0.668
sg10
S'blues'
p3127
sg12
F0.0538
sg13
VChampion Jack Dupree
p3128
sg15
I9999
sg16
F0.431
sg17
Nsg18
Nsg19
Nsg20
F0.000157
sg21
F0.34035211461608245
sg22
F0.901
sg23
Nsg24
Nsg25
F-7.694
ssg26
I01
sba(iSong
Song
p3129
(dp3130
g3
(dp3131
g5
F0.00614
sg6
VBad To The Bone
p3132
sg8
F149.229
sg9
F0.727
sg10
S'blues'
p3133
sg12
F0.0303
sg13
VGeorge Thorogood & The Destroyers
p3134
sg15
I9999
sg16
F0.459
sg17
Nsg18
Nsg19
Nsg20
F0.065
sg21
F0.34035211461608245
sg22
F0.954
sg23
Nsg24
Nsg25
F-11.777
ssg26
I01
sba(iSong
Song
p3135
(dp3136
g3
(dp3137
g5
F0.0984
sg6
VSnatch It Back And Hold It
p3138
sg8
F136.713
sg9
F0.408
sg10
S'blues'
p3139
sg12
F0.167
sg13
VJunior Wells
p3140
sg15
I9999
sg16
F0.765
sg17
Nsg18
Nsg19
Nsg20
I0
sg21
F0.34035211461608245
sg22
F0.891
sg23
Nsg24
Nsg25
F-13.079
ssg26
I01
sba(iSong
Song
p3141
(dp3142
g3
(dp3143
g5
F0.544
sg6
VMadison Blues
p3144
sg8
F116.592
sg9
F0.813
sg10
S'blues'
p3145
sg12
F0.148
sg13
VFleetwood Mac
p3146
sg15
I9999
sg16
F0.453
sg17
Nsg18
Nsg19
Nsg20
F0.0222
sg21
F0.34035211461608245
sg22
F0.517
sg23
Nsg24
Nsg25
F-9.449
ssg26
I01
sba(iSong
Song
p3147
(dp3148
g3
(dp3149
g5
F0.0459
sg6
VGoing Down - 2000 - Remastered
p3150
sg8
F167.652
sg9
F0.669
sg10
S'blues'
p3151
sg12
F0.0311
sg13
VFreddie King
p3152
sg15
I9999
sg16
F0.555
sg17
Nsg18
Nsg19
Nsg20
F0.000521
sg21
F0.34035211461608245
sg22
F0.691
sg23
Nsg24
Nsg25
F-7.46
ssg26
I01
sba(iSong
Song
p3153
(dp3154
g3
(dp3155
g5
F0.33
sg6
VWalking The Backstreets And Crying
p3156
sg8
F123.252
sg9
F0.256
sg10
S'blues'
p3157
sg12
F0.0622
sg13
VLittle Milton
p3158
sg15
I9999
sg16
F0.724
sg17
Nsg18
Nsg19
Nsg20
F0.00181
sg21
F0.34035211461608245
sg22
F0.442
sg23
Nsg24
Nsg25
F-15.776
ssg26
I01
sba(iSong
Song
p3159
(dp3160
g3
(dp3161
g5
F0.705
sg6
VGood Morning Little School Girl
p3162
sg8
F87.627
sg9
F0.306
sg10
S'blues'
p3163
sg12
F0.0652
sg13
VMuddy Waters
p3164
sg15
I9999
sg16
F0.767
sg17
Nsg18
Nsg19
Nsg20
F0.00545
sg21
F0.34035211461608245
sg22
F0.56
sg23
Nsg24
Nsg25
F-14.7
ssg26
I01
sba(iSong
Song
p3165
(dp3166
g3
(dp3167
g5
F0.68
sg6
VIt Hurt So Bad
p3168
sg8
F207.934
sg9
F0.518
sg10
S'blues'
p3169
sg12
F0.0949
sg13
VSusan Tedeschi
p3170
sg15
I9999
sg16
F0.354
sg17
Nsg18
Nsg19
Nsg20
F3.46e-05
sg21
F0.34035211461608245
sg22
F0.528
sg23
Nsg24
Nsg25
F-6.122
ssg26
I01
sba(iSong
Song
p3171
(dp3172
g3
(dp3173
g5
F0.707
sg6
VMean Old Frisco Blues
p3174
sg8
F107.712
sg9
F0.757
sg10
S'blues'
p3175
sg12
F0.0267
sg13
VMuddy Waters
p3176
sg15
I9999
sg16
F0.686
sg17
Nsg18
Nsg19
Nsg20
F0.000153
sg21
F0.34035211461608245
sg22
F0.896
sg23
Nsg24
Nsg25
F-7.337
ssg26
I01
sba(iSong
Song
p3177
(dp3178
g3
(dp3179
g5
F0.0114
sg6
VSo Many Roads
p3180
sg8
F146.458
sg9
F0.756
sg10
S'blues'
p3181
sg12
F0.039
sg13
VJoe Bonamassa
p3182
sg15
I9999
sg16
F0.29
sg17
Nsg18
Nsg19
Nsg20
F0.148
sg21
F0.34035211461608245
sg22
F0.546
sg23
Nsg24
Nsg25
F-5.408
ssg26
I01
sba(iSong
Song
p3183
(dp3184
g3
(dp3185
g5
F0.285
sg6
VHolding You Up For Love
p3186
sg8
F97.47
sg9
F0.727
sg10
S'blues'
p3187
sg12
F0.0264
sg13
VOtis Grand
p3188
sg15
I9999
sg16
F0.554
sg17
Nsg18
Nsg19
Nsg20
F7.79e-06
sg21
F0.34035211461608245
sg22
F0.582
sg23
Nsg24
Nsg25
F-8.132
ssg26
I01
sba(iSong
Song
p3189
(dp3190
g3
(dp3191
g5
F0.687
sg6
VAll The Way
p3192
sg8
F171.841
sg9
F0.398
sg10
S'blues'
p3193
sg12
F0.0607
sg13
VThe Robert Cray Band
p3194
sg15
I9999
sg16
F0.563
sg17
Nsg18
Nsg19
Nsg20
F0.00246
sg21
F0.34035211461608245
sg22
F0.364
sg23
Nsg24
Nsg25
F-12.848
ssg26
I01
sba(iSong
Song
p3195
(dp3196
g3
(dp3197
g5
F0.795
sg6
VNine Below Zero - 1961 Single Version
p3198
sg8
F98.552
sg9
F0.535
sg10
S'blues'
p3199
sg12
F0.0351
sg13
VSonny Boy Williamson II
p3200
sg15
I9999
sg16
F0.56
sg17
Nsg18
Nsg19
Nsg20
F0.00184
sg21
F0.34035211461608245
sg22
F0.677
sg23
Nsg24
Nsg25
F-4.882
ssg26
I01
sba(iSong
Song
p3201
(dp3202
g3
(dp3203
g5
F0.0792
sg6
VBlues for Mrs. Pauline / Leave My Boy Alown
p3204
sg8
F173.715
sg9
F0.752
sg10
S'blues'
p3205
sg12
F0.1
sg13
VAna Popovic
p3206
sg15
I9999
sg16
F0.364
sg17
Nsg18
Nsg19
Nsg20
F1.57e-05
sg21
F0.34035211461608245
sg22
F0.636
sg23
Nsg24
Nsg25
F-5.623
ssg26
I01
sba(iSong
Song
p3207
(dp3208
g3
(dp3209
g5
F0.0496
sg6
VTime Has Come
p3210
sg8
F96.112
sg9
F0.564
sg10
S'blues'
p3211
sg12
F0.0337
sg13
VJoanne Shaw Taylor
p3212
sg15
I9999
sg16
F0.569
sg17
Nsg18
Nsg19
Nsg20
F0.0138
sg21
F0.34035211461608245
sg22
F0.526
sg23
Nsg24
Nsg25
F-7.34
ssg26
I01
sba(iSong
Song
p3213
(dp3214
g3
(dp3215
g5
F0.0377
sg6
VFarther On Up the Road - 2012 Remastered Version
p3216
sg8
F115.201
sg9
F0.918
sg10
S'blues'
p3217
sg12
F0.173
sg13
VRobin Trower
p3218
sg15
I9999
sg16
F0.469
sg17
Nsg18
Nsg19
Nsg20
F0.000392
sg21
F0.34035211461608245
sg22
F0.77
sg23
Nsg24
Nsg25
F-6.584
ssg26
I01
sba(iSong
Song
p3219
(dp3220
g3
(dp3221
g5
F0.011
sg6
VSittin On Top Of The World
p3222
sg8
F163.264
sg9
F0.924
sg10
S'blues'
p3223
sg12
F0.0561
sg13
VWalter Trout
p3224
sg15
I9999
sg16
F0.167
sg17
Nsg18
Nsg19
Nsg20
F0.0593
sg21
F0.34035211461608245
sg22
F0.555
sg23
Nsg24
Nsg25
F-5.868
ssg26
I01
sba(iSong
Song
p3225
(dp3226
g3
(dp3227
g5
F0.561
sg6
VLie To Me
p3228
sg8
F112.378
sg9
F0.684
sg10
S'blues'
p3229
sg12
F0.043
sg13
VJonny Lang
p3230
sg15
I9999
sg16
F0.615
sg17
Nsg18
Nsg19
Nsg20
F0.000492
sg21
F0.34035211461608245
sg22
F0.894
sg23
Nsg24
Nsg25
F-8.679
ssg26
I01
sba(iSong
Song
p3231
(dp3232
g3
(dp3233
g5
F0.13
sg6
VBlues I Believe to My Soul
p3234
sg8
F148.957
sg9
F0.612
sg10
S'blues'
p3235
sg12
F0.0572
sg13
VHumble Pie
p3236
sg15
I9999
sg16
F0.328
sg17
Nsg18
Nsg19
Nsg20
F0.000599
sg21
F0.34035211461608245
sg22
F0.433
sg23
Nsg24
Nsg25
F-8.43
ssg26
I01
sba(iSong
Song
p3237
(dp3238
g3
(dp3239
g5
F0.978
sg6
VGood Morning, Little Schoolgirl
p3240
sg8
F92.311
sg9
F0.137
sg10
S'blues'
p3241
sg12
F0.117
sg13
VSonny Boy Williamson II
p3242
sg15
I9999
sg16
F0.577
sg17
Nsg18
Nsg19
Nsg20
F0.0134
sg21
F0.34035211461608245
sg22
F0.823
sg23
Nsg24
Nsg25
F-18.111
ssg26
I01
sba(iSong
Song
p3243
(dp3244
g3
(dp3245
g5
F0.818
sg6
VKokomo Blues
p3246
sg8
F107.45
sg9
F0.247
sg10
S'blues'
p3247
sg12
F0.0385
sg13
VMississippi Fred McDowell
p3248
sg15
I9999
sg16
F0.554
sg17
Nsg18
Nsg19
Nsg20
F8.38e-06
sg21
F0.34035211461608245
sg22
F0.466
sg23
Nsg24
Nsg25
F-15.957
ssg26
I01
sba(iSong
Song
p3249
(dp3250
g3
(dp3251
g5
F0.511
sg6
VThe Man Who Hated Mornings
p3252
sg8
F63.955
sg9
F0.578
sg10
S'blues'
p3253
sg12
F0.0372
sg13
VMichael Chapman
p3254
sg15
I9999
sg16
F0.514
sg17
Nsg18
Nsg19
Nsg20
F0.0533
sg21
F0.34035211461608245
sg22
F0.492
sg23
Nsg24
Nsg25
F-8.608
ssg26
I01
sba(iSong
Song
p3255
(dp3256
g3
(dp3257
g5
F0.0671
sg6
VI Ain't Superstitious (feat. Eric Clapton)
p3258
sg8
F96.417
sg9
F0.853
sg10
S'blues'
p3259
sg12
F0.0346
sg13
VHowlin' Wolf
p3260
sg15
I9999
sg16
F0.59
sg17
Nsg18
Nsg19
Nsg20
F0.000204
sg21
F0.34035211461608245
sg22
F0.806
sg23
Nsg24
Nsg25
F-7.781
ssg26
I01
sba(iSong
Song
p3261
(dp3262
g3
(dp3263
g5
F0.0472
sg6
VSmokestack Lightnin'
p3264
sg8
F185.47
sg9
F0.657
sg10
S'blues'
p3265
sg12
F0.0639
sg13
VThe Groundhogs
p3266
sg15
I9999
sg16
F0.388
sg17
Nsg18
Nsg19
Nsg20
F0.00198
sg21
F0.34035211461608245
sg22
F0.905
sg23
Nsg24
Nsg25
F-10.176
ssg26
I01
sba(iSong
Song
p3267
(dp3268
g3
(dp3269
g5
F0.0995
sg6
VSince I've Been Loving You - "In Concert" Live Version From BBC Sessions
p3270
sg8
F128.437
sg9
F0.67
sg10
S'blues'
p3271
sg12
F0.0545
sg13
VLed Zeppelin
p3272
sg15
I9999
sg16
F0.376
sg17
Nsg18
Nsg19
Nsg20
F0.00831
sg21
F0.34035211461608245
sg22
F0.348
sg23
Nsg24
Nsg25
F-7.874
ssg26
I01
sba(iSong
Song
p3273
(dp3274
g3
(dp3275
g5
F0.118
sg6
VHideaway
p3276
sg8
F122.666
sg9
F0.71
sg10
S'blues'
p3277
sg12
F0.065
sg13
VFreddie King
p3278
sg15
I9999
sg16
F0.658
sg17
Nsg18
Nsg19
Nsg20
F0.862
sg21
F0.34035211461608245
sg22
F0.899
sg23
Nsg24
Nsg25
F-11.493
ssg26
I01
sba(iSong
Song
p3279
(dp3280
g3
(dp3281
g5
F0.888
sg6
VHow Many More Years
p3282
sg8
F109.829
sg9
F0.444
sg10
S'blues'
p3283
sg12
F0.136
sg13
VHowlin' Wolf
p3284
sg15
I9999
sg16
F0.677
sg17
Nsg18
Nsg19
Nsg20
F0.00821
sg21
F0.34035211461608245
sg22
F0.53
sg23
Nsg24
Nsg25
F-17.602
ssg26
I01
sba(iSong
Song
p3285
(dp3286
g3
(dp3287
g5
F0.354
sg6
VI'm Ready - 2000 Digital Remaster
p3288
sg8
F132.231
sg9
F0.716
sg10
S'blues'
p3289
sg12
F0.0933
sg13
VFreddie King
p3290
sg15
I9999
sg16
F0.466
sg17
Nsg18
Nsg19
Nsg20
F0.000125
sg21
F0.34035211461608245
sg22
F0.859
sg23
Nsg24
Nsg25
F-7.251
ssg26
I01
sba(iSong
Song
p3291
(dp3292
g3
(dp3293
g5
F0.0226
sg6
VThe Sky Is Crying
p3294
sg8
F178.191
sg9
F0.611
sg10
S'blues'
p3295
sg12
F0.0348
sg13
VElmore James
p3296
sg15
I9999
sg16
F0.294
sg17
Nsg18
Nsg19
Nsg20
F0.435
sg21
F0.34035211461608245
sg22
F0.567
sg23
Nsg24
Nsg25
F-6.268
ssg26
I01
sba(iSong
Song
p3297
(dp3298
g3
(dp3299
g5
F0.824
sg6
VAlabama Blues
p3300
sg8
F97.446
sg9
F0.308
sg10
S'blues'
p3301
sg12
F0.0348
sg13
VJ.B. Lenoir
p3302
sg15
I9999
sg16
F0.675
sg17
Nsg18
Nsg19
Nsg20
F3.75e-05
sg21
F0.34035211461608245
sg22
F0.69
sg23
Nsg24
Nsg25
F-8.081
ssg26
I01
sba(iSong
Song
p3303
(dp3304
g3
(dp3305
g5
F0.67
sg6
VI'm Your Hoochie Coochie Man
p3306
sg8
F113.948
sg9
F0.588
sg10
S'blues'
p3307
sg12
F0.0665
sg13
VMuddy Waters
p3308
sg15
I9999
sg16
F0.542
sg17
Nsg18
Nsg19
Nsg20
F0.158
sg21
F0.34035211461608245
sg22
F0.881
sg23
Nsg24
Nsg25
F-9.268
ssg26
I01
sba(iSong
Song
p3309
(dp3310
g3
(dp3311
g5
F0.943
sg6
VTake It Easy Baby
p3312
sg8
F161.678
sg9
F0.254
sg10
S'blues'
p3313
sg12
F0.0485
sg13
VPinetop Perkins
p3314
sg15
I9999
sg16
F0.575
sg17
Nsg18
Nsg19
Nsg20
F2.34e-05
sg21
F0.34035211461608245
sg22
F0.526
sg23
Nsg24
Nsg25
F-13.192
ssg26
I01
sba(iSong
Song
p3315
(dp3316
g3
(dp3317
g5
F0.944
sg6
VSomeday (Electric)
p3318
sg8
F94.197
sg9
F0.333
sg10
S'blues'
p3319
sg12
F0.032
sg13
VOtis Spann
p3320
sg15
I9999
sg16
F0.581
sg17
Nsg18
Nsg19
Nsg20
F0.472
sg21
F0.34035211461608245
sg22
F0.488
sg23
Nsg24
Nsg25
F-14.209
ssg26
I01
sba(iSong
Song
p3321
(dp3322
g3
(dp3323
g5
F0.0876
sg6
VInto the Blues
p3324
sg8
F120.055
sg9
F0.544
sg10
S'blues'
p3325
sg12
F0.0393
sg13
VJoan Armatrading
p3326
sg15
I9999
sg16
F0.77
sg17
Nsg18
Nsg19
Nsg20
F0.00375
sg21
F0.34035211461608245
sg22
F0.506
sg23
Nsg24
Nsg25
F-6.474
ssg26
I01
sba(iSong
Song
p3327
(dp3328
g3
(dp3329
g5
F0.0589
sg6
VAlone In The Dark
p3330
sg8
F98.09
sg9
F0.388
sg10
S'blues'
p3331
sg12
F0.0317
sg13
VJohn Hiatt
p3332
sg15
I9999
sg16
F0.611
sg17
Nsg18
Nsg19
Nsg20
F0.000581
sg21
F0.34035211461608245
sg22
F0.656
sg23
Nsg24
Nsg25
F-10.985
ssg26
I01
sba(iSong
Song
p3333
(dp3334
g3
(dp3335
g5
F0.0535
sg6
VGet Lost
p3336
sg8
F124.197
sg9
F0.781
sg10
S'blues'
p3337
sg12
F0.0862
sg13
VAl King
p3338
sg15
I9999
sg16
F0.347
sg17
Nsg18
Nsg19
Nsg20
F7.74e-06
sg21
F0.34035211461608245
sg22
F0.736
sg23
Nsg24
Nsg25
F-8.18
ssg26
I01
sba(iSong
Song
p3339
(dp3340
g3
(dp3341
g5
F0.393
sg6
VBo Diddley
p3342
sg8
F105.473
sg9
F0.753
sg10
S'blues'
p3343
sg12
F0.0572
sg13
VBo Diddley
p3344
sg15
I9999
sg16
F0.826
sg17
Nsg18
Nsg19
Nsg20
I0
sg21
F0.34035211461608245
sg22
F0.48
sg23
Nsg24
Nsg25
F-8.223
ssg26
I01
sba(iSong
Song
p3345
(dp3346
g3
(dp3347
g5
F0.964
sg6
VCoffee Blues
p3348
sg8
F104.233
sg9
F0.0785
sg10
S'blues'
p3349
sg12
F0.0503
sg13
VMississippi John Hurt
p3350
sg15
I9999
sg16
F0.61
sg17
Nsg18
Nsg19
Nsg20
F0.00014
sg21
F0.34035211461608245
sg22
F0.763
sg23
Nsg24
Nsg25
F-20.543
ssg26
I01
sba(iSong
Song
p3351
(dp3352
g3
(dp3353
g5
F0.44
sg6
VMannish Boy
p3354
sg8
F111.129
sg9
F0.735
sg10
S'blues'
p3355
sg12
F0.0973
sg13
VMuddy Waters
p3356
sg15
I9999
sg16
F0.598
sg17
Nsg18
Nsg19
Nsg20
F0.000215
sg21
F0.34035211461608245
sg22
F0.615
sg23
Nsg24
Nsg25
F-10.882
ssg26
I01
sba(iSong
Song
p3357
(dp3358
g3
(dp3359
g5
F0.799
sg6
VSmokestack Lightnin'
p3360
sg8
F146.138
sg9
F0.502
sg10
S'blues'
p3361
sg12
F0.0401
sg13
VHowlin' Wolf
p3362
sg15
I9999
sg16
F0.683
sg17
Nsg18
Nsg19
Nsg20
F0.000116
sg21
F0.34035211461608245
sg22
F0.5
sg23
Nsg24
Nsg25
F-8.83
ssg26
I01
sba(iSong
Song
p3363
(dp3364
g3
(dp3365
g5
F0.651
sg6
VTwo Bugs And A Roach
p3366
sg8
F135.275
sg9
F0.568
sg10
S'blues'
p3367
sg12
F0.0752
sg13
VEarl Hooker
p3368
sg15
I9999
sg16
F0.541
sg17
Nsg18
Nsg19
Nsg20
F0.00563
sg21
F0.34035211461608245
sg22
F0.815
sg23
Nsg24
Nsg25
F-12.584
ssg26
I01
sba(iSong
Song
p3369
(dp3370
g3
(dp3371
g5
F0.369
sg6
VWang Dang Doodle - Single Version
p3372
sg8
F152.775
sg9
F0.561
sg10
S'blues'
p3373
sg12
F0.199
sg13
VKoko Taylor
p3374
sg15
I9999
sg16
F0.655
sg17
Nsg18
Nsg19
Nsg20
F5.04e-06
sg21
F0.34035211461608245
sg22
F0.659
sg23
Nsg24
Nsg25
F-8.86
ssg26
I01
sba(iSong
Song
p3375
(dp3376
g3
(dp3377
g5
F0.442
sg6
VHoodoo Man Blues
p3378
sg8
F103.924
sg9
F0.324
sg10
S'blues'
p3379
sg12
F0.332
sg13
VJunior Wells
p3380
sg15
I9999
sg16
F0.708
sg17
Nsg18
Nsg19
Nsg20
F0.000147
sg21
F0.34035211461608245
sg22
F0.638
sg23
Nsg24
Nsg25
F-13.247
ssg26
I01
sba(iSong
Song
p3381
(dp3382
g3
(dp3383
g5
F0.97
sg6
VI Can't Quit You Baby
p3384
sg8
F86.952
sg9
F0.596
sg10
S'blues'
p3385
sg12
F0.0395
sg13
VOtis Rush
p3386
sg15
I9999
sg16
F0.492
sg17
Nsg18
Nsg19
Nsg20
F0.043
sg21
F0.34035211461608245
sg22
F0.548
sg23
Nsg24
Nsg25
F-4.038
ssg26
I01
sba(iSong
Song
p3387
(dp3388
g3
(dp3389
g5
F0.843
sg6
VAll Your Love
p3390
sg8
F80.623
sg9
F0.7
sg10
S'blues'
p3391
sg12
F0.163
sg13
VMagic Sam
p3392
sg15
I9999
sg16
F0.433
sg17
Nsg18
Nsg19
Nsg20
F0.324
sg21
F0.34035211461608245
sg22
F0.8
sg23
Nsg24
Nsg25
F-8.197
ssg26
I01
sba(iSong
Song
p3393
(dp3394
g3
(dp3395
g5
F0.554
sg6
VThe Little Red Rooster
p3396
sg8
F122.589
sg9
F0.29
sg10
S'blues'
p3397
sg12
F0.0374
sg13
VWillie Dixon
p3398
sg15
I9999
sg16
F0.477
sg17
Nsg18
Nsg19
Nsg20
F0.178
sg21
F0.34035211461608245
sg22
F0.727
sg23
Nsg24
Nsg25
F-18.066
ssg26
I01
sba(iSong
Song
p3399
(dp3400
g3
(dp3401
g5
F0.978
sg6
VLast Night - Single Version
p3402
sg8
F104.135
sg9
F0.406
sg10
S'blues'
p3403
sg12
F0.0518
sg13
VLittle Walter
p3404
sg15
I9999
sg16
F0.711
sg17
Nsg18
Nsg19
Nsg20
F0.000997
sg21
F0.34035211461608245
sg22
F0.484
sg23
Nsg24
Nsg25
F-10.748
ssg26
I01
sba(iSong
Song
p3405
(dp3406
g3
(dp3407
g5
F0.67
sg6
VI'm Your Hoochie Coochie Man
p3408
sg8
F113.948
sg9
F0.588
sg10
S'blues'
p3409
sg12
F0.0665
sg13
VMuddy Waters
p3410
sg15
I9999
sg16
F0.542
sg17
Nsg18
Nsg19
Nsg20
F0.158
sg21
F0.34035211461608245
sg22
F0.881
sg23
Nsg24
Nsg25
F-9.268
ssg26
I01
sba(iSong
Song
p3411
(dp3412
g3
(dp3413
g5
F0.787
sg6
VFirst Time I Met The Blues
p3414
sg8
F102.282
sg9
F0.818
sg10
S'blues'
p3415
sg12
F0.0455
sg13
VBuddy Guy
p3416
sg15
I9999
sg16
F0.414
sg17
Nsg18
Nsg19
Nsg20
F0.00303
sg21
F0.34035211461608245
sg22
F0.743
sg23
Nsg24
Nsg25
F-5.958
ssg26
I01
sba(iSong
Song
p3417
(dp3418
g3
(dp3419
g5
F0.644
sg6
VThat's All Right - Single Version
p3420
sg8
F75.68
sg9
F0.247
sg10
S'blues'
p3421
sg12
F0.0414
sg13
VJimmy Rogers
p3422
sg15
I9999
sg16
F0.481
sg17
Nsg18
Nsg19
Nsg20
F2.81e-05
sg21
F0.34035211461608245
sg22
F0.567
sg23
Nsg24
Nsg25
F-13.337
ssg26
I01
sba(iSong
Song
p3423
(dp3424
g3
(dp3425
g5
F0.0226
sg6
VThe Sky Is Crying
p3426
sg8
F178.191
sg9
F0.611
sg10
S'blues'
p3427
sg12
F0.0348
sg13
VElmore James
p3428
sg15
I9999
sg16
F0.294
sg17
Nsg18
Nsg19
Nsg20
F0.435
sg21
F0.34035211461608245
sg22
F0.567
sg23
Nsg24
Nsg25
F-6.268
ssg26
I01
sba(iSong
Song
p3429
(dp3430
g3
(dp3431
g5
F0.687
sg6
VBack Door Man
p3432
sg8
F157.814
sg9
F0.701
sg10
S'blues'
p3433
sg12
F0.094
sg13
VHowlin' Wolf
p3434
sg15
I9999
sg16
F0.562
sg17
Nsg18
Nsg19
Nsg20
F1.43e-05
sg21
F0.34035211461608245
sg22
F0.876
sg23
Nsg24
Nsg25
F-8.061
ssg26
I01
sba(iSong
Song
p3435
(dp3436
g3
(dp3437
g5
F0.885
sg6
VDark Road
p3438
sg8
F69.562
sg9
F0.513
sg10
S'blues'
p3439
sg12
F0.034
sg13
VEddie Taylor
p3440
sg15
I9999
sg16
F0.617
sg17
Nsg18
Nsg19
Nsg20
F0.00108
sg21
F0.34035211461608245
sg22
F0.626
sg23
Nsg24
Nsg25
F-12.884
ssg26
I01
sba(iSong
Song
p3441
(dp3442
g3
(dp3443
g5
F0.284
sg6
VI'm A Man - Single Version
p3444
sg8
F127.497
sg9
F0.54
sg10
S'blues'
p3445
sg12
F0.0462
sg13
VBo Diddley
p3446
sg15
I9999
sg16
F0.617
sg17
Nsg18
Nsg19
Nsg20
I0
sg21
F0.34035211461608245
sg22
F0.86
sg23
Nsg24
Nsg25
F-13.494
ssg26
I01
sba(iSong
Song
p3447
(dp3448
g3
(dp3449
g5
F0.944
sg6
VSomeday (Electric)
p3450
sg8
F94.197
sg9
F0.333
sg10
S'blues'
p3451
sg12
F0.032
sg13
VOtis Spann
p3452
sg15
I9999
sg16
F0.581
sg17
Nsg18
Nsg19
Nsg20
F0.472
sg21
F0.34035211461608245
sg22
F0.488
sg23
Nsg24
Nsg25
F-14.209
ssg26
I01
sba(iSong
Song
p3453
(dp3454
g3
(dp3455
g5
F0.113
sg6
VRock Me Baby
p3456
sg8
F106.102
sg9
F0.697
sg10
S'blues'
p3457
sg12
F0.045
sg13
VMighty Joe Young
p3458
sg15
I9999
sg16
F0.581
sg17
Nsg18
Nsg19
Nsg20
F0.000924
sg21
F0.34035211461608245
sg22
F0.906
sg23
Nsg24
Nsg25
F-8.239
ssg26
I01
sba(iSong
Song
p3459
(dp3460
g3
(dp3461
g5
F0.886
sg6
VMy Babe - Single Version
p3462
sg8
F157.887
sg9
F0.333
sg10
S'blues'
p3463
sg12
F0.0524
sg13
VLittle Walter
p3464
sg15
I9999
sg16
F0.684
sg17
Nsg18
Nsg19
Nsg20
I0
sg21
F0.34035211461608245
sg22
F0.833
sg23
Nsg24
Nsg25
F-10.487
ssg26
I01
sba(iSong
Song
p3465
(dp3466
g3
(dp3467
g5
F0.561
sg6
VMadison Blues
p3468
sg8
F135.613
sg9
F0.844
sg10
S'blues'
p3469
sg12
F0.0432
sg13
VElmore James
p3470
sg15
I9999
sg16
F0.496
sg17
Nsg18
Nsg19
Nsg20
F0.193
sg21
F0.34035211461608245
sg22
F0.822
sg23
Nsg24
Nsg25
F-6.281
ssg26
I01
sba.