(lp0
(iSong
Song
p1
(dp2
S'attributes'
p3
(dp4
S'accousticness'
p5
F0.463
sS'title'
p6
VBody Like A Back Road
p7
sS'tempo'
p8
F0.395852
sS'energy'
p9
F0.469
sS'from_playlist'
p10
S'country'
p11
sS'speechiness'
p12
F0.0326
sS'artist_name'
p13
VSam Hunt
p14
sS'cluster_id'
p15
I9999
sS'danceability'
p16
F0.731
sS'end_of_fade_in'
p17
NsS'loudness'
p18
F0.8795666666666667
sS'duration'
p19
NsS'artist_familiarity'
p20
NsS'rec_value'
p21
F0.14162428583396786
sS'valence'
p22
F0.631
sS'start_of_fade_out'
p23
NsS'artist_hotness'
p24
NsS'instrumentalness'
p25
F1.04e-06
ssS'isNormalized'
p26
I01
sS'hasData'
p27
I01
sba(iSong
Song
p28
(dp29
g3
(dp30
g5
F0.0356
sg6
VI Know Somebody
p31
sg8
F0.35594400000000004
sg9
F0.903
sg10
S'country'
p32
sg12
F0.037
sg13
VLOCASH
p33
sg15
I9999
sg16
F0.505
sg17
Nsg18
F0.93835
sg19
Nsg20
Nsg21
F0.14162428583396786
sg22
F0.491
sg23
Nsg24
Nsg25
I0
ssg26
I01
sg27
I01
sba(iSong
Song
p34
(dp35
g3
(dp36
g5
F0.27
sg6
VBlack
p37
sg8
F0.480148
sg9
F0.656
sg10
S'country'
p38
sg12
F0.0413
sg13
VDierks Bentley
p39
sg15
I9999
sg16
F0.663
sg17
Nsg18
F0.8908666666666666
sg19
Nsg20
Nsg21
F0.14162428583396786
sg22
F0.56
sg23
Nsg24
Nsg25
F0.000279
ssg26
I01
sg27
I01
sba(iSong
Song
p40
(dp41
g3
(dp42
g5
F0.0169
sg6
VSleep Without You
p43
sg8
F0.354196
sg9
F0.716
sg10
S'country'
p44
sg12
F0.043
sg13
VBrett Young
p45
sg15
I9999
sg16
F0.632
sg17
Nsg18
F0.9053833333333333
sg19
Nsg20
Nsg21
F0.14162428583396786
sg22
F0.655
sg23
Nsg24
Nsg25
I0
ssg26
I01
sg27
I01
sba(iSong
Song
p46
(dp47
g3
(dp48
g5
F0.083
sg6
VIt Don't Hurt Like It Used To
p49
sg8
F0.6479239999999999
sg9
F0.824
sg10
S'country'
p50
sg12
F0.0524
sg13
VBilly Currington
p51
sg15
I9999
sg16
F0.503
sg17
Nsg18
F0.9326833333333333
sg19
Nsg20
Nsg21
F0.14162428583396786
sg22
F0.448
sg23
Nsg24
Nsg25
I0
ssg26
I01
sg27
I01
sba(iSong
Song
p52
(dp53
g3
(dp54
g5
F0.0406
sg6
VMay We All
p55
sg8
F0.300076
sg9
F0.915
sg10
S'country'
p56
sg12
F0.0389
sg13
VFlorida Georgia Line
p57
sg15
I9999
sg16
F0.488
sg17
Nsg18
F0.9290833333333333
sg19
Nsg20
Nsg21
F0.14162428583396786
sg22
F0.646
sg23
Nsg24
Nsg25
I0
ssg26
I01
sg27
I01
sba(iSong
Song
p58
(dp59
g3
(dp60
g5
F0.00566
sg6
VClose
p61
sg8
F0.320072
sg9
F0.86
sg10
S'country'
p62
sg12
F0.0347
sg13
VRyan Kinder
p63
sg15
I9999
sg16
F0.479
sg17
Nsg18
F0.9280333333333334
sg19
Nsg20
Nsg21
F0.14162428583396786
sg22
F0.743
sg23
Nsg24
Nsg25
I0
ssg26
I01
sg27
I01
sba(iSong
Song
p64
(dp65
g3
(dp66
g5
F0.247
sg6
VNight's On Fire
p67
sg8
F0.656116
sg9
F0.779
sg10
S'country'
p68
sg12
F0.0432
sg13
VDavid Nail
p69
sg15
I9999
sg16
F0.539
sg17
Nsg18
F0.9310166666666666
sg19
Nsg20
Nsg21
F0.14162428583396786
sg22
F0.705
sg23
Nsg24
Nsg25
F2.71e-06
ssg26
I01
sg27
I01
sba(iSong
Song
p70
(dp71
g3
(dp72
g5
F0.144
sg6
VAll On Me
p73
sg8
F0.323984
sg9
F0.658
sg10
S'country'
p74
sg12
F0.0281
sg13
VDevin Dawson
p75
sg15
I9999
sg16
F0.631
sg17
Nsg18
F0.91145
sg19
Nsg20
Nsg21
F0.14162428583396786
sg22
F0.7
sg23
Nsg24
Nsg25
I0
ssg26
I01
sg27
I01
sba(iSong
Song
p76
(dp77
g3
(dp78
g5
F0.0555
sg6
VCool With That
p79
sg8
F0.608352
sg9
F0.829
sg10
S'country'
p80
sg12
F0.0458
sg13
VBrett Kissel
p81
sg15
I9999
sg16
F0.433
sg17
Nsg18
F0.9210666666666667
sg19
Nsg20
Nsg21
F0.14162428583396786
sg22
F0.501
sg23
Nsg24
Nsg25
I0
ssg26
I01
sg27
I01
sba(iSong
Song
p82
(dp83
g3
(dp84
g5
F0.0158
sg6
VA Guy With a Girl
p85
sg8
F0.655792
sg9
F0.893
sg10
S'country'
p86
sg12
F0.0383
sg13
VBlake Shelton
p87
sg15
I9999
sg16
F0.552
sg17
Nsg18
F0.92345
sg19
Nsg20
Nsg21
F0.14162428583396786
sg22
F0.777
sg23
Nsg24
Nsg25
I0
ssg26
I01
sg27
I01
sba(iSong
Song
p88
(dp89
g3
(dp90
g5
F0.0165
sg6
VKill A Word
p91
sg8
F0.34006000000000003
sg9
F0.73
sg10
S'country'
p92
sg12
F0.0378
sg13
VEric Church
p93
sg15
I9999
sg16
F0.653
sg17
Nsg18
F0.8663666666666666
sg19
Nsg20
Nsg21
F0.14162428583396786
sg22
F0.615
sg23
Nsg24
Nsg25
F1.4e-06
ssg26
I01
sg27
I01
sba(iSong
Song
p94
(dp95
g3
(dp96
g5
F0.14
sg6
VStar Of The Show
p97
sg8
F0.407952
sg9
F0.624
sg10
S'country'
p98
sg12
F0.027
sg13
VThomas Rhett
p99
sg15
I9999
sg16
F0.691
sg17
Nsg18
F0.9021
sg19
Nsg20
Nsg21
F0.14162428583396786
sg22
F0.662
sg23
Nsg24
Nsg25
I0
ssg26
I01
sg27
I01
sba(iSong
Song
p100
(dp101
g3
(dp102
g5
F0.00898
sg6
VWhat Ifs
p103
sg8
F0.503904
sg9
F0.799
sg10
S'country'
p104
sg12
F0.0275
sg13
VKane Brown
p105
sg15
I9999
sg16
F0.612
sg17
Nsg18
F0.9232833333333333
sg19
Nsg20
Nsg21
F0.14162428583396786
sg22
F0.687
sg23
Nsg24
Nsg25
I0
ssg26
I01
sg27
I01
sba(iSong
Song
p106
(dp107
g3
(dp108
g5
F0.00525
sg6
VSomethin' We Shouldn't Do
p109
sg8
F0.488168
sg9
F0.784
sg10
S'country'
p110
sg12
F0.0411
sg13
VChad Brownlee
p111
sg15
I9999
sg16
F0.462
sg17
Nsg18
F0.8959666666666667
sg19
Nsg20
Nsg21
F0.14162428583396786
sg22
F0.418
sg23
Nsg24
Nsg25
F6.9e-05
ssg26
I01
sg27
I01
sba(iSong
Song
p112
(dp113
g3
(dp114
g5
F0.0692
sg6
VThat's When You Know
p115
sg8
F0.591524
sg9
F0.809
sg10
S'country'
p116
sg12
F0.044
sg13
VChris Buck Band
p117
sg15
I9999
sg16
F0.523
sg17
Nsg18
F0.87905
sg19
Nsg20
Nsg21
F0.14162428583396786
sg22
F0.663
sg23
Nsg24
Nsg25
I0
ssg26
I01
sg27
I01
sba(iSong
Song
p118
(dp119
g3
(dp120
g5
F0.164
sg6
VChills
p121
sg8
F0.46417200000000003
sg9
F0.788
sg10
S'country'
p122
sg12
F0.0437
sg13
VJames Barker Band
p123
sg15
I9999
sg16
F0.658
sg17
Nsg18
F0.9009333333333333
sg19
Nsg20
Nsg21
F0.14162428583396786
sg22
F0.468
sg23
Nsg24
Nsg25
I0
ssg26
I01
sg27
I01
sba(iSong
Song
p124
(dp125
g3
(dp126
g5
F0.00424
sg6
VLonely Drum
p127
sg8
F0.45194799999999996
sg9
F0.684
sg10
S'country'
p128
sg12
F0.0292
sg13
VAaron Goodvin
p129
sg15
I9999
sg16
F0.855
sg17
Nsg18
F0.8974166666666666
sg19
Nsg20
Nsg21
F0.14162428583396786
sg22
F0.839
sg23
Nsg24
Nsg25
F0.000312
ssg26
I01
sg27
I01
sba(iSong
Song
p130
(dp131
g3
(dp132
g5
F0.0153
sg6
VHurricane
p133
sg8
F0.3039
sg9
F0.813
sg10
S'country'
p134
sg12
F0.0416
sg13
VLuke Combs
p135
sg15
I9999
sg16
F0.464
sg17
Nsg18
F0.8969166666666666
sg19
Nsg20
Nsg21
F0.14162428583396786
sg22
F0.516
sg23
Nsg24
Nsg25
I0
ssg26
I01
sg27
I01
sba(iSong
Song
p136
(dp137
g3
(dp138
g5
F0.0266
sg6
VMind Reader
p139
sg8
F0.648212
sg9
F0.8
sg10
S'country'
p140
sg12
F0.0413
sg13
VDustin Lynch
p141
sg15
I9999
sg16
F0.394
sg17
Nsg18
F0.9305
sg19
Nsg20
Nsg21
F0.14162428583396786
sg22
F0.525
sg23
Nsg24
Nsg25
I0
ssg26
I01
sg27
I01
sba(iSong
Song
p142
(dp143
g3
(dp144
g5
F0.124
sg6
VThink A Little Less
p145
sg8
F0.567868
sg9
F0.805
sg10
S'country'
p146
sg12
F0.0289
sg13
VMichael Ray
p147
sg15
I9999
sg16
F0.521
sg17
Nsg18
F0.9253166666666667
sg19
Nsg20
Nsg21
F0.14162428583396786
sg22
F0.527
sg23
Nsg24
Nsg25
F0.000219
ssg26
I01
sg27
I01
sba(iSong
Song
p148
(dp149
g3
(dp150
g5
F0.328
sg6
VSky Stays This Blue
p151
sg8
F0.46778800000000004
sg9
F0.827
sg10
S'country'
p152
sg12
F0.0471
sg13
VDallas Smith
p153
sg15
I9999
sg16
F0.593
sg17
Nsg18
F0.9263166666666667
sg19
Nsg20
Nsg21
F0.14162428583396786
sg22
F0.505
sg23
Nsg24
Nsg25
I0
ssg26
I01
sg27
I01
sba(iSong
Song
p154
(dp155
g3
(dp156
g5
F0.125
sg6
VSong for Another Time
p157
sg8
F0.664192
sg9
F0.805
sg10
S'country'
p158
sg12
F0.0332
sg13
VOld Dominion
p159
sg15
I9999
sg16
F0.497
sg17
Nsg18
F0.9334166666666667
sg19
Nsg20
Nsg21
F0.14162428583396786
sg22
F0.696
sg23
Nsg24
Nsg25
I0
ssg26
I01
sg27
I01
sba(iSong
Song
p160
(dp161
g3
(dp162
g5
F0.0943
sg6
VJust Got Paid
p163
sg8
F0.687568
sg9
F0.782
sg10
S'country'
p164
sg12
F0.0523
sg13
VEmerson Drive
p165
sg15
I9999
sg16
F0.608
sg17
Nsg18
F0.90335
sg19
Nsg20
Nsg21
F0.14162428583396786
sg22
F0.681
sg23
Nsg24
Nsg25
I0
ssg26
I01
sg27
I01
sba(iSong
Song
p166
(dp167
g3
(dp168
g5
F0.01
sg6
VMore Girls Like You
p169
sg8
F0.5998479999999999
sg9
F0.743
sg10
S'country'
p170
sg12
F0.0368
sg13
VKip Moore
p171
sg15
I9999
sg16
F0.553
sg17
Nsg18
F0.9086166666666667
sg19
Nsg20
Nsg21
F0.14162428583396786
sg22
F0.564
sg23
Nsg24
Nsg25
I0
ssg26
I01
sg27
I01
sba(iSong
Song
p172
(dp173
g3
(dp174
g5
F0.0677
sg6
VLosing Sleep
p175
sg8
F0.368012
sg9
F0.628
sg10
S'country'
p176
sg12
F0.0431
sg13
VChris Young
p177
sg15
I9999
sg16
F0.587
sg17
Nsg18
F0.9049499999999999
sg19
Nsg20
Nsg21
F0.14162428583396786
sg22
F0.649
sg23
Nsg24
Nsg25
F1.88e-06
ssg26
I01
sg27
I01
sba(iSong
Song
p178
(dp179
g3
(dp180
g5
F0.0114
sg6
VWasn't That Drunk (W/ Carly Pearce) [Act 2]
p181
sg8
F0.45595600000000003
sg9
F0.906
sg10
S'country'
p182
sg12
F0.0504
sg13
VJosh Abbott Band
p183
sg15
I9999
sg16
F0.561
sg17
Nsg18
F0.9142166666666667
sg19
Nsg20
Nsg21
F0.14162428583396786
sg22
F0.431
sg23
Nsg24
Nsg25
F1.43e-06
ssg26
I01
sg27
I01
sba(iSong
Song
p184
(dp185
g3
(dp186
g5
F0.0972
sg6
VMiddle of a Memory
p187
sg8
F0.5591520000000001
sg9
F0.746
sg10
S'country'
p188
sg12
F0.0329
sg13
VCole Swindell
p189
sg15
I9999
sg16
F0.531
sg17
Nsg18
F0.9295333333333333
sg19
Nsg20
Nsg21
F0.14162428583396786
sg22
F0.304
sg23
Nsg24
Nsg25
I0
ssg26
I01
sg27
I01
sba(iSong
Song
p190
(dp191
g3
(dp192
g5
F0.168
sg6
VMake You Miss Me
p193
sg8
F0.5841040000000001
sg9
F0.468
sg10
S'country'
p194
sg12
F0.0314
sg13
VSam Hunt
p195
sg15
I9999
sg16
F0.612
sg17
Nsg18
F0.89005
sg19
Nsg20
Nsg21
F0.14162428583396786
sg22
F0.165
sg23
Nsg24
Nsg25
I0
ssg26
I01
sg27
I01
sba(iSong
Song
p196
(dp197
g3
(dp198
g5
F0.0385
sg6
VHomemade
p199
sg8
F0.655824
sg9
F0.94
sg10
S'country'
p200
sg12
F0.0514
sg13
VCold Creek County
p201
sg15
I9999
sg16
F0.436
sg17
Nsg18
F0.9332499999999999
sg19
Nsg20
Nsg21
F0.14162428583396786
sg22
F0.594
sg23
Nsg24
Nsg25
I0
ssg26
I01
sg27
I01
sba(iSong
Song
p202
(dp203
g3
(dp204
g5
F0.0472
sg6
VSingles You Up
p205
sg8
F0.40032
sg9
F0.903
sg10
S'country'
p206
sg12
F0.0323
sg13
VJordan Davis
p207
sg15
I9999
sg16
F0.635
sg17
Nsg18
F0.9402
sg19
Nsg20
Nsg21
F0.14162428583396786
sg22
F0.559
sg23
Nsg24
Nsg25
I0
ssg26
I01
sg27
I01
sba(iSong
Song
p208
(dp209
g3
(dp210
g5
F0.302
sg6
VSpeakers, Bleachers And Preachers
p211
sg8
F0.38408
sg9
F0.625
sg10
S'country'
p212
sg12
F0.0258
sg13
VBrandon Lay
p213
sg15
I9999
sg16
F0.603
sg17
Nsg18
F0.8906166666666666
sg19
Nsg20
Nsg21
F0.14162428583396786
sg22
F0.651
sg23
Nsg24
Nsg25
I0
ssg26
I01
sg27
I01
sba(iSong
Song
p214
(dp215
g3
(dp216
g5
F0.0179
sg6
VDear Life
p217
sg8
F0.508104
sg9
F0.88
sg10
S'country'
p218
sg12
F0.0425
sg13
VHigh Valley
p219
sg15
I9999
sg16
F0.554
sg17
Nsg18
F0.8939
sg19
Nsg20
Nsg21
F0.14162428583396786
sg22
F0.448
sg23
Nsg24
Nsg25
I0
ssg26
I01
sg27
I01
sba(iSong
Song
p220
(dp221
g3
(dp222
g5
F0.0204
sg6
VBeautiful Freakshow
p223
sg8
F0.532052
sg9
F0.677
sg10
S'country'
p224
sg12
F0.0543
sg13
VDean Brody
p225
sg15
I9999
sg16
F0.589
sg17
Nsg18
F0.8881166666666667
sg19
Nsg20
Nsg21
F0.14162428583396786
sg22
F0.235
sg23
Nsg24
Nsg25
F4.55e-05
ssg26
I01
sg27
I01
sba(iSong
Song
p226
(dp227
g3
(dp228
g5
F0.00926
sg6
VYours If You Want It
p229
sg8
F0.45226799999999995
sg9
F0.909
sg10
S'country'
p230
sg12
F0.0557
sg13
VRascal Flatts
p231
sg15
I9999
sg16
F0.548
sg17
Nsg18
F0.9483333333333334
sg19
Nsg20
Nsg21
F0.14162428583396786
sg22
F0.413
sg23
Nsg24
Nsg25
I0
ssg26
I01
sg27
I01
sba(iSong
Song
p232
(dp233
g3
(dp234
g5
F0.0536
sg6
VWoke up Like This
p235
sg8
F0.623776
sg9
F0.776
sg10
S'country'
p236
sg12
F0.0484
sg13
VRiver Town Saints
p237
sg15
I9999
sg16
F0.507
sg17
Nsg18
F0.9272833333333333
sg19
Nsg20
Nsg21
F0.14162428583396786
sg22
F0.77
sg23
Nsg24
Nsg25
I0
ssg26
I01
sg27
I01
sba(iSong
Song
p238
(dp239
g3
(dp240
g5
F0.0498
sg6
VJust Sayin'
p241
sg8
F0.423748
sg9
F0.827
sg10
S'country'
p242
sg12
F0.035
sg13
VJames Barker Band
p243
sg15
I9999
sg16
F0.655
sg17
Nsg18
F0.9183833333333333
sg19
Nsg20
Nsg21
F0.14162428583396786
sg22
F0.928
sg23
Nsg24
Nsg25
I0
ssg26
I01
sg27
I01
sba(iSong
Song
p244
(dp245
g3
(dp246
g5
F0.0362
sg6
VHooked
p247
sg8
F0.528216
sg9
F0.721
sg10
S'country'
p248
sg12
F0.0356
sg13
VDylan Scott
p249
sg15
I9999
sg16
F0.597
sg17
Nsg18
F0.8929666666666667
sg19
Nsg20
Nsg21
F0.14162428583396786
sg22
F0.437
sg23
Nsg24
Nsg25
I0
ssg26
I01
sg27
I01
sba(iSong
Song
p250
(dp251
g3
(dp252
g5
F0.0033
sg6
VSide Effects
p253
sg8
F0.440408
sg9
F0.855
sg10
S'country'
p254
sg12
F0.0374
sg13
VDallas Smith
p255
sg15
I9999
sg16
F0.622
sg17
Nsg18
F0.9349666666666666
sg19
Nsg20
Nsg21
F0.14162428583396786
sg22
F0.702
sg23
Nsg24
Nsg25
F1.29e-06
ssg26
I01
sg27
I01
sba(iSong
Song
p256
(dp257
g3
(dp258
g5
F0.231
sg6
VYeah Boy
p259
sg8
F0.35586
sg9
F0.809
sg10
S'country'
p260
sg12
F0.0376
sg13
VKelsea Ballerini
p261
sg15
I9999
sg16
F0.589
sg17
Nsg18
F0.9117999999999999
sg19
Nsg20
Nsg21
F0.14162428583396786
sg22
F0.496
sg23
Nsg24
Nsg25
I0
ssg26
I01
sg27
I01
sba(iSong
Song
p262
(dp263
g3
(dp264
g5
F0.0494
sg6
VSomethin' I'm Good At
p265
sg8
F0.412036
sg9
F0.94
sg10
S'country'
p266
sg12
F0.114
sg13
VBrett Eldredge
p267
sg15
I9999
sg16
F0.562
sg17
Nsg18
F0.9277166666666666
sg19
Nsg20
Nsg21
F0.14162428583396786
sg22
F0.456
sg23
Nsg24
Nsg25
I0
ssg26
I01
sg27
I01
sba(iSong
Song
p268
(dp269
g3
(dp270
g5
F0.00139
sg6
VSlide Over
p271
sg8
F0.688036
sg9
F0.933
sg10
S'country'
p272
sg12
F0.0553
sg13
VTim Hicks
p273
sg15
I9999
sg16
F0.394
sg17
Nsg18
F0.9387000000000001
sg19
Nsg20
Nsg21
F0.14162428583396786
sg22
F0.471
sg23
Nsg24
Nsg25
F1.5e-05
ssg26
I01
sg27
I01
sba(iSong
Song
p274
(dp275
g3
(dp276
g5
F0.000179
sg6
VHometown Kids
p277
sg8
F0.431744
sg9
F0.79
sg10
S'country'
p278
sg12
F0.0339
sg13
VThe Reklaws
p279
sg15
I9999
sg16
F0.58
sg17
Nsg18
F0.8991166666666667
sg19
Nsg20
Nsg21
F0.14162428583396786
sg22
F0.795
sg23
Nsg24
Nsg25
I0
ssg26
I01
sg27
I01
sba(iSong
Song
p280
(dp281
g3
(dp282
g5
F0.333
sg6
VGod, Your Mama, And Me
p283
sg8
F0.6721280000000001
sg9
F0.802
sg10
S'country'
p284
sg12
F0.054
sg13
VFlorida Georgia Line
p285
sg15
I9999
sg16
F0.439
sg17
Nsg18
F0.9392666666666667
sg19
Nsg20
Nsg21
F0.14162428583396786
sg22
F0.725
sg23
Nsg24
Nsg25
I0
ssg26
I01
sg27
I01
sba(iSong
Song
p286
(dp287
g3
(dp288
g5
F0.000907
sg6
VCraving You
p289
sg8
F0.41994400000000004
sg9
F0.841
sg10
S'country'
p290
sg12
F0.0353
sg13
VThomas Rhett
p291
sg15
I9999
sg16
F0.612
sg17
Nsg18
F0.93675
sg19
Nsg20
Nsg21
F0.14162428583396786
sg22
F0.499
sg23
Nsg24
Nsg25
I0
ssg26
I01
sg27
I01
sba(iSong
Song
p292
(dp293
g3
(dp294
g5
F0.0887
sg6
VStill That Way
p295
sg8
F0.30770400000000003
sg9
F0.854
sg10
S'country'
p296
sg12
F0.036
sg13
VCold Creek County
p297
sg15
I9999
sg16
F0.399
sg17
Nsg18
F0.9137166666666666
sg19
Nsg20
Nsg21
F0.14162428583396786
sg22
F0.431
sg23
Nsg24
Nsg25
I0
ssg26
I01
sg27
I01
sba(iSong
Song
p298
(dp299
g3
(dp300
g5
F0.00926
sg6
VAll She Wrote
p301
sg8
F0.444152
sg9
F0.959
sg10
S'country'
p302
sg12
F0.0462
sg13
VPetric
p303
sg15
I9999
sg16
F0.641
sg17
Nsg18
F0.9385666666666667
sg19
Nsg20
Nsg21
F0.14162428583396786
sg22
F0.623
sg23
Nsg24
Nsg25
F0.0026
ssg26
I01
sg27
I01
sba(iSong
Song
p304
(dp305
g3
(dp306
g5
F0.593
sg6
VWritten in the Sand
p307
sg8
F0.33594
sg9
F0.437
sg10
S'country'
p308
sg12
F0.0575
sg13
VOld Dominion
p309
sg15
I9999
sg16
F0.725
sg17
Nsg18
F0.8399666666666666
sg19
Nsg20
Nsg21
F0.14162428583396786
sg22
F0.759
sg23
Nsg24
Nsg25
I0
ssg26
I01
sg27
I01
sba(iSong
Song
p310
(dp311
g3
(dp312
g5
F0.047
sg6
VMeant to Be (feat. Florida Georgia Line)
p313
sg8
F0.616336
sg9
F0.783
sg10
S'country'
p314
sg12
F0.0856
sg13
VBebe Rexha
p315
sg15
I9999
sg16
F0.643
sg17
Nsg18
F0.8923666666666666
sg19
Nsg20
Nsg21
F0.14162428583396786
sg22
F0.579
sg23
Nsg24
Nsg25
I0
ssg26
I01
sg27
I01
sba(iSong
Song
p316
(dp317
g3
(dp318
g5
F0.0063
sg6
VFor The First Time
p319
sg8
F0.568396
sg9
F0.765
sg10
S'country'
p320
sg12
F0.0393
sg13
VDarius Rucker
p321
sg15
I9999
sg16
F0.548
sg17
Nsg18
F0.9117166666666667
sg19
Nsg20
Nsg21
F0.14162428583396786
sg22
F0.744
sg23
Nsg24
Nsg25
I0
ssg26
I01
sg27
I01
sba(iSong
Song
p322
(dp323
g3
(dp324
g5
F0.445
sg6
VDifferent For Girls
p325
sg8
F0.3679
sg9
F0.785
sg10
S'country'
p326
sg12
F0.0369
sg13
VDierks Bentley
p327
sg15
I9999
sg16
F0.661
sg17
Nsg18
F0.9062833333333333
sg19
Nsg20
Nsg21
F0.14162428583396786
sg22
F0.371
sg23
Nsg24
Nsg25
F0.000266
ssg26
I01
sg27
I01
sba(iSong
Song
p328
(dp329
g3
(dp330
g5
F0.294
sg6
VRescue
p331
sg8
F0.36038
sg9
F0.791
sg10
S'country'
p332
sg12
F0.0378
sg13
VHunter Hayes
p333
sg15
I9999
sg16
F0.52
sg17
Nsg18
F0.9416833333333333
sg19
Nsg20
Nsg21
F0.14162428583396786
sg22
F0.29
sg23
Nsg24
Nsg25
I0
ssg26
I01
sg27
I01
sba(iSong
Song
p334
(dp335
g3
(dp336
g5
F0.0251
sg6
VSmall Town Boy
p337
sg8
F0.291988
sg9
F0.743
sg10
S'country'
p338
sg12
F0.0287
sg13
VDustin Lynch
p339
sg15
I9999
sg16
F0.554
sg17
Nsg18
F0.8997333333333334
sg19
Nsg20
Nsg21
F0.14162428583396786
sg22
F0.673
sg23
Nsg24
Nsg25
I0
ssg26
I01
sg27
I01
sba(iSong
Song
p340
(dp341
g3
(dp342
g5
F0.0451
sg6
VHell If I Know
p343
sg8
F0.40005599999999997
sg9
F0.831
sg10
S'country'
p344
sg12
F0.0434
sg13
VChase Bryant
p345
sg15
I9999
sg16
F0.618
sg17
Nsg18
F0.9001666666666667
sg19
Nsg20
Nsg21
F0.14162428583396786
sg22
F0.627
sg23
Nsg24
Nsg25
I0
ssg26
I01
sg27
I01
sba(iSong
Song
p346
(dp347
g3
(dp348
g5
F0.334
sg6
VHold You Back
p349
sg8
F0.535868
sg9
F0.629
sg10
S'country'
p350
sg12
F0.0321
sg13
VRyan Hurd
p351
sg15
I9999
sg16
F0.594
sg17
Nsg18
F0.8870666666666668
sg19
Nsg20
Nsg21
F0.14162428583396786
sg22
F0.645
sg23
Nsg24
Nsg25
I0
ssg26
I01
sg27
I01
sba(iSong
Song
p352
(dp353
g3
(dp354
g5
F0.0074
sg6
VI Be U Be
p355
sg8
F0.50414
sg9
F0.746
sg10
S'country'
p356
sg12
F0.0335
sg13
VHigh Valley
p357
sg15
I9999
sg16
F0.442
sg17
Nsg18
F0.9019499999999999
sg19
Nsg20
Nsg21
F0.14162428583396786
sg22
F0.414
sg23
Nsg24
Nsg25
I0
ssg26
I01
sg27
I01
sba(iSong
Song
p358
(dp359
g3
(dp360
g5
F0.0147
sg6
VSixteen
p361
sg8
F0.427968
sg9
F0.531
sg10
S'country'
p362
sg12
F0.0273
sg13
VThomas Rhett
p363
sg15
I9999
sg16
F0.707
sg17
Nsg18
F0.8831
sg19
Nsg20
Nsg21
F0.14162428583396786
sg22
F0.417
sg23
Nsg24
Nsg25
F2.11e-06
ssg26
I01
sg27
I01
sba(iSong
Song
p364
(dp365
g3
(dp366
g5
F0.0332
sg6
VBands Make Her Dance
p367
sg8
F0.420244
sg9
F0.667
sg10
S'country'
p368
sg12
F0.0379
sg13
VLogan Mize
p369
sg15
I9999
sg16
F0.556
sg17
Nsg18
F0.9049166666666667
sg19
Nsg20
Nsg21
F0.14162428583396786
sg22
F0.275
sg23
Nsg24
Nsg25
F6.94e-05
ssg26
I01
sg27
I01
sba(iSong
Song
p370
(dp371
g3
(dp372
g5
F0.178
sg6
VRecord Year
p373
sg8
F0.6398400000000001
sg9
F0.655
sg10
S'country'
p374
sg12
F0.12
sg13
VEric Church
p375
sg15
I9999
sg16
F0.585
sg17
Nsg18
F0.8641500000000001
sg19
Nsg20
Nsg21
F0.14162428583396786
sg22
F0.574
sg23
Nsg24
Nsg25
I0
ssg26
I01
sg27
I01
sba(iSong
Song
p376
(dp377
g3
(dp378
g5
F0.216
sg6
VWe Were That Song
p379
sg8
F0.411824
sg9
F0.911
sg10
S'country'
p380
sg12
F0.05
sg13
VBrett Kissel
p381
sg15
I9999
sg16
F0.618
sg17
Nsg18
F0.9446166666666667
sg19
Nsg20
Nsg21
F0.14162428583396786
sg22
F0.501
sg23
Nsg24
Nsg25
I0
ssg26
I01
sg27
I01
sba(iSong
Song
p382
(dp383
g3
(dp384
g5
F0.000555
sg6
VThunder in the Rain
p385
sg8
F0.44385199999999997
sg9
F0.877
sg10
S'country'
p386
sg12
F0.0317
sg13
VKane Brown
p387
sg15
I9999
sg16
F0.549
sg17
Nsg18
F0.9165333333333333
sg19
Nsg20
Nsg21
F0.14162428583396786
sg22
F0.377
sg23
Nsg24
Nsg25
I0
ssg26
I01
sg27
I01
sba(iSong
Song
p388
(dp389
g3
(dp390
g5
F0.0342
sg6
VDrive Me Away
p391
sg8
F0.40854399999999996
sg9
F0.852
sg10
S'country'
p392
sg12
F0.0992
sg13
VJess Moskaluke
p393
sg15
I9999
sg16
F0.579
sg17
Nsg18
F0.9280333333333334
sg19
Nsg20
Nsg21
F0.14162428583396786
sg22
F0.616
sg23
Nsg24
Nsg25
I0
ssg26
I01
sg27
I01
sba(iSong
Song
p394
(dp395
g3
(dp396
g5
F0.265
sg6
VThe Long Way
p397
sg8
F0.35546
sg9
F0.637
sg10
S'country'
p398
sg12
F0.0401
sg13
VBrett Eldredge
p399
sg15
I9999
sg16
F0.488
sg17
Nsg18
F0.8728333333333332
sg19
Nsg20
Nsg21
F0.14162428583396786
sg22
F0.23
sg23
Nsg24
Nsg25
I0
ssg26
I01
sg27
I01
sba(iSong
Song
p400
(dp401
g3
(dp402
g5
F0.161
sg6
VThis Night Back
p403
sg8
F0.640668
sg9
F0.863
sg10
S'country'
p404
sg12
F0.04
sg13
VCanaan Smith
p405
sg15
I9999
sg16
F0.587
sg17
Nsg18
F0.91995
sg19
Nsg20
Nsg21
F0.14162428583396786
sg22
F0.537
sg23
Nsg24
Nsg25
I0
ssg26
I01
sg27
I01
sba(iSong
Song
p406
(dp407
g3
(dp408
g5
F0.0277
sg6
VLiquor's Callin' the Shots
p409
sg8
F0.6324160000000001
sg9
F0.96
sg10
S'country'
p410
sg12
F0.0588
sg13
VEric Ethridge
p411
sg15
I9999
sg16
F0.447
sg17
Nsg18
F0.9670166666666666
sg19
Nsg20
Nsg21
F0.14162428583396786
sg22
F0.533
sg23
Nsg24
Nsg25
I0
ssg26
I01
sg27
I01
sba(iSong
Song
p412
(dp413
g3
(dp414
g5
F0.0528
sg6
VFound You
p415
sg8
F0.656576
sg9
F0.821
sg10
S'country'
p416
sg12
F0.0404
sg13
VKane Brown
p417
sg15
I9999
sg16
F0.46
sg17
Nsg18
F0.9111166666666667
sg19
Nsg20
Nsg21
F0.14162428583396786
sg22
F0.438
sg23
Nsg24
Nsg25
I0
ssg26
I01
sg27
I01
sba(iSong
Song
p418
(dp419
g3
(dp420
g5
F0.385
sg6
VH.O.L.Y.
p421
sg8
F0.312012
sg9
F0.685
sg10
S'country'
p422
sg12
F0.0351
sg13
VFlorida Georgia Line
p423
sg15
I9999
sg16
F0.525
sg17
Nsg18
F0.9341
sg19
Nsg20
Nsg21
F0.14162428583396786
sg22
F0.54
sg23
Nsg24
Nsg25
I0
ssg26
I01
sg27
I01
sba(iSong
Song
p424
(dp425
g3
(dp426
g5
F0.000601
sg6
VLong Way To Love You
p427
sg8
F0.460096
sg9
F0.829
sg10
S'country'
p428
sg12
F0.0452
sg13
VHunter Brothers
p429
sg15
I9999
sg16
F0.589
sg17
Nsg18
F0.9167833333333333
sg19
Nsg20
Nsg21
F0.14162428583396786
sg22
F0.411
sg23
Nsg24
Nsg25
I0
ssg26
I01
sg27
I01
sba(iSong
Song
p430
(dp431
g3
(dp432
g5
F0.0304
sg6
VThe Fighter
p433
sg8
F0.528092
sg9
F0.845
sg10
S'country'
p434
sg12
F0.0525
sg13
VKeith Urban
p435
sg15
I9999
sg16
F0.681
sg17
Nsg18
F0.9142166666666667
sg19
Nsg20
Nsg21
F0.14162428583396786
sg22
F0.761
sg23
Nsg24
Nsg25
I0
ssg26
I01
sg27
I01
sba(iSong
Song
p436
(dp437
g3
(dp438
g5
F0.0596
sg6
VRoad Less Traveled
p439
sg8
F0.451984
sg9
F0.88
sg10
S'country'
p440
sg12
F0.0348
sg13
VLauren Alaina
p441
sg15
I9999
sg16
F0.615
sg17
Nsg18
F0.9218333333333334
sg19
Nsg20
Nsg21
F0.14162428583396786
sg22
F0.307
sg23
Nsg24
Nsg25
I0
ssg26
I01
sg27
I01
sba(iSong
Song
p442
(dp443
g3
(dp444
g5
F0.129
sg6
VLight It Up
p445
sg8
F0.520116
sg9
F0.935
sg10
S'country'
p446
sg12
F0.0855
sg13
VLuke Bryan
p447
sg15
I9999
sg16
F0.596
sg17
Nsg18
F0.9534333333333334
sg19
Nsg20
Nsg21
F0.14162428583396786
sg22
F0.678
sg23
Nsg24
Nsg25
I0
ssg26
I01
sg27
I01
sba(iSong
Song
p448
(dp449
g3
(dp450
g5
F0.368
sg6
VTake Back Home Girl (Feat. Tori Kelly)
p451
sg8
F0.638832
sg9
F0.78
sg10
S'country'
p452
sg12
F0.064
sg13
VChris Lane
p453
sg15
I9999
sg16
F0.494
sg17
Nsg18
F0.9362499999999999
sg19
Nsg20
Nsg21
F0.14162428583396786
sg22
F0.664
sg23
Nsg24
Nsg25
I0
ssg26
I01
sg27
I01
sba(iSong
Song
p454
(dp455
g3
(dp456
g5
F0.163
sg6
VI'll Name the Dogs
p457
sg8
F0.672252
sg9
F0.852
sg10
S'country'
p458
sg12
F0.0933
sg13
VBlake Shelton
p459
sg15
I9999
sg16
F0.47
sg17
Nsg18
F0.9021
sg19
Nsg20
Nsg21
F0.14162428583396786
sg22
F0.773
sg23
Nsg24
Nsg25
F2.04e-06
ssg26
I01
sg27
I01
sba(iSong
Song
p460
(dp461
g3
(dp462
g5
F0.208
sg6
VHow Not To
p463
sg8
F0.639452
sg9
F0.836
sg10
S'country'
p464
sg12
F0.0491
sg13
VDan + Shay
p465
sg15
I9999
sg16
F0.501
sg17
Nsg18
F0.9402166666666666
sg19
Nsg20
Nsg21
F0.14162428583396786
sg22
F0.618
sg23
Nsg24
Nsg25
I0
ssg26
I01
sg27
I01
sba(iSong
Song
p466
(dp467
g3
(dp468
g5
F0.0637
sg6
VWhen I Do
p469
sg8
F0.299976
sg9
F0.785
sg10
S'country'
p470
sg12
F0.0576
sg13
VAlee
p471
sg15
I9999
sg16
F0.404
sg17
Nsg18
F0.9277333333333334
sg19
Nsg20
Nsg21
F0.14162428583396786
sg22
F0.584
sg23
Nsg24
Nsg25
F1.7e-06
ssg26
I01
sg27
I01
sba(iSong
Song
p472
(dp473
g3
(dp474
g5
F0.0364
sg6
VOut There
p475
sg8
F0.615936
sg9
F0.795
sg10
S'country'
p476
sg12
F0.0339
sg13
VChris Janson
p477
sg15
I9999
sg16
F0.53
sg17
Nsg18
F0.9127833333333334
sg19
Nsg20
Nsg21
F0.14162428583396786
sg22
F0.516
sg23
Nsg24
Nsg25
F2.67e-06
ssg26
I01
sg27
I01
sba(iSong
Song
p478
(dp479
g3
(dp480
g5
F0.12
sg6
VYours
p481
sg8
F0.5358999999999999
sg9
F0.796
sg10
S'country'
p482
sg12
F0.0313
sg13
VRussell Dickerson
p483
sg15
I9999
sg16
F0.568
sg17
Nsg18
F0.9115333333333333
sg19
Nsg20
Nsg21
F0.14162428583396786
sg22
F0.573
sg23
Nsg24
Nsg25
I0
ssg26
I01
sg27
I01
sba(iSong
Song
p484
(dp485
g3
(dp486
g5
F0.0138
sg6
VCity Girl
p487
sg8
F0.536036
sg9
F0.795
sg10
S'country'
p488
sg12
F0.0292
sg13
VRyan Hurd
p489
sg15
I9999
sg16
F0.567
sg17
Nsg18
F0.8966333333333334
sg19
Nsg20
Nsg21
F0.14162428583396786
sg22
F0.415
sg23
Nsg24
Nsg25
I0
ssg26
I01
sg27
I01
sba(iSong
Song
p490
(dp491
g3
(dp492
g5
F0.0886
sg6
VDirt Road In 'Em
p493
sg8
F0.584108
sg9
F0.913
sg10
S'country'
p494
sg12
F0.046
sg13
VAaron Pritchett
p495
sg15
I9999
sg16
F0.579
sg17
Nsg18
F0.9352
sg19
Nsg20
Nsg21
F0.14162428583396786
sg22
F0.714
sg23
Nsg24
Nsg25
I0
ssg26
I01
sg27
I01
sba(iSong
Song
p496
(dp497
g3
(dp498
g5
F0.0551
sg6
VLike You That Way
p499
sg8
F0.736236
sg9
F0.738
sg10
S'country'
p500
sg12
F0.0719
sg13
VCanaan Smith
p501
sg15
I9999
sg16
F0.41
sg17
Nsg18
F0.9361166666666667
sg19
Nsg20
Nsg21
F0.14162428583396786
sg22
F0.593
sg23
Nsg24
Nsg25
I0
ssg26
I01
sg27
I01
sba(iSong
Song
p502
(dp503
g3
(dp504
g5
F0.00959
sg6
VOut Of The Blue
p505
sg8
F0.32799599999999995
sg9
F0.828
sg10
S'country'
p506
sg12
F0.032
sg13
VChad Brownlee
p507
sg15
I9999
sg16
F0.515
sg17
Nsg18
F0.9214166666666667
sg19
Nsg20
Nsg21
F0.14162428583396786
sg22
F0.653
sg23
Nsg24
Nsg25
I0
ssg26
I01
sg27
I01
sba(iSong
Song
p508
(dp509
g3
(dp510
g5
F0.0993
sg6
VFor Her
p511
sg8
F0.600016
sg9
F0.904
sg10
S'country'
p512
sg12
F0.0357
sg13
VChris Lane
p513
sg15
I9999
sg16
F0.51
sg17
Nsg18
F0.9284833333333334
sg19
Nsg20
Nsg21
F0.14162428583396786
sg22
F0.545
sg23
Nsg24
Nsg25
I0
ssg26
I01
sg27
I01
sba(iSong
Song
p514
(dp515
g3
(dp516
g5
F0.321
sg6
VLivin' on Summertime
p517
sg8
F0.35606400000000005
sg9
F0.818
sg10
S'country'
p518
sg12
F0.0276
sg13
VGord Bamford
p519
sg15
I9999
sg16
F0.529
sg17
Nsg18
F0.9396
sg19
Nsg20
Nsg21
F0.14162428583396786
sg22
F0.688
sg23
Nsg24
Nsg25
I0
ssg26
I01
sg27
I01
sba(iSong
Song
p520
(dp521
g3
(dp522
g5
F0.158
sg6
VStompin' Ground
p523
sg8
F0.39199599999999996
sg9
F0.937
sg10
S'country'
p524
sg12
F0.0525
sg13
VTim Hicks
p525
sg15
I9999
sg16
F0.691
sg17
Nsg18
F0.93395
sg19
Nsg20
Nsg21
F0.14162428583396786
sg22
F0.847
sg23
Nsg24
Nsg25
I0
ssg26
I01
sg27
I01
sba(iSong
Song
p526
(dp527
g3
(dp528
g5
F0.114
sg6
VWanna Be That Song
p529
sg8
F0.57626
sg9
F0.686
sg10
S'country'
p530
sg12
F0.0313
sg13
VBrett Eldredge
p531
sg15
I9999
sg16
F0.518
sg17
Nsg18
F0.91815
sg19
Nsg20
Nsg21
F0.14162428583396786
sg22
F0.334
sg23
Nsg24
Nsg25
I0
ssg26
I01
sg27
I01
sba(iSong
Song
p532
(dp533
g3
(dp534
g5
F0.225
sg6
VFast
p535
sg8
F0.583812
sg9
F0.898
sg10
S'country'
p536
sg12
F0.0459
sg13
VLuke Bryan
p537
sg15
I9999
sg16
F0.548
sg17
Nsg18
F0.9573166666666667
sg19
Nsg20
Nsg21
F0.14162428583396786
sg22
F0.599
sg23
Nsg24
Nsg25
I0
ssg26
I01
sg27
I01
sba(iSong
Song
p538
(dp539
g3
(dp540
g5
F0.0385
sg6
VLater
p541
sg8
F0.659744
sg9
F0.851
sg10
S'country'
p542
sg12
F0.0493
sg13
VDavid James
p543
sg15
I9999
sg16
F0.516
sg17
Nsg18
F0.91645
sg19
Nsg20
Nsg21
F0.14162428583396786
sg22
F0.605
sg23
Nsg24
Nsg25
I0
ssg26
I01
sg27
I01
sba(iSong
Song
p544
(dp545
g3
(dp546
g5
F0.0344
sg6
VYou Look Good
p547
sg8
F0.6080599999999999
sg9
F0.926
sg10
S'country'
p548
sg12
F0.0461
sg13
VLady Antebellum
p549
sg15
I9999
sg16
F0.659
sg17
Nsg18
F0.9223333333333333
sg19
Nsg20
Nsg21
F0.14162428583396786
sg22
F0.95
sg23
Nsg24
Nsg25
F0.00121
ssg26
I01
sg27
I01
sba(iSong
Song
p550
(dp551
g3
(dp552
g5
F0.033
sg6
VGood Kinda Love
p553
sg8
F0.36804000000000003
sg9
F0.906
sg10
S'country'
p554
sg12
F0.0325
sg13
VJojo Mason
p555
sg15
I9999
sg16
F0.532
sg17
Nsg18
F0.9475833333333333
sg19
Nsg20
Nsg21
F0.14162428583396786
sg22
F0.775
sg23
Nsg24
Nsg25
F4.61e-05
ssg26
I01
sg27
I01
sba(iSong
Song
p556
(dp557
g3
(dp558
g5
F0.0108
sg6
VWhat Makes You Country
p559
sg8
F0.63998
sg9
F0.947
sg10
S'country'
p560
sg12
F0.0445
sg13
VLuke Bryan
p561
sg15
I9999
sg16
F0.51
sg17
Nsg18
F0.9709
sg19
Nsg20
Nsg21
F0.14162428583396786
sg22
F0.749
sg23
Nsg24
Nsg25
I0
ssg26
I01
sg27
I01
sba(iSong
Song
p562
(dp563
g3
(dp564
g5
F0.0919
sg6
VHead Over Boots
p565
sg8
F0.43231200000000003
sg9
F0.669
sg10
S'country'
p566
sg12
F0.0237
sg13
VJon Pardi
p567
sg15
I9999
sg16
F0.637
sg17
Nsg18
F0.9232
sg19
Nsg20
Nsg21
F0.14162428583396786
sg22
F0.638
sg23
Nsg24
Nsg25
I0
ssg26
I01
sg27
I01
sba(iSong
Song
p568
(dp569
g3
(dp570
g5
F0.00283
sg6
VCardboard Box
p571
sg8
F0.46787599999999996
sg9
F0.864
sg10
S'country'
p572
sg12
F0.0312
sg13
VNatasha Zimbaro
p573
sg15
I9999
sg16
F0.608
sg17
Nsg18
F0.9337333333333333
sg19
Nsg20
Nsg21
F0.14162428583396786
sg22
F0.582
sg23
Nsg24
Nsg25
I0
ssg26
I01
sg27
I01
sba(iSong
Song
p574
(dp575
g3
(dp576
g5
F0.018
sg6
VUnapologetically
p577
sg8
F0.683508
sg9
F0.817
sg10
S'country'
p578
sg12
F0.0473
sg13
VKelsea Ballerini
p579
sg15
I9999
sg16
F0.536
sg17
Nsg18
F0.9119166666666667
sg19
Nsg20
Nsg21
F0.14162428583396786
sg22
F0.525
sg23
Nsg24
Nsg25
I0
ssg26
I01
sg27
I01
sba(iSong
Song
p580
(dp581
g3
(dp582
g5
F0.0131
sg6
VDaughters Of The Sun
p583
sg8
F0.459988
sg9
F0.724
sg10
S'country'
p584
sg12
F0.0343
sg13
VGeorge Canyon
p585
sg15
I9999
sg16
F0.694
sg17
Nsg18
F0.8829
sg19
Nsg20
Nsg21
F0.14162428583396786
sg22
F0.72
sg23
Nsg24
Nsg25
F8.28e-05
ssg26
I01
sg27
I01
sba(iSong
Song
p586
(dp587
g3
(dp588
g5
F0.0913
sg6
VUp Down (Feat. Florida Georgia Line)
p589
sg8
F0.519712
sg9
F0.881
sg10
S'country'
p590
sg12
F0.0349
sg13
VMorgan Wallen
p591
sg15
I9999
sg16
F0.59
sg17
Nsg18
F0.9517
sg19
Nsg20
Nsg21
F0.14162428583396786
sg22
F0.734
sg23
Nsg24
Nsg25
I0
ssg26
I01
sg27
I01
sba(iSong
Song
p592
(dp593
g3
(dp594
g5
F0.0183
sg6
VBlue Tacoma
p595
sg8
F0.640556
sg9
F0.897
sg10
S'country'
p596
sg12
F0.0403
sg13
VRussell Dickerson
p597
sg15
I9999
sg16
F0.455
sg17
Nsg18
F0.9186833333333334
sg19
Nsg20
Nsg21
F0.14162428583396786
sg22
F0.728
sg23
Nsg24
Nsg25
I0
ssg26
I01
sg27
I01
sba(iSong
Song
p598
(dp599
g3
(dp600
g5
F0.168
sg6
VProof Is on Your Lips
p601
sg8
F0.575704
sg9
F0.807
sg10
S'country'
p602
sg12
F0.033
sg13
VRyan Robinette
p603
sg15
I9999
sg16
F0.455
sg17
Nsg18
F0.9157833333333334
sg19
Nsg20
Nsg21
F0.14162428583396786
sg22
F0.685
sg23
Nsg24
Nsg25
I0
ssg26
I01
sg27
I01
sba(iSong
Song
p604
(dp605
g3
(dp606
g5
F0.126
sg6
VBetter Man
p607
sg8
F0.575964
sg9
F0.76
sg10
S'country'
p608
sg12
F0.0361
sg13
VLittle Big Town
p609
sg15
I9999
sg16
F0.524
sg17
Nsg18
F0.9297666666666667
sg19
Nsg20
Nsg21
F0.14162428583396786
sg22
F0.437
sg23
Nsg24
Nsg25
F1.1e-05
ssg26
I01
sg27
I01
sba(iSong
Song
p610
(dp611
g3
(dp612
g5
F0.44
sg6
VEvery Little Thing
p613
sg8
F0.5591
sg9
F0.444
sg10
S'country'
p614
sg12
F0.0417
sg13
VCarly Pearce
p615
sg15
I9999
sg16
F0.637
sg17
Nsg18
F0.8940833333333332
sg19
Nsg20
Nsg21
F0.14162428583396786
sg22
F0.319
sg23
Nsg24
Nsg25
F5.46e-06
ssg26
I01
sg27
I01
sba(iSong
Song
p616
(dp617
g3
(dp618
g5
F0.38
sg6
VGreatest Love Story
p619
sg8
F0.5919
sg9
F0.621
sg10
S'country'
p620
sg12
F0.0524
sg13
VLANCO
p621
sg15
I9999
sg16
F0.665
sg17
Nsg18
F0.8571500000000001
sg19
Nsg20
Nsg21
F0.14162428583396786
sg22
F0.632
sg23
Nsg24
Nsg25
I0
ssg26
I01
sg27
I01
sba(iSong
Song
p622
(dp623
g3
(dp624
g5
F0.047
sg6
VMeant to Be (feat. Florida Georgia Line)
p625
sg8
F0.616336
sg9
F0.783
sg10
S'country'
p626
sg12
F0.0856
sg13
VBebe Rexha
p627
sg15
I9999
sg16
F0.643
sg17
Nsg18
F0.8923666666666666
sg19
Nsg20
Nsg21
F0.14162428583396786
sg22
F0.579
sg23
Nsg24
Nsg25
I0
ssg26
I01
sg27
I01
sba(iSong
Song
p628
(dp629
g3
(dp630
g5
F0.0251
sg6
VSmall Town Boy
p631
sg8
F0.291988
sg9
F0.743
sg10
S'country'
p632
sg12
F0.0287
sg13
VDustin Lynch
p633
sg15
I9999
sg16
F0.554
sg17
Nsg18
F0.8997333333333334
sg19
Nsg20
Nsg21
F0.14162428583396786
sg22
F0.673
sg23
Nsg24
Nsg25
I0
ssg26
I01
sg27
I01
sba(iSong
Song
p634
(dp635
g3
(dp636
g5
F0.161
sg6
VThis Night Back
p637
sg8
F0.640668
sg9
F0.863
sg10
S'country'
p638
sg12
F0.04
sg13
VCanaan Smith
p639
sg15
I9999
sg16
F0.587
sg17
Nsg18
F0.91995
sg19
Nsg20
Nsg21
F0.14162428583396786
sg22
F0.537
sg23
Nsg24
Nsg25
I0
ssg26
I01
sg27
I01
sba(iSong
Song
p640
(dp641
g3
(dp642
g5
F0.349
sg6
VTake Back Home Girl (Feat. Tori Kelly)
p643
sg8
F0.64012
sg9
F0.798
sg10
S'country'
p644
sg12
F0.0705
sg13
VChris Lane
p645
sg15
I9999
sg16
F0.488
sg17
Nsg18
F0.9357500000000001
sg19
Nsg20
Nsg21
F0.14162428583396786
sg22
F0.613
sg23
Nsg24
Nsg25
I0
ssg26
I01
sg27
I01
sba(iSong
Song
p646
(dp647
g3
(dp648
g5
F0.144
sg6
VAll On Me
p649
sg8
F0.323984
sg9
F0.658
sg10
S'country'
p650
sg12
F0.0281
sg13
VDevin Dawson
p651
sg15
I9999
sg16
F0.631
sg17
Nsg18
F0.91145
sg19
Nsg20
Nsg21
F0.14162428583396786
sg22
F0.7
sg23
Nsg24
Nsg25
I0
ssg26
I01
sg27
I01
sba(iSong
Song
p652
(dp653
g3
(dp654
g5
F0.00898
sg6
VWhat Ifs
p655
sg8
F0.503904
sg9
F0.799
sg10
S'country'
p656
sg12
F0.0275
sg13
VKane Brown
p657
sg15
I9999
sg16
F0.612
sg17
Nsg18
F0.9232833333333333
sg19
Nsg20
Nsg21
F0.14162428583396786
sg22
F0.687
sg23
Nsg24
Nsg25
I0
ssg26
I01
sg27
I01
sba(iSong
Song
p658
(dp659
g3
(dp660
g5
F0.0147
sg6
VSixteen
p661
sg8
F0.427968
sg9
F0.531
sg10
S'country'
p662
sg12
F0.0273
sg13
VThomas Rhett
p663
sg15
I9999
sg16
F0.707
sg17
Nsg18
F0.8831
sg19
Nsg20
Nsg21
F0.14162428583396786
sg22
F0.417
sg23
Nsg24
Nsg25
F2.11e-06
ssg26
I01
sg27
I01
sba(iSong
Song
p664
(dp665
g3
(dp666
g5
F0.302
sg6
VSpeakers, Bleachers And Preachers
p667
sg8
F0.38408
sg9
F0.625
sg10
S'country'
p668
sg12
F0.0258
sg13
VBrandon Lay
p669
sg15
I9999
sg16
F0.603
sg17
Nsg18
F0.8906166666666666
sg19
Nsg20
Nsg21
F0.14162428583396786
sg22
F0.651
sg23
Nsg24
Nsg25
I0
ssg26
I01
sg27
I01
sba(iSong
Song
p670
(dp671
g3
(dp672
g5
F0.0169
sg6
VSleep Without You
p673
sg8
F0.354196
sg9
F0.716
sg10
S'country'
p674
sg12
F0.043
sg13
VBrett Young
p675
sg15
I9999
sg16
F0.632
sg17
Nsg18
F0.9053833333333333
sg19
Nsg20
Nsg21
F0.14162428583396786
sg22
F0.655
sg23
Nsg24
Nsg25
I0
ssg26
I01
sg27
I01
sba(iSong
Song
p676
(dp677
g3
(dp678
g5
F0.463
sg6
VBody Like A Back Road
p679
sg8
F0.395852
sg9
F0.469
sg10
S'country'
p680
sg12
F0.0326
sg13
VSam Hunt
p681
sg15
I9999
sg16
F0.731
sg17
Nsg18
F0.8795666666666667
sg19
Nsg20
Nsg21
F0.14162428583396786
sg22
F0.631
sg23
Nsg24
Nsg25
F1.04e-06
ssg26
I01
sg27
I01
sba(iSong
Song
p682
(dp683
g3
(dp684
g5
F0.013
sg6
VWhen It Rains It Pours
p685
sg8
F0.5121079999999999
sg9
F0.801
sg10
S'country'
p686
sg12
F0.0303
sg13
VLuke Combs
p687
sg15
I9999
sg16
F0.551
sg17
Nsg18
F0.9155166666666666
sg19
Nsg20
Nsg21
F0.14162428583396786
sg22
F0.625
sg23
Nsg24
Nsg25
F6.03e-06
ssg26
I01
sg27
I01
sba(iSong
Song
p688
(dp689
g3
(dp690
g5
F0.0692
sg6
VThat's When You Know
p691
sg8
F0.591524
sg9
F0.809
sg10
S'country'
p692
sg12
F0.044
sg13
VChris Buck Band
p693
sg15
I9999
sg16
F0.523
sg17
Nsg18
F0.87905
sg19
Nsg20
Nsg21
F0.14162428583396786
sg22
F0.663
sg23
Nsg24
Nsg25
I0
ssg26
I01
sg27
I01
sba(iSong
Song
p694
(dp695
g3
(dp696
g5
F0.38
sg6
VGreatest Love Story
p697
sg8
F0.5919
sg9
F0.621
sg10
S'country'
p698
sg12
F0.0524
sg13
VLANCO
p699
sg15
I9999
sg16
F0.665
sg17
Nsg18
F0.8571500000000001
sg19
Nsg20
Nsg21
F0.14162428583396786
sg22
F0.632
sg23
Nsg24
Nsg25
I0
ssg26
I01
sg27
I01
sba(iSong
Song
p700
(dp701
g3
(dp702
g5
F0.0356
sg6
VI Know Somebody
p703
sg8
F0.35594400000000004
sg9
F0.903
sg10
S'country'
p704
sg12
F0.037
sg13
VLOCASH
p705
sg15
I9999
sg16
F0.505
sg17
Nsg18
F0.93835
sg19
Nsg20
Nsg21
F0.14162428583396786
sg22
F0.491
sg23
Nsg24
Nsg25
I0
ssg26
I01
sg27
I01
sba(iSong
Song
p706
(dp707
g3
(dp708
g5
F0.0179
sg6
VDear Life
p709
sg8
F0.508104
sg9
F0.88
sg10
S'country'
p710
sg12
F0.0425
sg13
VHigh Valley
p711
sg15
I9999
sg16
F0.554
sg17
Nsg18
F0.8939
sg19
Nsg20
Nsg21
F0.14162428583396786
sg22
F0.448
sg23
Nsg24
Nsg25
I0
ssg26
I01
sg27
I01
sba(iSong
Song
p712
(dp713
g3
(dp714
g5
F0.0943
sg6
VJust Got Paid
p715
sg8
F0.687568
sg9
F0.782
sg10
S'country'
p716
sg12
F0.0523
sg13
VEmerson Drive
p717
sg15
I9999
sg16
F0.608
sg17
Nsg18
F0.90335
sg19
Nsg20
Nsg21
F0.14162428583396786
sg22
F0.681
sg23
Nsg24
Nsg25
I0
ssg26
I01
sg27
I01
sba(iSong
Song
p718
(dp719
g3
(dp720
g5
F0.189
sg6
VHappens Like That
p721
sg8
F0.32418
sg9
F0.807
sg10
S'country'
p722
sg12
F0.0825
sg13
VGranger Smith
p723
sg15
I9999
sg16
F0.557
sg17
Nsg18
F0.9095333333333334
sg19
Nsg20
Nsg21
F0.14162428583396786
sg22
F0.578
sg23
Nsg24
Nsg25
I0
ssg26
I01
sg27
I01
sba(iSong
Song
p724
(dp725
g3
(dp726
g5
F0.0715
sg6
VLosing Sleep
p727
sg8
F0.368012
sg9
F0.621
sg10
S'country'
p728
sg12
F0.0443
sg13
VChris Young
p729
sg15
I9999
sg16
F0.584
sg17
Nsg18
F0.9049499999999999
sg19
Nsg20
Nsg21
F0.14162428583396786
sg22
F0.634
sg23
Nsg24
Nsg25
F1.68e-06
ssg26
I01
sg27
I01
sba(iSong
Song
p730
(dp731
g3
(dp732
g5
F0.0362
sg6
VHooked
p733
sg8
F0.528216
sg9
F0.721
sg10
S'country'
p734
sg12
F0.0356
sg13
VDylan Scott
p735
sg15
I9999
sg16
F0.597
sg17
Nsg18
F0.8929666666666667
sg19
Nsg20
Nsg21
F0.14162428583396786
sg22
F0.437
sg23
Nsg24
Nsg25
I0
ssg26
I01
sg27
I01
sba(iSong
Song
p736
(dp737
g3
(dp738
g5
F0.265
sg6
VThe Long Way
p739
sg8
F0.35546
sg9
F0.637
sg10
S'country'
p740
sg12
F0.0401
sg13
VBrett Eldredge
p741
sg15
I9999
sg16
F0.488
sg17
Nsg18
F0.8728333333333332
sg19
Nsg20
Nsg21
F0.14162428583396786
sg22
F0.23
sg23
Nsg24
Nsg25
I0
ssg26
I01
sg27
I01
sba(iSong
Song
p742
(dp743
g3
(dp744
g5
F0.0451
sg6
VHell If I Know
p745
sg8
F0.40005599999999997
sg9
F0.831
sg10
S'country'
p746
sg12
F0.0434
sg13
VChase Bryant
p747
sg15
I9999
sg16
F0.618
sg17
Nsg18
F0.9001666666666667
sg19
Nsg20
Nsg21
F0.14162428583396786
sg22
F0.627
sg23
Nsg24
Nsg25
I0
ssg26
I01
sg27
I01
sba(iSong
Song
p748
(dp749
g3
(dp750
g5
F0.0163
sg6
VDo It With You
p751
sg8
F0.399976
sg9
F0.7
sg10
S'country'
p752
sg12
F0.0243
sg13
VAndrew Hyatt
p753
sg15
I9999
sg16
F0.639
sg17
Nsg18
F0.8905666666666666
sg19
Nsg20
Nsg21
F0.14162428583396786
sg22
F0.535
sg23
Nsg24
Nsg25
I0
ssg26
I01
sg27
I01
sba(iSong
Song
p754
(dp755
g3
(dp756
g5
F0.171
sg6
VI'll Name the Dogs
p757
sg8
F0.333568
sg9
F0.87
sg10
S'country'
p758
sg12
F0.137
sg13
VBlake Shelton
p759
sg15
I9999
sg16
F0.348
sg17
Nsg18
F0.9023333333333333
sg19
Nsg20
Nsg21
F0.14162428583396786
sg22
F0.763
sg23
Nsg24
Nsg25
F4.4e-06
ssg26
I01
sg27
I01
sba(iSong
Song
p760
(dp761
g3
(dp762
g5
F0.182
sg6
VFemale
p763
sg8
F0.33999599999999996
sg9
F0.474
sg10
S'country'
p764
sg12
F0.0351
sg13
VKeith Urban
p765
sg15
I9999
sg16
F0.562
sg17
Nsg18
F0.8539666666666667
sg19
Nsg20
Nsg21
F0.14162428583396786
sg22
F0.345
sg23
Nsg24
Nsg25
F9.8e-05
ssg26
I01
sg27
I01
sba(iSong
Song
p766
(dp767
g3
(dp768
g5
F0.00746
sg6
VMore Girls Like You
p769
sg8
F0.300004
sg9
F0.716
sg10
S'country'
p770
sg12
F0.0305
sg13
VKip Moore
p771
sg15
I9999
sg16
F0.551
sg17
Nsg18
F0.9094833333333334
sg19
Nsg20
Nsg21
F0.14162428583396786
sg22
F0.739
sg23
Nsg24
Nsg25
I0
ssg26
I01
sg27
I01
sba(iSong
Song
p772
(dp773
g3
(dp774
g5
F0.0364
sg6
VOut There
p775
sg8
F0.615936
sg9
F0.795
sg10
S'country'
p776
sg12
F0.0339
sg13
VChris Janson
p777
sg15
I9999
sg16
F0.53
sg17
Nsg18
F0.9127833333333334
sg19
Nsg20
Nsg21
F0.14162428583396786
sg22
F0.516
sg23
Nsg24
Nsg25
F2.67e-06
ssg26
I01
sg27
I01
sba(iSong
Song
p778
(dp779
g3
(dp780
g5
F0.272
sg6
VGet Me Some of That
p781
sg8
F0.687948
sg9
F0.753
sg10
S'country'
p782
sg12
F0.0626
sg13
VCole Swindell
p783
sg15
I9999
sg16
F0.585
sg17
Nsg18
F0.90215
sg19
Nsg20
Nsg21
F0.14162428583396786
sg22
F0.892
sg23
Nsg24
Nsg25
I0
ssg26
I01
sg27
I01
sba(iSong
Song
p784
(dp785
g3
(dp786
g5
F0.000179
sg6
VHometown Kids
p787
sg8
F0.431744
sg9
F0.79
sg10
S'country'
p788
sg12
F0.0339
sg13
VThe Reklaws
p789
sg15
I9999
sg16
F0.58
sg17
Nsg18
F0.8991166666666667
sg19
Nsg20
Nsg21
F0.14162428583396786
sg22
F0.795
sg23
Nsg24
Nsg25
I0
ssg26
I01
sg27
I01
sba(iSong
Song
p790
(dp791
g3
(dp792
g5
F0.0536
sg6
VWoke up Like This
p793
sg8
F0.623776
sg9
F0.776
sg10
S'country'
p794
sg12
F0.0484
sg13
VRiver Town Saints
p795
sg15
I9999
sg16
F0.507
sg17
Nsg18
F0.9272833333333333
sg19
Nsg20
Nsg21
F0.14162428583396786
sg22
F0.77
sg23
Nsg24
Nsg25
I0
ssg26
I01
sg27
I01
sba(iSong
Song
p796
(dp797
g3
(dp798
g5
F0.00738
sg6
VFor The First Time
p799
sg8
F0.568064
sg9
F0.804
sg10
S'country'
p800
sg12
F0.0361
sg13
VDarius Rucker
p801
sg15
I9999
sg16
F0.547
sg17
Nsg18
F0.9122
sg19
Nsg20
Nsg21
F0.14162428583396786
sg22
F0.666
sg23
Nsg24
Nsg25
I0
ssg26
I01
sg27
I01
sba(iSong
Song
p802
(dp803
g3
(dp804
g5
F0.0597
sg6
VIt's Working
p805
sg8
F0.47198399999999996
sg9
F0.898
sg10
S'country'
p806
sg12
F0.0378
sg13
VJames Barker Band
p807
sg15
I9999
sg16
F0.679
sg17
Nsg18
F0.9157
sg19
Nsg20
Nsg21
F0.14162428583396786
sg22
F0.685
sg23
Nsg24
Nsg25
F1.39e-06
ssg26
I01
sg27
I01
sba(iSong
Song
p808
(dp809
g3
(dp810
g5
F0.00102
sg6
VMess This Up
p811
sg8
F0.591952
sg9
F0.562
sg10
S'country'
p812
sg12
F0.0295
sg13
VRyan Robinette
p813
sg15
I9999
sg16
F0.489
sg17
Nsg18
F0.9163333333333334
sg19
Nsg20
Nsg21
F0.14162428583396786
sg22
F0.354
sg23
Nsg24
Nsg25
I0
ssg26
I01
sg27
I01
sba(iSong
Song
p814
(dp815
g3
(dp816
g5
F0.593
sg6
VWritten in the Sand
p817
sg8
F0.33594
sg9
F0.437
sg10
S'country'
p818
sg12
F0.0575
sg13
VOld Dominion
p819
sg15
I9999
sg16
F0.725
sg17
Nsg18
F0.8399666666666666
sg19
Nsg20
Nsg21
F0.14162428583396786
sg22
F0.759
sg23
Nsg24
Nsg25
I0
ssg26
I01
sg27
I01
sba(iSong
Song
p820
(dp821
g3
(dp822
g5
F0.0235
sg6
VBorn To Love
p823
sg8
F0.646448
sg9
F0.94
sg10
S'country'
p824
sg12
F0.208
sg13
VJason Blaine
p825
sg15
I9999
sg16
F0.285
sg17
Nsg18
F0.9242
sg19
Nsg20
Nsg21
F0.14162428583396786
sg22
F0.173
sg23
Nsg24
Nsg25
I0
ssg26
I01
sg27
I01
sba(iSong
Song
p826
(dp827
g3
(dp828
g5
F0.0913
sg6
VUp Down (Feat. Florida Georgia Line)
p829
sg8
F0.519712
sg9
F0.881
sg10
S'country'
p830
sg12
F0.0349
sg13
VMorgan Wallen
p831
sg15
I9999
sg16
F0.59
sg17
Nsg18
F0.9517
sg19
Nsg20
Nsg21
F0.14162428583396786
sg22
F0.734
sg23
Nsg24
Nsg25
I0
ssg26
I01
sg27
I01
sba(iSong
Song
p832
(dp833
g3
(dp834
g5
F0.211
sg6
VMore
p835
sg8
F0.480108
sg9
F0.883
sg10
S'country'
p836
sg12
F0.0551
sg13
VHunter Hayes
p837
sg15
I9999
sg16
F0.56
sg17
Nsg18
F0.9177
sg19
Nsg20
Nsg21
F0.14162428583396786
sg22
F0.575
sg23
Nsg24
Nsg25
I0
ssg26
I01
sg27
I01
sba(iSong
Song
p838
(dp839
g3
(dp840
g5
F0.0864
sg6
VBorn And Raised
p841
sg8
F0.459972
sg9
F0.906
sg10
S'country'
p842
sg12
F0.0748
sg13
VHunter Brothers
p843
sg15
I9999
sg16
F0.525
sg17
Nsg18
F0.9468166666666666
sg19
Nsg20
Nsg21
F0.14162428583396786
sg22
F0.471
sg23
Nsg24
Nsg25
I0
ssg26
I01
sg27
I01
sba(iSong
Song
p844
(dp845
g3
(dp846
g5
F0.44
sg6
VEvery Little Thing
p847
sg8
F0.5591
sg9
F0.444
sg10
S'country'
p848
sg12
F0.0417
sg13
VCarly Pearce
p849
sg15
I9999
sg16
F0.637
sg17
Nsg18
F0.8940833333333332
sg19
Nsg20
Nsg21
F0.14162428583396786
sg22
F0.319
sg23
Nsg24
Nsg25
F5.46e-06
ssg26
I01
sg27
I01
sba(iSong
Song
p850
(dp851
g3
(dp852
g5
F0.0196
sg6
VYours - intl mix
p853
sg8
F0.535892
sg9
F0.788
sg10
S'country'
p854
sg12
F0.032
sg13
VRussell Dickerson
p855
sg15
I9999
sg16
F0.538
sg17
Nsg18
F0.9125333333333334
sg19
Nsg20
Nsg21
F0.14162428583396786
sg22
F0.457
sg23
Nsg24
Nsg25
I0
ssg26
I01
sg27
I01
sba(iSong
Song
p856
(dp857
g3
(dp858
g5
F0.0318
sg6
VGet over Yourself
p859
sg8
F0.336144
sg9
F0.785
sg10
S'country'
p860
sg12
F0.0938
sg13
VKelsea Ballerini
p861
sg15
I9999
sg16
F0.497
sg17
Nsg18
F0.8680666666666668
sg19
Nsg20
Nsg21
F0.14162428583396786
sg22
F0.486
sg23
Nsg24
Nsg25
I0
ssg26
I01
sg27
I01
sba(iSong
Song
p862
(dp863
g3
(dp864
g5
F0.232
sg6
VNights in the Sun (feat. Grandpa Bear)
p865
sg8
F0.307948
sg9
F0.762
sg10
S'country'
p866
sg12
F0.0484
sg13
VBrett Kissel
p867
sg15
I9999
sg16
F0.226
sg17
Nsg18
F0.9155
sg19
Nsg20
Nsg21
F0.14162428583396786
sg22
F0.314
sg23
Nsg24
Nsg25
I0
ssg26
I01
sg27
I01
sba(iSong
Song
p868
(dp869
g3
(dp870
g5
F0.0956
sg6
VHooked On It
p871
sg8
F0.6559320000000001
sg9
F0.958
sg10
S'country'
p872
sg12
F0.0858
sg13
VLuke Bryan
p873
sg15
I9999
sg16
F0.51
sg17
Nsg18
F0.9757166666666667
sg19
Nsg20
Nsg21
F0.14162428583396786
sg22
F0.671
sg23
Nsg24
Nsg25
I0
ssg26
I01
sg27
I01
sba(iSong
Song
p874
(dp875
g3
(dp876
g5
F0.327
sg6
VWorth It
p877
sg8
F0.459472
sg9
F0.494
sg10
S'country'
p878
sg12
F0.0322
sg13
VDanielle Bradbery
p879
sg15
I9999
sg16
F0.538
sg17
Nsg18
F0.92315
sg19
Nsg20
Nsg21
F0.14162428583396786
sg22
F0.329
sg23
Nsg24
Nsg25
I0
ssg26
I01
sg27
I01
sba(iSong
Song
p880
(dp881
g3
(dp882
g5
F0.0275
sg6
VThree Chords & The Truth
p883
sg8
F0.664296
sg9
F0.889
sg10
S'country'
p884
sg12
F0.0462
sg13
VChase Rice
p885
sg15
I9999
sg16
F0.44
sg17
Nsg18
F0.9212833333333333
sg19
Nsg20
Nsg21
F0.14162428583396786
sg22
F0.409
sg23
Nsg24
Nsg25
I0
ssg26
I01
sg27
I01
sba(iSong
Song
p886
(dp887
g3
(dp888
g5
F0.00602
sg6
V18 Ends
p889
sg8
F0.43597199999999997
sg9
F0.897
sg10
S'country'
p890
sg12
F0.0265
sg13
VPetric
p891
sg15
I9999
sg16
F0.597
sg17
Nsg18
F0.91645
sg19
Nsg20
Nsg21
F0.14162428583396786
sg22
F0.655
sg23
Nsg24
Nsg25
F1.05e-05
ssg26
I01
sg27
I01
sba(iSong
Song
p892
(dp893
g3
(dp894
g5
F0.101
sg6
VThis Town Is You
p895
sg8
F0.6637519999999999
sg9
F0.874
sg10
S'country'
p896
sg12
F0.0365
sg13
VCold Creek County
p897
sg15
I9999
sg16
F0.447
sg17
Nsg18
F0.9373833333333333
sg19
Nsg20
Nsg21
F0.14162428583396786
sg22
F0.63
sg23
Nsg24
Nsg25
I0
ssg26
I01
sg27
I01
sba(iSong
Song
p898
(dp899
g3
(dp900
g5
F0.237
sg6
VCountry Music Made Me Do It
p901
sg8
F0.624208
sg9
F0.797
sg10
S'country'
p902
sg12
F0.0421
sg13
VMeghan Patrick
p903
sg15
I9999
sg16
F0.47
sg17
Nsg18
F0.9276333333333333
sg19
Nsg20
Nsg21
F0.14162428583396786
sg22
F0.433
sg23
Nsg24
Nsg25
I0
ssg26
I01
sg27
I01
sba(iSong
Song
p904
(dp905
g3
(dp906
g5
F0.0299
sg6
VDrive Me Away
p907
sg8
F0.408576
sg9
F0.845
sg10
S'country'
p908
sg12
F0.102
sg13
VJess Moskaluke
p909
sg15
I9999
sg16
F0.579
sg17
Nsg18
F0.92825
sg19
Nsg20
Nsg21
F0.14162428583396786
sg22
F0.578
sg23
Nsg24
Nsg25
I0
ssg26
I01
sg27
I01
sba(iSong
Song
p910
(dp911
g3
(dp912
g5
F0.182
sg6
VThought It Was Gonna Be Me
p913
sg8
F0.640184
sg9
F0.797
sg10
S'country'
p914
sg12
F0.0622
sg13
VCatherine McGrath
p915
sg15
I9999
sg16
F0.416
sg17
Nsg18
F0.9354333333333333
sg19
Nsg20
Nsg21
F0.14162428583396786
sg22
F0.599
sg23
Nsg24
Nsg25
I0
ssg26
I01
sg27
I01
sba(iSong
Song
p916
(dp917
g3
(dp918
g5
F0.379
sg6
VSubliminal Love
p919
sg8
F0.400048
sg9
F0.608
sg10
S'country'
p920
sg12
F0.0298
sg13
VJake Owen
p921
sg15
I9999
sg16
F0.645
sg17
Nsg18
F0.8993666666666668
sg19
Nsg20
Nsg21
F0.14162428583396786
sg22
F0.638
sg23
Nsg24
Nsg25
I0
ssg26
I01
sg27
I01
sba(iSong
Song
p922
(dp923
g3
(dp924
g5
F0.00172
sg6
VAnything Goes
p925
sg8
F0.616152
sg9
F0.977
sg10
S'country'
p926
sg12
F0.045
sg13
VFlorida Georgia Line
p927
sg15
I9999
sg16
F0.462
sg17
Nsg18
F0.9365833333333333
sg19
Nsg20
Nsg21
F0.14162428583396786
sg22
F0.746
sg23
Nsg24
Nsg25
I0
ssg26
I01
sg27
I01
sba(iSong
Song
p928
(dp929
g3
(dp930
g5
F0.129
sg6
VStar Of The Show
p931
sg8
F0.407832
sg9
F0.626
sg10
S'country'
p932
sg12
F0.0275
sg13
VThomas Rhett
p933
sg15
I9999
sg16
F0.69
sg17
Nsg18
F0.9028166666666666
sg19
Nsg20
Nsg21
F0.14162428583396786
sg22
F0.638
sg23
Nsg24
Nsg25
I0
ssg26
I01
sg27
I01
sba(iSong
Song
p934
(dp935
g3
(dp936
g5
F0.0537
sg6
VThe Weekend
p937
sg8
F0.32800799999999997
sg9
F0.842
sg10
S'country'
p938
sg12
F0.0448
sg13
VBrantley Gilbert
p939
sg15
I9999
sg16
F0.524
sg17
Nsg18
F0.9201666666666667
sg19
Nsg20
Nsg21
F0.14162428583396786
sg22
F0.709
sg23
Nsg24
Nsg25
I0
ssg26
I01
sg27
I01
sba(iSong
Song
p940
(dp941
g3
(dp942
g5
F0.0165
sg6
VHurricane
p943
sg8
F0.607712
sg9
F0.804
sg10
S'country'
p944
sg12
F0.0406
sg13
VLuke Combs
p945
sg15
I9999
sg16
F0.443
sg17
Nsg18
F0.8927999999999999
sg19
Nsg20
Nsg21
F0.14162428583396786
sg22
F0.438
sg23
Nsg24
Nsg25
F2.89e-06
ssg26
I01
sg27
I01
sba(iSong
Song
p946
(dp947
g3
(dp948
g5
F0.0919
sg6
VHead Over Boots
p949
sg8
F0.43231200000000003
sg9
F0.669
sg10
S'country'
p950
sg12
F0.0237
sg13
VJon Pardi
p951
sg15
I9999
sg16
F0.637
sg17
Nsg18
F0.9232
sg19
Nsg20
Nsg21
F0.14162428583396786
sg22
F0.638
sg23
Nsg24
Nsg25
I0
ssg26
I01
sg27
I01
sba(iSong
Song
p952
(dp953
g3
(dp954
g5
F0.0244
sg6
VSmall Town Boy
p955
sg8
F0.292132
sg9
F0.747
sg10
S'country'
p956
sg12
F0.0292
sg13
VDustin Lynch
p957
sg15
I9999
sg16
F0.553
sg17
Nsg18
F0.9015833333333333
sg19
Nsg20
Nsg21
F0.14162428583396786
sg22
F0.711
sg23
Nsg24
Nsg25
I0
ssg26
I01
sg27
I01
sba(iSong
Song
p958
(dp959
g3
(dp960
g5
F0.1
sg6
VSpringsteen
p961
sg8
F0.41609199999999996
sg9
F0.809
sg10
S'country'
p962
sg12
F0.0255
sg13
VEric Church
p963
sg15
I9999
sg16
F0.692
sg17
Nsg18
F0.9010833333333333
sg19
Nsg20
Nsg21
F0.14162428583396786
sg22
F0.927
sg23
Nsg24
Nsg25
F9.77e-05
ssg26
I01
sg27
I01
sba(iSong
Song
p964
(dp965
g3
(dp966
g5
F0.208
sg6
VBarefoot Blue Jean Night
p967
sg8
F0.688064
sg9
F0.808
sg10
S'country'
p968
sg12
F0.0403
sg13
VJake Owen
p969
sg15
I9999
sg16
F0.6
sg17
Nsg18
F0.9220166666666666
sg19
Nsg20
Nsg21
F0.14162428583396786
sg22
F0.809
sg23
Nsg24
Nsg25
I0
ssg26
I01
sg27
I01
sba(iSong
Song
p970
(dp971
g3
(dp972
g5
F0.111
sg6
VIt Goes Like This
p973
sg8
F0.671828
sg9
F0.836
sg10
S'country'
p974
sg12
F0.0627
sg13
VThomas Rhett
p975
sg15
I9999
sg16
F0.54
sg17
Nsg18
F0.9014333333333333
sg19
Nsg20
Nsg21
F0.14162428583396786
sg22
F0.55
sg23
Nsg24
Nsg25
I0
ssg26
I01
sg27
I01
sba(iSong
Song
p976
(dp977
g3
(dp978
g5
F0.0617
sg6
VHeartache On The Dance Floor
p979
sg8
F0.46402
sg9
F0.824
sg10
S'country'
p980
sg12
F0.0458
sg13
VJon Pardi
p981
sg15
I9999
sg16
F0.594
sg17
Nsg18
F0.9291333333333333
sg19
Nsg20
Nsg21
F0.14162428583396786
sg22
F0.671
sg23
Nsg24
Nsg25
I0
ssg26
I01
sg27
I01
sba(iSong
Song
p982
(dp983
g3
(dp984
g5
F0.0142
sg6
VWhere It's At
p985
sg8
F0.6322000000000001
sg9
F0.737
sg10
S'country'
p986
sg12
F0.0476
sg13
VDustin Lynch
p987
sg15
I9999
sg16
F0.557
sg17
Nsg18
F0.9041666666666667
sg19
Nsg20
Nsg21
F0.14162428583396786
sg22
F0.817
sg23
Nsg24
Nsg25
I0
ssg26
I01
sg27
I01
sba(iSong
Song
p988
(dp989
g3
(dp990
g5
F0.399
sg6
VI Don't Dance
p991
sg8
F0.368144
sg9
F0.559
sg10
S'country'
p992
sg12
F0.0321
sg13
VLee Brice
p993
sg15
I9999
sg16
F0.587
sg17
Nsg18
F0.8709666666666667
sg19
Nsg20
Nsg21
F0.14162428583396786
sg22
F0.19
sg23
Nsg24
Nsg25
F6.69e-06
ssg26
I01
sg27
I01
sba(iSong
Song
p994
(dp995
g3
(dp996
g5
F0.143
sg6
VBottoms Up
p997
sg8
F0.680188
sg9
F0.87
sg10
S'country'
p998
sg12
F0.0442
sg13
VBrantley Gilbert
p999
sg15
I9999
sg16
F0.479
sg17
Nsg18
F0.9043500000000001
sg19
Nsg20
Nsg21
F0.14162428583396786
sg22
F0.537
sg23
Nsg24
Nsg25
I0
ssg26
I01
sg27
I01
sba(iSong
Song
p1000
(dp1001
g3
(dp1002
g5
F0.46
sg6
VNowhere Fast
p1003
sg8
F0.40789600000000004
sg9
F0.488
sg10
S'country'
p1004
sg12
F0.0286
sg13
VOld Dominion
p1005
sg15
I9999
sg16
F0.788
sg17
Nsg18
F0.8780166666666667
sg19
Nsg20
Nsg21
F0.14162428583396786
sg22
F0.48
sg23
Nsg24
Nsg25
F4.52e-06
ssg26
I01
sg27
I01
sba(iSong
Song
p1006
(dp1007
g3
(dp1008
g5
F0.275
sg6
VI Like The Sound Of That
p1009
sg8
F0.359856
sg9
F0.813
sg10
S'country'
p1010
sg12
F0.0368
sg13
VRascal Flatts
p1011
sg15
I9999
sg16
F0.609
sg17
Nsg18
F0.9066833333333333
sg19
Nsg20
Nsg21
F0.14162428583396786
sg22
F0.54
sg23
Nsg24
Nsg25
I0
ssg26
I01
sg27
I01
sba(iSong
Song
p1012
(dp1013
g3
(dp1014
g5
F0.381
sg6
VDie A Happy Man
p1015
sg8
F0.332384
sg9
F0.383
sg10
S'country'
p1016
sg12
F0.0304
sg13
VThomas Rhett
p1017
sg15
I9999
sg16
F0.66
sg17
Nsg18
F0.8437166666666667
sg19
Nsg20
Nsg21
F0.14162428583396786
sg22
F0.381
sg23
Nsg24
Nsg25
I0
ssg26
I01
sg27
I01
sba(iSong
Song
p1018
(dp1019
g3
(dp1020
g5
F0.456
sg6
VWagon Wheel
p1021
sg8
F0.592408
sg9
F0.663
sg10
S'country'
p1022
sg12
F0.0306
sg13
VDarius Rucker
p1023
sg15
I9999
sg16
F0.529
sg17
Nsg18
F0.8810333333333333
sg19
Nsg20
Nsg21
F0.14162428583396786
sg22
F0.592
sg23
Nsg24
Nsg25
I0
ssg26
I01
sg27
I01
sba(iSong
Song
p1024
(dp1025
g3
(dp1026
g5
F0.368
sg6
VTake Back Home Girl (Feat. Tori Kelly)
p1027
sg8
F0.638832
sg9
F0.78
sg10
S'country'
p1028
sg12
F0.064
sg13
VChris Lane
p1029
sg15
I9999
sg16
F0.494
sg17
Nsg18
F0.9362499999999999
sg19
Nsg20
Nsg21
F0.14162428583396786
sg22
F0.664
sg23
Nsg24
Nsg25
I0
ssg26
I01
sg27
I01
sba(iSong
Song
p1030
(dp1031
g3
(dp1032
g5
F0.201
sg6
VWhatever She's Got
p1033
sg8
F0.641832
sg9
F0.717
sg10
S'country'
p1034
sg12
F0.0421
sg13
VDavid Nail
p1035
sg15
I9999
sg16
F0.53
sg17
Nsg18
F0.8987833333333334
sg19
Nsg20
Nsg21
F0.14162428583396786
sg22
F0.906
sg23
Nsg24
Nsg25
I0
ssg26
I01
sg27
I01
sba(iSong
Song
p1036
(dp1037
g3
(dp1038
g5
F0.000159
sg6
VEven If It Breaks Your Heart
p1039
sg8
F0.416128
sg9
F0.527
sg10
S'country'
p1040
sg12
F0.0277
sg13
VEli Young Band
p1041
sg15
I9999
sg16
F0.667
sg17
Nsg18
F0.9233333333333333
sg19
Nsg20
Nsg21
F0.14162428583396786
sg22
F0.664
sg23
Nsg24
Nsg25
F0.0117
ssg26
I01
sg27
I01
sba(iSong
Song
p1042
(dp1043
g3
(dp1044
g5
F0.0209
sg6
VBlue Tacoma
p1045
sg8
F0.6405
sg9
F0.894
sg10
S'country'
p1046
sg12
F0.0398
sg13
VRussell Dickerson
p1047
sg15
I9999
sg16
F0.458
sg17
Nsg18
F0.9182833333333333
sg19
Nsg20
Nsg21
F0.14162428583396786
sg22
F0.717
sg23
Nsg24
Nsg25
I0
ssg26
I01
sg27
I01
sba(iSong
Song
p1048
(dp1049
g3
(dp1050
g5
F0.0458
sg6
VHow Country Feels
p1051
sg8
F0.41977600000000004
sg9
F0.847
sg10
S'country'
p1052
sg12
F0.0396
sg13
VRandy Houser
p1053
sg15
I9999
sg16
F0.677
sg17
Nsg18
F0.9398666666666667
sg19
Nsg20
Nsg21
F0.14162428583396786
sg22
F0.806
sg23
Nsg24
Nsg25
I0
ssg26
I01
sg27
I01
sba(iSong
Song
p1054
(dp1055
g3
(dp1056
g5
F0.0352
sg6
VBackroad Song
p1057
sg8
F0.696024
sg9
F0.833
sg10
S'country'
p1058
sg12
F0.0437
sg13
VGranger Smith
p1059
sg15
I9999
sg16
F0.488
sg17
Nsg18
F0.8904833333333334
sg19
Nsg20
Nsg21
F0.14162428583396786
sg22
F0.751
sg23
Nsg24
Nsg25
F0.0172
ssg26
I01
sg27
I01
sba(iSong
Song
p1060
(dp1061
g3
(dp1062
g5
F0.129
sg6
VHouse Party
p1063
sg8
F0.415808
sg9
F0.854
sg10
S'country'
p1064
sg12
F0.0503
sg13
VSam Hunt
p1065
sg15
I9999
sg16
F0.749
sg17
Nsg18
F0.9125833333333334
sg19
Nsg20
Nsg21
F0.14162428583396786
sg22
F0.842
sg23
Nsg24
Nsg25
I0
ssg26
I01
sg27
I01
sba(iSong
Song
p1066
(dp1067
g3
(dp1068
g5
F0.00898
sg6
VWhat Ifs
p1069
sg8
F0.503904
sg9
F0.799
sg10
S'country'
p1070
sg12
F0.0275
sg13
VKane Brown
p1071
sg15
I9999
sg16
F0.612
sg17
Nsg18
F0.9232833333333333
sg19
Nsg20
Nsg21
F0.14162428583396786
sg22
F0.687
sg23
Nsg24
Nsg25
I0
ssg26
I01
sg27
I01
sba(iSong
Song
p1072
(dp1073
g3
(dp1074
g5
F0.0538
sg6
VTalladega
p1075
sg8
F0.576
sg9
F0.672
sg10
S'country'
p1076
sg12
F0.0294
sg13
VEric Church
p1077
sg15
I9999
sg16
F0.584
sg17
Nsg18
F0.8615166666666667
sg19
Nsg20
Nsg21
F0.14162428583396786
sg22
F0.556
sg23
Nsg24
Nsg25
F0.0481
ssg26
I01
sg27
I01
sba(iSong
Song
p1078
(dp1079
g3
(dp1080
g5
F0.032
sg6
VUnforgettable
p1081
sg8
F0.52008
sg9
F0.738
sg10
S'country'
p1082
sg12
F0.0303
sg13
VThomas Rhett
p1083
sg15
I9999
sg16
F0.663
sg17
Nsg18
F0.9086666666666666
sg19
Nsg20
Nsg21
F0.14162428583396786
sg22
F0.825
sg23
Nsg24
Nsg25
F0.000225
ssg26
I01
sg27
I01
sba(iSong
Song
p1084
(dp1085
g3
(dp1086
g5
F0.0406
sg6
VMay We All
p1087
sg8
F0.300076
sg9
F0.915
sg10
S'country'
p1088
sg12
F0.0389
sg13
VFlorida Georgia Line
p1089
sg15
I9999
sg16
F0.488
sg17
Nsg18
F0.9290833333333333
sg19
Nsg20
Nsg21
F0.14162428583396786
sg22
F0.646
sg23
Nsg24
Nsg25
I0
ssg26
I01
sg27
I01
sba(iSong
Song
p1090
(dp1091
g3
(dp1092
g5
F0.00647
sg6
VYeah
p1093
sg8
F0.662852
sg9
F0.843
sg10
S'country'
p1094
sg12
F0.0531
sg13
VJoe Nichols
p1095
sg15
I9999
sg16
F0.414
sg17
Nsg18
F0.9227000000000001
sg19
Nsg20
Nsg21
F0.14162428583396786
sg22
F0.572
sg23
Nsg24
Nsg25
F1.52e-05
ssg26
I01
sg27
I01
sba(iSong
Song
p1096
(dp1097
g3
(dp1098
g5
F0.0127
sg6
VLove You Like That
p1099
sg8
F0.5805159999999999
sg9
F0.756
sg10
S'country'
p1100
sg12
F0.0287
sg13
VCanaan Smith
p1101
sg15
I9999
sg16
F0.561
sg17
Nsg18
F0.9157333333333334
sg19
Nsg20
Nsg21
F0.14162428583396786
sg22
F0.702
sg23
Nsg24
Nsg25
F8.34e-05
ssg26
I01
sg27
I01
sba(iSong
Song
p1102
(dp1103
g3
(dp1104
g5
F0.0886
sg6
VDrinking Class
p1105
sg8
F0.436012
sg9
F0.53
sg10
S'country'
p1106
sg12
F0.0301
sg13
VLee Brice
p1107
sg15
I9999
sg16
F0.663
sg17
Nsg18
F0.8372833333333334
sg19
Nsg20
Nsg21
F0.14162428583396786
sg22
F0.269
sg23
Nsg24
Nsg25
I0
ssg26
I01
sg27
I01
sba(iSong
Song
p1108
(dp1109
g3
(dp1110
g5
F0.0627
sg6
VGet Me Some Of That
p1111
sg8
F0.351952
sg9
F0.86
sg10
S'country'
p1112
sg12
F0.0487
sg13
VThomas Rhett
p1113
sg15
I9999
sg16
F0.544
sg17
Nsg18
F0.9119499999999999
sg19
Nsg20
Nsg21
F0.14162428583396786
sg22
F0.796
sg23
Nsg24
Nsg25
I0
ssg26
I01
sg27
I01
sba(iSong
Song
p1114
(dp1115
g3
(dp1116
g5
F0.0718
sg6
VBreak Up with Him
p1117
sg8
F0.608344
sg9
F0.65
sg10
S'country'
p1118
sg12
F0.0347
sg13
VOld Dominion
p1119
sg15
I9999
sg16
F0.615
sg17
Nsg18
F0.9176
sg19
Nsg20
Nsg21
F0.14162428583396786
sg22
F0.548
sg23
Nsg24
Nsg25
I0
ssg26
I01
sg27
I01
sba(iSong
Song
p1120
(dp1121
g3
(dp1122
g5
F0.0208
sg6
VThis Is How We Roll
p1123
sg8
F0.528332
sg9
F0.933
sg10
S'country'
p1124
sg12
F0.0384
sg13
VFlorida Georgia Line
p1125
sg15
I9999
sg16
F0.56
sg17
Nsg18
F0.9505166666666667
sg19
Nsg20
Nsg21
F0.14162428583396786
sg22
F0.72
sg23
Nsg24
Nsg25
I0
ssg26
I01
sg27
I01
sba(iSong
Song
p1126
(dp1127
g3
(dp1128
g5
F0.127
sg6
VSomebody Like You
p1129
sg8
F0.443856
sg9
F0.887
sg10
S'country'
p1130
sg12
F0.0381
sg13
VKeith Urban
p1131
sg15
I9999
sg16
F0.646
sg17
Nsg18
F0.9258000000000001
sg19
Nsg20
Nsg21
F0.14162428583396786
sg22
F0.523
sg23
Nsg24
Nsg25
F0.000259
ssg26
I01
sg27
I01
sba(iSong
Song
p1132
(dp1133
g3
(dp1134
g5
F0.432
sg6
VKnee Deep (feat. Jimmy Buffett)
p1135
sg8
F0.363948
sg9
F0.584
sg10
S'country'
p1136
sg12
F0.0296
sg13
VZac Brown Band
p1137
sg15
I9999
sg16
F0.715
sg17
Nsg18
F0.8628166666666667
sg19
Nsg20
Nsg21
F0.14162428583396786
sg22
F0.61
sg23
Nsg24
Nsg25
F1.41e-06
ssg26
I01
sg27
I01
sba(iSong
Song
p1138
(dp1139
g3
(dp1140
g5
F0.254
sg6
VLet Me See Ya Girl
p1141
sg8
F0.37195999999999996
sg9
F0.834
sg10
S'country'
p1142
sg12
F0.0281
sg13
VCole Swindell
p1143
sg15
I9999
sg16
F0.523
sg17
Nsg18
F0.94065
sg19
Nsg20
Nsg21
F0.14162428583396786
sg22
F0.445
sg23
Nsg24
Nsg25
I0
ssg26
I01
sg27
I01
sba(iSong
Song
p1144
(dp1145
g3
(dp1146
g5
F0.0371
sg6
VRunnin' Outta Moonlight
p1147
sg8
F0.6882
sg9
F0.801
sg10
S'country'
p1148
sg12
F0.0393
sg13
VRandy Houser
p1149
sg15
I9999
sg16
F0.532
sg17
Nsg18
F0.93735
sg19
Nsg20
Nsg21
F0.14162428583396786
sg22
F0.799
sg23
Nsg24
Nsg25
F7.07e-06
ssg26
I01
sg27
I01
sba(iSong
Song
p1150
(dp1151
g3
(dp1152
g5
F0.361
sg6
VH.O.L.Y.
p1153
sg8
F0.31252800000000003
sg9
F0.661
sg10
S'country'
p1154
sg12
F0.0333
sg13
VFlorida Georgia Line
p1155
sg15
I9999
sg16
F0.526
sg17
Nsg18
F0.9361999999999999
sg19
Nsg20
Nsg21
F0.14162428583396786
sg22
F0.556
sg23
Nsg24
Nsg25
I0
ssg26
I01
sg27
I01
sba(iSong
Song
p1156
(dp1157
g3
(dp1158
g5
F0.168
sg6
VMake You Miss Me
p1159
sg8
F0.5841040000000001
sg9
F0.468
sg10
S'country'
p1160
sg12
F0.0314
sg13
VSam Hunt
p1161
sg15
I9999
sg16
F0.612
sg17
Nsg18
F0.89005
sg19
Nsg20
Nsg21
F0.14162428583396786
sg22
F0.165
sg23
Nsg24
Nsg25
I0
ssg26
I01
sg27
I01
sba(iSong
Song
p1162
(dp1163
g3
(dp1164
g5
F0.0189
sg6
VHomegrown
p1165
sg8
F0.420068
sg9
F0.796
sg10
S'country'
p1166
sg12
F0.0303
sg13
VZac Brown Band
p1167
sg15
I9999
sg16
F0.717
sg17
Nsg18
F0.9387166666666666
sg19
Nsg20
Nsg21
F0.14162428583396786
sg22
F0.942
sg23
Nsg24
Nsg25
F8.94e-05
ssg26
I01
sg27
I01
sba(iSong
Song
p1168
(dp1169
g3
(dp1170
g5
F0.161
sg6
VThis Night Back
p1171
sg8
F0.640668
sg9
F0.863
sg10
S'country'
p1172
sg12
F0.04
sg13
VCanaan Smith
p1173
sg15
I9999
sg16
F0.587
sg17
Nsg18
F0.91995
sg19
Nsg20
Nsg21
F0.14162428583396786
sg22
F0.537
sg23
Nsg24
Nsg25
I0
ssg26
I01
sg27
I01
sba(iSong
Song
p1174
(dp1175
g3
(dp1176
g5
F0.247
sg6
VNight's On Fire
p1177
sg8
F0.656116
sg9
F0.779
sg10
S'country'
p1178
sg12
F0.0432
sg13
VDavid Nail
p1179
sg15
I9999
sg16
F0.539
sg17
Nsg18
F0.9310166666666666
sg19
Nsg20
Nsg21
F0.14162428583396786
sg22
F0.705
sg23
Nsg24
Nsg25
F2.71e-06
ssg26
I01
sg27
I01
sba(iSong
Song
p1180
(dp1181
g3
(dp1182
g5
F0.0408
sg6
VStay A Little Longer
p1183
sg8
F0.388024
sg9
F0.882
sg10
S'country'
p1184
sg12
F0.0294
sg13
VBrothers Osborne
p1185
sg15
I9999
sg16
F0.553
sg17
Nsg18
F0.9080833333333334
sg19
Nsg20
Nsg21
F0.14162428583396786
sg22
F0.529
sg23
Nsg24
Nsg25
F0.241
ssg26
I01
sg27
I01
sba(iSong
Song
p1186
(dp1187
g3
(dp1188
g5
F0.000907
sg6
VCraving You
p1189
sg8
F0.41994400000000004
sg9
F0.841
sg10
S'country'
p1190
sg12
F0.0353
sg13
VThomas Rhett
p1191
sg15
I9999
sg16
F0.612
sg17
Nsg18
F0.93675
sg19
Nsg20
Nsg21
F0.14162428583396786
sg22
F0.499
sg23
Nsg24
Nsg25
I0
ssg26
I01
sg27
I01
sba(iSong
Song
p1192
(dp1193
g3
(dp1194
g5
F0.0484
sg6
VDon't It
p1195
sg8
F0.36386399999999997
sg9
F0.824
sg10
S'country'
p1196
sg12
F0.0373
sg13
VBilly Currington
p1197
sg15
I9999
sg16
F0.573
sg17
Nsg18
F0.92595
sg19
Nsg20
Nsg21
F0.14162428583396786
sg22
F0.668
sg23
Nsg24
Nsg25
I0
ssg26
I01
sg27
I01
sba(iSong
Song
p1198
(dp1199
g3
(dp1200
g5
F0.463
sg6
VBody Like A Back Road
p1201
sg8
F0.395852
sg9
F0.469
sg10
S'country'
p1202
sg12
F0.0326
sg13
VSam Hunt
p1203
sg15
I9999
sg16
F0.731
sg17
Nsg18
F0.8795666666666667
sg19
Nsg20
Nsg21
F0.14162428583396786
sg22
F0.631
sg23
Nsg24
Nsg25
F1.04e-06
ssg26
I01
sg27
I01
sba(iSong
Song
p1204
(dp1205
g3
(dp1206
g5
F0.0697
sg6
VSomethin' 'Bout A Truck
p1207
sg8
F0.70404
sg9
F0.794
sg10
S'country'
p1208
sg12
F0.035
sg13
VKip Moore
p1209
sg15
I9999
sg16
F0.554
sg17
Nsg18
F0.9097166666666666
sg19
Nsg20
Nsg21
F0.14162428583396786
sg22
F0.79
sg23
Nsg24
Nsg25
I0
ssg26
I01
sg27
I01
sba(iSong
Song
p1210
(dp1211
g3
(dp1212
g5
F0.183
sg6
VTake A Back Road
p1213
sg8
F0.679608
sg9
F0.856
sg10
S'country'
p1214
sg12
F0.0783
sg13
VRodney Atkins
p1215
sg15
I9999
sg16
F0.581
sg17
Nsg18
I0
sg19
Nsg20
Nsg21
F0.14162428583396786
sg22
F0.918
sg23
Nsg24
Nsg25
I0
ssg26
I01
sg27
I01
sba(iSong
Song
p1216
(dp1217
g3
(dp1218
g5
F0.0318
sg6
VT-Shirt
p1219
sg8
F0.383984
sg9
F0.857
sg10
S'country'
p1220
sg12
F0.0397
sg13
VThomas Rhett
p1221
sg15
I9999
sg16
F0.647
sg17
Nsg18
F0.9103166666666667
sg19
Nsg20
Nsg21
F0.14162428583396786
sg22
F0.771
sg23
Nsg24
Nsg25
I0
ssg26
I01
sg27
I01
sba(iSong
Song
p1222
(dp1223
g3
(dp1224
g5
F0.645
sg6
VChicken Fried
p1225
sg8
F0.6794560000000001
sg9
F0.713
sg10
S'country'
p1226
sg12
F0.0417
sg13
VZac Brown Band
p1227
sg15
I9999
sg16
F0.566
sg17
Nsg18
F0.9291666666666667
sg19
Nsg20
Nsg21
F0.14162428583396786
sg22
F0.807
sg23
Nsg24
Nsg25
I0
ssg26
I01
sg27
I01
sba(iSong
Song
p1228
(dp1229
g3
(dp1230
g5
F0.0996
sg6
VLeave The Night On
p1231
sg8
F0.687884
sg9
F0.953
sg10
S'country'
p1232
sg12
F0.0624
sg13
VSam Hunt
p1233
sg15
I9999
sg16
F0.516
sg17
Nsg18
F0.9361999999999999
sg19
Nsg20
Nsg21
F0.14162428583396786
sg22
F0.852
sg23
Nsg24
Nsg25
I0
ssg26
I01
sg27
I01
sba(iSong
Song
p1234
(dp1235
g3
(dp1236
g5
F0.0164
sg6
VI Love This Life
p1237
sg8
F0.44812
sg9
F0.917
sg10
S'country'
p1238
sg12
F0.0541
sg13
VLOCASH
p1239
sg15
I9999
sg16
F0.592
sg17
Nsg18
F0.94905
sg19
Nsg20
Nsg21
F0.14162428583396786
sg22
F0.572
sg23
Nsg24
Nsg25
F1.23e-06
ssg26
I01
sg27
I01
sba(iSong
Song
p1240
(dp1241
g3
(dp1242
g5
F0.013
sg6
VSleep Without You
p1243
sg8
F0.354164
sg9
F0.716
sg10
S'country'
p1244
sg12
F0.0432
sg13
VBrett Young
p1245
sg15
I9999
sg16
F0.631
sg17
Nsg18
F0.9047833333333333
sg19
Nsg20
Nsg21
F0.14162428583396786
sg22
F0.647
sg23
Nsg24
Nsg25
I0
ssg26
I01
sg27
I01
sba(iSong
Song
p1246
(dp1247
g3
(dp1248
g5
F0.119
sg6
VStar Of The Show
p1249
sg8
F0.40800400000000003
sg9
F0.629
sg10
S'country'
p1250
sg12
F0.0275
sg13
VThomas Rhett
p1251
sg15
I9999
sg16
F0.691
sg17
Nsg18
F0.9028666666666666
sg19
Nsg20
Nsg21
F0.14162428583396786
sg22
F0.606
sg23
Nsg24
Nsg25
I0
ssg26
I01
sg27
I01
sba(iSong
Song
p1252
(dp1253
g3
(dp1254
g5
F0.593
sg6
VWritten in the Sand
p1255
sg8
F0.33594
sg9
F0.437
sg10
S'country'
p1256
sg12
F0.0575
sg13
VOld Dominion
p1257
sg15
I9999
sg16
F0.725
sg17
Nsg18
F0.8399666666666666
sg19
Nsg20
Nsg21
F0.14162428583396786
sg22
F0.759
sg23
Nsg24
Nsg25
I0
ssg26
I01
sg27
I01
sba(iSong
Song
p1258
(dp1259
g3
(dp1260
g5
F0.168
sg6
VMake You Miss Me
p1261
sg8
F0.5841040000000001
sg9
F0.468
sg10
S'country'
p1262
sg12
F0.0314
sg13
VSam Hunt
p1263
sg15
I9999
sg16
F0.612
sg17
Nsg18
F0.89005
sg19
Nsg20
Nsg21
F0.14162428583396786
sg22
F0.165
sg23
Nsg24
Nsg25
I0
ssg26
I01
sg27
I01
sba(iSong
Song
p1264
(dp1265
g3
(dp1266
g5
F0.0282
sg6
VI'm Comin' Over
p1267
sg8
F0.511988
sg9
F0.845
sg10
S'country'
p1268
sg12
F0.035
sg13
VChris Young
p1269
sg15
I9999
sg16
F0.575
sg17
Nsg18
F0.9360333333333333
sg19
Nsg20
Nsg21
F0.14162428583396786
sg22
F0.376
sg23
Nsg24
Nsg25
I0
ssg26
I01
sg27
I01
sba(iSong
Song
p1270
(dp1271
g3
(dp1272
g5
F0.0244
sg6
VSmall Town Boy
p1273
sg8
F0.292132
sg9
F0.747
sg10
S'country'
p1274
sg12
F0.0292
sg13
VDustin Lynch
p1275
sg15
I9999
sg16
F0.553
sg17
Nsg18
F0.9015833333333333
sg19
Nsg20
Nsg21
F0.14162428583396786
sg22
F0.711
sg23
Nsg24
Nsg25
I0
ssg26
I01
sg27
I01
sba(iSong
Song
p1276
(dp1277
g3
(dp1278
g5
F0.186
sg6
VAin't Always Pretty
p1279
sg8
F0.640208
sg9
F0.78
sg10
S'country'
p1280
sg12
F0.0459
sg13
VLogan Mize
p1281
sg15
I9999
sg16
F0.56
sg17
Nsg18
F0.9139333333333333
sg19
Nsg20
Nsg21
F0.14162428583396786
sg22
F0.46
sg23
Nsg24
Nsg25
I0
ssg26
I01
sg27
I01
sba(iSong
Song
p1282
(dp1283
g3
(dp1284
g5
F0.047
sg6
VMeant to Be (feat. Florida Georgia Line)
p1285
sg8
F0.616336
sg9
F0.783
sg10
S'country'
p1286
sg12
F0.0856
sg13
VBebe Rexha
p1287
sg15
I9999
sg16
F0.643
sg17
Nsg18
F0.8923666666666666
sg19
Nsg20
Nsg21
F0.14162428583396786
sg22
F0.579
sg23
Nsg24
Nsg25
I0
ssg26
I01
sg27
I01
sba(iSong
Song
p1288
(dp1289
g3
(dp1290
g5
F0.0832
sg6
VPlay It Again
p1291
sg8
F0.5762240000000001
sg9
F0.898
sg10
S'country'
p1292
sg12
F0.0696
sg13
VLuke Bryan
p1293
sg15
I9999
sg16
F0.51
sg17
Nsg18
F0.9475
sg19
Nsg20
Nsg21
F0.14162428583396786
sg22
F0.596
sg23
Nsg24
Nsg25
I0
ssg26
I01
sg27
I01
sba(iSong
Song
p1294
(dp1295
g3
(dp1296
g5
F0.484
sg6
VBody Like A Back Road
p1297
sg8
F0.395836
sg9
F0.466
sg10
S'country'
p1298
sg12
F0.0327
sg13
VSam Hunt
p1299
sg15
I9999
sg16
F0.731
sg17
Nsg18
F0.8796833333333333
sg19
Nsg20
Nsg21
F0.14162428583396786
sg22
F0.653
sg23
Nsg24
Nsg25
F1.42e-06
ssg26
I01
sg27
I01
sba(iSong
Song
p1300
(dp1301
g3
(dp1302
g5
F0.349
sg6
VTake Back Home Girl (Feat. Tori Kelly)
p1303
sg8
F0.64012
sg9
F0.798
sg10
S'country'
p1304
sg12
F0.0705
sg13
VChris Lane
p1305
sg15
I9999
sg16
F0.488
sg17
Nsg18
F0.9357500000000001
sg19
Nsg20
Nsg21
F0.14162428583396786
sg22
F0.613
sg23
Nsg24
Nsg25
I0
ssg26
I01
sg27
I01
sba(iSong
Song
p1306
(dp1307
g3
(dp1308
g5
F0.0677
sg6
VLosing Sleep
p1309
sg8
F0.368012
sg9
F0.628
sg10
S'country'
p1310
sg12
F0.0431
sg13
VChris Young
p1311
sg15
I9999
sg16
F0.587
sg17
Nsg18
F0.9049499999999999
sg19
Nsg20
Nsg21
F0.14162428583396786
sg22
F0.649
sg23
Nsg24
Nsg25
F1.88e-06
ssg26
I01
sg27
I01
sba(iSong
Song
p1312
(dp1313
g3
(dp1314
g5
F0.00566
sg6
VClose
p1315
sg8
F0.320072
sg9
F0.86
sg10
S'country'
p1316
sg12
F0.0347
sg13
VRyan Kinder
p1317
sg15
I9999
sg16
F0.479
sg17
Nsg18
F0.9280333333333334
sg19
Nsg20
Nsg21
F0.14162428583396786
sg22
F0.743
sg23
Nsg24
Nsg25
I0
ssg26
I01
sg27
I01
sba(iSong
Song
p1318
(dp1319
g3
(dp1320
g5
F0.0119
sg6
VHard To Love
p1321
sg8
F0.412068
sg9
F0.722
sg10
S'country'
p1322
sg12
F0.0332
sg13
VLee Brice
p1323
sg15
I9999
sg16
F0.638
sg17
Nsg18
F0.89705
sg19
Nsg20
Nsg21
F0.14162428583396786
sg22
F0.469
sg23
Nsg24
Nsg25
F0.00808
ssg26
I01
sg27
I01
sba(iSong
Song
p1324
(dp1325
g3
(dp1326
g5
F0.214
sg6
VI Could Use a Love Song
p1327
sg8
F0.368388
sg9
F0.634
sg10
S'country'
p1328
sg12
F0.0468
sg13
VMaren Morris
p1329
sg15
I9999
sg16
F0.638
sg17
Nsg18
F0.8920999999999999
sg19
Nsg20
Nsg21
F0.14162428583396786
sg22
F0.473
sg23
Nsg24
Nsg25
I0
ssg26
I01
sg27
I01
sba(iSong
Song
p1330
(dp1331
g3
(dp1332
g5
F0.0353
sg6
VRoller Coaster
p1333
sg8
F0.432028
sg9
F0.776
sg10
S'country'
p1334
sg12
F0.037
sg13
VLuke Bryan
p1335
sg15
I9999
sg16
F0.601
sg17
Nsg18
F0.9258000000000001
sg19
Nsg20
Nsg21
F0.14162428583396786
sg22
F0.269
sg23
Nsg24
Nsg25
F4.23e-05
ssg26
I01
sg27
I01
sba(iSong
Song
p1336
(dp1337
g3
(dp1338
g5
F0.356
sg6
VFrom the Ground Up
p1339
sg8
F0.404856
sg9
F0.586
sg10
S'country'
p1340
sg12
F0.0262
sg13
VDan + Shay
p1341
sg15
I9999
sg16
F0.524
sg17
Nsg18
F0.9094833333333334
sg19
Nsg20
Nsg21
F0.14162428583396786
sg22
F0.285
sg23
Nsg24
Nsg25
I0
ssg26
I01
sg27
I01
sba(iSong
Song
p1342
(dp1343
g3
(dp1344
g5
F0.00481
sg6
VGod Gave Me You
p1345
sg8
F0.607908
sg9
F0.844
sg10
S'country'
p1346
sg12
F0.0314
sg13
VBlake Shelton
p1347
sg15
I9999
sg16
F0.483
sg17
Nsg18
F0.91595
sg19
Nsg20
Nsg21
F0.14162428583396786
sg22
F0.543
sg23
Nsg24
Nsg25
F7.29e-05
ssg26
I01
sg27
I01
sba(iSong
Song
p1348
(dp1349
g3
(dp1350
g5
F0.9
sg6
VI Met A Girl - Acoustic Mixtape
p1351
sg8
F0.347868
sg9
F0.637
sg10
S'country'
p1352
sg12
F0.0515
sg13
VSam Hunt
p1353
sg15
I9999
sg16
F0.41
sg17
Nsg18
F0.8678
sg19
Nsg20
Nsg21
F0.14162428583396786
sg22
F0.54
sg23
Nsg24
Nsg25
I0
ssg26
I01
sg27
I01
sba(iSong
Song
p1354
(dp1355
g3
(dp1356
g5
F0.0006
sg6
VCrazy Girl
p1357
sg8
F0.6038640000000001
sg9
F0.708
sg10
S'country'
p1358
sg12
F0.0315
sg13
VEli Young Band
p1359
sg15
I9999
sg16
F0.358
sg17
Nsg18
F0.9377333333333334
sg19
Nsg20
Nsg21
F0.14162428583396786
sg22
F0.227
sg23
Nsg24
Nsg25
F0.00498
ssg26
I01
sg27
I01
sba(iSong
Song
p1360
(dp1361
g3
(dp1362
g5
F0.000907
sg6
VCraving You
p1363
sg8
F0.41994400000000004
sg9
F0.841
sg10
S'country'
p1364
sg12
F0.0353
sg13
VThomas Rhett
p1365
sg15
I9999
sg16
F0.612
sg17
Nsg18
F0.93675
sg19
Nsg20
Nsg21
F0.14162428583396786
sg22
F0.499
sg23
Nsg24
Nsg25
I0
ssg26
I01
sg27
I01
sba(iSong
Song
p1366
(dp1367
g3
(dp1368
g5
F0.273
sg6
VHometown Girl
p1369
sg8
F0.624016
sg9
F0.81
sg10
S'country'
p1370
sg12
F0.0317
sg13
VJosh Turner
p1371
sg15
I9999
sg16
F0.507
sg17
Nsg18
F0.9062
sg19
Nsg20
Nsg21
F0.14162428583396786
sg22
F0.498
sg23
Nsg24
Nsg25
F0.0567
ssg26
I01
sg27
I01
sba(iSong
Song
p1372
(dp1373
g3
(dp1374
g5
F0.334
sg6
VGet to You
p1375
sg8
F0.6717519999999999
sg9
F0.565
sg10
S'country'
p1376
sg12
F0.0326
sg13
VMichael Ray
p1377
sg15
I9999
sg16
F0.486
sg17
Nsg18
F0.9057499999999999
sg19
Nsg20
Nsg21
F0.14162428583396786
sg22
F0.21
sg23
Nsg24
Nsg25
F0.00041
ssg26
I01
sg27
I01
sba(iSong
Song
p1378
(dp1379
g3
(dp1380
g5
F0.255
sg6
VSure Be Cool If You Did
p1381
sg8
F0.5472079999999999
sg9
F0.726
sg10
S'country'
p1382
sg12
F0.035
sg13
VBlake Shelton
p1383
sg15
I9999
sg16
F0.576
sg17
Nsg18
F0.9229166666666667
sg19
Nsg20
Nsg21
F0.14162428583396786
sg22
F0.582
sg23
Nsg24
Nsg25
I0
ssg26
I01
sg27
I01
sba(iSong
Song
p1384
(dp1385
g3
(dp1386
g5
F0.143
sg6
VKiss Somebody
p1387
sg8
F0.71204
sg9
F0.681
sg10
S'country'
p1388
sg12
F0.075
sg13
VMorgan Evans
p1389
sg15
I9999
sg16
F0.492
sg17
Nsg18
F0.8827
sg19
Nsg20
Nsg21
F0.14162428583396786
sg22
F0.511
sg23
Nsg24
Nsg25
I0
ssg26
I01
sg27
I01
sba(iSong
Song
p1390
(dp1391
g3
(dp1392
g5
F0.144
sg6
VAll On Me
p1393
sg8
F0.323984
sg9
F0.658
sg10
S'country'
p1394
sg12
F0.0281
sg13
VDevin Dawson
p1395
sg15
I9999
sg16
F0.631
sg17
Nsg18
F0.91145
sg19
Nsg20
Nsg21
F0.14162428583396786
sg22
F0.7
sg23
Nsg24
Nsg25
I0
ssg26
I01
sg27
I01
sba(iSong
Song
p1396
(dp1397
g3
(dp1398
g5
F0.000937
sg6
VThink of You
p1399
sg8
F0.447836
sg9
F0.893
sg10
S'country'
p1400
sg12
F0.0375
sg13
VChris Young
p1401
sg15
I9999
sg16
F0.616
sg17
Nsg18
F0.9402
sg19
Nsg20
Nsg21
F0.14162428583396786
sg22
F0.567
sg23
Nsg24
Nsg25
I0
ssg26
I01
sg27
I01
sba(iSong
Song
p1402
(dp1403
g3
(dp1404
g5
F0.126
sg6
VIt Goes Like This
p1405
sg8
F0.672192
sg9
F0.84
sg10
S'country'
p1406
sg12
F0.0634
sg13
VThomas Rhett
p1407
sg15
I9999
sg16
F0.533
sg17
Nsg18
F0.8937166666666666
sg19
Nsg20
Nsg21
F0.14162428583396786
sg22
F0.529
sg23
Nsg24
Nsg25
I0
ssg26
I01
sg27
I01
sba(iSong
Song
p1408
(dp1409
g3
(dp1410
g5
F0.361
sg6
VH.O.L.Y.
p1411
sg8
F0.31252800000000003
sg9
F0.661
sg10
S'country'
p1412
sg12
F0.0333
sg13
VFlorida Georgia Line
p1413
sg15
I9999
sg16
F0.526
sg17
Nsg18
F0.9361999999999999
sg19
Nsg20
Nsg21
F0.14162428583396786
sg22
F0.556
sg23
Nsg24
Nsg25
I0
ssg26
I01
sg27
I01
sba(iSong
Song
p1414
(dp1415
g3
(dp1416
g5
F0.414
sg6
VDrunk On Your Love
p1417
sg8
F0.728256
sg9
F0.831
sg10
S'country'
p1418
sg12
F0.0616
sg13
VBrett Eldredge
p1419
sg15
I9999
sg16
F0.443
sg17
Nsg18
F0.9065666666666666
sg19
Nsg20
Nsg21
F0.14162428583396786
sg22
F0.588
sg23
Nsg24
Nsg25
I0
ssg26
I01
sg27
I01
sba(iSong
Song
p1420
(dp1421
g3
(dp1422
g5
F0.672
sg6
VStill Fallin
p1423
sg8
F0.343696
sg9
F0.387
sg10
S'country'
p1424
sg12
F0.0281
sg13
VHunter Hayes
p1425
sg15
I9999
sg16
F0.459
sg17
Nsg18
F0.85985
sg19
Nsg20
Nsg21
F0.14162428583396786
sg22
F0.283
sg23
Nsg24
Nsg25
I0
ssg26
I01
sg27
I01
sba(iSong
Song
p1426
(dp1427
g3
(dp1428
g5
F0.38
sg6
VGreatest Love Story
p1429
sg8
F0.5919
sg9
F0.621
sg10
S'country'
p1430
sg12
F0.0524
sg13
VLANCO
p1431
sg15
I9999
sg16
F0.665
sg17
Nsg18
F0.8571500000000001
sg19
Nsg20
Nsg21
F0.14162428583396786
sg22
F0.632
sg23
Nsg24
Nsg25
I0
ssg26
I01
sg27
I01
sba(iSong
Song
p1432
(dp1433
g3
(dp1434
g5
F0.353
sg6
VWhole Lot in Love
p1435
sg8
F0.448108
sg9
F0.715
sg10
S'country'
p1436
sg12
F0.0377
sg13
VAustin Burke
p1437
sg15
I9999
sg16
F0.791
sg17
Nsg18
F0.9031833333333333
sg19
Nsg20
Nsg21
F0.14162428583396786
sg22
F0.593
sg23
Nsg24
Nsg25
I0
ssg26
I01
sg27
I01
sba(iSong
Song
p1438
(dp1439
g3
(dp1440
g5
F0.151
sg6
VNothin' Like You
p1441
sg8
F0.339824
sg9
F0.704
sg10
S'country'
p1442
sg12
F0.0303
sg13
VDan + Shay
p1443
sg15
I9999
sg16
F0.589
sg17
Nsg18
F0.9204666666666667
sg19
Nsg20
Nsg21
F0.14162428583396786
sg22
F0.437
sg23
Nsg24
Nsg25
I0
ssg26
I01
sg27
I01
sba(iSong
Song
p1444
(dp1445
g3
(dp1446
g5
F0.0356
sg6
VStay A Little Longer
p1447
sg8
F0.387944
sg9
F0.879
sg10
S'country'
p1448
sg12
F0.0296
sg13
VBrothers Osborne
p1449
sg15
I9999
sg16
F0.556
sg17
Nsg18
F0.91165
sg19
Nsg20
Nsg21
F0.14162428583396786
sg22
F0.54
sg23
Nsg24
Nsg25
F0.121
ssg26
I01
sg27
I01
sba(iSong
Song
p1450
(dp1451
g3
(dp1452
g5
F0.0441
sg6
VSingles You Up
p1453
sg8
F0.800216
sg9
F0.9
sg10
S'country'
p1454
sg12
F0.0488
sg13
VJordan Davis
p1455
sg15
I9999
sg16
F0.489
sg17
Nsg18
F0.9406166666666667
sg19
Nsg20
Nsg21
F0.14162428583396786
sg22
F0.611
sg23
Nsg24
Nsg25
I0
ssg26
I01
sg27
I01
sba(iSong
Song
p1456
(dp1457
g3
(dp1458
g5
F0.268
sg6
VWanted
p1459
sg8
F0.679136
sg9
F0.476
sg10
S'country'
p1460
sg12
F0.0298
sg13
VHunter Hayes
p1461
sg15
I9999
sg16
F0.421
sg17
Nsg18
F0.8718
sg19
Nsg20
Nsg21
F0.14162428583396786
sg22
F0.3
sg23
Nsg24
Nsg25
I0
ssg26
I01
sg27
I01
sba(iSong
Song
p1462
(dp1463
g3
(dp1464
g5
F0.115
sg6
VMean To Me
p1465
sg8
F0.351976
sg9
F0.586
sg10
S'country'
p1466
sg12
F0.0313
sg13
VBrett Eldredge
p1467
sg15
I9999
sg16
F0.647
sg17
Nsg18
F0.8852833333333333
sg19
Nsg20
Nsg21
F0.14162428583396786
sg22
F0.165
sg23
Nsg24
Nsg25
F1.69e-06
ssg26
I01
sg27
I01
sba(iSong
Song
p1468
(dp1469
g3
(dp1470
g5
F0.395
sg6
VDifferent For Girls
p1471
sg8
F0.368028
sg9
F0.772
sg10
S'country'
p1472
sg12
F0.0358
sg13
VDierks Bentley
p1473
sg15
I9999
sg16
F0.659
sg17
Nsg18
F0.9067666666666666
sg19
Nsg20
Nsg21
F0.14162428583396786
sg22
F0.381
sg23
Nsg24
Nsg25
F0.000443
ssg26
I01
sg27
I01
sba(iSong
Song
p1474
(dp1475
g3
(dp1476
g5
F0.032
sg6
VUnforgettable
p1477
sg8
F0.52008
sg9
F0.738
sg10
S'country'
p1478
sg12
F0.0303
sg13
VThomas Rhett
p1479
sg15
I9999
sg16
F0.663
sg17
Nsg18
F0.9086666666666666
sg19
Nsg20
Nsg21
F0.14162428583396786
sg22
F0.825
sg23
Nsg24
Nsg25
F0.000225
ssg26
I01
sg27
I01
sba(iSong
Song
p1480
(dp1481
g3
(dp1482
g5
F0.1
sg6
VCome Over
p1483
sg8
F0.704172
sg9
F0.704
sg10
S'country'
p1484
sg12
F0.0353
sg13
VKenny Chesney
p1485
sg15
I9999
sg16
F0.466
sg17
Nsg18
F0.8805166666666667
sg19
Nsg20
Nsg21
F0.14162428583396786
sg22
F0.481
sg23
Nsg24
Nsg25
F2.71e-05
ssg26
I01
sg27
I01
sba(iSong
Song
p1486
(dp1487
g3
(dp1488
g5
F0.606
sg6
VBlue Ain't Your Color
p1489
sg8
F0.329628
sg9
F0.417
sg10
S'country'
p1490
sg12
F0.0363
sg13
VKeith Urban
p1491
sg15
I9999
sg16
F0.686
sg17
Nsg18
F0.8702166666666666
sg19
Nsg20
Nsg21
F0.14162428583396786
sg22
F0.451
sg23
Nsg24
Nsg25
F1.79e-06
ssg26
I01
sg27
I01
sba(iSong
Song
p1492
(dp1493
g3
(dp1494
g5
F0.127
sg6
VYours
p1495
sg8
F0.536188
sg9
F0.725
sg10
S'country'
p1496
sg12
F0.034
sg13
VRussell Dickerson
p1497
sg15
I9999
sg16
F0.551
sg17
Nsg18
F0.8999166666666666
sg19
Nsg20
Nsg21
F0.14162428583396786
sg22
F0.575
sg23
Nsg24
Nsg25
I0
ssg26
I01
sg27
I01
sba(iSong
Song
p1498
(dp1499
g3
(dp1500
g5
F0.288
sg6
VI Like The Sound Of That
p1501
sg8
F0.359868
sg9
F0.807
sg10
S'country'
p1502
sg12
F0.0373
sg13
VRascal Flatts
p1503
sg15
I9999
sg16
F0.609
sg17
Nsg18
F0.9066166666666666
sg19
Nsg20
Nsg21
F0.14162428583396786
sg22
F0.534
sg23
Nsg24
Nsg25
I0
ssg26
I01
sg27
I01
sba(iSong
Song
p1504
(dp1505
g3
(dp1506
g5
F0.358
sg6
VIn Case You Didn't Know
p1507
sg8
F0.591876
sg9
F0.542
sg10
S'country'
p1508
sg12
F0.0309
sg13
VBrett Young
p1509
sg15
I9999
sg16
F0.593
sg17
Nsg18
F0.8785333333333334
sg19
Nsg20
Nsg21
F0.14162428583396786
sg22
F0.427
sg23
Nsg24
Nsg25
I0
ssg26
I01
sg27
I01
sba(iSong
Song
p1510
(dp1511
g3
(dp1512
g5
F0.381
sg6
VDie A Happy Man
p1513
sg8
F0.332384
sg9
F0.383
sg10
S'country'
p1514
sg12
F0.0304
sg13
VThomas Rhett
p1515
sg15
I9999
sg16
F0.66
sg17
Nsg18
F0.8437166666666667
sg19
Nsg20
Nsg21
F0.14162428583396786
sg22
F0.381
sg23
Nsg24
Nsg25
I0
ssg26
I01
sg27
I01
sba(iSong
Song
p1516
(dp1517
g3
(dp1518
g5
F0.46
sg6
VCan't Say No
p1519
sg8
F0.407928
sg9
F0.43
sg10
S'country'
p1520
sg12
F0.0267
sg13
VDan + Shay
p1521
sg15
I9999
sg16
F0.742
sg17
Nsg18
F0.81045
sg19
Nsg20
Nsg21
F0.14162428583396786
sg22
F0.679
sg23
Nsg24
Nsg25
I0
ssg26
I01
sg27
I01
sba(iSong
Song
p1522
(dp1523
g3
(dp1524
g5
F0.0159
sg6
VMan Enough Now
p1525
sg8
F0.624428
sg9
F0.577
sg10
S'country'
p1526
sg12
F0.0331
sg13
VChris Bandi
p1527
sg15
I9999
sg16
F0.591
sg17
Nsg18
F0.8982166666666667
sg19
Nsg20
Nsg21
F0.14162428583396786
sg22
F0.502
sg23
Nsg24
Nsg25
I0
ssg26
I01
sg27
I01
sba(iSong
Song
p1528
(dp1529
g3
(dp1530
g5
F0.331
sg6
VGod, Your Mama, And Me
p1531
sg8
F0.6720320000000001
sg9
F0.797
sg10
S'country'
p1532
sg12
F0.0476
sg13
VFlorida Georgia Line
p1533
sg15
I9999
sg16
F0.445
sg17
Nsg18
F0.9389666666666667
sg19
Nsg20
Nsg21
F0.14162428583396786
sg22
F0.691
sg23
Nsg24
Nsg25
I0
ssg26
I01
sg27
I01
sba(iSong
Song
p1534
(dp1535
g3
(dp1536
g5
F0.179
sg6
VLike I Loved You
p1537
sg8
F0.30407999999999996
sg9
F0.573
sg10
S'country'
p1538
sg12
F0.0292
sg13
VBrett Young
p1539
sg15
I9999
sg16
F0.579
sg17
Nsg18
F0.90015
sg19
Nsg20
Nsg21
F0.14162428583396786
sg22
F0.637
sg23
Nsg24
Nsg25
I0
ssg26
I01
sg27
I01
sba(iSong
Song
p1540
(dp1541
g3
(dp1542
g5
F0.0102
sg6
VYours If You Want It
p1543
sg8
F0.452216
sg9
F0.91
sg10
S'country'
p1544
sg12
F0.0566
sg13
VRascal Flatts
p1545
sg15
I9999
sg16
F0.533
sg17
Nsg18
F0.9485499999999999
sg19
Nsg20
Nsg21
F0.14162428583396786
sg22
F0.494
sg23
Nsg24
Nsg25
I0
ssg26
I01
sg27
I01
sba(iSong
Song
p1546
(dp1547
g3
(dp1548
g5
F0.167
sg6
VCop Car
p1549
sg8
F0.30804000000000004
sg9
F0.585
sg10
S'country'
p1550
sg12
F0.0321
sg13
VSam Hunt
p1551
sg15
I9999
sg16
F0.606
sg17
Nsg18
F0.8921666666666667
sg19
Nsg20
Nsg21
F0.14162428583396786
sg22
F0.177
sg23
Nsg24
Nsg25
I0
ssg26
I01
sg27
I01
sba(iSong
Song
p1552
(dp1553
g3
(dp1554
g5
F0.00865
sg6
VLove You Like That
p1555
sg8
F0.580404
sg9
F0.738
sg10
S'country'
p1556
sg12
F0.0289
sg13
VCanaan Smith
p1557
sg15
I9999
sg16
F0.561
sg17
Nsg18
F0.9158333333333334
sg19
Nsg20
Nsg21
F0.14162428583396786
sg22
F0.725
sg23
Nsg24
Nsg25
F9.55e-05
ssg26
I01
sg27
I01
sba(iSong
Song
p1558
(dp1559
g3
(dp1560
g5
F0.0452
sg6
VDon't It
p1561
sg8
F0.36388
sg9
F0.805
sg10
S'country'
p1562
sg12
F0.0369
sg13
VBilly Currington
p1563
sg15
I9999
sg16
F0.577
sg17
Nsg18
F0.9117833333333334
sg19
Nsg20
Nsg21
F0.14162428583396786
sg22
F0.708
sg23
Nsg24
Nsg25
I0
ssg26
I01
sg27
I01
sba(iSong
Song
p1564
(dp1565
g3
(dp1566
g5
F0.0707
sg6
VGonna Wanna Tonight
p1567
sg8
F0.503792
sg9
F0.783
sg10
S'country'
p1568
sg12
F0.0405
sg13
VChase Rice
p1569
sg15
I9999
sg16
F0.581
sg17
Nsg18
F0.8888833333333334
sg19
Nsg20
Nsg21
F0.14162428583396786
sg22
F0.604
sg23
Nsg24
Nsg25
F0.00014
ssg26
I01
sg27
I01
sba(iSong
Song
p1570
(dp1571
g3
(dp1572
g5
F0.144
sg6
VAll On Me
p1573
sg8
F0.323984
sg9
F0.658
sg10
S'country'
p1574
sg12
F0.0281
sg13
VDevin Dawson
p1575
sg15
I9999
sg16
F0.631
sg17
Nsg18
F0.91145
sg19
Nsg20
Nsg21
F0.14162428583396786
sg22
F0.7
sg23
Nsg24
Nsg25
I0
ssg26
I01
sg27
I01
sba(iSong
Song
p1576
(dp1577
g3
(dp1578
g5
F0.111
sg6
VIt Goes Like This
p1579
sg8
F0.671828
sg9
F0.836
sg10
S'country'
p1580
sg12
F0.0627
sg13
VThomas Rhett
p1581
sg15
I9999
sg16
F0.54
sg17
Nsg18
F0.9014333333333333
sg19
Nsg20
Nsg21
F0.14162428583396786
sg22
F0.55
sg23
Nsg24
Nsg25
I0
ssg26
I01
sg27
I01
sba(iSong
Song
p1582
(dp1583
g3
(dp1584
g5
F0.076
sg6
VHome Alone Tonight
p1585
sg8
F0.647956
sg9
F0.968
sg10
S'country'
p1586
sg12
F0.113
sg13
VLuke Bryan
p1587
sg15
I9999
sg16
F0.498
sg17
Nsg18
F0.9803333333333334
sg19
Nsg20
Nsg21
F0.14162428583396786
sg22
F0.491
sg23
Nsg24
Nsg25
I0
ssg26
I01
sg27
I01
sba(iSong
Song
p1588
(dp1589
g3
(dp1590
g5
F0.114
sg6
VWanna Be That Song
p1591
sg8
F0.57626
sg9
F0.686
sg10
S'country'
p1592
sg12
F0.0313
sg13
VBrett Eldredge
p1593
sg15
I9999
sg16
F0.518
sg17
Nsg18
F0.91815
sg19
Nsg20
Nsg21
F0.14162428583396786
sg22
F0.334
sg23
Nsg24
Nsg25
I0
ssg26
I01
sg27
I01
sba(iSong
Song
p1594
(dp1595
g3
(dp1596
g5
F0.0407
sg6
VMay We All
p1597
sg8
F0.300064
sg9
F0.912
sg10
S'country'
p1598
sg12
F0.0393
sg13
VFlorida Georgia Line
p1599
sg15
I9999
sg16
F0.496
sg17
Nsg18
F0.9286666666666666
sg19
Nsg20
Nsg21
F0.14162428583396786
sg22
F0.652
sg23
Nsg24
Nsg25
I0
ssg26
I01
sg27
I01
sba(iSong
Song
p1600
(dp1601
g3
(dp1602
g5
F0.0714
sg6
VGo Ahead and Break My Heart (feat. Gwen Stefani)
p1603
sg8
F0.464032
sg9
F0.731
sg10
S'country'
p1604
sg12
F0.0321
sg13
VBlake Shelton
p1605
sg15
I9999
sg16
F0.618
sg17
Nsg18
F0.9136500000000001
sg19
Nsg20
Nsg21
F0.14162428583396786
sg22
F0.352
sg23
Nsg24
Nsg25
F5.05e-05
ssg26
I01
sg27
I01
sba(iSong
Song
p1606
(dp1607
g3
(dp1608
g5
F0.0318
sg6
VT-Shirt
p1609
sg8
F0.383984
sg9
F0.857
sg10
S'country'
p1610
sg12
F0.0397
sg13
VThomas Rhett
p1611
sg15
I9999
sg16
F0.647
sg17
Nsg18
F0.9103166666666667
sg19
Nsg20
Nsg21
F0.14162428583396786
sg22
F0.771
sg23
Nsg24
Nsg25
I0
ssg26
I01
sg27
I01
sba(iSong
Song
p1612
(dp1613
g3
(dp1614
g5
F0.231
sg6
VYeah Boy
p1615
sg8
F0.35586
sg9
F0.809
sg10
S'country'
p1616
sg12
F0.0376
sg13
VKelsea Ballerini
p1617
sg15
I9999
sg16
F0.589
sg17
Nsg18
F0.9117999999999999
sg19
Nsg20
Nsg21
F0.14162428583396786
sg22
F0.496
sg23
Nsg24
Nsg25
I0
ssg26
I01
sg27
I01
sba(iSong
Song
p1618
(dp1619
g3
(dp1620
g5
F0.0325
sg6
VDrink to That All Night
p1621
sg8
F0.46386
sg9
F0.846
sg10
S'country'
p1622
sg12
F0.0439
sg13
VJerrod Niemann
p1623
sg15
I9999
sg16
F0.639
sg17
Nsg18
F0.8969333333333334
sg19
Nsg20
Nsg21
F0.14162428583396786
sg22
F0.475
sg23
Nsg24
Nsg25
I0
ssg26
I01
sg27
I01
sba(iSong
Song
p1624
(dp1625
g3
(dp1626
g5
F0.0832
sg6
VPlay It Again
p1627
sg8
F0.5762240000000001
sg9
F0.898
sg10
S'country'
p1628
sg12
F0.0696
sg13
VLuke Bryan
p1629
sg15
I9999
sg16
F0.51
sg17
Nsg18
F0.9475
sg19
Nsg20
Nsg21
F0.14162428583396786
sg22
F0.596
sg23
Nsg24
Nsg25
I0
ssg26
I01
sg27
I01
sba(iSong
Song
p1630
(dp1631
g3
(dp1632
g5
F0.32
sg6
VDirt Road Anthem
p1633
sg8
F0.5081600000000001
sg9
F0.739
sg10
S'country'
p1634
sg12
F0.0352
sg13
VJason Aldean
p1635
sg15
I9999
sg16
F0.677
sg17
Nsg18
F0.9155333333333334
sg19
Nsg20
Nsg21
F0.14162428583396786
sg22
F0.658
sg23
Nsg24
Nsg25
F2.36e-06
ssg26
I01
sg27
I01
sba(iSong
Song
p1636
(dp1637
g3
(dp1638
g5
F0.129
sg6
VStar Of The Show
p1639
sg8
F0.407832
sg9
F0.626
sg10
S'country'
p1640
sg12
F0.0275
sg13
VThomas Rhett
p1641
sg15
I9999
sg16
F0.69
sg17
Nsg18
F0.9028166666666666
sg19
Nsg20
Nsg21
F0.14162428583396786
sg22
F0.638
sg23
Nsg24
Nsg25
I0
ssg26
I01
sg27
I01
sba(iSong
Song
p1642
(dp1643
g3
(dp1644
g5
F0.014
sg6
VParachute
p1645
sg8
F0.452132
sg9
F0.749
sg10
S'country'
p1646
sg12
F0.0297
sg13
VChris Stapleton
p1647
sg15
I9999
sg16
F0.639
sg17
Nsg18
F0.8778833333333333
sg19
Nsg20
Nsg21
F0.14162428583396786
sg22
F0.648
sg23
Nsg24
Nsg25
F3.52e-05
ssg26
I01
sg27
I01
sba(iSong
Song
p1648
(dp1649
g3
(dp1650
g5
F0.0165
sg6
VHurricane
p1651
sg8
F0.607712
sg9
F0.804
sg10
S'country'
p1652
sg12
F0.0406
sg13
VLuke Combs
p1653
sg15
I9999
sg16
F0.443
sg17
Nsg18
F0.8927999999999999
sg19
Nsg20
Nsg21
F0.14162428583396786
sg22
F0.438
sg23
Nsg24
Nsg25
F2.89e-06
ssg26
I01
sg27
I01
sba(iSong
Song
p1654
(dp1655
g3
(dp1656
g5
F0.141
sg6
VHuntin', Fishin' And Lovin' Every Day
p1657
sg8
F0.6166240000000001
sg9
F0.809
sg10
S'country'
p1658
sg12
F0.0335
sg13
VLuke Bryan
p1659
sg15
I9999
sg16
F0.512
sg17
Nsg18
F0.9293833333333333
sg19
Nsg20
Nsg21
F0.14162428583396786
sg22
F0.432
sg23
Nsg24
Nsg25
F2.31e-05
ssg26
I01
sg27
I01
sba(iSong
Song
p1660
(dp1661
g3
(dp1662
g5
F0.463
sg6
VBody Like A Back Road
p1663
sg8
F0.395852
sg9
F0.469
sg10
S'country'
p1664
sg12
F0.0326
sg13
VSam Hunt
p1665
sg15
I9999
sg16
F0.731
sg17
Nsg18
F0.8795666666666667
sg19
Nsg20
Nsg21
F0.14162428583396786
sg22
F0.631
sg23
Nsg24
Nsg25
F1.04e-06
ssg26
I01
sg27
I01
sba(iSong
Song
p1666
(dp1667
g3
(dp1668
g5
F0.00898
sg6
VBeat Of The Music
p1669
sg8
F0.440004
sg9
F0.808
sg10
S'country'
p1670
sg12
F0.0269
sg13
VBrett Eldredge
p1671
sg15
I9999
sg16
F0.629
sg17
Nsg18
F0.93125
sg19
Nsg20
Nsg21
F0.14162428583396786
sg22
F0.773
sg23
Nsg24
Nsg25
F9.06e-06
ssg26
I01
sg27
I01
sba(iSong
Song
p1672
(dp1673
g3
(dp1674
g5
F0.0677
sg6
VBaby Be My Love Song
p1675
sg8
F0.6722
sg9
F0.709
sg10
S'country'
p1676
sg12
F0.046
sg13
VEaston Corbin
p1677
sg15
I9999
sg16
F0.488
sg17
Nsg18
F0.8989499999999999
sg19
Nsg20
Nsg21
F0.14162428583396786
sg22
F0.469
sg23
Nsg24
Nsg25
I0
ssg26
I01
sg27
I01
sba(iSong
Song
p1678
(dp1679
g3
(dp1680
g5
F0.0681
sg6
VMake Me Wanna
p1681
sg8
F0.435896
sg9
F0.795
sg10
S'country'
p1682
sg12
F0.042
sg13
VThomas Rhett
p1683
sg15
I9999
sg16
F0.533
sg17
Nsg18
F0.91465
sg19
Nsg20
Nsg21
F0.14162428583396786
sg22
F0.572
sg23
Nsg24
Nsg25
F4.38e-06
ssg26
I01
sg27
I01
sba(iSong
Song
p1684
(dp1685
g3
(dp1686
g5
F0.00647
sg6
VYeah
p1687
sg8
F0.662852
sg9
F0.843
sg10
S'country'
p1688
sg12
F0.0531
sg13
VJoe Nichols
p1689
sg15
I9999
sg16
F0.414
sg17
Nsg18
F0.9227000000000001
sg19
Nsg20
Nsg21
F0.14162428583396786
sg22
F0.572
sg23
Nsg24
Nsg25
F1.52e-05
ssg26
I01
sg27
I01
sba(iSong
Song
p1690
(dp1691
g3
(dp1692
g5
F0.445
sg6
VDifferent For Girls
p1693
sg8
F0.3679
sg9
F0.785
sg10
S'country'
p1694
sg12
F0.0369
sg13
VDierks Bentley
p1695
sg15
I9999
sg16
F0.661
sg17
Nsg18
F0.9062833333333333
sg19
Nsg20
Nsg21
F0.14162428583396786
sg22
F0.371
sg23
Nsg24
Nsg25
F0.000266
ssg26
I01
sg27
I01
sba(iSong
Song
p1696
(dp1697
g3
(dp1698
g5
F0.00172
sg6
VAnything Goes
p1699
sg8
F0.616152
sg9
F0.977
sg10
S'country'
p1700
sg12
F0.045
sg13
VFlorida Georgia Line
p1701
sg15
I9999
sg16
F0.462
sg17
Nsg18
F0.9365833333333333
sg19
Nsg20
Nsg21
F0.14162428583396786
sg22
F0.746
sg23
Nsg24
Nsg25
I0
ssg26
I01
sg27
I01
sba(iSong
Song
p1702
(dp1703
g3
(dp1704
g5
F0.438
sg6
VNowhere Fast
p1705
sg8
F0.40792399999999995
sg9
F0.517
sg10
S'country'
p1706
sg12
F0.0297
sg13
VOld Dominion
p1707
sg15
I9999
sg16
F0.783
sg17
Nsg18
F0.8780666666666667
sg19
Nsg20
Nsg21
F0.14162428583396786
sg22
F0.495
sg23
Nsg24
Nsg25
F3.1e-06
ssg26
I01
sg27
I01
sba(iSong
Song
p1708
(dp1709
g3
(dp1710
g5
F0.0251
sg6
VHighway Don't Care
p1711
sg8
F0.31562
sg9
F0.783
sg10
S'country'
p1712
sg12
F0.0444
sg13
VTim McGraw
p1713
sg15
I9999
sg16
F0.381
sg17
Nsg18
F0.9118833333333334
sg19
Nsg20
Nsg21
F0.14162428583396786
sg22
F0.487
sg23
Nsg24
Nsg25
I0
ssg26
I01
sg27
I01
sba(iSong
Song
p1714
(dp1715
g3
(dp1716
g5
F0.0996
sg6
VLeave The Night On
p1717
sg8
F0.687884
sg9
F0.953
sg10
S'country'
p1718
sg12
F0.0624
sg13
VSam Hunt
p1719
sg15
I9999
sg16
F0.516
sg17
Nsg18
F0.9361999999999999
sg19
Nsg20
Nsg21
F0.14162428583396786
sg22
F0.852
sg23
Nsg24
Nsg25
I0
ssg26
I01
sg27
I01
sba(iSong
Song
p1720
(dp1721
g3
(dp1722
g5
F0.00786
sg6
VReady Set Roll
p1723
sg8
F0.624152
sg9
F0.822
sg10
S'country'
p1724
sg12
F0.0582
sg13
VChase Rice
p1725
sg15
I9999
sg16
F0.556
sg17
Nsg18
F0.92725
sg19
Nsg20
Nsg21
F0.14162428583396786
sg22
F0.797
sg23
Nsg24
Nsg25
I0
ssg26
I01
sg27
I01
sba(iSong
Song
p1726
(dp1727
g3
(dp1728
g5
F0.0275
sg6
VI Don't Want This Night to End
p1729
sg8
F0.44773599999999997
sg9
F0.728
sg10
S'country'
p1730
sg12
F0.0278
sg13
VLuke Bryan
p1731
sg15
I9999
sg16
F0.616
sg17
Nsg18
F0.933
sg19
Nsg20
Nsg21
F0.14162428583396786
sg22
F0.375
sg23
Nsg24
Nsg25
I0
ssg26
I01
sg27
I01
sba(iSong
Song
p1732
(dp1733
g3
(dp1734
g5
F0.312
sg6
VAny Ol' Barstool
p1735
sg8
F0.57512
sg9
F0.722
sg10
S'country'
p1736
sg12
F0.0284
sg13
VJason Aldean
p1737
sg15
I9999
sg16
F0.536
sg17
Nsg18
F0.9306166666666668
sg19
Nsg20
Nsg21
F0.14162428583396786
sg22
F0.499
sg23
Nsg24
Nsg25
I0
ssg26
I01
sg27
I01
sba(iSong
Song
p1738
(dp1739
g3
(dp1740
g5
F0.00106
sg6
VSingle For The Summer
p1741
sg8
F0.6235080000000001
sg9
F0.856
sg10
S'country'
p1742
sg12
F0.0465
sg13
VSam Hunt
p1743
sg15
I9999
sg16
F0.553
sg17
Nsg18
F0.8947333333333333
sg19
Nsg20
Nsg21
F0.14162428583396786
sg22
F0.475
sg23
Nsg24
Nsg25
I0
ssg26
I01
sg27
I01
sba(iSong
Song
p1744
(dp1745
g3
(dp1746
g5
F0.0919
sg6
VHead Over Boots
p1747
sg8
F0.43231200000000003
sg9
F0.669
sg10
S'country'
p1748
sg12
F0.0237
sg13
VJon Pardi
p1749
sg15
I9999
sg16
F0.637
sg17
Nsg18
F0.9232
sg19
Nsg20
Nsg21
F0.14162428583396786
sg22
F0.638
sg23
Nsg24
Nsg25
I0
ssg26
I01
sg27
I01
sba(iSong
Song
p1750
(dp1751
g3
(dp1752
g5
F0.0632
sg6
VDirt
p1753
sg8
F0.487836
sg9
F0.875
sg10
S'country'
p1754
sg12
F0.0464
sg13
VFlorida Georgia Line
p1755
sg15
I9999
sg16
F0.545
sg17
Nsg18
F0.9304333333333333
sg19
Nsg20
Nsg21
F0.14162428583396786
sg22
F0.605
sg23
Nsg24
Nsg25
F1.17e-05
ssg26
I01
sg27
I01
sba(iSong
Song
p1756
(dp1757
g3
(dp1758
g5
F0.1
sg6
VSpringsteen
p1759
sg8
F0.41609199999999996
sg9
F0.809
sg10
S'country'
p1760
sg12
F0.0255
sg13
VEric Church
p1761
sg15
I9999
sg16
F0.692
sg17
Nsg18
F0.9010833333333333
sg19
Nsg20
Nsg21
F0.14162428583396786
sg22
F0.927
sg23
Nsg24
Nsg25
F9.77e-05
ssg26
I01
sg27
I01
sba(iSong
Song
p1762
(dp1763
g3
(dp1764
g5
F0.000907
sg6
VCraving You
p1765
sg8
F0.41994400000000004
sg9
F0.841
sg10
S'country'
p1766
sg12
F0.0353
sg13
VThomas Rhett
p1767
sg15
I9999
sg16
F0.612
sg17
Nsg18
F0.93675
sg19
Nsg20
Nsg21
F0.14162428583396786
sg22
F0.499
sg23
Nsg24
Nsg25
I0
ssg26
I01
sg27
I01
sba(iSong
Song
p1768
(dp1769
g3
(dp1770
g5
F0.129
sg6
VHouse Party
p1771
sg8
F0.415808
sg9
F0.854
sg10
S'country'
p1772
sg12
F0.0503
sg13
VSam Hunt
p1773
sg15
I9999
sg16
F0.749
sg17
Nsg18
F0.9125833333333334
sg19
Nsg20
Nsg21
F0.14162428583396786
sg22
F0.842
sg23
Nsg24
Nsg25
I0
ssg26
I01
sg27
I01
sba(iSong
Song
p1774
(dp1775
g3
(dp1776
g5
F0.606
sg6
VBlue Ain't Your Color
p1777
sg8
F0.329628
sg9
F0.417
sg10
S'country'
p1778
sg12
F0.0363
sg13
VKeith Urban
p1779
sg15
I9999
sg16
F0.686
sg17
Nsg18
F0.8702166666666666
sg19
Nsg20
Nsg21
F0.14162428583396786
sg22
F0.451
sg23
Nsg24
Nsg25
F1.79e-06
ssg26
I01
sg27
I01
sba(iSong
Song
p1780
(dp1781
g3
(dp1782
g5
F0.0269
sg6
VCarolina Can
p1783
sg8
F0.6319239999999999
sg9
F0.642
sg10
S'country'
p1784
sg12
F0.0302
sg13
VChase Rice
p1785
sg15
I9999
sg16
F0.479
sg17
Nsg18
F0.90455
sg19
Nsg20
Nsg21
F0.14162428583396786
sg22
F0.372
sg23
Nsg24
Nsg25
I0
ssg26
I01
sg27
I01
sba(iSong
Song
p1786
(dp1787
g3
(dp1788
g5
F0.0408
sg6
VStay A Little Longer
p1789
sg8
F0.388024
sg9
F0.882
sg10
S'country'
p1790
sg12
F0.0294
sg13
VBrothers Osborne
p1791
sg15
I9999
sg16
F0.553
sg17
Nsg18
F0.9080833333333334
sg19
Nsg20
Nsg21
F0.14162428583396786
sg22
F0.529
sg23
Nsg24
Nsg25
F0.241
ssg26
I01
sg27
I01
sba(iSong
Song
p1792
(dp1793
g3
(dp1794
g5
F0.381
sg6
VDie A Happy Man
p1795
sg8
F0.332384
sg9
F0.383
sg10
S'country'
p1796
sg12
F0.0304
sg13
VThomas Rhett
p1797
sg15
I9999
sg16
F0.66
sg17
Nsg18
F0.8437166666666667
sg19
Nsg20
Nsg21
F0.14162428583396786
sg22
F0.381
sg23
Nsg24
Nsg25
I0
ssg26
I01
sg27
I01
sba(iSong
Song
p1798
(dp1799
g3
(dp1800
g5
F0.168
sg6
VMake You Miss Me
p1801
sg8
F0.5841040000000001
sg9
F0.468
sg10
S'country'
p1802
sg12
F0.0314
sg13
VSam Hunt
p1803
sg15
I9999
sg16
F0.612
sg17
Nsg18
F0.89005
sg19
Nsg20
Nsg21
F0.14162428583396786
sg22
F0.165
sg23
Nsg24
Nsg25
I0
ssg26
I01
sg27
I01
sba(iSong
Song
p1804
(dp1805
g3
(dp1806
g5
F0.0319
sg6
VI'm Comin' Over
p1807
sg8
F0.511968
sg9
F0.85
sg10
S'country'
p1808
sg12
F0.0361
sg13
VChris Young
p1809
sg15
I9999
sg16
F0.573
sg17
Nsg18
F0.9364
sg19
Nsg20
Nsg21
F0.14162428583396786
sg22
F0.347
sg23
Nsg24
Nsg25
I0
ssg26
I01
sg27
I01
sba(iSong
Song
p1810
(dp1811
g3
(dp1812
g5
F0.00566
sg6
VClose
p1813
sg8
F0.320072
sg9
F0.86
sg10
S'country'
p1814
sg12
F0.0347
sg13
VRyan Kinder
p1815
sg15
I9999
sg16
F0.479
sg17
Nsg18
F0.9280333333333334
sg19
Nsg20
Nsg21
F0.14162428583396786
sg22
F0.743
sg23
Nsg24
Nsg25
I0
ssg26
I01
sg27
I01
sba(iSong
Song
p1816
(dp1817
g3
(dp1818
g5
F0.0458
sg6
VHow Country Feels
p1819
sg8
F0.41977600000000004
sg9
F0.847
sg10
S'country'
p1820
sg12
F0.0396
sg13
VRandy Houser
p1821
sg15
I9999
sg16
F0.677
sg17
Nsg18
F0.9398666666666667
sg19
Nsg20
Nsg21
F0.14162428583396786
sg22
F0.806
sg23
Nsg24
Nsg25
I0
ssg26
I01
sg27
I01
sba(iSong
Song
p1822
(dp1823
g3
(dp1824
g5
F0.361
sg6
VH.O.L.Y.
p1825
sg8
F0.31252800000000003
sg9
F0.661
sg10
S'country'
p1826
sg12
F0.0333
sg13
VFlorida Georgia Line
p1827
sg15
I9999
sg16
F0.526
sg17
Nsg18
F0.9361999999999999
sg19
Nsg20
Nsg21
F0.14162428583396786
sg22
F0.556
sg23
Nsg24
Nsg25
I0
ssg26
I01
sg27
I01
sba(iSong
Song
p1828
(dp1829
g3
(dp1830
g5
F0.0811
sg6
VSomethin' 'Bout A Truck
p1831
sg8
F0.703944
sg9
F0.808
sg10
S'country'
p1832
sg12
F0.0366
sg13
VKip Moore
p1833
sg15
I9999
sg16
F0.555
sg17
Nsg18
F0.9105833333333333
sg19
Nsg20
Nsg21
F0.14162428583396786
sg22
F0.816
sg23
Nsg24
Nsg25
I0
ssg26
I01
sg27
I01
sba(iSong
Song
p1834
(dp1835
g3
(dp1836
g5
F0.12
sg6
VYours
p1837
sg8
F0.5358999999999999
sg9
F0.796
sg10
S'country'
p1838
sg12
F0.0313
sg13
VRussell Dickerson
p1839
sg15
I9999
sg16
F0.568
sg17
Nsg18
F0.9115333333333333
sg19
Nsg20
Nsg21
F0.14162428583396786
sg22
F0.573
sg23
Nsg24
Nsg25
I0
ssg26
I01
sg27
I01
sba(iSong
Song
p1840
(dp1841
g3
(dp1842
g5
F0.00898
sg6
VWhat Ifs
p1843
sg8
F0.503904
sg9
F0.799
sg10
S'country'
p1844
sg12
F0.0275
sg13
VKane Brown
p1845
sg15
I9999
sg16
F0.612
sg17
Nsg18
F0.9232833333333333
sg19
Nsg20
Nsg21
F0.14162428583396786
sg22
F0.687
sg23
Nsg24
Nsg25
I0
ssg26
I01
sg27
I01
sba(iSong
Song
p1846
(dp1847
g3
(dp1848
g5
F0.0371
sg6
VRunnin' Outta Moonlight
p1849
sg8
F0.6882
sg9
F0.801
sg10
S'country'
p1850
sg12
F0.0393
sg13
VRandy Houser
p1851
sg15
I9999
sg16
F0.532
sg17
Nsg18
F0.93735
sg19
Nsg20
Nsg21
F0.14162428583396786
sg22
F0.799
sg23
Nsg24
Nsg25
F7.07e-06
ssg26
I01
sg27
I01
sba(iSong
Song
p1852
(dp1853
g3
(dp1854
g5
F0.0174
sg6
VMy Kinda Party
p1855
sg8
F0.707704
sg9
F0.902
sg10
S'country'
p1856
sg12
F0.0669
sg13
VJason Aldean
p1857
sg15
I9999
sg16
F0.414
sg17
Nsg18
F0.9290666666666667
sg19
Nsg20
Nsg21
F0.14162428583396786
sg22
F0.532
sg23
Nsg24
Nsg25
F7.52e-06
ssg26
I01
sg27
I01
sba(iSong
Song
p1858
(dp1859
g3
(dp1860
g5
F0.00472
sg6
VHell Of A Night
p1861
sg8
F0.340216
sg9
F0.797
sg10
S'country'
p1862
sg12
F0.0402
sg13
VDustin Lynch
p1863
sg15
I9999
sg16
F0.499
sg17
Nsg18
F0.91925
sg19
Nsg20
Nsg21
F0.14162428583396786
sg22
F0.591
sg23
Nsg24
Nsg25
I0
ssg26
I01
sg27
I01
sba(iSong
Song
p1864
(dp1865
g3
(dp1866
g5
F0.0538
sg6
VTalladega
p1867
sg8
F0.576
sg9
F0.672
sg10
S'country'
p1868
sg12
F0.0294
sg13
VEric Church
p1869
sg15
I9999
sg16
F0.584
sg17
Nsg18
F0.8615166666666667
sg19
Nsg20
Nsg21
F0.14162428583396786
sg22
F0.556
sg23
Nsg24
Nsg25
F0.0481
ssg26
I01
sg27
I01
sba(iSong
Song
p1870
(dp1871
g3
(dp1872
g5
F0.645
sg6
VChicken Fried
p1873
sg8
F0.6794560000000001
sg9
F0.713
sg10
S'country'
p1874
sg12
F0.0417
sg13
VZac Brown Band
p1875
sg15
I9999
sg16
F0.566
sg17
Nsg18
F0.9291666666666667
sg19
Nsg20
Nsg21
F0.14162428583396786
sg22
F0.807
sg23
Nsg24
Nsg25
I0
ssg26
I01
sg27
I01
sba(iSong
Song
p1876
(dp1877
g3
(dp1878
g5
F0.18
sg6
VKick The Dust Up
p1879
sg8
F0.688432
sg9
F0.858
sg10
S'country'
p1880
sg12
F0.0493
sg13
VLuke Bryan
p1881
sg15
I9999
sg16
F0.596
sg17
Nsg18
F0.9603833333333333
sg19
Nsg20
Nsg21
F0.14162428583396786
sg22
F0.819
sg23
Nsg24
Nsg25
I0
ssg26
I01
sg27
I01
sba(iSong
Song
p1882
(dp1883
g3
(dp1884
g5
F0.302
sg6
VSpeakers, Bleachers And Preachers
p1885
sg8
F0.38408
sg9
F0.625
sg10
S'country'
p1886
sg12
F0.0258
sg13
VBrandon Lay
p1887
sg15
I9999
sg16
F0.603
sg17
Nsg18
F0.8906166666666666
sg19
Nsg20
Nsg21
F0.14162428583396786
sg22
F0.651
sg23
Nsg24
Nsg25
I0
ssg26
I01
sg27
I01
sba(iSong
Song
p1888
(dp1889
g3
(dp1890
g5
F0.221
sg6
VShe's Country
p1891
sg8
F0.688784
sg9
F0.872
sg10
S'country'
p1892
sg12
F0.0897
sg13
VJason Aldean
p1893
sg15
I9999
sg16
F0.554
sg17
Nsg18
F0.9525166666666666
sg19
Nsg20
Nsg21
F0.14162428583396786
sg22
F0.657
sg23
Nsg24
Nsg25
I0
ssg26
I01
sg27
I01
sba(iSong
Song
p1894
(dp1895
g3
(dp1896
g5
F0.0661
sg6
VHead Over Boots
p1897
sg8
F0.432064
sg9
F0.676
sg10
S'country'
p1898
sg12
F0.027
sg13
VJon Pardi
p1899
sg15
I9999
sg16
F0.557
sg17
Nsg18
F0.9257166666666666
sg19
Nsg20
Nsg21
F0.14162428583396786
sg22
F0.678
sg23
Nsg24
Nsg25
I0
ssg26
I01
sg27
I01
sba(iSong
Song
p1900
(dp1901
g3
(dp1902
g5
F0.0244
sg6
VSmall Town Boy
p1903
sg8
F0.292132
sg9
F0.747
sg10
S'country'
p1904
sg12
F0.0292
sg13
VDustin Lynch
p1905
sg15
I9999
sg16
F0.553
sg17
Nsg18
F0.9015833333333333
sg19
Nsg20
Nsg21
F0.14162428583396786
sg22
F0.711
sg23
Nsg24
Nsg25
I0
ssg26
I01
sg27
I01
sba(iSong
Song
p1906
(dp1907
g3
(dp1908
g5
F0.0105
sg6
VHow 'Bout You
p1909
sg8
F0.480176
sg9
F0.878
sg10
S'country'
p1910
sg12
F0.0382
sg13
VEric Church
p1911
sg15
I9999
sg16
F0.547
sg17
Nsg18
F0.8801666666666667
sg19
Nsg20
Nsg21
F0.14162428583396786
sg22
F0.767
sg23
Nsg24
Nsg25
F1.91e-05
ssg26
I01
sg27
I01
sba(iSong
Song
p1912
(dp1913
g3
(dp1914
g5
F0.129
sg6
VLight It Up
p1915
sg8
F0.520116
sg9
F0.935
sg10
S'country'
p1916
sg12
F0.0855
sg13
VLuke Bryan
p1917
sg15
I9999
sg16
F0.596
sg17
Nsg18
F0.9534333333333334
sg19
Nsg20
Nsg21
F0.14162428583396786
sg22
F0.678
sg23
Nsg24
Nsg25
I0
ssg26
I01
sg27
I01
sba(iSong
Song
p1918
(dp1919
g3
(dp1920
g5
F0.032
sg6
VUnforgettable
p1921
sg8
F0.52008
sg9
F0.738
sg10
S'country'
p1922
sg12
F0.0303
sg13
VThomas Rhett
p1923
sg15
I9999
sg16
F0.663
sg17
Nsg18
F0.9086666666666666
sg19
Nsg20
Nsg21
F0.14162428583396786
sg22
F0.825
sg23
Nsg24
Nsg25
F0.000225
ssg26
I01
sg27
I01
sba(iSong
Song
p1924
(dp1925
g3
(dp1926
g5
F0.00734
sg6
VHicktown
p1927
sg8
F0.48617200000000005
sg9
F0.878
sg10
S'country'
p1928
sg12
F0.0351
sg13
VJason Aldean
p1929
sg15
I9999
sg16
F0.697
sg17
Nsg18
F0.9370166666666667
sg19
Nsg20
Nsg21
F0.14162428583396786
sg22
F0.802
sg23
Nsg24
Nsg25
F7.98e-06
ssg26
I01
sg27
I01
sba(iSong
Song
p1930
(dp1931
g3
(dp1932
g5
F0.00646
sg6
VParking Lot Party
p1933
sg8
F0.68688
sg9
F0.86
sg10
S'country'
p1934
sg12
F0.081
sg13
VLee Brice
p1935
sg15
I9999
sg16
F0.54
sg17
Nsg18
F0.90395
sg19
Nsg20
Nsg21
F0.14162428583396786
sg22
F0.856
sg23
Nsg24
Nsg25
I0
ssg26
I01
sg27
I01
sba(iSong
Song
p1936
(dp1937
g3
(dp1938
g5
F0.0458
sg6
VHow Country Feels
p1939
sg8
F0.41977600000000004
sg9
F0.847
sg10
S'country'
p1940
sg12
F0.0396
sg13
VRandy Houser
p1941
sg15
I9999
sg16
F0.677
sg17
Nsg18
F0.9398666666666667
sg19
Nsg20
Nsg21
F0.14162428583396786
sg22
F0.806
sg23
Nsg24
Nsg25
I0
ssg26
I01
sg27
I01
sba(iSong
Song
p1942
(dp1943
g3
(dp1944
g5
F0.00635
sg6
VDrink In My Hand
p1945
sg8
F0.45217599999999997
sg9
F0.913
sg10
S'country'
p1946
sg12
F0.0318
sg13
VEric Church
p1947
sg15
I9999
sg16
F0.626
sg17
Nsg18
F0.9258000000000001
sg19
Nsg20
Nsg21
F0.14162428583396786
sg22
F0.946
sg23
Nsg24
Nsg25
I0
ssg26
I01
sg27
I01
sba(iSong
Song
p1948
(dp1949
g3
(dp1950
g5
F0.118
sg6
VLeave The Night On
p1951
sg8
F0.688112
sg9
F0.957
sg10
S'country'
p1952
sg12
F0.053
sg13
VSam Hunt
p1953
sg15
I9999
sg16
F0.509
sg17
Nsg18
F0.9371333333333334
sg19
Nsg20
Nsg21
F0.14162428583396786
sg22
F0.859
sg23
Nsg24
Nsg25
I0
ssg26
I01
sg27
I01
sba(iSong
Song
p1954
(dp1955
g3
(dp1956
g5
F0.275
sg6
VAs Good As I Once Was
p1957
sg8
F0.47605200000000003
sg9
F0.842
sg10
S'country'
p1958
sg12
F0.0376
sg13
VToby Keith
p1959
sg15
I9999
sg16
F0.679
sg17
Nsg18
F0.9272666666666667
sg19
Nsg20
Nsg21
F0.14162428583396786
sg22
F0.72
sg23
Nsg24
Nsg25
I0
ssg26
I01
sg27
I01
sba(iSong
Song
p1960
(dp1961
g3
(dp1962
g5
F0.034
sg6
VBeer Can in a Truck Bed
p1963
sg8
F0.368012
sg9
F0.875
sg10
S'country'
p1964
sg12
F0.0488
sg13
VOld Dominion
p1965
sg15
I9999
sg16
F0.66
sg17
Nsg18
F0.9034666666666666
sg19
Nsg20
Nsg21
F0.14162428583396786
sg22
F0.767
sg23
Nsg24
Nsg25
I0
ssg26
I01
sg27
I01
sba(iSong
Song
p1966
(dp1967
g3
(dp1968
g5
F0.0617
sg6
VHeartache On The Dance Floor
p1969
sg8
F0.46402
sg9
F0.824
sg10
S'country'
p1970
sg12
F0.0458
sg13
VJon Pardi
p1971
sg15
I9999
sg16
F0.594
sg17
Nsg18
F0.9291333333333333
sg19
Nsg20
Nsg21
F0.14162428583396786
sg22
F0.671
sg23
Nsg24
Nsg25
I0
ssg26
I01
sg27
I01
sba(iSong
Song
p1972
(dp1973
g3
(dp1974
g5
F0.0639
sg6
VAw Naw
p1975
sg8
F0.439884
sg9
F0.859
sg10
S'country'
p1976
sg12
F0.0358
sg13
VChris Young
p1977
sg15
I9999
sg16
F0.652
sg17
Nsg18
F0.9375666666666667
sg19
Nsg20
Nsg21
F0.14162428583396786
sg22
F0.491
sg23
Nsg24
Nsg25
I0
ssg26
I01
sg27
I01
sba(iSong
Song
p1978
(dp1979
g3
(dp1980
g5
F0.1
sg6
VSpringsteen
p1981
sg8
F0.41609199999999996
sg9
F0.809
sg10
S'country'
p1982
sg12
F0.0255
sg13
VEric Church
p1983
sg15
I9999
sg16
F0.692
sg17
Nsg18
F0.9010833333333333
sg19
Nsg20
Nsg21
F0.14162428583396786
sg22
F0.927
sg23
Nsg24
Nsg25
F9.77e-05
ssg26
I01
sg27
I01
sba(iSong
Song
p1984
(dp1985
g3
(dp1986
g5
F0.463
sg6
VBody Like A Back Road
p1987
sg8
F0.395852
sg9
F0.469
sg10
S'country'
p1988
sg12
F0.0326
sg13
VSam Hunt
p1989
sg15
I9999
sg16
F0.731
sg17
Nsg18
F0.8795666666666667
sg19
Nsg20
Nsg21
F0.14162428583396786
sg22
F0.631
sg23
Nsg24
Nsg25
F1.04e-06
ssg26
I01
sg27
I01
sba(iSong
Song
p1990
(dp1991
g3
(dp1992
g5
F0.246
sg6
VIt's A Great Day To Be Alive
p1993
sg8
F0.5157200000000001
sg9
F0.653
sg10
S'country'
p1994
sg12
F0.0265
sg13
VTravis Tritt
p1995
sg15
I9999
sg16
F0.595
sg17
Nsg18
F0.91775
sg19
Nsg20
Nsg21
F0.14162428583396786
sg22
F0.542
sg23
Nsg24
Nsg25
I0
ssg26
I01
sg27
I01
sba(iSong
Song
p1996
(dp1997
g3
(dp1998
g5
F0.00525
sg6
VFree And Easy (Down The Road I Go)
p1999
sg8
F0.48006
sg9
F0.825
sg10
S'country'
p2000
sg12
F0.0283
sg13
VDierks Bentley
p2001
sg15
I9999
sg16
F0.557
sg17
Nsg18
F0.9223833333333334
sg19
Nsg20
Nsg21
F0.14162428583396786
sg22
F0.841
sg23
Nsg24
Nsg25
F0.00164
ssg26
I01
sg27
I01
sba(iSong
Song
p2002
(dp2003
g3
(dp2004
g5
F0.456
sg6
VWagon Wheel
p2005
sg8
F0.592408
sg9
F0.663
sg10
S'country'
p2006
sg12
F0.0306
sg13
VDarius Rucker
p2007
sg15
I9999
sg16
F0.529
sg17
Nsg18
F0.8810333333333333
sg19
Nsg20
Nsg21
F0.14162428583396786
sg22
F0.592
sg23
Nsg24
Nsg25
I0
ssg26
I01
sg27
I01
sba(iSong
Song
p2008
(dp2009
g3
(dp2010
g5
F0.00155
sg6
VIt Ain't My Fault
p2011
sg8
F0.492044
sg9
F0.824
sg10
S'country'
p2012
sg12
F0.0331
sg13
VBrothers Osborne
p2013
sg15
I9999
sg16
F0.723
sg17
Nsg18
F0.9014833333333333
sg19
Nsg20
Nsg21
F0.14162428583396786
sg22
F0.76
sg23
Nsg24
Nsg25
F0.167
ssg26
I01
sg27
I01
sba(iSong
Song
p2014
(dp2015
g3
(dp2016
g5
F0.0316
sg6
VThese Are My People
p2017
sg8
F0.36025599999999997
sg9
F0.896
sg10
S'country'
p2018
sg12
F0.0545
sg13
VRodney Atkins
p2019
sg15
I9999
sg16
F0.558
sg17
Nsg18
F0.93855
sg19
Nsg20
Nsg21
F0.14162428583396786
sg22
F0.63
sg23
Nsg24
Nsg25
I0
ssg26
I01
sg27
I01
sba(iSong
Song
p2020
(dp2021
g3
(dp2022
g5
F0.00265
sg6
VGet Your Shine On
p2023
sg8
F0.387972
sg9
F0.93
sg10
S'country'
p2024
sg12
F0.0372
sg13
VFlorida Georgia Line
p2025
sg15
I9999
sg16
F0.508
sg17
Nsg18
F0.9247
sg19
Nsg20
Nsg21
F0.14162428583396786
sg22
F0.607
sg23
Nsg24
Nsg25
F2.64e-06
ssg26
I01
sg27
I01
sba(iSong
Song
p2026
(dp2027
g3
(dp2028
g5
F0.00986
sg6
VReal Good Man
p2029
sg8
F0.35972000000000004
sg9
F0.827
sg10
S'country'
p2030
sg12
F0.0266
sg13
VTim McGraw
p2031
sg15
I9999
sg16
F0.56
sg17
Nsg18
F0.9101166666666667
sg19
Nsg20
Nsg21
F0.14162428583396786
sg22
F0.639
sg23
Nsg24
Nsg25
F1.13e-05
ssg26
I01
sg27
I01
sba(iSong
Song
p2032
(dp2033
g3
(dp2034
g5
F0.152
sg6
VUp All Night
p2035
sg8
F0.6520119999999999
sg9
F0.702
sg10
S'country'
p2036
sg12
F0.0284
sg13
VJon Pardi
p2037
sg15
I9999
sg16
F0.554
sg17
Nsg18
F0.9171333333333334
sg19
Nsg20
Nsg21
F0.14162428583396786
sg22
F0.467
sg23
Nsg24
Nsg25
I0
ssg26
I01
sg27
I01
sba(iSong
Song
p2038
(dp2039
g3
(dp2040
g5
F0.0913
sg6
VBackwoods
p2041
sg8
F0.6315080000000001
sg9
F0.91
sg10
S'country'
p2042
sg12
F0.0576
sg13
VJustin Moore
p2043
sg15
I9999
sg16
F0.497
sg17
Nsg18
F0.9180333333333334
sg19
Nsg20
Nsg21
F0.14162428583396786
sg22
F0.766
sg23
Nsg24
Nsg25
F2.75e-06
ssg26
I01
sg27
I01
sba(iSong
Song
p2044
(dp2045
g3
(dp2046
g5
F0.0318
sg6
VT-Shirt
p2047
sg8
F0.383984
sg9
F0.857
sg10
S'country'
p2048
sg12
F0.0397
sg13
VThomas Rhett
p2049
sg15
I9999
sg16
F0.647
sg17
Nsg18
F0.9103166666666667
sg19
Nsg20
Nsg21
F0.14162428583396786
sg22
F0.771
sg23
Nsg24
Nsg25
I0
ssg26
I01
sg27
I01
sba(iSong
Song
p2050
(dp2051
g3
(dp2052
g5
F0.141
sg6
VSideways
p2053
sg8
F0.432184
sg9
F0.915
sg10
S'country'
p2054
sg12
F0.0364
sg13
VDierks Bentley
p2055
sg15
I9999
sg16
F0.624
sg17
Nsg18
F0.9562166666666666
sg19
Nsg20
Nsg21
F0.14162428583396786
sg22
F0.815
sg23
Nsg24
Nsg25
I0
ssg26
I01
sg27
I01
sba(iSong
Song
p2056
(dp2057
g3
(dp2058
g5
F0.511
sg6
VChillin' It
p2059
sg8
F0.551928
sg9
F0.849
sg10
S'country'
p2060
sg12
F0.0386
sg13
VCole Swindell
p2061
sg15
I9999
sg16
F0.576
sg17
Nsg18
F0.94905
sg19
Nsg20
Nsg21
F0.14162428583396786
sg22
F0.666
sg23
Nsg24
Nsg25
F3.89e-05
ssg26
I01
sg27
I01
sba(iSong
Song
p2062
(dp2063
g3
(dp2064
g5
F0.00407
sg6
VRound Here
p2065
sg8
F0.567908
sg9
F0.956
sg10
S'country'
p2066
sg12
F0.0379
sg13
VFlorida Georgia Line
p2067
sg15
I9999
sg16
F0.523
sg17
Nsg18
F0.9491166666666667
sg19
Nsg20
Nsg21
F0.14162428583396786
sg22
F0.888
sg23
Nsg24
Nsg25
I0
ssg26
I01
sg27
I01
sba(iSong
Song
p2068
(dp2069
g3
(dp2070
g5
F0.0626
sg6
VThat's My Kind Of Night
p2071
sg8
F0.44007999999999997
sg9
F0.754
sg10
S'country'
p2072
sg12
F0.051
sg13
VLuke Bryan
p2073
sg15
I9999
sg16
F0.66
sg17
Nsg18
F0.9526666666666667
sg19
Nsg20
Nsg21
F0.14162428583396786
sg22
F0.899
sg23
Nsg24
Nsg25
I0
ssg26
I01
sg27
I01
sba(iSong
Song
p2074
(dp2075
g3
(dp2076
g5
F0.00314
sg6
VBeer Can
p2077
sg8
F0.5919439999999999
sg9
F0.836
sg10
S'country'
p2078
sg12
F0.0452
sg13
VLuke Combs
p2079
sg15
I9999
sg16
F0.543
sg17
Nsg18
F0.9096666666666666
sg19
Nsg20
Nsg21
F0.14162428583396786
sg22
F0.75
sg23
Nsg24
Nsg25
I0
ssg26
I01
sg27
I01
sba(iSong
Song
p2080
(dp2081
g3
(dp2082
g5
F0.000907
sg6
VCraving You
p2083
sg8
F0.41994400000000004
sg9
F0.841
sg10
S'country'
p2084
sg12
F0.0353
sg13
VThomas Rhett
p2085
sg15
I9999
sg16
F0.612
sg17
Nsg18
F0.93675
sg19
Nsg20
Nsg21
F0.14162428583396786
sg22
F0.499
sg23
Nsg24
Nsg25
I0
ssg26
I01
sg27
I01
sba(iSong
Song
p2086
(dp2087
g3
(dp2088
g5
F0.0897
sg6
VAmerican Ride
p2089
sg8
F0.696332
sg9
F0.907
sg10
S'country'
p2090
sg12
F0.0649
sg13
VToby Keith
p2091
sg15
I9999
sg16
F0.52
sg17
Nsg18
F0.9551
sg19
Nsg20
Nsg21
F0.14162428583396786
sg22
F0.816
sg23
Nsg24
Nsg25
I0
ssg26
I01
sg27
I01
sba(iSong
Song
p2092
(dp2093
g3
(dp2094
g5
F0.131
sg6
VThis Cowboy's Hat (feat. Ned LeDoux)
p2095
sg8
F0.664472
sg9
F0.675
sg10
S'country'
p2096
sg12
F0.0449
sg13
VChase Rice
p2097
sg15
I9999
sg16
F0.483
sg17
Nsg18
F0.9088333333333334
sg19
Nsg20
Nsg21
F0.14162428583396786
sg22
F0.367
sg23
Nsg24
Nsg25
F0.000195
ssg26
I01
sg27
I01
sba(iSong
Song
p2098
(dp2099
g3
(dp2100
g5
F0.0782
sg6
VPlay Something Country
p2101
sg8
F0.46013600000000004
sg9
F0.909
sg10
S'country'
p2102
sg12
F0.0321
sg13
VBrooks & Dunn
p2103
sg15
I9999
sg16
F0.684
sg17
Nsg18
F0.9367166666666668
sg19
Nsg20
Nsg21
F0.14162428583396786
sg22
F0.864
sg23
Nsg24
Nsg25
F1.22e-06
ssg26
I01
sg27
I01
sba(iSong
Song
p2104
(dp2105
g3
(dp2106
g5
F0.0439
sg6
VAll My Friends Say
p2107
sg8
F0.468144
sg9
F0.9
sg10
S'country'
p2108
sg12
F0.0333
sg13
VLuke Bryan
p2109
sg15
I9999
sg16
F0.683
sg17
Nsg18
F0.9263
sg19
Nsg20
Nsg21
F0.14162428583396786
sg22
F0.962
sg23
Nsg24
Nsg25
I0
ssg26
I01
sg27
I01
sba(iSong
Song
p2110
(dp2111
g3
(dp2112
g5
F0.347
sg6
VDirt Road Anthem
p2113
sg8
F0.508096
sg9
F0.741
sg10
S'country'
p2114
sg12
F0.0357
sg13
VJason Aldean
p2115
sg15
I9999
sg16
F0.68
sg17
Nsg18
F0.91575
sg19
Nsg20
Nsg21
F0.14162428583396786
sg22
F0.635
sg23
Nsg24
Nsg25
F1.87e-06
ssg26
I01
sg27
I01
sba(iSong
Song
p2116
(dp2117
g3
(dp2118
g5
F0.00512
sg6
VDrunk On A Plane
p2119
sg8
F0.823832
sg9
F0.754
sg10
S'country'
p2120
sg12
F0.0323
sg13
VDierks Bentley
p2121
sg15
I9999
sg16
F0.439
sg17
Nsg18
F0.9072333333333333
sg19
Nsg20
Nsg21
F0.14162428583396786
sg22
F0.668
sg23
Nsg24
Nsg25
F7.45e-06
ssg26
I01
sg27
I01
sba(iSong
Song
p2122
(dp2123
g3
(dp2124
g5
F0.0697
sg6
VSomethin' 'Bout A Truck
p2125
sg8
F0.70404
sg9
F0.794
sg10
S'country'
p2126
sg12
F0.035
sg13
VKip Moore
p2127
sg15
I9999
sg16
F0.554
sg17
Nsg18
F0.9097166666666666
sg19
Nsg20
Nsg21
F0.14162428583396786
sg22
F0.79
sg23
Nsg24
Nsg25
I0
ssg26
I01
sg27
I01
sba(iSong
Song
p2128
(dp2129
g3
(dp2130
g5
F0.184
sg6
VTequila Makes Her Clothes Fall Off
p2131
sg8
F0.375764
sg9
F0.776
sg10
S'country'
p2132
sg12
F0.0308
sg13
VJoe Nichols
p2133
sg15
I9999
sg16
F0.658
sg17
Nsg18
F0.9058166666666667
sg19
Nsg20
Nsg21
F0.14162428583396786
sg22
F0.731
sg23
Nsg24
Nsg25
F1.52e-06
ssg26
I01
sg27
I01
sba(iSong
Song
p2134
(dp2135
g3
(dp2136
g5
F0.108
sg6
VSave A Horse (Ride A Cowboy)
p2137
sg8
F0.40826
sg9
F0.896
sg10
S'country'
p2138
sg12
F0.191
sg13
VBig & Rich
p2139
sg15
I9999
sg16
F0.7
sg17
Nsg18
F0.9620666666666667
sg19
Nsg20
Nsg21
F0.14162428583396786
sg22
F0.817
sg23
Nsg24
Nsg25
I0
ssg26
I01
sg27
I01
sba(iSong
Song
p2140
(dp2141
g3
(dp2142
g5
F0.455
sg6
VRedneck Yacht Club
p2143
sg8
F0.6724600000000001
sg9
F0.817
sg10
S'country'
p2144
sg12
F0.0355
sg13
VCraig Morgan
p2145
sg15
I9999
sg16
F0.49
sg17
Nsg18
F0.9099166666666666
sg19
Nsg20
Nsg21
F0.14162428583396786
sg22
F0.808
sg23
Nsg24
Nsg25
I0
ssg26
I01
sg27
I01
sba(iSong
Song
p2146
(dp2147
g3
(dp2148
g5
F0.055
sg6
VTake a Little Ride
p2149
sg8
F0.655736
sg9
F0.853
sg10
S'country'
p2150
sg12
F0.0417
sg13
VJason Aldean
p2151
sg15
I9999
sg16
F0.464
sg17
Nsg18
F0.9372166666666666
sg19
Nsg20
Nsg21
F0.14162428583396786
sg22
F0.76
sg23
Nsg24
Nsg25
I0
ssg26
I01
sg27
I01
sba(iSong
Song
p2152
(dp2153
g3
(dp2154
g5
F0.0189
sg6
VCruise
p2155
sg8
F0.592048
sg9
F0.945
sg10
S'country'
p2156
sg12
F0.0354
sg13
VFlorida Georgia Line
p2157
sg15
I9999
sg16
F0.464
sg17
Nsg18
F0.9443
sg19
Nsg20
Nsg21
F0.14162428583396786
sg22
F0.877
sg23
Nsg24
Nsg25
I0
ssg26
I01
sg27
I01
sba(iSong
Song
p2158
(dp2159
g3
(dp2160
g5
F0.0293
sg6
VCountry Girl (Shake It For Me)
p2161
sg8
F0.42388
sg9
F0.904
sg10
S'country'
p2162
sg12
F0.0462
sg13
VLuke Bryan
p2163
sg15
I9999
sg16
F0.645
sg17
Nsg18
F0.9244666666666668
sg19
Nsg20
Nsg21
F0.14162428583396786
sg22
F0.671
sg23
Nsg24
Nsg25
I0
ssg26
I01
sg27
I01
sba(iSong
Song
p2164
(dp2165
g3
(dp2166
g5
F0.0494
sg6
VSomethin' I'm Good At
p2167
sg8
F0.412036
sg9
F0.94
sg10
S'country'
p2168
sg12
F0.114
sg13
VBrett Eldredge
p2169
sg15
I9999
sg16
F0.562
sg17
Nsg18
F0.9277166666666666
sg19
Nsg20
Nsg21
F0.14162428583396786
sg22
F0.456
sg23
Nsg24
Nsg25
I0
ssg26
I01
sg27
I01
sba(iSong
Song
p2170
(dp2171
g3
(dp2172
g5
F0.0913
sg6
VUp Down (Feat. Florida Georgia Line)
p2173
sg8
F0.519712
sg9
F0.881
sg10
S'country'
p2174
sg12
F0.0349
sg13
VMorgan Wallen
p2175
sg15
I9999
sg16
F0.59
sg17
Nsg18
F0.9517
sg19
Nsg20
Nsg21
F0.14162428583396786
sg22
F0.734
sg23
Nsg24
Nsg25
I0
ssg26
I01
sg27
I01
sba(iSong
Song
p2176
(dp2177
g3
(dp2178
g5
F0.887
sg6
VWhen The Right One Comes Along
p2179
sg8
F0.5521520000000001
sg9
F0.216
sg10
S'country'
p2180
sg12
F0.0296
sg13
VNashville Cast
p2181
sg15
I9999
sg16
F0.628
sg17
Nsg18
F0.8531666666666666
sg19
Nsg20
Nsg21
F0.14162428583396786
sg22
F0.337
sg23
Nsg24
Nsg25
F6.17e-06
ssg26
I01
sg27
I01
sba(iSong
Song
p2182
(dp2183
g3
(dp2184
g5
F0.274
sg6
VThe Morning Song
p2185
sg8
F0.33572399999999997
sg9
F0.461
sg10
S'country'
p2186
sg12
F0.026
sg13
VDrew Holcomb & The Neighbors
p2187
sg15
I9999
sg16
F0.598
sg17
Nsg18
F0.8517500000000001
sg19
Nsg20
Nsg21
F0.14162428583396786
sg22
F0.412
sg23
Nsg24
Nsg25
F0.000651
ssg26
I01
sg27
I01
sba(iSong
Song
p2188
(dp2189
g3
(dp2190
g5
F0.81
sg6
V1979
p2191
sg8
F0.47987599999999997
sg9
F0.367
sg10
S'country'
p2192
sg12
F0.027
sg13
VHigh Dive Heart
p2193
sg15
I9999
sg16
F0.688
sg17
Nsg18
F0.8755166666666666
sg19
Nsg20
Nsg21
F0.14162428583396786
sg22
F0.213
sg23
Nsg24
Nsg25
I0
ssg26
I01
sg27
I01
sba(iSong
Song
p2194
(dp2195
g3
(dp2196
g5
F0.46
sg6
VNowhere Fast
p2197
sg8
F0.40789600000000004
sg9
F0.488
sg10
S'country'
p2198
sg12
F0.0286
sg13
VOld Dominion
p2199
sg15
I9999
sg16
F0.788
sg17
Nsg18
F0.8780166666666667
sg19
Nsg20
Nsg21
F0.14162428583396786
sg22
F0.48
sg23
Nsg24
Nsg25
F4.52e-06
ssg26
I01
sg27
I01
sba(iSong
Song
p2200
(dp2201
g3
(dp2202
g5
F0.884
sg6
VOld Time's Sake
p2203
sg8
F0.354368
sg9
F0.182
sg10
S'country'
p2204
sg12
F0.038
sg13
VCharlie Worsham
p2205
sg15
I9999
sg16
F0.476
sg17
Nsg18
F0.7270833333333333
sg19
Nsg20
Nsg21
F0.14162428583396786
sg22
F0.146
sg23
Nsg24
Nsg25
F0.00086
ssg26
I01
sg27
I01
sba(iSong
Song
p2206
(dp2207
g3
(dp2208
g5
F0.907
sg6
VJust In Case - Acoustic
p2209
sg8
F0.39922
sg9
F0.345
sg10
S'country'
p2210
sg12
F0.0326
sg13
VCatherine McGrath
p2211
sg15
I9999
sg16
F0.611
sg17
Nsg18
F0.8895166666666667
sg19
Nsg20
Nsg21
F0.14162428583396786
sg22
F0.251
sg23
Nsg24
Nsg25
I0
ssg26
I01
sg27
I01
sba(iSong
Song
p2212
(dp2213
g3
(dp2214
g5
F0.859
sg6
VAll Is Well
p2215
sg8
F0.399752
sg9
F0.419
sg10
S'country'
p2216
sg12
F0.0337
sg13
VAustin Basham
p2217
sg15
I9999
sg16
F0.34
sg17
Nsg18
F0.7959333333333334
sg19
Nsg20
Nsg21
F0.14162428583396786
sg22
F0.263
sg23
Nsg24
Nsg25
F0.00211
ssg26
I01
sg27
I01
sba(iSong
Song
p2218
(dp2219
g3
(dp2220
g5
F0.796
sg6
VThe Time I've Wasted
p2221
sg8
F0.580108
sg9
F0.25
sg10
S'country'
p2222
sg12
F0.0304
sg13
VLori McKenna
p2223
sg15
I9999
sg16
F0.473
sg17
Nsg18
F0.8122833333333334
sg19
Nsg20
Nsg21
F0.14162428583396786
sg22
F0.261
sg23
Nsg24
Nsg25
F8.83e-05
ssg26
I01
sg27
I01
sba(iSong
Song
p2224
(dp2225
g3
(dp2226
g5
F0.921
sg6
VWhiskey And You
p2227
sg8
F0.5090480000000001
sg9
F0.0597
sg10
S'country'
p2228
sg12
F0.0616
sg13
VChris Stapleton
p2229
sg15
I9999
sg16
F0.579
sg17
Nsg18
F0.7574333333333333
sg19
Nsg20
Nsg21
F0.14162428583396786
sg22
F0.264
sg23
Nsg24
Nsg25
F8.39e-06
ssg26
I01
sg27
I01
sba(iSong
Song
p2230
(dp2231
g3
(dp2232
g5
F0.283
sg6
VBluebonnets (Julia's Song)
p2233
sg8
F0.37191199999999996
sg9
F0.434
sg10
S'country'
p2234
sg12
F0.0237
sg13
VAaron Watson
p2235
sg15
I9999
sg16
F0.61
sg17
Nsg18
F0.88115
sg19
Nsg20
Nsg21
F0.14162428583396786
sg22
F0.29
sg23
Nsg24
Nsg25
I0
ssg26
I01
sg27
I01
sba(iSong
Song
p2236
(dp2237
g3
(dp2238
g5
F0.064
sg6
VHalley's Comet - Radio Mix
p2239
sg8
F0.691688
sg9
F0.42
sg10
S'country'
p2240
sg12
F0.0342
sg13
VSarah Darling
p2241
sg15
I9999
sg16
F0.339
sg17
Nsg18
F0.8638
sg19
Nsg20
Nsg21
F0.14162428583396786
sg22
F0.205
sg23
Nsg24
Nsg25
I0
ssg26
I01
sg27
I01
sba(iSong
Song
p2242
(dp2243
g3
(dp2244
g5
F0.575
sg6
VThe House That Built Me
p2245
sg8
F0.32448
sg9
F0.3
sg10
S'country'
p2246
sg12
F0.0289
sg13
VMiranda Lambert
p2247
sg15
I9999
sg16
F0.515
sg17
Nsg18
F0.8665833333333333
sg19
Nsg20
Nsg21
F0.14162428583396786
sg22
F0.206
sg23
Nsg24
Nsg25
F8.46e-06
ssg26
I01
sg27
I01
sba(iSong
Song
p2248
(dp2249
g3
(dp2250
g5
F0.37
sg6
VForever Girl
p2251
sg8
F0.560644
sg9
F0.439
sg10
S'country'
p2252
sg12
F0.0273
sg13
VJon Langston
p2253
sg15
I9999
sg16
F0.581
sg17
Nsg18
F0.90305
sg19
Nsg20
Nsg21
F0.14162428583396786
sg22
F0.324
sg23
Nsg24
Nsg25
I0
ssg26
I01
sg27
I01
sba(iSong
Song
p2254
(dp2255
g3
(dp2256
g5
F0.738
sg6
VShiver And Shake
p2257
sg8
F0.576024
sg9
F0.384
sg10
S'country'
p2258
sg12
F0.0349
sg13
VRyan Adams
p2259
sg15
I9999
sg16
F0.387
sg17
Nsg18
F0.7535666666666666
sg19
Nsg20
Nsg21
F0.14162428583396786
sg22
F0.132
sg23
Nsg24
Nsg25
F5.96e-05
ssg26
I01
sg27
I01
sba(iSong
Song
p2260
(dp2261
g3
(dp2262
g5
F0.376
sg6
VNumb
p2263
sg8
F0.41167200000000004
sg9
F0.397
sg10
S'country'
p2264
sg12
F0.0265
sg13
VTyminski
p2265
sg15
I9999
sg16
F0.49
sg17
Nsg18
F0.83825
sg19
Nsg20
Nsg21
F0.14162428583396786
sg22
F0.0743
sg23
Nsg24
Nsg25
I0
ssg26
I01
sg27
I01
sba(iSong
Song
p2266
(dp2267
g3
(dp2268
g5
F0.701
sg6
VRun of Good Luck
p2269
sg8
F0.522028
sg9
F0.166
sg10
S'country'
p2270
sg12
F0.0347
sg13
VRob Baird
p2271
sg15
I9999
sg16
F0.544
sg17
Nsg18
F0.7845666666666666
sg19
Nsg20
Nsg21
F0.14162428583396786
sg22
F0.306
sg23
Nsg24
Nsg25
F2.95e-06
ssg26
I01
sg27
I01
sba(iSong
Song
p2272
(dp2273
g3
(dp2274
g5
F0.885
sg6
VWords
p2275
sg8
F0.406292
sg9
F0.325
sg10
S'country'
p2276
sg12
F0.0302
sg13
VSara Evans
p2277
sg15
I9999
sg16
F0.576
sg17
Nsg18
F0.8428666666666668
sg19
Nsg20
Nsg21
F0.14162428583396786
sg22
F0.404
sg23
Nsg24
Nsg25
I0
ssg26
I01
sg27
I01
sba(iSong
Song
p2278
(dp2279
g3
(dp2280
g5
F0.625
sg6
VBrighter Shade of Blue
p2281
sg8
F0.33993599999999996
sg9
F0.438
sg10
S'country'
p2282
sg12
F0.0265
sg13
VJordan DePaul
p2283
sg15
I9999
sg16
F0.489
sg17
Nsg18
F0.8542000000000001
sg19
Nsg20
Nsg21
F0.14162428583396786
sg22
F0.188
sg23
Nsg24
Nsg25
F8e-05
ssg26
I01
sg27
I01
sba(iSong
Song
p2284
(dp2285
g3
(dp2286
g5
F0.437
sg6
VYou and Tequila
p2287
sg8
F0.543356
sg9
F0.454
sg10
S'country'
p2288
sg12
F0.0256
sg13
VKenny Chesney
p2289
sg15
I9999
sg16
F0.691
sg17
Nsg18
F0.8478333333333333
sg19
Nsg20
Nsg21
F0.14162428583396786
sg22
F0.35
sg23
Nsg24
Nsg25
F0.00227
ssg26
I01
sg27
I01
sba(iSong
Song
p2290
(dp2291
g3
(dp2292
g5
F0.901
sg6
VWithout A Word
p2293
sg8
F0.5452440000000001
sg9
F0.171
sg10
S'country'
p2294
sg12
F0.0303
sg13
VSara Watkins
p2295
sg15
I9999
sg16
F0.579
sg17
Nsg18
F0.7584166666666667
sg19
Nsg20
Nsg21
F0.14162428583396786
sg22
F0.389
sg23
Nsg24
Nsg25
F0.000308
ssg26
I01
sg27
I01
sba(iSong
Song
p2296
(dp2297
g3
(dp2298
g5
F0.671
sg6
VStay My Love
p2299
sg8
F0.303592
sg9
F0.402
sg10
S'country'
p2300
sg12
F0.0257
sg13
VUna Healy
p2301
sg15
I9999
sg16
F0.481
sg17
Nsg18
F0.8859333333333334
sg19
Nsg20
Nsg21
F0.14162428583396786
sg22
F0.287
sg23
Nsg24
Nsg25
I0
ssg26
I01
sg27
I01
sba(iSong
Song
p2302
(dp2303
g3
(dp2304
g5
F0.302
sg6
VShe Don't Love You
p2305
sg8
F0.60548
sg9
F0.338
sg10
S'country'
p2306
sg12
F0.029
sg13
VEric Paslay
p2307
sg15
I9999
sg16
F0.342
sg17
Nsg18
F0.8597666666666667
sg19
Nsg20
Nsg21
F0.14162428583396786
sg22
F0.172
sg23
Nsg24
Nsg25
F1.07e-06
ssg26
I01
sg27
I01
sba(iSong
Song
p2308
(dp2309
g3
(dp2310
g5
F0.861
sg6
VTin Man
p2311
sg8
F0.317824
sg9
F0.372
sg10
S'country'
p2312
sg12
F0.03
sg13
VMiranda Lambert
p2313
sg15
I9999
sg16
F0.425
sg17
Nsg18
F0.818
sg19
Nsg20
Nsg21
F0.14162428583396786
sg22
F0.292
sg23
Nsg24
Nsg25
F0.0148
ssg26
I01
sg27
I01
sba(iSong
Song
p2314
(dp2315
g3
(dp2316
g5
F0.885
sg6
VBurning House
p2317
sg8
F0.563616
sg9
F0.248
sg10
S'country'
p2318
sg12
F0.0317
sg13
VCam
p2319
sg15
I9999
sg16
F0.729
sg17
Nsg18
F0.8538
sg19
Nsg20
Nsg21
F0.14162428583396786
sg22
F0.43
sg23
Nsg24
Nsg25
F2e-05
ssg26
I01
sg27
I01
sba(iSong
Song
p2320
(dp2321
g3
(dp2322
g5
F0.708
sg6
VThe Love That We Need
p2323
sg8
F0.724076
sg9
F0.365
sg10
S'country'
p2324
sg12
F0.0451
sg13
VHayes Carll
p2325
sg15
I9999
sg16
F0.369
sg17
Nsg18
F0.8355166666666667
sg19
Nsg20
Nsg21
F0.14162428583396786
sg22
F0.222
sg23
Nsg24
Nsg25
F0.0343
ssg26
I01
sg27
I01
sba(iSong
Song
p2326
(dp2327
g3
(dp2328
g5
F0.825
sg6
VNo Peace In Quiet
p2329
sg8
F0.303996
sg9
F0.34
sg10
S'country'
p2330
sg12
F0.0277
sg13
VDelta Rae
p2331
sg15
I9999
sg16
F0.35
sg17
Nsg18
F0.85265
sg19
Nsg20
Nsg21
F0.14162428583396786
sg22
F0.293
sg23
Nsg24
Nsg25
F1.01e-05
ssg26
I01
sg27
I01
sba(iSong
Song
p2332
(dp2333
g3
(dp2334
g5
F0.869
sg6
VThe Hard Way
p2335
sg8
F0.633396
sg9
F0.244
sg10
S'country'
p2336
sg12
F0.0318
sg13
VSierra Hull
p2337
sg15
I9999
sg16
F0.403
sg17
Nsg18
F0.7974666666666667
sg19
Nsg20
Nsg21
F0.14162428583396786
sg22
F0.355
sg23
Nsg24
Nsg25
F5.29e-06
ssg26
I01
sg27
I01
sba(iSong
Song
p2338
(dp2339
g3
(dp2340
g5
F0.865
sg6
VEither Way
p2341
sg8
F0.5160159999999999
sg9
F0.0628
sg10
S'country'
p2342
sg12
F0.0417
sg13
VChris Stapleton
p2343
sg15
I9999
sg16
F0.641
sg17
Nsg18
F0.7640833333333333
sg19
Nsg20
Nsg21
F0.14162428583396786
sg22
F0.275
sg23
Nsg24
Nsg25
F4.08e-06
ssg26
I01
sg27
I01
sba(iSong
Song
p2344
(dp2345
g3
(dp2346
g5
F0.00925
sg6
VTake It All Back 2.0
p2347
sg8
F0.592284
sg9
F0.801
sg10
S'country'
p2348
sg12
F0.0305
sg13
VJudah & the Lion
p2349
sg15
I9999
sg16
F0.446
sg17
Nsg18
F0.8933833333333333
sg19
Nsg20
Nsg21
F0.14162428583396786
sg22
F0.765
sg23
Nsg24
Nsg25
F8.84e-05
ssg26
I01
sg27
I01
sba(iSong
Song
p2350
(dp2351
g3
(dp2352
g5
F0.335
sg6
VMiles Away
p2353
sg8
F0.646972
sg9
F0.49
sg10
S'country'
p2354
sg12
F0.0308
sg13
VKrysta Nick
p2355
sg15
I9999
sg16
F0.546
sg17
Nsg18
I0
sg19
Nsg20
Nsg21
F0.14162428583396786
sg22
F0.373
sg23
Nsg24
Nsg25
I0
ssg26
I01
sg27
I01
sba(iSong
Song
p2356
(dp2357
g3
(dp2358
g5
F0.771
sg6
VGiving It All (To You)
p2359
sg8
F0.45734800000000003
sg9
F0.32
sg10
S'country'
p2360
sg12
F0.028
sg13
VHaley & Michaels
p2361
sg15
I9999
sg16
F0.636
sg17
Nsg18
F0.8341166666666666
sg19
Nsg20
Nsg21
F0.14162428583396786
sg22
F0.2
sg23
Nsg24
Nsg25
I0
ssg26
I01
sg27
I01
sba(iSong
Song
p2362
(dp2363
g3
(dp2364
g5
F0.869
sg6
VPushin' Time
p2365
sg8
F0.311024
sg9
F0.179
sg10
S'country'
p2366
sg12
F0.0323
sg13
VMiranda Lambert
p2367
sg15
I9999
sg16
F0.503
sg17
Nsg18
F0.7822666666666667
sg19
Nsg20
Nsg21
F0.14162428583396786
sg22
F0.321
sg23
Nsg24
Nsg25
F2.21e-05
ssg26
I01
sg27
I01
sba(iSong
Song
p2368
(dp2369
g3
(dp2370
g5
F0.245
sg6
VA Woman Like You
p2371
sg8
F0.640192
sg9
F0.584
sg10
S'country'
p2372
sg12
F0.0305
sg13
VLee Brice
p2373
sg15
I9999
sg16
F0.592
sg17
Nsg18
F0.8763000000000001
sg19
Nsg20
Nsg21
F0.14162428583396786
sg22
F0.371
sg23
Nsg24
Nsg25
I0
ssg26
I01
sg27
I01
sba(iSong
Song
p2374
(dp2375
g3
(dp2376
g5
F0.0784
sg6
VIt's Your Move
p2377
sg8
F0.504464
sg9
F0.435
sg10
S'country'
p2378
sg12
F0.0288
sg13
VJosh Kelley
p2379
sg15
I9999
sg16
F0.436
sg17
Nsg18
F0.8754333333333333
sg19
Nsg20
Nsg21
F0.14162428583396786
sg22
F0.384
sg23
Nsg24
Nsg25
I0
ssg26
I01
sg27
I01
sba(iSong
Song
p2380
(dp2381
g3
(dp2382
g5
F0.558
sg6
VNothing Like You
p2383
sg8
F0.30814800000000003
sg9
F0.496
sg10
S'country'
p2384
sg12
F0.0309
sg13
VDave Barnes
p2385
sg15
I9999
sg16
F0.608
sg17
Nsg18
F0.8511833333333333
sg19
Nsg20
Nsg21
F0.14162428583396786
sg22
F0.506
sg23
Nsg24
Nsg25
F1.15e-05
ssg26
I01
sg27
I01
sba(iSong
Song
p2386
(dp2387
g3
(dp2388
g5
F0.679
sg6
VWait Up For Me
p2389
sg8
F0.332
sg9
F0.236
sg10
S'country'
p2390
sg12
F0.0296
sg13
VAmos Lee
p2391
sg15
I9999
sg16
F0.654
sg17
Nsg18
F0.7395833333333334
sg19
Nsg20
Nsg21
F0.14162428583396786
sg22
F0.262
sg23
Nsg24
Nsg25
F0.00495
ssg26
I01
sg27
I01
sba(iSong
Song
p2392
(dp2393
g3
(dp2394
g5
F0.741
sg6
VWaters
p2395
sg8
F0.479452
sg9
F0.264
sg10
S'country'
p2396
sg12
F0.0316
sg13
VJJ Shiplett
p2397
sg15
I9999
sg16
F0.576
sg17
Nsg18
F0.8297166666666667
sg19
Nsg20
Nsg21
F0.14162428583396786
sg22
F0.283
sg23
Nsg24
Nsg25
I0
ssg26
I01
sg27
I01
sba(iSong
Song
p2398
(dp2399
g3
(dp2400
g5
F0.697
sg6
VFingertips
p2401
sg8
F0.460548
sg9
F0.324
sg10
S'country'
p2402
sg12
F0.0442
sg13
VRyan O'Shaughnessy
p2403
sg15
I9999
sg16
F0.491
sg17
Nsg18
F0.8228833333333333
sg19
Nsg20
Nsg21
F0.14162428583396786
sg22
F0.123
sg23
Nsg24
Nsg25
I0
ssg26
I01
sg27
I01
sba(iSong
Song
p2404
(dp2405
g3
(dp2406
g5
F0.768
sg6
VLouise
p2407
sg8
F0.359588
sg9
F0.381
sg10
S'country'
p2408
sg12
F0.0321
sg13
VMipso
p2409
sg15
I9999
sg16
F0.639
sg17
Nsg18
F0.8428666666666668
sg19
Nsg20
Nsg21
F0.14162428583396786
sg22
F0.489
sg23
Nsg24
Nsg25
F2.25e-06
ssg26
I01
sg27
I01
sba(iSong
Song
p2410
(dp2411
g3
(dp2412
g5
F0.148
sg6
VPieces of You
p2413
sg8
F0.248012
sg9
F0.642
sg10
S'country'
p2414
sg12
F0.0305
sg13
VChris Carmack
p2415
sg15
I9999
sg16
F0.505
sg17
Nsg18
F0.9384333333333333
sg19
Nsg20
Nsg21
F0.14162428583396786
sg22
F0.167
sg23
Nsg24
Nsg25
F3.15e-05
ssg26
I01
sg27
I01
sba(iSong
Song
p2416
(dp2417
g3
(dp2418
g5
F0.714
sg6
VWhen You Say Nothing At All
p2419
sg8
F0.678568
sg9
F0.242
sg10
S'country'
p2420
sg12
F0.0291
sg13
VAlison Krauss & Union Station
p2421
sg15
I9999
sg16
F0.509
sg17
Nsg18
F0.77745
sg19
Nsg20
Nsg21
F0.14162428583396786
sg22
F0.448
sg23
Nsg24
Nsg25
F0.000365
ssg26
I01
sg27
I01
sba(iSong
Song
p2422
(dp2423
g3
(dp2424
g5
F0.131
sg6
VWhat If I Stay
p2425
sg8
F0.37608400000000003
sg9
F0.653
sg10
S'country'
p2426
sg12
F0.0275
sg13
VChris Young
p2427
sg15
I9999
sg16
F0.58
sg17
Nsg18
F0.89915
sg19
Nsg20
Nsg21
F0.14162428583396786
sg22
F0.232
sg23
Nsg24
Nsg25
F4.65e-05
ssg26
I01
sg27
I01
sba(iSong
Song
p2428
(dp2429
g3
(dp2430
g5
F0.751
sg6
VDreamer
p2431
sg8
F0.616112
sg9
F0.383
sg10
S'country'
p2432
sg12
F0.0407
sg13
VIsbells
p2433
sg15
I9999
sg16
F0.627
sg17
Nsg18
F0.78095
sg19
Nsg20
Nsg21
F0.14162428583396786
sg22
F0.421
sg23
Nsg24
Nsg25
F0.0289
ssg26
I01
sg27
I01
sba(iSong
Song
p2434
(dp2435
g3
(dp2436
g5
F0.00791
sg6
VThis Town Still Talks About You
p2437
sg8
F0.38382799999999995
sg9
F0.47
sg10
S'country'
p2438
sg12
F0.0242
sg13
VNatalie Hemby
p2439
sg15
I9999
sg16
F0.522
sg17
Nsg18
F0.8413333333333334
sg19
Nsg20
Nsg21
F0.14162428583396786
sg22
F0.344
sg23
Nsg24
Nsg25
F1.54e-06
ssg26
I01
sg27
I01
sba(iSong
Song
p2440
(dp2441
g3
(dp2442
g5
F0.493
sg6
VSwimming Alone
p2443
sg8
F0.6402680000000001
sg9
F0.493
sg10
S'country'
p2444
sg12
F0.0295
sg13
VLiz Rose
p2445
sg15
I9999
sg16
F0.572
sg17
Nsg18
F0.8856833333333333
sg19
Nsg20
Nsg21
F0.14162428583396786
sg22
F0.171
sg23
Nsg24
Nsg25
F4.48e-06
ssg26
I01
sg27
I01
sba(iSong
Song
p2446
(dp2447
g3
(dp2448
g5
F0.659
sg6
VWhere Cowboys Ride
p2449
sg8
F0.329208
sg9
F0.374
sg10
S'country'
p2450
sg12
F0.0339
sg13
VSarah Darling
p2451
sg15
I9999
sg16
F0.405
sg17
Nsg18
F0.8313666666666666
sg19
Nsg20
Nsg21
F0.14162428583396786
sg22
F0.194
sg23
Nsg24
Nsg25
F4.15e-05
ssg26
I01
sg27
I01
sba(iSong
Song
p2452
(dp2453
g3
(dp2454
g5
F0.141
sg6
VDancing Shoes
p2455
sg8
F0.5521280000000001
sg9
F0.415
sg10
S'country'
p2456
sg12
F0.0277
sg13
VGreen River Ordinance
p2457
sg15
I9999
sg16
F0.594
sg17
Nsg18
F0.8835
sg19
Nsg20
Nsg21
F0.14162428583396786
sg22
F0.205
sg23
Nsg24
Nsg25
F1.58e-06
ssg26
I01
sg27
I01
sba(iSong
Song
p2458
(dp2459
g3
(dp2460
g5
F0.673
sg6
VWoulda Left Me Too
p2461
sg8
F0.5916480000000001
sg9
F0.452
sg10
S'country'
p2462
sg12
F0.0603
sg13
VRyan Griffin
p2463
sg15
I9999
sg16
F0.564
sg17
Nsg18
F0.8568666666666667
sg19
Nsg20
Nsg21
F0.14162428583396786
sg22
F0.173
sg23
Nsg24
Nsg25
F0.00105
ssg26
I01
sg27
I01
sba(iSong
Song
p2464
(dp2465
g3
(dp2466
g5
F0.857
sg6
VComing Down the Mountain
p2467
sg8
F0.560052
sg9
F0.344
sg10
S'country'
p2468
sg12
F0.0278
sg13
VMipso
p2469
sg15
I9999
sg16
F0.582
sg17
Nsg18
F0.8475333333333334
sg19
Nsg20
Nsg21
F0.14162428583396786
sg22
F0.374
sg23
Nsg24
Nsg25
F0.0871
ssg26
I01
sg27
I01
sba(iSong
Song
p2470
(dp2471
g3
(dp2472
g5
F0.807
sg6
VTo The Moon And Back
p2473
sg8
F0.33368400000000004
sg9
F0.473
sg10
S'country'
p2474
sg12
F0.0307
sg13
VLuke Bryan
p2475
sg15
I9999
sg16
F0.407
sg17
Nsg18
F0.8283833333333334
sg19
Nsg20
Nsg21
F0.14162428583396786
sg22
F0.269
sg23
Nsg24
Nsg25
F0.0672
ssg26
I01
sg27
I01
sba(iSong
Song
p2476
(dp2477
g3
(dp2478
g5
F0.835
sg6
VBlacked Out
p2479
sg8
F0.624056
sg9
F0.391
sg10
S'country'
p2480
sg12
F0.0323
sg13
VChris Young
p2481
sg15
I9999
sg16
F0.598
sg17
Nsg18
F0.8076000000000001
sg19
Nsg20
Nsg21
F0.14162428583396786
sg22
F0.644
sg23
Nsg24
Nsg25
F1.48e-05
ssg26
I01
sg27
I01
sba(iSong
Song
p2482
(dp2483
g3
(dp2484
g5
F0.744
sg6
VThis Town Is Killing Me
p2485
sg8
F0.303936
sg9
F0.18
sg10
S'country'
p2486
sg12
F0.0316
sg13
VCaitlyn Smith
p2487
sg15
I9999
sg16
F0.48
sg17
Nsg18
F0.83
sg19
Nsg20
Nsg21
F0.14162428583396786
sg22
F0.242
sg23
Nsg24
Nsg25
I0
ssg26
I01
sg27
I01
sba(iSong
Song
p2488
(dp2489
g3
(dp2490
g5
F0.569
sg6
VGirl Goin' Nowhere
p2491
sg8
F0.319584
sg9
F0.158
sg10
S'country'
p2492
sg12
F0.0615
sg13
VAshley McBryde
p2493
sg15
I9999
sg16
F0.428
sg17
Nsg18
F0.7864666666666668
sg19
Nsg20
Nsg21
F0.14162428583396786
sg22
F0.159
sg23
Nsg24
Nsg25
F9.64e-05
ssg26
I01
sg27
I01
sba(iSong
Song
p2494
(dp2495
g3
(dp2496
g5
F0.00275
sg6
VStay Downtown
p2497
sg8
F0.311228
sg9
F0.758
sg10
S'country'
p2498
sg12
F0.0451
sg13
VCole Swindell
p2499
sg15
I9999
sg16
F0.336
sg17
Nsg18
F0.9302166666666667
sg19
Nsg20
Nsg21
F0.14162428583396786
sg22
F0.236
sg23
Nsg24
Nsg25
I0
ssg26
I01
sg27
I01
sba(iSong
Song
p2500
(dp2501
g3
(dp2502
g5
F0.0896
sg6
VI'd Be Jealous Too
p2503
sg8
F0.403736
sg9
F0.718
sg10
S'country'
p2504
sg12
F0.0293
sg13
VDustin Lynch
p2505
sg15
I9999
sg16
F0.716
sg17
Nsg18
F0.91075
sg19
Nsg20
Nsg21
F0.14162428583396786
sg22
F0.537
sg23
Nsg24
Nsg25
I0
ssg26
I01
sg27
I01
sba(iSong
Song
p2506
(dp2507
g3
(dp2508
g5
F0.0178
sg6
VA Girl Like You
p2509
sg8
F0.419956
sg9
F0.777
sg10
S'country'
p2510
sg12
F0.0329
sg13
VEaston Corbin
p2511
sg15
I9999
sg16
F0.74
sg17
Nsg18
F0.9265833333333333
sg19
Nsg20
Nsg21
F0.14162428583396786
sg22
F0.834
sg23
Nsg24
Nsg25
F1.27e-06
ssg26
I01
sg27
I01
sba(iSong
Song
p2512
(dp2513
g3
(dp2514
g5
F0.353
sg6
VWhole Lot in Love
p2515
sg8
F0.448108
sg9
F0.715
sg10
S'country'
p2516
sg12
F0.0377
sg13
VAustin Burke
p2517
sg15
I9999
sg16
F0.791
sg17
Nsg18
F0.9031833333333333
sg19
Nsg20
Nsg21
F0.14162428583396786
sg22
F0.593
sg23
Nsg24
Nsg25
I0
ssg26
I01
sg27
I01
sba(iSong
Song
p2518
(dp2519
g3
(dp2520
g5
F0.0528
sg6
VFound You
p2521
sg8
F0.656576
sg9
F0.821
sg10
S'country'
p2522
sg12
F0.0404
sg13
VKane Brown
p2523
sg15
I9999
sg16
F0.46
sg17
Nsg18
F0.9111166666666667
sg19
Nsg20
Nsg21
F0.14162428583396786
sg22
F0.438
sg23
Nsg24
Nsg25
I0
ssg26
I01
sg27
I01
sba(iSong
Song
p2524
(dp2525
g3
(dp2526
g5
F0.214
sg6
VI Could Use a Love Song
p2527
sg8
F0.368388
sg9
F0.634
sg10
S'country'
p2528
sg12
F0.0468
sg13
VMaren Morris
p2529
sg15
I9999
sg16
F0.638
sg17
Nsg18
F0.8920999999999999
sg19
Nsg20
Nsg21
F0.14162428583396786
sg22
F0.473
sg23
Nsg24
Nsg25
I0
ssg26
I01
sg27
I01
sba(iSong
Song
p2530
(dp2531
g3
(dp2532
g5
F0.113
sg6
VMarry Me
p2533
sg8
F0.340032
sg9
F0.408
sg10
S'country'
p2534
sg12
F0.0237
sg13
VThomas Rhett
p2535
sg15
I9999
sg16
F0.588
sg17
Nsg18
F0.8556333333333334
sg19
Nsg20
Nsg21
F0.14162428583396786
sg22
F0.484
sg23
Nsg24
Nsg25
I0
ssg26
I01
sg27
I01
sba(iSong
Song
p2536
(dp2537
g3
(dp2538
g5
F0.496
sg6
VYou Broke Up with Me
p2539
sg8
F0.48005200000000003
sg9
F0.711
sg10
S'country'
p2540
sg12
F0.061
sg13
VWalker Hayes
p2541
sg15
I9999
sg16
F0.846
sg17
Nsg18
F0.8676833333333334
sg19
Nsg20
Nsg21
F0.14162428583396786
sg22
F0.883
sg23
Nsg24
Nsg25
I0
ssg26
I01
sg27
I01
sba(iSong
Song
p2542
(dp2543
g3
(dp2544
g5
F0.0441
sg6
VSingles You Up
p2545
sg8
F0.800216
sg9
F0.9
sg10
S'country'
p2546
sg12
F0.0488
sg13
VJordan Davis
p2547
sg15
I9999
sg16
F0.489
sg17
Nsg18
F0.9406166666666667
sg19
Nsg20
Nsg21
F0.14162428583396786
sg22
F0.611
sg23
Nsg24
Nsg25
I0
ssg26
I01
sg27
I01
sba(iSong
Song
p2548
(dp2549
g3
(dp2550
g5
F0.0617
sg6
VHeartache On The Dance Floor
p2551
sg8
F0.46402
sg9
F0.824
sg10
S'country'
p2552
sg12
F0.0458
sg13
VJon Pardi
p2553
sg15
I9999
sg16
F0.594
sg17
Nsg18
F0.9291333333333333
sg19
Nsg20
Nsg21
F0.14162428583396786
sg22
F0.671
sg23
Nsg24
Nsg25
I0
ssg26
I01
sg27
I01
sba(iSong
Song
p2554
(dp2555
g3
(dp2556
g5
F0.00909
sg6
VWhat Guy Wouldn't
p2557
sg8
F0.480284
sg9
F0.836
sg10
S'country'
p2558
sg12
F0.055
sg13
VWaterloo Revival
p2559
sg15
I9999
sg16
F0.543
sg17
Nsg18
F0.9087166666666666
sg19
Nsg20
Nsg21
F0.14162428583396786
sg22
F0.695
sg23
Nsg24
Nsg25
I0
ssg26
I01
sg27
I01
sba(iSong
Song
p2560
(dp2561
g3
(dp2562
g5
F0.00898
sg6
VWhat Ifs
p2563
sg8
F0.503904
sg9
F0.799
sg10
S'country'
p2564
sg12
F0.0275
sg13
VKane Brown
p2565
sg15
I9999
sg16
F0.612
sg17
Nsg18
F0.9232833333333333
sg19
Nsg20
Nsg21
F0.14162428583396786
sg22
F0.687
sg23
Nsg24
Nsg25
I0
ssg26
I01
sg27
I01
sba(iSong
Song
p2566
(dp2567
g3
(dp2568
g5
F0.013
sg6
VWhen It Rains It Pours
p2569
sg8
F0.5121079999999999
sg9
F0.801
sg10
S'country'
p2570
sg12
F0.0303
sg13
VLuke Combs
p2571
sg15
I9999
sg16
F0.551
sg17
Nsg18
F0.9155166666666666
sg19
Nsg20
Nsg21
F0.14162428583396786
sg22
F0.625
sg23
Nsg24
Nsg25
F6.03e-06
ssg26
I01
sg27
I01
sba(iSong
Song
p2572
(dp2573
g3
(dp2574
g5
F0.52
sg6
VBe with Me
p2575
sg8
F0.41612400000000005
sg9
F0.862
sg10
S'country'
p2576
sg12
F0.0275
sg13
VOld Dominion
p2577
sg15
I9999
sg16
F0.657
sg17
Nsg18
F0.9158666666666666
sg19
Nsg20
Nsg21
F0.14162428583396786
sg22
F0.849
sg23
Nsg24
Nsg25
I0
ssg26
I01
sg27
I01
sba(iSong
Song
p2578
(dp2579
g3
(dp2580
g5
F0.397
sg6
VIn Case You Didn't Know
p2581
sg8
F0.591904
sg9
F0.544
sg10
S'country'
p2582
sg12
F0.0315
sg13
VBrett Young
p2583
sg15
I9999
sg16
F0.596
sg17
Nsg18
F0.8784333333333334
sg19
Nsg20
Nsg21
F0.14162428583396786
sg22
F0.393
sg23
Nsg24
Nsg25
I0
ssg26
I01
sg27
I01
sba(iSong
Song
p2584
(dp2585
g3
(dp2586
g5
F0.302
sg6
VSpeakers, Bleachers And Preachers
p2587
sg8
F0.38408
sg9
F0.625
sg10
S'country'
p2588
sg12
F0.0258
sg13
VBrandon Lay
p2589
sg15
I9999
sg16
F0.603
sg17
Nsg18
F0.8906166666666666
sg19
Nsg20
Nsg21
F0.14162428583396786
sg22
F0.651
sg23
Nsg24
Nsg25
I0
ssg26
I01
sg27
I01
sba(iSong
Song
p2590
(dp2591
g3
(dp2592
g5
F0.0362
sg6
VHooked
p2593
sg8
F0.528216
sg9
F0.721
sg10
S'country'
p2594
sg12
F0.0356
sg13
VDylan Scott
p2595
sg15
I9999
sg16
F0.597
sg17
Nsg18
F0.8929666666666667
sg19
Nsg20
Nsg21
F0.14162428583396786
sg22
F0.437
sg23
Nsg24
Nsg25
I0
ssg26
I01
sg27
I01
sba(iSong
Song
p2596
(dp2597
g3
(dp2598
g5
F0.193
sg6
VWhen the Good Guys Win
p2599
sg8
F0.568176
sg9
F0.853
sg10
S'country'
p2600
sg12
F0.0365
sg13
VGranger Smith
p2601
sg15
I9999
sg16
F0.619
sg17
Nsg18
F0.9185166666666666
sg19
Nsg20
Nsg21
F0.14162428583396786
sg22
F0.864
sg23
Nsg24
Nsg25
I0
ssg26
I01
sg27
I01
sba(iSong
Song
p2602
(dp2603
g3
(dp2604
g5
F0.122
sg6
VDo I Make You Wanna
p2605
sg8
F0.359812
sg9
F0.751
sg10
S'country'
p2606
sg12
F0.0299
sg13
VBilly Currington
p2607
sg15
I9999
sg16
F0.549
sg17
Nsg18
F0.9096166666666666
sg19
Nsg20
Nsg21
F0.14162428583396786
sg22
F0.493
sg23
Nsg24
Nsg25
I0
ssg26
I01
sg27
I01
sba(iSong
Song
p2608
(dp2609
g3
(dp2610
g5
F0.463
sg6
VBody Like A Back Road
p2611
sg8
F0.395852
sg9
F0.469
sg10
S'country'
p2612
sg12
F0.0326
sg13
VSam Hunt
p2613
sg15
I9999
sg16
F0.731
sg17
Nsg18
F0.8795666666666667
sg19
Nsg20
Nsg21
F0.14162428583396786
sg22
F0.631
sg23
Nsg24
Nsg25
F1.04e-06
ssg26
I01
sg27
I01
sba(iSong
Song
p2614
(dp2615
g3
(dp2616
g5
F0.0351
sg6
VStupid
p2617
sg8
F0.368084
sg9
F0.868
sg10
S'country'
p2618
sg12
F0.0384
sg13
VLevi Hummon
p2619
sg15
I9999
sg16
F0.588
sg17
Nsg18
F0.9182666666666667
sg19
Nsg20
Nsg21
F0.14162428583396786
sg22
F0.559
sg23
Nsg24
Nsg25
I0
ssg26
I01
sg27
I01
sba(iSong
Song
p2620
(dp2621
g3
(dp2622
g5
F0.263
sg6
VHeaven
p2623
sg8
F0.320036
sg9
F0.556
sg10
S'country'
p2624
sg12
F0.0306
sg13
VKane Brown
p2625
sg15
I9999
sg16
F0.677
sg17
Nsg18
F0.8909333333333334
sg19
Nsg20
Nsg21
F0.14162428583396786
sg22
F0.521
sg23
Nsg24
Nsg25
I0
ssg26
I01
sg27
I01
sba(iSong
Song
p2626
(dp2627
g3
(dp2628
g5
F0.119
sg6
VYours
p2629
sg8
F0.5362319999999999
sg9
F0.722
sg10
S'country'
p2630
sg12
F0.034
sg13
VRussell Dickerson
p2631
sg15
I9999
sg16
F0.555
sg17
Nsg18
F0.8999166666666666
sg19
Nsg20
Nsg21
F0.14162428583396786
sg22
F0.559
sg23
Nsg24
Nsg25
I0
ssg26
I01
sg27
I01
sba(iSong
Song
p2632
(dp2633
g3
(dp2634
g5
F0.65
sg6
VThe Rest of Our Life
p2635
sg8
F0.479684
sg9
F0.468
sg10
S'country'
p2636
sg12
F0.0291
sg13
VTim McGraw
p2637
sg15
I9999
sg16
F0.617
sg17
Nsg18
F0.8848666666666667
sg19
Nsg20
Nsg21
F0.14162428583396786
sg22
F0.333
sg23
Nsg24
Nsg25
I0
ssg26
I01
sg27
I01
sba(iSong
Song
p2638
(dp2639
g3
(dp2640
g5
F0.161
sg6
VThis Night Back
p2641
sg8
F0.640668
sg9
F0.863
sg10
S'country'
p2642
sg12
F0.04
sg13
VCanaan Smith
p2643
sg15
I9999
sg16
F0.587
sg17
Nsg18
F0.91995
sg19
Nsg20
Nsg21
F0.14162428583396786
sg22
F0.537
sg23
Nsg24
Nsg25
I0
ssg26
I01
sg27
I01
sba(iSong
Song
p2644
(dp2645
g3
(dp2646
g5
F0.0527
sg6
VGetting Over You
p2647
sg8
F0.680556
sg9
F0.784
sg10
S'country'
p2648
sg12
F0.0344
sg13
VJackie Lee
p2649
sg15
I9999
sg16
F0.442
sg17
Nsg18
F0.9333166666666667
sg19
Nsg20
Nsg21
F0.14162428583396786
sg22
F0.552
sg23
Nsg24
Nsg25
I0
ssg26
I01
sg27
I01
sba(iSong
Song
p2650
(dp2651
g3
(dp2652
g5
F0.0446
sg6
VRound Here Buzz
p2653
sg8
F0.30432
sg9
F0.427
sg10
S'country'
p2654
sg12
F0.0336
sg13
VEric Church
p2655
sg15
I9999
sg16
F0.639
sg17
Nsg18
F0.8497833333333333
sg19
Nsg20
Nsg21
F0.14162428583396786
sg22
F0.457
sg23
Nsg24
Nsg25
F2.32e-05
ssg26
I01
sg27
I01
sba(iSong
Song
p2656
(dp2657
g3
(dp2658
g5
F0.0159
sg6
VMan Enough Now
p2659
sg8
F0.624428
sg9
F0.577
sg10
S'country'
p2660
sg12
F0.0331
sg13
VChris Bandi
p2661
sg15
I9999
sg16
F0.591
sg17
Nsg18
F0.8982166666666667
sg19
Nsg20
Nsg21
F0.14162428583396786
sg22
F0.502
sg23
Nsg24
Nsg25
I0
ssg26
I01
sg27
I01
sba(iSong
Song
p2662
(dp2663
g3
(dp2664
g5
F0.144
sg6
VAll On Me
p2665
sg8
F0.323984
sg9
F0.658
sg10
S'country'
p2666
sg12
F0.0281
sg13
VDevin Dawson
p2667
sg15
I9999
sg16
F0.631
sg17
Nsg18
F0.91145
sg19
Nsg20
Nsg21
F0.14162428583396786
sg22
F0.7
sg23
Nsg24
Nsg25
I0
ssg26
I01
sg27
I01
sba(iSong
Song
p2668
(dp2669
g3
(dp2670
g5
F0.182
sg6
VFemale
p2671
sg8
F0.33999599999999996
sg9
F0.474
sg10
S'country'
p2672
sg12
F0.0351
sg13
VKeith Urban
p2673
sg15
I9999
sg16
F0.562
sg17
Nsg18
F0.8539666666666667
sg19
Nsg20
Nsg21
F0.14162428583396786
sg22
F0.345
sg23
Nsg24
Nsg25
F9.8e-05
ssg26
I01
sg27
I01
sba(iSong
Song
p2674
(dp2675
g3
(dp2676
g5
F0.38
sg6
VGreatest Love Story
p2677
sg8
F0.5919
sg9
F0.621
sg10
S'country'
p2678
sg12
F0.0524
sg13
VLANCO
p2679
sg15
I9999
sg16
F0.665
sg17
Nsg18
F0.8571500000000001
sg19
Nsg20
Nsg21
F0.14162428583396786
sg22
F0.632
sg23
Nsg24
Nsg25
I0
ssg26
I01
sg27
I01
sba(iSong
Song
p2680
(dp2681
g3
(dp2682
g5
F0.143
sg6
VKiss Somebody
p2683
sg8
F0.71204
sg9
F0.681
sg10
S'country'
p2684
sg12
F0.075
sg13
VMorgan Evans
p2685
sg15
I9999
sg16
F0.492
sg17
Nsg18
F0.8827
sg19
Nsg20
Nsg21
F0.14162428583396786
sg22
F0.511
sg23
Nsg24
Nsg25
I0
ssg26
I01
sg27
I01
sba(iSong
Song
p2686
(dp2687
g3
(dp2688
g5
F0.0886
sg6
VLegends
p2689
sg8
F0.448188
sg9
F0.644
sg10
S'country'
p2690
sg12
F0.0322
sg13
VKelsea Ballerini
p2691
sg15
I9999
sg16
F0.603
sg17
Nsg18
F0.89255
sg19
Nsg20
Nsg21
F0.14162428583396786
sg22
F0.244
sg23
Nsg24
Nsg25
I0
ssg26
I01
sg27
I01
sba(iSong
Song
p2692
(dp2693
g3
(dp2694
g5
F0.593
sg6
VWritten in the Sand
p2695
sg8
F0.33594
sg9
F0.437
sg10
S'country'
p2696
sg12
F0.0575
sg13
VOld Dominion
p2697
sg15
I9999
sg16
F0.725
sg17
Nsg18
F0.8399666666666666
sg19
Nsg20
Nsg21
F0.14162428583396786
sg22
F0.759
sg23
Nsg24
Nsg25
I0
ssg26
I01
sg27
I01
sba(iSong
Song
p2698
(dp2699
g3
(dp2700
g5
F0.265
sg6
VThe Long Way
p2701
sg8
F0.355488
sg9
F0.637
sg10
S'country'
p2702
sg12
F0.0401
sg13
VBrett Eldredge
p2703
sg15
I9999
sg16
F0.488
sg17
Nsg18
F0.8728333333333332
sg19
Nsg20
Nsg21
F0.14162428583396786
sg22
F0.23
sg23
Nsg24
Nsg25
I0
ssg26
I01
sg27
I01
sba(iSong
Song
p2704
(dp2705
g3
(dp2706
g5
F0.049
sg6
VAlmost Over You
p2707
sg8
F0.404276
sg9
F0.892
sg10
S'country'
p2708
sg12
F0.0525
sg13
VJessie James Decker
p2709
sg15
I9999
sg16
F0.556
sg17
Nsg18
F0.95265
sg19
Nsg20
Nsg21
F0.14162428583396786
sg22
F0.264
sg23
Nsg24
Nsg25
F0.00053
ssg26
I01
sg27
I01
sba(iSong
Song
p2710
(dp2711
g3
(dp2712
g5
F0.368
sg6
VTake Back Home Girl (Feat. Tori Kelly)
p2713
sg8
F0.638832
sg9
F0.78
sg10
S'country'
p2714
sg12
F0.064
sg13
VChris Lane
p2715
sg15
I9999
sg16
F0.494
sg17
Nsg18
F0.9362499999999999
sg19
Nsg20
Nsg21
F0.14162428583396786
sg22
F0.664
sg23
Nsg24
Nsg25
I0
ssg26
I01
sg27
I01
sba(iSong
Song
p2716
(dp2717
g3
(dp2718
g5
F0.189
sg6
VHappens Like That
p2719
sg8
F0.32418
sg9
F0.807
sg10
S'country'
p2720
sg12
F0.0825
sg13
VGranger Smith
p2721
sg15
I9999
sg16
F0.557
sg17
Nsg18
F0.9095333333333334
sg19
Nsg20
Nsg21
F0.14162428583396786
sg22
F0.578
sg23
Nsg24
Nsg25
I0
ssg26
I01
sg27
I01
sba(iSong
Song
p2722
(dp2723
g3
(dp2724
g5
F0.0913
sg6
VUp Down (Feat. Florida Georgia Line)
p2725
sg8
F0.519712
sg9
F0.881
sg10
S'country'
p2726
sg12
F0.0349
sg13
VMorgan Wallen
p2727
sg15
I9999
sg16
F0.59
sg17
Nsg18
F0.9517
sg19
Nsg20
Nsg21
F0.14162428583396786
sg22
F0.734
sg23
Nsg24
Nsg25
I0
ssg26
I01
sg27
I01
sba(iSong
Song
p2728
(dp2729
g3
(dp2730
g5
F0.032
sg6
VUnforgettable
p2731
sg8
F0.52008
sg9
F0.738
sg10
S'country'
p2732
sg12
F0.0303
sg13
VThomas Rhett
p2733
sg15
I9999
sg16
F0.663
sg17
Nsg18
F0.9086666666666666
sg19
Nsg20
Nsg21
F0.14162428583396786
sg22
F0.825
sg23
Nsg24
Nsg25
F0.000225
ssg26
I01
sg27
I01
sba(iSong
Song
p2734
(dp2735
g3
(dp2736
g5
F0.081
sg6
VI Got You
p2737
sg8
F0.36772000000000005
sg9
F0.88
sg10
S'country'
p2738
sg12
F0.0731
sg13
VJosh Mirenda
p2739
sg15
I9999
sg16
F0.49
sg17
Nsg18
F0.9135833333333333
sg19
Nsg20
Nsg21
F0.14162428583396786
sg22
F0.493
sg23
Nsg24
Nsg25
I0
ssg26
I01
sg27
I01
sba(iSong
Song
p2740
(dp2741
g3
(dp2742
g5
F0.00379
sg6
VNothin Like Us
p2743
sg8
F0.299888
sg9
F0.856
sg10
S'country'
p2744
sg12
F0.0629
sg13
VJosh Gracin
p2745
sg15
I9999
sg16
F0.527
sg17
Nsg18
F0.92935
sg19
Nsg20
Nsg21
F0.14162428583396786
sg22
F0.573
sg23
Nsg24
Nsg25
I0
ssg26
I01
sg27
I01
sba(iSong
Song
p2746
(dp2747
g3
(dp2748
g5
F0.042
sg6
VLook At You
p2749
sg8
F0.416108
sg9
F0.625
sg10
S'country'
p2750
sg12
F0.0284
sg13
VSeth Ennis
p2751
sg15
I9999
sg16
F0.687
sg17
Nsg18
F0.8843
sg19
Nsg20
Nsg21
F0.14162428583396786
sg22
F0.866
sg23
Nsg24
Nsg25
I0
ssg26
I01
sg27
I01
sba(iSong
Song
p2752
(dp2753
g3
(dp2754
g5
F0.163
sg6
VI'll Name the Dogs
p2755
sg8
F0.672252
sg9
F0.852
sg10
S'country'
p2756
sg12
F0.0933
sg13
VBlake Shelton
p2757
sg15
I9999
sg16
F0.47
sg17
Nsg18
F0.9021
sg19
Nsg20
Nsg21
F0.14162428583396786
sg22
F0.773
sg23
Nsg24
Nsg25
F2.04e-06
ssg26
I01
sg27
I01
sba(iSong
Song
p2758
(dp2759
g3
(dp2760
g5
F0.047
sg6
VMeant to Be (feat. Florida Georgia Line)
p2761
sg8
F0.616336
sg9
F0.783
sg10
S'country'
p2762
sg12
F0.0856
sg13
VBebe Rexha
p2763
sg15
I9999
sg16
F0.643
sg17
Nsg18
F0.8923666666666666
sg19
Nsg20
Nsg21
F0.14162428583396786
sg22
F0.579
sg23
Nsg24
Nsg25
I0
ssg26
I01
sg27
I01
sba(iSong
Song
p2764
(dp2765
g3
(dp2766
g5
F0.179
sg6
VLike I Loved You
p2767
sg8
F0.30407999999999996
sg9
F0.573
sg10
S'country'
p2768
sg12
F0.0292
sg13
VBrett Young
p2769
sg15
I9999
sg16
F0.579
sg17
Nsg18
F0.90015
sg19
Nsg20
Nsg21
F0.14162428583396786
sg22
F0.637
sg23
Nsg24
Nsg25
I0
ssg26
I01
sg27
I01
sba(iSong
Song
p2770
(dp2771
g3
(dp2772
g5
F0.000907
sg6
VCraving You
p2773
sg8
F0.41994400000000004
sg9
F0.841
sg10
S'country'
p2774
sg12
F0.0353
sg13
VThomas Rhett
p2775
sg15
I9999
sg16
F0.612
sg17
Nsg18
F0.93675
sg19
Nsg20
Nsg21
F0.14162428583396786
sg22
F0.499
sg23
Nsg24
Nsg25
I0
ssg26
I01
sg27
I01
sba(iSong
Song
p2776
(dp2777
g3
(dp2778
g5
F0.0275
sg6
VThree Chords & The Truth
p2779
sg8
F0.664296
sg9
F0.889
sg10
S'country'
p2780
sg12
F0.0462
sg13
VChase Rice
p2781
sg15
I9999
sg16
F0.44
sg17
Nsg18
F0.9212833333333333
sg19
Nsg20
Nsg21
F0.14162428583396786
sg22
F0.409
sg23
Nsg24
Nsg25
I0
ssg26
I01
sg27
I01
sba(iSong
Song
p2782
(dp2783
g3
(dp2784
g5
F0.0677
sg6
VLosing Sleep
p2785
sg8
F0.368012
sg9
F0.628
sg10
S'country'
p2786
sg12
F0.0431
sg13
VChris Young
p2787
sg15
I9999
sg16
F0.587
sg17
Nsg18
F0.9049499999999999
sg19
Nsg20
Nsg21
F0.14162428583396786
sg22
F0.649
sg23
Nsg24
Nsg25
F1.88e-06
ssg26
I01
sg27
I01
sba(iSong
Song
p2788
(dp2789
g3
(dp2790
g5
F0.129
sg6
VLight It Up
p2791
sg8
F0.520116
sg9
F0.935
sg10
S'country'
p2792
sg12
F0.0855
sg13
VLuke Bryan
p2793
sg15
I9999
sg16
F0.596
sg17
Nsg18
F0.9534333333333334
sg19
Nsg20
Nsg21
F0.14162428583396786
sg22
F0.678
sg23
Nsg24
Nsg25
I0
ssg26
I01
sg27
I01
sba(iSong
Song
p2794
(dp2795
g3
(dp2796
g5
F0.00733
sg6
VSunday Morning
p2797
sg8
F0.36002
sg9
F0.716
sg10
S'country'
p2798
sg12
F0.0342
sg13
VParmalee
p2799
sg15
I9999
sg16
F0.584
sg17
Nsg18
F0.9210499999999999
sg19
Nsg20
Nsg21
F0.14162428583396786
sg22
F0.525
sg23
Nsg24
Nsg25
I0
ssg26
I01
sg27
I01
sba(iSong
Song
p2800
(dp2801
g3
(dp2802
g5
F0.083
sg6
VIt Don't Hurt Like It Used To
p2803
sg8
F0.6479239999999999
sg9
F0.824
sg10
S'country'
p2804
sg12
F0.0524
sg13
VBilly Currington
p2805
sg15
I9999
sg16
F0.503
sg17
Nsg18
F0.9326833333333333
sg19
Nsg20
Nsg21
F0.14162428583396786
sg22
F0.448
sg23
Nsg24
Nsg25
I0
ssg26
I01
sg27
I01
sba(iSong
Song
p2806
(dp2807
g3
(dp2808
g5
F0.0352
sg6
VBackroad Song
p2809
sg8
F0.696024
sg9
F0.833
sg10
S'country'
p2810
sg12
F0.0437
sg13
VGranger Smith
p2811
sg15
I9999
sg16
F0.488
sg17
Nsg18
F0.8904833333333334
sg19
Nsg20
Nsg21
F0.14162428583396786
sg22
F0.751
sg23
Nsg24
Nsg25
F0.0172
ssg26
I01
sg27
I01
sba(iSong
Song
p2812
(dp2813
g3
(dp2814
g5
F0.0216
sg6
VHighway Don't Care
p2815
sg8
F0.632244
sg9
F0.79
sg10
S'country'
p2816
sg12
F0.039
sg13
VTim McGraw
p2817
sg15
I9999
sg16
F0.47
sg17
Nsg18
F0.9107999999999999
sg19
Nsg20
Nsg21
F0.14162428583396786
sg22
F0.495
sg23
Nsg24
Nsg25
I0
ssg26
I01
sg27
I01
sba(iSong
Song
p2818
(dp2819
g3
(dp2820
g5
F0.0538
sg6
VTalladega
p2821
sg8
F0.576
sg9
F0.672
sg10
S'country'
p2822
sg12
F0.0294
sg13
VEric Church
p2823
sg15
I9999
sg16
F0.584
sg17
Nsg18
F0.8615166666666667
sg19
Nsg20
Nsg21
F0.14162428583396786
sg22
F0.556
sg23
Nsg24
Nsg25
F0.0481
ssg26
I01
sg27
I01
sba(iSong
Song
p2824
(dp2825
g3
(dp2826
g5
F0.00407
sg6
VRound Here
p2827
sg8
F0.567908
sg9
F0.956
sg10
S'country'
p2828
sg12
F0.0379
sg13
VFlorida Georgia Line
p2829
sg15
I9999
sg16
F0.523
sg17
Nsg18
F0.9491166666666667
sg19
Nsg20
Nsg21
F0.14162428583396786
sg22
F0.888
sg23
Nsg24
Nsg25
I0
ssg26
I01
sg27
I01
sba(iSong
Song
p2830
(dp2831
g3
(dp2832
g5
F0.12
sg6
VYours
p2833
sg8
F0.5358999999999999
sg9
F0.796
sg10
S'country'
p2834
sg12
F0.0313
sg13
VRussell Dickerson
p2835
sg15
I9999
sg16
F0.568
sg17
Nsg18
F0.9115333333333333
sg19
Nsg20
Nsg21
F0.14162428583396786
sg22
F0.573
sg23
Nsg24
Nsg25
I0
ssg26
I01
sg27
I01
sba(iSong
Song
p2836
(dp2837
g3
(dp2838
g5
F0.0266
sg6
VMind Reader
p2839
sg8
F0.648212
sg9
F0.8
sg10
S'country'
p2840
sg12
F0.0413
sg13
VDustin Lynch
p2841
sg15
I9999
sg16
F0.394
sg17
Nsg18
F0.9305
sg19
Nsg20
Nsg21
F0.14162428583396786
sg22
F0.525
sg23
Nsg24
Nsg25
I0
ssg26
I01
sg27
I01
sba(iSong
Song
p2842
(dp2843
g3
(dp2844
g5
F0.166
sg6
VRebound
p2845
sg8
F0.54388
sg9
F0.795
sg10
S'country'
p2846
sg12
F0.0302
sg13
VDrew Baldridge
p2847
sg15
I9999
sg16
F0.599
sg17
Nsg18
F0.9255
sg19
Nsg20
Nsg21
F0.14162428583396786
sg22
F0.566
sg23
Nsg24
Nsg25
F4.23e-06
ssg26
I01
sg27
I01
sba(iSong
Song
p2848
(dp2849
g3
(dp2850
g5
F0.013
sg6
VSleep Without You
p2851
sg8
F0.354164
sg9
F0.716
sg10
S'country'
p2852
sg12
F0.0432
sg13
VBrett Young
p2853
sg15
I9999
sg16
F0.631
sg17
Nsg18
F0.9047833333333333
sg19
Nsg20
Nsg21
F0.14162428583396786
sg22
F0.647
sg23
Nsg24
Nsg25
I0
ssg26
I01
sg27
I01
sba(iSong
Song
p2854
(dp2855
g3
(dp2856
g5
F0.255
sg6
VSure Be Cool If You Did
p2857
sg8
F0.5472079999999999
sg9
F0.726
sg10
S'country'
p2858
sg12
F0.035
sg13
VBlake Shelton
p2859
sg15
I9999
sg16
F0.576
sg17
Nsg18
F0.9229166666666667
sg19
Nsg20
Nsg21
F0.14162428583396786
sg22
F0.582
sg23
Nsg24
Nsg25
I0
ssg26
I01
sg27
I01
sba(iSong
Song
p2860
(dp2861
g3
(dp2862
g5
F0.0406
sg6
VMay We All
p2863
sg8
F0.300076
sg9
F0.915
sg10
S'country'
p2864
sg12
F0.0389
sg13
VFlorida Georgia Line
p2865
sg15
I9999
sg16
F0.488
sg17
Nsg18
F0.9290833333333333
sg19
Nsg20
Nsg21
F0.14162428583396786
sg22
F0.646
sg23
Nsg24
Nsg25
I0
ssg26
I01
sg27
I01
sba(iSong
Song
p2866
(dp2867
g3
(dp2868
g5
F0.178
sg6
VRecord Year
p2869
sg8
F0.6398400000000001
sg9
F0.655
sg10
S'country'
p2870
sg12
F0.12
sg13
VEric Church
p2871
sg15
I9999
sg16
F0.585
sg17
Nsg18
F0.8641500000000001
sg19
Nsg20
Nsg21
F0.14162428583396786
sg22
F0.574
sg23
Nsg24
Nsg25
I0
ssg26
I01
sg27
I01
sba(iSong
Song
p2872
(dp2873
g3
(dp2874
g5
F0.606
sg6
VBlue Ain't Your Color
p2875
sg8
F0.329628
sg9
F0.417
sg10
S'country'
p2876
sg12
F0.0363
sg13
VKeith Urban
p2877
sg15
I9999
sg16
F0.686
sg17
Nsg18
F0.8702166666666666
sg19
Nsg20
Nsg21
F0.14162428583396786
sg22
F0.451
sg23
Nsg24
Nsg25
F1.79e-06
ssg26
I01
sg27
I01
sba(iSong
Song
p2878
(dp2879
g3
(dp2880
g5
F0.0919
sg6
VHead Over Boots
p2881
sg8
F0.43231200000000003
sg9
F0.669
sg10
S'country'
p2882
sg12
F0.0237
sg13
VJon Pardi
p2883
sg15
I9999
sg16
F0.637
sg17
Nsg18
F0.9232
sg19
Nsg20
Nsg21
F0.14162428583396786
sg22
F0.638
sg23
Nsg24
Nsg25
I0
ssg26
I01
sg27
I01
sba(iSong
Song
p2884
(dp2885
g3
(dp2886
g5
F0.0318
sg6
VT-Shirt
p2887
sg8
F0.383984
sg9
F0.857
sg10
S'country'
p2888
sg12
F0.0397
sg13
VThomas Rhett
p2889
sg15
I9999
sg16
F0.647
sg17
Nsg18
F0.9103166666666667
sg19
Nsg20
Nsg21
F0.14162428583396786
sg22
F0.771
sg23
Nsg24
Nsg25
I0
ssg26
I01
sg27
I01
sba(iSong
Song
p2890
(dp2891
g3
(dp2892
g5
F0.00167
sg6
VHoney Bee
p2893
sg8
F0.82228
sg9
F0.849
sg10
S'country'
p2894
sg12
F0.0385
sg13
VBlake Shelton
p2895
sg15
I9999
sg16
F0.481
sg17
Nsg18
F0.9144833333333333
sg19
Nsg20
Nsg21
F0.14162428583396786
sg22
F0.723
sg23
Nsg24
Nsg25
F1.49e-06
ssg26
I01
sg27
I01
sba(iSong
Song
p2896
(dp2897
g3
(dp2898
g5
F0.0661
sg6
VDirt
p2899
sg8
F0.487904
sg9
F0.875
sg10
S'country'
p2900
sg12
F0.0487
sg13
VFlorida Georgia Line
p2901
sg15
I9999
sg16
F0.554
sg17
Nsg18
F0.9302499999999999
sg19
Nsg20
Nsg21
F0.14162428583396786
sg22
F0.543
sg23
Nsg24
Nsg25
F1.59e-05
ssg26
I01
sg27
I01
sba(iSong
Song
p2902
(dp2903
g3
(dp2904
g5
F0.305
sg6
VSnapback
p2905
sg8
F0.403964
sg9
F0.793
sg10
S'country'
p2906
sg12
F0.0333
sg13
VOld Dominion
p2907
sg15
I9999
sg16
F0.687
sg17
Nsg18
F0.9403833333333333
sg19
Nsg20
Nsg21
F0.14162428583396786
sg22
F0.673
sg23
Nsg24
Nsg25
F3.23e-06
ssg26
I01
sg27
I01
sba(iSong
Song
p2908
(dp2909
g3
(dp2910
g5
F0.456
sg6
VWagon Wheel
p2911
sg8
F0.592408
sg9
F0.663
sg10
S'country'
p2912
sg12
F0.0306
sg13
VDarius Rucker
p2913
sg15
I9999
sg16
F0.529
sg17
Nsg18
F0.8810333333333333
sg19
Nsg20
Nsg21
F0.14162428583396786
sg22
F0.592
sg23
Nsg24
Nsg25
I0
ssg26
I01
sg27
I01
sba(iSong
Song
p2914
(dp2915
g3
(dp2916
g5
F0.0371
sg6
VRunnin' Outta Moonlight
p2917
sg8
F0.6882
sg9
F0.801
sg10
S'country'
p2918
sg12
F0.0393
sg13
VRandy Houser
p2919
sg15
I9999
sg16
F0.532
sg17
Nsg18
F0.93735
sg19
Nsg20
Nsg21
F0.14162428583396786
sg22
F0.799
sg23
Nsg24
Nsg25
F7.07e-06
ssg26
I01
sg27
I01
sba(iSong
Song
p2920
(dp2921
g3
(dp2922
g5
F0.0575
sg6
VNight Train
p2923
sg8
F0.632148
sg9
F0.708
sg10
S'country'
p2924
sg12
F0.0291
sg13
VJason Aldean
p2925
sg15
I9999
sg16
F0.493
sg17
Nsg18
F0.9134
sg19
Nsg20
Nsg21
F0.14162428583396786
sg22
F0.547
sg23
Nsg24
Nsg25
I0
ssg26
I01
sg27
I01
sba(iSong
Song
p2926
(dp2927
g3
(dp2928
g5
F0.00172
sg6
VAnything Goes
p2929
sg8
F0.616152
sg9
F0.977
sg10
S'country'
p2930
sg12
F0.045
sg13
VFlorida Georgia Line
p2931
sg15
I9999
sg16
F0.462
sg17
Nsg18
F0.9365833333333333
sg19
Nsg20
Nsg21
F0.14162428583396786
sg22
F0.746
sg23
Nsg24
Nsg25
I0
ssg26
I01
sg27
I01
sba(iSong
Song
p2932
(dp2933
g3
(dp2934
g5
F0.017
sg6
VSangria
p2935
sg8
F0.46393599999999996
sg9
F0.724
sg10
S'country'
p2936
sg12
F0.0265
sg13
VBlake Shelton
p2937
sg15
I9999
sg16
F0.646
sg17
Nsg18
F0.884
sg19
Nsg20
Nsg21
F0.14162428583396786
sg22
F0.54
sg23
Nsg24
Nsg25
F1.39e-06
ssg26
I01
sg27
I01
sba(iSong
Song
p2938
(dp2939
g3
(dp2940
g5
F0.0539
sg6
VI Want Crazy - Encore
p2941
sg8
F0.412116
sg9
F0.878
sg10
S'country'
p2942
sg12
F0.0387
sg13
VHunter Hayes
p2943
sg15
I9999
sg16
F0.562
sg17
Nsg18
F0.9199
sg19
Nsg20
Nsg21
F0.14162428583396786
sg22
F0.558
sg23
Nsg24
Nsg25
I0
ssg26
I01
sg27
I01
sba(iSong
Song
p2944
(dp2945
g3
(dp2946
g5
F0.0282
sg6
VI'm Comin' Over
p2947
sg8
F0.511988
sg9
F0.845
sg10
S'country'
p2948
sg12
F0.035
sg13
VChris Young
p2949
sg15
I9999
sg16
F0.575
sg17
Nsg18
F0.9360333333333333
sg19
Nsg20
Nsg21
F0.14162428583396786
sg22
F0.376
sg23
Nsg24
Nsg25
I0
ssg26
I01
sg27
I01
sba(iSong
Song
p2950
(dp2951
g3
(dp2952
g5
F0.275
sg6
VI Like The Sound Of That
p2953
sg8
F0.359856
sg9
F0.813
sg10
S'country'
p2954
sg12
F0.0368
sg13
VRascal Flatts
p2955
sg15
I9999
sg16
F0.609
sg17
Nsg18
F0.9066833333333333
sg19
Nsg20
Nsg21
F0.14162428583396786
sg22
F0.54
sg23
Nsg24
Nsg25
I0
ssg26
I01
sg27
I01
sba(iSong
Song
p2956
(dp2957
g3
(dp2958
g5
F0.00512
sg6
VDrunk On A Plane
p2959
sg8
F0.823832
sg9
F0.754
sg10
S'country'
p2960
sg12
F0.0323
sg13
VDierks Bentley
p2961
sg15
I9999
sg16
F0.439
sg17
Nsg18
F0.9072333333333333
sg19
Nsg20
Nsg21
F0.14162428583396786
sg22
F0.668
sg23
Nsg24
Nsg25
F7.45e-06
ssg26
I01
sg27
I01
sba(iSong
Song
p2962
(dp2963
g3
(dp2964
g5
F0.101
sg6
VConfession
p2965
sg8
F0.41994400000000004
sg9
F0.873
sg10
S'country'
p2966
sg12
F0.0348
sg13
VFlorida Georgia Line
p2967
sg15
I9999
sg16
F0.556
sg17
Nsg18
F0.9157333333333334
sg19
Nsg20
Nsg21
F0.14162428583396786
sg22
F0.48
sg23
Nsg24
Nsg25
F0.000131
ssg26
I01
sg27
I01
sba(iSong
Song
p2968
(dp2969
g3
(dp2970
g5
F0.241
sg6
VNight's On Fire
p2971
sg8
F0.656308
sg9
F0.779
sg10
S'country'
p2972
sg12
F0.0454
sg13
VDavid Nail
p2973
sg15
I9999
sg16
F0.543
sg17
Nsg18
F0.93115
sg19
Nsg20
Nsg21
F0.14162428583396786
sg22
F0.758
sg23
Nsg24
Nsg25
I0
ssg26
I01
sg27
I01
sba(iSong
Song
p2974
(dp2975
g3
(dp2976
g5
F0.0471
sg6
VEvery Storm (Runs Out Of Rain)
p2977
sg8
F0.428004
sg9
F0.722
sg10
S'country'
p2978
sg12
F0.0341
sg13
VGary Allan
p2979
sg15
I9999
sg16
F0.533
sg17
Nsg18
F0.8863833333333333
sg19
Nsg20
Nsg21
F0.14162428583396786
sg22
F0.396
sg23
Nsg24
Nsg25
F8.99e-06
ssg26
I01
sg27
I01
sba(iSong
Song
p2980
(dp2981
g3
(dp2982
g5
F0.000937
sg6
VThink of You
p2983
sg8
F0.447836
sg9
F0.893
sg10
S'country'
p2984
sg12
F0.0375
sg13
VChris Young
p2985
sg15
I9999
sg16
F0.616
sg17
Nsg18
F0.9402
sg19
Nsg20
Nsg21
F0.14162428583396786
sg22
F0.567
sg23
Nsg24
Nsg25
I0
ssg26
I01
sg27
I01
sba(iSong
Song
p2986
(dp2987
g3
(dp2988
g5
F0.0832
sg6
VPlay It Again
p2989
sg8
F0.5762240000000001
sg9
F0.898
sg10
S'country'
p2990
sg12
F0.0696
sg13
VLuke Bryan
p2991
sg15
I9999
sg16
F0.51
sg17
Nsg18
F0.9475
sg19
Nsg20
Nsg21
F0.14162428583396786
sg22
F0.596
sg23
Nsg24
Nsg25
I0
ssg26
I01
sg27
I01
sba(iSong
Song
p2992
(dp2993
g3
(dp2994
g5
F0.129
sg6
VHouse Party
p2995
sg8
F0.415808
sg9
F0.854
sg10
S'country'
p2996
sg12
F0.0503
sg13
VSam Hunt
p2997
sg15
I9999
sg16
F0.749
sg17
Nsg18
F0.9125833333333334
sg19
Nsg20
Nsg21
F0.14162428583396786
sg22
F0.842
sg23
Nsg24
Nsg25
I0
ssg26
I01
sg27
I01
sba(iSong
Song
p2998
(dp2999
g3
(dp3000
g5
F0.385
sg6
VH.O.L.Y.
p3001
sg8
F0.312012
sg9
F0.685
sg10
S'country'
p3002
sg12
F0.0351
sg13
VFlorida Georgia Line
p3003
sg15
I9999
sg16
F0.525
sg17
Nsg18
F0.9341
sg19
Nsg20
Nsg21
F0.14162428583396786
sg22
F0.54
sg23
Nsg24
Nsg25
I0
ssg26
I01
sg27
I01
sba(iSong
Song
p3004
(dp3005
g3
(dp3006
g5
F0.693
sg6
VHumble And Kind
p3007
sg8
F0.404212
sg9
F0.486
sg10
S'country'
p3008
sg12
F0.0289
sg13
VTim McGraw
p3009
sg15
I9999
sg16
F0.349
sg17
Nsg18
F0.8794666666666667
sg19
Nsg20
Nsg21
F0.14162428583396786
sg22
F0.158
sg23
Nsg24
Nsg25
F1.73e-06
ssg26
I01
sg27
I01
sba(iSong
Song
p3010
(dp3011
g3
(dp3012
g5
F0.0119
sg6
VHard To Love
p3013
sg8
F0.412068
sg9
F0.722
sg10
S'country'
p3014
sg12
F0.0332
sg13
VLee Brice
p3015
sg15
I9999
sg16
F0.638
sg17
Nsg18
F0.89705
sg19
Nsg20
Nsg21
F0.14162428583396786
sg22
F0.469
sg23
Nsg24
Nsg25
F0.00808
ssg26
I01
sg27
I01
sba(iSong
Song
p3016
(dp3017
g3
(dp3018
g5
F0.0718
sg6
VBreak Up with Him
p3019
sg8
F0.608344
sg9
F0.65
sg10
S'country'
p3020
sg12
F0.0347
sg13
VOld Dominion
p3021
sg15
I9999
sg16
F0.615
sg17
Nsg18
F0.9176
sg19
Nsg20
Nsg21
F0.14162428583396786
sg22
F0.548
sg23
Nsg24
Nsg25
I0
ssg26
I01
sg27
I01
sba(iSong
Song
p3022
(dp3023
g3
(dp3024
g5
F0.0102
sg6
VYours If You Want It
p3025
sg8
F0.452216
sg9
F0.91
sg10
S'country'
p3026
sg12
F0.0566
sg13
VRascal Flatts
p3027
sg15
I9999
sg16
F0.533
sg17
Nsg18
F0.9485499999999999
sg19
Nsg20
Nsg21
F0.14162428583396786
sg22
F0.494
sg23
Nsg24
Nsg25
I0
ssg26
I01
sg27
I01
sba(iSong
Song
p3028
(dp3029
g3
(dp3030
g5
F0.381
sg6
VDie A Happy Man
p3031
sg8
F0.332384
sg9
F0.383
sg10
S'country'
p3032
sg12
F0.0304
sg13
VThomas Rhett
p3033
sg15
I9999
sg16
F0.66
sg17
Nsg18
F0.8437166666666667
sg19
Nsg20
Nsg21
F0.14162428583396786
sg22
F0.381
sg23
Nsg24
Nsg25
I0
ssg26
I01
sg27
I01
sba(iSong
Song
p3034
(dp3035
g3
(dp3036
g5
F0.014
sg6
VParachute
p3037
sg8
F0.452132
sg9
F0.749
sg10
S'country'
p3038
sg12
F0.0297
sg13
VChris Stapleton
p3039
sg15
I9999
sg16
F0.639
sg17
Nsg18
F0.8778833333333333
sg19
Nsg20
Nsg21
F0.14162428583396786
sg22
F0.648
sg23
Nsg24
Nsg25
F3.52e-05
ssg26
I01
sg27
I01
sba(iSong
Song
p3040
(dp3041
g3
(dp3042
g5
F0.0435
sg6
VAutomatic
p3043
sg8
F0.383972
sg9
F0.703
sg10
S'country'
p3044
sg12
F0.0256
sg13
VMiranda Lambert
p3045
sg15
I9999
sg16
F0.591
sg17
Nsg18
F0.8964833333333334
sg19
Nsg20
Nsg21
F0.14162428583396786
sg22
F0.402
sg23
Nsg24
Nsg25
F2.34e-06
ssg26
I01
sg27
I01
sba(iSong
Song
p3046
(dp3047
g3
(dp3048
g5
F0.0408
sg6
VStay A Little Longer
p3049
sg8
F0.388024
sg9
F0.882
sg10
S'country'
p3050
sg12
F0.0294
sg13
VBrothers Osborne
p3051
sg15
I9999
sg16
F0.553
sg17
Nsg18
F0.9080833333333334
sg19
Nsg20
Nsg21
F0.14162428583396786
sg22
F0.529
sg23
Nsg24
Nsg25
F0.241
ssg26
I01
sg27
I01
sba(iSong
Song
p3052
(dp3053
g3
(dp3054
g5
F0.168
sg6
VMake You Miss Me
p3055
sg8
F0.5841040000000001
sg9
F0.468
sg10
S'country'
p3056
sg12
F0.0314
sg13
VSam Hunt
p3057
sg15
I9999
sg16
F0.612
sg17
Nsg18
F0.89005
sg19
Nsg20
Nsg21
F0.14162428583396786
sg22
F0.165
sg23
Nsg24
Nsg25
I0
ssg26
I01
sg27
I01
sba(iSong
Song
p3058
(dp3059
g3
(dp3060
g5
F0.119
sg6
VTil Tomorrow
p3061
sg8
F0.6279199999999999
sg9
F0.834
sg10
S'country'
p3062
sg12
F0.0553
sg13
VWalker McGuire
p3063
sg15
I9999
sg16
F0.46
sg17
Nsg18
F0.92085
sg19
Nsg20
Nsg21
F0.14162428583396786
sg22
F0.29
sg23
Nsg24
Nsg25
F9.12e-06
ssg26
I01
sg27
I01
sba(iSong
Song
p3064
(dp3065
g3
(dp3066
g5
F0.1
sg6
VSpringsteen
p3067
sg8
F0.41609199999999996
sg9
F0.809
sg10
S'country'
p3068
sg12
F0.0255
sg13
VEric Church
p3069
sg15
I9999
sg16
F0.692
sg17
Nsg18
F0.9010833333333333
sg19
Nsg20
Nsg21
F0.14162428583396786
sg22
F0.927
sg23
Nsg24
Nsg25
F9.77e-05
ssg26
I01
sg27
I01
sba(iSong
Song
p3070
(dp3071
g3
(dp3072
g5
F0.0127
sg6
VLove You Like That
p3073
sg8
F0.5805159999999999
sg9
F0.756
sg10
S'country'
p3074
sg12
F0.0287
sg13
VCanaan Smith
p3075
sg15
I9999
sg16
F0.561
sg17
Nsg18
F0.9157333333333334
sg19
Nsg20
Nsg21
F0.14162428583396786
sg22
F0.702
sg23
Nsg24
Nsg25
F8.34e-05
ssg26
I01
sg27
I01
sba(iSong
Song
p3076
(dp3077
g3
(dp3078
g5
F0.00265
sg6
VGet Your Shine On
p3079
sg8
F0.387972
sg9
F0.93
sg10
S'country'
p3080
sg12
F0.0372
sg13
VFlorida Georgia Line
p3081
sg15
I9999
sg16
F0.508
sg17
Nsg18
F0.9247
sg19
Nsg20
Nsg21
F0.14162428583396786
sg22
F0.607
sg23
Nsg24
Nsg25
F2.64e-06
ssg26
I01
sg27
I01
sba(iSong
Song
p3082
(dp3083
g3
(dp3084
g5
F0.399
sg6
VI Don't Dance
p3085
sg8
F0.368144
sg9
F0.559
sg10
S'country'
p3086
sg12
F0.0321
sg13
VLee Brice
p3087
sg15
I9999
sg16
F0.587
sg17
Nsg18
F0.8709666666666667
sg19
Nsg20
Nsg21
F0.14162428583396786
sg22
F0.19
sg23
Nsg24
Nsg25
F6.69e-06
ssg26
I01
sg27
I01
sba(iSong
Song
p3088
(dp3089
g3
(dp3090
g5
F0.125
sg6
VSong for Another Time
p3091
sg8
F0.664192
sg9
F0.805
sg10
S'country'
p3092
sg12
F0.0332
sg13
VOld Dominion
p3093
sg15
I9999
sg16
F0.497
sg17
Nsg18
F0.9334166666666667
sg19
Nsg20
Nsg21
F0.14162428583396786
sg22
F0.696
sg23
Nsg24
Nsg25
I0
ssg26
I01
sg27
I01
sba(iSong
Song
p3094
(dp3095
g3
(dp3096
g5
F0.0914
sg6
VFix
p3097
sg8
F0.40004399999999996
sg9
F0.896
sg10
S'country'
p3098
sg12
F0.0375
sg13
VChris Lane
p3099
sg15
I9999
sg16
F0.532
sg17
Nsg18
F0.9674333333333334
sg19
Nsg20
Nsg21
F0.14162428583396786
sg22
F0.696
sg23
Nsg24
Nsg25
I0
ssg26
I01
sg27
I01
sba(iSong
Song
p3100
(dp3101
g3
(dp3102
g5
F0.0721
sg6
VEverything's Gonna Be Alright
p3103
sg8
F0.35992
sg9
F0.587
sg10
S'country'
p3104
sg12
F0.0298
sg13
VDavid Lee Murphy
p3105
sg15
I9999
sg16
F0.764
sg17
Nsg18
F0.8833
sg19
Nsg20
Nsg21
F0.14162428583396786
sg22
F0.494
sg23
Nsg24
Nsg25
F6.45e-06
ssg26
I01
sg27
I01
sba(iSong
Song
p3106
(dp3107
g3
(dp3108
g5
F0.253
sg6
VDon't Waste the Night
p3109
sg8
F0.43977999999999995
sg9
F0.699
sg10
S'country'
p3110
sg12
F0.0323
sg13
VLevi Hummon
p3111
sg15
I9999
sg16
F0.568
sg17
Nsg18
F0.9189
sg19
Nsg20
Nsg21
F0.14162428583396786
sg22
F0.553
sg23
Nsg24
Nsg25
I0
ssg26
I01
sg27
I01
sba(iSong
Song
p3112
(dp3113
g3
(dp3114
g5
F0.0125
sg6
VGuns & Roses
p3115
sg8
F0.624112
sg9
F0.882
sg10
S'country'
p3116
sg12
F0.0646
sg13
VDrew Baldridge
p3117
sg15
I9999
sg16
F0.633
sg17
Nsg18
F0.9146666666666667
sg19
Nsg20
Nsg21
F0.14162428583396786
sg22
F0.722
sg23
Nsg24
Nsg25
I0
ssg26
I01
sg27
I01
sba(iSong
Song
p3118
(dp3119
g3
(dp3120
g5
F0.00585
sg6
VOne Number Away
p3121
sg8
F0.5762999999999999
sg9
F0.781
sg10
S'country'
p3122
sg12
F0.0311
sg13
VLuke Combs
p3123
sg15
I9999
sg16
F0.544
sg17
Nsg18
F0.8973333333333334
sg19
Nsg20
Nsg21
F0.14162428583396786
sg22
F0.527
sg23
Nsg24
Nsg25
I0
ssg26
I01
sg27
I01
sba(iSong
Song
p3124
(dp3125
g3
(dp3126
g5
F0.401
sg6
VSway
p3127
sg8
F0.388016
sg9
F0.724
sg10
S'country'
p3128
sg12
F0.0273
sg13
VDanielle Bradbery
p3129
sg15
I9999
sg16
F0.695
sg17
Nsg18
F0.92465
sg19
Nsg20
Nsg21
F0.14162428583396786
sg22
F0.606
sg23
Nsg24
Nsg25
I0
ssg26
I01
sg27
I01
sba(iSong
Song
p3130
(dp3131
g3
(dp3132
g5
F0.144
sg6
VAll On Me
p3133
sg8
F0.323984
sg9
F0.658
sg10
S'country'
p3134
sg12
F0.0281
sg13
VDevin Dawson
p3135
sg15
I9999
sg16
F0.631
sg17
Nsg18
F0.91145
sg19
Nsg20
Nsg21
F0.14162428583396786
sg22
F0.7
sg23
Nsg24
Nsg25
I0
ssg26
I01
sg27
I01
sba(iSong
Song
p3136
(dp3137
g3
(dp3138
g5
F0.0351
sg6
VStupid
p3139
sg8
F0.368084
sg9
F0.868
sg10
S'country'
p3140
sg12
F0.0384
sg13
VLevi Hummon
p3141
sg15
I9999
sg16
F0.588
sg17
Nsg18
F0.9182666666666667
sg19
Nsg20
Nsg21
F0.14162428583396786
sg22
F0.559
sg23
Nsg24
Nsg25
I0
ssg26
I01
sg27
I01
sba(iSong
Song
p3142
(dp3143
g3
(dp3144
g5
F0.0913
sg6
VUp Down (Feat. Florida Georgia Line)
p3145
sg8
F0.519712
sg9
F0.881
sg10
S'country'
p3146
sg12
F0.0349
sg13
VMorgan Wallen
p3147
sg15
I9999
sg16
F0.59
sg17
Nsg18
F0.9517
sg19
Nsg20
Nsg21
F0.14162428583396786
sg22
F0.734
sg23
Nsg24
Nsg25
I0
ssg26
I01
sg27
I01
sba(iSong
Song
p3148
(dp3149
g3
(dp3150
g5
F0.334
sg6
VGet to You
p3151
sg8
F0.6717519999999999
sg9
F0.565
sg10
S'country'
p3152
sg12
F0.0326
sg13
VMichael Ray
p3153
sg15
I9999
sg16
F0.486
sg17
Nsg18
F0.9057499999999999
sg19
Nsg20
Nsg21
F0.14162428583396786
sg22
F0.21
sg23
Nsg24
Nsg25
F0.00041
ssg26
I01
sg27
I01
sba(iSong
Song
p3154
(dp3155
g3
(dp3156
g5
F0.0466
sg6
VSeeing Blind
p3157
sg8
F0.375828
sg9
F0.571
sg10
S'country'
p3158
sg12
F0.0405
sg13
VNiall Horan
p3159
sg15
I9999
sg16
F0.709
sg17
Nsg18
F0.87305
sg19
Nsg20
Nsg21
F0.14162428583396786
sg22
F0.51
sg23
Nsg24
Nsg25
I0
ssg26
I01
sg27
I01
sba(iSong
Song
p3160
(dp3161
g3
(dp3162
g5
F0.259
sg6
VThey Can't See
p3163
sg8
F0.37562799999999996
sg9
F0.571
sg10
S'country'
p3164
sg12
F0.0326
sg13
VMichael Tyler
p3165
sg15
I9999
sg16
F0.638
sg17
Nsg18
F0.8879666666666667
sg19
Nsg20
Nsg21
F0.14162428583396786
sg22
F0.629
sg23
Nsg24
Nsg25
I0
ssg26
I01
sg27
I01
sba(iSong
Song
p3166
(dp3167
g3
(dp3168
g5
F0.0525
sg6
VAll Over
p3169
sg8
F0.359948
sg9
F0.776
sg10
S'country'
p3170
sg12
F0.0641
sg13
VCale Dodds
p3171
sg15
I9999
sg16
F0.576
sg17
Nsg18
F0.9170833333333334
sg19
Nsg20
Nsg21
F0.14162428583396786
sg22
F0.577
sg23
Nsg24
Nsg25
I0
ssg26
I01
sg27
I01
sba(iSong
Song
p3172
(dp3173
g3
(dp3174
g5
F0.143
sg6
VKiss Somebody
p3175
sg8
F0.71204
sg9
F0.681
sg10
S'country'
p3176
sg12
F0.075
sg13
VMorgan Evans
p3177
sg15
I9999
sg16
F0.492
sg17
Nsg18
F0.8827
sg19
Nsg20
Nsg21
F0.14162428583396786
sg22
F0.511
sg23
Nsg24
Nsg25
I0
ssg26
I01
sg27
I01
sba(iSong
Song
p3178
(dp3179
g3
(dp3180
g5
F0.0208
sg6
VBlue Jean Baby
p3181
sg8
F0.347968
sg9
F0.701
sg10
S'country'
p3182
sg12
F0.0347
sg13
VJimmie Allen
p3183
sg15
I9999
sg16
F0.642
sg17
Nsg18
F0.8936166666666666
sg19
Nsg20
Nsg21
F0.14162428583396786
sg22
F0.834
sg23
Nsg24
Nsg25
I0
ssg26
I01
sg27
I01
sba(iSong
Song
p3184
(dp3185
g3
(dp3186
g5
F0.0738
sg6
VSleeves
p3187
sg8
F0.380488
sg9
F0.622
sg10
S'country'
p3188
sg12
F0.0362
sg13
VJake Rose
p3189
sg15
I9999
sg16
F0.716
sg17
Nsg18
F0.8930666666666667
sg19
Nsg20
Nsg21
F0.14162428583396786
sg22
F0.367
sg23
Nsg24
Nsg25
I0
ssg26
I01
sg27
I01
sba(iSong
Song
p3190
(dp3191
g3
(dp3192
g5
F0.0141
sg6
VHow Does It Sound
p3193
sg8
F0.32802800000000004
sg9
F0.761
sg10
S'country'
p3194
sg12
F0.0287
sg13
VDylan Schneider
p3195
sg15
I9999
sg16
F0.536
sg17
Nsg18
F0.9078
sg19
Nsg20
Nsg21
F0.14162428583396786
sg22
F0.495
sg23
Nsg24
Nsg25
I0
ssg26
I01
sg27
I01
sba(iSong
Song
p3196
(dp3197
g3
(dp3198
g5
F0.0362
sg6
VHooked
p3199
sg8
F0.528216
sg9
F0.721
sg10
S'country'
p3200
sg12
F0.0356
sg13
VDylan Scott
p3201
sg15
I9999
sg16
F0.597
sg17
Nsg18
F0.8929666666666667
sg19
Nsg20
Nsg21
F0.14162428583396786
sg22
F0.437
sg23
Nsg24
Nsg25
I0
ssg26
I01
sg27
I01
sba(iSong
Song
p3202
(dp3203
g3
(dp3204
g5
F0.219
sg6
VPut It in a Song
p3205
sg8
F0.490008
sg9
F0.753
sg10
S'country'
p3206
sg12
F0.0856
sg13
VTaylor Acorn
p3207
sg15
I9999
sg16
F0.426
sg17
Nsg18
F0.9395333333333333
sg19
Nsg20
Nsg21
F0.14162428583396786
sg22
F0.706
sg23
Nsg24
Nsg25
I0
ssg26
I01
sg27
I01
sba(iSong
Song
p3208
(dp3209
g3
(dp3210
g5
F0.263
sg6
VHeaven
p3211
sg8
F0.320036
sg9
F0.556
sg10
S'country'
p3212
sg12
F0.0306
sg13
VKane Brown
p3213
sg15
I9999
sg16
F0.677
sg17
Nsg18
F0.8909333333333334
sg19
Nsg20
Nsg21
F0.14162428583396786
sg22
F0.521
sg23
Nsg24
Nsg25
I0
ssg26
I01
sg27
I01
sba(iSong
Song
p3214
(dp3215
g3
(dp3216
g5
F0.0205
sg6
VSomebody to Thank
p3217
sg8
F0.543864
sg9
F0.675
sg10
S'country'
p3218
sg12
F0.0263
sg13
VLogan Mize
p3219
sg15
I9999
sg16
F0.615
sg17
Nsg18
F0.9213833333333333
sg19
Nsg20
Nsg21
F0.14162428583396786
sg22
F0.512
sg23
Nsg24
Nsg25
I0
ssg26
I01
sg27
I01
sba(iSong
Song
p3220
(dp3221
g3
(dp3222
g5
F0.0383
sg6
VDiane
p3223
sg8
F0.5641799999999999
sg9
F0.869
sg10
S'country'
p3224
sg12
F0.125
sg13
VCam
p3225
sg15
I9999
sg16
F0.545
sg17
Nsg18
F0.9694666666666667
sg19
Nsg20
Nsg21
F0.14162428583396786
sg22
F0.204
sg23
Nsg24
Nsg25
I0
ssg26
I01
sg27
I01
sba(iSong
Song
p3226
(dp3227
g3
(dp3228
g5
F0.0274
sg6
VSame Beer Different Day
p3229
sg8
F0.468036
sg9
F0.865
sg10
S'country'
p3230
sg12
F0.0417
sg13
VAustin Jenckes
p3231
sg15
I9999
sg16
F0.604
sg17
Nsg18
F0.9037833333333334
sg19
Nsg20
Nsg21
F0.14162428583396786
sg22
F0.354
sg23
Nsg24
Nsg25
F0.00766
ssg26
I01
sg27
I01
sba(iSong
Song
p3232
(dp3233
g3
(dp3234
g5
F0.203
sg6
VAirplane
p3235
sg8
F0.552376
sg9
F0.761
sg10
S'country'
p3236
sg12
F0.0373
sg13
VCJ Solar
p3237
sg15
I9999
sg16
F0.481
sg17
Nsg18
F0.9369666666666667
sg19
Nsg20
Nsg21
F0.14162428583396786
sg22
F0.505
sg23
Nsg24
Nsg25
I0
ssg26
I01
sg27
I01
sba(iSong
Song
p3238
(dp3239
g3
(dp3240
g5
F0.0528
sg6
VFound You
p3241
sg8
F0.656576
sg9
F0.821
sg10
S'country'
p3242
sg12
F0.0404
sg13
VKane Brown
p3243
sg15
I9999
sg16
F0.46
sg17
Nsg18
F0.9111166666666667
sg19
Nsg20
Nsg21
F0.14162428583396786
sg22
F0.438
sg23
Nsg24
Nsg25
I0
ssg26
I01
sg27
I01
sba(iSong
Song
p3244
(dp3245
g3
(dp3246
g5
F0.0441
sg6
VSingles You Up
p3247
sg8
F0.800216
sg9
F0.9
sg10
S'country'
p3248
sg12
F0.0488
sg13
VJordan Davis
p3249
sg15
I9999
sg16
F0.489
sg17
Nsg18
F0.9406166666666667
sg19
Nsg20
Nsg21
F0.14162428583396786
sg22
F0.611
sg23
Nsg24
Nsg25
I0
ssg26
I01
sg27
I01
sba(iSong
Song
p3250
(dp3251
g3
(dp3252
g5
F0.168
sg6
VProof Is on Your Lips
p3253
sg8
F0.575704
sg9
F0.807
sg10
S'country'
p3254
sg12
F0.033
sg13
VRyan Robinette
p3255
sg15
I9999
sg16
F0.455
sg17
Nsg18
F0.9157833333333334
sg19
Nsg20
Nsg21
F0.14162428583396786
sg22
F0.685
sg23
Nsg24
Nsg25
I0
ssg26
I01
sg27
I01
sba(iSong
Song
p3256
(dp3257
g3
(dp3258
g5
F0.534
sg6
VLet Me Help You With That
p3259
sg8
F0.471628
sg9
F0.449
sg10
S'country'
p3260
sg12
F0.0362
sg13
VPayton Smith
p3261
sg15
I9999
sg16
F0.685
sg17
Nsg18
F0.8700500000000001
sg19
Nsg20
Nsg21
F0.14162428583396786
sg22
F0.253
sg23
Nsg24
Nsg25
I0
ssg26
I01
sg27
I01
sba(iSong
Song
p3262
(dp3263
g3
(dp3264
g5
F0.216
sg6
VOut of My System
p3265
sg8
F0.368536
sg9
F0.897
sg10
S'country'
p3266
sg12
F0.0964
sg13
VCale Dodds
p3267
sg15
I9999
sg16
F0.57
sg17
Nsg18
F0.923
sg19
Nsg20
Nsg21
F0.14162428583396786
sg22
F0.547
sg23
Nsg24
Nsg25
I0
ssg26
I01
sg27
I01
sba(iSong
Song
p3268
(dp3269
g3
(dp3270
g5
F0.269
sg6
VThankful For
p3271
sg8
F0.427748
sg9
F0.911
sg10
S'country'
p3272
sg12
F0.0487
sg13
VAdam Sanders
p3273
sg15
I9999
sg16
F0.555
sg17
Nsg18
F0.9471
sg19
Nsg20
Nsg21
F0.14162428583396786
sg22
F0.768
sg23
Nsg24
Nsg25
I0
ssg26
I01
sg27
I01
sba(iSong
Song
p3274
(dp3275
g3
(dp3276
g5
F0.0109
sg6
VRollin' - Single Mix
p3277
sg8
F0.40793599999999997
sg9
F0.927
sg10
S'country'
p3278
sg12
F0.0434
sg13
VJackson Michelson
p3279
sg15
I9999
sg16
F0.682
sg17
Nsg18
F0.9278666666666666
sg19
Nsg20
Nsg21
F0.14162428583396786
sg22
F0.82
sg23
Nsg24
Nsg25
F2.26e-06
ssg26
I01
sg27
I01
sba(iSong
Song
p3280
(dp3281
g3
(dp3282
g5
F0.302
sg6
VSpeakers, Bleachers And Preachers
p3283
sg8
F0.38408
sg9
F0.625
sg10
S'country'
p3284
sg12
F0.0258
sg13
VBrandon Lay
p3285
sg15
I9999
sg16
F0.603
sg17
Nsg18
F0.8906166666666666
sg19
Nsg20
Nsg21
F0.14162428583396786
sg22
F0.651
sg23
Nsg24
Nsg25
I0
ssg26
I01
sg27
I01
sba(iSong
Song
p3286
(dp3287
g3
(dp3288
g5
F0.216
sg6
VWe Were That Song
p3289
sg8
F0.411824
sg9
F0.911
sg10
S'country'
p3290
sg12
F0.05
sg13
VBrett Kissel
p3291
sg15
I9999
sg16
F0.618
sg17
Nsg18
F0.9446166666666667
sg19
Nsg20
Nsg21
F0.14162428583396786
sg22
F0.501
sg23
Nsg24
Nsg25
I0
ssg26
I01
sg27
I01
sba(iSong
Song
p3292
(dp3293
g3
(dp3294
g5
F0.323
sg6
VEyes On You
p3295
sg8
F0.38862
sg9
F0.652
sg10
S'country'
p3296
sg12
F0.0281
sg13
VChase Rice
p3297
sg15
I9999
sg16
F0.606
sg17
Nsg18
F0.8836333333333334
sg19
Nsg20
Nsg21
F0.14162428583396786
sg22
F0.476
sg23
Nsg24
Nsg25
I0
ssg26
I01
sg27
I01
sba(iSong
Song
p3298
(dp3299
g3
(dp3300
g5
F0.047
sg6
VMeant to Be (feat. Florida Georgia Line)
p3301
sg8
F0.616336
sg9
F0.783
sg10
S'country'
p3302
sg12
F0.0856
sg13
VBebe Rexha
p3303
sg15
I9999
sg16
F0.643
sg17
Nsg18
F0.8923666666666666
sg19
Nsg20
Nsg21
F0.14162428583396786
sg22
F0.579
sg23
Nsg24
Nsg25
I0
ssg26
I01
sg27
I01
sba(iSong
Song
p3304
(dp3305
g3
(dp3306
g5
F0.031
sg6
VEnds of the Earth
p3307
sg8
F0.343864
sg9
F0.774
sg10
S'country'
p3308
sg12
F0.04
sg13
VBrandon Ray
p3309
sg15
I9999
sg16
F0.541
sg17
Nsg18
F0.8982499999999999
sg19
Nsg20
Nsg21
F0.14162428583396786
sg22
F0.671
sg23
Nsg24
Nsg25
F1.91e-06
ssg26
I01
sg27
I01
sba(iSong
Song
p3310
(dp3311
g3
(dp3312
g5
F0.178
sg6
VI Got This
p3313
sg8
F0.460024
sg9
F0.701
sg10
S'country'
p3314
sg12
F0.0367
sg13
VJerrod Niemann
p3315
sg15
I9999
sg16
F0.803
sg17
Nsg18
F0.8758333333333332
sg19
Nsg20
Nsg21
F0.14162428583396786
sg22
F0.799
sg23
Nsg24
Nsg25
F0.000106
ssg26
I01
sg27
I01
sba(iSong
Song
p3316
(dp3317
g3
(dp3318
g5
F0.353
sg6
VWhole Lot in Love
p3319
sg8
F0.448108
sg9
F0.715
sg10
S'country'
p3320
sg12
F0.0377
sg13
VAustin Burke
p3321
sg15
I9999
sg16
F0.791
sg17
Nsg18
F0.9031833333333333
sg19
Nsg20
Nsg21
F0.14162428583396786
sg22
F0.593
sg23
Nsg24
Nsg25
I0
ssg26
I01
sg27
I01
sba(iSong
Song
p3322
(dp3323
g3
(dp3324
g5
F0.00733
sg6
VSunday Morning
p3325
sg8
F0.36002
sg9
F0.716
sg10
S'country'
p3326
sg12
F0.0342
sg13
VParmalee
p3327
sg15
I9999
sg16
F0.584
sg17
Nsg18
F0.9210499999999999
sg19
Nsg20
Nsg21
F0.14162428583396786
sg22
F0.525
sg23
Nsg24
Nsg25
I0
ssg26
I01
sg27
I01
sba(iSong
Song
p3328
(dp3329
g3
(dp3330
g5
F0.0806
sg6
VWild West
p3331
sg8
F0.5588
sg9
F0.589
sg10
S'country'
p3332
sg12
F0.032
sg13
VRunaway June
p3333
sg15
I9999
sg16
F0.462
sg17
Nsg18
F0.9122666666666667
sg19
Nsg20
Nsg21
F0.14162428583396786
sg22
F0.238
sg23
Nsg24
Nsg25
I0
ssg26
I01
sg27
I01
sba(iSong
Song
p3334
(dp3335
g3
(dp3336
g5
F0.0652
sg6
VI Still Pick Up
p3337
sg8
F0.8001159999999999
sg9
F0.819
sg10
S'country'
p3338
sg12
F0.0613
sg13
VJohn King
p3339
sg15
I9999
sg16
F0.474
sg17
Nsg18
F0.9259000000000001
sg19
Nsg20
Nsg21
F0.14162428583396786
sg22
F0.793
sg23
Nsg24
Nsg25
I0
ssg26
I01
sg27
I01
sba(iSong
Song
p3340
(dp3341
g3
(dp3342
g5
F0.211
sg6
VMore
p3343
sg8
F0.480108
sg9
F0.883
sg10
S'country'
p3344
sg12
F0.0551
sg13
VHunter Hayes
p3345
sg15
I9999
sg16
F0.56
sg17
Nsg18
F0.9177
sg19
Nsg20
Nsg21
F0.14162428583396786
sg22
F0.575
sg23
Nsg24
Nsg25
I0
ssg26
I01
sg27
I01
sba(iSong
Song
p3346
(dp3347
g3
(dp3348
g5
F0.496
sg6
VYou Broke Up with Me
p3349
sg8
F0.48005200000000003
sg9
F0.711
sg10
S'country'
p3350
sg12
F0.061
sg13
VWalker Hayes
p3351
sg15
I9999
sg16
F0.846
sg17
Nsg18
F0.8676833333333334
sg19
Nsg20
Nsg21
F0.14162428583396786
sg22
F0.883
sg23
Nsg24
Nsg25
I0
ssg26
I01
sg27
I01
sba(iSong
Song
p3352
(dp3353
g3
(dp3354
g5
F0.081
sg6
VI Got You
p3355
sg8
F0.36772000000000005
sg9
F0.88
sg10
S'country'
p3356
sg12
F0.0731
sg13
VJosh Mirenda
p3357
sg15
I9999
sg16
F0.49
sg17
Nsg18
F0.9135833333333333
sg19
Nsg20
Nsg21
F0.14162428583396786
sg22
F0.493
sg23
Nsg24
Nsg25
I0
ssg26
I01
sg27
I01
sba(iSong
Song
p3358
(dp3359
g3
(dp3360
g5
F0.414
sg6
VIt All Looks Good from Here
p3361
sg8
F0.312092
sg9
F0.901
sg10
S'country'
p3362
sg12
F0.042
sg13
VWilson Brothers Band
p3363
sg15
I9999
sg16
F0.483
sg17
Nsg18
F0.9703166666666667
sg19
Nsg20
Nsg21
F0.14162428583396786
sg22
F0.597
sg23
Nsg24
Nsg25
F1.59e-06
ssg26
I01
sg27
I01
sba(iSong
Song
p3364
(dp3365
g3
(dp3366
g5
F0.025
sg6
VNo Problem
p3367
sg8
F0.656128
sg9
F0.898
sg10
S'country'
p3368
sg12
F0.0365
sg13
VDylan Schneider
p3369
sg15
I9999
sg16
F0.489
sg17
Nsg18
F0.9271833333333334
sg19
Nsg20
Nsg21
F0.14162428583396786
sg22
F0.763
sg23
Nsg24
Nsg25
F4.11e-06
ssg26
I01
sg27
I01
sba(iSong
Song
p3370
(dp3371
g3
(dp3372
g5
F0.163
sg6
VStill Believe in Crazy Love
p3373
sg8
F0.424252
sg9
F0.661
sg10
S'country'
p3374
sg12
F0.0312
sg13
VRyan Kinder
p3375
sg15
I9999
sg16
F0.57
sg17
Nsg18
F0.8900833333333333
sg19
Nsg20
Nsg21
F0.14162428583396786
sg22
F0.247
sg23
Nsg24
Nsg25
F0.00388
ssg26
I01
sg27
I01
sba(iSong
Song
p3376
(dp3377
g3
(dp3378
g5
F0.108
sg6
VWhen You're Gone
p3379
sg8
F0.6478959999999999
sg9
F0.715
sg10
S'country'
p3380
sg12
F0.0375
sg13
VSmithfield
p3381
sg15
I9999
sg16
F0.592
sg17
Nsg18
F0.9139333333333333
sg19
Nsg20
Nsg21
F0.14162428583396786
sg22
F0.671
sg23
Nsg24
Nsg25
I0
ssg26
I01
sg27
I01
sba(iSong
Song
p3382
(dp3383
g3
(dp3384
g5
F0.368
sg6
VTake Back Home Girl (Feat. Tori Kelly)
p3385
sg8
F0.638832
sg9
F0.78
sg10
S'country'
p3386
sg12
F0.064
sg13
VChris Lane
p3387
sg15
I9999
sg16
F0.494
sg17
Nsg18
F0.9362499999999999
sg19
Nsg20
Nsg21
F0.14162428583396786
sg22
F0.664
sg23
Nsg24
Nsg25
I0
ssg26
I01
sg27
I01
sba(iSong
Song
p3388
(dp3389
g3
(dp3390
g5
F0.107
sg6
VMysteries of the World
p3391
sg8
F0.575788
sg9
F0.742
sg10
S'country'
p3392
sg12
F0.0291
sg13
VWalker McGuire
p3393
sg15
I9999
sg16
F0.548
sg17
Nsg18
F0.9205333333333333
sg19
Nsg20
Nsg21
F0.14162428583396786
sg22
F0.3
sg23
Nsg24
Nsg25
I0
ssg26
I01
sg27
I01
sba(iSong
Song
p3394
(dp3395
g3
(dp3396
g5
F0.178
sg6
VStill Crazy
p3397
sg8
F0.5761280000000001
sg9
F0.569
sg10
S'country'
p3398
sg12
F0.0812
sg13
VJeffrey East
p3399
sg15
I9999
sg16
F0.767
sg17
Nsg18
F0.8821833333333333
sg19
Nsg20
Nsg21
F0.14162428583396786
sg22
F0.683
sg23
Nsg24
Nsg25
I0
ssg26
I01
sg27
I01
sba(iSong
Song
p3400
(dp3401
g3
(dp3402
g5
F0.0141
sg6
VDevil and You
p3403
sg8
F0.640028
sg9
F0.883
sg10
S'country'
p3404
sg12
F0.0697
sg13
VOlivia Lane
p3405
sg15
I9999
sg16
F0.583
sg17
Nsg18
F0.9263166666666667
sg19
Nsg20
Nsg21
F0.14162428583396786
sg22
F0.713
sg23
Nsg24
Nsg25
F2.09e-05
ssg26
I01
sg27
I01
sba(iSong
Song
p3406
(dp3407
g3
(dp3408
g5
F0.042
sg6
VLook At You
p3409
sg8
F0.416108
sg9
F0.625
sg10
S'country'
p3410
sg12
F0.0284
sg13
VSeth Ennis
p3411
sg15
I9999
sg16
F0.687
sg17
Nsg18
F0.8843
sg19
Nsg20
Nsg21
F0.14162428583396786
sg22
F0.866
sg23
Nsg24
Nsg25
I0
ssg26
I01
sg27
I01
sba(iSong
Song
p3412
(dp3413
g3
(dp3414
g5
F0.049
sg6
VAlmost Over You
p3415
sg8
F0.404276
sg9
F0.892
sg10
S'country'
p3416
sg12
F0.0525
sg13
VJessie James Decker
p3417
sg15
I9999
sg16
F0.556
sg17
Nsg18
F0.95265
sg19
Nsg20
Nsg21
F0.14162428583396786
sg22
F0.264
sg23
Nsg24
Nsg25
F0.00053
ssg26
I01
sg27
I01
sba(iSong
Song
p3418
(dp3419
g3
(dp3420
g5
F0.161
sg6
VRun
p3421
sg8
F0.38788799999999996
sg9
F0.787
sg10
S'country'
p3422
sg12
F0.0338
sg13
VJosh Dorr
p3423
sg15
I9999
sg16
F0.609
sg17
Nsg18
F0.9115833333333333
sg19
Nsg20
Nsg21
F0.14162428583396786
sg22
F0.564
sg23
Nsg24
Nsg25
F1.63e-06
ssg26
I01
sg27
I01
sba(iSong
Song
p3424
(dp3425
g3
(dp3426
g5
F0.209
sg6
VHome for the Weekend
p3427
sg8
F0.408128
sg9
F0.712
sg10
S'country'
p3428
sg12
F0.0307
sg13
VRoss Ellis
p3429
sg15
I9999
sg16
F0.669
sg17
Nsg18
F0.9049833333333334
sg19
Nsg20
Nsg21
F0.14162428583396786
sg22
F0.636
sg23
Nsg24
Nsg25
I0
ssg26
I01
sg27
I01
sba(iSong
Song
p3430
(dp3431
g3
(dp3432
g5
F0.463
sg6
VBody Like A Back Road
p3433
sg8
F0.395852
sg9
F0.469
sg10
S'country'
p3434
sg12
F0.0326
sg13
VSam Hunt
p3435
sg15
I9999
sg16
F0.731
sg17
Nsg18
F0.8795666666666667
sg19
Nsg20
Nsg21
F0.14162428583396786
sg22
F0.631
sg23
Nsg24
Nsg25
F1.04e-06
ssg26
I01
sg27
I01
sba(iSong
Song
p3436
(dp3437
g3
(dp3438
g5
F0.0294
sg6
VUnforgettable
p3439
sg8
F0.5202960000000001
sg9
F0.745
sg10
S'country'
p3440
sg12
F0.0307
sg13
VThomas Rhett
p3441
sg15
I9999
sg16
F0.66
sg17
Nsg18
F0.90835
sg19
Nsg20
Nsg21
F0.14162428583396786
sg22
F0.828
sg23
Nsg24
Nsg25
F0.0002
ssg26
I01
sg27
I01
sba(iSong
Song
p3442
(dp3443
g3
(dp3444
g5
F0.00898
sg6
VWhat Ifs
p3445
sg8
F0.503904
sg9
F0.799
sg10
S'country'
p3446
sg12
F0.0275
sg13
VKane Brown
p3447
sg15
I9999
sg16
F0.612
sg17
Nsg18
F0.9232833333333333
sg19
Nsg20
Nsg21
F0.14162428583396786
sg22
F0.687
sg23
Nsg24
Nsg25
I0
ssg26
I01
sg27
I01
sba(iSong
Song
p3448
(dp3449
g3
(dp3450
g5
F0.357
sg6
VIn Case You Didn't Know
p3451
sg8
F0.592012
sg9
F0.542
sg10
S'country'
p3452
sg12
F0.0304
sg13
VBrett Young
p3453
sg15
I9999
sg16
F0.599
sg17
Nsg18
F0.8787666666666667
sg19
Nsg20
Nsg21
F0.14162428583396786
sg22
F0.383
sg23
Nsg24
Nsg25
I0
ssg26
I01
sg27
I01
sba(iSong
Song
p3454
(dp3455
g3
(dp3456
g5
F0.013
sg6
VWhen It Rains It Pours
p3457
sg8
F0.5121079999999999
sg9
F0.801
sg10
S'country'
p3458
sg12
F0.0303
sg13
VLuke Combs
p3459
sg15
I9999
sg16
F0.551
sg17
Nsg18
F0.9155166666666666
sg19
Nsg20
Nsg21
F0.14162428583396786
sg22
F0.625
sg23
Nsg24
Nsg25
F6.03e-06
ssg26
I01
sg27
I01
sba(iSong
Song
p3460
(dp3461
g3
(dp3462
g5
F0.189
sg6
VHappens Like That
p3463
sg8
F0.32418
sg9
F0.807
sg10
S'country'
p3464
sg12
F0.0825
sg13
VGranger Smith
p3465
sg15
I9999
sg16
F0.557
sg17
Nsg18
F0.9095333333333334
sg19
Nsg20
Nsg21
F0.14162428583396786
sg22
F0.578
sg23
Nsg24
Nsg25
I0
ssg26
I01
sg27
I01
sba(iSong
Song
p3466
(dp3467
g3
(dp3468
g5
F0.0617
sg6
VHeartache On The Dance Floor
p3469
sg8
F0.46402
sg9
F0.824
sg10
S'country'
p3470
sg12
F0.0458
sg13
VJon Pardi
p3471
sg15
I9999
sg16
F0.594
sg17
Nsg18
F0.9291333333333333
sg19
Nsg20
Nsg21
F0.14162428583396786
sg22
F0.671
sg23
Nsg24
Nsg25
I0
ssg26
I01
sg27
I01
sba(iSong
Song
p3472
(dp3473
g3
(dp3474
g5
F0.000907
sg6
VCraving You
p3475
sg8
F0.41994400000000004
sg9
F0.841
sg10
S'country'
p3476
sg12
F0.0353
sg13
VThomas Rhett
p3477
sg15
I9999
sg16
F0.612
sg17
Nsg18
F0.93675
sg19
Nsg20
Nsg21
F0.14162428583396786
sg22
F0.499
sg23
Nsg24
Nsg25
I0
ssg26
I01
sg27
I01
sba(iSong
Song
p3478
(dp3479
g3
(dp3480
g5
F0.0677
sg6
VLosing Sleep
p3481
sg8
F0.368012
sg9
F0.628
sg10
S'country'
p3482
sg12
F0.0431
sg13
VChris Young
p3483
sg15
I9999
sg16
F0.587
sg17
Nsg18
F0.9049499999999999
sg19
Nsg20
Nsg21
F0.14162428583396786
sg22
F0.649
sg23
Nsg24
Nsg25
F1.88e-06
ssg26
I01
sg27
I01
sba(iSong
Song
p3484
(dp3485
g3
(dp3486
g5
F0.38
sg6
VGreatest Love Story
p3487
sg8
F0.5919
sg9
F0.621
sg10
S'country'
p3488
sg12
F0.0524
sg13
VLANCO
p3489
sg15
I9999
sg16
F0.665
sg17
Nsg18
F0.8571500000000001
sg19
Nsg20
Nsg21
F0.14162428583396786
sg22
F0.632
sg23
Nsg24
Nsg25
I0
ssg26
I01
sg27
I01
sba(iSong
Song
p3490
(dp3491
g3
(dp3492
g5
F0.0244
sg6
VSmall Town Boy
p3493
sg8
F0.292132
sg9
F0.747
sg10
S'country'
p3494
sg12
F0.0292
sg13
VDustin Lynch
p3495
sg15
I9999
sg16
F0.553
sg17
Nsg18
F0.9015833333333333
sg19
Nsg20
Nsg21
F0.14162428583396786
sg22
F0.711
sg23
Nsg24
Nsg25
I0
ssg26
I01
sg27
I01
sba(iSong
Song
p3496
(dp3497
g3
(dp3498
g5
F0.0186
sg6
VHurricane
p3499
sg8
F0.607792
sg9
F0.821
sg10
S'country'
p3500
sg12
F0.0416
sg13
VLuke Combs
p3501
sg15
I9999
sg16
F0.444
sg17
Nsg18
F0.9015000000000001
sg19
Nsg20
Nsg21
F0.14162428583396786
sg22
F0.452
sg23
Nsg24
Nsg25
F3.09e-06
ssg26
I01
sg27
I01
sba(iSong
Song
p3502
(dp3503
g3
(dp3504
g5
F0.566
sg6
VJolene
p3505
sg8
F0.44231200000000004
sg9
F0.537
sg10
S'country'
p3506
sg12
F0.0363
sg13
VDolly Parton
p3507
sg15
I9999
sg16
F0.674
sg17
Nsg18
F0.8171499999999999
sg19
Nsg20
Nsg21
F0.14162428583396786
sg22
F0.809
sg23
Nsg24
Nsg25
I0
ssg26
I01
sg27
I01
sba(iSong
Song
p3508
(dp3509
g3
(dp3510
g5
F0.122
sg6
VDo I Make You Wanna
p3511
sg8
F0.359812
sg9
F0.751
sg10
S'country'
p3512
sg12
F0.0299
sg13
VBilly Currington
p3513
sg15
I9999
sg16
F0.549
sg17
Nsg18
F0.9096166666666666
sg19
Nsg20
Nsg21
F0.14162428583396786
sg22
F0.493
sg23
Nsg24
Nsg25
I0
ssg26
I01
sg27
I01
sba(iSong
Song
p3514
(dp3515
g3
(dp3516
g5
F0.381
sg6
VDie A Happy Man
p3517
sg8
F0.332384
sg9
F0.383
sg10
S'country'
p3518
sg12
F0.0304
sg13
VThomas Rhett
p3519
sg15
I9999
sg16
F0.66
sg17
Nsg18
F0.8437166666666667
sg19
Nsg20
Nsg21
F0.14162428583396786
sg22
F0.381
sg23
Nsg24
Nsg25
I0
ssg26
I01
sg27
I01
sba(iSong
Song
p3520
(dp3521
g3
(dp3522
g5
F0.129
sg6
VLight It Up
p3523
sg8
F0.520116
sg9
F0.935
sg10
S'country'
p3524
sg12
F0.0855
sg13
VLuke Bryan
p3525
sg15
I9999
sg16
F0.596
sg17
Nsg18
F0.9534333333333334
sg19
Nsg20
Nsg21
F0.14162428583396786
sg22
F0.678
sg23
Nsg24
Nsg25
I0
ssg26
I01
sg27
I01
sba(iSong
Song
p3526
(dp3527
g3
(dp3528
g5
F0.496
sg6
VYou Broke Up with Me
p3529
sg8
F0.48005200000000003
sg9
F0.711
sg10
S'country'
p3530
sg12
F0.061
sg13
VWalker Hayes
p3531
sg15
I9999
sg16
F0.846
sg17
Nsg18
F0.8676833333333334
sg19
Nsg20
Nsg21
F0.14162428583396786
sg22
F0.883
sg23
Nsg24
Nsg25
I0
ssg26
I01
sg27
I01
sba(iSong
Song
p3532
(dp3533
g3
(dp3534
g5
F0.368
sg6
VTake Back Home Girl (Feat. Tori Kelly)
p3535
sg8
F0.638832
sg9
F0.78
sg10
S'country'
p3536
sg12
F0.064
sg13
VChris Lane
p3537
sg15
I9999
sg16
F0.494
sg17
Nsg18
F0.9362499999999999
sg19
Nsg20
Nsg21
F0.14162428583396786
sg22
F0.664
sg23
Nsg24
Nsg25
I0
ssg26
I01
sg27
I01
sba(iSong
Song
p3538
(dp3539
g3
(dp3540
g5
F0.179
sg6
VLike I Loved You
p3541
sg8
F0.30407999999999996
sg9
F0.573
sg10
S'country'
p3542
sg12
F0.0292
sg13
VBrett Young
p3543
sg15
I9999
sg16
F0.579
sg17
Nsg18
F0.90015
sg19
Nsg20
Nsg21
F0.14162428583396786
sg22
F0.637
sg23
Nsg24
Nsg25
I0
ssg26
I01
sg27
I01
sba(iSong
Song
p3544
(dp3545
g3
(dp3546
g5
F0.606
sg6
VBlue Ain't Your Color
p3547
sg8
F0.329628
sg9
F0.417
sg10
S'country'
p3548
sg12
F0.0363
sg13
VKeith Urban
p3549
sg15
I9999
sg16
F0.686
sg17
Nsg18
F0.8702166666666666
sg19
Nsg20
Nsg21
F0.14162428583396786
sg22
F0.451
sg23
Nsg24
Nsg25
F1.79e-06
ssg26
I01
sg27
I01
sba(iSong
Song
p3550
(dp3551
g3
(dp3552
g5
F0.385
sg6
VH.O.L.Y.
p3553
sg8
F0.312012
sg9
F0.685
sg10
S'country'
p3554
sg12
F0.0351
sg13
VFlorida Georgia Line
p3555
sg15
I9999
sg16
F0.525
sg17
Nsg18
F0.9341
sg19
Nsg20
Nsg21
F0.14162428583396786
sg22
F0.54
sg23
Nsg24
Nsg25
I0
ssg26
I01
sg27
I01
sba(iSong
Song
p3556
(dp3557
g3
(dp3558
g5
F0.593
sg6
VWritten in the Sand
p3559
sg8
F0.33594
sg9
F0.437
sg10
S'country'
p3560
sg12
F0.0575
sg13
VOld Dominion
p3561
sg15
I9999
sg16
F0.725
sg17
Nsg18
F0.8399666666666666
sg19
Nsg20
Nsg21
F0.14162428583396786
sg22
F0.759
sg23
Nsg24
Nsg25
I0
ssg26
I01
sg27
I01
sba(iSong
Song
p3562
(dp3563
g3
(dp3564
g5
F0.144
sg6
VAll On Me
p3565
sg8
F0.323984
sg9
F0.658
sg10
S'country'
p3566
sg12
F0.0281
sg13
VDevin Dawson
p3567
sg15
I9999
sg16
F0.631
sg17
Nsg18
F0.91145
sg19
Nsg20
Nsg21
F0.14162428583396786
sg22
F0.7
sg23
Nsg24
Nsg25
I0
ssg26
I01
sg27
I01
sba(iSong
Song
p3568
(dp3569
g3
(dp3570
g5
F0.713
sg6
VHurt
p3571
sg8
F0.365876
sg9
F0.376
sg10
S'country'
p3572
sg12
F0.0288
sg13
VJohnny Cash
p3573
sg15
I9999
sg16
F0.545
sg17
Nsg18
F0.8609333333333333
sg19
Nsg20
Nsg21
F0.14162428583396786
sg22
F0.169
sg23
Nsg24
Nsg25
F0.000389
ssg26
I01
sg27
I01
sba(iSong
Song
p3574
(dp3575
g3
(dp3576
g5
F0.163
sg6
VI'll Name the Dogs
p3577
sg8
F0.672252
sg9
F0.852
sg10
S'country'
p3578
sg12
F0.0933
sg13
VBlake Shelton
p3579
sg15
I9999
sg16
F0.47
sg17
Nsg18
F0.9021
sg19
Nsg20
Nsg21
F0.14162428583396786
sg22
F0.773
sg23
Nsg24
Nsg25
F2.04e-06
ssg26
I01
sg27
I01
sba(iSong
Song
p3580
(dp3581
g3
(dp3582
g5
F0.0528
sg6
VFound You
p3583
sg8
F0.656576
sg9
F0.821
sg10
S'country'
p3584
sg12
F0.0404
sg13
VKane Brown
p3585
sg15
I9999
sg16
F0.46
sg17
Nsg18
F0.9111166666666667
sg19
Nsg20
Nsg21
F0.14162428583396786
sg22
F0.438
sg23
Nsg24
Nsg25
I0
ssg26
I01
sg27
I01
sba(iSong
Song
p3586
(dp3587
g3
(dp3588
g5
F0.182
sg6
VFemale
p3589
sg8
F0.33999599999999996
sg9
F0.474
sg10
S'country'
p3590
sg12
F0.0351
sg13
VKeith Urban
p3591
sg15
I9999
sg16
F0.562
sg17
Nsg18
F0.8539666666666667
sg19
Nsg20
Nsg21
F0.14162428583396786
sg22
F0.345
sg23
Nsg24
Nsg25
F9.8e-05
ssg26
I01
sg27
I01
sba(iSong
Song
p3592
(dp3593
g3
(dp3594
g5
F0.127
sg6
VYours
p3595
sg8
F0.536188
sg9
F0.725
sg10
S'country'
p3596
sg12
F0.034
sg13
VRussell Dickerson
p3597
sg15
I9999
sg16
F0.551
sg17
Nsg18
F0.8999166666666666
sg19
Nsg20
Nsg21
F0.14162428583396786
sg22
F0.575
sg23
Nsg24
Nsg25
I0
ssg26
I01
sg27
I01
sba(iSong
Song
p3598
(dp3599
g3
(dp3600
g5
F0.263
sg6
VHeaven
p3601
sg8
F0.320036
sg9
F0.556
sg10
S'country'
p3602
sg12
F0.0306
sg13
VKane Brown
p3603
sg15
I9999
sg16
F0.677
sg17
Nsg18
F0.8909333333333334
sg19
Nsg20
Nsg21
F0.14162428583396786
sg22
F0.521
sg23
Nsg24
Nsg25
I0
ssg26
I01
sg27
I01
sba(iSong
Song
p3604
(dp3605
g3
(dp3606
g5
F0.214
sg6
VI Could Use a Love Song
p3607
sg8
F0.368388
sg9
F0.634
sg10
S'country'
p3608
sg12
F0.0468
sg13
VMaren Morris
p3609
sg15
I9999
sg16
F0.638
sg17
Nsg18
F0.8920999999999999
sg19
Nsg20
Nsg21
F0.14162428583396786
sg22
F0.473
sg23
Nsg24
Nsg25
I0
ssg26
I01
sg27
I01
sba(iSong
Song
p3610
(dp3611
g3
(dp3612
g5
F0.0558
sg6
VLegends
p3613
sg8
F0.44811599999999996
sg9
F0.728
sg10
S'country'
p3614
sg12
F0.032
sg13
VKelsea Ballerini
p3615
sg15
I9999
sg16
F0.575
sg17
Nsg18
F0.9025666666666666
sg19
Nsg20
Nsg21
F0.14162428583396786
sg22
F0.242
sg23
Nsg24
Nsg25
I0
ssg26
I01
sg27
I01
sba(iSong
Song
p3616
(dp3617
g3
(dp3618
g5
F0.214
sg6
VSmooth
p3619
sg8
F0.644196
sg9
F0.848
sg10
S'country'
p3620
sg12
F0.0538
sg13
VFlorida Georgia Line
p3621
sg15
I9999
sg16
F0.471
sg17
Nsg18
F0.91075
sg19
Nsg20
Nsg21
F0.14162428583396786
sg22
F0.332
sg23
Nsg24
Nsg25
F1.84e-05
ssg26
I01
sg27
I01
sba(iSong
Song
p3622
(dp3623
g3
(dp3624
g5
F0.17
sg6
VTennessee Whiskey
p3625
sg8
F0.40649599999999997
sg9
F0.369
sg10
S'country'
p3626
sg12
F0.0317
sg13
VChris Stapleton
p3627
sg15
I9999
sg16
F0.472
sg17
Nsg18
F0.8180666666666667
sg19
Nsg20
Nsg21
F0.14162428583396786
sg22
F0.452
sg23
Nsg24
Nsg25
F0.00618
ssg26
I01
sg27
I01
sba(iSong
Song
p3628
(dp3629
g3
(dp3630
g5
F0.0406
sg6
VMay We All
p3631
sg8
F0.300076
sg9
F0.915
sg10
S'country'
p3632
sg12
F0.0389
sg13
VFlorida Georgia Line
p3633
sg15
I9999
sg16
F0.488
sg17
Nsg18
F0.9290833333333333
sg19
Nsg20
Nsg21
F0.14162428583396786
sg22
F0.646
sg23
Nsg24
Nsg25
I0
ssg26
I01
sg27
I01
sba(iSong
Song
p3634
(dp3635
g3
(dp3636
g5
F0.168
sg6
VMake You Miss Me
p3637
sg8
F0.5841040000000001
sg9
F0.468
sg10
S'country'
p3638
sg12
F0.0314
sg13
VSam Hunt
p3639
sg15
I9999
sg16
F0.612
sg17
Nsg18
F0.89005
sg19
Nsg20
Nsg21
F0.14162428583396786
sg22
F0.165
sg23
Nsg24
Nsg25
I0
ssg26
I01
sg27
I01
sba(iSong
Song
p3640
(dp3641
g3
(dp3642
g5
F0.0661
sg6
VHead Over Boots
p3643
sg8
F0.432064
sg9
F0.676
sg10
S'country'
p3644
sg12
F0.027
sg13
VJon Pardi
p3645
sg15
I9999
sg16
F0.557
sg17
Nsg18
F0.9257166666666666
sg19
Nsg20
Nsg21
F0.14162428583396786
sg22
F0.678
sg23
Nsg24
Nsg25
I0
ssg26
I01
sg27
I01
sba(iSong
Song
p3646
(dp3647
g3
(dp3648
g5
F0.265
sg6
VThe Long Way
p3649
sg8
F0.35546
sg9
F0.637
sg10
S'country'
p3650
sg12
F0.0401
sg13
VBrett Eldredge
p3651
sg15
I9999
sg16
F0.488
sg17
Nsg18
F0.8728333333333332
sg19
Nsg20
Nsg21
F0.14162428583396786
sg22
F0.23
sg23
Nsg24
Nsg25
I0
ssg26
I01
sg27
I01
sba(iSong
Song
p3652
(dp3653
g3
(dp3654
g5
F0.456
sg6
VWagon Wheel
p3655
sg8
F0.592408
sg9
F0.663
sg10
S'country'
p3656
sg12
F0.0306
sg13
VDarius Rucker
p3657
sg15
I9999
sg16
F0.529
sg17
Nsg18
F0.8810333333333333
sg19
Nsg20
Nsg21
F0.14162428583396786
sg22
F0.592
sg23
Nsg24
Nsg25
I0
ssg26
I01
sg27
I01
sba(iSong
Song
p3658
(dp3659
g3
(dp3660
g5
F0.0832
sg6
VPlay It Again
p3661
sg8
F0.5762240000000001
sg9
F0.898
sg10
S'country'
p3662
sg12
F0.0696
sg13
VLuke Bryan
p3663
sg15
I9999
sg16
F0.51
sg17
Nsg18
F0.9475
sg19
Nsg20
Nsg21
F0.14162428583396786
sg22
F0.596
sg23
Nsg24
Nsg25
I0
ssg26
I01
sg27
I01
sba(iSong
Song
p3664
(dp3665
g3
(dp3666
g5
F0.14
sg6
VStar Of The Show
p3667
sg8
F0.407952
sg9
F0.624
sg10
S'country'
p3668
sg12
F0.027
sg13
VThomas Rhett
p3669
sg15
I9999
sg16
F0.691
sg17
Nsg18
F0.9021
sg19
Nsg20
Nsg21
F0.14162428583396786
sg22
F0.662
sg23
Nsg24
Nsg25
I0
ssg26
I01
sg27
I01
sba(iSong
Song
p3670
(dp3671
g3
(dp3672
g5
F0.0352
sg6
VBackroad Song
p3673
sg8
F0.696024
sg9
F0.833
sg10
S'country'
p3674
sg12
F0.0437
sg13
VGranger Smith
p3675
sg15
I9999
sg16
F0.488
sg17
Nsg18
F0.8904833333333334
sg19
Nsg20
Nsg21
F0.14162428583396786
sg22
F0.751
sg23
Nsg24
Nsg25
F0.0172
ssg26
I01
sg27
I01
sba(iSong
Song
p3676
(dp3677
g3
(dp3678
g5
F0.193
sg6
VWhen the Good Guys Win
p3679
sg8
F0.568176
sg9
F0.853
sg10
S'country'
p3680
sg12
F0.0365
sg13
VGranger Smith
p3681
sg15
I9999
sg16
F0.619
sg17
Nsg18
F0.9185166666666666
sg19
Nsg20
Nsg21
F0.14162428583396786
sg22
F0.864
sg23
Nsg24
Nsg25
I0
ssg26
I01
sg27
I01
sba(iSong
Song
p3682
(dp3683
g3
(dp3684
g5
F0.263
sg6
VHometown Girl
p3685
sg8
F0.623736
sg9
F0.79
sg10
S'country'
p3686
sg12
F0.035
sg13
VJosh Turner
p3687
sg15
I9999
sg16
F0.505
sg17
Nsg18
F0.9093
sg19
Nsg20
Nsg21
F0.14162428583396786
sg22
F0.445
sg23
Nsg24
Nsg25
F0.0884
ssg26
I01
sg27
I01
sba(iSong
Song
p3688
(dp3689
g3
(dp3690
g5
F0.0441
sg6
VSingles You Up
p3691
sg8
F0.800216
sg9
F0.9
sg10
S'country'
p3692
sg12
F0.0488
sg13
VJordan Davis
p3693
sg15
I9999
sg16
F0.489
sg17
Nsg18
F0.9406166666666667
sg19
Nsg20
Nsg21
F0.14162428583396786
sg22
F0.611
sg23
Nsg24
Nsg25
I0
ssg26
I01
sg27
I01
sba(iSong
Song
p3694
(dp3695
g3
(dp3696
g5
F0.116
sg6
VDirt On My Boots
p3697
sg8
F0.36003199999999996
sg9
F0.783
sg10
S'country'
p3698
sg12
F0.0276
sg13
VJon Pardi
p3699
sg15
I9999
sg16
F0.685
sg17
Nsg18
F0.9308
sg19
Nsg20
Nsg21
F0.14162428583396786
sg22
F0.525
sg23
Nsg24
Nsg25
I0
ssg26
I01
sg27
I01
sba(iSong
Song
p3700
(dp3701
g3
(dp3702
g5
F0.0913
sg6
VUp Down (Feat. Florida Georgia Line)
p3703
sg8
F0.519712
sg9
F0.881
sg10
S'country'
p3704
sg12
F0.0349
sg13
VMorgan Wallen
p3705
sg15
I9999
sg16
F0.59
sg17
Nsg18
F0.9517
sg19
Nsg20
Nsg21
F0.14162428583396786
sg22
F0.734
sg23
Nsg24
Nsg25
I0
ssg26
I01
sg27
I01
sba(iSong
Song
p3706
(dp3707
g3
(dp3708
g5
F0.645
sg6
VChicken Fried
p3709
sg8
F0.6794560000000001
sg9
F0.713
sg10
S'country'
p3710
sg12
F0.0417
sg13
VZac Brown Band
p3711
sg15
I9999
sg16
F0.566
sg17
Nsg18
F0.9291666666666667
sg19
Nsg20
Nsg21
F0.14162428583396786
sg22
F0.807
sg23
Nsg24
Nsg25
I0
ssg26
I01
sg27
I01
sba(iSong
Song
p3712
(dp3713
g3
(dp3714
g5
F0.0362
sg6
VHooked
p3715
sg8
F0.528216
sg9
F0.721
sg10
S'country'
p3716
sg12
F0.0356
sg13
VDylan Scott
p3717
sg15
I9999
sg16
F0.597
sg17
Nsg18
F0.8929666666666667
sg19
Nsg20
Nsg21
F0.14162428583396786
sg22
F0.437
sg23
Nsg24
Nsg25
I0
ssg26
I01
sg27
I01
sba(iSong
Song
p3718
(dp3719
g3
(dp3720
g5
F0.129
sg6
VHouse Party
p3721
sg8
F0.415808
sg9
F0.854
sg10
S'country'
p3722
sg12
F0.0503
sg13
VSam Hunt
p3723
sg15
I9999
sg16
F0.749
sg17
Nsg18
F0.9125833333333334
sg19
Nsg20
Nsg21
F0.14162428583396786
sg22
F0.842
sg23
Nsg24
Nsg25
I0
ssg26
I01
sg27
I01
sba(iSong
Song
p3724
(dp3725
g3
(dp3726
g5
F0.333
sg6
VGod, Your Mama, And Me
p3727
sg8
F0.6721280000000001
sg9
F0.802
sg10
S'country'
p3728
sg12
F0.054
sg13
VFlorida Georgia Line
p3729
sg15
I9999
sg16
F0.439
sg17
Nsg18
F0.9392666666666667
sg19
Nsg20
Nsg21
F0.14162428583396786
sg22
F0.725
sg23
Nsg24
Nsg25
I0
ssg26
I01
sg27
I01
sba.