(lp0
(iSong
Song
p1
(dp2
S'attributes'
p3
(dp4
S'accousticness'
p5
F0.463
sS'title'
p6
VBody Like A Back Road
p7
sS'tempo'
p8
F98.963
sS'energy'
p9
F0.469
sS'from_playlist'
p10
S'country'
p11
sS'speechiness'
p12
F0.0326
sS'artist_name'
p13
VSam Hunt
p14
sS'cluster_id'
p15
I9999
sS'danceability'
p16
F0.731
sS'end_of_fade_in'
p17
NsS'artist_familiarity'
p18
NsS'duration'
p19
NsS'loudness'
p20
F1.04e-06
sS'rec_value'
p21
F0.13797798096760258
sS'valence'
p22
F0.631
sS'start_of_fade_out'
p23
NsS'artist_hotness'
p24
NsS'instrumentalness'
p25
F-7.226
ssS'hasData'
p26
I01
sba(iSong
Song
p27
(dp28
g3
(dp29
g5
F0.0356
sg6
VI Know Somebody
p30
sg8
F88.986
sg9
F0.903
sg10
S'country'
p31
sg12
F0.037
sg13
VLOCASH
p32
sg15
I9999
sg16
F0.505
sg17
Nsg18
Nsg19
Nsg20
I0
sg21
F0.13797798096760258
sg22
F0.491
sg23
Nsg24
Nsg25
F-3.699
ssg26
I01
sba(iSong
Song
p33
(dp34
g3
(dp35
g5
F0.27
sg6
VBlack
p36
sg8
F120.037
sg9
F0.656
sg10
S'country'
p37
sg12
F0.0413
sg13
VDierks Bentley
p38
sg15
I9999
sg16
F0.663
sg17
Nsg18
Nsg19
Nsg20
F0.000279
sg21
F0.13797798096760258
sg22
F0.56
sg23
Nsg24
Nsg25
F-6.548
ssg26
I01
sba(iSong
Song
p39
(dp40
g3
(dp41
g5
F0.0169
sg6
VSleep Without You
p42
sg8
F88.549
sg9
F0.716
sg10
S'country'
p43
sg12
F0.043
sg13
VBrett Young
p44
sg15
I9999
sg16
F0.632
sg17
Nsg18
Nsg19
Nsg20
I0
sg21
F0.13797798096760258
sg22
F0.655
sg23
Nsg24
Nsg25
F-5.677
ssg26
I01
sba(iSong
Song
p45
(dp46
g3
(dp47
g5
F0.083
sg6
VIt Don't Hurt Like It Used To
p48
sg8
F161.981
sg9
F0.824
sg10
S'country'
p49
sg12
F0.0524
sg13
VBilly Currington
p50
sg15
I9999
sg16
F0.503
sg17
Nsg18
Nsg19
Nsg20
I0
sg21
F0.13797798096760258
sg22
F0.448
sg23
Nsg24
Nsg25
F-4.039
ssg26
I01
sba(iSong
Song
p51
(dp52
g3
(dp53
g5
F0.0406
sg6
VMay We All
p54
sg8
F75.019
sg9
F0.915
sg10
S'country'
p55
sg12
F0.0389
sg13
VFlorida Georgia Line
p56
sg15
I9999
sg16
F0.488
sg17
Nsg18
Nsg19
Nsg20
I0
sg21
F0.13797798096760258
sg22
F0.646
sg23
Nsg24
Nsg25
F-4.255
ssg26
I01
sba(iSong
Song
p57
(dp58
g3
(dp59
g5
F0.00566
sg6
VClose
p60
sg8
F80.018
sg9
F0.86
sg10
S'country'
p61
sg12
F0.0347
sg13
VRyan Kinder
p62
sg15
I9999
sg16
F0.479
sg17
Nsg18
Nsg19
Nsg20
I0
sg21
F0.13797798096760258
sg22
F0.743
sg23
Nsg24
Nsg25
F-4.318
ssg26
I01
sba(iSong
Song
p63
(dp64
g3
(dp65
g5
F0.247
sg6
VNight's On Fire
p66
sg8
F164.029
sg9
F0.779
sg10
S'country'
p67
sg12
F0.0432
sg13
VDavid Nail
p68
sg15
I9999
sg16
F0.539
sg17
Nsg18
Nsg19
Nsg20
F2.71e-06
sg21
F0.13797798096760258
sg22
F0.705
sg23
Nsg24
Nsg25
F-4.139
ssg26
I01
sba(iSong
Song
p69
(dp70
g3
(dp71
g5
F0.144
sg6
VAll On Me
p72
sg8
F80.996
sg9
F0.658
sg10
S'country'
p73
sg12
F0.0281
sg13
VDevin Dawson
p74
sg15
I9999
sg16
F0.631
sg17
Nsg18
Nsg19
Nsg20
I0
sg21
F0.13797798096760258
sg22
F0.7
sg23
Nsg24
Nsg25
F-5.313
ssg26
I01
sba(iSong
Song
p75
(dp76
g3
(dp77
g5
F0.0555
sg6
VCool With That
p78
sg8
F152.088
sg9
F0.829
sg10
S'country'
p79
sg12
F0.0458
sg13
VBrett Kissel
p80
sg15
I9999
sg16
F0.433
sg17
Nsg18
Nsg19
Nsg20
I0
sg21
F0.13797798096760258
sg22
F0.501
sg23
Nsg24
Nsg25
F-4.736
ssg26
I01
sba(iSong
Song
p81
(dp82
g3
(dp83
g5
F0.0158
sg6
VA Guy With a Girl
p84
sg8
F163.948
sg9
F0.893
sg10
S'country'
p85
sg12
F0.0383
sg13
VBlake Shelton
p86
sg15
I9999
sg16
F0.552
sg17
Nsg18
Nsg19
Nsg20
I0
sg21
F0.13797798096760258
sg22
F0.777
sg23
Nsg24
Nsg25
F-4.593
ssg26
I01
sba(iSong
Song
p87
(dp88
g3
(dp89
g5
F0.0165
sg6
VKill A Word
p90
sg8
F85.015
sg9
F0.73
sg10
S'country'
p91
sg12
F0.0378
sg13
VEric Church
p92
sg15
I9999
sg16
F0.653
sg17
Nsg18
Nsg19
Nsg20
F1.4e-06
sg21
F0.13797798096760258
sg22
F0.615
sg23
Nsg24
Nsg25
F-8.018
ssg26
I01
sba(iSong
Song
p93
(dp94
g3
(dp95
g5
F0.14
sg6
VStar Of The Show
p96
sg8
F101.988
sg9
F0.624
sg10
S'country'
p97
sg12
F0.027
sg13
VThomas Rhett
p98
sg15
I9999
sg16
F0.691
sg17
Nsg18
Nsg19
Nsg20
I0
sg21
F0.13797798096760258
sg22
F0.662
sg23
Nsg24
Nsg25
F-5.874
ssg26
I01
sba(iSong
Song
p99
(dp100
g3
(dp101
g5
F0.00898
sg6
VWhat Ifs
p102
sg8
F125.976
sg9
F0.799
sg10
S'country'
p103
sg12
F0.0275
sg13
VKane Brown
p104
sg15
I9999
sg16
F0.612
sg17
Nsg18
Nsg19
Nsg20
I0
sg21
F0.13797798096760258
sg22
F0.687
sg23
Nsg24
Nsg25
F-4.603
ssg26
I01
sba(iSong
Song
p105
(dp106
g3
(dp107
g5
F0.00525
sg6
VSomethin' We Shouldn't Do
p108
sg8
F122.042
sg9
F0.784
sg10
S'country'
p109
sg12
F0.0411
sg13
VChad Brownlee
p110
sg15
I9999
sg16
F0.462
sg17
Nsg18
Nsg19
Nsg20
F6.9e-05
sg21
F0.13797798096760258
sg22
F0.418
sg23
Nsg24
Nsg25
F-6.242
ssg26
I01
sba(iSong
Song
p111
(dp112
g3
(dp113
g5
F0.0692
sg6
VThat's When You Know
p114
sg8
F147.881
sg9
F0.809
sg10
S'country'
p115
sg12
F0.044
sg13
VChris Buck Band
p116
sg15
I9999
sg16
F0.523
sg17
Nsg18
Nsg19
Nsg20
I0
sg21
F0.13797798096760258
sg22
F0.663
sg23
Nsg24
Nsg25
F-7.257
ssg26
I01
sba(iSong
Song
p117
(dp118
g3
(dp119
g5
F0.164
sg6
VChills
p120
sg8
F116.043
sg9
F0.788
sg10
S'country'
p121
sg12
F0.0437
sg13
VJames Barker Band
p122
sg15
I9999
sg16
F0.658
sg17
Nsg18
Nsg19
Nsg20
I0
sg21
F0.13797798096760258
sg22
F0.468
sg23
Nsg24
Nsg25
F-5.944
ssg26
I01
sba(iSong
Song
p123
(dp124
g3
(dp125
g5
F0.00424
sg6
VLonely Drum
p126
sg8
F112.987
sg9
F0.684
sg10
S'country'
p127
sg12
F0.0292
sg13
VAaron Goodvin
p128
sg15
I9999
sg16
F0.855
sg17
Nsg18
Nsg19
Nsg20
F0.000312
sg21
F0.13797798096760258
sg22
F0.839
sg23
Nsg24
Nsg25
F-6.155
ssg26
I01
sba(iSong
Song
p129
(dp130
g3
(dp131
g5
F0.0153
sg6
VHurricane
p132
sg8
F75.975
sg9
F0.813
sg10
S'country'
p133
sg12
F0.0416
sg13
VLuke Combs
p134
sg15
I9999
sg16
F0.464
sg17
Nsg18
Nsg19
Nsg20
I0
sg21
F0.13797798096760258
sg22
F0.516
sg23
Nsg24
Nsg25
F-6.185
ssg26
I01
sba(iSong
Song
p135
(dp136
g3
(dp137
g5
F0.0266
sg6
VMind Reader
p138
sg8
F162.053
sg9
F0.8
sg10
S'country'
p139
sg12
F0.0413
sg13
VDustin Lynch
p140
sg15
I9999
sg16
F0.394
sg17
Nsg18
Nsg19
Nsg20
I0
sg21
F0.13797798096760258
sg22
F0.525
sg23
Nsg24
Nsg25
F-4.17
ssg26
I01
sba(iSong
Song
p141
(dp142
g3
(dp143
g5
F0.124
sg6
VThink A Little Less
p144
sg8
F141.967
sg9
F0.805
sg10
S'country'
p145
sg12
F0.0289
sg13
VMichael Ray
p146
sg15
I9999
sg16
F0.521
sg17
Nsg18
Nsg19
Nsg20
F0.000219
sg21
F0.13797798096760258
sg22
F0.527
sg23
Nsg24
Nsg25
F-4.481
ssg26
I01
sba(iSong
Song
p147
(dp148
g3
(dp149
g5
F0.328
sg6
VSky Stays This Blue
p150
sg8
F116.947
sg9
F0.827
sg10
S'country'
p151
sg12
F0.0471
sg13
VDallas Smith
p152
sg15
I9999
sg16
F0.593
sg17
Nsg18
Nsg19
Nsg20
I0
sg21
F0.13797798096760258
sg22
F0.505
sg23
Nsg24
Nsg25
F-4.421
ssg26
I01
sba(iSong
Song
p153
(dp154
g3
(dp155
g5
F0.125
sg6
VSong for Another Time
p156
sg8
F166.048
sg9
F0.805
sg10
S'country'
p157
sg12
F0.0332
sg13
VOld Dominion
p158
sg15
I9999
sg16
F0.497
sg17
Nsg18
Nsg19
Nsg20
I0
sg21
F0.13797798096760258
sg22
F0.696
sg23
Nsg24
Nsg25
F-3.995
ssg26
I01
sba(iSong
Song
p159
(dp160
g3
(dp161
g5
F0.0943
sg6
VJust Got Paid
p162
sg8
F171.892
sg9
F0.782
sg10
S'country'
p163
sg12
F0.0523
sg13
VEmerson Drive
p164
sg15
I9999
sg16
F0.608
sg17
Nsg18
Nsg19
Nsg20
I0
sg21
F0.13797798096760258
sg22
F0.681
sg23
Nsg24
Nsg25
F-5.799
ssg26
I01
sba(iSong
Song
p165
(dp166
g3
(dp167
g5
F0.01
sg6
VMore Girls Like You
p168
sg8
F149.962
sg9
F0.743
sg10
S'country'
p169
sg12
F0.0368
sg13
VKip Moore
p170
sg15
I9999
sg16
F0.553
sg17
Nsg18
Nsg19
Nsg20
I0
sg21
F0.13797798096760258
sg22
F0.564
sg23
Nsg24
Nsg25
F-5.483
ssg26
I01
sba(iSong
Song
p171
(dp172
g3
(dp173
g5
F0.0677
sg6
VLosing Sleep
p174
sg8
F92.003
sg9
F0.628
sg10
S'country'
p175
sg12
F0.0431
sg13
VChris Young
p176
sg15
I9999
sg16
F0.587
sg17
Nsg18
Nsg19
Nsg20
F1.88e-06
sg21
F0.13797798096760258
sg22
F0.649
sg23
Nsg24
Nsg25
F-5.703
ssg26
I01
sba(iSong
Song
p177
(dp178
g3
(dp179
g5
F0.0114
sg6
VWasn't That Drunk (W/ Carly Pearce) [Act 2]
p180
sg8
F113.989
sg9
F0.906
sg10
S'country'
p181
sg12
F0.0504
sg13
VJosh Abbott Band
p182
sg15
I9999
sg16
F0.561
sg17
Nsg18
Nsg19
Nsg20
F1.43e-06
sg21
F0.13797798096760258
sg22
F0.431
sg23
Nsg24
Nsg25
F-5.147
ssg26
I01
sba(iSong
Song
p183
(dp184
g3
(dp185
g5
F0.0972
sg6
VMiddle of a Memory
p186
sg8
F139.788
sg9
F0.746
sg10
S'country'
p187
sg12
F0.0329
sg13
VCole Swindell
p188
sg15
I9999
sg16
F0.531
sg17
Nsg18
Nsg19
Nsg20
I0
sg21
F0.13797798096760258
sg22
F0.304
sg23
Nsg24
Nsg25
F-4.228
ssg26
I01
sba(iSong
Song
p189
(dp190
g3
(dp191
g5
F0.168
sg6
VMake You Miss Me
p192
sg8
F146.026
sg9
F0.468
sg10
S'country'
p193
sg12
F0.0314
sg13
VSam Hunt
p194
sg15
I9999
sg16
F0.612
sg17
Nsg18
Nsg19
Nsg20
I0
sg21
F0.13797798096760258
sg22
F0.165
sg23
Nsg24
Nsg25
F-6.597
ssg26
I01
sba(iSong
Song
p195
(dp196
g3
(dp197
g5
F0.0385
sg6
VHomemade
p198
sg8
F163.956
sg9
F0.94
sg10
S'country'
p199
sg12
F0.0514
sg13
VCold Creek County
p200
sg15
I9999
sg16
F0.436
sg17
Nsg18
Nsg19
Nsg20
I0
sg21
F0.13797798096760258
sg22
F0.594
sg23
Nsg24
Nsg25
F-4.005
ssg26
I01
sba(iSong
Song
p201
(dp202
g3
(dp203
g5
F0.0472
sg6
VSingles You Up
p204
sg8
F100.08
sg9
F0.903
sg10
S'country'
p205
sg12
F0.0323
sg13
VJordan Davis
p206
sg15
I9999
sg16
F0.635
sg17
Nsg18
Nsg19
Nsg20
I0
sg21
F0.13797798096760258
sg22
F0.559
sg23
Nsg24
Nsg25
F-3.588
ssg26
I01
sba(iSong
Song
p207
(dp208
g3
(dp209
g5
F0.302
sg6
VSpeakers, Bleachers And Preachers
p210
sg8
F96.02
sg9
F0.625
sg10
S'country'
p211
sg12
F0.0258
sg13
VBrandon Lay
p212
sg15
I9999
sg16
F0.603
sg17
Nsg18
Nsg19
Nsg20
I0
sg21
F0.13797798096760258
sg22
F0.651
sg23
Nsg24
Nsg25
F-6.563
ssg26
I01
sba(iSong
Song
p213
(dp214
g3
(dp215
g5
F0.0179
sg6
VDear Life
p216
sg8
F127.026
sg9
F0.88
sg10
S'country'
p217
sg12
F0.0425
sg13
VHigh Valley
p218
sg15
I9999
sg16
F0.554
sg17
Nsg18
Nsg19
Nsg20
I0
sg21
F0.13797798096760258
sg22
F0.448
sg23
Nsg24
Nsg25
F-6.366
ssg26
I01
sba(iSong
Song
p219
(dp220
g3
(dp221
g5
F0.0204
sg6
VBeautiful Freakshow
p222
sg8
F133.013
sg9
F0.677
sg10
S'country'
p223
sg12
F0.0543
sg13
VDean Brody
p224
sg15
I9999
sg16
F0.589
sg17
Nsg18
Nsg19
Nsg20
F4.55e-05
sg21
F0.13797798096760258
sg22
F0.235
sg23
Nsg24
Nsg25
F-6.713
ssg26
I01
sba(iSong
Song
p225
(dp226
g3
(dp227
g5
F0.00926
sg6
VYours If You Want It
p228
sg8
F113.067
sg9
F0.909
sg10
S'country'
p229
sg12
F0.0557
sg13
VRascal Flatts
p230
sg15
I9999
sg16
F0.548
sg17
Nsg18
Nsg19
Nsg20
I0
sg21
F0.13797798096760258
sg22
F0.413
sg23
Nsg24
Nsg25
F-3.1
ssg26
I01
sba(iSong
Song
p231
(dp232
g3
(dp233
g5
F0.0536
sg6
VWoke up Like This
p234
sg8
F155.944
sg9
F0.776
sg10
S'country'
p235
sg12
F0.0484
sg13
VRiver Town Saints
p236
sg15
I9999
sg16
F0.507
sg17
Nsg18
Nsg19
Nsg20
I0
sg21
F0.13797798096760258
sg22
F0.77
sg23
Nsg24
Nsg25
F-4.363
ssg26
I01
sba(iSong
Song
p237
(dp238
g3
(dp239
g5
F0.0498
sg6
VJust Sayin'
p240
sg8
F105.937
sg9
F0.827
sg10
S'country'
p241
sg12
F0.035
sg13
VJames Barker Band
p242
sg15
I9999
sg16
F0.655
sg17
Nsg18
Nsg19
Nsg20
I0
sg21
F0.13797798096760258
sg22
F0.928
sg23
Nsg24
Nsg25
F-4.897
ssg26
I01
sba(iSong
Song
p243
(dp244
g3
(dp245
g5
F0.0362
sg6
VHooked
p246
sg8
F132.054
sg9
F0.721
sg10
S'country'
p247
sg12
F0.0356
sg13
VDylan Scott
p248
sg15
I9999
sg16
F0.597
sg17
Nsg18
Nsg19
Nsg20
I0
sg21
F0.13797798096760258
sg22
F0.437
sg23
Nsg24
Nsg25
F-6.422
ssg26
I01
sba(iSong
Song
p249
(dp250
g3
(dp251
g5
F0.0033
sg6
VSide Effects
p252
sg8
F110.102
sg9
F0.855
sg10
S'country'
p253
sg12
F0.0374
sg13
VDallas Smith
p254
sg15
I9999
sg16
F0.622
sg17
Nsg18
Nsg19
Nsg20
F1.29e-06
sg21
F0.13797798096760258
sg22
F0.702
sg23
Nsg24
Nsg25
F-3.902
ssg26
I01
sba(iSong
Song
p255
(dp256
g3
(dp257
g5
F0.231
sg6
VYeah Boy
p258
sg8
F88.965
sg9
F0.809
sg10
S'country'
p259
sg12
F0.0376
sg13
VKelsea Ballerini
p260
sg15
I9999
sg16
F0.589
sg17
Nsg18
Nsg19
Nsg20
I0
sg21
F0.13797798096760258
sg22
F0.496
sg23
Nsg24
Nsg25
F-5.292
ssg26
I01
sba(iSong
Song
p261
(dp262
g3
(dp263
g5
F0.0494
sg6
VSomethin' I'm Good At
p264
sg8
F103.009
sg9
F0.94
sg10
S'country'
p265
sg12
F0.114
sg13
VBrett Eldredge
p266
sg15
I9999
sg16
F0.562
sg17
Nsg18
Nsg19
Nsg20
I0
sg21
F0.13797798096760258
sg22
F0.456
sg23
Nsg24
Nsg25
F-4.337
ssg26
I01
sba(iSong
Song
p267
(dp268
g3
(dp269
g5
F0.00139
sg6
VSlide Over
p270
sg8
F172.009
sg9
F0.933
sg10
S'country'
p271
sg12
F0.0553
sg13
VTim Hicks
p272
sg15
I9999
sg16
F0.394
sg17
Nsg18
Nsg19
Nsg20
F1.5e-05
sg21
F0.13797798096760258
sg22
F0.471
sg23
Nsg24
Nsg25
F-3.678
ssg26
I01
sba(iSong
Song
p273
(dp274
g3
(dp275
g5
F0.000179
sg6
VHometown Kids
p276
sg8
F107.936
sg9
F0.79
sg10
S'country'
p277
sg12
F0.0339
sg13
VThe Reklaws
p278
sg15
I9999
sg16
F0.58
sg17
Nsg18
Nsg19
Nsg20
I0
sg21
F0.13797798096760258
sg22
F0.795
sg23
Nsg24
Nsg25
F-6.053
ssg26
I01
sba(iSong
Song
p279
(dp280
g3
(dp281
g5
F0.333
sg6
VGod, Your Mama, And Me
p282
sg8
F168.032
sg9
F0.802
sg10
S'country'
p283
sg12
F0.054
sg13
VFlorida Georgia Line
p284
sg15
I9999
sg16
F0.439
sg17
Nsg18
Nsg19
Nsg20
I0
sg21
F0.13797798096760258
sg22
F0.725
sg23
Nsg24
Nsg25
F-3.644
ssg26
I01
sba(iSong
Song
p285
(dp286
g3
(dp287
g5
F0.000907
sg6
VCraving You
p288
sg8
F104.986
sg9
F0.841
sg10
S'country'
p289
sg12
F0.0353
sg13
VThomas Rhett
p290
sg15
I9999
sg16
F0.612
sg17
Nsg18
Nsg19
Nsg20
I0
sg21
F0.13797798096760258
sg22
F0.499
sg23
Nsg24
Nsg25
F-3.795
ssg26
I01
sba(iSong
Song
p291
(dp292
g3
(dp293
g5
F0.0887
sg6
VStill That Way
p294
sg8
F76.926
sg9
F0.854
sg10
S'country'
p295
sg12
F0.036
sg13
VCold Creek County
p296
sg15
I9999
sg16
F0.399
sg17
Nsg18
Nsg19
Nsg20
I0
sg21
F0.13797798096760258
sg22
F0.431
sg23
Nsg24
Nsg25
F-5.177
ssg26
I01
sba(iSong
Song
p297
(dp298
g3
(dp299
g5
F0.00926
sg6
VAll She Wrote
p300
sg8
F111.038
sg9
F0.959
sg10
S'country'
p301
sg12
F0.0462
sg13
VPetric
p302
sg15
I9999
sg16
F0.641
sg17
Nsg18
Nsg19
Nsg20
F0.0026
sg21
F0.13797798096760258
sg22
F0.623
sg23
Nsg24
Nsg25
F-3.686
ssg26
I01
sba(iSong
Song
p303
(dp304
g3
(dp305
g5
F0.593
sg6
VWritten in the Sand
p306
sg8
F83.985
sg9
F0.437
sg10
S'country'
p307
sg12
F0.0575
sg13
VOld Dominion
p308
sg15
I9999
sg16
F0.725
sg17
Nsg18
Nsg19
Nsg20
I0
sg21
F0.13797798096760258
sg22
F0.759
sg23
Nsg24
Nsg25
F-9.602
ssg26
I01
sba(iSong
Song
p309
(dp310
g3
(dp311
g5
F0.047
sg6
VMeant to Be (feat. Florida Georgia Line)
p312
sg8
F154.084
sg9
F0.783
sg10
S'country'
p313
sg12
F0.0856
sg13
VBebe Rexha
p314
sg15
I9999
sg16
F0.643
sg17
Nsg18
Nsg19
Nsg20
I0
sg21
F0.13797798096760258
sg22
F0.579
sg23
Nsg24
Nsg25
F-6.458
ssg26
I01
sba(iSong
Song
p315
(dp316
g3
(dp317
g5
F0.0063
sg6
VFor The First Time
p318
sg8
F142.099
sg9
F0.765
sg10
S'country'
p319
sg12
F0.0393
sg13
VDarius Rucker
p320
sg15
I9999
sg16
F0.548
sg17
Nsg18
Nsg19
Nsg20
I0
sg21
F0.13797798096760258
sg22
F0.744
sg23
Nsg24
Nsg25
F-5.297
ssg26
I01
sba(iSong
Song
p321
(dp322
g3
(dp323
g5
F0.445
sg6
VDifferent For Girls
p324
sg8
F91.975
sg9
F0.785
sg10
S'country'
p325
sg12
F0.0369
sg13
VDierks Bentley
p326
sg15
I9999
sg16
F0.661
sg17
Nsg18
Nsg19
Nsg20
F0.000266
sg21
F0.13797798096760258
sg22
F0.371
sg23
Nsg24
Nsg25
F-5.623
ssg26
I01
sba(iSong
Song
p327
(dp328
g3
(dp329
g5
F0.294
sg6
VRescue
p330
sg8
F90.095
sg9
F0.791
sg10
S'country'
p331
sg12
F0.0378
sg13
VHunter Hayes
p332
sg15
I9999
sg16
F0.52
sg17
Nsg18
Nsg19
Nsg20
I0
sg21
F0.13797798096760258
sg22
F0.29
sg23
Nsg24
Nsg25
F-3.499
ssg26
I01
sba(iSong
Song
p333
(dp334
g3
(dp335
g5
F0.0251
sg6
VSmall Town Boy
p336
sg8
F72.997
sg9
F0.743
sg10
S'country'
p337
sg12
F0.0287
sg13
VDustin Lynch
p338
sg15
I9999
sg16
F0.554
sg17
Nsg18
Nsg19
Nsg20
I0
sg21
F0.13797798096760258
sg22
F0.673
sg23
Nsg24
Nsg25
F-6.016
ssg26
I01
sba(iSong
Song
p339
(dp340
g3
(dp341
g5
F0.0451
sg6
VHell If I Know
p342
sg8
F100.014
sg9
F0.831
sg10
S'country'
p343
sg12
F0.0434
sg13
VChase Bryant
p344
sg15
I9999
sg16
F0.618
sg17
Nsg18
Nsg19
Nsg20
I0
sg21
F0.13797798096760258
sg22
F0.627
sg23
Nsg24
Nsg25
F-5.99
ssg26
I01
sba(iSong
Song
p345
(dp346
g3
(dp347
g5
F0.334
sg6
VHold You Back
p348
sg8
F133.967
sg9
F0.629
sg10
S'country'
p349
sg12
F0.0321
sg13
VRyan Hurd
p350
sg15
I9999
sg16
F0.594
sg17
Nsg18
Nsg19
Nsg20
I0
sg21
F0.13797798096760258
sg22
F0.645
sg23
Nsg24
Nsg25
F-6.776
ssg26
I01
sba(iSong
Song
p351
(dp352
g3
(dp353
g5
F0.0074
sg6
VI Be U Be
p354
sg8
F126.035
sg9
F0.746
sg10
S'country'
p355
sg12
F0.0335
sg13
VHigh Valley
p356
sg15
I9999
sg16
F0.442
sg17
Nsg18
Nsg19
Nsg20
I0
sg21
F0.13797798096760258
sg22
F0.414
sg23
Nsg24
Nsg25
F-5.883
ssg26
I01
sba(iSong
Song
p357
(dp358
g3
(dp359
g5
F0.0147
sg6
VSixteen
p360
sg8
F106.992
sg9
F0.531
sg10
S'country'
p361
sg12
F0.0273
sg13
VThomas Rhett
p362
sg15
I9999
sg16
F0.707
sg17
Nsg18
Nsg19
Nsg20
F2.11e-06
sg21
F0.13797798096760258
sg22
F0.417
sg23
Nsg24
Nsg25
F-7.014
ssg26
I01
sba(iSong
Song
p363
(dp364
g3
(dp365
g5
F0.0332
sg6
VBands Make Her Dance
p366
sg8
F105.061
sg9
F0.667
sg10
S'country'
p367
sg12
F0.0379
sg13
VLogan Mize
p368
sg15
I9999
sg16
F0.556
sg17
Nsg18
Nsg19
Nsg20
F6.94e-05
sg21
F0.13797798096760258
sg22
F0.275
sg23
Nsg24
Nsg25
F-5.705
ssg26
I01
sba(iSong
Song
p369
(dp370
g3
(dp371
g5
F0.178
sg6
VRecord Year
p372
sg8
F159.96
sg9
F0.655
sg10
S'country'
p373
sg12
F0.12
sg13
VEric Church
p374
sg15
I9999
sg16
F0.585
sg17
Nsg18
Nsg19
Nsg20
I0
sg21
F0.13797798096760258
sg22
F0.574
sg23
Nsg24
Nsg25
F-8.151
ssg26
I01
sba(iSong
Song
p375
(dp376
g3
(dp377
g5
F0.216
sg6
VWe Were That Song
p378
sg8
F102.956
sg9
F0.911
sg10
S'country'
p379
sg12
F0.05
sg13
VBrett Kissel
p380
sg15
I9999
sg16
F0.618
sg17
Nsg18
Nsg19
Nsg20
I0
sg21
F0.13797798096760258
sg22
F0.501
sg23
Nsg24
Nsg25
F-3.323
ssg26
I01
sba(iSong
Song
p381
(dp382
g3
(dp383
g5
F0.000555
sg6
VThunder in the Rain
p384
sg8
F110.963
sg9
F0.877
sg10
S'country'
p385
sg12
F0.0317
sg13
VKane Brown
p386
sg15
I9999
sg16
F0.549
sg17
Nsg18
Nsg19
Nsg20
I0
sg21
F0.13797798096760258
sg22
F0.377
sg23
Nsg24
Nsg25
F-5.008
ssg26
I01
sba(iSong
Song
p387
(dp388
g3
(dp389
g5
F0.0342
sg6
VDrive Me Away
p390
sg8
F102.136
sg9
F0.852
sg10
S'country'
p391
sg12
F0.0992
sg13
VJess Moskaluke
p392
sg15
I9999
sg16
F0.579
sg17
Nsg18
Nsg19
Nsg20
I0
sg21
F0.13797798096760258
sg22
F0.616
sg23
Nsg24
Nsg25
F-4.318
ssg26
I01
sba(iSong
Song
p393
(dp394
g3
(dp395
g5
F0.265
sg6
VThe Long Way
p396
sg8
F88.865
sg9
F0.637
sg10
S'country'
p397
sg12
F0.0401
sg13
VBrett Eldredge
p398
sg15
I9999
sg16
F0.488
sg17
Nsg18
Nsg19
Nsg20
I0
sg21
F0.13797798096760258
sg22
F0.23
sg23
Nsg24
Nsg25
F-7.63
ssg26
I01
sba(iSong
Song
p399
(dp400
g3
(dp401
g5
F0.161
sg6
VThis Night Back
p402
sg8
F160.167
sg9
F0.863
sg10
S'country'
p403
sg12
F0.04
sg13
VCanaan Smith
p404
sg15
I9999
sg16
F0.587
sg17
Nsg18
Nsg19
Nsg20
I0
sg21
F0.13797798096760258
sg22
F0.537
sg23
Nsg24
Nsg25
F-4.803
ssg26
I01
sba(iSong
Song
p405
(dp406
g3
(dp407
g5
F0.0277
sg6
VLiquor's Callin' the Shots
p408
sg8
F158.104
sg9
F0.96
sg10
S'country'
p409
sg12
F0.0588
sg13
VEric Ethridge
p410
sg15
I9999
sg16
F0.447
sg17
Nsg18
Nsg19
Nsg20
I0
sg21
F0.13797798096760258
sg22
F0.533
sg23
Nsg24
Nsg25
F-1.979
ssg26
I01
sba(iSong
Song
p411
(dp412
g3
(dp413
g5
F0.0528
sg6
VFound You
p414
sg8
F164.144
sg9
F0.821
sg10
S'country'
p415
sg12
F0.0404
sg13
VKane Brown
p416
sg15
I9999
sg16
F0.46
sg17
Nsg18
Nsg19
Nsg20
I0
sg21
F0.13797798096760258
sg22
F0.438
sg23
Nsg24
Nsg25
F-5.333
ssg26
I01
sba(iSong
Song
p417
(dp418
g3
(dp419
g5
F0.385
sg6
VH.O.L.Y.
p420
sg8
F78.003
sg9
F0.685
sg10
S'country'
p421
sg12
F0.0351
sg13
VFlorida Georgia Line
p422
sg15
I9999
sg16
F0.525
sg17
Nsg18
Nsg19
Nsg20
I0
sg21
F0.13797798096760258
sg22
F0.54
sg23
Nsg24
Nsg25
F-3.954
ssg26
I01
sba(iSong
Song
p423
(dp424
g3
(dp425
g5
F0.000601
sg6
VLong Way To Love You
p426
sg8
F115.024
sg9
F0.829
sg10
S'country'
p427
sg12
F0.0452
sg13
VHunter Brothers
p428
sg15
I9999
sg16
F0.589
sg17
Nsg18
Nsg19
Nsg20
I0
sg21
F0.13797798096760258
sg22
F0.411
sg23
Nsg24
Nsg25
F-4.993
ssg26
I01
sba(iSong
Song
p429
(dp430
g3
(dp431
g5
F0.0304
sg6
VThe Fighter
p432
sg8
F132.023
sg9
F0.845
sg10
S'country'
p433
sg12
F0.0525
sg13
VKeith Urban
p434
sg15
I9999
sg16
F0.681
sg17
Nsg18
Nsg19
Nsg20
I0
sg21
F0.13797798096760258
sg22
F0.761
sg23
Nsg24
Nsg25
F-5.147
ssg26
I01
sba(iSong
Song
p435
(dp436
g3
(dp437
g5
F0.0596
sg6
VRoad Less Traveled
p438
sg8
F112.996
sg9
F0.88
sg10
S'country'
p439
sg12
F0.0348
sg13
VLauren Alaina
p440
sg15
I9999
sg16
F0.615
sg17
Nsg18
Nsg19
Nsg20
I0
sg21
F0.13797798096760258
sg22
F0.307
sg23
Nsg24
Nsg25
F-4.69
ssg26
I01
sba(iSong
Song
p441
(dp442
g3
(dp443
g5
F0.129
sg6
VLight It Up
p444
sg8
F130.029
sg9
F0.935
sg10
S'country'
p445
sg12
F0.0855
sg13
VLuke Bryan
p446
sg15
I9999
sg16
F0.596
sg17
Nsg18
Nsg19
Nsg20
I0
sg21
F0.13797798096760258
sg22
F0.678
sg23
Nsg24
Nsg25
F-2.794
ssg26
I01
sba(iSong
Song
p447
(dp448
g3
(dp449
g5
F0.368
sg6
VTake Back Home Girl (Feat. Tori Kelly)
p450
sg8
F159.708
sg9
F0.78
sg10
S'country'
p451
sg12
F0.064
sg13
VChris Lane
p452
sg15
I9999
sg16
F0.494
sg17
Nsg18
Nsg19
Nsg20
I0
sg21
F0.13797798096760258
sg22
F0.664
sg23
Nsg24
Nsg25
F-3.825
ssg26
I01
sba(iSong
Song
p453
(dp454
g3
(dp455
g5
F0.163
sg6
VI'll Name the Dogs
p456
sg8
F168.063
sg9
F0.852
sg10
S'country'
p457
sg12
F0.0933
sg13
VBlake Shelton
p458
sg15
I9999
sg16
F0.47
sg17
Nsg18
Nsg19
Nsg20
F2.04e-06
sg21
F0.13797798096760258
sg22
F0.773
sg23
Nsg24
Nsg25
F-5.874
ssg26
I01
sba(iSong
Song
p459
(dp460
g3
(dp461
g5
F0.208
sg6
VHow Not To
p462
sg8
F159.863
sg9
F0.836
sg10
S'country'
p463
sg12
F0.0491
sg13
VDan + Shay
p464
sg15
I9999
sg16
F0.501
sg17
Nsg18
Nsg19
Nsg20
I0
sg21
F0.13797798096760258
sg22
F0.618
sg23
Nsg24
Nsg25
F-3.587
ssg26
I01
sba(iSong
Song
p465
(dp466
g3
(dp467
g5
F0.0637
sg6
VWhen I Do
p468
sg8
F74.994
sg9
F0.785
sg10
S'country'
p469
sg12
F0.0576
sg13
VAlee
p470
sg15
I9999
sg16
F0.404
sg17
Nsg18
Nsg19
Nsg20
F1.7e-06
sg21
F0.13797798096760258
sg22
F0.584
sg23
Nsg24
Nsg25
F-4.336
ssg26
I01
sba(iSong
Song
p471
(dp472
g3
(dp473
g5
F0.0364
sg6
VOut There
p474
sg8
F153.984
sg9
F0.795
sg10
S'country'
p475
sg12
F0.0339
sg13
VChris Janson
p476
sg15
I9999
sg16
F0.53
sg17
Nsg18
Nsg19
Nsg20
F2.67e-06
sg21
F0.13797798096760258
sg22
F0.516
sg23
Nsg24
Nsg25
F-5.233
ssg26
I01
sba(iSong
Song
p477
(dp478
g3
(dp479
g5
F0.12
sg6
VYours
p480
sg8
F133.975
sg9
F0.796
sg10
S'country'
p481
sg12
F0.0313
sg13
VRussell Dickerson
p482
sg15
I9999
sg16
F0.568
sg17
Nsg18
Nsg19
Nsg20
I0
sg21
F0.13797798096760258
sg22
F0.573
sg23
Nsg24
Nsg25
F-5.308
ssg26
I01
sba(iSong
Song
p483
(dp484
g3
(dp485
g5
F0.0138
sg6
VCity Girl
p486
sg8
F134.009
sg9
F0.795
sg10
S'country'
p487
sg12
F0.0292
sg13
VRyan Hurd
p488
sg15
I9999
sg16
F0.567
sg17
Nsg18
Nsg19
Nsg20
I0
sg21
F0.13797798096760258
sg22
F0.415
sg23
Nsg24
Nsg25
F-6.202
ssg26
I01
sba(iSong
Song
p489
(dp490
g3
(dp491
g5
F0.0886
sg6
VDirt Road In 'Em
p492
sg8
F146.027
sg9
F0.913
sg10
S'country'
p493
sg12
F0.046
sg13
VAaron Pritchett
p494
sg15
I9999
sg16
F0.579
sg17
Nsg18
Nsg19
Nsg20
I0
sg21
F0.13797798096760258
sg22
F0.714
sg23
Nsg24
Nsg25
F-3.888
ssg26
I01
sba(iSong
Song
p495
(dp496
g3
(dp497
g5
F0.0551
sg6
VLike You That Way
p498
sg8
F184.059
sg9
F0.738
sg10
S'country'
p499
sg12
F0.0719
sg13
VCanaan Smith
p500
sg15
I9999
sg16
F0.41
sg17
Nsg18
Nsg19
Nsg20
I0
sg21
F0.13797798096760258
sg22
F0.593
sg23
Nsg24
Nsg25
F-3.833
ssg26
I01
sba(iSong
Song
p501
(dp502
g3
(dp503
g5
F0.00959
sg6
VOut Of The Blue
p504
sg8
F81.999
sg9
F0.828
sg10
S'country'
p505
sg12
F0.032
sg13
VChad Brownlee
p506
sg15
I9999
sg16
F0.515
sg17
Nsg18
Nsg19
Nsg20
I0
sg21
F0.13797798096760258
sg22
F0.653
sg23
Nsg24
Nsg25
F-4.715
ssg26
I01
sba(iSong
Song
p507
(dp508
g3
(dp509
g5
F0.0993
sg6
VFor Her
p510
sg8
F150.004
sg9
F0.904
sg10
S'country'
p511
sg12
F0.0357
sg13
VChris Lane
p512
sg15
I9999
sg16
F0.51
sg17
Nsg18
Nsg19
Nsg20
I0
sg21
F0.13797798096760258
sg22
F0.545
sg23
Nsg24
Nsg25
F-4.291
ssg26
I01
sba(iSong
Song
p513
(dp514
g3
(dp515
g5
F0.321
sg6
VLivin' on Summertime
p516
sg8
F89.016
sg9
F0.818
sg10
S'country'
p517
sg12
F0.0276
sg13
VGord Bamford
p518
sg15
I9999
sg16
F0.529
sg17
Nsg18
Nsg19
Nsg20
I0
sg21
F0.13797798096760258
sg22
F0.688
sg23
Nsg24
Nsg25
F-3.624
ssg26
I01
sba(iSong
Song
p519
(dp520
g3
(dp521
g5
F0.158
sg6
VStompin' Ground
p522
sg8
F97.999
sg9
F0.937
sg10
S'country'
p523
sg12
F0.0525
sg13
VTim Hicks
p524
sg15
I9999
sg16
F0.691
sg17
Nsg18
Nsg19
Nsg20
I0
sg21
F0.13797798096760258
sg22
F0.847
sg23
Nsg24
Nsg25
F-3.963
ssg26
I01
sba(iSong
Song
p525
(dp526
g3
(dp527
g5
F0.114
sg6
VWanna Be That Song
p528
sg8
F144.065
sg9
F0.686
sg10
S'country'
p529
sg12
F0.0313
sg13
VBrett Eldredge
p530
sg15
I9999
sg16
F0.518
sg17
Nsg18
Nsg19
Nsg20
I0
sg21
F0.13797798096760258
sg22
F0.334
sg23
Nsg24
Nsg25
F-4.911
ssg26
I01
sba(iSong
Song
p531
(dp532
g3
(dp533
g5
F0.225
sg6
VFast
p534
sg8
F145.953
sg9
F0.898
sg10
S'country'
p535
sg12
F0.0459
sg13
VLuke Bryan
p536
sg15
I9999
sg16
F0.548
sg17
Nsg18
Nsg19
Nsg20
I0
sg21
F0.13797798096760258
sg22
F0.599
sg23
Nsg24
Nsg25
F-2.561
ssg26
I01
sba(iSong
Song
p537
(dp538
g3
(dp539
g5
F0.0385
sg6
VLater
p540
sg8
F164.936
sg9
F0.851
sg10
S'country'
p541
sg12
F0.0493
sg13
VDavid James
p542
sg15
I9999
sg16
F0.516
sg17
Nsg18
Nsg19
Nsg20
I0
sg21
F0.13797798096760258
sg22
F0.605
sg23
Nsg24
Nsg25
F-5.013
ssg26
I01
sba(iSong
Song
p543
(dp544
g3
(dp545
g5
F0.0344
sg6
VYou Look Good
p546
sg8
F152.015
sg9
F0.926
sg10
S'country'
p547
sg12
F0.0461
sg13
VLady Antebellum
p548
sg15
I9999
sg16
F0.659
sg17
Nsg18
Nsg19
Nsg20
F0.00121
sg21
F0.13797798096760258
sg22
F0.95
sg23
Nsg24
Nsg25
F-4.66
ssg26
I01
sba(iSong
Song
p549
(dp550
g3
(dp551
g5
F0.033
sg6
VGood Kinda Love
p552
sg8
F92.01
sg9
F0.906
sg10
S'country'
p553
sg12
F0.0325
sg13
VJojo Mason
p554
sg15
I9999
sg16
F0.532
sg17
Nsg18
Nsg19
Nsg20
F4.61e-05
sg21
F0.13797798096760258
sg22
F0.775
sg23
Nsg24
Nsg25
F-3.145
ssg26
I01
sba(iSong
Song
p555
(dp556
g3
(dp557
g5
F0.0108
sg6
VWhat Makes You Country
p558
sg8
F159.995
sg9
F0.947
sg10
S'country'
p559
sg12
F0.0445
sg13
VLuke Bryan
p560
sg15
I9999
sg16
F0.51
sg17
Nsg18
Nsg19
Nsg20
I0
sg21
F0.13797798096760258
sg22
F0.749
sg23
Nsg24
Nsg25
F-1.746
ssg26
I01
sba(iSong
Song
p561
(dp562
g3
(dp563
g5
F0.0919
sg6
VHead Over Boots
p564
sg8
F108.078
sg9
F0.669
sg10
S'country'
p565
sg12
F0.0237
sg13
VJon Pardi
p566
sg15
I9999
sg16
F0.637
sg17
Nsg18
Nsg19
Nsg20
I0
sg21
F0.13797798096760258
sg22
F0.638
sg23
Nsg24
Nsg25
F-4.608
ssg26
I01
sba(iSong
Song
p567
(dp568
g3
(dp569
g5
F0.00283
sg6
VCardboard Box
p570
sg8
F116.969
sg9
F0.864
sg10
S'country'
p571
sg12
F0.0312
sg13
VNatasha Zimbaro
p572
sg15
I9999
sg16
F0.608
sg17
Nsg18
Nsg19
Nsg20
I0
sg21
F0.13797798096760258
sg22
F0.582
sg23
Nsg24
Nsg25
F-3.976
ssg26
I01
sba(iSong
Song
p573
(dp574
g3
(dp575
g5
F0.018
sg6
VUnapologetically
p576
sg8
F170.877
sg9
F0.817
sg10
S'country'
p577
sg12
F0.0473
sg13
VKelsea Ballerini
p578
sg15
I9999
sg16
F0.536
sg17
Nsg18
Nsg19
Nsg20
I0
sg21
F0.13797798096760258
sg22
F0.525
sg23
Nsg24
Nsg25
F-5.285
ssg26
I01
sba(iSong
Song
p579
(dp580
g3
(dp581
g5
F0.0131
sg6
VDaughters Of The Sun
p582
sg8
F114.997
sg9
F0.724
sg10
S'country'
p583
sg12
F0.0343
sg13
VGeorge Canyon
p584
sg15
I9999
sg16
F0.694
sg17
Nsg18
Nsg19
Nsg20
F8.28e-05
sg21
F0.13797798096760258
sg22
F0.72
sg23
Nsg24
Nsg25
F-7.026
ssg26
I01
sba(iSong
Song
p585
(dp586
g3
(dp587
g5
F0.0913
sg6
VUp Down (Feat. Florida Georgia Line)
p588
sg8
F129.928
sg9
F0.881
sg10
S'country'
p589
sg12
F0.0349
sg13
VMorgan Wallen
p590
sg15
I9999
sg16
F0.59
sg17
Nsg18
Nsg19
Nsg20
I0
sg21
F0.13797798096760258
sg22
F0.734
sg23
Nsg24
Nsg25
F-2.898
ssg26
I01
sba(iSong
Song
p591
(dp592
g3
(dp593
g5
F0.0183
sg6
VBlue Tacoma
p594
sg8
F160.139
sg9
F0.897
sg10
S'country'
p595
sg12
F0.0403
sg13
VRussell Dickerson
p596
sg15
I9999
sg16
F0.455
sg17
Nsg18
Nsg19
Nsg20
I0
sg21
F0.13797798096760258
sg22
F0.728
sg23
Nsg24
Nsg25
F-4.879
ssg26
I01
sba(iSong
Song
p597
(dp598
g3
(dp599
g5
F0.168
sg6
VProof Is on Your Lips
p600
sg8
F143.926
sg9
F0.807
sg10
S'country'
p601
sg12
F0.033
sg13
VRyan Robinette
p602
sg15
I9999
sg16
F0.455
sg17
Nsg18
Nsg19
Nsg20
I0
sg21
F0.13797798096760258
sg22
F0.685
sg23
Nsg24
Nsg25
F-5.053
ssg26
I01
sba(iSong
Song
p603
(dp604
g3
(dp605
g5
F0.126
sg6
VBetter Man
p606
sg8
F143.991
sg9
F0.76
sg10
S'country'
p607
sg12
F0.0361
sg13
VLittle Big Town
p608
sg15
I9999
sg16
F0.524
sg17
Nsg18
Nsg19
Nsg20
F1.1e-05
sg21
F0.13797798096760258
sg22
F0.437
sg23
Nsg24
Nsg25
F-4.214
ssg26
I01
sba(iSong
Song
p609
(dp610
g3
(dp611
g5
F0.44
sg6
VEvery Little Thing
p612
sg8
F139.775
sg9
F0.444
sg10
S'country'
p613
sg12
F0.0417
sg13
VCarly Pearce
p614
sg15
I9999
sg16
F0.637
sg17
Nsg18
Nsg19
Nsg20
F5.46e-06
sg21
F0.13797798096760258
sg22
F0.319
sg23
Nsg24
Nsg25
F-6.355
ssg26
I01
sba(iSong
Song
p615
(dp616
g3
(dp617
g5
F0.38
sg6
VGreatest Love Story
p618
sg8
F147.975
sg9
F0.621
sg10
S'country'
p619
sg12
F0.0524
sg13
VLANCO
p620
sg15
I9999
sg16
F0.665
sg17
Nsg18
Nsg19
Nsg20
I0
sg21
F0.13797798096760258
sg22
F0.632
sg23
Nsg24
Nsg25
F-8.571
ssg26
I01
sba(iSong
Song
p621
(dp622
g3
(dp623
g5
F0.047
sg6
VMeant to Be (feat. Florida Georgia Line)
p624
sg8
F154.084
sg9
F0.783
sg10
S'country'
p625
sg12
F0.0856
sg13
VBebe Rexha
p626
sg15
I9999
sg16
F0.643
sg17
Nsg18
Nsg19
Nsg20
I0
sg21
F0.13797798096760258
sg22
F0.579
sg23
Nsg24
Nsg25
F-6.458
ssg26
I01
sba(iSong
Song
p627
(dp628
g3
(dp629
g5
F0.0251
sg6
VSmall Town Boy
p630
sg8
F72.997
sg9
F0.743
sg10
S'country'
p631
sg12
F0.0287
sg13
VDustin Lynch
p632
sg15
I9999
sg16
F0.554
sg17
Nsg18
Nsg19
Nsg20
I0
sg21
F0.13797798096760258
sg22
F0.673
sg23
Nsg24
Nsg25
F-6.016
ssg26
I01
sba(iSong
Song
p633
(dp634
g3
(dp635
g5
F0.161
sg6
VThis Night Back
p636
sg8
F160.167
sg9
F0.863
sg10
S'country'
p637
sg12
F0.04
sg13
VCanaan Smith
p638
sg15
I9999
sg16
F0.587
sg17
Nsg18
Nsg19
Nsg20
I0
sg21
F0.13797798096760258
sg22
F0.537
sg23
Nsg24
Nsg25
F-4.803
ssg26
I01
sba(iSong
Song
p639
(dp640
g3
(dp641
g5
F0.349
sg6
VTake Back Home Girl (Feat. Tori Kelly)
p642
sg8
F160.03
sg9
F0.798
sg10
S'country'
p643
sg12
F0.0705
sg13
VChris Lane
p644
sg15
I9999
sg16
F0.488
sg17
Nsg18
Nsg19
Nsg20
I0
sg21
F0.13797798096760258
sg22
F0.613
sg23
Nsg24
Nsg25
F-3.855
ssg26
I01
sba(iSong
Song
p645
(dp646
g3
(dp647
g5
F0.144
sg6
VAll On Me
p648
sg8
F80.996
sg9
F0.658
sg10
S'country'
p649
sg12
F0.0281
sg13
VDevin Dawson
p650
sg15
I9999
sg16
F0.631
sg17
Nsg18
Nsg19
Nsg20
I0
sg21
F0.13797798096760258
sg22
F0.7
sg23
Nsg24
Nsg25
F-5.313
ssg26
I01
sba(iSong
Song
p651
(dp652
g3
(dp653
g5
F0.00898
sg6
VWhat Ifs
p654
sg8
F125.976
sg9
F0.799
sg10
S'country'
p655
sg12
F0.0275
sg13
VKane Brown
p656
sg15
I9999
sg16
F0.612
sg17
Nsg18
Nsg19
Nsg20
I0
sg21
F0.13797798096760258
sg22
F0.687
sg23
Nsg24
Nsg25
F-4.603
ssg26
I01
sba(iSong
Song
p657
(dp658
g3
(dp659
g5
F0.0147
sg6
VSixteen
p660
sg8
F106.992
sg9
F0.531
sg10
S'country'
p661
sg12
F0.0273
sg13
VThomas Rhett
p662
sg15
I9999
sg16
F0.707
sg17
Nsg18
Nsg19
Nsg20
F2.11e-06
sg21
F0.13797798096760258
sg22
F0.417
sg23
Nsg24
Nsg25
F-7.014
ssg26
I01
sba(iSong
Song
p663
(dp664
g3
(dp665
g5
F0.302
sg6
VSpeakers, Bleachers And Preachers
p666
sg8
F96.02
sg9
F0.625
sg10
S'country'
p667
sg12
F0.0258
sg13
VBrandon Lay
p668
sg15
I9999
sg16
F0.603
sg17
Nsg18
Nsg19
Nsg20
I0
sg21
F0.13797798096760258
sg22
F0.651
sg23
Nsg24
Nsg25
F-6.563
ssg26
I01
sba(iSong
Song
p669
(dp670
g3
(dp671
g5
F0.0169
sg6
VSleep Without You
p672
sg8
F88.549
sg9
F0.716
sg10
S'country'
p673
sg12
F0.043
sg13
VBrett Young
p674
sg15
I9999
sg16
F0.632
sg17
Nsg18
Nsg19
Nsg20
I0
sg21
F0.13797798096760258
sg22
F0.655
sg23
Nsg24
Nsg25
F-5.677
ssg26
I01
sba(iSong
Song
p675
(dp676
g3
(dp677
g5
F0.463
sg6
VBody Like A Back Road
p678
sg8
F98.963
sg9
F0.469
sg10
S'country'
p679
sg12
F0.0326
sg13
VSam Hunt
p680
sg15
I9999
sg16
F0.731
sg17
Nsg18
Nsg19
Nsg20
F1.04e-06
sg21
F0.13797798096760258
sg22
F0.631
sg23
Nsg24
Nsg25
F-7.226
ssg26
I01
sba(iSong
Song
p681
(dp682
g3
(dp683
g5
F0.013
sg6
VWhen It Rains It Pours
p684
sg8
F128.027
sg9
F0.801
sg10
S'country'
p685
sg12
F0.0303
sg13
VLuke Combs
p686
sg15
I9999
sg16
F0.551
sg17
Nsg18
Nsg19
Nsg20
F6.03e-06
sg21
F0.13797798096760258
sg22
F0.625
sg23
Nsg24
Nsg25
F-5.069
ssg26
I01
sba(iSong
Song
p687
(dp688
g3
(dp689
g5
F0.0692
sg6
VThat's When You Know
p690
sg8
F147.881
sg9
F0.809
sg10
S'country'
p691
sg12
F0.044
sg13
VChris Buck Band
p692
sg15
I9999
sg16
F0.523
sg17
Nsg18
Nsg19
Nsg20
I0
sg21
F0.13797798096760258
sg22
F0.663
sg23
Nsg24
Nsg25
F-7.257
ssg26
I01
sba(iSong
Song
p693
(dp694
g3
(dp695
g5
F0.38
sg6
VGreatest Love Story
p696
sg8
F147.975
sg9
F0.621
sg10
S'country'
p697
sg12
F0.0524
sg13
VLANCO
p698
sg15
I9999
sg16
F0.665
sg17
Nsg18
Nsg19
Nsg20
I0
sg21
F0.13797798096760258
sg22
F0.632
sg23
Nsg24
Nsg25
F-8.571
ssg26
I01
sba(iSong
Song
p699
(dp700
g3
(dp701
g5
F0.0356
sg6
VI Know Somebody
p702
sg8
F88.986
sg9
F0.903
sg10
S'country'
p703
sg12
F0.037
sg13
VLOCASH
p704
sg15
I9999
sg16
F0.505
sg17
Nsg18
Nsg19
Nsg20
I0
sg21
F0.13797798096760258
sg22
F0.491
sg23
Nsg24
Nsg25
F-3.699
ssg26
I01
sba(iSong
Song
p705
(dp706
g3
(dp707
g5
F0.0179
sg6
VDear Life
p708
sg8
F127.026
sg9
F0.88
sg10
S'country'
p709
sg12
F0.0425
sg13
VHigh Valley
p710
sg15
I9999
sg16
F0.554
sg17
Nsg18
Nsg19
Nsg20
I0
sg21
F0.13797798096760258
sg22
F0.448
sg23
Nsg24
Nsg25
F-6.366
ssg26
I01
sba(iSong
Song
p711
(dp712
g3
(dp713
g5
F0.0943
sg6
VJust Got Paid
p714
sg8
F171.892
sg9
F0.782
sg10
S'country'
p715
sg12
F0.0523
sg13
VEmerson Drive
p716
sg15
I9999
sg16
F0.608
sg17
Nsg18
Nsg19
Nsg20
I0
sg21
F0.13797798096760258
sg22
F0.681
sg23
Nsg24
Nsg25
F-5.799
ssg26
I01
sba(iSong
Song
p717
(dp718
g3
(dp719
g5
F0.189
sg6
VHappens Like That
p720
sg8
F81.045
sg9
F0.807
sg10
S'country'
p721
sg12
F0.0825
sg13
VGranger Smith
p722
sg15
I9999
sg16
F0.557
sg17
Nsg18
Nsg19
Nsg20
I0
sg21
F0.13797798096760258
sg22
F0.578
sg23
Nsg24
Nsg25
F-5.428
ssg26
I01
sba(iSong
Song
p723
(dp724
g3
(dp725
g5
F0.0715
sg6
VLosing Sleep
p726
sg8
F92.003
sg9
F0.621
sg10
S'country'
p727
sg12
F0.0443
sg13
VChris Young
p728
sg15
I9999
sg16
F0.584
sg17
Nsg18
Nsg19
Nsg20
F1.68e-06
sg21
F0.13797798096760258
sg22
F0.634
sg23
Nsg24
Nsg25
F-5.703
ssg26
I01
sba(iSong
Song
p729
(dp730
g3
(dp731
g5
F0.0362
sg6
VHooked
p732
sg8
F132.054
sg9
F0.721
sg10
S'country'
p733
sg12
F0.0356
sg13
VDylan Scott
p734
sg15
I9999
sg16
F0.597
sg17
Nsg18
Nsg19
Nsg20
I0
sg21
F0.13797798096760258
sg22
F0.437
sg23
Nsg24
Nsg25
F-6.422
ssg26
I01
sba(iSong
Song
p735
(dp736
g3
(dp737
g5
F0.265
sg6
VThe Long Way
p738
sg8
F88.865
sg9
F0.637
sg10
S'country'
p739
sg12
F0.0401
sg13
VBrett Eldredge
p740
sg15
I9999
sg16
F0.488
sg17
Nsg18
Nsg19
Nsg20
I0
sg21
F0.13797798096760258
sg22
F0.23
sg23
Nsg24
Nsg25
F-7.63
ssg26
I01
sba(iSong
Song
p741
(dp742
g3
(dp743
g5
F0.0451
sg6
VHell If I Know
p744
sg8
F100.014
sg9
F0.831
sg10
S'country'
p745
sg12
F0.0434
sg13
VChase Bryant
p746
sg15
I9999
sg16
F0.618
sg17
Nsg18
Nsg19
Nsg20
I0
sg21
F0.13797798096760258
sg22
F0.627
sg23
Nsg24
Nsg25
F-5.99
ssg26
I01
sba(iSong
Song
p747
(dp748
g3
(dp749
g5
F0.0163
sg6
VDo It With You
p750
sg8
F99.994
sg9
F0.7
sg10
S'country'
p751
sg12
F0.0243
sg13
VAndrew Hyatt
p752
sg15
I9999
sg16
F0.639
sg17
Nsg18
Nsg19
Nsg20
I0
sg21
F0.13797798096760258
sg22
F0.535
sg23
Nsg24
Nsg25
F-6.566
ssg26
I01
sba(iSong
Song
p753
(dp754
g3
(dp755
g5
F0.171
sg6
VI'll Name the Dogs
p756
sg8
F83.392
sg9
F0.87
sg10
S'country'
p757
sg12
F0.137
sg13
VBlake Shelton
p758
sg15
I9999
sg16
F0.348
sg17
Nsg18
Nsg19
Nsg20
F4.4e-06
sg21
F0.13797798096760258
sg22
F0.763
sg23
Nsg24
Nsg25
F-5.86
ssg26
I01
sba(iSong
Song
p759
(dp760
g3
(dp761
g5
F0.182
sg6
VFemale
p762
sg8
F84.999
sg9
F0.474
sg10
S'country'
p763
sg12
F0.0351
sg13
VKeith Urban
p764
sg15
I9999
sg16
F0.562
sg17
Nsg18
Nsg19
Nsg20
F9.8e-05
sg21
F0.13797798096760258
sg22
F0.345
sg23
Nsg24
Nsg25
F-8.762
ssg26
I01
sba(iSong
Song
p765
(dp766
g3
(dp767
g5
F0.00746
sg6
VMore Girls Like You
p768
sg8
F75.001
sg9
F0.716
sg10
S'country'
p769
sg12
F0.0305
sg13
VKip Moore
p770
sg15
I9999
sg16
F0.551
sg17
Nsg18
Nsg19
Nsg20
I0
sg21
F0.13797798096760258
sg22
F0.739
sg23
Nsg24
Nsg25
F-5.431
ssg26
I01
sba(iSong
Song
p771
(dp772
g3
(dp773
g5
F0.0364
sg6
VOut There
p774
sg8
F153.984
sg9
F0.795
sg10
S'country'
p775
sg12
F0.0339
sg13
VChris Janson
p776
sg15
I9999
sg16
F0.53
sg17
Nsg18
Nsg19
Nsg20
F2.67e-06
sg21
F0.13797798096760258
sg22
F0.516
sg23
Nsg24
Nsg25
F-5.233
ssg26
I01
sba(iSong
Song
p777
(dp778
g3
(dp779
g5
F0.272
sg6
VGet Me Some of That
p780
sg8
F171.987
sg9
F0.753
sg10
S'country'
p781
sg12
F0.0626
sg13
VCole Swindell
p782
sg15
I9999
sg16
F0.585
sg17
Nsg18
Nsg19
Nsg20
I0
sg21
F0.13797798096760258
sg22
F0.892
sg23
Nsg24
Nsg25
F-5.871
ssg26
I01
sba(iSong
Song
p783
(dp784
g3
(dp785
g5
F0.000179
sg6
VHometown Kids
p786
sg8
F107.936
sg9
F0.79
sg10
S'country'
p787
sg12
F0.0339
sg13
VThe Reklaws
p788
sg15
I9999
sg16
F0.58
sg17
Nsg18
Nsg19
Nsg20
I0
sg21
F0.13797798096760258
sg22
F0.795
sg23
Nsg24
Nsg25
F-6.053
ssg26
I01
sba(iSong
Song
p789
(dp790
g3
(dp791
g5
F0.0536
sg6
VWoke up Like This
p792
sg8
F155.944
sg9
F0.776
sg10
S'country'
p793
sg12
F0.0484
sg13
VRiver Town Saints
p794
sg15
I9999
sg16
F0.507
sg17
Nsg18
Nsg19
Nsg20
I0
sg21
F0.13797798096760258
sg22
F0.77
sg23
Nsg24
Nsg25
F-4.363
ssg26
I01
sba(iSong
Song
p795
(dp796
g3
(dp797
g5
F0.00738
sg6
VFor The First Time
p798
sg8
F142.016
sg9
F0.804
sg10
S'country'
p799
sg12
F0.0361
sg13
VDarius Rucker
p800
sg15
I9999
sg16
F0.547
sg17
Nsg18
Nsg19
Nsg20
I0
sg21
F0.13797798096760258
sg22
F0.666
sg23
Nsg24
Nsg25
F-5.268
ssg26
I01
sba(iSong
Song
p801
(dp802
g3
(dp803
g5
F0.0597
sg6
VIt's Working
p804
sg8
F117.996
sg9
F0.898
sg10
S'country'
p805
sg12
F0.0378
sg13
VJames Barker Band
p806
sg15
I9999
sg16
F0.679
sg17
Nsg18
Nsg19
Nsg20
F1.39e-06
sg21
F0.13797798096760258
sg22
F0.685
sg23
Nsg24
Nsg25
F-5.058
ssg26
I01
sba(iSong
Song
p807
(dp808
g3
(dp809
g5
F0.00102
sg6
VMess This Up
p810
sg8
F147.988
sg9
F0.562
sg10
S'country'
p811
sg12
F0.0295
sg13
VRyan Robinette
p812
sg15
I9999
sg16
F0.489
sg17
Nsg18
Nsg19
Nsg20
I0
sg21
F0.13797798096760258
sg22
F0.354
sg23
Nsg24
Nsg25
F-5.02
ssg26
I01
sba(iSong
Song
p813
(dp814
g3
(dp815
g5
F0.593
sg6
VWritten in the Sand
p816
sg8
F83.985
sg9
F0.437
sg10
S'country'
p817
sg12
F0.0575
sg13
VOld Dominion
p818
sg15
I9999
sg16
F0.725
sg17
Nsg18
Nsg19
Nsg20
I0
sg21
F0.13797798096760258
sg22
F0.759
sg23
Nsg24
Nsg25
F-9.602
ssg26
I01
sba(iSong
Song
p819
(dp820
g3
(dp821
g5
F0.0235
sg6
VBorn To Love
p822
sg8
F161.612
sg9
F0.94
sg10
S'country'
p823
sg12
F0.208
sg13
VJason Blaine
p824
sg15
I9999
sg16
F0.285
sg17
Nsg18
Nsg19
Nsg20
I0
sg21
F0.13797798096760258
sg22
F0.173
sg23
Nsg24
Nsg25
F-4.548
ssg26
I01
sba(iSong
Song
p825
(dp826
g3
(dp827
g5
F0.0913
sg6
VUp Down (Feat. Florida Georgia Line)
p828
sg8
F129.928
sg9
F0.881
sg10
S'country'
p829
sg12
F0.0349
sg13
VMorgan Wallen
p830
sg15
I9999
sg16
F0.59
sg17
Nsg18
Nsg19
Nsg20
I0
sg21
F0.13797798096760258
sg22
F0.734
sg23
Nsg24
Nsg25
F-2.898
ssg26
I01
sba(iSong
Song
p831
(dp832
g3
(dp833
g5
F0.211
sg6
VMore
p834
sg8
F120.027
sg9
F0.883
sg10
S'country'
p835
sg12
F0.0551
sg13
VHunter Hayes
p836
sg15
I9999
sg16
F0.56
sg17
Nsg18
Nsg19
Nsg20
I0
sg21
F0.13797798096760258
sg22
F0.575
sg23
Nsg24
Nsg25
F-4.938
ssg26
I01
sba(iSong
Song
p837
(dp838
g3
(dp839
g5
F0.0864
sg6
VBorn And Raised
p840
sg8
F114.993
sg9
F0.906
sg10
S'country'
p841
sg12
F0.0748
sg13
VHunter Brothers
p842
sg15
I9999
sg16
F0.525
sg17
Nsg18
Nsg19
Nsg20
I0
sg21
F0.13797798096760258
sg22
F0.471
sg23
Nsg24
Nsg25
F-3.191
ssg26
I01
sba(iSong
Song
p843
(dp844
g3
(dp845
g5
F0.44
sg6
VEvery Little Thing
p846
sg8
F139.775
sg9
F0.444
sg10
S'country'
p847
sg12
F0.0417
sg13
VCarly Pearce
p848
sg15
I9999
sg16
F0.637
sg17
Nsg18
Nsg19
Nsg20
F5.46e-06
sg21
F0.13797798096760258
sg22
F0.319
sg23
Nsg24
Nsg25
F-6.355
ssg26
I01
sba(iSong
Song
p849
(dp850
g3
(dp851
g5
F0.0196
sg6
VYours - intl mix
p852
sg8
F133.973
sg9
F0.788
sg10
S'country'
p853
sg12
F0.032
sg13
VRussell Dickerson
p854
sg15
I9999
sg16
F0.538
sg17
Nsg18
Nsg19
Nsg20
I0
sg21
F0.13797798096760258
sg22
F0.457
sg23
Nsg24
Nsg25
F-5.248
ssg26
I01
sba(iSong
Song
p855
(dp856
g3
(dp857
g5
F0.0318
sg6
VGet over Yourself
p858
sg8
F84.036
sg9
F0.785
sg10
S'country'
p859
sg12
F0.0938
sg13
VKelsea Ballerini
p860
sg15
I9999
sg16
F0.497
sg17
Nsg18
Nsg19
Nsg20
I0
sg21
F0.13797798096760258
sg22
F0.486
sg23
Nsg24
Nsg25
F-7.916
ssg26
I01
sba(iSong
Song
p861
(dp862
g3
(dp863
g5
F0.232
sg6
VNights in the Sun (feat. Grandpa Bear)
p864
sg8
F76.987
sg9
F0.762
sg10
S'country'
p865
sg12
F0.0484
sg13
VBrett Kissel
p866
sg15
I9999
sg16
F0.226
sg17
Nsg18
Nsg19
Nsg20
I0
sg21
F0.13797798096760258
sg22
F0.314
sg23
Nsg24
Nsg25
F-5.07
ssg26
I01
sba(iSong
Song
p867
(dp868
g3
(dp869
g5
F0.0956
sg6
VHooked On It
p870
sg8
F163.983
sg9
F0.958
sg10
S'country'
p871
sg12
F0.0858
sg13
VLuke Bryan
p872
sg15
I9999
sg16
F0.51
sg17
Nsg18
Nsg19
Nsg20
I0
sg21
F0.13797798096760258
sg22
F0.671
sg23
Nsg24
Nsg25
F-1.457
ssg26
I01
sba(iSong
Song
p873
(dp874
g3
(dp875
g5
F0.327
sg6
VWorth It
p876
sg8
F114.868
sg9
F0.494
sg10
S'country'
p877
sg12
F0.0322
sg13
VDanielle Bradbery
p878
sg15
I9999
sg16
F0.538
sg17
Nsg18
Nsg19
Nsg20
I0
sg21
F0.13797798096760258
sg22
F0.329
sg23
Nsg24
Nsg25
F-4.611
ssg26
I01
sba(iSong
Song
p879
(dp880
g3
(dp881
g5
F0.0275
sg6
VThree Chords & The Truth
p882
sg8
F166.074
sg9
F0.889
sg10
S'country'
p883
sg12
F0.0462
sg13
VChase Rice
p884
sg15
I9999
sg16
F0.44
sg17
Nsg18
Nsg19
Nsg20
I0
sg21
F0.13797798096760258
sg22
F0.409
sg23
Nsg24
Nsg25
F-4.723
ssg26
I01
sba(iSong
Song
p885
(dp886
g3
(dp887
g5
F0.00602
sg6
V18 Ends
p888
sg8
F108.993
sg9
F0.897
sg10
S'country'
p889
sg12
F0.0265
sg13
VPetric
p890
sg15
I9999
sg16
F0.597
sg17
Nsg18
Nsg19
Nsg20
F1.05e-05
sg21
F0.13797798096760258
sg22
F0.655
sg23
Nsg24
Nsg25
F-5.013
ssg26
I01
sba(iSong
Song
p891
(dp892
g3
(dp893
g5
F0.101
sg6
VThis Town Is You
p894
sg8
F165.938
sg9
F0.874
sg10
S'country'
p895
sg12
F0.0365
sg13
VCold Creek County
p896
sg15
I9999
sg16
F0.447
sg17
Nsg18
Nsg19
Nsg20
I0
sg21
F0.13797798096760258
sg22
F0.63
sg23
Nsg24
Nsg25
F-3.757
ssg26
I01
sba(iSong
Song
p897
(dp898
g3
(dp899
g5
F0.237
sg6
VCountry Music Made Me Do It
p900
sg8
F156.052
sg9
F0.797
sg10
S'country'
p901
sg12
F0.0421
sg13
VMeghan Patrick
p902
sg15
I9999
sg16
F0.47
sg17
Nsg18
Nsg19
Nsg20
I0
sg21
F0.13797798096760258
sg22
F0.433
sg23
Nsg24
Nsg25
F-4.342
ssg26
I01
sba(iSong
Song
p903
(dp904
g3
(dp905
g5
F0.0299
sg6
VDrive Me Away
p906
sg8
F102.144
sg9
F0.845
sg10
S'country'
p907
sg12
F0.102
sg13
VJess Moskaluke
p908
sg15
I9999
sg16
F0.579
sg17
Nsg18
Nsg19
Nsg20
I0
sg21
F0.13797798096760258
sg22
F0.578
sg23
Nsg24
Nsg25
F-4.305
ssg26
I01
sba(iSong
Song
p909
(dp910
g3
(dp911
g5
F0.182
sg6
VThought It Was Gonna Be Me
p912
sg8
F160.046
sg9
F0.797
sg10
S'country'
p913
sg12
F0.0622
sg13
VCatherine McGrath
p914
sg15
I9999
sg16
F0.416
sg17
Nsg18
Nsg19
Nsg20
I0
sg21
F0.13797798096760258
sg22
F0.599
sg23
Nsg24
Nsg25
F-3.874
ssg26
I01
sba(iSong
Song
p915
(dp916
g3
(dp917
g5
F0.379
sg6
VSubliminal Love
p918
sg8
F100.012
sg9
F0.608
sg10
S'country'
p919
sg12
F0.0298
sg13
VJake Owen
p920
sg15
I9999
sg16
F0.645
sg17
Nsg18
Nsg19
Nsg20
I0
sg21
F0.13797798096760258
sg22
F0.638
sg23
Nsg24
Nsg25
F-6.038
ssg26
I01
sba(iSong
Song
p921
(dp922
g3
(dp923
g5
F0.00172
sg6
VAnything Goes
p924
sg8
F154.038
sg9
F0.977
sg10
S'country'
p925
sg12
F0.045
sg13
VFlorida Georgia Line
p926
sg15
I9999
sg16
F0.462
sg17
Nsg18
Nsg19
Nsg20
I0
sg21
F0.13797798096760258
sg22
F0.746
sg23
Nsg24
Nsg25
F-3.805
ssg26
I01
sba(iSong
Song
p927
(dp928
g3
(dp929
g5
F0.129
sg6
VStar Of The Show
p930
sg8
F101.958
sg9
F0.626
sg10
S'country'
p931
sg12
F0.0275
sg13
VThomas Rhett
p932
sg15
I9999
sg16
F0.69
sg17
Nsg18
Nsg19
Nsg20
I0
sg21
F0.13797798096760258
sg22
F0.638
sg23
Nsg24
Nsg25
F-5.831
ssg26
I01
sba(iSong
Song
p933
(dp934
g3
(dp935
g5
F0.0537
sg6
VThe Weekend
p936
sg8
F82.002
sg9
F0.842
sg10
S'country'
p937
sg12
F0.0448
sg13
VBrantley Gilbert
p938
sg15
I9999
sg16
F0.524
sg17
Nsg18
Nsg19
Nsg20
I0
sg21
F0.13797798096760258
sg22
F0.709
sg23
Nsg24
Nsg25
F-4.79
ssg26
I01
sba(iSong
Song
p939
(dp940
g3
(dp941
g5
F0.0165
sg6
VHurricane
p942
sg8
F151.928
sg9
F0.804
sg10
S'country'
p943
sg12
F0.0406
sg13
VLuke Combs
p944
sg15
I9999
sg16
F0.443
sg17
Nsg18
Nsg19
Nsg20
F2.89e-06
sg21
F0.13797798096760258
sg22
F0.438
sg23
Nsg24
Nsg25
F-6.432
ssg26
I01
sba(iSong
Song
p945
(dp946
g3
(dp947
g5
F0.0919
sg6
VHead Over Boots
p948
sg8
F108.078
sg9
F0.669
sg10
S'country'
p949
sg12
F0.0237
sg13
VJon Pardi
p950
sg15
I9999
sg16
F0.637
sg17
Nsg18
Nsg19
Nsg20
I0
sg21
F0.13797798096760258
sg22
F0.638
sg23
Nsg24
Nsg25
F-4.608
ssg26
I01
sba(iSong
Song
p951
(dp952
g3
(dp953
g5
F0.0244
sg6
VSmall Town Boy
p954
sg8
F73.033
sg9
F0.747
sg10
S'country'
p955
sg12
F0.0292
sg13
VDustin Lynch
p956
sg15
I9999
sg16
F0.553
sg17
Nsg18
Nsg19
Nsg20
I0
sg21
F0.13797798096760258
sg22
F0.711
sg23
Nsg24
Nsg25
F-5.905
ssg26
I01
sba(iSong
Song
p957
(dp958
g3
(dp959
g5
F0.1
sg6
VSpringsteen
p960
sg8
F104.023
sg9
F0.809
sg10
S'country'
p961
sg12
F0.0255
sg13
VEric Church
p962
sg15
I9999
sg16
F0.692
sg17
Nsg18
Nsg19
Nsg20
F9.77e-05
sg21
F0.13797798096760258
sg22
F0.927
sg23
Nsg24
Nsg25
F-5.935
ssg26
I01
sba(iSong
Song
p963
(dp964
g3
(dp965
g5
F0.208
sg6
VBarefoot Blue Jean Night
p966
sg8
F172.016
sg9
F0.808
sg10
S'country'
p967
sg12
F0.0403
sg13
VJake Owen
p968
sg15
I9999
sg16
F0.6
sg17
Nsg18
Nsg19
Nsg20
I0
sg21
F0.13797798096760258
sg22
F0.809
sg23
Nsg24
Nsg25
F-4.679
ssg26
I01
sba(iSong
Song
p969
(dp970
g3
(dp971
g5
F0.111
sg6
VIt Goes Like This
p972
sg8
F167.957
sg9
F0.836
sg10
S'country'
p973
sg12
F0.0627
sg13
VThomas Rhett
p974
sg15
I9999
sg16
F0.54
sg17
Nsg18
Nsg19
Nsg20
I0
sg21
F0.13797798096760258
sg22
F0.55
sg23
Nsg24
Nsg25
F-5.914
ssg26
I01
sba(iSong
Song
p975
(dp976
g3
(dp977
g5
F0.0617
sg6
VHeartache On The Dance Floor
p978
sg8
F116.005
sg9
F0.824
sg10
S'country'
p979
sg12
F0.0458
sg13
VJon Pardi
p980
sg15
I9999
sg16
F0.594
sg17
Nsg18
Nsg19
Nsg20
I0
sg21
F0.13797798096760258
sg22
F0.671
sg23
Nsg24
Nsg25
F-4.252
ssg26
I01
sba(iSong
Song
p981
(dp982
g3
(dp983
g5
F0.0142
sg6
VWhere It's At
p984
sg8
F158.05
sg9
F0.737
sg10
S'country'
p985
sg12
F0.0476
sg13
VDustin Lynch
p986
sg15
I9999
sg16
F0.557
sg17
Nsg18
Nsg19
Nsg20
I0
sg21
F0.13797798096760258
sg22
F0.817
sg23
Nsg24
Nsg25
F-5.75
ssg26
I01
sba(iSong
Song
p987
(dp988
g3
(dp989
g5
F0.399
sg6
VI Don't Dance
p990
sg8
F92.036
sg9
F0.559
sg10
S'country'
p991
sg12
F0.0321
sg13
VLee Brice
p992
sg15
I9999
sg16
F0.587
sg17
Nsg18
Nsg19
Nsg20
F6.69e-06
sg21
F0.13797798096760258
sg22
F0.19
sg23
Nsg24
Nsg25
F-7.742
ssg26
I01
sba(iSong
Song
p993
(dp994
g3
(dp995
g5
F0.143
sg6
VBottoms Up
p996
sg8
F170.047
sg9
F0.87
sg10
S'country'
p997
sg12
F0.0442
sg13
VBrantley Gilbert
p998
sg15
I9999
sg16
F0.479
sg17
Nsg18
Nsg19
Nsg20
I0
sg21
F0.13797798096760258
sg22
F0.537
sg23
Nsg24
Nsg25
F-5.739
ssg26
I01
sba(iSong
Song
p999
(dp1000
g3
(dp1001
g5
F0.46
sg6
VNowhere Fast
p1002
sg8
F101.974
sg9
F0.488
sg10
S'country'
p1003
sg12
F0.0286
sg13
VOld Dominion
p1004
sg15
I9999
sg16
F0.788
sg17
Nsg18
Nsg19
Nsg20
F4.52e-06
sg21
F0.13797798096760258
sg22
F0.48
sg23
Nsg24
Nsg25
F-7.319
ssg26
I01
sba(iSong
Song
p1005
(dp1006
g3
(dp1007
g5
F0.275
sg6
VI Like The Sound Of That
p1008
sg8
F89.964
sg9
F0.813
sg10
S'country'
p1009
sg12
F0.0368
sg13
VRascal Flatts
p1010
sg15
I9999
sg16
F0.609
sg17
Nsg18
Nsg19
Nsg20
I0
sg21
F0.13797798096760258
sg22
F0.54
sg23
Nsg24
Nsg25
F-5.599
ssg26
I01
sba(iSong
Song
p1011
(dp1012
g3
(dp1013
g5
F0.381
sg6
VDie A Happy Man
p1014
sg8
F83.096
sg9
F0.383
sg10
S'country'
p1015
sg12
F0.0304
sg13
VThomas Rhett
p1016
sg15
I9999
sg16
F0.66
sg17
Nsg18
Nsg19
Nsg20
I0
sg21
F0.13797798096760258
sg22
F0.381
sg23
Nsg24
Nsg25
F-9.377
ssg26
I01
sba(iSong
Song
p1017
(dp1018
g3
(dp1019
g5
F0.456
sg6
VWagon Wheel
p1020
sg8
F148.102
sg9
F0.663
sg10
S'country'
p1021
sg12
F0.0306
sg13
VDarius Rucker
p1022
sg15
I9999
sg16
F0.529
sg17
Nsg18
Nsg19
Nsg20
I0
sg21
F0.13797798096760258
sg22
F0.592
sg23
Nsg24
Nsg25
F-7.138
ssg26
I01
sba(iSong
Song
p1023
(dp1024
g3
(dp1025
g5
F0.368
sg6
VTake Back Home Girl (Feat. Tori Kelly)
p1026
sg8
F159.708
sg9
F0.78
sg10
S'country'
p1027
sg12
F0.064
sg13
VChris Lane
p1028
sg15
I9999
sg16
F0.494
sg17
Nsg18
Nsg19
Nsg20
I0
sg21
F0.13797798096760258
sg22
F0.664
sg23
Nsg24
Nsg25
F-3.825
ssg26
I01
sba(iSong
Song
p1029
(dp1030
g3
(dp1031
g5
F0.201
sg6
VWhatever She's Got
p1032
sg8
F160.458
sg9
F0.717
sg10
S'country'
p1033
sg12
F0.0421
sg13
VDavid Nail
p1034
sg15
I9999
sg16
F0.53
sg17
Nsg18
Nsg19
Nsg20
I0
sg21
F0.13797798096760258
sg22
F0.906
sg23
Nsg24
Nsg25
F-6.073
ssg26
I01
sba(iSong
Song
p1035
(dp1036
g3
(dp1037
g5
F0.000159
sg6
VEven If It Breaks Your Heart
p1038
sg8
F104.032
sg9
F0.527
sg10
S'country'
p1039
sg12
F0.0277
sg13
VEli Young Band
p1040
sg15
I9999
sg16
F0.667
sg17
Nsg18
Nsg19
Nsg20
F0.0117
sg21
F0.13797798096760258
sg22
F0.664
sg23
Nsg24
Nsg25
F-4.6
ssg26
I01
sba(iSong
Song
p1041
(dp1042
g3
(dp1043
g5
F0.0209
sg6
VBlue Tacoma
p1044
sg8
F160.125
sg9
F0.894
sg10
S'country'
p1045
sg12
F0.0398
sg13
VRussell Dickerson
p1046
sg15
I9999
sg16
F0.458
sg17
Nsg18
Nsg19
Nsg20
I0
sg21
F0.13797798096760258
sg22
F0.717
sg23
Nsg24
Nsg25
F-4.903
ssg26
I01
sba(iSong
Song
p1047
(dp1048
g3
(dp1049
g5
F0.0458
sg6
VHow Country Feels
p1050
sg8
F104.944
sg9
F0.847
sg10
S'country'
p1051
sg12
F0.0396
sg13
VRandy Houser
p1052
sg15
I9999
sg16
F0.677
sg17
Nsg18
Nsg19
Nsg20
I0
sg21
F0.13797798096760258
sg22
F0.806
sg23
Nsg24
Nsg25
F-3.608
ssg26
I01
sba(iSong
Song
p1053
(dp1054
g3
(dp1055
g5
F0.0352
sg6
VBackroad Song
p1056
sg8
F174.006
sg9
F0.833
sg10
S'country'
p1057
sg12
F0.0437
sg13
VGranger Smith
p1058
sg15
I9999
sg16
F0.488
sg17
Nsg18
Nsg19
Nsg20
F0.0172
sg21
F0.13797798096760258
sg22
F0.751
sg23
Nsg24
Nsg25
F-6.571
ssg26
I01
sba(iSong
Song
p1059
(dp1060
g3
(dp1061
g5
F0.129
sg6
VHouse Party
p1062
sg8
F103.952
sg9
F0.854
sg10
S'country'
p1063
sg12
F0.0503
sg13
VSam Hunt
p1064
sg15
I9999
sg16
F0.749
sg17
Nsg18
Nsg19
Nsg20
I0
sg21
F0.13797798096760258
sg22
F0.842
sg23
Nsg24
Nsg25
F-5.245
ssg26
I01
sba(iSong
Song
p1065
(dp1066
g3
(dp1067
g5
F0.00898
sg6
VWhat Ifs
p1068
sg8
F125.976
sg9
F0.799
sg10
S'country'
p1069
sg12
F0.0275
sg13
VKane Brown
p1070
sg15
I9999
sg16
F0.612
sg17
Nsg18
Nsg19
Nsg20
I0
sg21
F0.13797798096760258
sg22
F0.687
sg23
Nsg24
Nsg25
F-4.603
ssg26
I01
sba(iSong
Song
p1071
(dp1072
g3
(dp1073
g5
F0.0538
sg6
VTalladega
p1074
sg8
I144
sg9
F0.672
sg10
S'country'
p1075
sg12
F0.0294
sg13
VEric Church
p1076
sg15
I9999
sg16
F0.584
sg17
Nsg18
Nsg19
Nsg20
F0.0481
sg21
F0.13797798096760258
sg22
F0.556
sg23
Nsg24
Nsg25
F-8.309
ssg26
I01
sba(iSong
Song
p1077
(dp1078
g3
(dp1079
g5
F0.032
sg6
VUnforgettable
p1080
sg8
F130.02
sg9
F0.738
sg10
S'country'
p1081
sg12
F0.0303
sg13
VThomas Rhett
p1082
sg15
I9999
sg16
F0.663
sg17
Nsg18
Nsg19
Nsg20
F0.000225
sg21
F0.13797798096760258
sg22
F0.825
sg23
Nsg24
Nsg25
F-5.48
ssg26
I01
sba(iSong
Song
p1083
(dp1084
g3
(dp1085
g5
F0.0406
sg6
VMay We All
p1086
sg8
F75.019
sg9
F0.915
sg10
S'country'
p1087
sg12
F0.0389
sg13
VFlorida Georgia Line
p1088
sg15
I9999
sg16
F0.488
sg17
Nsg18
Nsg19
Nsg20
I0
sg21
F0.13797798096760258
sg22
F0.646
sg23
Nsg24
Nsg25
F-4.255
ssg26
I01
sba(iSong
Song
p1089
(dp1090
g3
(dp1091
g5
F0.00647
sg6
VYeah
p1092
sg8
F165.713
sg9
F0.843
sg10
S'country'
p1093
sg12
F0.0531
sg13
VJoe Nichols
p1094
sg15
I9999
sg16
F0.414
sg17
Nsg18
Nsg19
Nsg20
F1.52e-05
sg21
F0.13797798096760258
sg22
F0.572
sg23
Nsg24
Nsg25
F-4.638
ssg26
I01
sba(iSong
Song
p1095
(dp1096
g3
(dp1097
g5
F0.0127
sg6
VLove You Like That
p1098
sg8
F145.129
sg9
F0.756
sg10
S'country'
p1099
sg12
F0.0287
sg13
VCanaan Smith
p1100
sg15
I9999
sg16
F0.561
sg17
Nsg18
Nsg19
Nsg20
F8.34e-05
sg21
F0.13797798096760258
sg22
F0.702
sg23
Nsg24
Nsg25
F-5.056
ssg26
I01
sba(iSong
Song
p1101
(dp1102
g3
(dp1103
g5
F0.0886
sg6
VDrinking Class
p1104
sg8
F109.003
sg9
F0.53
sg10
S'country'
p1105
sg12
F0.0301
sg13
VLee Brice
p1106
sg15
I9999
sg16
F0.663
sg17
Nsg18
Nsg19
Nsg20
I0
sg21
F0.13797798096760258
sg22
F0.269
sg23
Nsg24
Nsg25
F-9.763
ssg26
I01
sba(iSong
Song
p1107
(dp1108
g3
(dp1109
g5
F0.0627
sg6
VGet Me Some Of That
p1110
sg8
F87.988
sg9
F0.86
sg10
S'country'
p1111
sg12
F0.0487
sg13
VThomas Rhett
p1112
sg15
I9999
sg16
F0.544
sg17
Nsg18
Nsg19
Nsg20
I0
sg21
F0.13797798096760258
sg22
F0.796
sg23
Nsg24
Nsg25
F-5.283
ssg26
I01
sba(iSong
Song
p1113
(dp1114
g3
(dp1115
g5
F0.0718
sg6
VBreak Up with Him
p1116
sg8
F152.086
sg9
F0.65
sg10
S'country'
p1117
sg12
F0.0347
sg13
VOld Dominion
p1118
sg15
I9999
sg16
F0.615
sg17
Nsg18
Nsg19
Nsg20
I0
sg21
F0.13797798096760258
sg22
F0.548
sg23
Nsg24
Nsg25
F-4.944
ssg26
I01
sba(iSong
Song
p1119
(dp1120
g3
(dp1121
g5
F0.0208
sg6
VThis Is How We Roll
p1122
sg8
F132.083
sg9
F0.933
sg10
S'country'
p1123
sg12
F0.0384
sg13
VFlorida Georgia Line
p1124
sg15
I9999
sg16
F0.56
sg17
Nsg18
Nsg19
Nsg20
I0
sg21
F0.13797798096760258
sg22
F0.72
sg23
Nsg24
Nsg25
F-2.969
ssg26
I01
sba(iSong
Song
p1125
(dp1126
g3
(dp1127
g5
F0.127
sg6
VSomebody Like You
p1128
sg8
F110.964
sg9
F0.887
sg10
S'country'
p1129
sg12
F0.0381
sg13
VKeith Urban
p1130
sg15
I9999
sg16
F0.646
sg17
Nsg18
Nsg19
Nsg20
F0.000259
sg21
F0.13797798096760258
sg22
F0.523
sg23
Nsg24
Nsg25
F-4.452
ssg26
I01
sba(iSong
Song
p1131
(dp1132
g3
(dp1133
g5
F0.432
sg6
VKnee Deep (feat. Jimmy Buffett)
p1134
sg8
F90.987
sg9
F0.584
sg10
S'country'
p1135
sg12
F0.0296
sg13
VZac Brown Band
p1136
sg15
I9999
sg16
F0.715
sg17
Nsg18
Nsg19
Nsg20
F1.41e-06
sg21
F0.13797798096760258
sg22
F0.61
sg23
Nsg24
Nsg25
F-8.231
ssg26
I01
sba(iSong
Song
p1137
(dp1138
g3
(dp1139
g5
F0.254
sg6
VLet Me See Ya Girl
p1140
sg8
F92.99
sg9
F0.834
sg10
S'country'
p1141
sg12
F0.0281
sg13
VCole Swindell
p1142
sg15
I9999
sg16
F0.523
sg17
Nsg18
Nsg19
Nsg20
I0
sg21
F0.13797798096760258
sg22
F0.445
sg23
Nsg24
Nsg25
F-3.561
ssg26
I01
sba(iSong
Song
p1143
(dp1144
g3
(dp1145
g5
F0.0371
sg6
VRunnin' Outta Moonlight
p1146
sg8
F172.05
sg9
F0.801
sg10
S'country'
p1147
sg12
F0.0393
sg13
VRandy Houser
p1148
sg15
I9999
sg16
F0.532
sg17
Nsg18
Nsg19
Nsg20
F7.07e-06
sg21
F0.13797798096760258
sg22
F0.799
sg23
Nsg24
Nsg25
F-3.759
ssg26
I01
sba(iSong
Song
p1149
(dp1150
g3
(dp1151
g5
F0.361
sg6
VH.O.L.Y.
p1152
sg8
F78.132
sg9
F0.661
sg10
S'country'
p1153
sg12
F0.0333
sg13
VFlorida Georgia Line
p1154
sg15
I9999
sg16
F0.526
sg17
Nsg18
Nsg19
Nsg20
I0
sg21
F0.13797798096760258
sg22
F0.556
sg23
Nsg24
Nsg25
F-3.828
ssg26
I01
sba(iSong
Song
p1155
(dp1156
g3
(dp1157
g5
F0.168
sg6
VMake You Miss Me
p1158
sg8
F146.026
sg9
F0.468
sg10
S'country'
p1159
sg12
F0.0314
sg13
VSam Hunt
p1160
sg15
I9999
sg16
F0.612
sg17
Nsg18
Nsg19
Nsg20
I0
sg21
F0.13797798096760258
sg22
F0.165
sg23
Nsg24
Nsg25
F-6.597
ssg26
I01
sba(iSong
Song
p1161
(dp1162
g3
(dp1163
g5
F0.0189
sg6
VHomegrown
p1164
sg8
F105.017
sg9
F0.796
sg10
S'country'
p1165
sg12
F0.0303
sg13
VZac Brown Band
p1166
sg15
I9999
sg16
F0.717
sg17
Nsg18
Nsg19
Nsg20
F8.94e-05
sg21
F0.13797798096760258
sg22
F0.942
sg23
Nsg24
Nsg25
F-3.677
ssg26
I01
sba(iSong
Song
p1167
(dp1168
g3
(dp1169
g5
F0.161
sg6
VThis Night Back
p1170
sg8
F160.167
sg9
F0.863
sg10
S'country'
p1171
sg12
F0.04
sg13
VCanaan Smith
p1172
sg15
I9999
sg16
F0.587
sg17
Nsg18
Nsg19
Nsg20
I0
sg21
F0.13797798096760258
sg22
F0.537
sg23
Nsg24
Nsg25
F-4.803
ssg26
I01
sba(iSong
Song
p1173
(dp1174
g3
(dp1175
g5
F0.247
sg6
VNight's On Fire
p1176
sg8
F164.029
sg9
F0.779
sg10
S'country'
p1177
sg12
F0.0432
sg13
VDavid Nail
p1178
sg15
I9999
sg16
F0.539
sg17
Nsg18
Nsg19
Nsg20
F2.71e-06
sg21
F0.13797798096760258
sg22
F0.705
sg23
Nsg24
Nsg25
F-4.139
ssg26
I01
sba(iSong
Song
p1179
(dp1180
g3
(dp1181
g5
F0.0408
sg6
VStay A Little Longer
p1182
sg8
F97.006
sg9
F0.882
sg10
S'country'
p1183
sg12
F0.0294
sg13
VBrothers Osborne
p1184
sg15
I9999
sg16
F0.553
sg17
Nsg18
Nsg19
Nsg20
F0.241
sg21
F0.13797798096760258
sg22
F0.529
sg23
Nsg24
Nsg25
F-5.515
ssg26
I01
sba(iSong
Song
p1185
(dp1186
g3
(dp1187
g5
F0.000907
sg6
VCraving You
p1188
sg8
F104.986
sg9
F0.841
sg10
S'country'
p1189
sg12
F0.0353
sg13
VThomas Rhett
p1190
sg15
I9999
sg16
F0.612
sg17
Nsg18
Nsg19
Nsg20
I0
sg21
F0.13797798096760258
sg22
F0.499
sg23
Nsg24
Nsg25
F-3.795
ssg26
I01
sba(iSong
Song
p1191
(dp1192
g3
(dp1193
g5
F0.0484
sg6
VDon't It
p1194
sg8
F90.966
sg9
F0.824
sg10
S'country'
p1195
sg12
F0.0373
sg13
VBilly Currington
p1196
sg15
I9999
sg16
F0.573
sg17
Nsg18
Nsg19
Nsg20
I0
sg21
F0.13797798096760258
sg22
F0.668
sg23
Nsg24
Nsg25
F-4.443
ssg26
I01
sba(iSong
Song
p1197
(dp1198
g3
(dp1199
g5
F0.463
sg6
VBody Like A Back Road
p1200
sg8
F98.963
sg9
F0.469
sg10
S'country'
p1201
sg12
F0.0326
sg13
VSam Hunt
p1202
sg15
I9999
sg16
F0.731
sg17
Nsg18
Nsg19
Nsg20
F1.04e-06
sg21
F0.13797798096760258
sg22
F0.631
sg23
Nsg24
Nsg25
F-7.226
ssg26
I01
sba(iSong
Song
p1203
(dp1204
g3
(dp1205
g5
F0.0697
sg6
VSomethin' 'Bout A Truck
p1206
sg8
F176.01
sg9
F0.794
sg10
S'country'
p1207
sg12
F0.035
sg13
VKip Moore
p1208
sg15
I9999
sg16
F0.554
sg17
Nsg18
Nsg19
Nsg20
I0
sg21
F0.13797798096760258
sg22
F0.79
sg23
Nsg24
Nsg25
F-5.417
ssg26
I01
sba(iSong
Song
p1209
(dp1210
g3
(dp1211
g5
F0.183
sg6
VTake A Back Road
p1212
sg8
F169.902
sg9
F0.856
sg10
S'country'
p1213
sg12
F0.0783
sg13
VRodney Atkins
p1214
sg15
I9999
sg16
F0.581
sg17
Nsg18
Nsg19
Nsg20
I0
sg21
F0.13797798096760258
sg22
F0.918
sg23
Nsg24
Nsg25
I-4
ssg26
I01
sba(iSong
Song
p1215
(dp1216
g3
(dp1217
g5
F0.0318
sg6
VT-Shirt
p1218
sg8
F95.996
sg9
F0.857
sg10
S'country'
p1219
sg12
F0.0397
sg13
VThomas Rhett
p1220
sg15
I9999
sg16
F0.647
sg17
Nsg18
Nsg19
Nsg20
I0
sg21
F0.13797798096760258
sg22
F0.771
sg23
Nsg24
Nsg25
F-5.381
ssg26
I01
sba(iSong
Song
p1221
(dp1222
g3
(dp1223
g5
F0.645
sg6
VChicken Fried
p1224
sg8
F169.864
sg9
F0.713
sg10
S'country'
p1225
sg12
F0.0417
sg13
VZac Brown Band
p1226
sg15
I9999
sg16
F0.566
sg17
Nsg18
Nsg19
Nsg20
I0
sg21
F0.13797798096760258
sg22
F0.807
sg23
Nsg24
Nsg25
F-4.25
ssg26
I01
sba(iSong
Song
p1227
(dp1228
g3
(dp1229
g5
F0.0996
sg6
VLeave The Night On
p1230
sg8
F171.971
sg9
F0.953
sg10
S'country'
p1231
sg12
F0.0624
sg13
VSam Hunt
p1232
sg15
I9999
sg16
F0.516
sg17
Nsg18
Nsg19
Nsg20
I0
sg21
F0.13797798096760258
sg22
F0.852
sg23
Nsg24
Nsg25
F-3.828
ssg26
I01
sba(iSong
Song
p1233
(dp1234
g3
(dp1235
g5
F0.0164
sg6
VI Love This Life
p1236
sg8
F112.03
sg9
F0.917
sg10
S'country'
p1237
sg12
F0.0541
sg13
VLOCASH
p1238
sg15
I9999
sg16
F0.592
sg17
Nsg18
Nsg19
Nsg20
F1.23e-06
sg21
F0.13797798096760258
sg22
F0.572
sg23
Nsg24
Nsg25
F-3.057
ssg26
I01
sba(iSong
Song
p1239
(dp1240
g3
(dp1241
g5
F0.013
sg6
VSleep Without You
p1242
sg8
F88.541
sg9
F0.716
sg10
S'country'
p1243
sg12
F0.0432
sg13
VBrett Young
p1244
sg15
I9999
sg16
F0.631
sg17
Nsg18
Nsg19
Nsg20
I0
sg21
F0.13797798096760258
sg22
F0.647
sg23
Nsg24
Nsg25
F-5.713
ssg26
I01
sba(iSong
Song
p1245
(dp1246
g3
(dp1247
g5
F0.119
sg6
VStar Of The Show
p1248
sg8
F102.001
sg9
F0.629
sg10
S'country'
p1249
sg12
F0.0275
sg13
VThomas Rhett
p1250
sg15
I9999
sg16
F0.691
sg17
Nsg18
Nsg19
Nsg20
I0
sg21
F0.13797798096760258
sg22
F0.606
sg23
Nsg24
Nsg25
F-5.828
ssg26
I01
sba(iSong
Song
p1251
(dp1252
g3
(dp1253
g5
F0.593
sg6
VWritten in the Sand
p1254
sg8
F83.985
sg9
F0.437
sg10
S'country'
p1255
sg12
F0.0575
sg13
VOld Dominion
p1256
sg15
I9999
sg16
F0.725
sg17
Nsg18
Nsg19
Nsg20
I0
sg21
F0.13797798096760258
sg22
F0.759
sg23
Nsg24
Nsg25
F-9.602
ssg26
I01
sba(iSong
Song
p1257
(dp1258
g3
(dp1259
g5
F0.168
sg6
VMake You Miss Me
p1260
sg8
F146.026
sg9
F0.468
sg10
S'country'
p1261
sg12
F0.0314
sg13
VSam Hunt
p1262
sg15
I9999
sg16
F0.612
sg17
Nsg18
Nsg19
Nsg20
I0
sg21
F0.13797798096760258
sg22
F0.165
sg23
Nsg24
Nsg25
F-6.597
ssg26
I01
sba(iSong
Song
p1263
(dp1264
g3
(dp1265
g5
F0.0282
sg6
VI'm Comin' Over
p1266
sg8
F127.997
sg9
F0.845
sg10
S'country'
p1267
sg12
F0.035
sg13
VChris Young
p1268
sg15
I9999
sg16
F0.575
sg17
Nsg18
Nsg19
Nsg20
I0
sg21
F0.13797798096760258
sg22
F0.376
sg23
Nsg24
Nsg25
F-3.838
ssg26
I01
sba(iSong
Song
p1269
(dp1270
g3
(dp1271
g5
F0.0244
sg6
VSmall Town Boy
p1272
sg8
F73.033
sg9
F0.747
sg10
S'country'
p1273
sg12
F0.0292
sg13
VDustin Lynch
p1274
sg15
I9999
sg16
F0.553
sg17
Nsg18
Nsg19
Nsg20
I0
sg21
F0.13797798096760258
sg22
F0.711
sg23
Nsg24
Nsg25
F-5.905
ssg26
I01
sba(iSong
Song
p1275
(dp1276
g3
(dp1277
g5
F0.186
sg6
VAin't Always Pretty
p1278
sg8
F160.052
sg9
F0.78
sg10
S'country'
p1279
sg12
F0.0459
sg13
VLogan Mize
p1280
sg15
I9999
sg16
F0.56
sg17
Nsg18
Nsg19
Nsg20
I0
sg21
F0.13797798096760258
sg22
F0.46
sg23
Nsg24
Nsg25
F-5.164
ssg26
I01
sba(iSong
Song
p1281
(dp1282
g3
(dp1283
g5
F0.047
sg6
VMeant to Be (feat. Florida Georgia Line)
p1284
sg8
F154.084
sg9
F0.783
sg10
S'country'
p1285
sg12
F0.0856
sg13
VBebe Rexha
p1286
sg15
I9999
sg16
F0.643
sg17
Nsg18
Nsg19
Nsg20
I0
sg21
F0.13797798096760258
sg22
F0.579
sg23
Nsg24
Nsg25
F-6.458
ssg26
I01
sba(iSong
Song
p1287
(dp1288
g3
(dp1289
g5
F0.0832
sg6
VPlay It Again
p1290
sg8
F144.056
sg9
F0.898
sg10
S'country'
p1291
sg12
F0.0696
sg13
VLuke Bryan
p1292
sg15
I9999
sg16
F0.51
sg17
Nsg18
Nsg19
Nsg20
I0
sg21
F0.13797798096760258
sg22
F0.596
sg23
Nsg24
Nsg25
F-3.15
ssg26
I01
sba(iSong
Song
p1293
(dp1294
g3
(dp1295
g5
F0.484
sg6
VBody Like A Back Road
p1296
sg8
F98.959
sg9
F0.466
sg10
S'country'
p1297
sg12
F0.0327
sg13
VSam Hunt
p1298
sg15
I9999
sg16
F0.731
sg17
Nsg18
Nsg19
Nsg20
F1.42e-06
sg21
F0.13797798096760258
sg22
F0.653
sg23
Nsg24
Nsg25
F-7.219
ssg26
I01
sba(iSong
Song
p1299
(dp1300
g3
(dp1301
g5
F0.349
sg6
VTake Back Home Girl (Feat. Tori Kelly)
p1302
sg8
F160.03
sg9
F0.798
sg10
S'country'
p1303
sg12
F0.0705
sg13
VChris Lane
p1304
sg15
I9999
sg16
F0.488
sg17
Nsg18
Nsg19
Nsg20
I0
sg21
F0.13797798096760258
sg22
F0.613
sg23
Nsg24
Nsg25
F-3.855
ssg26
I01
sba(iSong
Song
p1305
(dp1306
g3
(dp1307
g5
F0.0677
sg6
VLosing Sleep
p1308
sg8
F92.003
sg9
F0.628
sg10
S'country'
p1309
sg12
F0.0431
sg13
VChris Young
p1310
sg15
I9999
sg16
F0.587
sg17
Nsg18
Nsg19
Nsg20
F1.88e-06
sg21
F0.13797798096760258
sg22
F0.649
sg23
Nsg24
Nsg25
F-5.703
ssg26
I01
sba(iSong
Song
p1311
(dp1312
g3
(dp1313
g5
F0.00566
sg6
VClose
p1314
sg8
F80.018
sg9
F0.86
sg10
S'country'
p1315
sg12
F0.0347
sg13
VRyan Kinder
p1316
sg15
I9999
sg16
F0.479
sg17
Nsg18
Nsg19
Nsg20
I0
sg21
F0.13797798096760258
sg22
F0.743
sg23
Nsg24
Nsg25
F-4.318
ssg26
I01
sba(iSong
Song
p1317
(dp1318
g3
(dp1319
g5
F0.0119
sg6
VHard To Love
p1320
sg8
F103.017
sg9
F0.722
sg10
S'country'
p1321
sg12
F0.0332
sg13
VLee Brice
p1322
sg15
I9999
sg16
F0.638
sg17
Nsg18
Nsg19
Nsg20
F0.00808
sg21
F0.13797798096760258
sg22
F0.469
sg23
Nsg24
Nsg25
F-6.177
ssg26
I01
sba(iSong
Song
p1323
(dp1324
g3
(dp1325
g5
F0.214
sg6
VI Could Use a Love Song
p1326
sg8
F92.097
sg9
F0.634
sg10
S'country'
p1327
sg12
F0.0468
sg13
VMaren Morris
p1328
sg15
I9999
sg16
F0.638
sg17
Nsg18
Nsg19
Nsg20
I0
sg21
F0.13797798096760258
sg22
F0.473
sg23
Nsg24
Nsg25
F-6.474
ssg26
I01
sba(iSong
Song
p1329
(dp1330
g3
(dp1331
g5
F0.0353
sg6
VRoller Coaster
p1332
sg8
F108.007
sg9
F0.776
sg10
S'country'
p1333
sg12
F0.037
sg13
VLuke Bryan
p1334
sg15
I9999
sg16
F0.601
sg17
Nsg18
Nsg19
Nsg20
F4.23e-05
sg21
F0.13797798096760258
sg22
F0.269
sg23
Nsg24
Nsg25
F-4.452
ssg26
I01
sba(iSong
Song
p1335
(dp1336
g3
(dp1337
g5
F0.356
sg6
VFrom the Ground Up
p1338
sg8
F101.214
sg9
F0.586
sg10
S'country'
p1339
sg12
F0.0262
sg13
VDan + Shay
p1340
sg15
I9999
sg16
F0.524
sg17
Nsg18
Nsg19
Nsg20
I0
sg21
F0.13797798096760258
sg22
F0.285
sg23
Nsg24
Nsg25
F-5.431
ssg26
I01
sba(iSong
Song
p1341
(dp1342
g3
(dp1343
g5
F0.00481
sg6
VGod Gave Me You
p1344
sg8
F151.977
sg9
F0.844
sg10
S'country'
p1345
sg12
F0.0314
sg13
VBlake Shelton
p1346
sg15
I9999
sg16
F0.483
sg17
Nsg18
Nsg19
Nsg20
F7.29e-05
sg21
F0.13797798096760258
sg22
F0.543
sg23
Nsg24
Nsg25
F-5.043
ssg26
I01
sba(iSong
Song
p1347
(dp1348
g3
(dp1349
g5
F0.9
sg6
VI Met A Girl - Acoustic Mixtape
p1350
sg8
F86.967
sg9
F0.637
sg10
S'country'
p1351
sg12
F0.0515
sg13
VSam Hunt
p1352
sg15
I9999
sg16
F0.41
sg17
Nsg18
Nsg19
Nsg20
I0
sg21
F0.13797798096760258
sg22
F0.54
sg23
Nsg24
Nsg25
F-7.932
ssg26
I01
sba(iSong
Song
p1353
(dp1354
g3
(dp1355
g5
F0.0006
sg6
VCrazy Girl
p1356
sg8
F150.966
sg9
F0.708
sg10
S'country'
p1357
sg12
F0.0315
sg13
VEli Young Band
p1358
sg15
I9999
sg16
F0.358
sg17
Nsg18
Nsg19
Nsg20
F0.00498
sg21
F0.13797798096760258
sg22
F0.227
sg23
Nsg24
Nsg25
F-3.736
ssg26
I01
sba(iSong
Song
p1359
(dp1360
g3
(dp1361
g5
F0.000907
sg6
VCraving You
p1362
sg8
F104.986
sg9
F0.841
sg10
S'country'
p1363
sg12
F0.0353
sg13
VThomas Rhett
p1364
sg15
I9999
sg16
F0.612
sg17
Nsg18
Nsg19
Nsg20
I0
sg21
F0.13797798096760258
sg22
F0.499
sg23
Nsg24
Nsg25
F-3.795
ssg26
I01
sba(iSong
Song
p1365
(dp1366
g3
(dp1367
g5
F0.273
sg6
VHometown Girl
p1368
sg8
F156.004
sg9
F0.81
sg10
S'country'
p1369
sg12
F0.0317
sg13
VJosh Turner
p1370
sg15
I9999
sg16
F0.507
sg17
Nsg18
Nsg19
Nsg20
F0.0567
sg21
F0.13797798096760258
sg22
F0.498
sg23
Nsg24
Nsg25
F-5.628
ssg26
I01
sba(iSong
Song
p1371
(dp1372
g3
(dp1373
g5
F0.334
sg6
VGet to You
p1374
sg8
F167.938
sg9
F0.565
sg10
S'country'
p1375
sg12
F0.0326
sg13
VMichael Ray
p1376
sg15
I9999
sg16
F0.486
sg17
Nsg18
Nsg19
Nsg20
F0.00041
sg21
F0.13797798096760258
sg22
F0.21
sg23
Nsg24
Nsg25
F-5.655
ssg26
I01
sba(iSong
Song
p1377
(dp1378
g3
(dp1379
g5
F0.255
sg6
VSure Be Cool If You Did
p1380
sg8
F136.802
sg9
F0.726
sg10
S'country'
p1381
sg12
F0.035
sg13
VBlake Shelton
p1382
sg15
I9999
sg16
F0.576
sg17
Nsg18
Nsg19
Nsg20
I0
sg21
F0.13797798096760258
sg22
F0.582
sg23
Nsg24
Nsg25
F-4.625
ssg26
I01
sba(iSong
Song
p1383
(dp1384
g3
(dp1385
g5
F0.143
sg6
VKiss Somebody
p1386
sg8
F178.01
sg9
F0.681
sg10
S'country'
p1387
sg12
F0.075
sg13
VMorgan Evans
p1388
sg15
I9999
sg16
F0.492
sg17
Nsg18
Nsg19
Nsg20
I0
sg21
F0.13797798096760258
sg22
F0.511
sg23
Nsg24
Nsg25
F-7.038
ssg26
I01
sba(iSong
Song
p1389
(dp1390
g3
(dp1391
g5
F0.144
sg6
VAll On Me
p1392
sg8
F80.996
sg9
F0.658
sg10
S'country'
p1393
sg12
F0.0281
sg13
VDevin Dawson
p1394
sg15
I9999
sg16
F0.631
sg17
Nsg18
Nsg19
Nsg20
I0
sg21
F0.13797798096760258
sg22
F0.7
sg23
Nsg24
Nsg25
F-5.313
ssg26
I01
sba(iSong
Song
p1395
(dp1396
g3
(dp1397
g5
F0.000937
sg6
VThink of You
p1398
sg8
F111.959
sg9
F0.893
sg10
S'country'
p1399
sg12
F0.0375
sg13
VChris Young
p1400
sg15
I9999
sg16
F0.616
sg17
Nsg18
Nsg19
Nsg20
I0
sg21
F0.13797798096760258
sg22
F0.567
sg23
Nsg24
Nsg25
F-3.588
ssg26
I01
sba(iSong
Song
p1401
(dp1402
g3
(dp1403
g5
F0.126
sg6
VIt Goes Like This
p1404
sg8
F168.048
sg9
F0.84
sg10
S'country'
p1405
sg12
F0.0634
sg13
VThomas Rhett
p1406
sg15
I9999
sg16
F0.533
sg17
Nsg18
Nsg19
Nsg20
I0
sg21
F0.13797798096760258
sg22
F0.529
sg23
Nsg24
Nsg25
F-6.377
ssg26
I01
sba(iSong
Song
p1407
(dp1408
g3
(dp1409
g5
F0.361
sg6
VH.O.L.Y.
p1410
sg8
F78.132
sg9
F0.661
sg10
S'country'
p1411
sg12
F0.0333
sg13
VFlorida Georgia Line
p1412
sg15
I9999
sg16
F0.526
sg17
Nsg18
Nsg19
Nsg20
I0
sg21
F0.13797798096760258
sg22
F0.556
sg23
Nsg24
Nsg25
F-3.828
ssg26
I01
sba(iSong
Song
p1413
(dp1414
g3
(dp1415
g5
F0.414
sg6
VDrunk On Your Love
p1416
sg8
F182.064
sg9
F0.831
sg10
S'country'
p1417
sg12
F0.0616
sg13
VBrett Eldredge
p1418
sg15
I9999
sg16
F0.443
sg17
Nsg18
Nsg19
Nsg20
I0
sg21
F0.13797798096760258
sg22
F0.588
sg23
Nsg24
Nsg25
F-5.606
ssg26
I01
sba(iSong
Song
p1419
(dp1420
g3
(dp1421
g5
F0.672
sg6
VStill Fallin
p1422
sg8
F85.924
sg9
F0.387
sg10
S'country'
p1423
sg12
F0.0281
sg13
VHunter Hayes
p1424
sg15
I9999
sg16
F0.459
sg17
Nsg18
Nsg19
Nsg20
I0
sg21
F0.13797798096760258
sg22
F0.283
sg23
Nsg24
Nsg25
F-8.409
ssg26
I01
sba(iSong
Song
p1425
(dp1426
g3
(dp1427
g5
F0.38
sg6
VGreatest Love Story
p1428
sg8
F147.975
sg9
F0.621
sg10
S'country'
p1429
sg12
F0.0524
sg13
VLANCO
p1430
sg15
I9999
sg16
F0.665
sg17
Nsg18
Nsg19
Nsg20
I0
sg21
F0.13797798096760258
sg22
F0.632
sg23
Nsg24
Nsg25
F-8.571
ssg26
I01
sba(iSong
Song
p1431
(dp1432
g3
(dp1433
g5
F0.353
sg6
VWhole Lot in Love
p1434
sg8
F112.027
sg9
F0.715
sg10
S'country'
p1435
sg12
F0.0377
sg13
VAustin Burke
p1436
sg15
I9999
sg16
F0.791
sg17
Nsg18
Nsg19
Nsg20
I0
sg21
F0.13797798096760258
sg22
F0.593
sg23
Nsg24
Nsg25
F-5.809
ssg26
I01
sba(iSong
Song
p1437
(dp1438
g3
(dp1439
g5
F0.151
sg6
VNothin' Like You
p1440
sg8
F84.956
sg9
F0.704
sg10
S'country'
p1441
sg12
F0.0303
sg13
VDan + Shay
p1442
sg15
I9999
sg16
F0.589
sg17
Nsg18
Nsg19
Nsg20
I0
sg21
F0.13797798096760258
sg22
F0.437
sg23
Nsg24
Nsg25
F-4.772
ssg26
I01
sba(iSong
Song
p1443
(dp1444
g3
(dp1445
g5
F0.0356
sg6
VStay A Little Longer
p1446
sg8
F96.986
sg9
F0.879
sg10
S'country'
p1447
sg12
F0.0296
sg13
VBrothers Osborne
p1448
sg15
I9999
sg16
F0.556
sg17
Nsg18
Nsg19
Nsg20
F0.121
sg21
F0.13797798096760258
sg22
F0.54
sg23
Nsg24
Nsg25
F-5.301
ssg26
I01
sba(iSong
Song
p1449
(dp1450
g3
(dp1451
g5
F0.0441
sg6
VSingles You Up
p1452
sg8
F200.054
sg9
F0.9
sg10
S'country'
p1453
sg12
F0.0488
sg13
VJordan Davis
p1454
sg15
I9999
sg16
F0.489
sg17
Nsg18
Nsg19
Nsg20
I0
sg21
F0.13797798096760258
sg22
F0.611
sg23
Nsg24
Nsg25
F-3.563
ssg26
I01
sba(iSong
Song
p1455
(dp1456
g3
(dp1457
g5
F0.268
sg6
VWanted
p1458
sg8
F169.784
sg9
F0.476
sg10
S'country'
p1459
sg12
F0.0298
sg13
VHunter Hayes
p1460
sg15
I9999
sg16
F0.421
sg17
Nsg18
Nsg19
Nsg20
I0
sg21
F0.13797798096760258
sg22
F0.3
sg23
Nsg24
Nsg25
F-7.692
ssg26
I01
sba(iSong
Song
p1461
(dp1462
g3
(dp1463
g5
F0.115
sg6
VMean To Me
p1464
sg8
F87.994
sg9
F0.586
sg10
S'country'
p1465
sg12
F0.0313
sg13
VBrett Eldredge
p1466
sg15
I9999
sg16
F0.647
sg17
Nsg18
Nsg19
Nsg20
F1.69e-06
sg21
F0.13797798096760258
sg22
F0.165
sg23
Nsg24
Nsg25
F-6.883
ssg26
I01
sba(iSong
Song
p1467
(dp1468
g3
(dp1469
g5
F0.395
sg6
VDifferent For Girls
p1470
sg8
F92.007
sg9
F0.772
sg10
S'country'
p1471
sg12
F0.0358
sg13
VDierks Bentley
p1472
sg15
I9999
sg16
F0.659
sg17
Nsg18
Nsg19
Nsg20
F0.000443
sg21
F0.13797798096760258
sg22
F0.381
sg23
Nsg24
Nsg25
F-5.594
ssg26
I01
sba(iSong
Song
p1473
(dp1474
g3
(dp1475
g5
F0.032
sg6
VUnforgettable
p1476
sg8
F130.02
sg9
F0.738
sg10
S'country'
p1477
sg12
F0.0303
sg13
VThomas Rhett
p1478
sg15
I9999
sg16
F0.663
sg17
Nsg18
Nsg19
Nsg20
F0.000225
sg21
F0.13797798096760258
sg22
F0.825
sg23
Nsg24
Nsg25
F-5.48
ssg26
I01
sba(iSong
Song
p1479
(dp1480
g3
(dp1481
g5
F0.1
sg6
VCome Over
p1482
sg8
F176.043
sg9
F0.704
sg10
S'country'
p1483
sg12
F0.0353
sg13
VKenny Chesney
p1484
sg15
I9999
sg16
F0.466
sg17
Nsg18
Nsg19
Nsg20
F2.71e-05
sg21
F0.13797798096760258
sg22
F0.481
sg23
Nsg24
Nsg25
F-7.169
ssg26
I01
sba(iSong
Song
p1485
(dp1486
g3
(dp1487
g5
F0.606
sg6
VBlue Ain't Your Color
p1488
sg8
F82.407
sg9
F0.417
sg10
S'country'
p1489
sg12
F0.0363
sg13
VKeith Urban
p1490
sg15
I9999
sg16
F0.686
sg17
Nsg18
Nsg19
Nsg20
F1.79e-06
sg21
F0.13797798096760258
sg22
F0.451
sg23
Nsg24
Nsg25
F-7.787
ssg26
I01
sba(iSong
Song
p1491
(dp1492
g3
(dp1493
g5
F0.127
sg6
VYours
p1494
sg8
F134.047
sg9
F0.725
sg10
S'country'
p1495
sg12
F0.034
sg13
VRussell Dickerson
p1496
sg15
I9999
sg16
F0.551
sg17
Nsg18
Nsg19
Nsg20
I0
sg21
F0.13797798096760258
sg22
F0.575
sg23
Nsg24
Nsg25
F-6.005
ssg26
I01
sba(iSong
Song
p1497
(dp1498
g3
(dp1499
g5
F0.288
sg6
VI Like The Sound Of That
p1500
sg8
F89.967
sg9
F0.807
sg10
S'country'
p1501
sg12
F0.0373
sg13
VRascal Flatts
p1502
sg15
I9999
sg16
F0.609
sg17
Nsg18
Nsg19
Nsg20
I0
sg21
F0.13797798096760258
sg22
F0.534
sg23
Nsg24
Nsg25
F-5.603
ssg26
I01
sba(iSong
Song
p1503
(dp1504
g3
(dp1505
g5
F0.358
sg6
VIn Case You Didn't Know
p1506
sg8
F147.969
sg9
F0.542
sg10
S'country'
p1507
sg12
F0.0309
sg13
VBrett Young
p1508
sg15
I9999
sg16
F0.593
sg17
Nsg18
Nsg19
Nsg20
I0
sg21
F0.13797798096760258
sg22
F0.427
sg23
Nsg24
Nsg25
F-7.288
ssg26
I01
sba(iSong
Song
p1509
(dp1510
g3
(dp1511
g5
F0.381
sg6
VDie A Happy Man
p1512
sg8
F83.096
sg9
F0.383
sg10
S'country'
p1513
sg12
F0.0304
sg13
VThomas Rhett
p1514
sg15
I9999
sg16
F0.66
sg17
Nsg18
Nsg19
Nsg20
I0
sg21
F0.13797798096760258
sg22
F0.381
sg23
Nsg24
Nsg25
F-9.377
ssg26
I01
sba(iSong
Song
p1515
(dp1516
g3
(dp1517
g5
F0.46
sg6
VCan't Say No
p1518
sg8
F101.982
sg9
F0.43
sg10
S'country'
p1519
sg12
F0.0267
sg13
VDan + Shay
p1520
sg15
I9999
sg16
F0.742
sg17
Nsg18
Nsg19
Nsg20
I0
sg21
F0.13797798096760258
sg22
F0.679
sg23
Nsg24
Nsg25
F-11.373
ssg26
I01
sba(iSong
Song
p1521
(dp1522
g3
(dp1523
g5
F0.0159
sg6
VMan Enough Now
p1524
sg8
F156.107
sg9
F0.577
sg10
S'country'
p1525
sg12
F0.0331
sg13
VChris Bandi
p1526
sg15
I9999
sg16
F0.591
sg17
Nsg18
Nsg19
Nsg20
I0
sg21
F0.13797798096760258
sg22
F0.502
sg23
Nsg24
Nsg25
F-6.107
ssg26
I01
sba(iSong
Song
p1527
(dp1528
g3
(dp1529
g5
F0.331
sg6
VGod, Your Mama, And Me
p1530
sg8
F168.008
sg9
F0.797
sg10
S'country'
p1531
sg12
F0.0476
sg13
VFlorida Georgia Line
p1532
sg15
I9999
sg16
F0.445
sg17
Nsg18
Nsg19
Nsg20
I0
sg21
F0.13797798096760258
sg22
F0.691
sg23
Nsg24
Nsg25
F-3.662
ssg26
I01
sba(iSong
Song
p1533
(dp1534
g3
(dp1535
g5
F0.179
sg6
VLike I Loved You
p1536
sg8
F76.02
sg9
F0.573
sg10
S'country'
p1537
sg12
F0.0292
sg13
VBrett Young
p1538
sg15
I9999
sg16
F0.579
sg17
Nsg18
Nsg19
Nsg20
I0
sg21
F0.13797798096760258
sg22
F0.637
sg23
Nsg24
Nsg25
F-5.991
ssg26
I01
sba(iSong
Song
p1539
(dp1540
g3
(dp1541
g5
F0.0102
sg6
VYours If You Want It
p1542
sg8
F113.054
sg9
F0.91
sg10
S'country'
p1543
sg12
F0.0566
sg13
VRascal Flatts
p1544
sg15
I9999
sg16
F0.533
sg17
Nsg18
Nsg19
Nsg20
I0
sg21
F0.13797798096760258
sg22
F0.494
sg23
Nsg24
Nsg25
F-3.087
ssg26
I01
sba(iSong
Song
p1545
(dp1546
g3
(dp1547
g5
F0.167
sg6
VCop Car
p1548
sg8
F77.01
sg9
F0.585
sg10
S'country'
p1549
sg12
F0.0321
sg13
VSam Hunt
p1550
sg15
I9999
sg16
F0.606
sg17
Nsg18
Nsg19
Nsg20
I0
sg21
F0.13797798096760258
sg22
F0.177
sg23
Nsg24
Nsg25
F-6.47
ssg26
I01
sba(iSong
Song
p1551
(dp1552
g3
(dp1553
g5
F0.00865
sg6
VLove You Like That
p1554
sg8
F145.101
sg9
F0.738
sg10
S'country'
p1555
sg12
F0.0289
sg13
VCanaan Smith
p1556
sg15
I9999
sg16
F0.561
sg17
Nsg18
Nsg19
Nsg20
F9.55e-05
sg21
F0.13797798096760258
sg22
F0.725
sg23
Nsg24
Nsg25
F-5.05
ssg26
I01
sba(iSong
Song
p1557
(dp1558
g3
(dp1559
g5
F0.0452
sg6
VDon't It
p1560
sg8
F90.97
sg9
F0.805
sg10
S'country'
p1561
sg12
F0.0369
sg13
VBilly Currington
p1562
sg15
I9999
sg16
F0.577
sg17
Nsg18
Nsg19
Nsg20
I0
sg21
F0.13797798096760258
sg22
F0.708
sg23
Nsg24
Nsg25
F-5.293
ssg26
I01
sba(iSong
Song
p1563
(dp1564
g3
(dp1565
g5
F0.0707
sg6
VGonna Wanna Tonight
p1566
sg8
F125.948
sg9
F0.783
sg10
S'country'
p1567
sg12
F0.0405
sg13
VChase Rice
p1568
sg15
I9999
sg16
F0.581
sg17
Nsg18
Nsg19
Nsg20
F0.00014
sg21
F0.13797798096760258
sg22
F0.604
sg23
Nsg24
Nsg25
F-6.667
ssg26
I01
sba(iSong
Song
p1569
(dp1570
g3
(dp1571
g5
F0.144
sg6
VAll On Me
p1572
sg8
F80.996
sg9
F0.658
sg10
S'country'
p1573
sg12
F0.0281
sg13
VDevin Dawson
p1574
sg15
I9999
sg16
F0.631
sg17
Nsg18
Nsg19
Nsg20
I0
sg21
F0.13797798096760258
sg22
F0.7
sg23
Nsg24
Nsg25
F-5.313
ssg26
I01
sba(iSong
Song
p1575
(dp1576
g3
(dp1577
g5
F0.111
sg6
VIt Goes Like This
p1578
sg8
F167.957
sg9
F0.836
sg10
S'country'
p1579
sg12
F0.0627
sg13
VThomas Rhett
p1580
sg15
I9999
sg16
F0.54
sg17
Nsg18
Nsg19
Nsg20
I0
sg21
F0.13797798096760258
sg22
F0.55
sg23
Nsg24
Nsg25
F-5.914
ssg26
I01
sba(iSong
Song
p1581
(dp1582
g3
(dp1583
g5
F0.076
sg6
VHome Alone Tonight
p1584
sg8
F161.989
sg9
F0.968
sg10
S'country'
p1585
sg12
F0.113
sg13
VLuke Bryan
p1586
sg15
I9999
sg16
F0.498
sg17
Nsg18
Nsg19
Nsg20
I0
sg21
F0.13797798096760258
sg22
F0.491
sg23
Nsg24
Nsg25
F-1.18
ssg26
I01
sba(iSong
Song
p1587
(dp1588
g3
(dp1589
g5
F0.114
sg6
VWanna Be That Song
p1590
sg8
F144.065
sg9
F0.686
sg10
S'country'
p1591
sg12
F0.0313
sg13
VBrett Eldredge
p1592
sg15
I9999
sg16
F0.518
sg17
Nsg18
Nsg19
Nsg20
I0
sg21
F0.13797798096760258
sg22
F0.334
sg23
Nsg24
Nsg25
F-4.911
ssg26
I01
sba(iSong
Song
p1593
(dp1594
g3
(dp1595
g5
F0.0407
sg6
VMay We All
p1596
sg8
F75.016
sg9
F0.912
sg10
S'country'
p1597
sg12
F0.0393
sg13
VFlorida Georgia Line
p1598
sg15
I9999
sg16
F0.496
sg17
Nsg18
Nsg19
Nsg20
I0
sg21
F0.13797798096760258
sg22
F0.652
sg23
Nsg24
Nsg25
F-4.28
ssg26
I01
sba(iSong
Song
p1599
(dp1600
g3
(dp1601
g5
F0.0714
sg6
VGo Ahead and Break My Heart (feat. Gwen Stefani)
p1602
sg8
F116.008
sg9
F0.731
sg10
S'country'
p1603
sg12
F0.0321
sg13
VBlake Shelton
p1604
sg15
I9999
sg16
F0.618
sg17
Nsg18
Nsg19
Nsg20
F5.05e-05
sg21
F0.13797798096760258
sg22
F0.352
sg23
Nsg24
Nsg25
F-5.181
ssg26
I01
sba(iSong
Song
p1605
(dp1606
g3
(dp1607
g5
F0.0318
sg6
VT-Shirt
p1608
sg8
F95.996
sg9
F0.857
sg10
S'country'
p1609
sg12
F0.0397
sg13
VThomas Rhett
p1610
sg15
I9999
sg16
F0.647
sg17
Nsg18
Nsg19
Nsg20
I0
sg21
F0.13797798096760258
sg22
F0.771
sg23
Nsg24
Nsg25
F-5.381
ssg26
I01
sba(iSong
Song
p1611
(dp1612
g3
(dp1613
g5
F0.231
sg6
VYeah Boy
p1614
sg8
F88.965
sg9
F0.809
sg10
S'country'
p1615
sg12
F0.0376
sg13
VKelsea Ballerini
p1616
sg15
I9999
sg16
F0.589
sg17
Nsg18
Nsg19
Nsg20
I0
sg21
F0.13797798096760258
sg22
F0.496
sg23
Nsg24
Nsg25
F-5.292
ssg26
I01
sba(iSong
Song
p1617
(dp1618
g3
(dp1619
g5
F0.0325
sg6
VDrink to That All Night
p1620
sg8
F115.965
sg9
F0.846
sg10
S'country'
p1621
sg12
F0.0439
sg13
VJerrod Niemann
p1622
sg15
I9999
sg16
F0.639
sg17
Nsg18
Nsg19
Nsg20
I0
sg21
F0.13797798096760258
sg22
F0.475
sg23
Nsg24
Nsg25
F-6.184
ssg26
I01
sba(iSong
Song
p1623
(dp1624
g3
(dp1625
g5
F0.0832
sg6
VPlay It Again
p1626
sg8
F144.056
sg9
F0.898
sg10
S'country'
p1627
sg12
F0.0696
sg13
VLuke Bryan
p1628
sg15
I9999
sg16
F0.51
sg17
Nsg18
Nsg19
Nsg20
I0
sg21
F0.13797798096760258
sg22
F0.596
sg23
Nsg24
Nsg25
F-3.15
ssg26
I01
sba(iSong
Song
p1629
(dp1630
g3
(dp1631
g5
F0.32
sg6
VDirt Road Anthem
p1632
sg8
F127.04
sg9
F0.739
sg10
S'country'
p1633
sg12
F0.0352
sg13
VJason Aldean
p1634
sg15
I9999
sg16
F0.677
sg17
Nsg18
Nsg19
Nsg20
F2.36e-06
sg21
F0.13797798096760258
sg22
F0.658
sg23
Nsg24
Nsg25
F-5.068
ssg26
I01
sba(iSong
Song
p1635
(dp1636
g3
(dp1637
g5
F0.129
sg6
VStar Of The Show
p1638
sg8
F101.958
sg9
F0.626
sg10
S'country'
p1639
sg12
F0.0275
sg13
VThomas Rhett
p1640
sg15
I9999
sg16
F0.69
sg17
Nsg18
Nsg19
Nsg20
I0
sg21
F0.13797798096760258
sg22
F0.638
sg23
Nsg24
Nsg25
F-5.831
ssg26
I01
sba(iSong
Song
p1641
(dp1642
g3
(dp1643
g5
F0.014
sg6
VParachute
p1644
sg8
F113.033
sg9
F0.749
sg10
S'country'
p1645
sg12
F0.0297
sg13
VChris Stapleton
p1646
sg15
I9999
sg16
F0.639
sg17
Nsg18
Nsg19
Nsg20
F3.52e-05
sg21
F0.13797798096760258
sg22
F0.648
sg23
Nsg24
Nsg25
F-7.327
ssg26
I01
sba(iSong
Song
p1647
(dp1648
g3
(dp1649
g5
F0.0165
sg6
VHurricane
p1650
sg8
F151.928
sg9
F0.804
sg10
S'country'
p1651
sg12
F0.0406
sg13
VLuke Combs
p1652
sg15
I9999
sg16
F0.443
sg17
Nsg18
Nsg19
Nsg20
F2.89e-06
sg21
F0.13797798096760258
sg22
F0.438
sg23
Nsg24
Nsg25
F-6.432
ssg26
I01
sba(iSong
Song
p1653
(dp1654
g3
(dp1655
g5
F0.141
sg6
VHuntin', Fishin' And Lovin' Every Day
p1656
sg8
F154.156
sg9
F0.809
sg10
S'country'
p1657
sg12
F0.0335
sg13
VLuke Bryan
p1658
sg15
I9999
sg16
F0.512
sg17
Nsg18
Nsg19
Nsg20
F2.31e-05
sg21
F0.13797798096760258
sg22
F0.432
sg23
Nsg24
Nsg25
F-4.237
ssg26
I01
sba(iSong
Song
p1659
(dp1660
g3
(dp1661
g5
F0.463
sg6
VBody Like A Back Road
p1662
sg8
F98.963
sg9
F0.469
sg10
S'country'
p1663
sg12
F0.0326
sg13
VSam Hunt
p1664
sg15
I9999
sg16
F0.731
sg17
Nsg18
Nsg19
Nsg20
F1.04e-06
sg21
F0.13797798096760258
sg22
F0.631
sg23
Nsg24
Nsg25
F-7.226
ssg26
I01
sba(iSong
Song
p1665
(dp1666
g3
(dp1667
g5
F0.00898
sg6
VBeat Of The Music
p1668
sg8
F110.001
sg9
F0.808
sg10
S'country'
p1669
sg12
F0.0269
sg13
VBrett Eldredge
p1670
sg15
I9999
sg16
F0.629
sg17
Nsg18
Nsg19
Nsg20
F9.06e-06
sg21
F0.13797798096760258
sg22
F0.773
sg23
Nsg24
Nsg25
F-4.125
ssg26
I01
sba(iSong
Song
p1671
(dp1672
g3
(dp1673
g5
F0.0677
sg6
VBaby Be My Love Song
p1674
sg8
F168.05
sg9
F0.709
sg10
S'country'
p1675
sg12
F0.046
sg13
VEaston Corbin
p1676
sg15
I9999
sg16
F0.488
sg17
Nsg18
Nsg19
Nsg20
I0
sg21
F0.13797798096760258
sg22
F0.469
sg23
Nsg24
Nsg25
F-6.063
ssg26
I01
sba(iSong
Song
p1677
(dp1678
g3
(dp1679
g5
F0.0681
sg6
VMake Me Wanna
p1680
sg8
F108.974
sg9
F0.795
sg10
S'country'
p1681
sg12
F0.042
sg13
VThomas Rhett
p1682
sg15
I9999
sg16
F0.533
sg17
Nsg18
Nsg19
Nsg20
F4.38e-06
sg21
F0.13797798096760258
sg22
F0.572
sg23
Nsg24
Nsg25
F-5.121
ssg26
I01
sba(iSong
Song
p1683
(dp1684
g3
(dp1685
g5
F0.00647
sg6
VYeah
p1686
sg8
F165.713
sg9
F0.843
sg10
S'country'
p1687
sg12
F0.0531
sg13
VJoe Nichols
p1688
sg15
I9999
sg16
F0.414
sg17
Nsg18
Nsg19
Nsg20
F1.52e-05
sg21
F0.13797798096760258
sg22
F0.572
sg23
Nsg24
Nsg25
F-4.638
ssg26
I01
sba(iSong
Song
p1689
(dp1690
g3
(dp1691
g5
F0.445
sg6
VDifferent For Girls
p1692
sg8
F91.975
sg9
F0.785
sg10
S'country'
p1693
sg12
F0.0369
sg13
VDierks Bentley
p1694
sg15
I9999
sg16
F0.661
sg17
Nsg18
Nsg19
Nsg20
F0.000266
sg21
F0.13797798096760258
sg22
F0.371
sg23
Nsg24
Nsg25
F-5.623
ssg26
I01
sba(iSong
Song
p1695
(dp1696
g3
(dp1697
g5
F0.00172
sg6
VAnything Goes
p1698
sg8
F154.038
sg9
F0.977
sg10
S'country'
p1699
sg12
F0.045
sg13
VFlorida Georgia Line
p1700
sg15
I9999
sg16
F0.462
sg17
Nsg18
Nsg19
Nsg20
I0
sg21
F0.13797798096760258
sg22
F0.746
sg23
Nsg24
Nsg25
F-3.805
ssg26
I01
sba(iSong
Song
p1701
(dp1702
g3
(dp1703
g5
F0.438
sg6
VNowhere Fast
p1704
sg8
F101.981
sg9
F0.517
sg10
S'country'
p1705
sg12
F0.0297
sg13
VOld Dominion
p1706
sg15
I9999
sg16
F0.783
sg17
Nsg18
Nsg19
Nsg20
F3.1e-06
sg21
F0.13797798096760258
sg22
F0.495
sg23
Nsg24
Nsg25
F-7.316
ssg26
I01
sba(iSong
Song
p1707
(dp1708
g3
(dp1709
g5
F0.0251
sg6
VHighway Don't Care
p1710
sg8
F78.905
sg9
F0.783
sg10
S'country'
p1711
sg12
F0.0444
sg13
VTim McGraw
p1712
sg15
I9999
sg16
F0.381
sg17
Nsg18
Nsg19
Nsg20
I0
sg21
F0.13797798096760258
sg22
F0.487
sg23
Nsg24
Nsg25
F-5.287
ssg26
I01
sba(iSong
Song
p1713
(dp1714
g3
(dp1715
g5
F0.0996
sg6
VLeave The Night On
p1716
sg8
F171.971
sg9
F0.953
sg10
S'country'
p1717
sg12
F0.0624
sg13
VSam Hunt
p1718
sg15
I9999
sg16
F0.516
sg17
Nsg18
Nsg19
Nsg20
I0
sg21
F0.13797798096760258
sg22
F0.852
sg23
Nsg24
Nsg25
F-3.828
ssg26
I01
sba(iSong
Song
p1719
(dp1720
g3
(dp1721
g5
F0.00786
sg6
VReady Set Roll
p1722
sg8
F156.038
sg9
F0.822
sg10
S'country'
p1723
sg12
F0.0582
sg13
VChase Rice
p1724
sg15
I9999
sg16
F0.556
sg17
Nsg18
Nsg19
Nsg20
I0
sg21
F0.13797798096760258
sg22
F0.797
sg23
Nsg24
Nsg25
F-4.365
ssg26
I01
sba(iSong
Song
p1725
(dp1726
g3
(dp1727
g5
F0.0275
sg6
VI Don't Want This Night to End
p1728
sg8
F111.934
sg9
F0.728
sg10
S'country'
p1729
sg12
F0.0278
sg13
VLuke Bryan
p1730
sg15
I9999
sg16
F0.616
sg17
Nsg18
Nsg19
Nsg20
I0
sg21
F0.13797798096760258
sg22
F0.375
sg23
Nsg24
Nsg25
F-4.02
ssg26
I01
sba(iSong
Song
p1731
(dp1732
g3
(dp1733
g5
F0.312
sg6
VAny Ol' Barstool
p1734
sg8
F143.78
sg9
F0.722
sg10
S'country'
p1735
sg12
F0.0284
sg13
VJason Aldean
p1736
sg15
I9999
sg16
F0.536
sg17
Nsg18
Nsg19
Nsg20
I0
sg21
F0.13797798096760258
sg22
F0.499
sg23
Nsg24
Nsg25
F-4.163
ssg26
I01
sba(iSong
Song
p1737
(dp1738
g3
(dp1739
g5
F0.00106
sg6
VSingle For The Summer
p1740
sg8
F155.877
sg9
F0.856
sg10
S'country'
p1741
sg12
F0.0465
sg13
VSam Hunt
p1742
sg15
I9999
sg16
F0.553
sg17
Nsg18
Nsg19
Nsg20
I0
sg21
F0.13797798096760258
sg22
F0.475
sg23
Nsg24
Nsg25
F-6.316
ssg26
I01
sba(iSong
Song
p1743
(dp1744
g3
(dp1745
g5
F0.0919
sg6
VHead Over Boots
p1746
sg8
F108.078
sg9
F0.669
sg10
S'country'
p1747
sg12
F0.0237
sg13
VJon Pardi
p1748
sg15
I9999
sg16
F0.637
sg17
Nsg18
Nsg19
Nsg20
I0
sg21
F0.13797798096760258
sg22
F0.638
sg23
Nsg24
Nsg25
F-4.608
ssg26
I01
sba(iSong
Song
p1749
(dp1750
g3
(dp1751
g5
F0.0632
sg6
VDirt
p1752
sg8
F121.959
sg9
F0.875
sg10
S'country'
p1753
sg12
F0.0464
sg13
VFlorida Georgia Line
p1754
sg15
I9999
sg16
F0.545
sg17
Nsg18
Nsg19
Nsg20
F1.17e-05
sg21
F0.13797798096760258
sg22
F0.605
sg23
Nsg24
Nsg25
F-4.174
ssg26
I01
sba(iSong
Song
p1755
(dp1756
g3
(dp1757
g5
F0.1
sg6
VSpringsteen
p1758
sg8
F104.023
sg9
F0.809
sg10
S'country'
p1759
sg12
F0.0255
sg13
VEric Church
p1760
sg15
I9999
sg16
F0.692
sg17
Nsg18
Nsg19
Nsg20
F9.77e-05
sg21
F0.13797798096760258
sg22
F0.927
sg23
Nsg24
Nsg25
F-5.935
ssg26
I01
sba(iSong
Song
p1761
(dp1762
g3
(dp1763
g5
F0.000907
sg6
VCraving You
p1764
sg8
F104.986
sg9
F0.841
sg10
S'country'
p1765
sg12
F0.0353
sg13
VThomas Rhett
p1766
sg15
I9999
sg16
F0.612
sg17
Nsg18
Nsg19
Nsg20
I0
sg21
F0.13797798096760258
sg22
F0.499
sg23
Nsg24
Nsg25
F-3.795
ssg26
I01
sba(iSong
Song
p1767
(dp1768
g3
(dp1769
g5
F0.129
sg6
VHouse Party
p1770
sg8
F103.952
sg9
F0.854
sg10
S'country'
p1771
sg12
F0.0503
sg13
VSam Hunt
p1772
sg15
I9999
sg16
F0.749
sg17
Nsg18
Nsg19
Nsg20
I0
sg21
F0.13797798096760258
sg22
F0.842
sg23
Nsg24
Nsg25
F-5.245
ssg26
I01
sba(iSong
Song
p1773
(dp1774
g3
(dp1775
g5
F0.606
sg6
VBlue Ain't Your Color
p1776
sg8
F82.407
sg9
F0.417
sg10
S'country'
p1777
sg12
F0.0363
sg13
VKeith Urban
p1778
sg15
I9999
sg16
F0.686
sg17
Nsg18
Nsg19
Nsg20
F1.79e-06
sg21
F0.13797798096760258
sg22
F0.451
sg23
Nsg24
Nsg25
F-7.787
ssg26
I01
sba(iSong
Song
p1779
(dp1780
g3
(dp1781
g5
F0.0269
sg6
VCarolina Can
p1782
sg8
F157.981
sg9
F0.642
sg10
S'country'
p1783
sg12
F0.0302
sg13
VChase Rice
p1784
sg15
I9999
sg16
F0.479
sg17
Nsg18
Nsg19
Nsg20
I0
sg21
F0.13797798096760258
sg22
F0.372
sg23
Nsg24
Nsg25
F-5.727
ssg26
I01
sba(iSong
Song
p1785
(dp1786
g3
(dp1787
g5
F0.0408
sg6
VStay A Little Longer
p1788
sg8
F97.006
sg9
F0.882
sg10
S'country'
p1789
sg12
F0.0294
sg13
VBrothers Osborne
p1790
sg15
I9999
sg16
F0.553
sg17
Nsg18
Nsg19
Nsg20
F0.241
sg21
F0.13797798096760258
sg22
F0.529
sg23
Nsg24
Nsg25
F-5.515
ssg26
I01
sba(iSong
Song
p1791
(dp1792
g3
(dp1793
g5
F0.381
sg6
VDie A Happy Man
p1794
sg8
F83.096
sg9
F0.383
sg10
S'country'
p1795
sg12
F0.0304
sg13
VThomas Rhett
p1796
sg15
I9999
sg16
F0.66
sg17
Nsg18
Nsg19
Nsg20
I0
sg21
F0.13797798096760258
sg22
F0.381
sg23
Nsg24
Nsg25
F-9.377
ssg26
I01
sba(iSong
Song
p1797
(dp1798
g3
(dp1799
g5
F0.168
sg6
VMake You Miss Me
p1800
sg8
F146.026
sg9
F0.468
sg10
S'country'
p1801
sg12
F0.0314
sg13
VSam Hunt
p1802
sg15
I9999
sg16
F0.612
sg17
Nsg18
Nsg19
Nsg20
I0
sg21
F0.13797798096760258
sg22
F0.165
sg23
Nsg24
Nsg25
F-6.597
ssg26
I01
sba(iSong
Song
p1803
(dp1804
g3
(dp1805
g5
F0.0319
sg6
VI'm Comin' Over
p1806
sg8
F127.992
sg9
F0.85
sg10
S'country'
p1807
sg12
F0.0361
sg13
VChris Young
p1808
sg15
I9999
sg16
F0.573
sg17
Nsg18
Nsg19
Nsg20
I0
sg21
F0.13797798096760258
sg22
F0.347
sg23
Nsg24
Nsg25
F-3.816
ssg26
I01
sba(iSong
Song
p1809
(dp1810
g3
(dp1811
g5
F0.00566
sg6
VClose
p1812
sg8
F80.018
sg9
F0.86
sg10
S'country'
p1813
sg12
F0.0347
sg13
VRyan Kinder
p1814
sg15
I9999
sg16
F0.479
sg17
Nsg18
Nsg19
Nsg20
I0
sg21
F0.13797798096760258
sg22
F0.743
sg23
Nsg24
Nsg25
F-4.318
ssg26
I01
sba(iSong
Song
p1815
(dp1816
g3
(dp1817
g5
F0.0458
sg6
VHow Country Feels
p1818
sg8
F104.944
sg9
F0.847
sg10
S'country'
p1819
sg12
F0.0396
sg13
VRandy Houser
p1820
sg15
I9999
sg16
F0.677
sg17
Nsg18
Nsg19
Nsg20
I0
sg21
F0.13797798096760258
sg22
F0.806
sg23
Nsg24
Nsg25
F-3.608
ssg26
I01
sba(iSong
Song
p1821
(dp1822
g3
(dp1823
g5
F0.361
sg6
VH.O.L.Y.
p1824
sg8
F78.132
sg9
F0.661
sg10
S'country'
p1825
sg12
F0.0333
sg13
VFlorida Georgia Line
p1826
sg15
I9999
sg16
F0.526
sg17
Nsg18
Nsg19
Nsg20
I0
sg21
F0.13797798096760258
sg22
F0.556
sg23
Nsg24
Nsg25
F-3.828
ssg26
I01
sba(iSong
Song
p1827
(dp1828
g3
(dp1829
g5
F0.0811
sg6
VSomethin' 'Bout A Truck
p1830
sg8
F175.986
sg9
F0.808
sg10
S'country'
p1831
sg12
F0.0366
sg13
VKip Moore
p1832
sg15
I9999
sg16
F0.555
sg17
Nsg18
Nsg19
Nsg20
I0
sg21
F0.13797798096760258
sg22
F0.816
sg23
Nsg24
Nsg25
F-5.365
ssg26
I01
sba(iSong
Song
p1833
(dp1834
g3
(dp1835
g5
F0.12
sg6
VYours
p1836
sg8
F133.975
sg9
F0.796
sg10
S'country'
p1837
sg12
F0.0313
sg13
VRussell Dickerson
p1838
sg15
I9999
sg16
F0.568
sg17
Nsg18
Nsg19
Nsg20
I0
sg21
F0.13797798096760258
sg22
F0.573
sg23
Nsg24
Nsg25
F-5.308
ssg26
I01
sba(iSong
Song
p1839
(dp1840
g3
(dp1841
g5
F0.00898
sg6
VWhat Ifs
p1842
sg8
F125.976
sg9
F0.799
sg10
S'country'
p1843
sg12
F0.0275
sg13
VKane Brown
p1844
sg15
I9999
sg16
F0.612
sg17
Nsg18
Nsg19
Nsg20
I0
sg21
F0.13797798096760258
sg22
F0.687
sg23
Nsg24
Nsg25
F-4.603
ssg26
I01
sba(iSong
Song
p1845
(dp1846
g3
(dp1847
g5
F0.0371
sg6
VRunnin' Outta Moonlight
p1848
sg8
F172.05
sg9
F0.801
sg10
S'country'
p1849
sg12
F0.0393
sg13
VRandy Houser
p1850
sg15
I9999
sg16
F0.532
sg17
Nsg18
Nsg19
Nsg20
F7.07e-06
sg21
F0.13797798096760258
sg22
F0.799
sg23
Nsg24
Nsg25
F-3.759
ssg26
I01
sba(iSong
Song
p1851
(dp1852
g3
(dp1853
g5
F0.0174
sg6
VMy Kinda Party
p1854
sg8
F176.926
sg9
F0.902
sg10
S'country'
p1855
sg12
F0.0669
sg13
VJason Aldean
p1856
sg15
I9999
sg16
F0.414
sg17
Nsg18
Nsg19
Nsg20
F7.52e-06
sg21
F0.13797798096760258
sg22
F0.532
sg23
Nsg24
Nsg25
F-4.256
ssg26
I01
sba(iSong
Song
p1857
(dp1858
g3
(dp1859
g5
F0.00472
sg6
VHell Of A Night
p1860
sg8
F85.054
sg9
F0.797
sg10
S'country'
p1861
sg12
F0.0402
sg13
VDustin Lynch
p1862
sg15
I9999
sg16
F0.499
sg17
Nsg18
Nsg19
Nsg20
I0
sg21
F0.13797798096760258
sg22
F0.591
sg23
Nsg24
Nsg25
F-4.845
ssg26
I01
sba(iSong
Song
p1863
(dp1864
g3
(dp1865
g5
F0.0538
sg6
VTalladega
p1866
sg8
I144
sg9
F0.672
sg10
S'country'
p1867
sg12
F0.0294
sg13
VEric Church
p1868
sg15
I9999
sg16
F0.584
sg17
Nsg18
Nsg19
Nsg20
F0.0481
sg21
F0.13797798096760258
sg22
F0.556
sg23
Nsg24
Nsg25
F-8.309
ssg26
I01
sba(iSong
Song
p1869
(dp1870
g3
(dp1871
g5
F0.645
sg6
VChicken Fried
p1872
sg8
F169.864
sg9
F0.713
sg10
S'country'
p1873
sg12
F0.0417
sg13
VZac Brown Band
p1874
sg15
I9999
sg16
F0.566
sg17
Nsg18
Nsg19
Nsg20
I0
sg21
F0.13797798096760258
sg22
F0.807
sg23
Nsg24
Nsg25
F-4.25
ssg26
I01
sba(iSong
Song
p1875
(dp1876
g3
(dp1877
g5
F0.18
sg6
VKick The Dust Up
p1878
sg8
F172.108
sg9
F0.858
sg10
S'country'
p1879
sg12
F0.0493
sg13
VLuke Bryan
p1880
sg15
I9999
sg16
F0.596
sg17
Nsg18
Nsg19
Nsg20
I0
sg21
F0.13797798096760258
sg22
F0.819
sg23
Nsg24
Nsg25
F-2.377
ssg26
I01
sba(iSong
Song
p1881
(dp1882
g3
(dp1883
g5
F0.302
sg6
VSpeakers, Bleachers And Preachers
p1884
sg8
F96.02
sg9
F0.625
sg10
S'country'
p1885
sg12
F0.0258
sg13
VBrandon Lay
p1886
sg15
I9999
sg16
F0.603
sg17
Nsg18
Nsg19
Nsg20
I0
sg21
F0.13797798096760258
sg22
F0.651
sg23
Nsg24
Nsg25
F-6.563
ssg26
I01
sba(iSong
Song
p1887
(dp1888
g3
(dp1889
g5
F0.221
sg6
VShe's Country
p1890
sg8
F172.196
sg9
F0.872
sg10
S'country'
p1891
sg12
F0.0897
sg13
VJason Aldean
p1892
sg15
I9999
sg16
F0.554
sg17
Nsg18
Nsg19
Nsg20
I0
sg21
F0.13797798096760258
sg22
F0.657
sg23
Nsg24
Nsg25
F-2.849
ssg26
I01
sba(iSong
Song
p1893
(dp1894
g3
(dp1895
g5
F0.0661
sg6
VHead Over Boots
p1896
sg8
F108.016
sg9
F0.676
sg10
S'country'
p1897
sg12
F0.027
sg13
VJon Pardi
p1898
sg15
I9999
sg16
F0.557
sg17
Nsg18
Nsg19
Nsg20
I0
sg21
F0.13797798096760258
sg22
F0.678
sg23
Nsg24
Nsg25
F-4.457
ssg26
I01
sba(iSong
Song
p1899
(dp1900
g3
(dp1901
g5
F0.0244
sg6
VSmall Town Boy
p1902
sg8
F73.033
sg9
F0.747
sg10
S'country'
p1903
sg12
F0.0292
sg13
VDustin Lynch
p1904
sg15
I9999
sg16
F0.553
sg17
Nsg18
Nsg19
Nsg20
I0
sg21
F0.13797798096760258
sg22
F0.711
sg23
Nsg24
Nsg25
F-5.905
ssg26
I01
sba(iSong
Song
p1905
(dp1906
g3
(dp1907
g5
F0.0105
sg6
VHow 'Bout You
p1908
sg8
F120.044
sg9
F0.878
sg10
S'country'
p1909
sg12
F0.0382
sg13
VEric Church
p1910
sg15
I9999
sg16
F0.547
sg17
Nsg18
Nsg19
Nsg20
F1.91e-05
sg21
F0.13797798096760258
sg22
F0.767
sg23
Nsg24
Nsg25
F-7.19
ssg26
I01
sba(iSong
Song
p1911
(dp1912
g3
(dp1913
g5
F0.129
sg6
VLight It Up
p1914
sg8
F130.029
sg9
F0.935
sg10
S'country'
p1915
sg12
F0.0855
sg13
VLuke Bryan
p1916
sg15
I9999
sg16
F0.596
sg17
Nsg18
Nsg19
Nsg20
I0
sg21
F0.13797798096760258
sg22
F0.678
sg23
Nsg24
Nsg25
F-2.794
ssg26
I01
sba(iSong
Song
p1917
(dp1918
g3
(dp1919
g5
F0.032
sg6
VUnforgettable
p1920
sg8
F130.02
sg9
F0.738
sg10
S'country'
p1921
sg12
F0.0303
sg13
VThomas Rhett
p1922
sg15
I9999
sg16
F0.663
sg17
Nsg18
Nsg19
Nsg20
F0.000225
sg21
F0.13797798096760258
sg22
F0.825
sg23
Nsg24
Nsg25
F-5.48
ssg26
I01
sba(iSong
Song
p1923
(dp1924
g3
(dp1925
g5
F0.00734
sg6
VHicktown
p1926
sg8
F121.543
sg9
F0.878
sg10
S'country'
p1927
sg12
F0.0351
sg13
VJason Aldean
p1928
sg15
I9999
sg16
F0.697
sg17
Nsg18
Nsg19
Nsg20
F7.98e-06
sg21
F0.13797798096760258
sg22
F0.802
sg23
Nsg24
Nsg25
F-3.779
ssg26
I01
sba(iSong
Song
p1929
(dp1930
g3
(dp1931
g5
F0.00646
sg6
VParking Lot Party
p1932
sg8
F171.72
sg9
F0.86
sg10
S'country'
p1933
sg12
F0.081
sg13
VLee Brice
p1934
sg15
I9999
sg16
F0.54
sg17
Nsg18
Nsg19
Nsg20
I0
sg21
F0.13797798096760258
sg22
F0.856
sg23
Nsg24
Nsg25
F-5.763
ssg26
I01
sba(iSong
Song
p1935
(dp1936
g3
(dp1937
g5
F0.0458
sg6
VHow Country Feels
p1938
sg8
F104.944
sg9
F0.847
sg10
S'country'
p1939
sg12
F0.0396
sg13
VRandy Houser
p1940
sg15
I9999
sg16
F0.677
sg17
Nsg18
Nsg19
Nsg20
I0
sg21
F0.13797798096760258
sg22
F0.806
sg23
Nsg24
Nsg25
F-3.608
ssg26
I01
sba(iSong
Song
p1941
(dp1942
g3
(dp1943
g5
F0.00635
sg6
VDrink In My Hand
p1944
sg8
F113.044
sg9
F0.913
sg10
S'country'
p1945
sg12
F0.0318
sg13
VEric Church
p1946
sg15
I9999
sg16
F0.626
sg17
Nsg18
Nsg19
Nsg20
I0
sg21
F0.13797798096760258
sg22
F0.946
sg23
Nsg24
Nsg25
F-4.452
ssg26
I01
sba(iSong
Song
p1947
(dp1948
g3
(dp1949
g5
F0.118
sg6
VLeave The Night On
p1950
sg8
F172.028
sg9
F0.957
sg10
S'country'
p1951
sg12
F0.053
sg13
VSam Hunt
p1952
sg15
I9999
sg16
F0.509
sg17
Nsg18
Nsg19
Nsg20
I0
sg21
F0.13797798096760258
sg22
F0.859
sg23
Nsg24
Nsg25
F-3.772
ssg26
I01
sba(iSong
Song
p1953
(dp1954
g3
(dp1955
g5
F0.275
sg6
VAs Good As I Once Was
p1956
sg8
F119.013
sg9
F0.842
sg10
S'country'
p1957
sg12
F0.0376
sg13
VToby Keith
p1958
sg15
I9999
sg16
F0.679
sg17
Nsg18
Nsg19
Nsg20
I0
sg21
F0.13797798096760258
sg22
F0.72
sg23
Nsg24
Nsg25
F-4.364
ssg26
I01
sba(iSong
Song
p1959
(dp1960
g3
(dp1961
g5
F0.034
sg6
VBeer Can in a Truck Bed
p1962
sg8
F92.003
sg9
F0.875
sg10
S'country'
p1963
sg12
F0.0488
sg13
VOld Dominion
p1964
sg15
I9999
sg16
F0.66
sg17
Nsg18
Nsg19
Nsg20
I0
sg21
F0.13797798096760258
sg22
F0.767
sg23
Nsg24
Nsg25
F-5.792
ssg26
I01
sba(iSong
Song
p1965
(dp1966
g3
(dp1967
g5
F0.0617
sg6
VHeartache On The Dance Floor
p1968
sg8
F116.005
sg9
F0.824
sg10
S'country'
p1969
sg12
F0.0458
sg13
VJon Pardi
p1970
sg15
I9999
sg16
F0.594
sg17
Nsg18
Nsg19
Nsg20
I0
sg21
F0.13797798096760258
sg22
F0.671
sg23
Nsg24
Nsg25
F-4.252
ssg26
I01
sba(iSong
Song
p1971
(dp1972
g3
(dp1973
g5
F0.0639
sg6
VAw Naw
p1974
sg8
F109.971
sg9
F0.859
sg10
S'country'
p1975
sg12
F0.0358
sg13
VChris Young
p1976
sg15
I9999
sg16
F0.652
sg17
Nsg18
Nsg19
Nsg20
I0
sg21
F0.13797798096760258
sg22
F0.491
sg23
Nsg24
Nsg25
F-3.746
ssg26
I01
sba(iSong
Song
p1977
(dp1978
g3
(dp1979
g5
F0.1
sg6
VSpringsteen
p1980
sg8
F104.023
sg9
F0.809
sg10
S'country'
p1981
sg12
F0.0255
sg13
VEric Church
p1982
sg15
I9999
sg16
F0.692
sg17
Nsg18
Nsg19
Nsg20
F9.77e-05
sg21
F0.13797798096760258
sg22
F0.927
sg23
Nsg24
Nsg25
F-5.935
ssg26
I01
sba(iSong
Song
p1983
(dp1984
g3
(dp1985
g5
F0.463
sg6
VBody Like A Back Road
p1986
sg8
F98.963
sg9
F0.469
sg10
S'country'
p1987
sg12
F0.0326
sg13
VSam Hunt
p1988
sg15
I9999
sg16
F0.731
sg17
Nsg18
Nsg19
Nsg20
F1.04e-06
sg21
F0.13797798096760258
sg22
F0.631
sg23
Nsg24
Nsg25
F-7.226
ssg26
I01
sba(iSong
Song
p1989
(dp1990
g3
(dp1991
g5
F0.246
sg6
VIt's A Great Day To Be Alive
p1992
sg8
F128.93
sg9
F0.653
sg10
S'country'
p1993
sg12
F0.0265
sg13
VTravis Tritt
p1994
sg15
I9999
sg16
F0.595
sg17
Nsg18
Nsg19
Nsg20
I0
sg21
F0.13797798096760258
sg22
F0.542
sg23
Nsg24
Nsg25
F-4.935
ssg26
I01
sba(iSong
Song
p1995
(dp1996
g3
(dp1997
g5
F0.00525
sg6
VFree And Easy (Down The Road I Go)
p1998
sg8
F120.015
sg9
F0.825
sg10
S'country'
p1999
sg12
F0.0283
sg13
VDierks Bentley
p2000
sg15
I9999
sg16
F0.557
sg17
Nsg18
Nsg19
Nsg20
F0.00164
sg21
F0.13797798096760258
sg22
F0.841
sg23
Nsg24
Nsg25
F-4.657
ssg26
I01
sba(iSong
Song
p2001
(dp2002
g3
(dp2003
g5
F0.456
sg6
VWagon Wheel
p2004
sg8
F148.102
sg9
F0.663
sg10
S'country'
p2005
sg12
F0.0306
sg13
VDarius Rucker
p2006
sg15
I9999
sg16
F0.529
sg17
Nsg18
Nsg19
Nsg20
I0
sg21
F0.13797798096760258
sg22
F0.592
sg23
Nsg24
Nsg25
F-7.138
ssg26
I01
sba(iSong
Song
p2007
(dp2008
g3
(dp2009
g5
F0.00155
sg6
VIt Ain't My Fault
p2010
sg8
F123.011
sg9
F0.824
sg10
S'country'
p2011
sg12
F0.0331
sg13
VBrothers Osborne
p2012
sg15
I9999
sg16
F0.723
sg17
Nsg18
Nsg19
Nsg20
F0.167
sg21
F0.13797798096760258
sg22
F0.76
sg23
Nsg24
Nsg25
F-5.911
ssg26
I01
sba(iSong
Song
p2013
(dp2014
g3
(dp2015
g5
F0.0316
sg6
VThese Are My People
p2016
sg8
F90.064
sg9
F0.896
sg10
S'country'
p2017
sg12
F0.0545
sg13
VRodney Atkins
p2018
sg15
I9999
sg16
F0.558
sg17
Nsg18
Nsg19
Nsg20
I0
sg21
F0.13797798096760258
sg22
F0.63
sg23
Nsg24
Nsg25
F-3.687
ssg26
I01
sba(iSong
Song
p2019
(dp2020
g3
(dp2021
g5
F0.00265
sg6
VGet Your Shine On
p2022
sg8
F96.993
sg9
F0.93
sg10
S'country'
p2023
sg12
F0.0372
sg13
VFlorida Georgia Line
p2024
sg15
I9999
sg16
F0.508
sg17
Nsg18
Nsg19
Nsg20
F2.64e-06
sg21
F0.13797798096760258
sg22
F0.607
sg23
Nsg24
Nsg25
F-4.518
ssg26
I01
sba(iSong
Song
p2025
(dp2026
g3
(dp2027
g5
F0.00986
sg6
VReal Good Man
p2028
sg8
F89.93
sg9
F0.827
sg10
S'country'
p2029
sg12
F0.0266
sg13
VTim McGraw
p2030
sg15
I9999
sg16
F0.56
sg17
Nsg18
Nsg19
Nsg20
F1.13e-05
sg21
F0.13797798096760258
sg22
F0.639
sg23
Nsg24
Nsg25
F-5.393
ssg26
I01
sba(iSong
Song
p2031
(dp2032
g3
(dp2033
g5
F0.152
sg6
VUp All Night
p2034
sg8
F163.003
sg9
F0.702
sg10
S'country'
p2035
sg12
F0.0284
sg13
VJon Pardi
p2036
sg15
I9999
sg16
F0.554
sg17
Nsg18
Nsg19
Nsg20
I0
sg21
F0.13797798096760258
sg22
F0.467
sg23
Nsg24
Nsg25
F-4.972
ssg26
I01
sba(iSong
Song
p2037
(dp2038
g3
(dp2039
g5
F0.0913
sg6
VBackwoods
p2040
sg8
F157.877
sg9
F0.91
sg10
S'country'
p2041
sg12
F0.0576
sg13
VJustin Moore
p2042
sg15
I9999
sg16
F0.497
sg17
Nsg18
Nsg19
Nsg20
F2.75e-06
sg21
F0.13797798096760258
sg22
F0.766
sg23
Nsg24
Nsg25
F-4.918
ssg26
I01
sba(iSong
Song
p2043
(dp2044
g3
(dp2045
g5
F0.0318
sg6
VT-Shirt
p2046
sg8
F95.996
sg9
F0.857
sg10
S'country'
p2047
sg12
F0.0397
sg13
VThomas Rhett
p2048
sg15
I9999
sg16
F0.647
sg17
Nsg18
Nsg19
Nsg20
I0
sg21
F0.13797798096760258
sg22
F0.771
sg23
Nsg24
Nsg25
F-5.381
ssg26
I01
sba(iSong
Song
p2049
(dp2050
g3
(dp2051
g5
F0.141
sg6
VSideways
p2052
sg8
F108.046
sg9
F0.915
sg10
S'country'
p2053
sg12
F0.0364
sg13
VDierks Bentley
p2054
sg15
I9999
sg16
F0.624
sg17
Nsg18
Nsg19
Nsg20
I0
sg21
F0.13797798096760258
sg22
F0.815
sg23
Nsg24
Nsg25
F-2.627
ssg26
I01
sba(iSong
Song
p2055
(dp2056
g3
(dp2057
g5
F0.511
sg6
VChillin' It
p2058
sg8
F137.982
sg9
F0.849
sg10
S'country'
p2059
sg12
F0.0386
sg13
VCole Swindell
p2060
sg15
I9999
sg16
F0.576
sg17
Nsg18
Nsg19
Nsg20
F3.89e-05
sg21
F0.13797798096760258
sg22
F0.666
sg23
Nsg24
Nsg25
F-3.057
ssg26
I01
sba(iSong
Song
p2061
(dp2062
g3
(dp2063
g5
F0.00407
sg6
VRound Here
p2064
sg8
F141.977
sg9
F0.956
sg10
S'country'
p2065
sg12
F0.0379
sg13
VFlorida Georgia Line
p2066
sg15
I9999
sg16
F0.523
sg17
Nsg18
Nsg19
Nsg20
I0
sg21
F0.13797798096760258
sg22
F0.888
sg23
Nsg24
Nsg25
F-3.053
ssg26
I01
sba(iSong
Song
p2067
(dp2068
g3
(dp2069
g5
F0.0626
sg6
VThat's My Kind Of Night
p2070
sg8
F110.02
sg9
F0.754
sg10
S'country'
p2071
sg12
F0.051
sg13
VLuke Bryan
p2072
sg15
I9999
sg16
F0.66
sg17
Nsg18
Nsg19
Nsg20
I0
sg21
F0.13797798096760258
sg22
F0.899
sg23
Nsg24
Nsg25
F-2.84
ssg26
I01
sba(iSong
Song
p2073
(dp2074
g3
(dp2075
g5
F0.00314
sg6
VBeer Can
p2076
sg8
F147.986
sg9
F0.836
sg10
S'country'
p2077
sg12
F0.0452
sg13
VLuke Combs
p2078
sg15
I9999
sg16
F0.543
sg17
Nsg18
Nsg19
Nsg20
I0
sg21
F0.13797798096760258
sg22
F0.75
sg23
Nsg24
Nsg25
F-5.42
ssg26
I01
sba(iSong
Song
p2079
(dp2080
g3
(dp2081
g5
F0.000907
sg6
VCraving You
p2082
sg8
F104.986
sg9
F0.841
sg10
S'country'
p2083
sg12
F0.0353
sg13
VThomas Rhett
p2084
sg15
I9999
sg16
F0.612
sg17
Nsg18
Nsg19
Nsg20
I0
sg21
F0.13797798096760258
sg22
F0.499
sg23
Nsg24
Nsg25
F-3.795
ssg26
I01
sba(iSong
Song
p2085
(dp2086
g3
(dp2087
g5
F0.0897
sg6
VAmerican Ride
p2088
sg8
F174.083
sg9
F0.907
sg10
S'country'
p2089
sg12
F0.0649
sg13
VToby Keith
p2090
sg15
I9999
sg16
F0.52
sg17
Nsg18
Nsg19
Nsg20
I0
sg21
F0.13797798096760258
sg22
F0.816
sg23
Nsg24
Nsg25
F-2.694
ssg26
I01
sba(iSong
Song
p2091
(dp2092
g3
(dp2093
g5
F0.131
sg6
VThis Cowboy's Hat (feat. Ned LeDoux)
p2094
sg8
F166.118
sg9
F0.675
sg10
S'country'
p2095
sg12
F0.0449
sg13
VChase Rice
p2096
sg15
I9999
sg16
F0.483
sg17
Nsg18
Nsg19
Nsg20
F0.000195
sg21
F0.13797798096760258
sg22
F0.367
sg23
Nsg24
Nsg25
F-5.47
ssg26
I01
sba(iSong
Song
p2097
(dp2098
g3
(dp2099
g5
F0.0782
sg6
VPlay Something Country
p2100
sg8
F115.034
sg9
F0.909
sg10
S'country'
p2101
sg12
F0.0321
sg13
VBrooks & Dunn
p2102
sg15
I9999
sg16
F0.684
sg17
Nsg18
Nsg19
Nsg20
F1.22e-06
sg21
F0.13797798096760258
sg22
F0.864
sg23
Nsg24
Nsg25
F-3.797
ssg26
I01
sba(iSong
Song
p2103
(dp2104
g3
(dp2105
g5
F0.0439
sg6
VAll My Friends Say
p2106
sg8
F117.036
sg9
F0.9
sg10
S'country'
p2107
sg12
F0.0333
sg13
VLuke Bryan
p2108
sg15
I9999
sg16
F0.683
sg17
Nsg18
Nsg19
Nsg20
I0
sg21
F0.13797798096760258
sg22
F0.962
sg23
Nsg24
Nsg25
F-4.422
ssg26
I01
sba(iSong
Song
p2109
(dp2110
g3
(dp2111
g5
F0.347
sg6
VDirt Road Anthem
p2112
sg8
F127.024
sg9
F0.741
sg10
S'country'
p2113
sg12
F0.0357
sg13
VJason Aldean
p2114
sg15
I9999
sg16
F0.68
sg17
Nsg18
Nsg19
Nsg20
F1.87e-06
sg21
F0.13797798096760258
sg22
F0.635
sg23
Nsg24
Nsg25
F-5.055
ssg26
I01
sba(iSong
Song
p2115
(dp2116
g3
(dp2117
g5
F0.00512
sg6
VDrunk On A Plane
p2118
sg8
F205.958
sg9
F0.754
sg10
S'country'
p2119
sg12
F0.0323
sg13
VDierks Bentley
p2120
sg15
I9999
sg16
F0.439
sg17
Nsg18
Nsg19
Nsg20
F7.45e-06
sg21
F0.13797798096760258
sg22
F0.668
sg23
Nsg24
Nsg25
F-5.566
ssg26
I01
sba(iSong
Song
p2121
(dp2122
g3
(dp2123
g5
F0.0697
sg6
VSomethin' 'Bout A Truck
p2124
sg8
F176.01
sg9
F0.794
sg10
S'country'
p2125
sg12
F0.035
sg13
VKip Moore
p2126
sg15
I9999
sg16
F0.554
sg17
Nsg18
Nsg19
Nsg20
I0
sg21
F0.13797798096760258
sg22
F0.79
sg23
Nsg24
Nsg25
F-5.417
ssg26
I01
sba(iSong
Song
p2127
(dp2128
g3
(dp2129
g5
F0.184
sg6
VTequila Makes Her Clothes Fall Off
p2130
sg8
F93.941
sg9
F0.776
sg10
S'country'
p2131
sg12
F0.0308
sg13
VJoe Nichols
p2132
sg15
I9999
sg16
F0.658
sg17
Nsg18
Nsg19
Nsg20
F1.52e-06
sg21
F0.13797798096760258
sg22
F0.731
sg23
Nsg24
Nsg25
F-5.651
ssg26
I01
sba(iSong
Song
p2133
(dp2134
g3
(dp2135
g5
F0.108
sg6
VSave A Horse (Ride A Cowboy)
p2136
sg8
F102.065
sg9
F0.896
sg10
S'country'
p2137
sg12
F0.191
sg13
VBig & Rich
p2138
sg15
I9999
sg16
F0.7
sg17
Nsg18
Nsg19
Nsg20
I0
sg21
F0.13797798096760258
sg22
F0.817
sg23
Nsg24
Nsg25
F-2.276
ssg26
I01
sba(iSong
Song
p2139
(dp2140
g3
(dp2141
g5
F0.455
sg6
VRedneck Yacht Club
p2142
sg8
F168.115
sg9
F0.817
sg10
S'country'
p2143
sg12
F0.0355
sg13
VCraig Morgan
p2144
sg15
I9999
sg16
F0.49
sg17
Nsg18
Nsg19
Nsg20
I0
sg21
F0.13797798096760258
sg22
F0.808
sg23
Nsg24
Nsg25
F-5.405
ssg26
I01
sba(iSong
Song
p2145
(dp2146
g3
(dp2147
g5
F0.055
sg6
VTake a Little Ride
p2148
sg8
F163.934
sg9
F0.853
sg10
S'country'
p2149
sg12
F0.0417
sg13
VJason Aldean
p2150
sg15
I9999
sg16
F0.464
sg17
Nsg18
Nsg19
Nsg20
I0
sg21
F0.13797798096760258
sg22
F0.76
sg23
Nsg24
Nsg25
F-3.767
ssg26
I01
sba(iSong
Song
p2151
(dp2152
g3
(dp2153
g5
F0.0189
sg6
VCruise
p2154
sg8
F148.012
sg9
F0.945
sg10
S'country'
p2155
sg12
F0.0354
sg13
VFlorida Georgia Line
p2156
sg15
I9999
sg16
F0.464
sg17
Nsg18
Nsg19
Nsg20
I0
sg21
F0.13797798096760258
sg22
F0.877
sg23
Nsg24
Nsg25
F-3.342
ssg26
I01
sba(iSong
Song
p2157
(dp2158
g3
(dp2159
g5
F0.0293
sg6
VCountry Girl (Shake It For Me)
p2160
sg8
F105.97
sg9
F0.904
sg10
S'country'
p2161
sg12
F0.0462
sg13
VLuke Bryan
p2162
sg15
I9999
sg16
F0.645
sg17
Nsg18
Nsg19
Nsg20
I0
sg21
F0.13797798096760258
sg22
F0.671
sg23
Nsg24
Nsg25
F-4.532
ssg26
I01
sba(iSong
Song
p2163
(dp2164
g3
(dp2165
g5
F0.0494
sg6
VSomethin' I'm Good At
p2166
sg8
F103.009
sg9
F0.94
sg10
S'country'
p2167
sg12
F0.114
sg13
VBrett Eldredge
p2168
sg15
I9999
sg16
F0.562
sg17
Nsg18
Nsg19
Nsg20
I0
sg21
F0.13797798096760258
sg22
F0.456
sg23
Nsg24
Nsg25
F-4.337
ssg26
I01
sba(iSong
Song
p2169
(dp2170
g3
(dp2171
g5
F0.0913
sg6
VUp Down (Feat. Florida Georgia Line)
p2172
sg8
F129.928
sg9
F0.881
sg10
S'country'
p2173
sg12
F0.0349
sg13
VMorgan Wallen
p2174
sg15
I9999
sg16
F0.59
sg17
Nsg18
Nsg19
Nsg20
I0
sg21
F0.13797798096760258
sg22
F0.734
sg23
Nsg24
Nsg25
F-2.898
ssg26
I01
sba(iSong
Song
p2175
(dp2176
g3
(dp2177
g5
F0.887
sg6
VWhen The Right One Comes Along
p2178
sg8
F138.038
sg9
F0.216
sg10
S'country'
p2179
sg12
F0.0296
sg13
VNashville Cast
p2180
sg15
I9999
sg16
F0.628
sg17
Nsg18
Nsg19
Nsg20
F6.17e-06
sg21
F0.13797798096760258
sg22
F0.337
sg23
Nsg24
Nsg25
F-8.81
ssg26
I01
sba(iSong
Song
p2181
(dp2182
g3
(dp2183
g5
F0.274
sg6
VThe Morning Song
p2184
sg8
F83.931
sg9
F0.461
sg10
S'country'
p2185
sg12
F0.026
sg13
VDrew Holcomb & The Neighbors
p2186
sg15
I9999
sg16
F0.598
sg17
Nsg18
Nsg19
Nsg20
F0.000651
sg21
F0.13797798096760258
sg22
F0.412
sg23
Nsg24
Nsg25
F-8.895
ssg26
I01
sba(iSong
Song
p2187
(dp2188
g3
(dp2189
g5
F0.81
sg6
V1979
p2190
sg8
F119.969
sg9
F0.367
sg10
S'country'
p2191
sg12
F0.027
sg13
VHigh Dive Heart
p2192
sg15
I9999
sg16
F0.688
sg17
Nsg18
Nsg19
Nsg20
I0
sg21
F0.13797798096760258
sg22
F0.213
sg23
Nsg24
Nsg25
F-7.469
ssg26
I01
sba(iSong
Song
p2193
(dp2194
g3
(dp2195
g5
F0.46
sg6
VNowhere Fast
p2196
sg8
F101.974
sg9
F0.488
sg10
S'country'
p2197
sg12
F0.0286
sg13
VOld Dominion
p2198
sg15
I9999
sg16
F0.788
sg17
Nsg18
Nsg19
Nsg20
F4.52e-06
sg21
F0.13797798096760258
sg22
F0.48
sg23
Nsg24
Nsg25
F-7.319
ssg26
I01
sba(iSong
Song
p2199
(dp2200
g3
(dp2201
g5
F0.884
sg6
VOld Time's Sake
p2202
sg8
F88.592
sg9
F0.182
sg10
S'country'
p2203
sg12
F0.038
sg13
VCharlie Worsham
p2204
sg15
I9999
sg16
F0.476
sg17
Nsg18
Nsg19
Nsg20
F0.00086
sg21
F0.13797798096760258
sg22
F0.146
sg23
Nsg24
Nsg25
F-16.375
ssg26
I01
sba(iSong
Song
p2205
(dp2206
g3
(dp2207
g5
F0.907
sg6
VJust In Case - Acoustic
p2208
sg8
F99.805
sg9
F0.345
sg10
S'country'
p2209
sg12
F0.0326
sg13
VCatherine McGrath
p2210
sg15
I9999
sg16
F0.611
sg17
Nsg18
Nsg19
Nsg20
I0
sg21
F0.13797798096760258
sg22
F0.251
sg23
Nsg24
Nsg25
F-6.629
ssg26
I01
sba(iSong
Song
p2211
(dp2212
g3
(dp2213
g5
F0.859
sg6
VAll Is Well
p2214
sg8
F99.938
sg9
F0.419
sg10
S'country'
p2215
sg12
F0.0337
sg13
VAustin Basham
p2216
sg15
I9999
sg16
F0.34
sg17
Nsg18
Nsg19
Nsg20
F0.00211
sg21
F0.13797798096760258
sg22
F0.263
sg23
Nsg24
Nsg25
F-12.244
ssg26
I01
sba(iSong
Song
p2217
(dp2218
g3
(dp2219
g5
F0.796
sg6
VThe Time I've Wasted
p2220
sg8
F145.027
sg9
F0.25
sg10
S'country'
p2221
sg12
F0.0304
sg13
VLori McKenna
p2222
sg15
I9999
sg16
F0.473
sg17
Nsg18
Nsg19
Nsg20
F8.83e-05
sg21
F0.13797798096760258
sg22
F0.261
sg23
Nsg24
Nsg25
F-11.263
ssg26
I01
sba(iSong
Song
p2223
(dp2224
g3
(dp2225
g5
F0.921
sg6
VWhiskey And You
p2226
sg8
F127.262
sg9
F0.0597
sg10
S'country'
p2227
sg12
F0.0616
sg13
VChris Stapleton
p2228
sg15
I9999
sg16
F0.579
sg17
Nsg18
Nsg19
Nsg20
F8.39e-06
sg21
F0.13797798096760258
sg22
F0.264
sg23
Nsg24
Nsg25
F-14.554
ssg26
I01
sba(iSong
Song
p2229
(dp2230
g3
(dp2231
g5
F0.283
sg6
VBluebonnets (Julia's Song)
p2232
sg8
F92.978
sg9
F0.434
sg10
S'country'
p2233
sg12
F0.0237
sg13
VAaron Watson
p2234
sg15
I9999
sg16
F0.61
sg17
Nsg18
Nsg19
Nsg20
I0
sg21
F0.13797798096760258
sg22
F0.29
sg23
Nsg24
Nsg25
F-7.131
ssg26
I01
sba(iSong
Song
p2235
(dp2236
g3
(dp2237
g5
F0.064
sg6
VHalley's Comet - Radio Mix
p2238
sg8
F172.922
sg9
F0.42
sg10
S'country'
p2239
sg12
F0.0342
sg13
VSarah Darling
p2240
sg15
I9999
sg16
F0.339
sg17
Nsg18
Nsg19
Nsg20
I0
sg21
F0.13797798096760258
sg22
F0.205
sg23
Nsg24
Nsg25
F-8.172
ssg26
I01
sba(iSong
Song
p2241
(dp2242
g3
(dp2243
g5
F0.575
sg6
VThe House That Built Me
p2244
sg8
F81.12
sg9
F0.3
sg10
S'country'
p2245
sg12
F0.0289
sg13
VMiranda Lambert
p2246
sg15
I9999
sg16
F0.515
sg17
Nsg18
Nsg19
Nsg20
F8.46e-06
sg21
F0.13797798096760258
sg22
F0.206
sg23
Nsg24
Nsg25
F-8.005
ssg26
I01
sba(iSong
Song
p2247
(dp2248
g3
(dp2249
g5
F0.37
sg6
VForever Girl
p2250
sg8
F140.161
sg9
F0.439
sg10
S'country'
p2251
sg12
F0.0273
sg13
VJon Langston
p2252
sg15
I9999
sg16
F0.581
sg17
Nsg18
Nsg19
Nsg20
I0
sg21
F0.13797798096760258
sg22
F0.324
sg23
Nsg24
Nsg25
F-5.817
ssg26
I01
sba(iSong
Song
p2253
(dp2254
g3
(dp2255
g5
F0.738
sg6
VShiver And Shake
p2256
sg8
F144.006
sg9
F0.384
sg10
S'country'
p2257
sg12
F0.0349
sg13
VRyan Adams
p2258
sg15
I9999
sg16
F0.387
sg17
Nsg18
Nsg19
Nsg20
F5.96e-05
sg21
F0.13797798096760258
sg22
F0.132
sg23
Nsg24
Nsg25
F-14.786
ssg26
I01
sba(iSong
Song
p2259
(dp2260
g3
(dp2261
g5
F0.376
sg6
VNumb
p2262
sg8
F102.918
sg9
F0.397
sg10
S'country'
p2263
sg12
F0.0265
sg13
VTyminski
p2264
sg15
I9999
sg16
F0.49
sg17
Nsg18
Nsg19
Nsg20
I0
sg21
F0.13797798096760258
sg22
F0.0743
sg23
Nsg24
Nsg25
F-9.705
ssg26
I01
sba(iSong
Song
p2265
(dp2266
g3
(dp2267
g5
F0.701
sg6
VRun of Good Luck
p2268
sg8
F130.507
sg9
F0.166
sg10
S'country'
p2269
sg12
F0.0347
sg13
VRob Baird
p2270
sg15
I9999
sg16
F0.544
sg17
Nsg18
Nsg19
Nsg20
F2.95e-06
sg21
F0.13797798096760258
sg22
F0.306
sg23
Nsg24
Nsg25
F-12.926
ssg26
I01
sba(iSong
Song
p2271
(dp2272
g3
(dp2273
g5
F0.885
sg6
VWords
p2274
sg8
F101.573
sg9
F0.325
sg10
S'country'
p2275
sg12
F0.0302
sg13
VSara Evans
p2276
sg15
I9999
sg16
F0.576
sg17
Nsg18
Nsg19
Nsg20
I0
sg21
F0.13797798096760258
sg22
F0.404
sg23
Nsg24
Nsg25
F-9.428
ssg26
I01
sba(iSong
Song
p2277
(dp2278
g3
(dp2279
g5
F0.625
sg6
VBrighter Shade of Blue
p2280
sg8
F84.984
sg9
F0.438
sg10
S'country'
p2281
sg12
F0.0265
sg13
VJordan DePaul
p2282
sg15
I9999
sg16
F0.489
sg17
Nsg18
Nsg19
Nsg20
F8e-05
sg21
F0.13797798096760258
sg22
F0.188
sg23
Nsg24
Nsg25
F-8.748
ssg26
I01
sba(iSong
Song
p2283
(dp2284
g3
(dp2285
g5
F0.437
sg6
VYou and Tequila
p2286
sg8
F135.839
sg9
F0.454
sg10
S'country'
p2287
sg12
F0.0256
sg13
VKenny Chesney
p2288
sg15
I9999
sg16
F0.691
sg17
Nsg18
Nsg19
Nsg20
F0.00227
sg21
F0.13797798096760258
sg22
F0.35
sg23
Nsg24
Nsg25
F-9.13
ssg26
I01
sba(iSong
Song
p2289
(dp2290
g3
(dp2291
g5
F0.901
sg6
VWithout A Word
p2292
sg8
F136.311
sg9
F0.171
sg10
S'country'
p2293
sg12
F0.0303
sg13
VSara Watkins
p2294
sg15
I9999
sg16
F0.579
sg17
Nsg18
Nsg19
Nsg20
F0.000308
sg21
F0.13797798096760258
sg22
F0.389
sg23
Nsg24
Nsg25
F-14.495
ssg26
I01
sba(iSong
Song
p2295
(dp2296
g3
(dp2297
g5
F0.671
sg6
VStay My Love
p2298
sg8
F75.898
sg9
F0.402
sg10
S'country'
p2299
sg12
F0.0257
sg13
VUna Healy
p2300
sg15
I9999
sg16
F0.481
sg17
Nsg18
Nsg19
Nsg20
I0
sg21
F0.13797798096760258
sg22
F0.287
sg23
Nsg24
Nsg25
F-6.844
ssg26
I01
sba(iSong
Song
p2301
(dp2302
g3
(dp2303
g5
F0.302
sg6
VShe Don't Love You
p2304
sg8
F151.37
sg9
F0.338
sg10
S'country'
p2305
sg12
F0.029
sg13
VEric Paslay
p2306
sg15
I9999
sg16
F0.342
sg17
Nsg18
Nsg19
Nsg20
F1.07e-06
sg21
F0.13797798096760258
sg22
F0.172
sg23
Nsg24
Nsg25
F-8.414
ssg26
I01
sba(iSong
Song
p2307
(dp2308
g3
(dp2309
g5
F0.861
sg6
VTin Man
p2310
sg8
F79.456
sg9
F0.372
sg10
S'country'
p2311
sg12
F0.03
sg13
VMiranda Lambert
p2312
sg15
I9999
sg16
F0.425
sg17
Nsg18
Nsg19
Nsg20
F0.0148
sg21
F0.13797798096760258
sg22
F0.292
sg23
Nsg24
Nsg25
F-10.92
ssg26
I01
sba(iSong
Song
p2313
(dp2314
g3
(dp2315
g5
F0.885
sg6
VBurning House
p2316
sg8
F140.904
sg9
F0.248
sg10
S'country'
p2317
sg12
F0.0317
sg13
VCam
p2318
sg15
I9999
sg16
F0.729
sg17
Nsg18
Nsg19
Nsg20
F2e-05
sg21
F0.13797798096760258
sg22
F0.43
sg23
Nsg24
Nsg25
F-8.772
ssg26
I01
sba(iSong
Song
p2319
(dp2320
g3
(dp2321
g5
F0.708
sg6
VThe Love That We Need
p2322
sg8
F181.019
sg9
F0.365
sg10
S'country'
p2323
sg12
F0.0451
sg13
VHayes Carll
p2324
sg15
I9999
sg16
F0.369
sg17
Nsg18
Nsg19
Nsg20
F0.0343
sg21
F0.13797798096760258
sg22
F0.222
sg23
Nsg24
Nsg25
F-9.869
ssg26
I01
sba(iSong
Song
p2325
(dp2326
g3
(dp2327
g5
F0.825
sg6
VNo Peace In Quiet
p2328
sg8
F75.999
sg9
F0.34
sg10
S'country'
p2329
sg12
F0.0277
sg13
VDelta Rae
p2330
sg15
I9999
sg16
F0.35
sg17
Nsg18
Nsg19
Nsg20
F1.01e-05
sg21
F0.13797798096760258
sg22
F0.293
sg23
Nsg24
Nsg25
F-8.841
ssg26
I01
sba(iSong
Song
p2331
(dp2332
g3
(dp2333
g5
F0.869
sg6
VThe Hard Way
p2334
sg8
F158.349
sg9
F0.244
sg10
S'country'
p2335
sg12
F0.0318
sg13
VSierra Hull
p2336
sg15
I9999
sg16
F0.403
sg17
Nsg18
Nsg19
Nsg20
F5.29e-06
sg21
F0.13797798096760258
sg22
F0.355
sg23
Nsg24
Nsg25
F-12.152
ssg26
I01
sba(iSong
Song
p2337
(dp2338
g3
(dp2339
g5
F0.865
sg6
VEither Way
p2340
sg8
F129.004
sg9
F0.0628
sg10
S'country'
p2341
sg12
F0.0417
sg13
VChris Stapleton
p2342
sg15
I9999
sg16
F0.641
sg17
Nsg18
Nsg19
Nsg20
F4.08e-06
sg21
F0.13797798096760258
sg22
F0.275
sg23
Nsg24
Nsg25
F-14.155
ssg26
I01
sba(iSong
Song
p2343
(dp2344
g3
(dp2345
g5
F0.00925
sg6
VTake It All Back 2.0
p2346
sg8
F148.071
sg9
F0.801
sg10
S'country'
p2347
sg12
F0.0305
sg13
VJudah & the Lion
p2348
sg15
I9999
sg16
F0.446
sg17
Nsg18
Nsg19
Nsg20
F8.84e-05
sg21
F0.13797798096760258
sg22
F0.765
sg23
Nsg24
Nsg25
F-6.397
ssg26
I01
sba(iSong
Song
p2349
(dp2350
g3
(dp2351
g5
F0.335
sg6
VMiles Away
p2352
sg8
F161.743
sg9
F0.49
sg10
S'country'
p2353
sg12
F0.0308
sg13
VKrysta Nick
p2354
sg15
I9999
sg16
F0.546
sg17
Nsg18
Nsg19
Nsg20
I0
sg21
F0.13797798096760258
sg22
F0.373
sg23
Nsg24
Nsg25
I-7
ssg26
I01
sba(iSong
Song
p2355
(dp2356
g3
(dp2357
g5
F0.771
sg6
VGiving It All (To You)
p2358
sg8
F114.337
sg9
F0.32
sg10
S'country'
p2359
sg12
F0.028
sg13
VHaley & Michaels
p2360
sg15
I9999
sg16
F0.636
sg17
Nsg18
Nsg19
Nsg20
I0
sg21
F0.13797798096760258
sg22
F0.2
sg23
Nsg24
Nsg25
F-9.953
ssg26
I01
sba(iSong
Song
p2361
(dp2362
g3
(dp2363
g5
F0.869
sg6
VPushin' Time
p2364
sg8
F77.756
sg9
F0.179
sg10
S'country'
p2365
sg12
F0.0323
sg13
VMiranda Lambert
p2366
sg15
I9999
sg16
F0.503
sg17
Nsg18
Nsg19
Nsg20
F2.21e-05
sg21
F0.13797798096760258
sg22
F0.321
sg23
Nsg24
Nsg25
F-13.064
ssg26
I01
sba(iSong
Song
p2367
(dp2368
g3
(dp2369
g5
F0.245
sg6
VA Woman Like You
p2370
sg8
F160.048
sg9
F0.584
sg10
S'country'
p2371
sg12
F0.0305
sg13
VLee Brice
p2372
sg15
I9999
sg16
F0.592
sg17
Nsg18
Nsg19
Nsg20
I0
sg21
F0.13797798096760258
sg22
F0.371
sg23
Nsg24
Nsg25
F-7.422
ssg26
I01
sba(iSong
Song
p2373
(dp2374
g3
(dp2375
g5
F0.0784
sg6
VIt's Your Move
p2376
sg8
F126.116
sg9
F0.435
sg10
S'country'
p2377
sg12
F0.0288
sg13
VJosh Kelley
p2378
sg15
I9999
sg16
F0.436
sg17
Nsg18
Nsg19
Nsg20
I0
sg21
F0.13797798096760258
sg22
F0.384
sg23
Nsg24
Nsg25
F-7.474
ssg26
I01
sba(iSong
Song
p2379
(dp2380
g3
(dp2381
g5
F0.558
sg6
VNothing Like You
p2382
sg8
F77.037
sg9
F0.496
sg10
S'country'
p2383
sg12
F0.0309
sg13
VDave Barnes
p2384
sg15
I9999
sg16
F0.608
sg17
Nsg18
Nsg19
Nsg20
F1.15e-05
sg21
F0.13797798096760258
sg22
F0.506
sg23
Nsg24
Nsg25
F-8.929
ssg26
I01
sba(iSong
Song
p2385
(dp2386
g3
(dp2387
g5
F0.679
sg6
VWait Up For Me
p2388
sg8
I83
sg9
F0.236
sg10
S'country'
p2389
sg12
F0.0296
sg13
VAmos Lee
p2390
sg15
I9999
sg16
F0.654
sg17
Nsg18
Nsg19
Nsg20
F0.00495
sg21
F0.13797798096760258
sg22
F0.262
sg23
Nsg24
Nsg25
F-15.625
ssg26
I01
sba(iSong
Song
p2391
(dp2392
g3
(dp2393
g5
F0.741
sg6
VWaters
p2394
sg8
F119.863
sg9
F0.264
sg10
S'country'
p2395
sg12
F0.0316
sg13
VJJ Shiplett
p2396
sg15
I9999
sg16
F0.576
sg17
Nsg18
Nsg19
Nsg20
I0
sg21
F0.13797798096760258
sg22
F0.283
sg23
Nsg24
Nsg25
F-10.217
ssg26
I01
sba(iSong
Song
p2397
(dp2398
g3
(dp2399
g5
F0.697
sg6
VFingertips
p2400
sg8
F115.137
sg9
F0.324
sg10
S'country'
p2401
sg12
F0.0442
sg13
VRyan O'Shaughnessy
p2402
sg15
I9999
sg16
F0.491
sg17
Nsg18
Nsg19
Nsg20
I0
sg21
F0.13797798096760258
sg22
F0.123
sg23
Nsg24
Nsg25
F-10.627
ssg26
I01
sba(iSong
Song
p2403
(dp2404
g3
(dp2405
g5
F0.768
sg6
VLouise
p2406
sg8
F89.897
sg9
F0.381
sg10
S'country'
p2407
sg12
F0.0321
sg13
VMipso
p2408
sg15
I9999
sg16
F0.639
sg17
Nsg18
Nsg19
Nsg20
F2.25e-06
sg21
F0.13797798096760258
sg22
F0.489
sg23
Nsg24
Nsg25
F-9.428
ssg26
I01
sba(iSong
Song
p2409
(dp2410
g3
(dp2411
g5
F0.148
sg6
VPieces of You
p2412
sg8
F62.003
sg9
F0.642
sg10
S'country'
p2413
sg12
F0.0305
sg13
VChris Carmack
p2414
sg15
I9999
sg16
F0.505
sg17
Nsg18
Nsg19
Nsg20
F3.15e-05
sg21
F0.13797798096760258
sg22
F0.167
sg23
Nsg24
Nsg25
F-3.694
ssg26
I01
sba(iSong
Song
p2415
(dp2416
g3
(dp2417
g5
F0.714
sg6
VWhen You Say Nothing At All
p2418
sg8
F169.642
sg9
F0.242
sg10
S'country'
p2419
sg12
F0.0291
sg13
VAlison Krauss & Union Station
p2420
sg15
I9999
sg16
F0.509
sg17
Nsg18
Nsg19
Nsg20
F0.000365
sg21
F0.13797798096760258
sg22
F0.448
sg23
Nsg24
Nsg25
F-13.353
ssg26
I01
sba(iSong
Song
p2421
(dp2422
g3
(dp2423
g5
F0.131
sg6
VWhat If I Stay
p2424
sg8
F94.021
sg9
F0.653
sg10
S'country'
p2425
sg12
F0.0275
sg13
VChris Young
p2426
sg15
I9999
sg16
F0.58
sg17
Nsg18
Nsg19
Nsg20
F4.65e-05
sg21
F0.13797798096760258
sg22
F0.232
sg23
Nsg24
Nsg25
F-6.051
ssg26
I01
sba(iSong
Song
p2427
(dp2428
g3
(dp2429
g5
F0.751
sg6
VDreamer
p2430
sg8
F154.028
sg9
F0.383
sg10
S'country'
p2431
sg12
F0.0407
sg13
VIsbells
p2432
sg15
I9999
sg16
F0.627
sg17
Nsg18
Nsg19
Nsg20
F0.0289
sg21
F0.13797798096760258
sg22
F0.421
sg23
Nsg24
Nsg25
F-13.143
ssg26
I01
sba(iSong
Song
p2433
(dp2434
g3
(dp2435
g5
F0.00791
sg6
VThis Town Still Talks About You
p2436
sg8
F95.957
sg9
F0.47
sg10
S'country'
p2437
sg12
F0.0242
sg13
VNatalie Hemby
p2438
sg15
I9999
sg16
F0.522
sg17
Nsg18
Nsg19
Nsg20
F1.54e-06
sg21
F0.13797798096760258
sg22
F0.344
sg23
Nsg24
Nsg25
F-9.52
ssg26
I01
sba(iSong
Song
p2439
(dp2440
g3
(dp2441
g5
F0.493
sg6
VSwimming Alone
p2442
sg8
F160.067
sg9
F0.493
sg10
S'country'
p2443
sg12
F0.0295
sg13
VLiz Rose
p2444
sg15
I9999
sg16
F0.572
sg17
Nsg18
Nsg19
Nsg20
F4.48e-06
sg21
F0.13797798096760258
sg22
F0.171
sg23
Nsg24
Nsg25
F-6.859
ssg26
I01
sba(iSong
Song
p2445
(dp2446
g3
(dp2447
g5
F0.659
sg6
VWhere Cowboys Ride
p2448
sg8
F82.302
sg9
F0.374
sg10
S'country'
p2449
sg12
F0.0339
sg13
VSarah Darling
p2450
sg15
I9999
sg16
F0.405
sg17
Nsg18
Nsg19
Nsg20
F4.15e-05
sg21
F0.13797798096760258
sg22
F0.194
sg23
Nsg24
Nsg25
F-10.118
ssg26
I01
sba(iSong
Song
p2451
(dp2452
g3
(dp2453
g5
F0.141
sg6
VDancing Shoes
p2454
sg8
F138.032
sg9
F0.415
sg10
S'country'
p2455
sg12
F0.0277
sg13
VGreen River Ordinance
p2456
sg15
I9999
sg16
F0.594
sg17
Nsg18
Nsg19
Nsg20
F1.58e-06
sg21
F0.13797798096760258
sg22
F0.205
sg23
Nsg24
Nsg25
F-6.99
ssg26
I01
sba(iSong
Song
p2457
(dp2458
g3
(dp2459
g5
F0.673
sg6
VWoulda Left Me Too
p2460
sg8
F147.912
sg9
F0.452
sg10
S'country'
p2461
sg12
F0.0603
sg13
VRyan Griffin
p2462
sg15
I9999
sg16
F0.564
sg17
Nsg18
Nsg19
Nsg20
F0.00105
sg21
F0.13797798096760258
sg22
F0.173
sg23
Nsg24
Nsg25
F-8.588
ssg26
I01
sba(iSong
Song
p2463
(dp2464
g3
(dp2465
g5
F0.857
sg6
VComing Down the Mountain
p2466
sg8
F140.013
sg9
F0.344
sg10
S'country'
p2467
sg12
F0.0278
sg13
VMipso
p2468
sg15
I9999
sg16
F0.582
sg17
Nsg18
Nsg19
Nsg20
F0.0871
sg21
F0.13797798096760258
sg22
F0.374
sg23
Nsg24
Nsg25
F-9.148
ssg26
I01
sba(iSong
Song
p2469
(dp2470
g3
(dp2471
g5
F0.807
sg6
VTo The Moon And Back
p2472
sg8
F83.421
sg9
F0.473
sg10
S'country'
p2473
sg12
F0.0307
sg13
VLuke Bryan
p2474
sg15
I9999
sg16
F0.407
sg17
Nsg18
Nsg19
Nsg20
F0.0672
sg21
F0.13797798096760258
sg22
F0.269
sg23
Nsg24
Nsg25
F-10.297
ssg26
I01
sba(iSong
Song
p2475
(dp2476
g3
(dp2477
g5
F0.835
sg6
VBlacked Out
p2478
sg8
F156.014
sg9
F0.391
sg10
S'country'
p2479
sg12
F0.0323
sg13
VChris Young
p2480
sg15
I9999
sg16
F0.598
sg17
Nsg18
Nsg19
Nsg20
F1.48e-05
sg21
F0.13797798096760258
sg22
F0.644
sg23
Nsg24
Nsg25
F-11.544
ssg26
I01
sba(iSong
Song
p2481
(dp2482
g3
(dp2483
g5
F0.744
sg6
VThis Town Is Killing Me
p2484
sg8
F75.984
sg9
F0.18
sg10
S'country'
p2485
sg12
F0.0316
sg13
VCaitlyn Smith
p2486
sg15
I9999
sg16
F0.48
sg17
Nsg18
Nsg19
Nsg20
I0
sg21
F0.13797798096760258
sg22
F0.242
sg23
Nsg24
Nsg25
F-10.2
ssg26
I01
sba(iSong
Song
p2487
(dp2488
g3
(dp2489
g5
F0.569
sg6
VGirl Goin' Nowhere
p2490
sg8
F79.896
sg9
F0.158
sg10
S'country'
p2491
sg12
F0.0615
sg13
VAshley McBryde
p2492
sg15
I9999
sg16
F0.428
sg17
Nsg18
Nsg19
Nsg20
F9.64e-05
sg21
F0.13797798096760258
sg22
F0.159
sg23
Nsg24
Nsg25
F-12.812
ssg26
I01
sba(iSong
Song
p2493
(dp2494
g3
(dp2495
g5
F0.00275
sg6
VStay Downtown
p2496
sg8
F77.807
sg9
F0.758
sg10
S'country'
p2497
sg12
F0.0451
sg13
VCole Swindell
p2498
sg15
I9999
sg16
F0.336
sg17
Nsg18
Nsg19
Nsg20
I0
sg21
F0.13797798096760258
sg22
F0.236
sg23
Nsg24
Nsg25
F-4.187
ssg26
I01
sba(iSong
Song
p2499
(dp2500
g3
(dp2501
g5
F0.0896
sg6
VI'd Be Jealous Too
p2502
sg8
F100.934
sg9
F0.718
sg10
S'country'
p2503
sg12
F0.0293
sg13
VDustin Lynch
p2504
sg15
I9999
sg16
F0.716
sg17
Nsg18
Nsg19
Nsg20
I0
sg21
F0.13797798096760258
sg22
F0.537
sg23
Nsg24
Nsg25
F-5.355
ssg26
I01
sba(iSong
Song
p2505
(dp2506
g3
(dp2507
g5
F0.0178
sg6
VA Girl Like You
p2508
sg8
F104.989
sg9
F0.777
sg10
S'country'
p2509
sg12
F0.0329
sg13
VEaston Corbin
p2510
sg15
I9999
sg16
F0.74
sg17
Nsg18
Nsg19
Nsg20
F1.27e-06
sg21
F0.13797798096760258
sg22
F0.834
sg23
Nsg24
Nsg25
F-4.405
ssg26
I01
sba(iSong
Song
p2511
(dp2512
g3
(dp2513
g5
F0.353
sg6
VWhole Lot in Love
p2514
sg8
F112.027
sg9
F0.715
sg10
S'country'
p2515
sg12
F0.0377
sg13
VAustin Burke
p2516
sg15
I9999
sg16
F0.791
sg17
Nsg18
Nsg19
Nsg20
I0
sg21
F0.13797798096760258
sg22
F0.593
sg23
Nsg24
Nsg25
F-5.809
ssg26
I01
sba(iSong
Song
p2517
(dp2518
g3
(dp2519
g5
F0.0528
sg6
VFound You
p2520
sg8
F164.144
sg9
F0.821
sg10
S'country'
p2521
sg12
F0.0404
sg13
VKane Brown
p2522
sg15
I9999
sg16
F0.46
sg17
Nsg18
Nsg19
Nsg20
I0
sg21
F0.13797798096760258
sg22
F0.438
sg23
Nsg24
Nsg25
F-5.333
ssg26
I01
sba(iSong
Song
p2523
(dp2524
g3
(dp2525
g5
F0.214
sg6
VI Could Use a Love Song
p2526
sg8
F92.097
sg9
F0.634
sg10
S'country'
p2527
sg12
F0.0468
sg13
VMaren Morris
p2528
sg15
I9999
sg16
F0.638
sg17
Nsg18
Nsg19
Nsg20
I0
sg21
F0.13797798096760258
sg22
F0.473
sg23
Nsg24
Nsg25
F-6.474
ssg26
I01
sba(iSong
Song
p2529
(dp2530
g3
(dp2531
g5
F0.113
sg6
VMarry Me
p2532
sg8
F85.008
sg9
F0.408
sg10
S'country'
p2533
sg12
F0.0237
sg13
VThomas Rhett
p2534
sg15
I9999
sg16
F0.588
sg17
Nsg18
Nsg19
Nsg20
I0
sg21
F0.13797798096760258
sg22
F0.484
sg23
Nsg24
Nsg25
F-8.662
ssg26
I01
sba(iSong
Song
p2535
(dp2536
g3
(dp2537
g5
F0.496
sg6
VYou Broke Up with Me
p2538
sg8
F120.013
sg9
F0.711
sg10
S'country'
p2539
sg12
F0.061
sg13
VWalker Hayes
p2540
sg15
I9999
sg16
F0.846
sg17
Nsg18
Nsg19
Nsg20
I0
sg21
F0.13797798096760258
sg22
F0.883
sg23
Nsg24
Nsg25
F-7.939
ssg26
I01
sba(iSong
Song
p2541
(dp2542
g3
(dp2543
g5
F0.0441
sg6
VSingles You Up
p2544
sg8
F200.054
sg9
F0.9
sg10
S'country'
p2545
sg12
F0.0488
sg13
VJordan Davis
p2546
sg15
I9999
sg16
F0.489
sg17
Nsg18
Nsg19
Nsg20
I0
sg21
F0.13797798096760258
sg22
F0.611
sg23
Nsg24
Nsg25
F-3.563
ssg26
I01
sba(iSong
Song
p2547
(dp2548
g3
(dp2549
g5
F0.0617
sg6
VHeartache On The Dance Floor
p2550
sg8
F116.005
sg9
F0.824
sg10
S'country'
p2551
sg12
F0.0458
sg13
VJon Pardi
p2552
sg15
I9999
sg16
F0.594
sg17
Nsg18
Nsg19
Nsg20
I0
sg21
F0.13797798096760258
sg22
F0.671
sg23
Nsg24
Nsg25
F-4.252
ssg26
I01
sba(iSong
Song
p2553
(dp2554
g3
(dp2555
g5
F0.00909
sg6
VWhat Guy Wouldn't
p2556
sg8
F120.071
sg9
F0.836
sg10
S'country'
p2557
sg12
F0.055
sg13
VWaterloo Revival
p2558
sg15
I9999
sg16
F0.543
sg17
Nsg18
Nsg19
Nsg20
I0
sg21
F0.13797798096760258
sg22
F0.695
sg23
Nsg24
Nsg25
F-5.477
ssg26
I01
sba(iSong
Song
p2559
(dp2560
g3
(dp2561
g5
F0.00898
sg6
VWhat Ifs
p2562
sg8
F125.976
sg9
F0.799
sg10
S'country'
p2563
sg12
F0.0275
sg13
VKane Brown
p2564
sg15
I9999
sg16
F0.612
sg17
Nsg18
Nsg19
Nsg20
I0
sg21
F0.13797798096760258
sg22
F0.687
sg23
Nsg24
Nsg25
F-4.603
ssg26
I01
sba(iSong
Song
p2565
(dp2566
g3
(dp2567
g5
F0.013
sg6
VWhen It Rains It Pours
p2568
sg8
F128.027
sg9
F0.801
sg10
S'country'
p2569
sg12
F0.0303
sg13
VLuke Combs
p2570
sg15
I9999
sg16
F0.551
sg17
Nsg18
Nsg19
Nsg20
F6.03e-06
sg21
F0.13797798096760258
sg22
F0.625
sg23
Nsg24
Nsg25
F-5.069
ssg26
I01
sba(iSong
Song
p2571
(dp2572
g3
(dp2573
g5
F0.52
sg6
VBe with Me
p2574
sg8
F104.031
sg9
F0.862
sg10
S'country'
p2575
sg12
F0.0275
sg13
VOld Dominion
p2576
sg15
I9999
sg16
F0.657
sg17
Nsg18
Nsg19
Nsg20
I0
sg21
F0.13797798096760258
sg22
F0.849
sg23
Nsg24
Nsg25
F-5.048
ssg26
I01
sba(iSong
Song
p2577
(dp2578
g3
(dp2579
g5
F0.397
sg6
VIn Case You Didn't Know
p2580
sg8
F147.976
sg9
F0.544
sg10
S'country'
p2581
sg12
F0.0315
sg13
VBrett Young
p2582
sg15
I9999
sg16
F0.596
sg17
Nsg18
Nsg19
Nsg20
I0
sg21
F0.13797798096760258
sg22
F0.393
sg23
Nsg24
Nsg25
F-7.294
ssg26
I01
sba(iSong
Song
p2583
(dp2584
g3
(dp2585
g5
F0.302
sg6
VSpeakers, Bleachers And Preachers
p2586
sg8
F96.02
sg9
F0.625
sg10
S'country'
p2587
sg12
F0.0258
sg13
VBrandon Lay
p2588
sg15
I9999
sg16
F0.603
sg17
Nsg18
Nsg19
Nsg20
I0
sg21
F0.13797798096760258
sg22
F0.651
sg23
Nsg24
Nsg25
F-6.563
ssg26
I01
sba(iSong
Song
p2589
(dp2590
g3
(dp2591
g5
F0.0362
sg6
VHooked
p2592
sg8
F132.054
sg9
F0.721
sg10
S'country'
p2593
sg12
F0.0356
sg13
VDylan Scott
p2594
sg15
I9999
sg16
F0.597
sg17
Nsg18
Nsg19
Nsg20
I0
sg21
F0.13797798096760258
sg22
F0.437
sg23
Nsg24
Nsg25
F-6.422
ssg26
I01
sba(iSong
Song
p2595
(dp2596
g3
(dp2597
g5
F0.193
sg6
VWhen the Good Guys Win
p2598
sg8
F142.044
sg9
F0.853
sg10
S'country'
p2599
sg12
F0.0365
sg13
VGranger Smith
p2600
sg15
I9999
sg16
F0.619
sg17
Nsg18
Nsg19
Nsg20
I0
sg21
F0.13797798096760258
sg22
F0.864
sg23
Nsg24
Nsg25
F-4.889
ssg26
I01
sba(iSong
Song
p2601
(dp2602
g3
(dp2603
g5
F0.122
sg6
VDo I Make You Wanna
p2604
sg8
F89.953
sg9
F0.751
sg10
S'country'
p2605
sg12
F0.0299
sg13
VBilly Currington
p2606
sg15
I9999
sg16
F0.549
sg17
Nsg18
Nsg19
Nsg20
I0
sg21
F0.13797798096760258
sg22
F0.493
sg23
Nsg24
Nsg25
F-5.423
ssg26
I01
sba(iSong
Song
p2607
(dp2608
g3
(dp2609
g5
F0.463
sg6
VBody Like A Back Road
p2610
sg8
F98.963
sg9
F0.469
sg10
S'country'
p2611
sg12
F0.0326
sg13
VSam Hunt
p2612
sg15
I9999
sg16
F0.731
sg17
Nsg18
Nsg19
Nsg20
F1.04e-06
sg21
F0.13797798096760258
sg22
F0.631
sg23
Nsg24
Nsg25
F-7.226
ssg26
I01
sba(iSong
Song
p2613
(dp2614
g3
(dp2615
g5
F0.0351
sg6
VStupid
p2616
sg8
F92.021
sg9
F0.868
sg10
S'country'
p2617
sg12
F0.0384
sg13
VLevi Hummon
p2618
sg15
I9999
sg16
F0.588
sg17
Nsg18
Nsg19
Nsg20
I0
sg21
F0.13797798096760258
sg22
F0.559
sg23
Nsg24
Nsg25
F-4.904
ssg26
I01
sba(iSong
Song
p2619
(dp2620
g3
(dp2621
g5
F0.263
sg6
VHeaven
p2622
sg8
F80.009
sg9
F0.556
sg10
S'country'
p2623
sg12
F0.0306
sg13
VKane Brown
p2624
sg15
I9999
sg16
F0.677
sg17
Nsg18
Nsg19
Nsg20
I0
sg21
F0.13797798096760258
sg22
F0.521
sg23
Nsg24
Nsg25
F-6.544
ssg26
I01
sba(iSong
Song
p2625
(dp2626
g3
(dp2627
g5
F0.119
sg6
VYours
p2628
sg8
F134.058
sg9
F0.722
sg10
S'country'
p2629
sg12
F0.034
sg13
VRussell Dickerson
p2630
sg15
I9999
sg16
F0.555
sg17
Nsg18
Nsg19
Nsg20
I0
sg21
F0.13797798096760258
sg22
F0.559
sg23
Nsg24
Nsg25
F-6.005
ssg26
I01
sba(iSong
Song
p2631
(dp2632
g3
(dp2633
g5
F0.65
sg6
VThe Rest of Our Life
p2634
sg8
F119.921
sg9
F0.468
sg10
S'country'
p2635
sg12
F0.0291
sg13
VTim McGraw
p2636
sg15
I9999
sg16
F0.617
sg17
Nsg18
Nsg19
Nsg20
I0
sg21
F0.13797798096760258
sg22
F0.333
sg23
Nsg24
Nsg25
F-6.908
ssg26
I01
sba(iSong
Song
p2637
(dp2638
g3
(dp2639
g5
F0.161
sg6
VThis Night Back
p2640
sg8
F160.167
sg9
F0.863
sg10
S'country'
p2641
sg12
F0.04
sg13
VCanaan Smith
p2642
sg15
I9999
sg16
F0.587
sg17
Nsg18
Nsg19
Nsg20
I0
sg21
F0.13797798096760258
sg22
F0.537
sg23
Nsg24
Nsg25
F-4.803
ssg26
I01
sba(iSong
Song
p2643
(dp2644
g3
(dp2645
g5
F0.0527
sg6
VGetting Over You
p2646
sg8
F170.139
sg9
F0.784
sg10
S'country'
p2647
sg12
F0.0344
sg13
VJackie Lee
p2648
sg15
I9999
sg16
F0.442
sg17
Nsg18
Nsg19
Nsg20
I0
sg21
F0.13797798096760258
sg22
F0.552
sg23
Nsg24
Nsg25
F-4.001
ssg26
I01
sba(iSong
Song
p2649
(dp2650
g3
(dp2651
g5
F0.0446
sg6
VRound Here Buzz
p2652
sg8
F76.08
sg9
F0.427
sg10
S'country'
p2653
sg12
F0.0336
sg13
VEric Church
p2654
sg15
I9999
sg16
F0.639
sg17
Nsg18
Nsg19
Nsg20
F2.32e-05
sg21
F0.13797798096760258
sg22
F0.457
sg23
Nsg24
Nsg25
F-9.013
ssg26
I01
sba(iSong
Song
p2655
(dp2656
g3
(dp2657
g5
F0.0159
sg6
VMan Enough Now
p2658
sg8
F156.107
sg9
F0.577
sg10
S'country'
p2659
sg12
F0.0331
sg13
VChris Bandi
p2660
sg15
I9999
sg16
F0.591
sg17
Nsg18
Nsg19
Nsg20
I0
sg21
F0.13797798096760258
sg22
F0.502
sg23
Nsg24
Nsg25
F-6.107
ssg26
I01
sba(iSong
Song
p2661
(dp2662
g3
(dp2663
g5
F0.144
sg6
VAll On Me
p2664
sg8
F80.996
sg9
F0.658
sg10
S'country'
p2665
sg12
F0.0281
sg13
VDevin Dawson
p2666
sg15
I9999
sg16
F0.631
sg17
Nsg18
Nsg19
Nsg20
I0
sg21
F0.13797798096760258
sg22
F0.7
sg23
Nsg24
Nsg25
F-5.313
ssg26
I01
sba(iSong
Song
p2667
(dp2668
g3
(dp2669
g5
F0.182
sg6
VFemale
p2670
sg8
F84.999
sg9
F0.474
sg10
S'country'
p2671
sg12
F0.0351
sg13
VKeith Urban
p2672
sg15
I9999
sg16
F0.562
sg17
Nsg18
Nsg19
Nsg20
F9.8e-05
sg21
F0.13797798096760258
sg22
F0.345
sg23
Nsg24
Nsg25
F-8.762
ssg26
I01
sba(iSong
Song
p2673
(dp2674
g3
(dp2675
g5
F0.38
sg6
VGreatest Love Story
p2676
sg8
F147.975
sg9
F0.621
sg10
S'country'
p2677
sg12
F0.0524
sg13
VLANCO
p2678
sg15
I9999
sg16
F0.665
sg17
Nsg18
Nsg19
Nsg20
I0
sg21
F0.13797798096760258
sg22
F0.632
sg23
Nsg24
Nsg25
F-8.571
ssg26
I01
sba(iSong
Song
p2679
(dp2680
g3
(dp2681
g5
F0.143
sg6
VKiss Somebody
p2682
sg8
F178.01
sg9
F0.681
sg10
S'country'
p2683
sg12
F0.075
sg13
VMorgan Evans
p2684
sg15
I9999
sg16
F0.492
sg17
Nsg18
Nsg19
Nsg20
I0
sg21
F0.13797798096760258
sg22
F0.511
sg23
Nsg24
Nsg25
F-7.038
ssg26
I01
sba(iSong
Song
p2685
(dp2686
g3
(dp2687
g5
F0.0886
sg6
VLegends
p2688
sg8
F112.047
sg9
F0.644
sg10
S'country'
p2689
sg12
F0.0322
sg13
VKelsea Ballerini
p2690
sg15
I9999
sg16
F0.603
sg17
Nsg18
Nsg19
Nsg20
I0
sg21
F0.13797798096760258
sg22
F0.244
sg23
Nsg24
Nsg25
F-6.447
ssg26
I01
sba(iSong
Song
p2691
(dp2692
g3
(dp2693
g5
F0.593
sg6
VWritten in the Sand
p2694
sg8
F83.985
sg9
F0.437
sg10
S'country'
p2695
sg12
F0.0575
sg13
VOld Dominion
p2696
sg15
I9999
sg16
F0.725
sg17
Nsg18
Nsg19
Nsg20
I0
sg21
F0.13797798096760258
sg22
F0.759
sg23
Nsg24
Nsg25
F-9.602
ssg26
I01
sba(iSong
Song
p2697
(dp2698
g3
(dp2699
g5
F0.265
sg6
VThe Long Way
p2700
sg8
F88.872
sg9
F0.637
sg10
S'country'
p2701
sg12
F0.0401
sg13
VBrett Eldredge
p2702
sg15
I9999
sg16
F0.488
sg17
Nsg18
Nsg19
Nsg20
I0
sg21
F0.13797798096760258
sg22
F0.23
sg23
Nsg24
Nsg25
F-7.63
ssg26
I01
sba(iSong
Song
p2703
(dp2704
g3
(dp2705
g5
F0.049
sg6
VAlmost Over You
p2706
sg8
F101.069
sg9
F0.892
sg10
S'country'
p2707
sg12
F0.0525
sg13
VJessie James Decker
p2708
sg15
I9999
sg16
F0.556
sg17
Nsg18
Nsg19
Nsg20
F0.00053
sg21
F0.13797798096760258
sg22
F0.264
sg23
Nsg24
Nsg25
F-2.841
ssg26
I01
sba(iSong
Song
p2709
(dp2710
g3
(dp2711
g5
F0.368
sg6
VTake Back Home Girl (Feat. Tori Kelly)
p2712
sg8
F159.708
sg9
F0.78
sg10
S'country'
p2713
sg12
F0.064
sg13
VChris Lane
p2714
sg15
I9999
sg16
F0.494
sg17
Nsg18
Nsg19
Nsg20
I0
sg21
F0.13797798096760258
sg22
F0.664
sg23
Nsg24
Nsg25
F-3.825
ssg26
I01
sba(iSong
Song
p2715
(dp2716
g3
(dp2717
g5
F0.189
sg6
VHappens Like That
p2718
sg8
F81.045
sg9
F0.807
sg10
S'country'
p2719
sg12
F0.0825
sg13
VGranger Smith
p2720
sg15
I9999
sg16
F0.557
sg17
Nsg18
Nsg19
Nsg20
I0
sg21
F0.13797798096760258
sg22
F0.578
sg23
Nsg24
Nsg25
F-5.428
ssg26
I01
sba(iSong
Song
p2721
(dp2722
g3
(dp2723
g5
F0.0913
sg6
VUp Down (Feat. Florida Georgia Line)
p2724
sg8
F129.928
sg9
F0.881
sg10
S'country'
p2725
sg12
F0.0349
sg13
VMorgan Wallen
p2726
sg15
I9999
sg16
F0.59
sg17
Nsg18
Nsg19
Nsg20
I0
sg21
F0.13797798096760258
sg22
F0.734
sg23
Nsg24
Nsg25
F-2.898
ssg26
I01
sba(iSong
Song
p2727
(dp2728
g3
(dp2729
g5
F0.032
sg6
VUnforgettable
p2730
sg8
F130.02
sg9
F0.738
sg10
S'country'
p2731
sg12
F0.0303
sg13
VThomas Rhett
p2732
sg15
I9999
sg16
F0.663
sg17
Nsg18
Nsg19
Nsg20
F0.000225
sg21
F0.13797798096760258
sg22
F0.825
sg23
Nsg24
Nsg25
F-5.48
ssg26
I01
sba(iSong
Song
p2733
(dp2734
g3
(dp2735
g5
F0.081
sg6
VI Got You
p2736
sg8
F91.93
sg9
F0.88
sg10
S'country'
p2737
sg12
F0.0731
sg13
VJosh Mirenda
p2738
sg15
I9999
sg16
F0.49
sg17
Nsg18
Nsg19
Nsg20
I0
sg21
F0.13797798096760258
sg22
F0.493
sg23
Nsg24
Nsg25
F-5.185
ssg26
I01
sba(iSong
Song
p2739
(dp2740
g3
(dp2741
g5
F0.00379
sg6
VNothin Like Us
p2742
sg8
F74.972
sg9
F0.856
sg10
S'country'
p2743
sg12
F0.0629
sg13
VJosh Gracin
p2744
sg15
I9999
sg16
F0.527
sg17
Nsg18
Nsg19
Nsg20
I0
sg21
F0.13797798096760258
sg22
F0.573
sg23
Nsg24
Nsg25
F-4.239
ssg26
I01
sba(iSong
Song
p2745
(dp2746
g3
(dp2747
g5
F0.042
sg6
VLook At You
p2748
sg8
F104.027
sg9
F0.625
sg10
S'country'
p2749
sg12
F0.0284
sg13
VSeth Ennis
p2750
sg15
I9999
sg16
F0.687
sg17
Nsg18
Nsg19
Nsg20
I0
sg21
F0.13797798096760258
sg22
F0.866
sg23
Nsg24
Nsg25
F-6.942
ssg26
I01
sba(iSong
Song
p2751
(dp2752
g3
(dp2753
g5
F0.163
sg6
VI'll Name the Dogs
p2754
sg8
F168.063
sg9
F0.852
sg10
S'country'
p2755
sg12
F0.0933
sg13
VBlake Shelton
p2756
sg15
I9999
sg16
F0.47
sg17
Nsg18
Nsg19
Nsg20
F2.04e-06
sg21
F0.13797798096760258
sg22
F0.773
sg23
Nsg24
Nsg25
F-5.874
ssg26
I01
sba(iSong
Song
p2757
(dp2758
g3
(dp2759
g5
F0.047
sg6
VMeant to Be (feat. Florida Georgia Line)
p2760
sg8
F154.084
sg9
F0.783
sg10
S'country'
p2761
sg12
F0.0856
sg13
VBebe Rexha
p2762
sg15
I9999
sg16
F0.643
sg17
Nsg18
Nsg19
Nsg20
I0
sg21
F0.13797798096760258
sg22
F0.579
sg23
Nsg24
Nsg25
F-6.458
ssg26
I01
sba(iSong
Song
p2763
(dp2764
g3
(dp2765
g5
F0.179
sg6
VLike I Loved You
p2766
sg8
F76.02
sg9
F0.573
sg10
S'country'
p2767
sg12
F0.0292
sg13
VBrett Young
p2768
sg15
I9999
sg16
F0.579
sg17
Nsg18
Nsg19
Nsg20
I0
sg21
F0.13797798096760258
sg22
F0.637
sg23
Nsg24
Nsg25
F-5.991
ssg26
I01
sba(iSong
Song
p2769
(dp2770
g3
(dp2771
g5
F0.000907
sg6
VCraving You
p2772
sg8
F104.986
sg9
F0.841
sg10
S'country'
p2773
sg12
F0.0353
sg13
VThomas Rhett
p2774
sg15
I9999
sg16
F0.612
sg17
Nsg18
Nsg19
Nsg20
I0
sg21
F0.13797798096760258
sg22
F0.499
sg23
Nsg24
Nsg25
F-3.795
ssg26
I01
sba(iSong
Song
p2775
(dp2776
g3
(dp2777
g5
F0.0275
sg6
VThree Chords & The Truth
p2778
sg8
F166.074
sg9
F0.889
sg10
S'country'
p2779
sg12
F0.0462
sg13
VChase Rice
p2780
sg15
I9999
sg16
F0.44
sg17
Nsg18
Nsg19
Nsg20
I0
sg21
F0.13797798096760258
sg22
F0.409
sg23
Nsg24
Nsg25
F-4.723
ssg26
I01
sba(iSong
Song
p2781
(dp2782
g3
(dp2783
g5
F0.0677
sg6
VLosing Sleep
p2784
sg8
F92.003
sg9
F0.628
sg10
S'country'
p2785
sg12
F0.0431
sg13
VChris Young
p2786
sg15
I9999
sg16
F0.587
sg17
Nsg18
Nsg19
Nsg20
F1.88e-06
sg21
F0.13797798096760258
sg22
F0.649
sg23
Nsg24
Nsg25
F-5.703
ssg26
I01
sba(iSong
Song
p2787
(dp2788
g3
(dp2789
g5
F0.129
sg6
VLight It Up
p2790
sg8
F130.029
sg9
F0.935
sg10
S'country'
p2791
sg12
F0.0855
sg13
VLuke Bryan
p2792
sg15
I9999
sg16
F0.596
sg17
Nsg18
Nsg19
Nsg20
I0
sg21
F0.13797798096760258
sg22
F0.678
sg23
Nsg24
Nsg25
F-2.794
ssg26
I01
sba(iSong
Song
p2793
(dp2794
g3
(dp2795
g5
F0.00733
sg6
VSunday Morning
p2796
sg8
F90.005
sg9
F0.716
sg10
S'country'
p2797
sg12
F0.0342
sg13
VParmalee
p2798
sg15
I9999
sg16
F0.584
sg17
Nsg18
Nsg19
Nsg20
I0
sg21
F0.13797798096760258
sg22
F0.525
sg23
Nsg24
Nsg25
F-4.737
ssg26
I01
sba(iSong
Song
p2799
(dp2800
g3
(dp2801
g5
F0.083
sg6
VIt Don't Hurt Like It Used To
p2802
sg8
F161.981
sg9
F0.824
sg10
S'country'
p2803
sg12
F0.0524
sg13
VBilly Currington
p2804
sg15
I9999
sg16
F0.503
sg17
Nsg18
Nsg19
Nsg20
I0
sg21
F0.13797798096760258
sg22
F0.448
sg23
Nsg24
Nsg25
F-4.039
ssg26
I01
sba(iSong
Song
p2805
(dp2806
g3
(dp2807
g5
F0.0352
sg6
VBackroad Song
p2808
sg8
F174.006
sg9
F0.833
sg10
S'country'
p2809
sg12
F0.0437
sg13
VGranger Smith
p2810
sg15
I9999
sg16
F0.488
sg17
Nsg18
Nsg19
Nsg20
F0.0172
sg21
F0.13797798096760258
sg22
F0.751
sg23
Nsg24
Nsg25
F-6.571
ssg26
I01
sba(iSong
Song
p2811
(dp2812
g3
(dp2813
g5
F0.0216
sg6
VHighway Don't Care
p2814
sg8
F158.061
sg9
F0.79
sg10
S'country'
p2815
sg12
F0.039
sg13
VTim McGraw
p2816
sg15
I9999
sg16
F0.47
sg17
Nsg18
Nsg19
Nsg20
I0
sg21
F0.13797798096760258
sg22
F0.495
sg23
Nsg24
Nsg25
F-5.352
ssg26
I01
sba(iSong
Song
p2817
(dp2818
g3
(dp2819
g5
F0.0538
sg6
VTalladega
p2820
sg8
I144
sg9
F0.672
sg10
S'country'
p2821
sg12
F0.0294
sg13
VEric Church
p2822
sg15
I9999
sg16
F0.584
sg17
Nsg18
Nsg19
Nsg20
F0.0481
sg21
F0.13797798096760258
sg22
F0.556
sg23
Nsg24
Nsg25
F-8.309
ssg26
I01
sba(iSong
Song
p2823
(dp2824
g3
(dp2825
g5
F0.00407
sg6
VRound Here
p2826
sg8
F141.977
sg9
F0.956
sg10
S'country'
p2827
sg12
F0.0379
sg13
VFlorida Georgia Line
p2828
sg15
I9999
sg16
F0.523
sg17
Nsg18
Nsg19
Nsg20
I0
sg21
F0.13797798096760258
sg22
F0.888
sg23
Nsg24
Nsg25
F-3.053
ssg26
I01
sba(iSong
Song
p2829
(dp2830
g3
(dp2831
g5
F0.12
sg6
VYours
p2832
sg8
F133.975
sg9
F0.796
sg10
S'country'
p2833
sg12
F0.0313
sg13
VRussell Dickerson
p2834
sg15
I9999
sg16
F0.568
sg17
Nsg18
Nsg19
Nsg20
I0
sg21
F0.13797798096760258
sg22
F0.573
sg23
Nsg24
Nsg25
F-5.308
ssg26
I01
sba(iSong
Song
p2835
(dp2836
g3
(dp2837
g5
F0.0266
sg6
VMind Reader
p2838
sg8
F162.053
sg9
F0.8
sg10
S'country'
p2839
sg12
F0.0413
sg13
VDustin Lynch
p2840
sg15
I9999
sg16
F0.394
sg17
Nsg18
Nsg19
Nsg20
I0
sg21
F0.13797798096760258
sg22
F0.525
sg23
Nsg24
Nsg25
F-4.17
ssg26
I01
sba(iSong
Song
p2841
(dp2842
g3
(dp2843
g5
F0.166
sg6
VRebound
p2844
sg8
F135.97
sg9
F0.795
sg10
S'country'
p2845
sg12
F0.0302
sg13
VDrew Baldridge
p2846
sg15
I9999
sg16
F0.599
sg17
Nsg18
Nsg19
Nsg20
F4.23e-06
sg21
F0.13797798096760258
sg22
F0.566
sg23
Nsg24
Nsg25
F-4.47
ssg26
I01
sba(iSong
Song
p2847
(dp2848
g3
(dp2849
g5
F0.013
sg6
VSleep Without You
p2850
sg8
F88.541
sg9
F0.716
sg10
S'country'
p2851
sg12
F0.0432
sg13
VBrett Young
p2852
sg15
I9999
sg16
F0.631
sg17
Nsg18
Nsg19
Nsg20
I0
sg21
F0.13797798096760258
sg22
F0.647
sg23
Nsg24
Nsg25
F-5.713
ssg26
I01
sba(iSong
Song
p2853
(dp2854
g3
(dp2855
g5
F0.255
sg6
VSure Be Cool If You Did
p2856
sg8
F136.802
sg9
F0.726
sg10
S'country'
p2857
sg12
F0.035
sg13
VBlake Shelton
p2858
sg15
I9999
sg16
F0.576
sg17
Nsg18
Nsg19
Nsg20
I0
sg21
F0.13797798096760258
sg22
F0.582
sg23
Nsg24
Nsg25
F-4.625
ssg26
I01
sba(iSong
Song
p2859
(dp2860
g3
(dp2861
g5
F0.0406
sg6
VMay We All
p2862
sg8
F75.019
sg9
F0.915
sg10
S'country'
p2863
sg12
F0.0389
sg13
VFlorida Georgia Line
p2864
sg15
I9999
sg16
F0.488
sg17
Nsg18
Nsg19
Nsg20
I0
sg21
F0.13797798096760258
sg22
F0.646
sg23
Nsg24
Nsg25
F-4.255
ssg26
I01
sba(iSong
Song
p2865
(dp2866
g3
(dp2867
g5
F0.178
sg6
VRecord Year
p2868
sg8
F159.96
sg9
F0.655
sg10
S'country'
p2869
sg12
F0.12
sg13
VEric Church
p2870
sg15
I9999
sg16
F0.585
sg17
Nsg18
Nsg19
Nsg20
I0
sg21
F0.13797798096760258
sg22
F0.574
sg23
Nsg24
Nsg25
F-8.151
ssg26
I01
sba(iSong
Song
p2871
(dp2872
g3
(dp2873
g5
F0.606
sg6
VBlue Ain't Your Color
p2874
sg8
F82.407
sg9
F0.417
sg10
S'country'
p2875
sg12
F0.0363
sg13
VKeith Urban
p2876
sg15
I9999
sg16
F0.686
sg17
Nsg18
Nsg19
Nsg20
F1.79e-06
sg21
F0.13797798096760258
sg22
F0.451
sg23
Nsg24
Nsg25
F-7.787
ssg26
I01
sba(iSong
Song
p2877
(dp2878
g3
(dp2879
g5
F0.0919
sg6
VHead Over Boots
p2880
sg8
F108.078
sg9
F0.669
sg10
S'country'
p2881
sg12
F0.0237
sg13
VJon Pardi
p2882
sg15
I9999
sg16
F0.637
sg17
Nsg18
Nsg19
Nsg20
I0
sg21
F0.13797798096760258
sg22
F0.638
sg23
Nsg24
Nsg25
F-4.608
ssg26
I01
sba(iSong
Song
p2883
(dp2884
g3
(dp2885
g5
F0.0318
sg6
VT-Shirt
p2886
sg8
F95.996
sg9
F0.857
sg10
S'country'
p2887
sg12
F0.0397
sg13
VThomas Rhett
p2888
sg15
I9999
sg16
F0.647
sg17
Nsg18
Nsg19
Nsg20
I0
sg21
F0.13797798096760258
sg22
F0.771
sg23
Nsg24
Nsg25
F-5.381
ssg26
I01
sba(iSong
Song
p2889
(dp2890
g3
(dp2891
g5
F0.00167
sg6
VHoney Bee
p2892
sg8
F205.57
sg9
F0.849
sg10
S'country'
p2893
sg12
F0.0385
sg13
VBlake Shelton
p2894
sg15
I9999
sg16
F0.481
sg17
Nsg18
Nsg19
Nsg20
F1.49e-06
sg21
F0.13797798096760258
sg22
F0.723
sg23
Nsg24
Nsg25
F-5.131
ssg26
I01
sba(iSong
Song
p2895
(dp2896
g3
(dp2897
g5
F0.0661
sg6
VDirt
p2898
sg8
F121.976
sg9
F0.875
sg10
S'country'
p2899
sg12
F0.0487
sg13
VFlorida Georgia Line
p2900
sg15
I9999
sg16
F0.554
sg17
Nsg18
Nsg19
Nsg20
F1.59e-05
sg21
F0.13797798096760258
sg22
F0.543
sg23
Nsg24
Nsg25
F-4.185
ssg26
I01
sba(iSong
Song
p2901
(dp2902
g3
(dp2903
g5
F0.305
sg6
VSnapback
p2904
sg8
F100.991
sg9
F0.793
sg10
S'country'
p2905
sg12
F0.0333
sg13
VOld Dominion
p2906
sg15
I9999
sg16
F0.687
sg17
Nsg18
Nsg19
Nsg20
F3.23e-06
sg21
F0.13797798096760258
sg22
F0.673
sg23
Nsg24
Nsg25
F-3.577
ssg26
I01
sba(iSong
Song
p2907
(dp2908
g3
(dp2909
g5
F0.456
sg6
VWagon Wheel
p2910
sg8
F148.102
sg9
F0.663
sg10
S'country'
p2911
sg12
F0.0306
sg13
VDarius Rucker
p2912
sg15
I9999
sg16
F0.529
sg17
Nsg18
Nsg19
Nsg20
I0
sg21
F0.13797798096760258
sg22
F0.592
sg23
Nsg24
Nsg25
F-7.138
ssg26
I01
sba(iSong
Song
p2913
(dp2914
g3
(dp2915
g5
F0.0371
sg6
VRunnin' Outta Moonlight
p2916
sg8
F172.05
sg9
F0.801
sg10
S'country'
p2917
sg12
F0.0393
sg13
VRandy Houser
p2918
sg15
I9999
sg16
F0.532
sg17
Nsg18
Nsg19
Nsg20
F7.07e-06
sg21
F0.13797798096760258
sg22
F0.799
sg23
Nsg24
Nsg25
F-3.759
ssg26
I01
sba(iSong
Song
p2919
(dp2920
g3
(dp2921
g5
F0.0575
sg6
VNight Train
p2922
sg8
F158.037
sg9
F0.708
sg10
S'country'
p2923
sg12
F0.0291
sg13
VJason Aldean
p2924
sg15
I9999
sg16
F0.493
sg17
Nsg18
Nsg19
Nsg20
I0
sg21
F0.13797798096760258
sg22
F0.547
sg23
Nsg24
Nsg25
F-5.196
ssg26
I01
sba(iSong
Song
p2925
(dp2926
g3
(dp2927
g5
F0.00172
sg6
VAnything Goes
p2928
sg8
F154.038
sg9
F0.977
sg10
S'country'
p2929
sg12
F0.045
sg13
VFlorida Georgia Line
p2930
sg15
I9999
sg16
F0.462
sg17
Nsg18
Nsg19
Nsg20
I0
sg21
F0.13797798096760258
sg22
F0.746
sg23
Nsg24
Nsg25
F-3.805
ssg26
I01
sba(iSong
Song
p2931
(dp2932
g3
(dp2933
g5
F0.017
sg6
VSangria
p2934
sg8
F115.984
sg9
F0.724
sg10
S'country'
p2935
sg12
F0.0265
sg13
VBlake Shelton
p2936
sg15
I9999
sg16
F0.646
sg17
Nsg18
Nsg19
Nsg20
F1.39e-06
sg21
F0.13797798096760258
sg22
F0.54
sg23
Nsg24
Nsg25
F-6.96
ssg26
I01
sba(iSong
Song
p2937
(dp2938
g3
(dp2939
g5
F0.0539
sg6
VI Want Crazy - Encore
p2940
sg8
F103.029
sg9
F0.878
sg10
S'country'
p2941
sg12
F0.0387
sg13
VHunter Hayes
p2942
sg15
I9999
sg16
F0.562
sg17
Nsg18
Nsg19
Nsg20
I0
sg21
F0.13797798096760258
sg22
F0.558
sg23
Nsg24
Nsg25
F-4.806
ssg26
I01
sba(iSong
Song
p2943
(dp2944
g3
(dp2945
g5
F0.0282
sg6
VI'm Comin' Over
p2946
sg8
F127.997
sg9
F0.845
sg10
S'country'
p2947
sg12
F0.035
sg13
VChris Young
p2948
sg15
I9999
sg16
F0.575
sg17
Nsg18
Nsg19
Nsg20
I0
sg21
F0.13797798096760258
sg22
F0.376
sg23
Nsg24
Nsg25
F-3.838
ssg26
I01
sba(iSong
Song
p2949
(dp2950
g3
(dp2951
g5
F0.275
sg6
VI Like The Sound Of That
p2952
sg8
F89.964
sg9
F0.813
sg10
S'country'
p2953
sg12
F0.0368
sg13
VRascal Flatts
p2954
sg15
I9999
sg16
F0.609
sg17
Nsg18
Nsg19
Nsg20
I0
sg21
F0.13797798096760258
sg22
F0.54
sg23
Nsg24
Nsg25
F-5.599
ssg26
I01
sba(iSong
Song
p2955
(dp2956
g3
(dp2957
g5
F0.00512
sg6
VDrunk On A Plane
p2958
sg8
F205.958
sg9
F0.754
sg10
S'country'
p2959
sg12
F0.0323
sg13
VDierks Bentley
p2960
sg15
I9999
sg16
F0.439
sg17
Nsg18
Nsg19
Nsg20
F7.45e-06
sg21
F0.13797798096760258
sg22
F0.668
sg23
Nsg24
Nsg25
F-5.566
ssg26
I01
sba(iSong
Song
p2961
(dp2962
g3
(dp2963
g5
F0.101
sg6
VConfession
p2964
sg8
F104.986
sg9
F0.873
sg10
S'country'
p2965
sg12
F0.0348
sg13
VFlorida Georgia Line
p2966
sg15
I9999
sg16
F0.556
sg17
Nsg18
Nsg19
Nsg20
F0.000131
sg21
F0.13797798096760258
sg22
F0.48
sg23
Nsg24
Nsg25
F-5.056
ssg26
I01
sba(iSong
Song
p2967
(dp2968
g3
(dp2969
g5
F0.241
sg6
VNight's On Fire
p2970
sg8
F164.077
sg9
F0.779
sg10
S'country'
p2971
sg12
F0.0454
sg13
VDavid Nail
p2972
sg15
I9999
sg16
F0.543
sg17
Nsg18
Nsg19
Nsg20
I0
sg21
F0.13797798096760258
sg22
F0.758
sg23
Nsg24
Nsg25
F-4.131
ssg26
I01
sba(iSong
Song
p2973
(dp2974
g3
(dp2975
g5
F0.0471
sg6
VEvery Storm (Runs Out Of Rain)
p2976
sg8
F107.001
sg9
F0.722
sg10
S'country'
p2977
sg12
F0.0341
sg13
VGary Allan
p2978
sg15
I9999
sg16
F0.533
sg17
Nsg18
Nsg19
Nsg20
F8.99e-06
sg21
F0.13797798096760258
sg22
F0.396
sg23
Nsg24
Nsg25
F-6.817
ssg26
I01
sba(iSong
Song
p2979
(dp2980
g3
(dp2981
g5
F0.000937
sg6
VThink of You
p2982
sg8
F111.959
sg9
F0.893
sg10
S'country'
p2983
sg12
F0.0375
sg13
VChris Young
p2984
sg15
I9999
sg16
F0.616
sg17
Nsg18
Nsg19
Nsg20
I0
sg21
F0.13797798096760258
sg22
F0.567
sg23
Nsg24
Nsg25
F-3.588
ssg26
I01
sba(iSong
Song
p2985
(dp2986
g3
(dp2987
g5
F0.0832
sg6
VPlay It Again
p2988
sg8
F144.056
sg9
F0.898
sg10
S'country'
p2989
sg12
F0.0696
sg13
VLuke Bryan
p2990
sg15
I9999
sg16
F0.51
sg17
Nsg18
Nsg19
Nsg20
I0
sg21
F0.13797798096760258
sg22
F0.596
sg23
Nsg24
Nsg25
F-3.15
ssg26
I01
sba(iSong
Song
p2991
(dp2992
g3
(dp2993
g5
F0.129
sg6
VHouse Party
p2994
sg8
F103.952
sg9
F0.854
sg10
S'country'
p2995
sg12
F0.0503
sg13
VSam Hunt
p2996
sg15
I9999
sg16
F0.749
sg17
Nsg18
Nsg19
Nsg20
I0
sg21
F0.13797798096760258
sg22
F0.842
sg23
Nsg24
Nsg25
F-5.245
ssg26
I01
sba(iSong
Song
p2997
(dp2998
g3
(dp2999
g5
F0.385
sg6
VH.O.L.Y.
p3000
sg8
F78.003
sg9
F0.685
sg10
S'country'
p3001
sg12
F0.0351
sg13
VFlorida Georgia Line
p3002
sg15
I9999
sg16
F0.525
sg17
Nsg18
Nsg19
Nsg20
I0
sg21
F0.13797798096760258
sg22
F0.54
sg23
Nsg24
Nsg25
F-3.954
ssg26
I01
sba(iSong
Song
p3003
(dp3004
g3
(dp3005
g5
F0.693
sg6
VHumble And Kind
p3006
sg8
F101.053
sg9
F0.486
sg10
S'country'
p3007
sg12
F0.0289
sg13
VTim McGraw
p3008
sg15
I9999
sg16
F0.349
sg17
Nsg18
Nsg19
Nsg20
F1.73e-06
sg21
F0.13797798096760258
sg22
F0.158
sg23
Nsg24
Nsg25
F-7.232
ssg26
I01
sba(iSong
Song
p3009
(dp3010
g3
(dp3011
g5
F0.0119
sg6
VHard To Love
p3012
sg8
F103.017
sg9
F0.722
sg10
S'country'
p3013
sg12
F0.0332
sg13
VLee Brice
p3014
sg15
I9999
sg16
F0.638
sg17
Nsg18
Nsg19
Nsg20
F0.00808
sg21
F0.13797798096760258
sg22
F0.469
sg23
Nsg24
Nsg25
F-6.177
ssg26
I01
sba(iSong
Song
p3015
(dp3016
g3
(dp3017
g5
F0.0718
sg6
VBreak Up with Him
p3018
sg8
F152.086
sg9
F0.65
sg10
S'country'
p3019
sg12
F0.0347
sg13
VOld Dominion
p3020
sg15
I9999
sg16
F0.615
sg17
Nsg18
Nsg19
Nsg20
I0
sg21
F0.13797798096760258
sg22
F0.548
sg23
Nsg24
Nsg25
F-4.944
ssg26
I01
sba(iSong
Song
p3021
(dp3022
g3
(dp3023
g5
F0.0102
sg6
VYours If You Want It
p3024
sg8
F113.054
sg9
F0.91
sg10
S'country'
p3025
sg12
F0.0566
sg13
VRascal Flatts
p3026
sg15
I9999
sg16
F0.533
sg17
Nsg18
Nsg19
Nsg20
I0
sg21
F0.13797798096760258
sg22
F0.494
sg23
Nsg24
Nsg25
F-3.087
ssg26
I01
sba(iSong
Song
p3027
(dp3028
g3
(dp3029
g5
F0.381
sg6
VDie A Happy Man
p3030
sg8
F83.096
sg9
F0.383
sg10
S'country'
p3031
sg12
F0.0304
sg13
VThomas Rhett
p3032
sg15
I9999
sg16
F0.66
sg17
Nsg18
Nsg19
Nsg20
I0
sg21
F0.13797798096760258
sg22
F0.381
sg23
Nsg24
Nsg25
F-9.377
ssg26
I01
sba(iSong
Song
p3033
(dp3034
g3
(dp3035
g5
F0.014
sg6
VParachute
p3036
sg8
F113.033
sg9
F0.749
sg10
S'country'
p3037
sg12
F0.0297
sg13
VChris Stapleton
p3038
sg15
I9999
sg16
F0.639
sg17
Nsg18
Nsg19
Nsg20
F3.52e-05
sg21
F0.13797798096760258
sg22
F0.648
sg23
Nsg24
Nsg25
F-7.327
ssg26
I01
sba(iSong
Song
p3039
(dp3040
g3
(dp3041
g5
F0.0435
sg6
VAutomatic
p3042
sg8
F95.993
sg9
F0.703
sg10
S'country'
p3043
sg12
F0.0256
sg13
VMiranda Lambert
p3044
sg15
I9999
sg16
F0.591
sg17
Nsg18
Nsg19
Nsg20
F2.34e-06
sg21
F0.13797798096760258
sg22
F0.402
sg23
Nsg24
Nsg25
F-6.211
ssg26
I01
sba(iSong
Song
p3045
(dp3046
g3
(dp3047
g5
F0.0408
sg6
VStay A Little Longer
p3048
sg8
F97.006
sg9
F0.882
sg10
S'country'
p3049
sg12
F0.0294
sg13
VBrothers Osborne
p3050
sg15
I9999
sg16
F0.553
sg17
Nsg18
Nsg19
Nsg20
F0.241
sg21
F0.13797798096760258
sg22
F0.529
sg23
Nsg24
Nsg25
F-5.515
ssg26
I01
sba(iSong
Song
p3051
(dp3052
g3
(dp3053
g5
F0.168
sg6
VMake You Miss Me
p3054
sg8
F146.026
sg9
F0.468
sg10
S'country'
p3055
sg12
F0.0314
sg13
VSam Hunt
p3056
sg15
I9999
sg16
F0.612
sg17
Nsg18
Nsg19
Nsg20
I0
sg21
F0.13797798096760258
sg22
F0.165
sg23
Nsg24
Nsg25
F-6.597
ssg26
I01
sba(iSong
Song
p3057
(dp3058
g3
(dp3059
g5
F0.119
sg6
VTil Tomorrow
p3060
sg8
F156.98
sg9
F0.834
sg10
S'country'
p3061
sg12
F0.0553
sg13
VWalker McGuire
p3062
sg15
I9999
sg16
F0.46
sg17
Nsg18
Nsg19
Nsg20
F9.12e-06
sg21
F0.13797798096760258
sg22
F0.29
sg23
Nsg24
Nsg25
F-4.749
ssg26
I01
sba(iSong
Song
p3063
(dp3064
g3
(dp3065
g5
F0.1
sg6
VSpringsteen
p3066
sg8
F104.023
sg9
F0.809
sg10
S'country'
p3067
sg12
F0.0255
sg13
VEric Church
p3068
sg15
I9999
sg16
F0.692
sg17
Nsg18
Nsg19
Nsg20
F9.77e-05
sg21
F0.13797798096760258
sg22
F0.927
sg23
Nsg24
Nsg25
F-5.935
ssg26
I01
sba(iSong
Song
p3069
(dp3070
g3
(dp3071
g5
F0.0127
sg6
VLove You Like That
p3072
sg8
F145.129
sg9
F0.756
sg10
S'country'
p3073
sg12
F0.0287
sg13
VCanaan Smith
p3074
sg15
I9999
sg16
F0.561
sg17
Nsg18
Nsg19
Nsg20
F8.34e-05
sg21
F0.13797798096760258
sg22
F0.702
sg23
Nsg24
Nsg25
F-5.056
ssg26
I01
sba(iSong
Song
p3075
(dp3076
g3
(dp3077
g5
F0.00265
sg6
VGet Your Shine On
p3078
sg8
F96.993
sg9
F0.93
sg10
S'country'
p3079
sg12
F0.0372
sg13
VFlorida Georgia Line
p3080
sg15
I9999
sg16
F0.508
sg17
Nsg18
Nsg19
Nsg20
F2.64e-06
sg21
F0.13797798096760258
sg22
F0.607
sg23
Nsg24
Nsg25
F-4.518
ssg26
I01
sba(iSong
Song
p3081
(dp3082
g3
(dp3083
g5
F0.399
sg6
VI Don't Dance
p3084
sg8
F92.036
sg9
F0.559
sg10
S'country'
p3085
sg12
F0.0321
sg13
VLee Brice
p3086
sg15
I9999
sg16
F0.587
sg17
Nsg18
Nsg19
Nsg20
F6.69e-06
sg21
F0.13797798096760258
sg22
F0.19
sg23
Nsg24
Nsg25
F-7.742
ssg26
I01
sba(iSong
Song
p3087
(dp3088
g3
(dp3089
g5
F0.125
sg6
VSong for Another Time
p3090
sg8
F166.048
sg9
F0.805
sg10
S'country'
p3091
sg12
F0.0332
sg13
VOld Dominion
p3092
sg15
I9999
sg16
F0.497
sg17
Nsg18
Nsg19
Nsg20
I0
sg21
F0.13797798096760258
sg22
F0.696
sg23
Nsg24
Nsg25
F-3.995
ssg26
I01
sba(iSong
Song
p3093
(dp3094
g3
(dp3095
g5
F0.0914
sg6
VFix
p3096
sg8
F100.011
sg9
F0.896
sg10
S'country'
p3097
sg12
F0.0375
sg13
VChris Lane
p3098
sg15
I9999
sg16
F0.532
sg17
Nsg18
Nsg19
Nsg20
I0
sg21
F0.13797798096760258
sg22
F0.696
sg23
Nsg24
Nsg25
F-1.954
ssg26
I01
sba(iSong
Song
p3099
(dp3100
g3
(dp3101
g5
F0.0721
sg6
VEverything's Gonna Be Alright
p3102
sg8
F89.98
sg9
F0.587
sg10
S'country'
p3103
sg12
F0.0298
sg13
VDavid Lee Murphy
p3104
sg15
I9999
sg16
F0.764
sg17
Nsg18
Nsg19
Nsg20
F6.45e-06
sg21
F0.13797798096760258
sg22
F0.494
sg23
Nsg24
Nsg25
F-7.002
ssg26
I01
sba(iSong
Song
p3105
(dp3106
g3
(dp3107
g5
F0.253
sg6
VDon't Waste the Night
p3108
sg8
F109.945
sg9
F0.699
sg10
S'country'
p3109
sg12
F0.0323
sg13
VLevi Hummon
p3110
sg15
I9999
sg16
F0.568
sg17
Nsg18
Nsg19
Nsg20
I0
sg21
F0.13797798096760258
sg22
F0.553
sg23
Nsg24
Nsg25
F-4.866
ssg26
I01
sba(iSong
Song
p3111
(dp3112
g3
(dp3113
g5
F0.0125
sg6
VGuns & Roses
p3114
sg8
F156.028
sg9
F0.882
sg10
S'country'
p3115
sg12
F0.0646
sg13
VDrew Baldridge
p3116
sg15
I9999
sg16
F0.633
sg17
Nsg18
Nsg19
Nsg20
I0
sg21
F0.13797798096760258
sg22
F0.722
sg23
Nsg24
Nsg25
F-5.12
ssg26
I01
sba(iSong
Song
p3117
(dp3118
g3
(dp3119
g5
F0.00585
sg6
VOne Number Away
p3120
sg8
F144.075
sg9
F0.781
sg10
S'country'
p3121
sg12
F0.0311
sg13
VLuke Combs
p3122
sg15
I9999
sg16
F0.544
sg17
Nsg18
Nsg19
Nsg20
I0
sg21
F0.13797798096760258
sg22
F0.527
sg23
Nsg24
Nsg25
F-6.16
ssg26
I01
sba(iSong
Song
p3123
(dp3124
g3
(dp3125
g5
F0.401
sg6
VSway
p3126
sg8
F97.004
sg9
F0.724
sg10
S'country'
p3127
sg12
F0.0273
sg13
VDanielle Bradbery
p3128
sg15
I9999
sg16
F0.695
sg17
Nsg18
Nsg19
Nsg20
I0
sg21
F0.13797798096760258
sg22
F0.606
sg23
Nsg24
Nsg25
F-4.521
ssg26
I01
sba(iSong
Song
p3129
(dp3130
g3
(dp3131
g5
F0.144
sg6
VAll On Me
p3132
sg8
F80.996
sg9
F0.658
sg10
S'country'
p3133
sg12
F0.0281
sg13
VDevin Dawson
p3134
sg15
I9999
sg16
F0.631
sg17
Nsg18
Nsg19
Nsg20
I0
sg21
F0.13797798096760258
sg22
F0.7
sg23
Nsg24
Nsg25
F-5.313
ssg26
I01
sba(iSong
Song
p3135
(dp3136
g3
(dp3137
g5
F0.0351
sg6
VStupid
p3138
sg8
F92.021
sg9
F0.868
sg10
S'country'
p3139
sg12
F0.0384
sg13
VLevi Hummon
p3140
sg15
I9999
sg16
F0.588
sg17
Nsg18
Nsg19
Nsg20
I0
sg21
F0.13797798096760258
sg22
F0.559
sg23
Nsg24
Nsg25
F-4.904
ssg26
I01
sba(iSong
Song
p3141
(dp3142
g3
(dp3143
g5
F0.0913
sg6
VUp Down (Feat. Florida Georgia Line)
p3144
sg8
F129.928
sg9
F0.881
sg10
S'country'
p3145
sg12
F0.0349
sg13
VMorgan Wallen
p3146
sg15
I9999
sg16
F0.59
sg17
Nsg18
Nsg19
Nsg20
I0
sg21
F0.13797798096760258
sg22
F0.734
sg23
Nsg24
Nsg25
F-2.898
ssg26
I01
sba(iSong
Song
p3147
(dp3148
g3
(dp3149
g5
F0.334
sg6
VGet to You
p3150
sg8
F167.938
sg9
F0.565
sg10
S'country'
p3151
sg12
F0.0326
sg13
VMichael Ray
p3152
sg15
I9999
sg16
F0.486
sg17
Nsg18
Nsg19
Nsg20
F0.00041
sg21
F0.13797798096760258
sg22
F0.21
sg23
Nsg24
Nsg25
F-5.655
ssg26
I01
sba(iSong
Song
p3153
(dp3154
g3
(dp3155
g5
F0.0466
sg6
VSeeing Blind
p3156
sg8
F93.957
sg9
F0.571
sg10
S'country'
p3157
sg12
F0.0405
sg13
VNiall Horan
p3158
sg15
I9999
sg16
F0.709
sg17
Nsg18
Nsg19
Nsg20
I0
sg21
F0.13797798096760258
sg22
F0.51
sg23
Nsg24
Nsg25
F-7.617
ssg26
I01
sba(iSong
Song
p3159
(dp3160
g3
(dp3161
g5
F0.259
sg6
VThey Can't See
p3162
sg8
F93.907
sg9
F0.571
sg10
S'country'
p3163
sg12
F0.0326
sg13
VMichael Tyler
p3164
sg15
I9999
sg16
F0.638
sg17
Nsg18
Nsg19
Nsg20
I0
sg21
F0.13797798096760258
sg22
F0.629
sg23
Nsg24
Nsg25
F-6.722
ssg26
I01
sba(iSong
Song
p3165
(dp3166
g3
(dp3167
g5
F0.0525
sg6
VAll Over
p3168
sg8
F89.987
sg9
F0.776
sg10
S'country'
p3169
sg12
F0.0641
sg13
VCale Dodds
p3170
sg15
I9999
sg16
F0.576
sg17
Nsg18
Nsg19
Nsg20
I0
sg21
F0.13797798096760258
sg22
F0.577
sg23
Nsg24
Nsg25
F-4.975
ssg26
I01
sba(iSong
Song
p3171
(dp3172
g3
(dp3173
g5
F0.143
sg6
VKiss Somebody
p3174
sg8
F178.01
sg9
F0.681
sg10
S'country'
p3175
sg12
F0.075
sg13
VMorgan Evans
p3176
sg15
I9999
sg16
F0.492
sg17
Nsg18
Nsg19
Nsg20
I0
sg21
F0.13797798096760258
sg22
F0.511
sg23
Nsg24
Nsg25
F-7.038
ssg26
I01
sba(iSong
Song
p3177
(dp3178
g3
(dp3179
g5
F0.0208
sg6
VBlue Jean Baby
p3180
sg8
F86.992
sg9
F0.701
sg10
S'country'
p3181
sg12
F0.0347
sg13
VJimmie Allen
p3182
sg15
I9999
sg16
F0.642
sg17
Nsg18
Nsg19
Nsg20
I0
sg21
F0.13797798096760258
sg22
F0.834
sg23
Nsg24
Nsg25
F-6.383
ssg26
I01
sba(iSong
Song
p3183
(dp3184
g3
(dp3185
g5
F0.0738
sg6
VSleeves
p3186
sg8
F95.122
sg9
F0.622
sg10
S'country'
p3187
sg12
F0.0362
sg13
VJake Rose
p3188
sg15
I9999
sg16
F0.716
sg17
Nsg18
Nsg19
Nsg20
I0
sg21
F0.13797798096760258
sg22
F0.367
sg23
Nsg24
Nsg25
F-6.416
ssg26
I01
sba(iSong
Song
p3189
(dp3190
g3
(dp3191
g5
F0.0141
sg6
VHow Does It Sound
p3192
sg8
F82.007
sg9
F0.761
sg10
S'country'
p3193
sg12
F0.0287
sg13
VDylan Schneider
p3194
sg15
I9999
sg16
F0.536
sg17
Nsg18
Nsg19
Nsg20
I0
sg21
F0.13797798096760258
sg22
F0.495
sg23
Nsg24
Nsg25
F-5.532
ssg26
I01
sba(iSong
Song
p3195
(dp3196
g3
(dp3197
g5
F0.0362
sg6
VHooked
p3198
sg8
F132.054
sg9
F0.721
sg10
S'country'
p3199
sg12
F0.0356
sg13
VDylan Scott
p3200
sg15
I9999
sg16
F0.597
sg17
Nsg18
Nsg19
Nsg20
I0
sg21
F0.13797798096760258
sg22
F0.437
sg23
Nsg24
Nsg25
F-6.422
ssg26
I01
sba(iSong
Song
p3201
(dp3202
g3
(dp3203
g5
F0.219
sg6
VPut It in a Song
p3204
sg8
F122.502
sg9
F0.753
sg10
S'country'
p3205
sg12
F0.0856
sg13
VTaylor Acorn
p3206
sg15
I9999
sg16
F0.426
sg17
Nsg18
Nsg19
Nsg20
I0
sg21
F0.13797798096760258
sg22
F0.706
sg23
Nsg24
Nsg25
F-3.628
ssg26
I01
sba(iSong
Song
p3207
(dp3208
g3
(dp3209
g5
F0.263
sg6
VHeaven
p3210
sg8
F80.009
sg9
F0.556
sg10
S'country'
p3211
sg12
F0.0306
sg13
VKane Brown
p3212
sg15
I9999
sg16
F0.677
sg17
Nsg18
Nsg19
Nsg20
I0
sg21
F0.13797798096760258
sg22
F0.521
sg23
Nsg24
Nsg25
F-6.544
ssg26
I01
sba(iSong
Song
p3213
(dp3214
g3
(dp3215
g5
F0.0205
sg6
VSomebody to Thank
p3216
sg8
F135.966
sg9
F0.675
sg10
S'country'
p3217
sg12
F0.0263
sg13
VLogan Mize
p3218
sg15
I9999
sg16
F0.615
sg17
Nsg18
Nsg19
Nsg20
I0
sg21
F0.13797798096760258
sg22
F0.512
sg23
Nsg24
Nsg25
F-4.717
ssg26
I01
sba(iSong
Song
p3219
(dp3220
g3
(dp3221
g5
F0.0383
sg6
VDiane
p3222
sg8
F141.045
sg9
F0.869
sg10
S'country'
p3223
sg12
F0.125
sg13
VCam
p3224
sg15
I9999
sg16
F0.545
sg17
Nsg18
Nsg19
Nsg20
I0
sg21
F0.13797798096760258
sg22
F0.204
sg23
Nsg24
Nsg25
F-1.832
ssg26
I01
sba(iSong
Song
p3225
(dp3226
g3
(dp3227
g5
F0.0274
sg6
VSame Beer Different Day
p3228
sg8
F117.009
sg9
F0.865
sg10
S'country'
p3229
sg12
F0.0417
sg13
VAustin Jenckes
p3230
sg15
I9999
sg16
F0.604
sg17
Nsg18
Nsg19
Nsg20
F0.00766
sg21
F0.13797798096760258
sg22
F0.354
sg23
Nsg24
Nsg25
F-5.773
ssg26
I01
sba(iSong
Song
p3231
(dp3232
g3
(dp3233
g5
F0.203
sg6
VAirplane
p3234
sg8
F138.094
sg9
F0.761
sg10
S'country'
p3235
sg12
F0.0373
sg13
VCJ Solar
p3236
sg15
I9999
sg16
F0.481
sg17
Nsg18
Nsg19
Nsg20
I0
sg21
F0.13797798096760258
sg22
F0.505
sg23
Nsg24
Nsg25
F-3.782
ssg26
I01
sba(iSong
Song
p3237
(dp3238
g3
(dp3239
g5
F0.0528
sg6
VFound You
p3240
sg8
F164.144
sg9
F0.821
sg10
S'country'
p3241
sg12
F0.0404
sg13
VKane Brown
p3242
sg15
I9999
sg16
F0.46
sg17
Nsg18
Nsg19
Nsg20
I0
sg21
F0.13797798096760258
sg22
F0.438
sg23
Nsg24
Nsg25
F-5.333
ssg26
I01
sba(iSong
Song
p3243
(dp3244
g3
(dp3245
g5
F0.0441
sg6
VSingles You Up
p3246
sg8
F200.054
sg9
F0.9
sg10
S'country'
p3247
sg12
F0.0488
sg13
VJordan Davis
p3248
sg15
I9999
sg16
F0.489
sg17
Nsg18
Nsg19
Nsg20
I0
sg21
F0.13797798096760258
sg22
F0.611
sg23
Nsg24
Nsg25
F-3.563
ssg26
I01
sba(iSong
Song
p3249
(dp3250
g3
(dp3251
g5
F0.168
sg6
VProof Is on Your Lips
p3252
sg8
F143.926
sg9
F0.807
sg10
S'country'
p3253
sg12
F0.033
sg13
VRyan Robinette
p3254
sg15
I9999
sg16
F0.455
sg17
Nsg18
Nsg19
Nsg20
I0
sg21
F0.13797798096760258
sg22
F0.685
sg23
Nsg24
Nsg25
F-5.053
ssg26
I01
sba(iSong
Song
p3255
(dp3256
g3
(dp3257
g5
F0.534
sg6
VLet Me Help You With That
p3258
sg8
F117.907
sg9
F0.449
sg10
S'country'
p3259
sg12
F0.0362
sg13
VPayton Smith
p3260
sg15
I9999
sg16
F0.685
sg17
Nsg18
Nsg19
Nsg20
I0
sg21
F0.13797798096760258
sg22
F0.253
sg23
Nsg24
Nsg25
F-7.797
ssg26
I01
sba(iSong
Song
p3261
(dp3262
g3
(dp3263
g5
F0.216
sg6
VOut of My System
p3264
sg8
F92.134
sg9
F0.897
sg10
S'country'
p3265
sg12
F0.0964
sg13
VCale Dodds
p3266
sg15
I9999
sg16
F0.57
sg17
Nsg18
Nsg19
Nsg20
I0
sg21
F0.13797798096760258
sg22
F0.547
sg23
Nsg24
Nsg25
F-4.62
ssg26
I01
sba(iSong
Song
p3267
(dp3268
g3
(dp3269
g5
F0.269
sg6
VThankful For
p3270
sg8
F106.937
sg9
F0.911
sg10
S'country'
p3271
sg12
F0.0487
sg13
VAdam Sanders
p3272
sg15
I9999
sg16
F0.555
sg17
Nsg18
Nsg19
Nsg20
I0
sg21
F0.13797798096760258
sg22
F0.768
sg23
Nsg24
Nsg25
F-3.174
ssg26
I01
sba(iSong
Song
p3273
(dp3274
g3
(dp3275
g5
F0.0109
sg6
VRollin' - Single Mix
p3276
sg8
F101.984
sg9
F0.927
sg10
S'country'
p3277
sg12
F0.0434
sg13
VJackson Michelson
p3278
sg15
I9999
sg16
F0.682
sg17
Nsg18
Nsg19
Nsg20
F2.26e-06
sg21
F0.13797798096760258
sg22
F0.82
sg23
Nsg24
Nsg25
F-4.328
ssg26
I01
sba(iSong
Song
p3279
(dp3280
g3
(dp3281
g5
F0.302
sg6
VSpeakers, Bleachers And Preachers
p3282
sg8
F96.02
sg9
F0.625
sg10
S'country'
p3283
sg12
F0.0258
sg13
VBrandon Lay
p3284
sg15
I9999
sg16
F0.603
sg17
Nsg18
Nsg19
Nsg20
I0
sg21
F0.13797798096760258
sg22
F0.651
sg23
Nsg24
Nsg25
F-6.563
ssg26
I01
sba(iSong
Song
p3285
(dp3286
g3
(dp3287
g5
F0.216
sg6
VWe Were That Song
p3288
sg8
F102.956
sg9
F0.911
sg10
S'country'
p3289
sg12
F0.05
sg13
VBrett Kissel
p3290
sg15
I9999
sg16
F0.618
sg17
Nsg18
Nsg19
Nsg20
I0
sg21
F0.13797798096760258
sg22
F0.501
sg23
Nsg24
Nsg25
F-3.323
ssg26
I01
sba(iSong
Song
p3291
(dp3292
g3
(dp3293
g5
F0.323
sg6
VEyes On You
p3294
sg8
F97.155
sg9
F0.652
sg10
S'country'
p3295
sg12
F0.0281
sg13
VChase Rice
p3296
sg15
I9999
sg16
F0.606
sg17
Nsg18
Nsg19
Nsg20
I0
sg21
F0.13797798096760258
sg22
F0.476
sg23
Nsg24
Nsg25
F-6.982
ssg26
I01
sba(iSong
Song
p3297
(dp3298
g3
(dp3299
g5
F0.047
sg6
VMeant to Be (feat. Florida Georgia Line)
p3300
sg8
F154.084
sg9
F0.783
sg10
S'country'
p3301
sg12
F0.0856
sg13
VBebe Rexha
p3302
sg15
I9999
sg16
F0.643
sg17
Nsg18
Nsg19
Nsg20
I0
sg21
F0.13797798096760258
sg22
F0.579
sg23
Nsg24
Nsg25
F-6.458
ssg26
I01
sba(iSong
Song
p3303
(dp3304
g3
(dp3305
g5
F0.031
sg6
VEnds of the Earth
p3306
sg8
F85.966
sg9
F0.774
sg10
S'country'
p3307
sg12
F0.04
sg13
VBrandon Ray
p3308
sg15
I9999
sg16
F0.541
sg17
Nsg18
Nsg19
Nsg20
F1.91e-06
sg21
F0.13797798096760258
sg22
F0.671
sg23
Nsg24
Nsg25
F-6.105
ssg26
I01
sba(iSong
Song
p3309
(dp3310
g3
(dp3311
g5
F0.178
sg6
VI Got This
p3312
sg8
F115.006
sg9
F0.701
sg10
S'country'
p3313
sg12
F0.0367
sg13
VJerrod Niemann
p3314
sg15
I9999
sg16
F0.803
sg17
Nsg18
Nsg19
Nsg20
F0.000106
sg21
F0.13797798096760258
sg22
F0.799
sg23
Nsg24
Nsg25
F-7.45
ssg26
I01
sba(iSong
Song
p3315
(dp3316
g3
(dp3317
g5
F0.353
sg6
VWhole Lot in Love
p3318
sg8
F112.027
sg9
F0.715
sg10
S'country'
p3319
sg12
F0.0377
sg13
VAustin Burke
p3320
sg15
I9999
sg16
F0.791
sg17
Nsg18
Nsg19
Nsg20
I0
sg21
F0.13797798096760258
sg22
F0.593
sg23
Nsg24
Nsg25
F-5.809
ssg26
I01
sba(iSong
Song
p3321
(dp3322
g3
(dp3323
g5
F0.00733
sg6
VSunday Morning
p3324
sg8
F90.005
sg9
F0.716
sg10
S'country'
p3325
sg12
F0.0342
sg13
VParmalee
p3326
sg15
I9999
sg16
F0.584
sg17
Nsg18
Nsg19
Nsg20
I0
sg21
F0.13797798096760258
sg22
F0.525
sg23
Nsg24
Nsg25
F-4.737
ssg26
I01
sba(iSong
Song
p3327
(dp3328
g3
(dp3329
g5
F0.0806
sg6
VWild West
p3330
sg8
F139.7
sg9
F0.589
sg10
S'country'
p3331
sg12
F0.032
sg13
VRunaway June
p3332
sg15
I9999
sg16
F0.462
sg17
Nsg18
Nsg19
Nsg20
I0
sg21
F0.13797798096760258
sg22
F0.238
sg23
Nsg24
Nsg25
F-5.264
ssg26
I01
sba(iSong
Song
p3333
(dp3334
g3
(dp3335
g5
F0.0652
sg6
VI Still Pick Up
p3336
sg8
F200.029
sg9
F0.819
sg10
S'country'
p3337
sg12
F0.0613
sg13
VJohn King
p3338
sg15
I9999
sg16
F0.474
sg17
Nsg18
Nsg19
Nsg20
I0
sg21
F0.13797798096760258
sg22
F0.793
sg23
Nsg24
Nsg25
F-4.446
ssg26
I01
sba(iSong
Song
p3339
(dp3340
g3
(dp3341
g5
F0.211
sg6
VMore
p3342
sg8
F120.027
sg9
F0.883
sg10
S'country'
p3343
sg12
F0.0551
sg13
VHunter Hayes
p3344
sg15
I9999
sg16
F0.56
sg17
Nsg18
Nsg19
Nsg20
I0
sg21
F0.13797798096760258
sg22
F0.575
sg23
Nsg24
Nsg25
F-4.938
ssg26
I01
sba(iSong
Song
p3345
(dp3346
g3
(dp3347
g5
F0.496
sg6
VYou Broke Up with Me
p3348
sg8
F120.013
sg9
F0.711
sg10
S'country'
p3349
sg12
F0.061
sg13
VWalker Hayes
p3350
sg15
I9999
sg16
F0.846
sg17
Nsg18
Nsg19
Nsg20
I0
sg21
F0.13797798096760258
sg22
F0.883
sg23
Nsg24
Nsg25
F-7.939
ssg26
I01
sba(iSong
Song
p3351
(dp3352
g3
(dp3353
g5
F0.081
sg6
VI Got You
p3354
sg8
F91.93
sg9
F0.88
sg10
S'country'
p3355
sg12
F0.0731
sg13
VJosh Mirenda
p3356
sg15
I9999
sg16
F0.49
sg17
Nsg18
Nsg19
Nsg20
I0
sg21
F0.13797798096760258
sg22
F0.493
sg23
Nsg24
Nsg25
F-5.185
ssg26
I01
sba(iSong
Song
p3357
(dp3358
g3
(dp3359
g5
F0.414
sg6
VIt All Looks Good from Here
p3360
sg8
F78.023
sg9
F0.901
sg10
S'country'
p3361
sg12
F0.042
sg13
VWilson Brothers Band
p3362
sg15
I9999
sg16
F0.483
sg17
Nsg18
Nsg19
Nsg20
F1.59e-06
sg21
F0.13797798096760258
sg22
F0.597
sg23
Nsg24
Nsg25
F-1.781
ssg26
I01
sba(iSong
Song
p3363
(dp3364
g3
(dp3365
g5
F0.025
sg6
VNo Problem
p3366
sg8
F164.032
sg9
F0.898
sg10
S'country'
p3367
sg12
F0.0365
sg13
VDylan Schneider
p3368
sg15
I9999
sg16
F0.489
sg17
Nsg18
Nsg19
Nsg20
F4.11e-06
sg21
F0.13797798096760258
sg22
F0.763
sg23
Nsg24
Nsg25
F-4.369
ssg26
I01
sba(iSong
Song
p3369
(dp3370
g3
(dp3371
g5
F0.163
sg6
VStill Believe in Crazy Love
p3372
sg8
F106.063
sg9
F0.661
sg10
S'country'
p3373
sg12
F0.0312
sg13
VRyan Kinder
p3374
sg15
I9999
sg16
F0.57
sg17
Nsg18
Nsg19
Nsg20
F0.00388
sg21
F0.13797798096760258
sg22
F0.247
sg23
Nsg24
Nsg25
F-6.595
ssg26
I01
sba(iSong
Song
p3375
(dp3376
g3
(dp3377
g5
F0.108
sg6
VWhen You're Gone
p3378
sg8
F161.974
sg9
F0.715
sg10
S'country'
p3379
sg12
F0.0375
sg13
VSmithfield
p3380
sg15
I9999
sg16
F0.592
sg17
Nsg18
Nsg19
Nsg20
I0
sg21
F0.13797798096760258
sg22
F0.671
sg23
Nsg24
Nsg25
F-5.164
ssg26
I01
sba(iSong
Song
p3381
(dp3382
g3
(dp3383
g5
F0.368
sg6
VTake Back Home Girl (Feat. Tori Kelly)
p3384
sg8
F159.708
sg9
F0.78
sg10
S'country'
p3385
sg12
F0.064
sg13
VChris Lane
p3386
sg15
I9999
sg16
F0.494
sg17
Nsg18
Nsg19
Nsg20
I0
sg21
F0.13797798096760258
sg22
F0.664
sg23
Nsg24
Nsg25
F-3.825
ssg26
I01
sba(iSong
Song
p3387
(dp3388
g3
(dp3389
g5
F0.107
sg6
VMysteries of the World
p3390
sg8
F143.947
sg9
F0.742
sg10
S'country'
p3391
sg12
F0.0291
sg13
VWalker McGuire
p3392
sg15
I9999
sg16
F0.548
sg17
Nsg18
Nsg19
Nsg20
I0
sg21
F0.13797798096760258
sg22
F0.3
sg23
Nsg24
Nsg25
F-4.768
ssg26
I01
sba(iSong
Song
p3393
(dp3394
g3
(dp3395
g5
F0.178
sg6
VStill Crazy
p3396
sg8
F144.032
sg9
F0.569
sg10
S'country'
p3397
sg12
F0.0812
sg13
VJeffrey East
p3398
sg15
I9999
sg16
F0.767
sg17
Nsg18
Nsg19
Nsg20
I0
sg21
F0.13797798096760258
sg22
F0.683
sg23
Nsg24
Nsg25
F-7.069
ssg26
I01
sba(iSong
Song
p3399
(dp3400
g3
(dp3401
g5
F0.0141
sg6
VDevil and You
p3402
sg8
F160.007
sg9
F0.883
sg10
S'country'
p3403
sg12
F0.0697
sg13
VOlivia Lane
p3404
sg15
I9999
sg16
F0.583
sg17
Nsg18
Nsg19
Nsg20
F2.09e-05
sg21
F0.13797798096760258
sg22
F0.713
sg23
Nsg24
Nsg25
F-4.421
ssg26
I01
sba(iSong
Song
p3405
(dp3406
g3
(dp3407
g5
F0.042
sg6
VLook At You
p3408
sg8
F104.027
sg9
F0.625
sg10
S'country'
p3409
sg12
F0.0284
sg13
VSeth Ennis
p3410
sg15
I9999
sg16
F0.687
sg17
Nsg18
Nsg19
Nsg20
I0
sg21
F0.13797798096760258
sg22
F0.866
sg23
Nsg24
Nsg25
F-6.942
ssg26
I01
sba(iSong
Song
p3411
(dp3412
g3
(dp3413
g5
F0.049
sg6
VAlmost Over You
p3414
sg8
F101.069
sg9
F0.892
sg10
S'country'
p3415
sg12
F0.0525
sg13
VJessie James Decker
p3416
sg15
I9999
sg16
F0.556
sg17
Nsg18
Nsg19
Nsg20
F0.00053
sg21
F0.13797798096760258
sg22
F0.264
sg23
Nsg24
Nsg25
F-2.841
ssg26
I01
sba(iSong
Song
p3417
(dp3418
g3
(dp3419
g5
F0.161
sg6
VRun
p3420
sg8
F96.972
sg9
F0.787
sg10
S'country'
p3421
sg12
F0.0338
sg13
VJosh Dorr
p3422
sg15
I9999
sg16
F0.609
sg17
Nsg18
Nsg19
Nsg20
F1.63e-06
sg21
F0.13797798096760258
sg22
F0.564
sg23
Nsg24
Nsg25
F-5.305
ssg26
I01
sba(iSong
Song
p3423
(dp3424
g3
(dp3425
g5
F0.209
sg6
VHome for the Weekend
p3426
sg8
F102.032
sg9
F0.712
sg10
S'country'
p3427
sg12
F0.0307
sg13
VRoss Ellis
p3428
sg15
I9999
sg16
F0.669
sg17
Nsg18
Nsg19
Nsg20
I0
sg21
F0.13797798096760258
sg22
F0.636
sg23
Nsg24
Nsg25
F-5.701
ssg26
I01
sba(iSong
Song
p3429
(dp3430
g3
(dp3431
g5
F0.463
sg6
VBody Like A Back Road
p3432
sg8
F98.963
sg9
F0.469
sg10
S'country'
p3433
sg12
F0.0326
sg13
VSam Hunt
p3434
sg15
I9999
sg16
F0.731
sg17
Nsg18
Nsg19
Nsg20
F1.04e-06
sg21
F0.13797798096760258
sg22
F0.631
sg23
Nsg24
Nsg25
F-7.226
ssg26
I01
sba(iSong
Song
p3435
(dp3436
g3
(dp3437
g5
F0.0294
sg6
VUnforgettable
p3438
sg8
F130.074
sg9
F0.745
sg10
S'country'
p3439
sg12
F0.0307
sg13
VThomas Rhett
p3440
sg15
I9999
sg16
F0.66
sg17
Nsg18
Nsg19
Nsg20
F0.0002
sg21
F0.13797798096760258
sg22
F0.828
sg23
Nsg24
Nsg25
F-5.499
ssg26
I01
sba(iSong
Song
p3441
(dp3442
g3
(dp3443
g5
F0.00898
sg6
VWhat Ifs
p3444
sg8
F125.976
sg9
F0.799
sg10
S'country'
p3445
sg12
F0.0275
sg13
VKane Brown
p3446
sg15
I9999
sg16
F0.612
sg17
Nsg18
Nsg19
Nsg20
I0
sg21
F0.13797798096760258
sg22
F0.687
sg23
Nsg24
Nsg25
F-4.603
ssg26
I01
sba(iSong
Song
p3447
(dp3448
g3
(dp3449
g5
F0.357
sg6
VIn Case You Didn't Know
p3450
sg8
F148.003
sg9
F0.542
sg10
S'country'
p3451
sg12
F0.0304
sg13
VBrett Young
p3452
sg15
I9999
sg16
F0.599
sg17
Nsg18
Nsg19
Nsg20
I0
sg21
F0.13797798096760258
sg22
F0.383
sg23
Nsg24
Nsg25
F-7.274
ssg26
I01
sba(iSong
Song
p3453
(dp3454
g3
(dp3455
g5
F0.013
sg6
VWhen It Rains It Pours
p3456
sg8
F128.027
sg9
F0.801
sg10
S'country'
p3457
sg12
F0.0303
sg13
VLuke Combs
p3458
sg15
I9999
sg16
F0.551
sg17
Nsg18
Nsg19
Nsg20
F6.03e-06
sg21
F0.13797798096760258
sg22
F0.625
sg23
Nsg24
Nsg25
F-5.069
ssg26
I01
sba(iSong
Song
p3459
(dp3460
g3
(dp3461
g5
F0.189
sg6
VHappens Like That
p3462
sg8
F81.045
sg9
F0.807
sg10
S'country'
p3463
sg12
F0.0825
sg13
VGranger Smith
p3464
sg15
I9999
sg16
F0.557
sg17
Nsg18
Nsg19
Nsg20
I0
sg21
F0.13797798096760258
sg22
F0.578
sg23
Nsg24
Nsg25
F-5.428
ssg26
I01
sba(iSong
Song
p3465
(dp3466
g3
(dp3467
g5
F0.0617
sg6
VHeartache On The Dance Floor
p3468
sg8
F116.005
sg9
F0.824
sg10
S'country'
p3469
sg12
F0.0458
sg13
VJon Pardi
p3470
sg15
I9999
sg16
F0.594
sg17
Nsg18
Nsg19
Nsg20
I0
sg21
F0.13797798096760258
sg22
F0.671
sg23
Nsg24
Nsg25
F-4.252
ssg26
I01
sba(iSong
Song
p3471
(dp3472
g3
(dp3473
g5
F0.000907
sg6
VCraving You
p3474
sg8
F104.986
sg9
F0.841
sg10
S'country'
p3475
sg12
F0.0353
sg13
VThomas Rhett
p3476
sg15
I9999
sg16
F0.612
sg17
Nsg18
Nsg19
Nsg20
I0
sg21
F0.13797798096760258
sg22
F0.499
sg23
Nsg24
Nsg25
F-3.795
ssg26
I01
sba(iSong
Song
p3477
(dp3478
g3
(dp3479
g5
F0.0677
sg6
VLosing Sleep
p3480
sg8
F92.003
sg9
F0.628
sg10
S'country'
p3481
sg12
F0.0431
sg13
VChris Young
p3482
sg15
I9999
sg16
F0.587
sg17
Nsg18
Nsg19
Nsg20
F1.88e-06
sg21
F0.13797798096760258
sg22
F0.649
sg23
Nsg24
Nsg25
F-5.703
ssg26
I01
sba(iSong
Song
p3483
(dp3484
g3
(dp3485
g5
F0.38
sg6
VGreatest Love Story
p3486
sg8
F147.975
sg9
F0.621
sg10
S'country'
p3487
sg12
F0.0524
sg13
VLANCO
p3488
sg15
I9999
sg16
F0.665
sg17
Nsg18
Nsg19
Nsg20
I0
sg21
F0.13797798096760258
sg22
F0.632
sg23
Nsg24
Nsg25
F-8.571
ssg26
I01
sba(iSong
Song
p3489
(dp3490
g3
(dp3491
g5
F0.0244
sg6
VSmall Town Boy
p3492
sg8
F73.033
sg9
F0.747
sg10
S'country'
p3493
sg12
F0.0292
sg13
VDustin Lynch
p3494
sg15
I9999
sg16
F0.553
sg17
Nsg18
Nsg19
Nsg20
I0
sg21
F0.13797798096760258
sg22
F0.711
sg23
Nsg24
Nsg25
F-5.905
ssg26
I01
sba(iSong
Song
p3495
(dp3496
g3
(dp3497
g5
F0.0186
sg6
VHurricane
p3498
sg8
F151.948
sg9
F0.821
sg10
S'country'
p3499
sg12
F0.0416
sg13
VLuke Combs
p3500
sg15
I9999
sg16
F0.444
sg17
Nsg18
Nsg19
Nsg20
F3.09e-06
sg21
F0.13797798096760258
sg22
F0.452
sg23
Nsg24
Nsg25
F-5.91
ssg26
I01
sba(iSong
Song
p3501
(dp3502
g3
(dp3503
g5
F0.566
sg6
VJolene
p3504
sg8
F110.578
sg9
F0.537
sg10
S'country'
p3505
sg12
F0.0363
sg13
VDolly Parton
p3506
sg15
I9999
sg16
F0.674
sg17
Nsg18
Nsg19
Nsg20
I0
sg21
F0.13797798096760258
sg22
F0.809
sg23
Nsg24
Nsg25
F-10.971
ssg26
I01
sba(iSong
Song
p3507
(dp3508
g3
(dp3509
g5
F0.122
sg6
VDo I Make You Wanna
p3510
sg8
F89.953
sg9
F0.751
sg10
S'country'
p3511
sg12
F0.0299
sg13
VBilly Currington
p3512
sg15
I9999
sg16
F0.549
sg17
Nsg18
Nsg19
Nsg20
I0
sg21
F0.13797798096760258
sg22
F0.493
sg23
Nsg24
Nsg25
F-5.423
ssg26
I01
sba(iSong
Song
p3513
(dp3514
g3
(dp3515
g5
F0.381
sg6
VDie A Happy Man
p3516
sg8
F83.096
sg9
F0.383
sg10
S'country'
p3517
sg12
F0.0304
sg13
VThomas Rhett
p3518
sg15
I9999
sg16
F0.66
sg17
Nsg18
Nsg19
Nsg20
I0
sg21
F0.13797798096760258
sg22
F0.381
sg23
Nsg24
Nsg25
F-9.377
ssg26
I01
sba(iSong
Song
p3519
(dp3520
g3
(dp3521
g5
F0.129
sg6
VLight It Up
p3522
sg8
F130.029
sg9
F0.935
sg10
S'country'
p3523
sg12
F0.0855
sg13
VLuke Bryan
p3524
sg15
I9999
sg16
F0.596
sg17
Nsg18
Nsg19
Nsg20
I0
sg21
F0.13797798096760258
sg22
F0.678
sg23
Nsg24
Nsg25
F-2.794
ssg26
I01
sba(iSong
Song
p3525
(dp3526
g3
(dp3527
g5
F0.496
sg6
VYou Broke Up with Me
p3528
sg8
F120.013
sg9
F0.711
sg10
S'country'
p3529
sg12
F0.061
sg13
VWalker Hayes
p3530
sg15
I9999
sg16
F0.846
sg17
Nsg18
Nsg19
Nsg20
I0
sg21
F0.13797798096760258
sg22
F0.883
sg23
Nsg24
Nsg25
F-7.939
ssg26
I01
sba(iSong
Song
p3531
(dp3532
g3
(dp3533
g5
F0.368
sg6
VTake Back Home Girl (Feat. Tori Kelly)
p3534
sg8
F159.708
sg9
F0.78
sg10
S'country'
p3535
sg12
F0.064
sg13
VChris Lane
p3536
sg15
I9999
sg16
F0.494
sg17
Nsg18
Nsg19
Nsg20
I0
sg21
F0.13797798096760258
sg22
F0.664
sg23
Nsg24
Nsg25
F-3.825
ssg26
I01
sba(iSong
Song
p3537
(dp3538
g3
(dp3539
g5
F0.179
sg6
VLike I Loved You
p3540
sg8
F76.02
sg9
F0.573
sg10
S'country'
p3541
sg12
F0.0292
sg13
VBrett Young
p3542
sg15
I9999
sg16
F0.579
sg17
Nsg18
Nsg19
Nsg20
I0
sg21
F0.13797798096760258
sg22
F0.637
sg23
Nsg24
Nsg25
F-5.991
ssg26
I01
sba(iSong
Song
p3543
(dp3544
g3
(dp3545
g5
F0.606
sg6
VBlue Ain't Your Color
p3546
sg8
F82.407
sg9
F0.417
sg10
S'country'
p3547
sg12
F0.0363
sg13
VKeith Urban
p3548
sg15
I9999
sg16
F0.686
sg17
Nsg18
Nsg19
Nsg20
F1.79e-06
sg21
F0.13797798096760258
sg22
F0.451
sg23
Nsg24
Nsg25
F-7.787
ssg26
I01
sba(iSong
Song
p3549
(dp3550
g3
(dp3551
g5
F0.385
sg6
VH.O.L.Y.
p3552
sg8
F78.003
sg9
F0.685
sg10
S'country'
p3553
sg12
F0.0351
sg13
VFlorida Georgia Line
p3554
sg15
I9999
sg16
F0.525
sg17
Nsg18
Nsg19
Nsg20
I0
sg21
F0.13797798096760258
sg22
F0.54
sg23
Nsg24
Nsg25
F-3.954
ssg26
I01
sba(iSong
Song
p3555
(dp3556
g3
(dp3557
g5
F0.593
sg6
VWritten in the Sand
p3558
sg8
F83.985
sg9
F0.437
sg10
S'country'
p3559
sg12
F0.0575
sg13
VOld Dominion
p3560
sg15
I9999
sg16
F0.725
sg17
Nsg18
Nsg19
Nsg20
I0
sg21
F0.13797798096760258
sg22
F0.759
sg23
Nsg24
Nsg25
F-9.602
ssg26
I01
sba(iSong
Song
p3561
(dp3562
g3
(dp3563
g5
F0.144
sg6
VAll On Me
p3564
sg8
F80.996
sg9
F0.658
sg10
S'country'
p3565
sg12
F0.0281
sg13
VDevin Dawson
p3566
sg15
I9999
sg16
F0.631
sg17
Nsg18
Nsg19
Nsg20
I0
sg21
F0.13797798096760258
sg22
F0.7
sg23
Nsg24
Nsg25
F-5.313
ssg26
I01
sba(iSong
Song
p3567
(dp3568
g3
(dp3569
g5
F0.713
sg6
VHurt
p3570
sg8
F91.469
sg9
F0.376
sg10
S'country'
p3571
sg12
F0.0288
sg13
VJohnny Cash
p3572
sg15
I9999
sg16
F0.545
sg17
Nsg18
Nsg19
Nsg20
F0.000389
sg21
F0.13797798096760258
sg22
F0.169
sg23
Nsg24
Nsg25
F-8.344
ssg26
I01
sba(iSong
Song
p3573
(dp3574
g3
(dp3575
g5
F0.163
sg6
VI'll Name the Dogs
p3576
sg8
F168.063
sg9
F0.852
sg10
S'country'
p3577
sg12
F0.0933
sg13
VBlake Shelton
p3578
sg15
I9999
sg16
F0.47
sg17
Nsg18
Nsg19
Nsg20
F2.04e-06
sg21
F0.13797798096760258
sg22
F0.773
sg23
Nsg24
Nsg25
F-5.874
ssg26
I01
sba(iSong
Song
p3579
(dp3580
g3
(dp3581
g5
F0.0528
sg6
VFound You
p3582
sg8
F164.144
sg9
F0.821
sg10
S'country'
p3583
sg12
F0.0404
sg13
VKane Brown
p3584
sg15
I9999
sg16
F0.46
sg17
Nsg18
Nsg19
Nsg20
I0
sg21
F0.13797798096760258
sg22
F0.438
sg23
Nsg24
Nsg25
F-5.333
ssg26
I01
sba(iSong
Song
p3585
(dp3586
g3
(dp3587
g5
F0.182
sg6
VFemale
p3588
sg8
F84.999
sg9
F0.474
sg10
S'country'
p3589
sg12
F0.0351
sg13
VKeith Urban
p3590
sg15
I9999
sg16
F0.562
sg17
Nsg18
Nsg19
Nsg20
F9.8e-05
sg21
F0.13797798096760258
sg22
F0.345
sg23
Nsg24
Nsg25
F-8.762
ssg26
I01
sba(iSong
Song
p3591
(dp3592
g3
(dp3593
g5
F0.127
sg6
VYours
p3594
sg8
F134.047
sg9
F0.725
sg10
S'country'
p3595
sg12
F0.034
sg13
VRussell Dickerson
p3596
sg15
I9999
sg16
F0.551
sg17
Nsg18
Nsg19
Nsg20
I0
sg21
F0.13797798096760258
sg22
F0.575
sg23
Nsg24
Nsg25
F-6.005
ssg26
I01
sba(iSong
Song
p3597
(dp3598
g3
(dp3599
g5
F0.263
sg6
VHeaven
p3600
sg8
F80.009
sg9
F0.556
sg10
S'country'
p3601
sg12
F0.0306
sg13
VKane Brown
p3602
sg15
I9999
sg16
F0.677
sg17
Nsg18
Nsg19
Nsg20
I0
sg21
F0.13797798096760258
sg22
F0.521
sg23
Nsg24
Nsg25
F-6.544
ssg26
I01
sba(iSong
Song
p3603
(dp3604
g3
(dp3605
g5
F0.214
sg6
VI Could Use a Love Song
p3606
sg8
F92.097
sg9
F0.634
sg10
S'country'
p3607
sg12
F0.0468
sg13
VMaren Morris
p3608
sg15
I9999
sg16
F0.638
sg17
Nsg18
Nsg19
Nsg20
I0
sg21
F0.13797798096760258
sg22
F0.473
sg23
Nsg24
Nsg25
F-6.474
ssg26
I01
sba(iSong
Song
p3609
(dp3610
g3
(dp3611
g5
F0.0558
sg6
VLegends
p3612
sg8
F112.029
sg9
F0.728
sg10
S'country'
p3613
sg12
F0.032
sg13
VKelsea Ballerini
p3614
sg15
I9999
sg16
F0.575
sg17
Nsg18
Nsg19
Nsg20
I0
sg21
F0.13797798096760258
sg22
F0.242
sg23
Nsg24
Nsg25
F-5.846
ssg26
I01
sba(iSong
Song
p3615
(dp3616
g3
(dp3617
g5
F0.214
sg6
VSmooth
p3618
sg8
F161.049
sg9
F0.848
sg10
S'country'
p3619
sg12
F0.0538
sg13
VFlorida Georgia Line
p3620
sg15
I9999
sg16
F0.471
sg17
Nsg18
Nsg19
Nsg20
F1.84e-05
sg21
F0.13797798096760258
sg22
F0.332
sg23
Nsg24
Nsg25
F-5.355
ssg26
I01
sba(iSong
Song
p3621
(dp3622
g3
(dp3623
g5
F0.17
sg6
VTennessee Whiskey
p3624
sg8
F101.624
sg9
F0.369
sg10
S'country'
p3625
sg12
F0.0317
sg13
VChris Stapleton
p3626
sg15
I9999
sg16
F0.472
sg17
Nsg18
Nsg19
Nsg20
F0.00618
sg21
F0.13797798096760258
sg22
F0.452
sg23
Nsg24
Nsg25
F-10.916
ssg26
I01
sba(iSong
Song
p3627
(dp3628
g3
(dp3629
g5
F0.0406
sg6
VMay We All
p3630
sg8
F75.019
sg9
F0.915
sg10
S'country'
p3631
sg12
F0.0389
sg13
VFlorida Georgia Line
p3632
sg15
I9999
sg16
F0.488
sg17
Nsg18
Nsg19
Nsg20
I0
sg21
F0.13797798096760258
sg22
F0.646
sg23
Nsg24
Nsg25
F-4.255
ssg26
I01
sba(iSong
Song
p3633
(dp3634
g3
(dp3635
g5
F0.168
sg6
VMake You Miss Me
p3636
sg8
F146.026
sg9
F0.468
sg10
S'country'
p3637
sg12
F0.0314
sg13
VSam Hunt
p3638
sg15
I9999
sg16
F0.612
sg17
Nsg18
Nsg19
Nsg20
I0
sg21
F0.13797798096760258
sg22
F0.165
sg23
Nsg24
Nsg25
F-6.597
ssg26
I01
sba(iSong
Song
p3639
(dp3640
g3
(dp3641
g5
F0.0661
sg6
VHead Over Boots
p3642
sg8
F108.016
sg9
F0.676
sg10
S'country'
p3643
sg12
F0.027
sg13
VJon Pardi
p3644
sg15
I9999
sg16
F0.557
sg17
Nsg18
Nsg19
Nsg20
I0
sg21
F0.13797798096760258
sg22
F0.678
sg23
Nsg24
Nsg25
F-4.457
ssg26
I01
sba(iSong
Song
p3645
(dp3646
g3
(dp3647
g5
F0.265
sg6
VThe Long Way
p3648
sg8
F88.865
sg9
F0.637
sg10
S'country'
p3649
sg12
F0.0401
sg13
VBrett Eldredge
p3650
sg15
I9999
sg16
F0.488
sg17
Nsg18
Nsg19
Nsg20
I0
sg21
F0.13797798096760258
sg22
F0.23
sg23
Nsg24
Nsg25
F-7.63
ssg26
I01
sba(iSong
Song
p3651
(dp3652
g3
(dp3653
g5
F0.456
sg6
VWagon Wheel
p3654
sg8
F148.102
sg9
F0.663
sg10
S'country'
p3655
sg12
F0.0306
sg13
VDarius Rucker
p3656
sg15
I9999
sg16
F0.529
sg17
Nsg18
Nsg19
Nsg20
I0
sg21
F0.13797798096760258
sg22
F0.592
sg23
Nsg24
Nsg25
F-7.138
ssg26
I01
sba(iSong
Song
p3657
(dp3658
g3
(dp3659
g5
F0.0832
sg6
VPlay It Again
p3660
sg8
F144.056
sg9
F0.898
sg10
S'country'
p3661
sg12
F0.0696
sg13
VLuke Bryan
p3662
sg15
I9999
sg16
F0.51
sg17
Nsg18
Nsg19
Nsg20
I0
sg21
F0.13797798096760258
sg22
F0.596
sg23
Nsg24
Nsg25
F-3.15
ssg26
I01
sba(iSong
Song
p3663
(dp3664
g3
(dp3665
g5
F0.14
sg6
VStar Of The Show
p3666
sg8
F101.988
sg9
F0.624
sg10
S'country'
p3667
sg12
F0.027
sg13
VThomas Rhett
p3668
sg15
I9999
sg16
F0.691
sg17
Nsg18
Nsg19
Nsg20
I0
sg21
F0.13797798096760258
sg22
F0.662
sg23
Nsg24
Nsg25
F-5.874
ssg26
I01
sba(iSong
Song
p3669
(dp3670
g3
(dp3671
g5
F0.0352
sg6
VBackroad Song
p3672
sg8
F174.006
sg9
F0.833
sg10
S'country'
p3673
sg12
F0.0437
sg13
VGranger Smith
p3674
sg15
I9999
sg16
F0.488
sg17
Nsg18
Nsg19
Nsg20
F0.0172
sg21
F0.13797798096760258
sg22
F0.751
sg23
Nsg24
Nsg25
F-6.571
ssg26
I01
sba(iSong
Song
p3675
(dp3676
g3
(dp3677
g5
F0.193
sg6
VWhen the Good Guys Win
p3678
sg8
F142.044
sg9
F0.853
sg10
S'country'
p3679
sg12
F0.0365
sg13
VGranger Smith
p3680
sg15
I9999
sg16
F0.619
sg17
Nsg18
Nsg19
Nsg20
I0
sg21
F0.13797798096760258
sg22
F0.864
sg23
Nsg24
Nsg25
F-4.889
ssg26
I01
sba(iSong
Song
p3681
(dp3682
g3
(dp3683
g5
F0.263
sg6
VHometown Girl
p3684
sg8
F155.934
sg9
F0.79
sg10
S'country'
p3685
sg12
F0.035
sg13
VJosh Turner
p3686
sg15
I9999
sg16
F0.505
sg17
Nsg18
Nsg19
Nsg20
F0.0884
sg21
F0.13797798096760258
sg22
F0.445
sg23
Nsg24
Nsg25
F-5.442
ssg26
I01
sba(iSong
Song
p3687
(dp3688
g3
(dp3689
g5
F0.0441
sg6
VSingles You Up
p3690
sg8
F200.054
sg9
F0.9
sg10
S'country'
p3691
sg12
F0.0488
sg13
VJordan Davis
p3692
sg15
I9999
sg16
F0.489
sg17
Nsg18
Nsg19
Nsg20
I0
sg21
F0.13797798096760258
sg22
F0.611
sg23
Nsg24
Nsg25
F-3.563
ssg26
I01
sba(iSong
Song
p3693
(dp3694
g3
(dp3695
g5
F0.116
sg6
VDirt On My Boots
p3696
sg8
F90.008
sg9
F0.783
sg10
S'country'
p3697
sg12
F0.0276
sg13
VJon Pardi
p3698
sg15
I9999
sg16
F0.685
sg17
Nsg18
Nsg19
Nsg20
I0
sg21
F0.13797798096760258
sg22
F0.525
sg23
Nsg24
Nsg25
F-4.152
ssg26
I01
sba(iSong
Song
p3699
(dp3700
g3
(dp3701
g5
F0.0913
sg6
VUp Down (Feat. Florida Georgia Line)
p3702
sg8
F129.928
sg9
F0.881
sg10
S'country'
p3703
sg12
F0.0349
sg13
VMorgan Wallen
p3704
sg15
I9999
sg16
F0.59
sg17
Nsg18
Nsg19
Nsg20
I0
sg21
F0.13797798096760258
sg22
F0.734
sg23
Nsg24
Nsg25
F-2.898
ssg26
I01
sba(iSong
Song
p3705
(dp3706
g3
(dp3707
g5
F0.645
sg6
VChicken Fried
p3708
sg8
F169.864
sg9
F0.713
sg10
S'country'
p3709
sg12
F0.0417
sg13
VZac Brown Band
p3710
sg15
I9999
sg16
F0.566
sg17
Nsg18
Nsg19
Nsg20
I0
sg21
F0.13797798096760258
sg22
F0.807
sg23
Nsg24
Nsg25
F-4.25
ssg26
I01
sba(iSong
Song
p3711
(dp3712
g3
(dp3713
g5
F0.0362
sg6
VHooked
p3714
sg8
F132.054
sg9
F0.721
sg10
S'country'
p3715
sg12
F0.0356
sg13
VDylan Scott
p3716
sg15
I9999
sg16
F0.597
sg17
Nsg18
Nsg19
Nsg20
I0
sg21
F0.13797798096760258
sg22
F0.437
sg23
Nsg24
Nsg25
F-6.422
ssg26
I01
sba(iSong
Song
p3717
(dp3718
g3
(dp3719
g5
F0.129
sg6
VHouse Party
p3720
sg8
F103.952
sg9
F0.854
sg10
S'country'
p3721
sg12
F0.0503
sg13
VSam Hunt
p3722
sg15
I9999
sg16
F0.749
sg17
Nsg18
Nsg19
Nsg20
I0
sg21
F0.13797798096760258
sg22
F0.842
sg23
Nsg24
Nsg25
F-5.245
ssg26
I01
sba(iSong
Song
p3723
(dp3724
g3
(dp3725
g5
F0.333
sg6
VGod, Your Mama, And Me
p3726
sg8
F168.032
sg9
F0.802
sg10
S'country'
p3727
sg12
F0.054
sg13
VFlorida Georgia Line
p3728
sg15
I9999
sg16
F0.439
sg17
Nsg18
Nsg19
Nsg20
I0
sg21
F0.13797798096760258
sg22
F0.725
sg23
Nsg24
Nsg25
F-3.644
ssg26
I01
sba.