(lp0
(iSong
Song
p1
(dp2
S'attributes'
p3
(dp4
S'accousticness'
p5
F0.0253
sS'title'
p6
VNot Nice
p7
sS'tempo'
p8
F0.51224
sS'energy'
p9
F0.496
sS'from_playlist'
p10
S'r_b'
p11
sS'speechiness'
p12
F0.0804
sS'artist_name'
p13
VPARTYNEXTDOOR
p14
sS'cluster_id'
p15
I9999
sS'danceability'
p16
F0.598
sS'end_of_fade_in'
p17
NsS'loudness'
p18
F0.84485
sS'duration'
p19
NsS'artist_familiarity'
p20
NsS'rec_value'
p21
F0.2163638256898374
sS'valence'
p22
F0.725
sS'start_of_fade_out'
p23
NsS'artist_hotness'
p24
NsS'instrumentalness'
p25
F0.00132
ssS'isNormalized'
p26
I01
sS'hasData'
p27
I01
sba(iSong
Song
p28
(dp29
g3
(dp30
g5
F0.0526
sg6
VSlow Wine
p31
sg8
F0.261492
sg9
F0.681
sg10
S'r_b'
p32
sg12
F0.246
sg13
VJ-Soul
p33
sg15
I9999
sg16
F0.688
sg17
Nsg18
F0.95605
sg19
Nsg20
Nsg21
F0.2163638256898374
sg22
F0.592
sg23
Nsg24
Nsg25
I0
ssg26
I01
sg27
I01
sba(iSong
Song
p34
(dp35
g3
(dp36
g5
F0.156
sg6
VReminder
p37
sg8
F0.640364
sg9
F0.495
sg10
S'r_b'
p38
sg12
F0.22
sg13
VThe Weeknd
p39
sg15
I9999
sg16
F0.71
sg17
Nsg18
F0.8771833333333333
sg19
Nsg20
Nsg21
F0.2163638256898374
sg22
F0.396
sg23
Nsg24
Nsg25
I0
ssg26
I01
sg27
I01
sba(iSong
Song
p40
(dp41
g3
(dp42
g5
F0.42
sg6
VWe Can (feat. Tory Lanez)
p43
sg8
F0.53106
sg9
F0.618
sg10
S'r_b'
p44
sg12
F0.32
sg13
VKranium
p45
sg15
I9999
sg16
F0.552
sg17
Nsg18
F0.8873833333333334
sg19
Nsg20
Nsg21
F0.2163638256898374
sg22
F0.399
sg23
Nsg24
Nsg25
I0
ssg26
I01
sg27
I01
sba(iSong
Song
p46
(dp47
g3
(dp48
g5
F0.0134
sg6
VNobody's Better (feat. Fetty Wap)
p49
sg8
F0.404152
sg9
F0.661
sg10
S'r_b'
p50
sg12
F0.106
sg13
VZ
p51
sg15
I9999
sg16
F0.357
sg17
Nsg18
F0.8790166666666667
sg19
Nsg20
Nsg21
F0.2163638256898374
sg22
F0.541
sg23
Nsg24
Nsg25
I0
ssg26
I01
sg27
I01
sba(iSong
Song
p52
(dp53
g3
(dp54
g5
F0.184
sg6
VDistance
p55
sg8
F0.415512
sg9
F0.812
sg10
S'r_b'
p56
sg12
F0.215
sg13
VOmarion
p57
sg15
I9999
sg16
F0.774
sg17
Nsg18
F0.9092333333333333
sg19
Nsg20
Nsg21
F0.2163638256898374
sg22
F0.743
sg23
Nsg24
Nsg25
I0
ssg26
I01
sg27
I01
sba(iSong
Song
p58
(dp59
g3
(dp60
g5
F0.29
sg6
VComin Out Strong
p61
sg8
F0.435044
sg9
F0.481
sg10
S'r_b'
p62
sg12
F0.475
sg13
VFuture
p63
sg15
I9999
sg16
F0.628
sg17
Nsg18
F0.8704166666666667
sg19
Nsg20
Nsg21
F0.2163638256898374
sg22
F0.33
sg23
Nsg24
Nsg25
I0
ssg26
I01
sg27
I01
sba(iSong
Song
p64
(dp65
g3
(dp66
g5
F0.0521
sg6
VBlem
p67
sg8
F0.39206799999999997
sg9
F0.548
sg10
S'r_b'
p68
sg12
F0.0497
sg13
VDrake
p69
sg15
I9999
sg16
F0.724
sg17
Nsg18
F0.8656333333333334
sg19
Nsg20
Nsg21
F0.2163638256898374
sg22
F0.392
sg23
Nsg24
Nsg25
F7.4e-06
ssg26
I01
sg27
I01
sba(iSong
Song
p70
(dp71
g3
(dp72
g5
F0.0129
sg6
VLUV
p73
sg8
F0.55252
sg9
F0.532
sg10
S'r_b'
p74
sg12
F0.245
sg13
VTory Lanez
p75
sg15
I9999
sg16
F0.487
sg17
Nsg18
F0.8645166666666667
sg19
Nsg20
Nsg21
F0.2163638256898374
sg22
F0.243
sg23
Nsg24
Nsg25
I0
ssg26
I01
sg27
I01
sba(iSong
Song
p76
(dp77
g3
(dp78
g5
F0.153
sg6
VPrivacy
p79
sg8
F0.388368
sg9
F0.58
sg10
S'r_b'
p80
sg12
F0.378
sg13
VChris Brown
p81
sg15
I9999
sg16
F0.741
sg17
Nsg18
F0.8709833333333333
sg19
Nsg20
Nsg21
F0.2163638256898374
sg22
F0.428
sg23
Nsg24
Nsg25
I0
ssg26
I01
sg27
I01
sba(iSong
Song
p82
(dp83
g3
(dp84
g5
F0.356
sg6
VBody
p85
sg8
F0.40392
sg9
F0.796
sg10
S'r_b'
p86
sg12
F0.234
sg13
VSean Paul
p87
sg15
I9999
sg16
F0.573
sg17
Nsg18
F0.9418166666666666
sg19
Nsg20
Nsg21
F0.2163638256898374
sg22
F0.475
sg23
Nsg24
Nsg25
I0
ssg26
I01
sg27
I01
sba(iSong
Song
p88
(dp89
g3
(dp90
g5
F0.257
sg6
VOne I Want (feat. PARTYNEXTDOOR)
p91
sg8
F0.5598719999999999
sg9
F0.223
sg10
S'r_b'
p92
sg12
F0.321
sg13
VMajid Jordan
p93
sg15
I9999
sg16
F0.913
sg17
Nsg18
F0.7929833333333334
sg19
Nsg20
Nsg21
F0.2163638256898374
sg22
F0.35
sg23
Nsg24
Nsg25
F8.78e-05
ssg26
I01
sg27
I01
sba(iSong
Song
p94
(dp95
g3
(dp96
g5
F0.525
sg6
VI'm A Fan (feat. Jeremih)
p97
sg8
F0.384052
sg9
F0.619
sg10
S'r_b'
p98
sg12
F0.0839
sg13
VPia Mia
p99
sg15
I9999
sg16
F0.651
sg17
Nsg18
F0.9168666666666667
sg19
Nsg20
Nsg21
F0.2163638256898374
sg22
F0.562
sg23
Nsg24
Nsg25
I0
ssg26
I01
sg27
I01
sba(iSong
Song
p100
(dp101
g3
(dp102
g5
F0.0853
sg6
VSigns
p103
sg8
F0.429476
sg9
F0.734
sg10
S'r_b'
p104
sg12
F0.0524
sg13
VDrake
p105
sg15
I9999
sg16
F0.79
sg17
Nsg18
F0.9223333333333333
sg19
Nsg20
Nsg21
F0.2163638256898374
sg22
F0.223
sg23
Nsg24
Nsg25
F0.00409
ssg26
I01
sg27
I01
sba(iSong
Song
p106
(dp107
g3
(dp108
g5
F0.363
sg6
VF With U
p109
sg8
F0.392648
sg9
F0.52
sg10
S'r_b'
p110
sg12
F0.343
sg13
VKid Ink
p111
sg15
I9999
sg16
F0.54
sg17
Nsg18
F0.8801166666666667
sg19
Nsg20
Nsg21
F0.2163638256898374
sg22
F0.603
sg23
Nsg24
Nsg25
I0
ssg26
I01
sg27
I01
sba(iSong
Song
p112
(dp113
g3
(dp114
g5
F0.0381
sg6
VNobody Else But You
p115
sg8
F0.559652
sg9
F0.612
sg10
S'r_b'
p116
sg12
F0.122
sg13
VTrey Songz
p117
sg15
I9999
sg16
F0.708
sg17
Nsg18
F0.8936833333333334
sg19
Nsg20
Nsg21
F0.2163638256898374
sg22
F0.263
sg23
Nsg24
Nsg25
I0
ssg26
I01
sg27
I01
sba(iSong
Song
p118
(dp119
g3
(dp120
g5
F0.472
sg6
VCall Me
p121
sg8
F0.369516
sg9
F0.527
sg10
S'r_b'
p122
sg12
F0.0397
sg13
VRamriddlz
p123
sg15
I9999
sg16
F0.51
sg17
Nsg18
F0.8548833333333333
sg19
Nsg20
Nsg21
F0.2163638256898374
sg22
F0.597
sg23
Nsg24
Nsg25
I0
ssg26
I01
sg27
I01
sba(iSong
Song
p124
(dp125
g3
(dp126
g5
F0.33
sg6
VLocation
p127
sg8
F0.320504
sg9
F0.449
sg10
S'r_b'
p128
sg12
F0.425
sg13
VKhalid
p129
sg15
I9999
sg16
F0.736
sg17
Nsg18
F0.8089666666666666
sg19
Nsg20
Nsg21
F0.2163638256898374
sg22
F0.326
sg23
Nsg24
Nsg25
F0.000162
ssg26
I01
sg27
I01
sba(iSong
Song
p130
(dp131
g3
(dp132
g5
F0.127
sg6
VCome Closer
p133
sg8
F0.39989600000000003
sg9
F0.453
sg10
S'r_b'
p134
sg12
F0.227
sg13
VWizKid
p135
sg15
I9999
sg16
F0.825
sg17
Nsg18
F0.8761833333333333
sg19
Nsg20
Nsg21
F0.2163638256898374
sg22
F0.496
sg23
Nsg24
Nsg25
F3.82e-06
ssg26
I01
sg27
I01
sba(iSong
Song
p136
(dp137
g3
(dp138
g5
F0.18
sg6
VYour Number REMIX
p139
sg8
F0.400084
sg9
F0.595
sg10
S'r_b'
p140
sg12
F0.121
sg13
VAyo Jay
p141
sg15
I9999
sg16
F0.752
sg17
Nsg18
F0.8872833333333333
sg19
Nsg20
Nsg21
F0.2163638256898374
sg22
F0.746
sg23
Nsg24
Nsg25
I0
ssg26
I01
sg27
I01
sba(iSong
Song
p142
(dp143
g3
(dp144
g5
F0.0235
sg6
VA Lie
p145
sg8
F0.48475599999999996
sg9
F0.792
sg10
S'r_b'
p146
sg12
F0.216
sg13
VFrench Montana
p147
sg15
I9999
sg16
F0.516
sg17
Nsg18
F0.9103333333333333
sg19
Nsg20
Nsg21
F0.2163638256898374
sg22
F0.524
sg23
Nsg24
Nsg25
I0
ssg26
I01
sg27
I01
sba(iSong
Song
p148
(dp149
g3
(dp150
g5
F0.00304
sg6
VSelf-Made
p151
sg8
F0.5720040000000001
sg9
F0.702
sg10
S'r_b'
p152
sg12
F0.0903
sg13
VBryson Tiller
p153
sg15
I9999
sg16
F0.932
sg17
Nsg18
F0.9423499999999999
sg19
Nsg20
Nsg21
F0.2163638256898374
sg22
F0.53
sg23
Nsg24
Nsg25
F1.87e-05
ssg26
I01
sg27
I01
sba(iSong
Song
p154
(dp155
g3
(dp156
g5
F0.304
sg6
VPassionfruit
p157
sg8
F0.447852
sg9
F0.459
sg10
S'r_b'
p158
sg12
F0.039
sg13
VDrake
p159
sg15
I9999
sg16
F0.804
sg17
Nsg18
F0.8074
sg19
Nsg20
Nsg21
F0.2163638256898374
sg22
F0.372
sg23
Nsg24
Nsg25
F0.0862
ssg26
I01
sg27
I01
sba(iSong
Song
p160
(dp161
g3
(dp162
g5
F0.0714
sg6
VGwan Big Up Urself
p163
sg8
F0.360108
sg9
F0.527
sg10
S'r_b'
p164
sg12
F0.0388
sg13
VRoy Woods
p165
sg15
I9999
sg16
F0.674
sg17
Nsg18
F0.8767166666666667
sg19
Nsg20
Nsg21
F0.2163638256898374
sg22
F0.272
sg23
Nsg24
Nsg25
I0
ssg26
I01
sg27
I01
sba(iSong
Song
p166
(dp167
g3
(dp168
g5
F0.0293
sg6
VUnforgettable
p169
sg8
F0.39194
sg9
F0.769
sg10
S'r_b'
p170
sg12
F0.123
sg13
VFrench Montana
p171
sg15
I9999
sg16
F0.726
sg17
Nsg18
F0.91595
sg19
Nsg20
Nsg21
F0.2163638256898374
sg22
F0.733
sg23
Nsg24
Nsg25
F0.0101
ssg26
I01
sg27
I01
sba(iSong
Song
p172
(dp173
g3
(dp174
g5
F0.576
sg6
VPatient
p175
sg8
F0.35968
sg9
F0.654
sg10
S'r_b'
p176
sg12
F0.324
sg13
VPost Malone
p177
sg15
I9999
sg16
F0.497
sg17
Nsg18
F0.8962666666666667
sg19
Nsg20
Nsg21
F0.2163638256898374
sg22
F0.559
sg23
Nsg24
Nsg25
I0
ssg26
I01
sg27
I01
sba(iSong
Song
p178
(dp179
g3
(dp180
g5
F0.00746
sg6
VEx Calling
p181
sg8
F0.624072
sg9
F0.559
sg10
S'r_b'
p182
sg12
F0.258
sg13
V6LACK
p183
sg15
I9999
sg16
F0.782
sg17
Nsg18
F0.87425
sg19
Nsg20
Nsg21
F0.2163638256898374
sg22
F0.076
sg23
Nsg24
Nsg25
F1.74e-05
ssg26
I01
sg27
I01
sba(iSong
Song
p184
(dp185
g3
(dp186
g5
F0.0571
sg6
VAll Eyez (feat. Jeremih) [Bonus Track]
p187
sg8
F0.30734
sg9
F0.655
sg10
S'r_b'
p188
sg12
F0.247
sg13
VThe Game
p189
sg15
I9999
sg16
F0.419
sg17
Nsg18
F0.8886833333333333
sg19
Nsg20
Nsg21
F0.2163638256898374
sg22
F0.353
sg23
Nsg24
Nsg25
I0
ssg26
I01
sg27
I01
sba(iSong
Song
p190
(dp191
g3
(dp192
g5
F0.105
sg6
VSome Way
p193
sg8
F0.6198640000000001
sg9
F0.723
sg10
S'r_b'
p194
sg12
F0.347
sg13
VNAV
p195
sg15
I9999
sg16
F0.748
sg17
Nsg18
F0.89645
sg19
Nsg20
Nsg21
F0.2163638256898374
sg22
F0.35
sg23
Nsg24
Nsg25
I0
ssg26
I01
sg27
I01
sba(iSong
Song
p196
(dp197
g3
(dp198
g5
F0.319
sg6
V247
p199
sg8
F0.448376
sg9
F0.563
sg10
S'r_b'
p200
sg12
F0.301
sg13
VDavid Correy
p201
sg15
I9999
sg16
F0.468
sg17
Nsg18
F0.90255
sg19
Nsg20
Nsg21
F0.2163638256898374
sg22
F0.462
sg23
Nsg24
Nsg25
I0
ssg26
I01
sg27
I01
sba(iSong
Song
p202
(dp203
g3
(dp204
g5
F0.0912
sg6
VNever Enough (feat. Trey Songz)
p205
sg8
F0.39246
sg9
F0.404
sg10
S'r_b'
p206
sg12
F0.185
sg13
VMIKExANGEL
p207
sg15
I9999
sg16
F0.757
sg17
Nsg18
F0.8205333333333333
sg19
Nsg20
Nsg21
F0.2163638256898374
sg22
F0.383
sg23
Nsg24
Nsg25
I0
ssg26
I01
sg27
I01
sba(iSong
Song
p208
(dp209
g3
(dp210
g5
F0.388
sg6
VGrass Ain't Greener
p211
sg8
F0.535784
sg9
F0.601
sg10
S'r_b'
p212
sg12
F0.0496
sg13
VChris Brown
p213
sg15
I9999
sg16
F0.644
sg17
Nsg18
F0.91505
sg19
Nsg20
Nsg21
F0.2163638256898374
sg22
F0.518
sg23
Nsg24
Nsg25
I0
ssg26
I01
sg27
I01
sba(iSong
Song
p214
(dp215
g3
(dp216
g5
F0.0295
sg6
VOMG
p217
sg8
F0.559812
sg9
F0.576
sg10
S'r_b'
p218
sg12
F0.0536
sg13
VCamila Cabello
p219
sg15
I9999
sg16
F0.655
sg17
Nsg18
F0.88775
sg19
Nsg20
Nsg21
F0.2163638256898374
sg22
F0.167
sg23
Nsg24
Nsg25
F0.115
ssg26
I01
sg27
I01
sba(iSong
Song
p220
(dp221
g3
(dp222
g5
F0.0303
sg6
VSelfish
p223
sg8
F0.382984
sg9
F0.369
sg10
S'r_b'
p224
sg12
F0.0741
sg13
VFuture
p225
sg15
I9999
sg16
F0.415
sg17
Nsg18
F0.8326
sg19
Nsg20
Nsg21
F0.2163638256898374
sg22
F0.0913
sg23
Nsg24
Nsg25
F7.64e-06
ssg26
I01
sg27
I01
sba(iSong
Song
p226
(dp227
g3
(dp228
g5
F0.111
sg6
VLove Galore
p229
sg8
F0.540008
sg9
F0.594
sg10
S'r_b'
p230
sg12
F0.0747
sg13
VSZA
p231
sg15
I9999
sg16
F0.795
sg17
Nsg18
F0.8966666666666666
sg19
Nsg20
Nsg21
F0.2163638256898374
sg22
F0.409
sg23
Nsg24
Nsg25
I0
ssg26
I01
sg27
I01
sba(iSong
Song
p232
(dp233
g3
(dp234
g5
F0.245
sg6
VStuck On U
p235
sg8
F0.53938
sg9
F0.571
sg10
S'r_b'
p236
sg12
F0.15
sg13
VTory Lanez
p237
sg15
I9999
sg16
F0.638
sg17
Nsg18
F0.9029833333333334
sg19
Nsg20
Nsg21
F0.2163638256898374
sg22
F0.381
sg23
Nsg24
Nsg25
F9.8e-06
ssg26
I01
sg27
I01
sba(iSong
Song
p238
(dp239
g3
(dp240
g5
F0.215
sg6
VDirty Wine
p241
sg8
F0.39201600000000003
sg9
F0.659
sg10
S'r_b'
p242
sg12
F0.125
sg13
VWizKid
p243
sg15
I9999
sg16
F0.731
sg17
Nsg18
F0.9214666666666667
sg19
Nsg20
Nsg21
F0.2163638256898374
sg22
F0.539
sg23
Nsg24
Nsg25
I0
ssg26
I01
sg27
I01
sba(iSong
Song
p244
(dp245
g3
(dp246
g5
F0.0597
sg6
VKiss It Better - R3hab Remix
p247
sg8
F0.408048
sg9
F0.744
sg10
S'r_b'
p248
sg12
F0.0418
sg13
VRihanna
p249
sg15
I9999
sg16
F0.729
sg17
Nsg18
F0.9344833333333333
sg19
Nsg20
Nsg21
F0.2163638256898374
sg22
F0.456
sg23
Nsg24
Nsg25
I0
ssg26
I01
sg27
I01
sba(iSong
Song
p250
(dp251
g3
(dp252
g5
F0.075
sg6
VSwalla (feat. Nicki Minaj & Ty Dolla $ign)
p253
sg8
F0.392256
sg9
F0.817
sg10
S'r_b'
p254
sg12
F0.109
sg13
VJason Derulo
p255
sg15
I9999
sg16
F0.696
sg17
Nsg18
F0.9356333333333333
sg19
Nsg20
Nsg21
F0.2163638256898374
sg22
F0.782
sg23
Nsg24
Nsg25
I0
ssg26
I01
sg27
I01
sba(iSong
Song
p256
(dp257
g3
(dp258
g5
F0.0201
sg6
VLove U Better (feat. Lil Wayne & The-Dream)
p259
sg8
F0.4714
sg9
F0.477
sg10
S'r_b'
p260
sg12
F0.0503
sg13
VTy Dolla $ign
p261
sg15
I9999
sg16
F0.482
sg17
Nsg18
F0.8592666666666666
sg19
Nsg20
Nsg21
F0.2163638256898374
sg22
F0.379
sg23
Nsg24
Nsg25
I0
ssg26
I01
sg27
I01
sba(iSong
Song
p262
(dp263
g3
(dp264
g5
F0.0461
sg6
VFeelins
p265
sg8
F0.6005320000000001
sg9
F0.782
sg10
S'r_b'
p266
sg12
F0.223
sg13
VPnB Rock
p267
sg15
I9999
sg16
F0.626
sg17
Nsg18
F0.9325666666666667
sg19
Nsg20
Nsg21
F0.2163638256898374
sg22
F0.676
sg23
Nsg24
Nsg25
I0
ssg26
I01
sg27
I01
sba(iSong
Song
p268
(dp269
g3
(dp270
g5
F0.274
sg6
VHabaesha
p271
sg8
F0.4094
sg9
F0.7
sg10
S'r_b'
p272
sg12
F0.068
sg13
VRamriddlz
p273
sg15
I9999
sg16
F0.58
sg17
Nsg18
F0.8867999999999999
sg19
Nsg20
Nsg21
F0.2163638256898374
sg22
F0.579
sg23
Nsg24
Nsg25
F6.53e-06
ssg26
I01
sg27
I01
sba(iSong
Song
p274
(dp275
g3
(dp276
g5
F0.475
sg6
VHeld Me Down
p277
sg8
F0.479956
sg9
F0.423
sg10
S'r_b'
p278
sg12
F0.093
sg13
VNAV
p279
sg15
I9999
sg16
F0.824
sg17
Nsg18
F0.8631166666666666
sg19
Nsg20
Nsg21
F0.2163638256898374
sg22
F0.261
sg23
Nsg24
Nsg25
I0
ssg26
I01
sg27
I01
sba(iSong
Song
p280
(dp281
g3
(dp282
g5
F0.222
sg6
VDon't
p283
sg8
F0.388004
sg9
F0.356
sg10
S'r_b'
p284
sg12
F0.196
sg13
VBryson Tiller
p285
sg15
I9999
sg16
F0.765
sg17
Nsg18
F0.9074000000000001
sg19
Nsg20
Nsg21
F0.2163638256898374
sg22
F0.19
sg23
Nsg24
Nsg25
I0
ssg26
I01
sg27
I01
sba(iSong
Song
p286
(dp287
g3
(dp288
g5
F0.109
sg6
VYou Da Baddest
p289
sg8
F0.616092
sg9
F0.736
sg10
S'r_b'
p290
sg12
F0.151
sg13
VFuture
p291
sg15
I9999
sg16
F0.807
sg17
Nsg18
F0.8875333333333334
sg19
Nsg20
Nsg21
F0.2163638256898374
sg22
F0.54
sg23
Nsg24
Nsg25
F0.00729
ssg26
I01
sg27
I01
sba(iSong
Song
p292
(dp293
g3
(dp294
g5
F0.00316
sg6
VWait
p295
sg8
F0.579784
sg9
F0.665
sg10
S'r_b'
p296
sg12
F0.269
sg13
VAugust Alsina
p297
sg15
I9999
sg16
F0.569
sg17
Nsg18
F0.873
sg19
Nsg20
Nsg21
F0.2163638256898374
sg22
F0.343
sg23
Nsg24
Nsg25
F5.76e-06
ssg26
I01
sg27
I01
sba(iSong
Song
p298
(dp299
g3
(dp300
g5
F0.128
sg6
Vrockstar
p301
sg8
F0.639144
sg9
F0.531
sg10
S'r_b'
p302
sg12
F0.0776
sg13
VPost Malone
p303
sg15
I9999
sg16
F0.58
sg17
Nsg18
F0.8894833333333333
sg19
Nsg20
Nsg21
F0.2163638256898374
sg22
F0.141
sg23
Nsg24
Nsg25
F0.000127
ssg26
I01
sg27
I01
sba(iSong
Song
p304
(dp305
g3
(dp306
g5
F0.0511
sg6
VCome and See Me (feat. Drake)
p307
sg8
F0.339948
sg9
F0.347
sg10
S'r_b'
p308
sg12
F0.0636
sg13
VPARTYNEXTDOOR
p309
sg15
I9999
sg16
F0.717
sg17
Nsg18
F0.8289166666666666
sg19
Nsg20
Nsg21
F0.2163638256898374
sg22
F0.0589
sg23
Nsg24
Nsg25
F2.43e-06
ssg26
I01
sg27
I01
sba(iSong
Song
p310
(dp311
g3
(dp312
g5
F0.271
sg6
VDon't Choose
p313
sg8
F0.560184
sg9
F0.335
sg10
S'r_b'
p314
sg12
F0.325
sg13
Vdvsn
p315
sg15
I9999
sg16
F0.603
sg17
Nsg18
F0.8364166666666667
sg19
Nsg20
Nsg21
F0.2163638256898374
sg22
F0.199
sg23
Nsg24
Nsg25
F0.0089
ssg26
I01
sg27
I01
sba(iSong
Song
p316
(dp317
g3
(dp318
g5
F0.309
sg6
VEither Way
p319
sg8
F0.712072
sg9
F0.659
sg10
S'r_b'
p320
sg12
F0.155
sg13
VSnakehips
p321
sg15
I9999
sg16
F0.635
sg17
Nsg18
F0.9179999999999999
sg19
Nsg20
Nsg21
F0.2163638256898374
sg22
F0.54
sg23
Nsg24
Nsg25
I0
ssg26
I01
sg27
I01
sba(iSong
Song
p322
(dp323
g3
(dp324
g5
F0.0935
sg6
VSomething New (feat. Ty Dolla $ign)
p325
sg8
F0.350324
sg9
F0.635
sg10
S'r_b'
p326
sg12
F0.0809
sg13
VWiz Khalifa
p327
sg15
I9999
sg16
F0.814
sg17
Nsg18
F0.8898499999999999
sg19
Nsg20
Nsg21
F0.2163638256898374
sg22
F0.784
sg23
Nsg24
Nsg25
I0
ssg26
I01
sg27
I01
sba(iSong
Song
p328
(dp329
g3
(dp330
g5
F0.0876
sg6
VSky Walker
p331
sg8
F0.583836
sg9
F0.717
sg10
S'r_b'
p332
sg12
F0.0638
sg13
VMiguel
p333
sg15
I9999
sg16
F0.629
sg17
Nsg18
F0.9048999999999999
sg19
Nsg20
Nsg21
F0.2163638256898374
sg22
F0.129
sg23
Nsg24
Nsg25
I0
ssg26
I01
sg27
I01
sba(iSong
Song
p334
(dp335
g3
(dp336
g5
F0.107
sg6
VNeeded Me
p337
sg8
F0.443552
sg9
F0.325
sg10
S'r_b'
p338
sg12
F0.251
sg13
VRihanna
p339
sg15
I9999
sg16
F0.688
sg17
Nsg18
F0.8652833333333334
sg19
Nsg20
Nsg21
F0.2163638256898374
sg22
F0.275
sg23
Nsg24
Nsg25
I0
ssg26
I01
sg27
I01
sba(iSong
Song
p340
(dp341
g3
(dp342
g5
F0.131
sg6
VStill Got Time
p343
sg8
F0.48385199999999995
sg9
F0.627
sg10
S'r_b'
p344
sg12
F0.0644
sg13
VZAYN
p345
sg15
I9999
sg16
F0.748
sg17
Nsg18
F0.8995166666666667
sg19
Nsg20
Nsg21
F0.2163638256898374
sg22
F0.524
sg23
Nsg24
Nsg25
I0
ssg26
I01
sg27
I01
sba(iSong
Song
p346
(dp347
g3
(dp348
g5
F0.00572
sg6
Vdo re mi (feat. Gucci Mane)
p349
sg8
F0.448064
sg9
F0.657
sg10
S'r_b'
p350
sg12
F0.0595
sg13
Vblackbear
p351
sg15
I9999
sg16
F0.74
sg17
Nsg18
F0.89485
sg19
Nsg20
Nsg21
F0.2163638256898374
sg22
F0.179
sg23
Nsg24
Nsg25
I0
ssg26
I01
sg27
I01
sba(iSong
Song
p352
(dp353
g3
(dp354
g5
F0.0459
sg6
VUnFazed (feat. The Weeknd)
p355
sg8
F0.506736
sg9
F0.707
sg10
S'r_b'
p356
sg12
F0.0746
sg13
VLil Uzi Vert
p357
sg15
I9999
sg16
F0.778
sg17
Nsg18
F0.9399
sg19
Nsg20
Nsg21
F0.2163638256898374
sg22
F0.458
sg23
Nsg24
Nsg25
I0
ssg26
I01
sg27
I01
sba(iSong
Song
p358
(dp359
g3
(dp360
g5
F0.103
sg6
VPlot Twist
p361
sg8
F0.388368
sg9
F0.647
sg10
S'r_b'
p362
sg12
F0.287
sg13
VMarc E. Bassy
p363
sg15
I9999
sg16
F0.687
sg17
Nsg18
F0.9002666666666667
sg19
Nsg20
Nsg21
F0.2163638256898374
sg22
F0.654
sg23
Nsg24
Nsg25
I0
ssg26
I01
sg27
I01
sba(iSong
Song
p364
(dp365
g3
(dp366
g5
F0.0832
sg6
VI See You (feat. Chris Brown)
p367
sg8
F0.40476799999999996
sg9
F0.48
sg10
S'r_b'
p368
sg12
F0.142
sg13
VKap G
p369
sg15
I9999
sg16
F0.716
sg17
Nsg18
F0.8712833333333333
sg19
Nsg20
Nsg21
F0.2163638256898374
sg22
F0.5
sg23
Nsg24
Nsg25
I0
ssg26
I01
sg27
I01
sba(iSong
Song
p370
(dp371
g3
(dp372
g5
F0.0303
sg6
VPRBLMS
p373
sg8
F0.412076
sg9
F0.574
sg10
S'r_b'
p374
sg12
F0.0993
sg13
V6LACK
p375
sg15
I9999
sg16
F0.672
sg17
Nsg18
F0.9222833333333333
sg19
Nsg20
Nsg21
F0.2163638256898374
sg22
F0.106
sg23
Nsg24
Nsg25
F2.02e-06
ssg26
I01
sg27
I01
sba(iSong
Song
p376
(dp377
g3
(dp378
g5
F0.498
sg6
VTek Weh Yuh Heart
p379
sg8
F0.49764800000000003
sg9
F0.651
sg10
S'r_b'
p380
sg12
F0.31
sg13
VSean Paul
p381
sg15
I9999
sg16
F0.545
sg17
Nsg18
F0.9048833333333334
sg19
Nsg20
Nsg21
F0.2163638256898374
sg22
F0.661
sg23
Nsg24
Nsg25
I0
ssg26
I01
sg27
I01
sba(iSong
Song
p382
(dp383
g3
(dp384
g5
F0.248
sg6
VBad Intentions
p385
sg8
F0.495976
sg9
F0.72
sg10
S'r_b'
p386
sg12
F0.0865
sg13
VNiykee Heaton
p387
sg15
I9999
sg16
F0.743
sg17
Nsg18
F0.9137500000000001
sg19
Nsg20
Nsg21
F0.2163638256898374
sg22
F0.431
sg23
Nsg24
Nsg25
I0
ssg26
I01
sg27
I01
sba(iSong
Song
p388
(dp389
g3
(dp390
g5
F0.464
sg6
VTrust Nobody
p391
sg8
F0.31407999999999997
sg9
F0.65
sg10
S'r_b'
p392
sg12
F0.158
sg13
VCashmere Cat
p393
sg15
I9999
sg16
F0.597
sg17
Nsg18
F0.8797833333333334
sg19
Nsg20
Nsg21
F0.2163638256898374
sg22
F0.732
sg23
Nsg24
Nsg25
I0
ssg26
I01
sg27
I01
sba(iSong
Song
p394
(dp395
g3
(dp396
g5
F0.0533
sg6
VI'm the One
p397
sg8
F0.323936
sg9
F0.667
sg10
S'r_b'
p398
sg12
F0.0367
sg13
VDJ Khaled
p399
sg15
I9999
sg16
F0.599
sg17
Nsg18
F0.9288833333333333
sg19
Nsg20
Nsg21
F0.2163638256898374
sg22
F0.817
sg23
Nsg24
Nsg25
I0
ssg26
I01
sg27
I01
sba(iSong
Song
p400
(dp401
g3
(dp402
g5
F0.0466
sg6
VPerfect
p403
sg8
F0.49180799999999997
sg9
F0.569
sg10
S'r_b'
p404
sg12
F0.0629
sg13
VDave East
p405
sg15
I9999
sg16
F0.762
sg17
Nsg18
F0.9107166666666667
sg19
Nsg20
Nsg21
F0.2163638256898374
sg22
F0.148
sg23
Nsg24
Nsg25
I0
ssg26
I01
sg27
I01
sba(iSong
Song
p406
(dp407
g3
(dp408
g5
F0.295
sg6
VCherry On Top (feat. Marc E. Bassy & TYSM)
p409
sg8
F0.400072
sg9
F0.416
sg10
S'r_b'
p410
sg12
F0.0842
sg13
VFelix Snow
p411
sg15
I9999
sg16
F0.758
sg17
Nsg18
F0.8683833333333334
sg19
Nsg20
Nsg21
F0.2163638256898374
sg22
F0.457
sg23
Nsg24
Nsg25
I0
ssg26
I01
sg27
I01
sba(iSong
Song
p412
(dp413
g3
(dp414
g5
F0.102
sg6
VQuit (feat. Ariana Grande)
p415
sg8
F0.526636
sg9
F0.413
sg10
S'r_b'
p416
sg12
F0.0446
sg13
VCashmere Cat
p417
sg15
I9999
sg16
F0.44
sg17
Nsg18
F0.8762500000000001
sg19
Nsg20
Nsg21
F0.2163638256898374
sg22
F0.123
sg23
Nsg24
Nsg25
F1.7e-05
ssg26
I01
sg27
I01
sba(iSong
Song
p418
(dp419
g3
(dp420
g5
F0.106
sg6
VDon't Hurt Me
p421
sg8
F0.759144
sg9
F0.468
sg10
S'r_b'
p422
sg12
F0.445
sg13
VDJ Mustard
p423
sg15
I9999
sg16
F0.54
sg17
Nsg18
F0.8245
sg19
Nsg20
Nsg21
F0.2163638256898374
sg22
F0.529
sg23
Nsg24
Nsg25
I0
ssg26
I01
sg27
I01
sba(iSong
Song
p424
(dp425
g3
(dp426
g5
F0.053
sg6
VShining
p427
sg8
F0.448004
sg9
F0.807
sg10
S'r_b'
p428
sg12
F0.106
sg13
VDJ Khaled
p429
sg15
I9999
sg16
F0.768
sg17
Nsg18
F0.9082
sg19
Nsg20
Nsg21
F0.2163638256898374
sg22
F0.575
sg23
Nsg24
Nsg25
F2.99e-06
ssg26
I01
sg27
I01
sba(iSong
Song
p430
(dp431
g3
(dp432
g5
F0.114
sg6
VBDY ON ME
p433
sg8
F0.39999599999999996
sg9
F0.495
sg10
S'r_b'
p434
sg12
F0.0384
sg13
VOmarion
p435
sg15
I9999
sg16
F0.729
sg17
Nsg18
F0.8357666666666667
sg19
Nsg20
Nsg21
F0.2163638256898374
sg22
F0.444
sg23
Nsg24
Nsg25
F9.54e-05
ssg26
I01
sg27
I01
sba(iSong
Song
p436
(dp437
g3
(dp438
g5
F0.753
sg6
VRegret In Your Tears
p439
sg8
F0.42456
sg9
F0.473
sg10
S'r_b'
p440
sg12
F0.0882
sg13
VNicki Minaj
p441
sg15
I9999
sg16
F0.764
sg17
Nsg18
F0.8152666666666666
sg19
Nsg20
Nsg21
F0.2163638256898374
sg22
F0.212
sg23
Nsg24
Nsg25
F0.306
ssg26
I01
sg27
I01
sba(iSong
Song
p442
(dp443
g3
(dp444
g5
F0.0572
sg6
VPlay
p445
sg8
F0.39184800000000003
sg9
F0.644
sg10
S'r_b'
p446
sg12
F0.0463
sg13
VSoMo
p447
sg15
I9999
sg16
F0.687
sg17
Nsg18
F0.8923333333333333
sg19
Nsg20
Nsg21
F0.2163638256898374
sg22
F0.444
sg23
Nsg24
Nsg25
I0
ssg26
I01
sg27
I01
sba(iSong
Song
p448
(dp449
g3
(dp450
g5
F0.0905
sg6
VDon't Do That
p451
sg8
F0.391956
sg9
F0.408
sg10
S'r_b'
p452
sg12
F0.0995
sg13
VDerek King
p453
sg15
I9999
sg16
F0.83
sg17
Nsg18
F0.8292833333333333
sg19
Nsg20
Nsg21
F0.2163638256898374
sg22
F0.568
sg23
Nsg24
Nsg25
I0
ssg26
I01
sg27
I01
sba(iSong
Song
p454
(dp455
g3
(dp456
g5
F0.221
sg6
VStrip That Down
p457
sg8
F0.42403199999999996
sg9
F0.488
sg10
S'r_b'
p458
sg12
F0.0537
sg13
VLiam Payne
p459
sg15
I9999
sg16
F0.87
sg17
Nsg18
F0.9069
sg19
Nsg20
Nsg21
F0.2163638256898374
sg22
F0.519
sg23
Nsg24
Nsg25
I0
ssg26
I01
sg27
I01
sba(iSong
Song
p460
(dp461
g3
(dp462
g5
F0.296
sg6
VHow I Feel
p463
sg8
F0.44818
sg9
F0.466
sg10
S'r_b'
p464
sg12
F0.0717
sg13
VRoy Woods
p465
sg15
I9999
sg16
F0.8
sg17
Nsg18
F0.8514666666666667
sg19
Nsg20
Nsg21
F0.2163638256898374
sg22
F0.0778
sg23
Nsg24
Nsg25
F0.00308
ssg26
I01
sg27
I01
sba(iSong
Song
p466
(dp467
g3
(dp468
g5
F0.0777
sg6
VI Fall Apart
p469
sg8
F0.575664
sg9
F0.543
sg10
S'r_b'
p470
sg12
F0.0398
sg13
VPost Malone
p471
sg15
I9999
sg16
F0.573
sg17
Nsg18
F0.9107166666666667
sg19
Nsg20
Nsg21
F0.2163638256898374
sg22
F0.308
sg23
Nsg24
Nsg25
I0
ssg26
I01
sg27
I01
sba(iSong
Song
p472
(dp473
g3
(dp474
g5
F0.31
sg6
VFallen (feat. Ty Dolla $ign & Cam Wallace)
p475
sg8
F0.407892
sg9
F0.362
sg10
S'r_b'
p476
sg12
F0.046
sg13
VSevyn Streeter
p477
sg15
I9999
sg16
F0.801
sg17
Nsg18
F0.8473333333333334
sg19
Nsg20
Nsg21
F0.2163638256898374
sg22
F0.307
sg23
Nsg24
Nsg25
F3.86e-05
ssg26
I01
sg27
I01
sba(iSong
Song
p478
(dp479
g3
(dp480
g5
F0.0775
sg6
VFlirt Right Back
p481
sg8
F0.368268
sg9
F0.698
sg10
S'r_b'
p482
sg12
F0.189
sg13
Vblackbear
p483
sg15
I9999
sg16
F0.707
sg17
Nsg18
F0.9165166666666666
sg19
Nsg20
Nsg21
F0.2163638256898374
sg22
F0.202
sg23
Nsg24
Nsg25
I0
ssg26
I01
sg27
I01
sba(iSong
Song
p484
(dp485
g3
(dp486
g5
F0.534
sg6
VBody High
p487
sg8
F0.515816
sg9
F0.579
sg10
S'r_b'
p488
sg12
F0.0511
sg13
VHarrison Brome
p489
sg15
I9999
sg16
F0.431
sg17
Nsg18
F0.85875
sg19
Nsg20
Nsg21
F0.2163638256898374
sg22
F0.515
sg23
Nsg24
Nsg25
F0.0689
ssg26
I01
sg27
I01
sba(iSong
Song
p490
(dp491
g3
(dp492
g5
F0.0286
sg6
VEither Way (feat. Chris Brown)
p493
sg8
F0.536428
sg9
F0.416
sg10
S'r_b'
p494
sg12
F0.123
sg13
VK. Michelle
p495
sg15
I9999
sg16
F0.831
sg17
Nsg18
F0.8793500000000001
sg19
Nsg20
Nsg21
F0.2163638256898374
sg22
F0.395
sg23
Nsg24
Nsg25
I0
ssg26
I01
sg27
I01
sba(iSong
Song
p496
(dp497
g3
(dp498
g5
F0.335
sg6
VSativa
p499
sg8
F0.504224
sg9
F0.624
sg10
S'r_b'
p500
sg12
F0.0484
sg13
VJhene Aiko
p501
sg15
I9999
sg16
F0.743
sg17
Nsg18
F0.8766166666666667
sg19
Nsg20
Nsg21
F0.2163638256898374
sg22
F0.713
sg23
Nsg24
Nsg25
I0
ssg26
I01
sg27
I01
sba(iSong
Song
p502
(dp503
g3
(dp504
g5
F0.314
sg6
VSpecial (Sifu Remix)
p505
sg8
F0.41602
sg9
F0.91
sg10
S'r_b'
p506
sg12
F0.0577
sg13
VAzad
p507
sg15
I9999
sg16
F0.653
sg17
Nsg18
F0.9348
sg19
Nsg20
Nsg21
F0.2163638256898374
sg22
F0.765
sg23
Nsg24
Nsg25
F2e-06
ssg26
I01
sg27
I01
sba(iSong
Song
p508
(dp509
g3
(dp510
g5
F0.0287
sg6
VWhatever You Need (feat. Chris Brown & Ty Dolla $ign)
p511
sg8
F0.656248
sg9
F0.565
sg10
S'r_b'
p512
sg12
F0.182
sg13
VMeek Mill
p513
sg15
I9999
sg16
F0.515
sg17
Nsg18
F0.8777166666666666
sg19
Nsg20
Nsg21
F0.2163638256898374
sg22
F0.304
sg23
Nsg24
Nsg25
I0
ssg26
I01
sg27
I01
sba(iSong
Song
p514
(dp515
g3
(dp516
g5
F0.147
sg6
VHello Ego
p517
sg8
F0.479404
sg9
F0.463
sg10
S'r_b'
p518
sg12
F0.0928
sg13
VJhene Aiko
p519
sg15
I9999
sg16
F0.692
sg17
Nsg18
F0.8415666666666667
sg19
Nsg20
Nsg21
F0.2163638256898374
sg22
F0.432
sg23
Nsg24
Nsg25
I0
ssg26
I01
sg27
I01
sba(iSong
Song
p520
(dp521
g3
(dp522
g5
F0.261
sg6
VWhat Are We Here For
p523
sg8
F0.519076
sg9
F0.822
sg10
S'r_b'
p524
sg12
F0.086
sg13
VTrey Songz
p525
sg15
I9999
sg16
F0.533
sg17
Nsg18
F0.89515
sg19
Nsg20
Nsg21
F0.2163638256898374
sg22
F0.391
sg23
Nsg24
Nsg25
F1.24e-05
ssg26
I01
sg27
I01
sba(iSong
Song
p526
(dp527
g3
(dp528
g5
F0.0251
sg6
VSummer Body
p529
sg8
F0.47578
sg9
F0.599
sg10
S'r_b'
p530
sg12
F0.101
sg13
VThe-Dream
p531
sg15
I9999
sg16
F0.778
sg17
Nsg18
F0.9310166666666666
sg19
Nsg20
Nsg21
F0.2163638256898374
sg22
F0.545
sg23
Nsg24
Nsg25
I0
ssg26
I01
sg27
I01
sba(iSong
Song
p532
(dp533
g3
(dp534
g5
F0.132
sg6
VDon't Matter
p535
sg8
F0.511648
sg9
F0.529
sg10
S'r_b'
p536
sg12
F0.167
sg13
VAugust Alsina
p537
sg15
I9999
sg16
F0.668
sg17
Nsg18
F0.8699333333333333
sg19
Nsg20
Nsg21
F0.2163638256898374
sg22
F0.545
sg23
Nsg24
Nsg25
I0
ssg26
I01
sg27
I01
sba(iSong
Song
p538
(dp539
g3
(dp540
g5
F0.209
sg6
VNew Ting
p541
sg8
F0.404212
sg9
F0.559
sg10
S'r_b'
p542
sg12
F0.0393
sg13
VMarc E. Bassy
p543
sg15
I9999
sg16
F0.817
sg17
Nsg18
F0.8898166666666667
sg19
Nsg20
Nsg21
F0.2163638256898374
sg22
F0.617
sg23
Nsg24
Nsg25
F1.53e-05
ssg26
I01
sg27
I01
sba(iSong
Song
p544
(dp545
g3
(dp546
g5
F0.153
sg6
VWhat Are You On?
p547
sg8
F0.479636
sg9
F0.572
sg10
S'r_b'
p548
sg12
F0.0756
sg13
VRoy Woods
p549
sg15
I9999
sg16
F0.717
sg17
Nsg18
F0.8411500000000001
sg19
Nsg20
Nsg21
F0.2163638256898374
sg22
F0.198
sg23
Nsg24
Nsg25
F0.000222
ssg26
I01
sg27
I01
sba(iSong
Song
p550
(dp551
g3
(dp552
g5
F0.674
sg6
VPlanez
p553
sg8
F0.5171399999999999
sg9
F0.557
sg10
S'r_b'
p554
sg12
F0.312
sg13
VJeremih
p555
sg15
I9999
sg16
F0.65
sg17
Nsg18
F0.8706333333333334
sg19
Nsg20
Nsg21
F0.2163638256898374
sg22
F0.4
sg23
Nsg24
Nsg25
I0
ssg26
I01
sg27
I01
sba(iSong
Song
p556
(dp557
g3
(dp558
g5
F0.236
sg6
VSo Long
p559
sg8
F0.36012
sg9
F0.654
sg10
S'r_b'
p560
sg12
F0.0451
sg13
VMassari
p561
sg15
I9999
sg16
F0.684
sg17
Nsg18
F0.9286166666666666
sg19
Nsg20
Nsg21
F0.2163638256898374
sg22
F0.452
sg23
Nsg24
Nsg25
F5.68e-05
ssg26
I01
sg27
I01
sba(iSong
Song
p562
(dp563
g3
(dp564
g5
F0.614
sg6
VBad Girl (feat. Trey Songz & Robin Thicke)
p565
sg8
F0.439012
sg9
F0.589
sg10
S'r_b'
p566
sg12
F0.332
sg13
VA Boogie Wit da Hoodie
p567
sg15
I9999
sg16
F0.723
sg17
Nsg18
F0.89625
sg19
Nsg20
Nsg21
F0.2163638256898374
sg22
F0.477
sg23
Nsg24
Nsg25
I0
ssg26
I01
sg27
I01
sba(iSong
Song
p568
(dp569
g3
(dp570
g5
F0.181
sg6
VParty Monster
p571
sg8
F0.309948
sg9
F0.612
sg10
S'r_b'
p572
sg12
F0.0806
sg13
VThe Weeknd
p573
sg15
I9999
sg16
F0.585
sg17
Nsg18
F0.8609833333333333
sg19
Nsg20
Nsg21
F0.2163638256898374
sg22
F0.188
sg23
Nsg24
Nsg25
F1.03e-05
ssg26
I01
sg27
I01
sba(iSong
Song
p574
(dp575
g3
(dp576
g5
F0.0851
sg6
VNo I Love Yous
p577
sg8
F0.471932
sg9
F0.798
sg10
S'r_b'
p578
sg12
F0.0554
sg13
VEra Istrefi
p579
sg15
I9999
sg16
F0.822
sg17
Nsg18
F0.9253833333333332
sg19
Nsg20
Nsg21
F0.2163638256898374
sg22
F0.923
sg23
Nsg24
Nsg25
F8.39e-05
ssg26
I01
sg27
I01
sba(iSong
Song
p580
(dp581
g3
(dp582
g5
F0.0743
sg6
VBack Up (feat. 24hrs)
p583
sg8
F0.40027999999999997
sg9
F0.479
sg10
S'r_b'
p584
sg12
F0.0579
sg13
VTy Dolla $ign
p585
sg15
I9999
sg16
F0.863
sg17
Nsg18
F0.8903333333333333
sg19
Nsg20
Nsg21
F0.2163638256898374
sg22
F0.153
sg23
Nsg24
Nsg25
F2.69e-06
ssg26
I01
sg27
I01
sba(iSong
Song
p586
(dp587
g3
(dp588
g5
F0.275
sg6
VTonight - High Klassified Remix
p589
sg8
F0.487604
sg9
F0.521
sg10
S'r_b'
p590
sg12
F0.0478
sg13
VBlack Atlass
p591
sg15
I9999
sg16
F0.865
sg17
Nsg18
F0.88995
sg19
Nsg20
Nsg21
F0.2163638256898374
sg22
F0.156
sg23
Nsg24
Nsg25
F0.00507
ssg26
I01
sg27
I01
sba(iSong
Song
p592
(dp593
g3
(dp594
g5
F0.00959
sg6
VMorning After
p595
sg8
F0.47996
sg9
F0.504
sg10
S'r_b'
p596
sg12
F0.0382
sg13
Vdvsn
p597
sg15
I9999
sg16
F0.668
sg17
Nsg18
F0.8467833333333333
sg19
Nsg20
Nsg21
F0.2163638256898374
sg22
F0.154
sg23
Nsg24
Nsg25
F5.91e-06
ssg26
I01
sg27
I01
sba(iSong
Song
p598
(dp599
g3
(dp600
g5
F0.292
sg6
VBad Habit
p601
sg8
F0.7513
sg9
F0.512
sg10
S'r_b'
p602
sg12
F0.443
sg13
VKid Ink
p603
sg15
I9999
sg16
F0.581
sg17
Nsg18
F0.8244
sg19
Nsg20
Nsg21
F0.2163638256898374
sg22
F0.138
sg23
Nsg24
Nsg25
F3.12e-05
ssg26
I01
sg27
I01
sba(iSong
Song
p604
(dp605
g3
(dp606
g5
F0.616
sg6
VThe Days
p607
sg8
F0.5275639999999999
sg9
F0.261
sg10
S'r_b'
p608
sg12
F0.0701
sg13
Vanders
p609
sg15
I9999
sg16
F0.402
sg17
Nsg18
F0.8016000000000001
sg19
Nsg20
Nsg21
F0.2163638256898374
sg22
F0.204
sg23
Nsg24
Nsg25
I0
ssg26
I01
sg27
I01
sba(iSong
Song
p610
(dp611
g3
(dp612
g5
F0.379
sg6
VToo Much Time (feat. Emerson Brooks)
p613
sg8
F0.751992
sg9
F0.57
sg10
S'r_b'
p614
sg12
F0.448
sg13
VS.L.M.N
p615
sg15
I9999
sg16
F0.407
sg17
Nsg18
F0.85935
sg19
Nsg20
Nsg21
F0.2163638256898374
sg22
F0.587
sg23
Nsg24
Nsg25
F3.99e-05
ssg26
I01
sg27
I01
sba(iSong
Song
p616
(dp617
g3
(dp618
g5
F0.0162
sg6
VDown
p619
sg8
F0.7844840000000001
sg9
F0.512
sg10
S'r_b'
p620
sg12
F0.133
sg13
VFifth Harmony
p621
sg15
I9999
sg16
F0.53
sg17
Nsg18
F0.8817666666666667
sg19
Nsg20
Nsg21
F0.2163638256898374
sg22
F0.401
sg23
Nsg24
Nsg25
F7.04e-05
ssg26
I01
sg27
I01
sba(iSong
Song
p622
(dp623
g3
(dp624
g5
F0.245
sg6
VI Sip
p625
sg8
F0.40044
sg9
F0.548
sg10
S'r_b'
p626
sg12
F0.365
sg13
VTory Lanez
p627
sg15
I9999
sg16
F0.625
sg17
Nsg18
F0.8135166666666667
sg19
Nsg20
Nsg21
F0.2163638256898374
sg22
F0.517
sg23
Nsg24
Nsg25
I0
ssg26
I01
sg27
I01
sba(iSong
Song
p628
(dp629
g3
(dp630
g5
F0.00543
sg6
VQuestions
p631
sg8
F0.423212
sg9
F0.598
sg10
S'r_b'
p632
sg12
F0.0561
sg13
VChris Brown
p633
sg15
I9999
sg16
F0.614
sg17
Nsg18
F0.8944166666666666
sg19
Nsg20
Nsg21
F0.2163638256898374
sg22
F0.565
sg23
Nsg24
Nsg25
I0
ssg26
I01
sg27
I01
sba(iSong
Song
p634
(dp635
g3
(dp636
g5
F0.0233
sg6
VTip Toe (feat. French Montana)
p637
sg8
F0.392248
sg9
F0.709
sg10
S'r_b'
p638
sg12
F0.0714
sg13
VJason Derulo
p639
sg15
I9999
sg16
F0.845
sg17
Nsg18
F0.9242166666666667
sg19
Nsg20
Nsg21
F0.2163638256898374
sg22
F0.62
sg23
Nsg24
Nsg25
I0
ssg26
I01
sg27
I01
sba(iSong
Song
p640
(dp641
g3
(dp642
g5
F0.0777
sg6
VI Fall Apart
p643
sg8
F0.575664
sg9
F0.543
sg10
S'r_b'
p644
sg12
F0.0398
sg13
VPost Malone
p645
sg15
I9999
sg16
F0.573
sg17
Nsg18
F0.9107166666666667
sg19
Nsg20
Nsg21
F0.2163638256898374
sg22
F0.308
sg23
Nsg24
Nsg25
I0
ssg26
I01
sg27
I01
sba(iSong
Song
p646
(dp647
g3
(dp648
g5
F0.0974
sg6
VNumber One
p649
sg8
F0.36834
sg9
F0.629
sg10
S'r_b'
p650
sg12
F0.241
sg13
VMassari
p651
sg15
I9999
sg16
F0.655
sg17
Nsg18
F0.8898666666666667
sg19
Nsg20
Nsg21
F0.2163638256898374
sg22
F0.448
sg23
Nsg24
Nsg25
I0
ssg26
I01
sg27
I01
sba(iSong
Song
p652
(dp653
g3
(dp654
g5
F0.0295
sg6
VDroptop in the Rain (feat. Tory Lanez)
p655
sg8
F0.55192
sg9
F0.581
sg10
S'r_b'
p656
sg12
F0.0828
sg13
VTy Dolla $ign
p657
sg15
I9999
sg16
F0.73
sg17
Nsg18
F0.9027833333333334
sg19
Nsg20
Nsg21
F0.2163638256898374
sg22
F0.359
sg23
Nsg24
Nsg25
F1.3e-05
ssg26
I01
sg27
I01
sba(iSong
Song
p658
(dp659
g3
(dp660
g5
F0.0075
sg6
VReal Thing (feat. Future)
p661
sg8
F0.640216
sg9
F0.503
sg10
S'r_b'
p662
sg12
F0.365
sg13
VTory Lanez
p663
sg15
I9999
sg16
F0.668
sg17
Nsg18
F0.8634000000000001
sg19
Nsg20
Nsg21
F0.2163638256898374
sg22
F0.333
sg23
Nsg24
Nsg25
I0
ssg26
I01
sg27
I01
sba(iSong
Song
p664
(dp665
g3
(dp666
g5
F0.0295
sg6
VOMG
p667
sg8
F0.559812
sg9
F0.576
sg10
S'r_b'
p668
sg12
F0.0536
sg13
VCamila Cabello
p669
sg15
I9999
sg16
F0.655
sg17
Nsg18
F0.88775
sg19
Nsg20
Nsg21
F0.2163638256898374
sg22
F0.167
sg23
Nsg24
Nsg25
F0.115
ssg26
I01
sg27
I01
sba(iSong
Song
p670
(dp671
g3
(dp672
g5
F0.0876
sg6
VSky Walker
p673
sg8
F0.583836
sg9
F0.717
sg10
S'r_b'
p674
sg12
F0.0638
sg13
VMiguel
p675
sg15
I9999
sg16
F0.629
sg17
Nsg18
F0.9048999999999999
sg19
Nsg20
Nsg21
F0.2163638256898374
sg22
F0.129
sg23
Nsg24
Nsg25
I0
ssg26
I01
sg27
I01
sba(iSong
Song
p676
(dp677
g3
(dp678
g5
F0.0975
sg6
VDie For You
p679
sg8
F0.533984
sg9
F0.511
sg10
S'r_b'
p680
sg12
F0.0615
sg13
VThe Weeknd
p681
sg15
I9999
sg16
F0.599
sg17
Nsg18
F0.8810666666666667
sg19
Nsg20
Nsg21
F0.2163638256898374
sg22
F0.502
sg23
Nsg24
Nsg25
I0
ssg26
I01
sg27
I01
sba(iSong
Song
p682
(dp683
g3
(dp684
g5
F0.119
sg6
VPills & Automobiles
p685
sg8
F0.579924
sg9
F0.696
sg10
S'r_b'
p686
sg12
F0.182
sg13
VChris Brown
p687
sg15
I9999
sg16
F0.82
sg17
Nsg18
F0.9180333333333334
sg19
Nsg20
Nsg21
F0.2163638256898374
sg22
F0.617
sg23
Nsg24
Nsg25
I0
ssg26
I01
sg27
I01
sba(iSong
Song
p688
(dp689
g3
(dp690
g5
F0.136
sg6
VDamage
p691
sg8
F0.452812
sg9
F0.752
sg10
S'r_b'
p692
sg12
F0.15
sg13
VPARTYNEXTDOOR
p693
sg15
I9999
sg16
F0.77
sg17
Nsg18
F0.8922
sg19
Nsg20
Nsg21
F0.2163638256898374
sg22
F0.577
sg23
Nsg24
Nsg25
F9.33e-06
ssg26
I01
sg27
I01
sba(iSong
Song
p694
(dp695
g3
(dp696
g5
F0.257
sg6
VOne I Want (feat. PARTYNEXTDOOR)
p697
sg8
F0.5598719999999999
sg9
F0.223
sg10
S'r_b'
p698
sg12
F0.321
sg13
VMajid Jordan
p699
sg15
I9999
sg16
F0.913
sg17
Nsg18
F0.7929833333333334
sg19
Nsg20
Nsg21
F0.2163638256898374
sg22
F0.35
sg23
Nsg24
Nsg25
F8.78e-05
ssg26
I01
sg27
I01
sba(iSong
Song
p700
(dp701
g3
(dp702
g5
F0.209
sg6
VNew Ting
p703
sg8
F0.404212
sg9
F0.559
sg10
S'r_b'
p704
sg12
F0.0393
sg13
VMarc E. Bassy
p705
sg15
I9999
sg16
F0.817
sg17
Nsg18
F0.8898166666666667
sg19
Nsg20
Nsg21
F0.2163638256898374
sg22
F0.617
sg23
Nsg24
Nsg25
F1.53e-05
ssg26
I01
sg27
I01
sba(iSong
Song
p706
(dp707
g3
(dp708
g5
F0.0853
sg6
VSigns
p709
sg8
F0.429476
sg9
F0.734
sg10
S'r_b'
p710
sg12
F0.0524
sg13
VDrake
p711
sg15
I9999
sg16
F0.79
sg17
Nsg18
F0.9223333333333333
sg19
Nsg20
Nsg21
F0.2163638256898374
sg22
F0.223
sg23
Nsg24
Nsg25
F0.00409
ssg26
I01
sg27
I01
sba(iSong
Song
p712
(dp713
g3
(dp714
g5
F0.127
sg6
VCome Closer
p715
sg8
F0.39989600000000003
sg9
F0.453
sg10
S'r_b'
p716
sg12
F0.227
sg13
VWizKid
p717
sg15
I9999
sg16
F0.825
sg17
Nsg18
F0.8761833333333333
sg19
Nsg20
Nsg21
F0.2163638256898374
sg22
F0.496
sg23
Nsg24
Nsg25
F3.82e-06
ssg26
I01
sg27
I01
sba(iSong
Song
p718
(dp719
g3
(dp720
g5
F0.196
sg6
VTimezones
p721
sg8
F0.6442960000000001
sg9
F0.664
sg10
S'r_b'
p722
sg12
F0.0828
sg13
VManila Grey
p723
sg15
I9999
sg16
F0.601
sg17
Nsg18
F0.8812333333333334
sg19
Nsg20
Nsg21
F0.2163638256898374
sg22
F0.483
sg23
Nsg24
Nsg25
F0.0854
ssg26
I01
sg27
I01
sba(iSong
Song
p724
(dp725
g3
(dp726
g5
F0.0235
sg6
VA Lie
p727
sg8
F0.48475599999999996
sg9
F0.792
sg10
S'r_b'
p728
sg12
F0.216
sg13
VFrench Montana
p729
sg15
I9999
sg16
F0.516
sg17
Nsg18
F0.9103333333333333
sg19
Nsg20
Nsg21
F0.2163638256898374
sg22
F0.524
sg23
Nsg24
Nsg25
I0
ssg26
I01
sg27
I01
sba(iSong
Song
p730
(dp731
g3
(dp732
g5
F0.475
sg6
VHeld Me Down
p733
sg8
F0.479956
sg9
F0.423
sg10
S'r_b'
p734
sg12
F0.093
sg13
VNAV
p735
sg15
I9999
sg16
F0.824
sg17
Nsg18
F0.8631166666666666
sg19
Nsg20
Nsg21
F0.2163638256898374
sg22
F0.261
sg23
Nsg24
Nsg25
I0
ssg26
I01
sg27
I01
sba(iSong
Song
p736
(dp737
g3
(dp738
g5
F0.0802
sg6
VLove U Better (feat. Lil Wayne & The-Dream)
p739
sg8
F0.380244
sg9
F0.541
sg10
S'r_b'
p740
sg12
F0.0385
sg13
VTy Dolla $ign
p741
sg15
I9999
sg16
F0.645
sg17
Nsg18
F0.8948
sg19
Nsg20
Nsg21
F0.2163638256898374
sg22
F0.411
sg23
Nsg24
Nsg25
I0
ssg26
I01
sg27
I01
sba(iSong
Song
p742
(dp743
g3
(dp744
g5
F0.0272
sg6
VOpen Up
p745
sg8
F0.408008
sg9
F0.454
sg10
S'r_b'
p746
sg12
F0.0717
sg13
VOmarion
p747
sg15
I9999
sg16
F0.817
sg17
Nsg18
F0.8334333333333334
sg19
Nsg20
Nsg21
F0.2163638256898374
sg22
F0.537
sg23
Nsg24
Nsg25
I0
ssg26
I01
sg27
I01
sba(iSong
Song
p748
(dp749
g3
(dp750
g5
F0.172
sg6
VRow The Body (feat. French Montana)
p751
sg8
F0.38413200000000003
sg9
F0.695
sg10
S'r_b'
p752
sg12
F0.0628
sg13
VTaio Cruz
p753
sg15
I9999
sg16
F0.701
sg17
Nsg18
F0.9057833333333334
sg19
Nsg20
Nsg21
F0.2163638256898374
sg22
F0.624
sg23
Nsg24
Nsg25
I0
ssg26
I01
sg27
I01
sba(iSong
Song
p754
(dp755
g3
(dp756
g5
F0.477
sg6
VSay Less
p757
sg8
F0.372092
sg9
F0.259
sg10
S'r_b'
p758
sg12
F0.102
sg13
VRoy Woods
p759
sg15
I9999
sg16
F0.694
sg17
Nsg18
F0.7768666666666667
sg19
Nsg20
Nsg21
F0.2163638256898374
sg22
F0.295
sg23
Nsg24
Nsg25
F0.00018
ssg26
I01
sg27
I01
sba(iSong
Song
p760
(dp761
g3
(dp762
g5
F0.199
sg6
VBody Talk
p763
sg8
F0.367916
sg9
F0.507
sg10
S'r_b'
p764
sg12
F0.0754
sg13
VMajid Jordan
p765
sg15
I9999
sg16
F0.789
sg17
Nsg18
F0.8514
sg19
Nsg20
Nsg21
F0.2163638256898374
sg22
F0.226
sg23
Nsg24
Nsg25
I0
ssg26
I01
sg27
I01
sba(iSong
Song
p766
(dp767
g3
(dp768
g5
F0.00601
sg6
VEx Calling
p769
sg8
F0.623872
sg9
F0.548
sg10
S'r_b'
p770
sg12
F0.21
sg13
V6LACK
p771
sg15
I9999
sg16
F0.779
sg17
Nsg18
F0.8746666666666667
sg19
Nsg20
Nsg21
F0.2163638256898374
sg22
F0.0552
sg23
Nsg24
Nsg25
F5.86e-05
ssg26
I01
sg27
I01
sba(iSong
Song
p772
(dp773
g3
(dp774
g5
F0.309
sg6
VEither Way
p775
sg8
F0.712072
sg9
F0.659
sg10
S'r_b'
p776
sg12
F0.155
sg13
VSnakehips
p777
sg15
I9999
sg16
F0.635
sg17
Nsg18
F0.9179999999999999
sg19
Nsg20
Nsg21
F0.2163638256898374
sg22
F0.54
sg23
Nsg24
Nsg25
I0
ssg26
I01
sg27
I01
sba(iSong
Song
p778
(dp779
g3
(dp780
g5
F0.0464
sg6
VFeelins
p781
sg8
F0.600304
sg9
F0.782
sg10
S'r_b'
p782
sg12
F0.225
sg13
VPnB Rock
p783
sg15
I9999
sg16
F0.63
sg17
Nsg18
F0.9325666666666667
sg19
Nsg20
Nsg21
F0.2163638256898374
sg22
F0.657
sg23
Nsg24
Nsg25
I0
ssg26
I01
sg27
I01
sba(iSong
Song
p784
(dp785
g3
(dp786
g5
F0.049
sg6
Vup in this (with Tinashe)
p787
sg8
F0.512028
sg9
F0.703
sg10
S'r_b'
p788
sg12
F0.0683
sg13
Vblackbear
p789
sg15
I9999
sg16
F0.731
sg17
Nsg18
F0.8979
sg19
Nsg20
Nsg21
F0.2163638256898374
sg22
F0.513
sg23
Nsg24
Nsg25
I0
ssg26
I01
sg27
I01
sba(iSong
Song
p790
(dp791
g3
(dp792
g5
F0.0935
sg6
VSomething New (feat. Ty Dolla $ign)
p793
sg8
F0.350324
sg9
F0.635
sg10
S'r_b'
p794
sg12
F0.0809
sg13
VWiz Khalifa
p795
sg15
I9999
sg16
F0.814
sg17
Nsg18
F0.8898499999999999
sg19
Nsg20
Nsg21
F0.2163638256898374
sg22
F0.784
sg23
Nsg24
Nsg25
I0
ssg26
I01
sg27
I01
sba(iSong
Song
p796
(dp797
g3
(dp798
g5
F0.0466
sg6
VPerfect
p799
sg8
F0.49180799999999997
sg9
F0.569
sg10
S'r_b'
p800
sg12
F0.0629
sg13
VDave East
p801
sg15
I9999
sg16
F0.762
sg17
Nsg18
F0.9107166666666667
sg19
Nsg20
Nsg21
F0.2163638256898374
sg22
F0.148
sg23
Nsg24
Nsg25
I0
ssg26
I01
sg27
I01
sba(iSong
Song
p802
(dp803
g3
(dp804
g5
F0.00959
sg6
VMorning After
p805
sg8
F0.47996
sg9
F0.504
sg10
S'r_b'
p806
sg12
F0.0382
sg13
Vdvsn
p807
sg15
I9999
sg16
F0.668
sg17
Nsg18
F0.8467833333333333
sg19
Nsg20
Nsg21
F0.2163638256898374
sg22
F0.154
sg23
Nsg24
Nsg25
F5.91e-06
ssg26
I01
sg27
I01
sba(iSong
Song
p808
(dp809
g3
(dp810
g5
F0.0459
sg6
VUnFazed (feat. The Weeknd)
p811
sg8
F0.506736
sg9
F0.707
sg10
S'r_b'
p812
sg12
F0.0746
sg13
VLil Uzi Vert
p813
sg15
I9999
sg16
F0.778
sg17
Nsg18
F0.9399
sg19
Nsg20
Nsg21
F0.2163638256898374
sg22
F0.458
sg23
Nsg24
Nsg25
I0
ssg26
I01
sg27
I01
sba(iSong
Song
p814
(dp815
g3
(dp816
g5
F0.0198
sg6
VDeserve (feat. Travis Scott)
p817
sg8
F0.536
sg9
F0.697
sg10
S'r_b'
p818
sg12
F0.0321
sg13
VKris Wu
p819
sg15
I9999
sg16
F0.677
sg17
Nsg18
F0.9061666666666667
sg19
Nsg20
Nsg21
F0.2163638256898374
sg22
F0.61
sg23
Nsg24
Nsg25
I0
ssg26
I01
sg27
I01
sba(iSong
Song
p820
(dp821
g3
(dp822
g5
F0.0497
sg6
VFinders Keepers
p823
sg8
F0.43201999999999996
sg9
F0.575
sg10
S'r_b'
p824
sg12
F0.0951
sg13
VMabel
p825
sg15
I9999
sg16
F0.837
sg17
Nsg18
F0.8889166666666667
sg19
Nsg20
Nsg21
F0.2163638256898374
sg22
F0.648
sg23
Nsg24
Nsg25
F2.09e-06
ssg26
I01
sg27
I01
sba(iSong
Song
p826
(dp827
g3
(dp828
g5
F0.335
sg6
VSativa
p829
sg8
F0.504224
sg9
F0.624
sg10
S'r_b'
p830
sg12
F0.0484
sg13
VJhene Aiko
p831
sg15
I9999
sg16
F0.743
sg17
Nsg18
F0.8766166666666667
sg19
Nsg20
Nsg21
F0.2163638256898374
sg22
F0.713
sg23
Nsg24
Nsg25
I0
ssg26
I01
sg27
I01
sba(iSong
Song
p832
(dp833
g3
(dp834
g5
F0.109
sg6
VYou Da Baddest
p835
sg8
F0.616092
sg9
F0.736
sg10
S'r_b'
p836
sg12
F0.151
sg13
VFuture
p837
sg15
I9999
sg16
F0.807
sg17
Nsg18
F0.8875333333333334
sg19
Nsg20
Nsg21
F0.2163638256898374
sg22
F0.54
sg23
Nsg24
Nsg25
F0.00729
ssg26
I01
sg27
I01
sba(iSong
Song
p838
(dp839
g3
(dp840
g5
F0.0149
sg6
VBalance (feat. dvsn & PnB Rock)
p841
sg8
F0.488148
sg9
F0.448
sg10
S'r_b'
p842
sg12
F0.0679
sg13
VRoy Woods
p843
sg15
I9999
sg16
F0.906
sg17
Nsg18
F0.81755
sg19
Nsg20
Nsg21
F0.2163638256898374
sg22
F0.676
sg23
Nsg24
Nsg25
F0.0821
ssg26
I01
sg27
I01
sba(iSong
Song
p844
(dp845
g3
(dp846
g5
F0.292
sg6
VBad Habit
p847
sg8
F0.7513
sg9
F0.512
sg10
S'r_b'
p848
sg12
F0.443
sg13
VKid Ink
p849
sg15
I9999
sg16
F0.581
sg17
Nsg18
F0.8244
sg19
Nsg20
Nsg21
F0.2163638256898374
sg22
F0.138
sg23
Nsg24
Nsg25
F3.12e-05
ssg26
I01
sg27
I01
sba(iSong
Song
p850
(dp851
g3
(dp852
g5
F0.189
sg6
VShadows
p853
sg8
F0.30009199999999997
sg9
F0.798
sg10
S'r_b'
p854
sg12
F0.0544
sg13
VXuitcasecity
p855
sg15
I9999
sg16
F0.542
sg17
Nsg18
F0.9338833333333334
sg19
Nsg20
Nsg21
F0.2163638256898374
sg22
F0.262
sg23
Nsg24
Nsg25
I0
ssg26
I01
sg27
I01
sba(iSong
Song
p856
(dp857
g3
(dp858
g5
F0.0912
sg6
VNever Enough (feat. Trey Songz)
p859
sg8
F0.39246
sg9
F0.404
sg10
S'r_b'
p860
sg12
F0.185
sg13
VMIKExANGEL
p861
sg15
I9999
sg16
F0.757
sg17
Nsg18
F0.8205333333333333
sg19
Nsg20
Nsg21
F0.2163638256898374
sg22
F0.383
sg23
Nsg24
Nsg25
I0
ssg26
I01
sg27
I01
sba(iSong
Song
p862
(dp863
g3
(dp864
g5
F0.111
sg6
VLove Galore
p865
sg8
F0.540008
sg9
F0.594
sg10
S'r_b'
p866
sg12
F0.0747
sg13
VSZA
p867
sg15
I9999
sg16
F0.795
sg17
Nsg18
F0.8966666666666666
sg19
Nsg20
Nsg21
F0.2163638256898374
sg22
F0.409
sg23
Nsg24
Nsg25
I0
ssg26
I01
sg27
I01
sba(iSong
Song
p868
(dp869
g3
(dp870
g5
F0.305
sg6
VBoomerang
p871
sg8
F0.39189999999999997
sg9
F0.685
sg10
S'r_b'
p872
sg12
F0.113
sg13
VJidenna
p873
sg15
I9999
sg16
F0.899
sg17
Nsg18
F0.9153833333333333
sg19
Nsg20
Nsg21
F0.2163638256898374
sg22
F0.637
sg23
Nsg24
Nsg25
F0.000139
ssg26
I01
sg27
I01
sba(iSong
Song
p874
(dp875
g3
(dp876
g5
F0.186
sg6
VWhen We
p877
sg8
F0.471324
sg9
F0.325
sg10
S'r_b'
p878
sg12
F0.0794
sg13
VTank
p879
sg15
I9999
sg16
F0.612
sg17
Nsg18
F0.8417166666666667
sg19
Nsg20
Nsg21
F0.2163638256898374
sg22
F0.0628
sg23
Nsg24
Nsg25
F1.06e-05
ssg26
I01
sg27
I01
sba(iSong
Song
p880
(dp881
g3
(dp882
g5
F0.515
sg6
VLosin Control
p883
sg8
F0.38796800000000004
sg9
F0.245
sg10
S'r_b'
p884
sg12
F0.138
sg13
VRuss
p885
sg15
I9999
sg16
F0.759
sg17
Nsg18
F0.8909166666666667
sg19
Nsg20
Nsg21
F0.2163638256898374
sg22
F0.209
sg23
Nsg24
Nsg25
F0.000154
ssg26
I01
sg27
I01
sba(iSong
Song
p886
(dp887
g3
(dp888
g5
F0.0944
sg6
VI'm Sorry (feat. Sage The Gemini)
p889
sg8
F0.464092
sg9
F0.688
sg10
S'r_b'
p890
sg12
F0.0457
sg13
V99 Percent
p891
sg15
I9999
sg16
F0.831
sg17
Nsg18
F0.9009833333333332
sg19
Nsg20
Nsg21
F0.2163638256898374
sg22
F0.879
sg23
Nsg24
Nsg25
I0
ssg26
I01
sg27
I01
sba(iSong
Song
p892
(dp893
g3
(dp894
g5
F0.128
sg6
Vrockstar
p895
sg8
F0.639144
sg9
F0.531
sg10
S'r_b'
p896
sg12
F0.0776
sg13
VPost Malone
p897
sg15
I9999
sg16
F0.58
sg17
Nsg18
F0.8894833333333333
sg19
Nsg20
Nsg21
F0.2163638256898374
sg22
F0.141
sg23
Nsg24
Nsg25
F0.000127
ssg26
I01
sg27
I01
sba(iSong
Song
p898
(dp899
g3
(dp900
g5
F0.109
sg6
V20 Min
p901
sg8
F0.49370400000000003
sg9
F0.75
sg10
S'r_b'
p902
sg12
F0.117
sg13
VLil Uzi Vert
p903
sg15
I9999
sg16
F0.773
sg17
Nsg18
F0.9331833333333334
sg19
Nsg20
Nsg21
F0.2163638256898374
sg22
F0.783
sg23
Nsg24
Nsg25
I0
ssg26
I01
sg27
I01
sba(iSong
Song
p904
(dp905
g3
(dp906
g5
F0.246
sg6
VAlready Won
p907
sg8
F0.479164
sg9
F0.794
sg10
S'r_b'
p908
sg12
F0.268
sg13
VKehlani
p909
sg15
I9999
sg16
F0.511
sg17
Nsg18
F0.9357666666666666
sg19
Nsg20
Nsg21
F0.2163638256898374
sg22
F0.625
sg23
Nsg24
Nsg25
I0
ssg26
I01
sg27
I01
sba(iSong
Song
p910
(dp911
g3
(dp912
g5
F0.0386
sg6
VInstances
p913
sg8
F0.399976
sg9
F0.568
sg10
S'r_b'
p914
sg12
F0.0437
sg13
VLais
p915
sg15
I9999
sg16
F0.764
sg17
Nsg18
F0.9069833333333333
sg19
Nsg20
Nsg21
F0.2163638256898374
sg22
F0.375
sg23
Nsg24
Nsg25
F0.00178
ssg26
I01
sg27
I01
sba(iSong
Song
p916
(dp917
g3
(dp918
g5
F0.0383
sg6
VSky Ferreira
p919
sg8
F0.31995999999999997
sg9
F0.457
sg10
S'r_b'
p920
sg12
F0.0414
sg13
VDCF
p921
sg15
I9999
sg16
F0.643
sg17
Nsg18
F0.8400333333333333
sg19
Nsg20
Nsg21
F0.2163638256898374
sg22
F0.287
sg23
Nsg24
Nsg25
F6.53e-06
ssg26
I01
sg27
I01
sba(iSong
Song
p922
(dp923
g3
(dp924
g5
F0.026
sg6
VPineapple Skies
p925
sg8
F0.40005599999999997
sg9
F0.587
sg10
S'r_b'
p926
sg12
F0.0439
sg13
VMiguel
p927
sg15
I9999
sg16
F0.654
sg17
Nsg18
F0.8944833333333333
sg19
Nsg20
Nsg21
F0.2163638256898374
sg22
F0.288
sg23
Nsg24
Nsg25
I0
ssg26
I01
sg27
I01
sba(iSong
Song
p928
(dp929
g3
(dp930
g5
F0.0975
sg6
VDie For You
p931
sg8
F0.533984
sg9
F0.511
sg10
S'r_b'
p932
sg12
F0.0615
sg13
VThe Weeknd
p933
sg15
I9999
sg16
F0.599
sg17
Nsg18
F0.8810666666666667
sg19
Nsg20
Nsg21
F0.2163638256898374
sg22
F0.502
sg23
Nsg24
Nsg25
I0
ssg26
I01
sg27
I01
sba(iSong
Song
p934
(dp935
g3
(dp936
g5
F0.00543
sg6
VQuestions
p937
sg8
F0.423212
sg9
F0.598
sg10
S'r_b'
p938
sg12
F0.0561
sg13
VChris Brown
p939
sg15
I9999
sg16
F0.614
sg17
Nsg18
F0.8944166666666666
sg19
Nsg20
Nsg21
F0.2163638256898374
sg22
F0.565
sg23
Nsg24
Nsg25
I0
ssg26
I01
sg27
I01
sba(iSong
Song
p940
(dp941
g3
(dp942
g5
F0.0201
sg6
VLove U Better (feat. Lil Wayne & The-Dream)
p943
sg8
F0.4714
sg9
F0.477
sg10
S'r_b'
p944
sg12
F0.0503
sg13
VTy Dolla $ign
p945
sg15
I9999
sg16
F0.482
sg17
Nsg18
F0.8592666666666666
sg19
Nsg20
Nsg21
F0.2163638256898374
sg22
F0.379
sg23
Nsg24
Nsg25
I0
ssg26
I01
sg27
I01
sba(iSong
Song
p946
(dp947
g3
(dp948
g5
F0.335
sg6
VSativa
p949
sg8
F0.504224
sg9
F0.624
sg10
S'r_b'
p950
sg12
F0.0484
sg13
VJhene Aiko
p951
sg15
I9999
sg16
F0.743
sg17
Nsg18
F0.8766166666666667
sg19
Nsg20
Nsg21
F0.2163638256898374
sg22
F0.713
sg23
Nsg24
Nsg25
I0
ssg26
I01
sg27
I01
sba(iSong
Song
p952
(dp953
g3
(dp954
g5
F0.158
sg6
VCome Through and Chill
p955
sg8
F0.326512
sg9
F0.653
sg10
S'r_b'
p956
sg12
F0.327
sg13
VMiguel
p957
sg15
I9999
sg16
F0.461
sg17
Nsg18
F0.8563833333333333
sg19
Nsg20
Nsg21
F0.2163638256898374
sg22
F0.588
sg23
Nsg24
Nsg25
I0
ssg26
I01
sg27
I01
sba(iSong
Song
p958
(dp959
g3
(dp960
g5
F0.0876
sg6
VSky Walker
p961
sg8
F0.583836
sg9
F0.717
sg10
S'r_b'
p962
sg12
F0.0638
sg13
VMiguel
p963
sg15
I9999
sg16
F0.629
sg17
Nsg18
F0.9048999999999999
sg19
Nsg20
Nsg21
F0.2163638256898374
sg22
F0.129
sg23
Nsg24
Nsg25
I0
ssg26
I01
sg27
I01
sba(iSong
Song
p964
(dp965
g3
(dp966
g5
F0.393
sg6
VRun Me Dry
p967
sg8
F0.775524
sg9
F0.756
sg10
S'r_b'
p968
sg12
F0.487
sg13
VBryson Tiller
p969
sg15
I9999
sg16
F0.646
sg17
Nsg18
F0.8497166666666668
sg19
Nsg20
Nsg21
F0.2163638256898374
sg22
F0.596
sg23
Nsg24
Nsg25
F3.23e-05
ssg26
I01
sg27
I01
sba(iSong
Song
p970
(dp971
g3
(dp972
g5
F0.327
sg6
VFor You
p973
sg8
F0.427828
sg9
F0.465
sg10
S'r_b'
p974
sg12
F0.0664
sg13
VSoMo
p975
sg15
I9999
sg16
F0.839
sg17
Nsg18
F0.8866999999999999
sg19
Nsg20
Nsg21
F0.2163638256898374
sg22
F0.578
sg23
Nsg24
Nsg25
I0
ssg26
I01
sg27
I01
sba(iSong
Song
p976
(dp977
g3
(dp978
g5
F0.241
sg6
VThe Weekend
p979
sg8
F0.272764
sg9
F0.366
sg10
S'r_b'
p980
sg12
F0.0531
sg13
VSZA
p981
sg15
I9999
sg16
F0.487
sg17
Nsg18
F0.8432499999999999
sg19
Nsg20
Nsg21
F0.2163638256898374
sg22
F0.161
sg23
Nsg24
Nsg25
I0
ssg26
I01
sg27
I01
sba(iSong
Song
p982
(dp983
g3
(dp984
g5
F0.808
sg6
VBest Part (feat. H.E.R.)
p985
sg8
F0.30096
sg9
F0.364
sg10
S'r_b'
p986
sg12
F0.0367
sg13
VDaniel Caesar
p987
sg15
I9999
sg16
F0.524
sg17
Nsg18
F0.82985
sg19
Nsg20
Nsg21
F0.2163638256898374
sg22
F0.436
sg23
Nsg24
Nsg25
I0
ssg26
I01
sg27
I01
sba(iSong
Song
p988
(dp989
g3
(dp990
g5
F0.0811
sg6
VSong Goes Off
p991
sg8
F0.519464
sg9
F0.462
sg10
S'r_b'
p992
sg12
F0.0628
sg13
VTrey Songz
p993
sg15
I9999
sg16
F0.678
sg17
Nsg18
F0.8693000000000001
sg19
Nsg20
Nsg21
F0.2163638256898374
sg22
F0.121
sg23
Nsg24
Nsg25
I0
ssg26
I01
sg27
I01
sba(iSong
Song
p994
(dp995
g3
(dp996
g5
F0.143
sg6
VWhile We're Young
p997
sg8
F0.5123479999999999
sg9
F0.784
sg10
S'r_b'
p998
sg12
F0.227
sg13
VJhene Aiko
p999
sg15
I9999
sg16
F0.623
sg17
Nsg18
F0.8987833333333334
sg19
Nsg20
Nsg21
F0.2163638256898374
sg22
F0.821
sg23
Nsg24
Nsg25
F1.31e-06
ssg26
I01
sg27
I01
sba(iSong
Song
p1000
(dp1001
g3
(dp1002
g5
F0.0973
sg6
VBanana Clip
p1003
sg8
F0.339912
sg9
F0.708
sg10
S'r_b'
p1004
sg12
F0.0754
sg13
VMiguel
p1005
sg15
I9999
sg16
F0.638
sg17
Nsg18
F0.9109666666666667
sg19
Nsg20
Nsg21
F0.2163638256898374
sg22
F0.606
sg23
Nsg24
Nsg25
I0
ssg26
I01
sg27
I01
sba(iSong
Song
p1006
(dp1007
g3
(dp1008
g5
F0.318
sg6
VMood
p1009
sg8
F0.2754
sg9
F0.446
sg10
S'r_b'
p1010
sg12
F0.22
sg13
Vdvsn
p1011
sg15
I9999
sg16
F0.622
sg17
Nsg18
F0.8392166666666667
sg19
Nsg20
Nsg21
F0.2163638256898374
sg22
F0.168
sg23
Nsg24
Nsg25
F0.0135
ssg26
I01
sg27
I01
sba(iSong
Song
p1012
(dp1013
g3
(dp1014
g5
F0.298
sg6
V2
p1015
sg8
F0.599992
sg9
F0.438
sg10
S'r_b'
p1016
sg12
F0.157
sg13
VH.E.R.
p1017
sg15
I9999
sg16
F0.796
sg17
Nsg18
F0.8771
sg19
Nsg20
Nsg21
F0.2163638256898374
sg22
F0.442
sg23
Nsg24
Nsg25
F0.0135
ssg26
I01
sg27
I01
sba(iSong
Song
p1018
(dp1019
g3
(dp1020
g5
F0.186
sg6
VWhen We
p1021
sg8
F0.471324
sg9
F0.325
sg10
S'r_b'
p1022
sg12
F0.0794
sg13
VTank
p1023
sg15
I9999
sg16
F0.612
sg17
Nsg18
F0.8417166666666667
sg19
Nsg20
Nsg21
F0.2163638256898374
sg22
F0.0628
sg23
Nsg24
Nsg25
F1.06e-05
ssg26
I01
sg27
I01
sba(iSong
Song
p1024
(dp1025
g3
(dp1026
g5
F0.142
sg6
VAnointed
p1027
sg8
F0.524824
sg9
F0.56
sg10
S'r_b'
p1028
sg12
F0.0415
sg13
VMiguel
p1029
sg15
I9999
sg16
F0.554
sg17
Nsg18
F0.9196000000000001
sg19
Nsg20
Nsg21
F0.2163638256898374
sg22
F0.0786
sg23
Nsg24
Nsg25
I0
ssg26
I01
sg27
I01
sba(iSong
Song
p1030
(dp1031
g3
(dp1032
g5
F0.0116
sg6
VEx (feat. YG)
p1033
sg8
F0.408224
sg9
F0.426
sg10
S'r_b'
p1034
sg12
F0.0473
sg13
VTy Dolla $ign
p1035
sg15
I9999
sg16
F0.77
sg17
Nsg18
F0.9047166666666667
sg19
Nsg20
Nsg21
F0.2163638256898374
sg22
F0.523
sg23
Nsg24
Nsg25
I0
ssg26
I01
sg27
I01
sba(iSong
Song
p1036
(dp1037
g3
(dp1038
g5
F0.537
sg6
VInsecure
p1039
sg8
F0.355264
sg9
F0.511
sg10
S'r_b'
p1040
sg12
F0.324
sg13
VJazmine Sullivan
p1041
sg15
I9999
sg16
F0.512
sg17
Nsg18
F0.9264666666666667
sg19
Nsg20
Nsg21
F0.2163638256898374
sg22
F0.651
sg23
Nsg24
Nsg25
I0
ssg26
I01
sg27
I01
sba(iSong
Song
p1042
(dp1043
g3
(dp1044
g5
F0.124
sg6
VAt The Club
p1045
sg8
F0.368116
sg9
F0.668
sg10
S'r_b'
p1046
sg12
F0.093
sg13
VJacquees
p1047
sg15
I9999
sg16
F0.795
sg17
Nsg18
F0.8785333333333334
sg19
Nsg20
Nsg21
F0.2163638256898374
sg22
F0.372
sg23
Nsg24
Nsg25
I0
ssg26
I01
sg27
I01
sba(iSong
Song
p1048
(dp1049
g3
(dp1050
g5
F0.111
sg6
VLove Galore
p1051
sg8
F0.540008
sg9
F0.594
sg10
S'r_b'
p1052
sg12
F0.0747
sg13
VSZA
p1053
sg15
I9999
sg16
F0.795
sg17
Nsg18
F0.8966666666666666
sg19
Nsg20
Nsg21
F0.2163638256898374
sg22
F0.409
sg23
Nsg24
Nsg25
I0
ssg26
I01
sg27
I01
sba(iSong
Song
p1054
(dp1055
g3
(dp1056
g5
F0.129
sg6
VEverybody Knows
p1057
sg8
F0.5318160000000001
sg9
F0.629
sg10
S'r_b'
p1058
sg12
F0.0695
sg13
VChris Brown
p1059
sg15
I9999
sg16
F0.655
sg17
Nsg18
F0.8876166666666666
sg19
Nsg20
Nsg21
F0.2163638256898374
sg22
F0.182
sg23
Nsg24
Nsg25
I0
ssg26
I01
sg27
I01
sba(iSong
Song
p1060
(dp1061
g3
(dp1062
g5
F0.335
sg6
VIncapable
p1063
sg8
F0.720236
sg9
F0.503
sg10
S'r_b'
p1064
sg12
F0.0445
sg13
VKeyshia Cole
p1065
sg15
I9999
sg16
F0.474
sg17
Nsg18
F0.9118499999999999
sg19
Nsg20
Nsg21
F0.2163638256898374
sg22
F0.431
sg23
Nsg24
Nsg25
I0
ssg26
I01
sg27
I01
sba(iSong
Song
p1066
(dp1067
g3
(dp1068
g5
F0.196
sg6
VVersace On The Floor
p1069
sg8
F0.6966079999999999
sg9
F0.574
sg10
S'r_b'
p1070
sg12
F0.0454
sg13
VBruno Mars
p1071
sg15
I9999
sg16
F0.578
sg17
Nsg18
F0.8965166666666666
sg19
Nsg20
Nsg21
F0.2163638256898374
sg22
F0.301
sg23
Nsg24
Nsg25
I0
ssg26
I01
sg27
I01
sba(iSong
Song
p1072
(dp1073
g3
(dp1074
g5
F0.365
sg6
VLoved By You
p1075
sg8
F0.27557600000000004
sg9
F0.481
sg10
S'r_b'
p1076
sg12
F0.128
sg13
VMali Music
p1077
sg15
I9999
sg16
F0.307
sg17
Nsg18
F0.8593
sg19
Nsg20
Nsg21
F0.2163638256898374
sg22
F0.329
sg23
Nsg24
Nsg25
I0
ssg26
I01
sg27
I01
sba(iSong
Song
p1078
(dp1079
g3
(dp1080
g5
F0.432
sg6
VBlind
p1081
sg8
F0.352096
sg9
F0.505
sg10
S'r_b'
p1082
sg12
F0.0608
sg13
VTamar Braxton
p1083
sg15
I9999
sg16
F0.379
sg17
Nsg18
F0.9086166666666667
sg19
Nsg20
Nsg21
F0.2163638256898374
sg22
F0.367
sg23
Nsg24
Nsg25
I0
ssg26
I01
sg27
I01
sba(iSong
Song
p1084
(dp1085
g3
(dp1086
g5
F0.261
sg6
VTemperature
p1087
sg8
F0.419848
sg9
F0.563
sg10
S'r_b'
p1088
sg12
F0.209
sg13
VDevvon Terrell
p1089
sg15
I9999
sg16
F0.634
sg17
Nsg18
F0.8845333333333334
sg19
Nsg20
Nsg21
F0.2163638256898374
sg22
F0.558
sg23
Nsg24
Nsg25
I0
ssg26
I01
sg27
I01
sba(iSong
Song
p1090
(dp1091
g3
(dp1092
g5
F0.0212
sg6
VDrip
p1093
sg8
F0.29196
sg9
F0.415
sg10
S'r_b'
p1094
sg12
F0.0415
sg13
VLuke James
p1095
sg15
I9999
sg16
F0.618
sg17
Nsg18
F0.9124833333333334
sg19
Nsg20
Nsg21
F0.2163638256898374
sg22
F0.429
sg23
Nsg24
Nsg25
F4.98e-06
ssg26
I01
sg27
I01
sba(iSong
Song
p1096
(dp1097
g3
(dp1098
g5
F0.453
sg6
VBlind Man
p1099
sg8
F0.444124
sg9
F0.523
sg10
S'r_b'
p1100
sg12
F0.056
sg13
VXavier Omr
p1101
sg15
I9999
sg16
F0.89
sg17
Nsg18
F0.8579000000000001
sg19
Nsg20
Nsg21
F0.2163638256898374
sg22
F0.345
sg23
Nsg24
Nsg25
F1.58e-06
ssg26
I01
sg27
I01
sba(iSong
Song
p1102
(dp1103
g3
(dp1104
g5
F0.616
sg6
VPrototype
p1105
sg8
F0.558868
sg9
F0.418
sg10
S'r_b'
p1106
sg12
F0.117
sg13
VKevin Ross
p1107
sg15
I9999
sg16
F0.706
sg17
Nsg18
F0.84445
sg19
Nsg20
Nsg21
F0.2163638256898374
sg22
F0.195
sg23
Nsg24
Nsg25
F2.04e-05
ssg26
I01
sg27
I01
sba(iSong
Song
p1108
(dp1109
g3
(dp1110
g5
F0.204
sg6
VBefore I Do
p1111
sg8
F0.31614
sg9
F0.532
sg10
S'r_b'
p1112
sg12
F0.071
sg13
VSevyn Streeter
p1113
sg15
I9999
sg16
F0.66
sg17
Nsg18
F0.8858833333333334
sg19
Nsg20
Nsg21
F0.2163638256898374
sg22
F0.635
sg23
Nsg24
Nsg25
I0
ssg26
I01
sg27
I01
sba(iSong
Song
p1114
(dp1115
g3
(dp1116
g5
F0.0266
sg6
VEither Way (feat. Chris Brown)
p1117
sg8
F0.536532
sg9
F0.403
sg10
S'r_b'
p1118
sg12
F0.178
sg13
VK. Michelle
p1119
sg15
I9999
sg16
F0.839
sg17
Nsg18
F0.8751666666666666
sg19
Nsg20
Nsg21
F0.2163638256898374
sg22
F0.387
sg23
Nsg24
Nsg25
I0
ssg26
I01
sg27
I01
sba(iSong
Song
p1120
(dp1121
g3
(dp1122
g5
F0.132
sg6
VDon't Matter
p1123
sg8
F0.511648
sg9
F0.529
sg10
S'r_b'
p1124
sg12
F0.167
sg13
VAugust Alsina
p1125
sg15
I9999
sg16
F0.668
sg17
Nsg18
F0.8699333333333333
sg19
Nsg20
Nsg21
F0.2163638256898374
sg22
F0.545
sg23
Nsg24
Nsg25
I0
ssg26
I01
sg27
I01
sba(iSong
Song
p1126
(dp1127
g3
(dp1128
g5
F0.0172
sg6
VSkrt Skrt
p1129
sg8
F0.382688
sg9
F0.631
sg10
S'r_b'
p1130
sg12
F0.119
sg13
VTory Lanez
p1131
sg15
I9999
sg16
F0.574
sg17
Nsg18
F0.85885
sg19
Nsg20
Nsg21
F0.2163638256898374
sg22
F0.258
sg23
Nsg24
Nsg25
F1.18e-06
ssg26
I01
sg27
I01
sba(iSong
Song
p1132
(dp1133
g3
(dp1134
g5
F0.0691
sg6
VOnly 4 Me
p1135
sg8
F0.561492
sg9
F0.684
sg10
S'r_b'
p1136
sg12
F0.0643
sg13
VChris Brown
p1137
sg15
I9999
sg16
F0.683
sg17
Nsg18
F0.9246333333333333
sg19
Nsg20
Nsg21
F0.2163638256898374
sg22
F0.905
sg23
Nsg24
Nsg25
I0
ssg26
I01
sg27
I01
sba(iSong
Song
p1138
(dp1139
g3
(dp1140
g5
F0.086
sg6
VWant More
p1141
sg8
F0.41086399999999995
sg9
F0.519
sg10
S'r_b'
p1142
sg12
F0.174
sg13
VRotimi
p1143
sg15
I9999
sg16
F0.668
sg17
Nsg18
F0.88445
sg19
Nsg20
Nsg21
F0.2163638256898374
sg22
F0.392
sg23
Nsg24
Nsg25
I0
ssg26
I01
sg27
I01
sba(iSong
Song
p1144
(dp1145
g3
(dp1146
g5
F0.134
sg6
VTold You So
p1147
sg8
F0.472132
sg9
F0.648
sg10
S'r_b'
p1148
sg12
F0.0373
sg13
VMiguel
p1149
sg15
I9999
sg16
F0.785
sg17
Nsg18
F0.9245833333333333
sg19
Nsg20
Nsg21
F0.2163638256898374
sg22
F0.689
sg23
Nsg24
Nsg25
I0
ssg26
I01
sg27
I01
sba(iSong
Song
p1150
(dp1151
g3
(dp1152
g5
F0.488
sg6
VThinking \u2018Bout You (Sleepless In Cairo)
p1153
sg8
F0.551848
sg9
F0.557
sg10
S'r_b'
p1154
sg12
F0.124
sg13
VSufyvn
p1155
sg15
I9999
sg16
F0.604
sg17
Nsg18
I0
sg19
Nsg20
Nsg21
F0.2163638256898374
sg22
F0.513
sg23
Nsg24
Nsg25
F2.64e-05
ssg26
I01
sg27
I01
sba(iSong
Song
p1156
(dp1157
g3
(dp1158
g5
F0.665
sg6
VLights On
p1159
sg8
F0.47158
sg9
F0.415
sg10
S'r_b'
p1160
sg12
F0.092
sg13
VH.E.R.
p1161
sg15
I9999
sg16
F0.664
sg17
Nsg18
F0.8421166666666667
sg19
Nsg20
Nsg21
F0.2163638256898374
sg22
F0.34
sg23
Nsg24
Nsg25
F0.000434
ssg26
I01
sg27
I01
sba(iSong
Song
p1162
(dp1163
g3
(dp1164
g5
F0.542
sg6
VWanna Be Yours
p1165
sg8
F0.685216
sg9
F0.645
sg10
S'r_b'
p1166
sg12
F0.412
sg13
VGuordan Banks
p1167
sg15
I9999
sg16
F0.4
sg17
Nsg18
F0.8909333333333334
sg19
Nsg20
Nsg21
F0.2163638256898374
sg22
F0.672
sg23
Nsg24
Nsg25
F2.74e-05
ssg26
I01
sg27
I01
sba(iSong
Song
p1168
(dp1169
g3
(dp1170
g5
F0.107
sg6
VComplicated
p1171
sg8
F0.47345600000000004
sg9
F0.516
sg10
S'r_b'
p1172
sg12
F0.259
sg13
VMIKExANGEL
p1173
sg15
I9999
sg16
F0.577
sg17
Nsg18
F0.8730666666666667
sg19
Nsg20
Nsg21
F0.2163638256898374
sg22
F0.343
sg23
Nsg24
Nsg25
I0
ssg26
I01
sg27
I01
sba(iSong
Song
p1174
(dp1175
g3
(dp1176
g5
F0.0176
sg6
VNowhere
p1177
sg8
F0.323368
sg9
F0.622
sg10
S'r_b'
p1178
sg12
F0.0752
sg13
VChris Brown
p1179
sg15
I9999
sg16
F0.383
sg17
Nsg18
F0.90215
sg19
Nsg20
Nsg21
F0.2163638256898374
sg22
F0.368
sg23
Nsg24
Nsg25
I0
ssg26
I01
sg27
I01
sba(iSong
Song
p1180
(dp1181
g3
(dp1182
g5
F0.0781
sg6
VQuicksand
p1183
sg8
F0.41594
sg9
F0.69
sg10
S'r_b'
p1184
sg12
F0.269
sg13
VSZA
p1185
sg15
I9999
sg16
F0.803
sg17
Nsg18
F0.9018333333333334
sg19
Nsg20
Nsg21
F0.2163638256898374
sg22
F0.444
sg23
Nsg24
Nsg25
I0
ssg26
I01
sg27
I01
sba(iSong
Song
p1186
(dp1187
g3
(dp1188
g5
F0.102
sg6
VBetter Man (feat. Rick Ross)
p1189
sg8
F0.35992
sg9
F0.574
sg10
S'r_b'
p1190
sg12
F0.0884
sg13
VPARTYNEXTDOOR
p1191
sg15
I9999
sg16
F0.797
sg17
Nsg18
F0.8579666666666667
sg19
Nsg20
Nsg21
F0.2163638256898374
sg22
F0.629
sg23
Nsg24
Nsg25
F0.000601
ssg26
I01
sg27
I01
sba(iSong
Song
p1192
(dp1193
g3
(dp1194
g5
F0.74
sg6
VProvider
p1195
sg8
F0.5595439999999999
sg9
F0.325
sg10
S'r_b'
p1196
sg12
F0.282
sg13
VFrank Ocean
p1197
sg15
I9999
sg16
F0.654
sg17
Nsg18
F0.80125
sg19
Nsg20
Nsg21
F0.2163638256898374
sg22
F0.39
sg23
Nsg24
Nsg25
F2.14e-05
ssg26
I01
sg27
I01
sba(iSong
Song
p1198
(dp1199
g3
(dp1200
g5
F0.0395
sg6
VGive You More
p1201
sg8
F0.35985199999999995
sg9
F0.693
sg10
S'r_b'
p1202
sg12
F0.172
sg13
VLedisi
p1203
sg15
I9999
sg16
F0.639
sg17
Nsg18
F0.9027499999999999
sg19
Nsg20
Nsg21
F0.2163638256898374
sg22
F0.61
sg23
Nsg24
Nsg25
I0
ssg26
I01
sg27
I01
sba(iSong
Song
p1204
(dp1205
g3
(dp1206
g5
F0.597
sg6
VGrey Luh
p1207
sg8
F0.502092
sg9
F0.298
sg10
S'r_b'
p1208
sg12
F0.0683
sg13
VBerhana
p1209
sg15
I9999
sg16
F0.543
sg17
Nsg18
F0.8472166666666666
sg19
Nsg20
Nsg21
F0.2163638256898374
sg22
F0.254
sg23
Nsg24
Nsg25
F1.49e-06
ssg26
I01
sg27
I01
sba(iSong
Song
p1210
(dp1211
g3
(dp1212
g5
F0.229
sg6
VIMAGINATION
p1213
sg8
F0.56816
sg9
F0.679
sg10
S'r_b'
p1214
sg12
F0.122
sg13
VAdrian Marcel
p1215
sg15
I9999
sg16
F0.663
sg17
Nsg18
F0.9233499999999999
sg19
Nsg20
Nsg21
F0.2163638256898374
sg22
F0.608
sg23
Nsg24
Nsg25
F7.89e-05
ssg26
I01
sg27
I01
sba(iSong
Song
p1216
(dp1217
g3
(dp1218
g5
F0.0224
sg6
VLOYALTY. FEAT. RIHANNA.
p1219
sg8
F0.443212
sg9
F0.541
sg10
S'r_b'
p1220
sg12
F0.055
sg13
VKendrick Lamar
p1221
sg15
I9999
sg16
F0.681
sg17
Nsg18
F0.8512333333333333
sg19
Nsg20
Nsg21
F0.2163638256898374
sg22
F0.413
sg23
Nsg24
Nsg25
I0
ssg26
I01
sg27
I01
sba(iSong
Song
p1222
(dp1223
g3
(dp1224
g5
F0.00572
sg6
Vdo re mi (feat. Gucci Mane)
p1225
sg8
F0.448064
sg9
F0.657
sg10
S'r_b'
p1226
sg12
F0.0595
sg13
Vblackbear
p1227
sg15
I9999
sg16
F0.74
sg17
Nsg18
F0.89485
sg19
Nsg20
Nsg21
F0.2163638256898374
sg22
F0.179
sg23
Nsg24
Nsg25
I0
ssg26
I01
sg27
I01
sba(iSong
Song
p1228
(dp1229
g3
(dp1230
g5
F0.117
sg6
VCrew
p1231
sg8
F0.519808
sg9
F0.602
sg10
S'r_b'
p1232
sg12
F0.133
sg13
VGoldLink
p1233
sg15
I9999
sg16
F0.727
sg17
Nsg18
F0.8596666666666667
sg19
Nsg20
Nsg21
F0.2163638256898374
sg22
F0.418
sg23
Nsg24
Nsg25
I0
ssg26
I01
sg27
I01
sba(iSong
Song
p1234
(dp1235
g3
(dp1236
g5
F0.0116
sg6
VEx (feat. YG)
p1237
sg8
F0.408224
sg9
F0.426
sg10
S'r_b'
p1238
sg12
F0.0473
sg13
VTy Dolla $ign
p1239
sg15
I9999
sg16
F0.77
sg17
Nsg18
F0.9047166666666667
sg19
Nsg20
Nsg21
F0.2163638256898374
sg22
F0.523
sg23
Nsg24
Nsg25
I0
ssg26
I01
sg27
I01
sba(iSong
Song
p1240
(dp1241
g3
(dp1242
g5
F0.0287
sg6
VWild Thoughts
p1243
sg8
F0.390484
sg9
F0.681
sg10
S'r_b'
p1244
sg12
F0.0778
sg13
VDJ Khaled
p1245
sg15
I9999
sg16
F0.613
sg17
Nsg18
F0.9485166666666667
sg19
Nsg20
Nsg21
F0.2163638256898374
sg22
F0.619
sg23
Nsg24
Nsg25
I0
ssg26
I01
sg27
I01
sba(iSong
Song
p1246
(dp1247
g3
(dp1248
g5
F0.0313
sg6
VIt's A Vibe
p1249
sg8
F0.29165199999999997
sg9
F0.488
sg10
S'r_b'
p1250
sg12
F0.18
sg13
V2 Chainz
p1251
sg15
I9999
sg16
F0.803
sg17
Nsg18
F0.8739333333333333
sg19
Nsg20
Nsg21
F0.2163638256898374
sg22
F0.553
sg23
Nsg24
Nsg25
F0.000285
ssg26
I01
sg27
I01
sba(iSong
Song
p1252
(dp1253
g3
(dp1254
g5
F0.152
sg6
VSpace (feat. Sexton)
p1255
sg8
F0.5600599999999999
sg9
F0.563
sg10
S'r_b'
p1256
sg12
F0.143
sg13
VTK Kravitz
p1257
sg15
I9999
sg16
F0.91
sg17
Nsg18
F0.8582166666666667
sg19
Nsg20
Nsg21
F0.2163638256898374
sg22
F0.598
sg23
Nsg24
Nsg25
I0
ssg26
I01
sg27
I01
sba(iSong
Song
p1258
(dp1259
g3
(dp1260
g5
F0.182
sg6
VFake Love
p1261
sg8
F0.535628
sg9
F0.543
sg10
S'r_b'
p1262
sg12
F0.298
sg13
VDrake
p1263
sg15
I9999
sg16
F0.924
sg17
Nsg18
F0.8754333333333333
sg19
Nsg20
Nsg21
F0.2163638256898374
sg22
F0.736
sg23
Nsg24
Nsg25
I0
ssg26
I01
sg27
I01
sba(iSong
Song
p1264
(dp1265
g3
(dp1266
g5
F0.727
sg6
VLiquor & Misunderstanding
p1267
sg8
F0.447916
sg9
F0.439
sg10
S'r_b'
p1268
sg12
F0.363
sg13
VVerse Simmonds
p1269
sg15
I9999
sg16
F0.572
sg17
Nsg18
F0.8776166666666666
sg19
Nsg20
Nsg21
F0.2163638256898374
sg22
F0.39
sg23
Nsg24
Nsg25
I0
ssg26
I01
sg27
I01
sba(iSong
Song
p1270
(dp1271
g3
(dp1272
g5
F0.00194
sg6
VLemon
p1273
sg8
F0.380176
sg9
F0.73
sg10
S'r_b'
p1274
sg12
F0.088
sg13
VN.E.R.D
p1275
sg15
I9999
sg16
F0.919
sg17
Nsg18
F0.8903166666666666
sg19
Nsg20
Nsg21
F0.2163638256898374
sg22
F0.189
sg23
Nsg24
Nsg25
F8.51e-05
ssg26
I01
sg27
I01
sba(iSong
Song
p1276
(dp1277
g3
(dp1278
g5
F0.0483
sg6
Vup in this (with Tinashe)
p1279
sg8
F0.51186
sg9
F0.714
sg10
S'r_b'
p1280
sg12
F0.0839
sg13
Vblackbear
p1281
sg15
I9999
sg16
F0.729
sg17
Nsg18
F0.8988833333333334
sg19
Nsg20
Nsg21
F0.2163638256898374
sg22
F0.492
sg23
Nsg24
Nsg25
I0
ssg26
I01
sg27
I01
sba(iSong
Song
p1282
(dp1283
g3
(dp1284
g5
F0.184
sg6
VYoung Dumb & Broke REMIX
p1285
sg8
F0.547952
sg9
F0.56
sg10
S'r_b'
p1286
sg12
F0.0479
sg13
VKhalid
p1287
sg15
I9999
sg16
F0.795
sg17
Nsg18
F0.9037833333333334
sg19
Nsg20
Nsg21
F0.2163638256898374
sg22
F0.459
sg23
Nsg24
Nsg25
I0
ssg26
I01
sg27
I01
sba(iSong
Song
p1288
(dp1289
g3
(dp1290
g5
F0.203
sg6
VIssues (feat. Russ)
p1291
sg8
F0.33589600000000003
sg9
F0.642
sg10
S'r_b'
p1292
sg12
F0.0729
sg13
VPnB Rock
p1293
sg15
I9999
sg16
F0.655
sg17
Nsg18
F0.8873666666666666
sg19
Nsg20
Nsg21
F0.2163638256898374
sg22
F0.208
sg23
Nsg24
Nsg25
F2.3e-05
ssg26
I01
sg27
I01
sba(iSong
Song
p1294
(dp1295
g3
(dp1296
g5
F0.0887
sg6
V1999 (feat. Lloyd)
p1297
sg8
F0.632104
sg9
F0.7
sg10
S'r_b'
p1298
sg12
F0.212
sg13
VBig K.R.I.T.
p1299
sg15
I9999
sg16
F0.699
sg17
Nsg18
F0.8915333333333333
sg19
Nsg20
Nsg21
F0.2163638256898374
sg22
F0.534
sg23
Nsg24
Nsg25
I0
ssg26
I01
sg27
I01
sba(iSong
Song
p1300
(dp1301
g3
(dp1302
g5
F0.183
sg6
VWhat You Like (feat. PnB Rock & MadeinTYO)
p1303
sg8
F0.559812
sg9
F0.679
sg10
S'r_b'
p1304
sg12
F0.065
sg13
V24hrs
p1305
sg15
I9999
sg16
F0.83
sg17
Nsg18
F0.93045
sg19
Nsg20
Nsg21
F0.2163638256898374
sg22
F0.816
sg23
Nsg24
Nsg25
I0
ssg26
I01
sg27
I01
sba(iSong
Song
p1306
(dp1307
g3
(dp1308
g5
F0.149
sg6
VReminder - Remix
p1309
sg8
F0.639976
sg9
F0.65
sg10
S'r_b'
p1310
sg12
F0.227
sg13
VThe Weeknd
p1311
sg15
I9999
sg16
F0.745
sg17
Nsg18
F0.9001333333333333
sg19
Nsg20
Nsg21
F0.2163638256898374
sg22
F0.521
sg23
Nsg24
Nsg25
I0
ssg26
I01
sg27
I01
sba(iSong
Song
p1312
(dp1313
g3
(dp1314
g5
F0.0287
sg6
VWhatever You Need (feat. Chris Brown & Ty Dolla $ign)
p1315
sg8
F0.656248
sg9
F0.565
sg10
S'r_b'
p1316
sg12
F0.182
sg13
VMeek Mill
p1317
sg15
I9999
sg16
F0.515
sg17
Nsg18
F0.8777166666666666
sg19
Nsg20
Nsg21
F0.2163638256898374
sg22
F0.304
sg23
Nsg24
Nsg25
I0
ssg26
I01
sg27
I01
sba(iSong
Song
p1318
(dp1319
g3
(dp1320
g5
F0.455
sg6
VShow and Tell (feat. Eric Bellinger)
p1321
sg8
F0.352168
sg9
F0.726
sg10
S'r_b'
p1322
sg12
F0.269
sg13
VSammie
p1323
sg15
I9999
sg16
F0.683
sg17
Nsg18
F0.8860833333333333
sg19
Nsg20
Nsg21
F0.2163638256898374
sg22
F0.699
sg23
Nsg24
Nsg25
I0
ssg26
I01
sg27
I01
sba(iSong
Song
p1324
(dp1325
g3
(dp1326
g5
F0.114
sg6
VSelfish
p1327
sg8
F0.40792399999999995
sg9
F0.6
sg10
S'r_b'
p1328
sg12
F0.0438
sg13
VPnB Rock
p1329
sg15
I9999
sg16
F0.638
sg17
Nsg18
F0.9026666666666666
sg19
Nsg20
Nsg21
F0.2163638256898374
sg22
F0.0399
sg23
Nsg24
Nsg25
I0
ssg26
I01
sg27
I01
sba(iSong
Song
p1330
(dp1331
g3
(dp1332
g5
F0.277
sg6
VHol' Up (feat. Yo Gotti)
p1333
sg8
F0.56028
sg9
F0.588
sg10
S'r_b'
p1334
sg12
F0.136
sg13
VTamar Braxton
p1335
sg15
I9999
sg16
F0.866
sg17
Nsg18
F0.9265666666666666
sg19
Nsg20
Nsg21
F0.2163638256898374
sg22
F0.891
sg23
Nsg24
Nsg25
I0
ssg26
I01
sg27
I01
sba(iSong
Song
p1336
(dp1337
g3
(dp1338
g5
F0.0201
sg6
VLove U Better (feat. Lil Wayne & The-Dream)
p1339
sg8
F0.4714
sg9
F0.477
sg10
S'r_b'
p1340
sg12
F0.0503
sg13
VTy Dolla $ign
p1341
sg15
I9999
sg16
F0.482
sg17
Nsg18
F0.8592666666666666
sg19
Nsg20
Nsg21
F0.2163638256898374
sg22
F0.379
sg23
Nsg24
Nsg25
I0
ssg26
I01
sg27
I01
sba(iSong
Song
p1342
(dp1343
g3
(dp1344
g5
F0.304
sg6
VDream Girl
p1345
sg8
F0.432468
sg9
F0.452
sg10
S'r_b'
p1346
sg12
F0.21
sg13
VNick Cannon
p1347
sg15
I9999
sg16
F0.716
sg17
Nsg18
F0.88905
sg19
Nsg20
Nsg21
F0.2163638256898374
sg22
F0.21
sg23
Nsg24
Nsg25
I0
ssg26
I01
sg27
I01
sba(iSong
Song
p1348
(dp1349
g3
(dp1350
g5
F0.0186
sg6
VMy Imagination (feat. dvsn)
p1351
sg8
F0.516004
sg9
F0.545
sg10
S'r_b'
p1352
sg12
F0.0506
sg13
VMajid Jordan
p1353
sg15
I9999
sg16
F0.695
sg17
Nsg18
F0.8194
sg19
Nsg20
Nsg21
F0.2163638256898374
sg22
F0.0387
sg23
Nsg24
Nsg25
F0.128
ssg26
I01
sg27
I01
sba(iSong
Song
p1354
(dp1355
g3
(dp1356
g5
F0.196
sg6
VVersace On The Floor
p1357
sg8
F0.6966079999999999
sg9
F0.574
sg10
S'r_b'
p1358
sg12
F0.0454
sg13
VBruno Mars
p1359
sg15
I9999
sg16
F0.578
sg17
Nsg18
F0.8965166666666666
sg19
Nsg20
Nsg21
F0.2163638256898374
sg22
F0.301
sg23
Nsg24
Nsg25
I0
ssg26
I01
sg27
I01
sba(iSong
Song
p1360
(dp1361
g3
(dp1362
g5
F0.165
sg6
VLove a Loser
p1363
sg8
F0.5642079999999999
sg9
F0.628
sg10
S'r_b'
p1364
sg12
F0.0861
sg13
VCassie
p1365
sg15
I9999
sg16
F0.73
sg17
Nsg18
F0.9149333333333334
sg19
Nsg20
Nsg21
F0.2163638256898374
sg22
F0.374
sg23
Nsg24
Nsg25
I0
ssg26
I01
sg27
I01
sba(iSong
Song
p1366
(dp1367
g3
(dp1368
g5
F0.274
sg6
VBelong To You (feat. 6LACK) - Remix [Bonus Track]
p1369
sg8
F0.608304
sg9
F0.553
sg10
S'r_b'
p1370
sg12
F0.101
sg13
VSabrina Claudio
p1371
sg15
I9999
sg16
F0.605
sg17
Nsg18
F0.81925
sg19
Nsg20
Nsg21
F0.2163638256898374
sg22
F0.62
sg23
Nsg24
Nsg25
F0.0152
ssg26
I01
sg27
I01
sba(iSong
Song
p1372
(dp1373
g3
(dp1374
g5
F0.0266
sg6
VEither Way (feat. Chris Brown)
p1375
sg8
F0.536532
sg9
F0.403
sg10
S'r_b'
p1376
sg12
F0.178
sg13
VK. Michelle
p1377
sg15
I9999
sg16
F0.839
sg17
Nsg18
F0.8751666666666666
sg19
Nsg20
Nsg21
F0.2163638256898374
sg22
F0.387
sg23
Nsg24
Nsg25
I0
ssg26
I01
sg27
I01
sba(iSong
Song
p1378
(dp1379
g3
(dp1380
g5
F0.024
sg6
VTime
p1381
sg8
F0.39169600000000004
sg9
F0.772
sg10
S'r_b'
p1382
sg12
F0.0581
sg13
VPnB Rock
p1383
sg15
I9999
sg16
F0.621
sg17
Nsg18
F0.9315
sg19
Nsg20
Nsg21
F0.2163638256898374
sg22
F0.502
sg23
Nsg24
Nsg25
I0
ssg26
I01
sg27
I01
sba(iSong
Song
p1384
(dp1385
g3
(dp1386
g5
F0.013
sg6
VThat's What I Like
p1387
sg8
F0.536264
sg9
F0.56
sg10
S'r_b'
p1388
sg12
F0.0406
sg13
VBruno Mars
p1389
sg15
I9999
sg16
F0.853
sg17
Nsg18
F0.9173166666666667
sg19
Nsg20
Nsg21
F0.2163638256898374
sg22
F0.86
sg23
Nsg24
Nsg25
I0
ssg26
I01
sg27
I01
sba(iSong
Song
p1390
(dp1391
g3
(dp1392
g5
F0.0935
sg6
VSomething New (feat. Ty Dolla $ign)
p1393
sg8
F0.350324
sg9
F0.635
sg10
S'r_b'
p1394
sg12
F0.0809
sg13
VWiz Khalifa
p1395
sg15
I9999
sg16
F0.814
sg17
Nsg18
F0.8898499999999999
sg19
Nsg20
Nsg21
F0.2163638256898374
sg22
F0.784
sg23
Nsg24
Nsg25
I0
ssg26
I01
sg27
I01
sba(iSong
Song
p1396
(dp1397
g3
(dp1398
g5
F0.00406
sg6
VB.E.D. - Remix
p1399
sg8
F0.488036
sg9
F0.492
sg10
S'r_b'
p1400
sg12
F0.0396
sg13
VJacquees
p1401
sg15
I9999
sg16
F0.711
sg17
Nsg18
F0.8578666666666667
sg19
Nsg20
Nsg21
F0.2163638256898374
sg22
F0.409
sg23
Nsg24
Nsg25
I0
ssg26
I01
sg27
I01
sba(iSong
Song
p1402
(dp1403
g3
(dp1404
g5
F0.446
sg6
VRollin
p1405
sg8
F0.36781200000000003
sg9
F0.76
sg10
S'r_b'
p1406
sg12
F0.0859
sg13
VCalvin Harris
p1407
sg15
I9999
sg16
F0.753
sg17
Nsg18
F0.9247
sg19
Nsg20
Nsg21
F0.2163638256898374
sg22
F0.657
sg23
Nsg24
Nsg25
F3.13e-05
ssg26
I01
sg27
I01
sba(iSong
Song
p1408
(dp1409
g3
(dp1410
g5
F0.0556
sg6
VParty
p1411
sg8
F0.568384
sg9
F0.576
sg10
S'r_b'
p1412
sg12
F0.0829
sg13
VChris Brown
p1413
sg15
I9999
sg16
F0.762
sg17
Nsg18
F0.9174833333333333
sg19
Nsg20
Nsg21
F0.2163638256898374
sg22
F0.316
sg23
Nsg24
Nsg25
I0
ssg26
I01
sg27
I01
sba(iSong
Song
p1414
(dp1415
g3
(dp1416
g5
F0.0275
sg6
VGood Problem
p1417
sg8
F0.44007999999999997
sg9
F0.581
sg10
S'r_b'
p1418
sg12
F0.0942
sg13
VK CAMP
p1419
sg15
I9999
sg16
F0.882
sg17
Nsg18
F0.8971833333333333
sg19
Nsg20
Nsg21
F0.2163638256898374
sg22
F0.545
sg23
Nsg24
Nsg25
I0
ssg26
I01
sg27
I01
sba(iSong
Song
p1420
(dp1421
g3
(dp1422
g5
F0.309
sg6
VEither Way
p1423
sg8
F0.712072
sg9
F0.659
sg10
S'r_b'
p1424
sg12
F0.155
sg13
VSnakehips
p1425
sg15
I9999
sg16
F0.635
sg17
Nsg18
F0.9179999999999999
sg19
Nsg20
Nsg21
F0.2163638256898374
sg22
F0.54
sg23
Nsg24
Nsg25
I0
ssg26
I01
sg27
I01
sba(iSong
Song
p1426
(dp1427
g3
(dp1428
g5
F0.0868
sg6
VLove Like Ours (feat. Tarrus Riley)
p1429
sg8
F0.31833999999999996
sg9
F0.718
sg10
S'r_b'
p1430
sg12
F0.171
sg13
VEstelle
p1431
sg15
I9999
sg16
F0.442
sg17
Nsg18
F0.9374333333333333
sg19
Nsg20
Nsg21
F0.2163638256898374
sg22
F0.54
sg23
Nsg24
Nsg25
I0
ssg26
I01
sg27
I01
sba(iSong
Song
p1432
(dp1433
g3
(dp1434
g5
F0.00297
sg6
VOne For Me
p1435
sg8
F0.39514
sg9
F0.806
sg10
S'r_b'
p1436
sg12
F0.0787
sg13
VWizKid
p1437
sg15
I9999
sg16
F0.526
sg17
Nsg18
F0.9097000000000001
sg19
Nsg20
Nsg21
F0.2163638256898374
sg22
F0.834
sg23
Nsg24
Nsg25
I0
ssg26
I01
sg27
I01
sba(iSong
Song
p1438
(dp1439
g3
(dp1440
g5
F0.0303
sg6
VSelfish
p1441
sg8
F0.382984
sg9
F0.369
sg10
S'r_b'
p1442
sg12
F0.0741
sg13
VFuture
p1443
sg15
I9999
sg16
F0.415
sg17
Nsg18
F0.8326
sg19
Nsg20
Nsg21
F0.2163638256898374
sg22
F0.0913
sg23
Nsg24
Nsg25
F7.64e-06
ssg26
I01
sg27
I01
sba(iSong
Song
p1444
(dp1445
g3
(dp1446
g5
F0.135
sg6
VSidewalks
p1447
sg8
F0.600392
sg9
F0.727
sg10
S'r_b'
p1448
sg12
F0.0849
sg13
VThe Weeknd
p1449
sg15
I9999
sg16
F0.542
sg17
Nsg18
F0.9122
sg19
Nsg20
Nsg21
F0.2163638256898374
sg22
F0.548
sg23
Nsg24
Nsg25
I0
ssg26
I01
sg27
I01
sba(iSong
Song
p1450
(dp1451
g3
(dp1452
g5
F0.498
sg6
VSlide
p1453
sg8
F0.416264
sg9
F0.795
sg10
S'r_b'
p1454
sg12
F0.0545
sg13
VCalvin Harris
p1455
sg15
I9999
sg16
F0.736
sg17
Nsg18
F0.9450166666666667
sg19
Nsg20
Nsg21
F0.2163638256898374
sg22
F0.511
sg23
Nsg24
Nsg25
F1.21e-06
ssg26
I01
sg27
I01
sba(iSong
Song
p1456
(dp1457
g3
(dp1458
g5
F0.4
sg6
VF With U
p1459
sg8
F0.39422
sg9
F0.528
sg10
S'r_b'
p1460
sg12
F0.274
sg13
VKid Ink
p1461
sg15
I9999
sg16
F0.578
sg17
Nsg18
F0.8805166666666667
sg19
Nsg20
Nsg21
F0.2163638256898374
sg22
F0.622
sg23
Nsg24
Nsg25
I0
ssg26
I01
sg27
I01
sba(iSong
Song
p1462
(dp1463
g3
(dp1464
g5
F0.0134
sg6
VStay For It
p1465
sg8
F0.5757000000000001
sg9
F0.852
sg10
S'r_b'
p1466
sg12
F0.0632
sg13
VRL Grime
p1467
sg15
I9999
sg16
F0.355
sg17
Nsg18
F0.9339
sg19
Nsg20
Nsg21
F0.2163638256898374
sg22
F0.173
sg23
Nsg24
Nsg25
F1.98e-05
ssg26
I01
sg27
I01
sba(iSong
Song
p1468
(dp1469
g3
(dp1470
g5
F0.132
sg6
VPlot Twist
p1471
sg8
F0.5175599999999999
sg9
F0.652
sg10
S'r_b'
p1472
sg12
F0.284
sg13
VMarc E. Bassy
p1473
sg15
I9999
sg16
F0.735
sg17
Nsg18
F0.9004
sg19
Nsg20
Nsg21
F0.2163638256898374
sg22
F0.681
sg23
Nsg24
Nsg25
I0
ssg26
I01
sg27
I01
sba(iSong
Song
p1474
(dp1475
g3
(dp1476
g5
F0.219
sg6
VSTICKY SITUATION
p1477
sg8
F0.519992
sg9
F0.513
sg10
S'r_b'
p1478
sg12
F0.167
sg13
VQUI
p1479
sg15
I9999
sg16
F0.822
sg17
Nsg18
F0.9066666666666666
sg19
Nsg20
Nsg21
F0.2163638256898374
sg22
F0.516
sg23
Nsg24
Nsg25
F0.00302
ssg26
I01
sg27
I01
sba(iSong
Song
p1480
(dp1481
g3
(dp1482
g5
F0.0896
sg6
VGet It Together
p1483
sg8
F0.49203600000000003
sg9
F0.729
sg10
S'r_b'
p1484
sg12
F0.0493
sg13
VDrake
p1485
sg15
I9999
sg16
F0.78
sg17
Nsg18
F0.8477
sg19
Nsg20
Nsg21
F0.2163638256898374
sg22
F0.844
sg23
Nsg24
Nsg25
F0.422
ssg26
I01
sg27
I01
sba(iSong
Song
p1486
(dp1487
g3
(dp1488
g5
F0.19
sg6
VParty Monster
p1489
sg8
F0.309988
sg9
F0.622
sg10
S'r_b'
p1490
sg12
F0.0766
sg13
VThe Weeknd
p1491
sg15
I9999
sg16
F0.589
sg17
Nsg18
F0.86175
sg19
Nsg20
Nsg21
F0.2163638256898374
sg22
F0.198
sg23
Nsg24
Nsg25
F3.1e-05
ssg26
I01
sg27
I01
sba(iSong
Song
p1492
(dp1493
g3
(dp1494
g5
F0.264
sg6
VKeep On
p1495
sg8
F0.392228
sg9
F0.453
sg10
S'r_b'
p1496
sg12
F0.151
sg13
VKehlani
p1497
sg15
I9999
sg16
F0.74
sg17
Nsg18
F0.8736666666666667
sg19
Nsg20
Nsg21
F0.2163638256898374
sg22
F0.514
sg23
Nsg24
Nsg25
F7.13e-05
ssg26
I01
sg27
I01
sba(iSong
Song
p1498
(dp1499
g3
(dp1500
g5
F0.0577
sg6
VLuck
p1501
sg8
F0.5341
sg9
F0.471
sg10
S'r_b'
p1502
sg12
F0.396
sg13
VKayla Brianna
p1503
sg15
I9999
sg16
F0.63
sg17
Nsg18
F0.8795333333333333
sg19
Nsg20
Nsg21
F0.2163638256898374
sg22
F0.615
sg23
Nsg24
Nsg25
I0
ssg26
I01
sg27
I01
sba(iSong
Song
p1504
(dp1505
g3
(dp1506
g5
F0.247
sg6
VOver
p1507
sg8
F0.580012
sg9
F0.511
sg10
S'r_b'
p1508
sg12
F0.0534
sg13
VSyd
p1509
sg15
I9999
sg16
F0.784
sg17
Nsg18
F0.9146333333333333
sg19
Nsg20
Nsg21
F0.2163638256898374
sg22
F0.592
sg23
Nsg24
Nsg25
F0.00047
ssg26
I01
sg27
I01
sba(iSong
Song
p1510
(dp1511
g3
(dp1512
g5
F0.0187
sg6
VWISH YOU WELL
p1513
sg8
F0.5481119999999999
sg9
F0.356
sg10
S'r_b'
p1514
sg12
F0.0742
sg13
VAmir Obe
p1515
sg15
I9999
sg16
F0.854
sg17
Nsg18
F0.8537
sg19
Nsg20
Nsg21
F0.2163638256898374
sg22
F0.155
sg23
Nsg24
Nsg25
I0
ssg26
I01
sg27
I01
sba(iSong
Song
p1516
(dp1517
g3
(dp1518
g5
F0.194
sg6
VU Remind Me
p1519
sg8
F0.37594
sg9
F0.629
sg10
S'r_b'
p1520
sg12
F0.0782
sg13
VUsher
p1521
sg15
I9999
sg16
F0.657
sg17
Nsg18
F0.9177
sg19
Nsg20
Nsg21
F0.2163638256898374
sg22
F0.726
sg23
Nsg24
Nsg25
I0
ssg26
I01
sg27
I01
sba(iSong
Song
p1522
(dp1523
g3
(dp1524
g5
F0.235
sg6
VLet Me Love You
p1525
sg8
F0.378056
sg9
F0.578
sg10
S'r_b'
p1526
sg12
F0.0922
sg13
VMario
p1527
sg15
I9999
sg16
F0.656
sg17
Nsg18
F0.8505
sg19
Nsg20
Nsg21
F0.2163638256898374
sg22
F0.556
sg23
Nsg24
Nsg25
I0
ssg26
I01
sg27
I01
sba(iSong
Song
p1528
(dp1529
g3
(dp1530
g5
F0.0108
sg6
VBuy U a Drank (Shawty Snappin')
p1531
sg8
F0.320004
sg9
F0.55
sg10
S'r_b'
p1532
sg12
F0.262
sg13
VT-Pain
p1533
sg15
I9999
sg16
F0.451
sg17
Nsg18
F0.8643833333333333
sg19
Nsg20
Nsg21
F0.2163638256898374
sg22
F0.594
sg23
Nsg24
Nsg25
I0
ssg26
I01
sg27
I01
sba(iSong
Song
p1534
(dp1535
g3
(dp1536
g5
F0.0358
sg6
VWe Belong Together
p1537
sg8
F0.5599
sg9
F0.469
sg10
S'r_b'
p1538
sg12
F0.0835
sg13
VMariah Carey
p1539
sg15
I9999
sg16
F0.838
sg17
Nsg18
F0.8668
sg19
Nsg20
Nsg21
F0.2163638256898374
sg22
F0.778
sg23
Nsg24
Nsg25
I0
ssg26
I01
sg27
I01
sba(iSong
Song
p1540
(dp1541
g3
(dp1542
g5
F0.119
sg6
VYo (Excuse Me Miss)
p1543
sg8
F0.34904
sg9
F0.633
sg10
S'r_b'
p1544
sg12
F0.251
sg13
VChris Brown
p1545
sg15
I9999
sg16
F0.605
sg17
Nsg18
F0.9016833333333333
sg19
Nsg20
Nsg21
F0.2163638256898374
sg22
F0.592
sg23
Nsg24
Nsg25
I0
ssg26
I01
sg27
I01
sba(iSong
Song
p1546
(dp1547
g3
(dp1548
g5
F0.061
sg6
VIgnition - Remix
p1549
sg8
F0.532096
sg9
F0.523
sg10
S'r_b'
p1550
sg12
F0.0423
sg13
VR. Kelly
p1551
sg15
I9999
sg16
F0.795
sg17
Nsg18
F0.8805833333333334
sg19
Nsg20
Nsg21
F0.2163638256898374
sg22
F0.855
sg23
Nsg24
Nsg25
I0
ssg26
I01
sg27
I01
sba(iSong
Song
p1552
(dp1553
g3
(dp1554
g5
F0.332
sg6
VI Don't Wanna Know (feat. Enya And P. Diddy)
p1555
sg8
F0.387992
sg9
F0.493
sg10
S'r_b'
p1556
sg12
F0.0475
sg13
VMario Winans
p1557
sg15
I9999
sg16
F0.84
sg17
Nsg18
F0.9016666666666667
sg19
Nsg20
Nsg21
F0.2163638256898374
sg22
F0.361
sg23
Nsg24
Nsg25
F0.00105
ssg26
I01
sg27
I01
sba(iSong
Song
p1558
(dp1559
g3
(dp1560
g5
F0.042
sg6
VOne, Two Step
p1561
sg8
F0.45218400000000003
sg9
F0.511
sg10
S'r_b'
p1562
sg12
F0.161
sg13
VCiara
p1563
sg15
I9999
sg16
F0.944
sg17
Nsg18
F0.8173333333333334
sg19
Nsg20
Nsg21
F0.2163638256898374
sg22
F0.842
sg23
Nsg24
Nsg25
F0.00107
ssg26
I01
sg27
I01
sba(iSong
Song
p1564
(dp1565
g3
(dp1566
g5
F0.0956
sg6
VBump, Bump, Bump
p1567
sg8
F0.38192000000000004
sg9
F0.681
sg10
S'r_b'
p1568
sg12
F0.215
sg13
VB2K
p1569
sg15
I9999
sg16
F0.833
sg17
Nsg18
F0.8995333333333334
sg19
Nsg20
Nsg21
F0.2163638256898374
sg22
F0.887
sg23
Nsg24
Nsg25
I0
ssg26
I01
sg27
I01
sba(iSong
Song
p1570
(dp1571
g3
(dp1572
g5
F0.318
sg6
VDifferences
p1573
sg8
F0.251504
sg9
F0.594
sg10
S'r_b'
p1574
sg12
F0.0558
sg13
VGinuwine
p1575
sg15
I9999
sg16
F0.562
sg17
Nsg18
F0.9237
sg19
Nsg20
Nsg21
F0.2163638256898374
sg22
F0.423
sg23
Nsg24
Nsg25
I0
ssg26
I01
sg27
I01
sba(iSong
Song
p1576
(dp1577
g3
(dp1578
g5
F0.358
sg6
VFoolish
p1579
sg8
F0.356836
sg9
F0.728
sg10
S'r_b'
p1580
sg12
F0.0831
sg13
VAshanti
p1581
sg15
I9999
sg16
F0.477
sg17
Nsg18
F0.9048333333333333
sg19
Nsg20
Nsg21
F0.2163638256898374
sg22
F0.69
sg23
Nsg24
Nsg25
I0
ssg26
I01
sg27
I01
sba(iSong
Song
p1582
(dp1583
g3
(dp1584
g5
F0.194
sg6
VLet It Go
p1585
sg8
F0.379756
sg9
F0.721
sg10
S'r_b'
p1586
sg12
F0.206
sg13
VKeyshia Cole
p1587
sg15
I9999
sg16
F0.812
sg17
Nsg18
F0.9152666666666666
sg19
Nsg20
Nsg21
F0.2163638256898374
sg22
F0.772
sg23
Nsg24
Nsg25
I0
ssg26
I01
sg27
I01
sba(iSong
Song
p1588
(dp1589
g3
(dp1590
g5
F0.114
sg6
VDon't Mess With My Man
p1591
sg8
F0.3997
sg9
F0.73
sg10
S'r_b'
p1592
sg12
F0.164
sg13
VNivea
p1593
sg15
I9999
sg16
F0.879
sg17
Nsg18
F0.9271833333333334
sg19
Nsg20
Nsg21
F0.2163638256898374
sg22
F0.885
sg23
Nsg24
Nsg25
I0
ssg26
I01
sg27
I01
sba(iSong
Song
p1594
(dp1595
g3
(dp1596
g5
F0.083
sg6
VBe Without You
p1597
sg8
F0.5859840000000001
sg9
F0.689
sg10
S'r_b'
p1598
sg12
F0.135
sg13
VMary J. Blige
p1599
sg15
I9999
sg16
F0.724
sg17
Nsg18
F0.9013000000000001
sg19
Nsg20
Nsg21
F0.2163638256898374
sg22
F0.693
sg23
Nsg24
Nsg25
I0
ssg26
I01
sg27
I01
sba(iSong
Song
p1600
(dp1601
g3
(dp1602
g5
F0.538
sg6
VBust Your Windows
p1603
sg8
F0.427964
sg9
F0.664
sg10
S'r_b'
p1604
sg12
F0.0332
sg13
VJazmine Sullivan
p1605
sg15
I9999
sg16
F0.683
sg17
Nsg18
F0.92945
sg19
Nsg20
Nsg21
F0.2163638256898374
sg22
F0.866
sg23
Nsg24
Nsg25
I0
ssg26
I01
sg27
I01
sba(iSong
Song
p1606
(dp1607
g3
(dp1608
g5
F0.0117
sg6
VUmbrella
p1609
sg8
F0.696252
sg9
F0.821
sg10
S'r_b'
p1610
sg12
F0.152
sg13
VRihanna
p1611
sg15
I9999
sg16
F0.579
sg17
Nsg18
F0.9230666666666667
sg19
Nsg20
Nsg21
F0.2163638256898374
sg22
F0.551
sg23
Nsg24
Nsg25
I0
ssg26
I01
sg27
I01
sba(iSong
Song
p1612
(dp1613
g3
(dp1614
g5
F0.0373
sg6
VWhere My Girls At
p1615
sg8
F0.368716
sg9
F0.736
sg10
S'r_b'
p1616
sg12
F0.052
sg13
V702
p1617
sg15
I9999
sg16
F0.719
sg17
Nsg18
F0.8747166666666666
sg19
Nsg20
Nsg21
F0.2163638256898374
sg22
F0.757
sg23
Nsg24
Nsg25
F0.0028
ssg26
I01
sg27
I01
sba(iSong
Song
p1618
(dp1619
g3
(dp1620
g5
F0.31
sg6
VWhere the Party At
p1621
sg8
F0.5179640000000001
sg9
F0.661
sg10
S'r_b'
p1622
sg12
F0.226
sg13
VJagged Edge
p1623
sg15
I9999
sg16
F0.596
sg17
Nsg18
F0.8960166666666667
sg19
Nsg20
Nsg21
F0.2163638256898374
sg22
F0.86
sg23
Nsg24
Nsg25
I0
ssg26
I01
sg27
I01
sba(iSong
Song
p1624
(dp1625
g3
(dp1626
g5
F0.176
sg6
VSo Gone
p1627
sg8
F0.32789999999999997
sg9
F0.552
sg10
S'r_b'
p1628
sg12
F0.0981
sg13
VMonica
p1629
sg15
I9999
sg16
F0.618
sg17
Nsg18
F0.8856166666666667
sg19
Nsg20
Nsg21
F0.2163638256898374
sg22
F0.586
sg23
Nsg24
Nsg25
I0
ssg26
I01
sg27
I01
sba(iSong
Song
p1630
(dp1631
g3
(dp1632
g5
F0.0279
sg6
V4Ever (feat. Fabolous)
p1633
sg8
F0.396236
sg9
F0.657
sg10
S'r_b'
p1634
sg12
F0.099
sg13
VLil' Mo
p1635
sg15
I9999
sg16
F0.683
sg17
Nsg18
F0.8222
sg19
Nsg20
Nsg21
F0.2163638256898374
sg22
F0.764
sg23
Nsg24
Nsg25
F4.49e-05
ssg26
I01
sg27
I01
sba(iSong
Song
p1636
(dp1637
g3
(dp1638
g5
F0.00249
sg6
VCrazy In Love
p1639
sg8
F0.39666
sg9
F0.77
sg10
S'r_b'
p1640
sg12
F0.226
sg13
VBeyonc
p1641
sg15
I9999
sg16
F0.646
sg17
Nsg18
F0.8900666666666666
sg19
Nsg20
Nsg21
F0.2163638256898374
sg22
F0.681
sg23
Nsg24
Nsg25
I0
ssg26
I01
sg27
I01
sba(iSong
Song
p1642
(dp1643
g3
(dp1644
g5
F0.115
sg6
V1 Thing
p1645
sg8
F0.50034
sg9
F0.946
sg10
S'r_b'
p1646
sg12
F0.332
sg13
VAmerie
p1647
sg15
I9999
sg16
F0.636
sg17
Nsg18
F0.92195
sg19
Nsg20
Nsg21
F0.2163638256898374
sg22
F0.891
sg23
Nsg24
Nsg25
F3.75e-05
ssg26
I01
sg27
I01
sba(iSong
Song
p1648
(dp1649
g3
(dp1650
g5
F0.245
sg6
VBad Girl
p1651
sg8
F0.351992
sg9
F0.829
sg10
S'r_b'
p1652
sg12
F0.268
sg13
VUsher
p1653
sg15
I9999
sg16
F0.777
sg17
Nsg18
F0.8849166666666667
sg19
Nsg20
Nsg21
F0.2163638256898374
sg22
F0.835
sg23
Nsg24
Nsg25
I0
ssg26
I01
sg27
I01
sba(iSong
Song
p1654
(dp1655
g3
(dp1656
g5
F0.00277
sg6
VPeaches And Cream
p1657
sg8
F0.815448
sg9
F0.52
sg10
S'r_b'
p1658
sg12
F0.334
sg13
V112
p1659
sg15
I9999
sg16
F0.677
sg17
Nsg18
F0.8957499999999999
sg19
Nsg20
Nsg21
F0.2163638256898374
sg22
F0.768
sg23
Nsg24
Nsg25
I0
ssg26
I01
sg27
I01
sba(iSong
Song
p1660
(dp1661
g3
(dp1662
g5
F0.453
sg6
VFrontin' - Club Mix
p1663
sg8
F0.408036
sg9
F0.404
sg10
S'r_b'
p1664
sg12
F0.13
sg13
VPharrell Williams
p1665
sg15
I9999
sg16
F0.894
sg17
Nsg18
F0.9014500000000001
sg19
Nsg20
Nsg21
F0.2163638256898374
sg22
F0.759
sg23
Nsg24
Nsg25
F1.57e-06
ssg26
I01
sg27
I01
sba(iSong
Song
p1666
(dp1667
g3
(dp1668
g5
F0.533
sg6
VGet Ur Freak On
p1669
sg8
F0.71148
sg9
F0.75
sg10
S'r_b'
p1670
sg12
F0.247
sg13
VMissy Elliott
p1671
sg15
I9999
sg16
F0.797
sg17
Nsg18
F0.84385
sg19
Nsg20
Nsg21
F0.2163638256898374
sg22
F0.74
sg23
Nsg24
Nsg25
F0.108
ssg26
I01
sg27
I01
sba(iSong
Song
p1672
(dp1673
g3
(dp1674
g5
F0.2
sg6
VHit 'Em Up Style (Oops!) - Remix Radio Mix
p1675
sg8
F0.36
sg9
F0.774
sg10
S'r_b'
p1676
sg12
F0.0466
sg13
VBlu Cantrell
p1677
sg15
I9999
sg16
F0.7
sg17
Nsg18
F0.91695
sg19
Nsg20
Nsg21
F0.2163638256898374
sg22
F0.652
sg23
Nsg24
Nsg25
I0
ssg26
I01
sg27
I01
sba(iSong
Song
p1678
(dp1679
g3
(dp1680
g5
F0.0444
sg6
VSoldier ft Lil Wayne
p1681
sg8
F0.30995999999999996
sg9
F0.417
sg10
S'r_b'
p1682
sg12
F0.361
sg13
VDestiny's Child
p1683
sg15
I9999
sg16
F0.878
sg17
Nsg18
F0.8866833333333334
sg19
Nsg20
Nsg21
F0.2163638256898374
sg22
F0.904
sg23
Nsg24
Nsg25
I0
ssg26
I01
sg27
I01
sba(iSong
Song
p1684
(dp1685
g3
(dp1686
g5
F0.263
sg6
VFallin'
p1687
sg8
F0.383928
sg9
F0.609
sg10
S'r_b'
p1688
sg12
F0.037
sg13
VAlicia Keys
p1689
sg15
I9999
sg16
F0.653
sg17
Nsg18
F0.8746833333333334
sg19
Nsg20
Nsg21
F0.2163638256898374
sg22
F0.482
sg23
Nsg24
Nsg25
F0.00101
ssg26
I01
sg27
I01
sba(iSong
Song
p1690
(dp1691
g3
(dp1692
g5
F0.457
sg6
VWhen I See U
p1693
sg8
F0.372536
sg9
F0.596
sg10
S'r_b'
p1694
sg12
F0.171
sg13
VFantasia
p1695
sg15
I9999
sg16
F0.569
sg17
Nsg18
F0.8919
sg19
Nsg20
Nsg21
F0.2163638256898374
sg22
F0.757
sg23
Nsg24
Nsg25
F8.99e-05
ssg26
I01
sg27
I01
sba(iSong
Song
p1696
(dp1697
g3
(dp1698
g5
F0.17
sg6
VSlow Down - 12" Version
p1699
sg8
F0.744472
sg9
F0.746
sg10
S'r_b'
p1700
sg12
F0.101
sg13
VBobby V.
p1701
sg15
I9999
sg16
F0.563
sg17
Nsg18
F0.9194666666666667
sg19
Nsg20
Nsg21
F0.2163638256898374
sg22
F0.598
sg23
Nsg24
Nsg25
F5.58e-06
ssg26
I01
sg27
I01
sba(iSong
Song
p1702
(dp1703
g3
(dp1704
g5
F0.226
sg6
VMe, Myself and I
p1705
sg8
F0.33444
sg9
F0.458
sg10
S'r_b'
p1706
sg12
F0.0803
sg13
VBeyonc
p1707
sg15
I9999
sg16
F0.75
sg17
Nsg18
F0.8484666666666667
sg19
Nsg20
Nsg21
F0.2163638256898374
sg22
F0.536
sg23
Nsg24
Nsg25
F3.25e-05
ssg26
I01
sg27
I01
sba(iSong
Song
p1708
(dp1709
g3
(dp1710
g5
F0.0721
sg6
VU Know What's Up
p1711
sg8
F0.41206400000000004
sg9
F0.487
sg10
S'r_b'
p1712
sg12
F0.0531
sg13
VDonell Jones
p1713
sg15
I9999
sg16
F0.827
sg17
Nsg18
F0.8920999999999999
sg19
Nsg20
Nsg21
F0.2163638256898374
sg22
F0.868
sg23
Nsg24
Nsg25
F0.0014
ssg26
I01
sg27
I01
sba(iSong
Song
p1714
(dp1715
g3
(dp1716
g5
F0.439
sg6
VJust Friends (Sunny)
p1717
sg8
F0.380092
sg9
F0.382
sg10
S'r_b'
p1718
sg12
F0.163
sg13
VMusiq Soulchild
p1719
sg15
I9999
sg16
F0.754
sg17
Nsg18
F0.86955
sg19
Nsg20
Nsg21
F0.2163638256898374
sg22
F0.586
sg23
Nsg24
Nsg25
I0
ssg26
I01
sg27
I01
sba(iSong
Song
p1720
(dp1721
g3
(dp1722
g5
F0.171
sg6
VAmerican Boy (feat. Kanye West)
p1723
sg8
F0.47172800000000004
sg9
F0.729
sg10
S'r_b'
p1724
sg12
F0.326
sg13
VEstelle
p1725
sg15
I9999
sg16
F0.727
sg17
Nsg18
F0.9501666666666666
sg19
Nsg20
Nsg21
F0.2163638256898374
sg22
F0.512
sg23
Nsg24
Nsg25
I0
ssg26
I01
sg27
I01
sba(iSong
Song
p1726
(dp1727
g3
(dp1728
g5
F0.219
sg6
VInto You (feat. Fabolous)
p1729
sg8
F0.364416
sg9
F0.531
sg10
S'r_b'
p1730
sg12
F0.0327
sg13
VTamia
p1731
sg15
I9999
sg16
F0.677
sg17
Nsg18
F0.87195
sg19
Nsg20
Nsg21
F0.2163638256898374
sg22
F0.57
sg23
Nsg24
Nsg25
I0
ssg26
I01
sg27
I01
sba(iSong
Song
p1732
(dp1733
g3
(dp1734
g5
F0.245
sg6
VI Need A Girl
p1735
sg8
F0.336152
sg9
F0.785
sg10
S'r_b'
p1736
sg12
F0.0578
sg13
VTrey Songz
p1737
sg15
I9999
sg16
F0.602
sg17
Nsg18
F0.89785
sg19
Nsg20
Nsg21
F0.2163638256898374
sg22
F0.565
sg23
Nsg24
Nsg25
I0
ssg26
I01
sg27
I01
sba(iSong
Song
p1738
(dp1739
g3
(dp1740
g5
F0.0448
sg6
VSpotlight
p1741
sg8
F0.435936
sg9
F0.724
sg10
S'r_b'
p1742
sg12
F0.051
sg13
VJennifer Hudson
p1743
sg15
I9999
sg16
F0.707
sg17
Nsg18
F0.9352166666666667
sg19
Nsg20
Nsg21
F0.2163638256898374
sg22
F0.659
sg23
Nsg24
Nsg25
I0
ssg26
I01
sg27
I01
sba(iSong
Song
p1744
(dp1745
g3
(dp1746
g5
F0.657
sg6
VMust Be Nice
p1747
sg8
F0.33176799999999995
sg9
F0.401
sg10
S'r_b'
p1748
sg12
F0.382
sg13
VLyfe Jennings
p1749
sg15
I9999
sg16
F0.446
sg17
Nsg18
F0.8128
sg19
Nsg20
Nsg21
F0.2163638256898374
sg22
F0.647
sg23
Nsg24
Nsg25
I0
ssg26
I01
sg27
I01
sba(iSong
Song
p1750
(dp1751
g3
(dp1752
g5
F0.548
sg6
VFabulous
p1753
sg8
F0.303928
sg9
F0.464
sg10
S'r_b'
p1754
sg12
F0.0614
sg13
VJaheim
p1755
sg15
I9999
sg16
F0.657
sg17
Nsg18
F0.8737833333333334
sg19
Nsg20
Nsg21
F0.2163638256898374
sg22
F0.598
sg23
Nsg24
Nsg25
I0
ssg26
I01
sg27
I01
sba(iSong
Song
p1756
(dp1757
g3
(dp1758
g5
F0.0295
sg6
VDroptop in the Rain (feat. Tory Lanez)
p1759
sg8
F0.55192
sg9
F0.581
sg10
S'r_b'
p1760
sg12
F0.0828
sg13
VTy Dolla $ign
p1761
sg15
I9999
sg16
F0.73
sg17
Nsg18
F0.9027833333333334
sg19
Nsg20
Nsg21
F0.2163638256898374
sg22
F0.359
sg23
Nsg24
Nsg25
F1.3e-05
ssg26
I01
sg27
I01
sba(iSong
Song
p1762
(dp1763
g3
(dp1764
g5
F0.076
sg6
VCovered In You
p1765
sg8
F0.46872800000000003
sg9
F0.447
sg10
S'r_b'
p1766
sg12
F0.0541
sg13
VChris Brown
p1767
sg15
I9999
sg16
F0.559
sg17
Nsg18
F0.8879333333333332
sg19
Nsg20
Nsg21
F0.2163638256898374
sg22
F0.206
sg23
Nsg24
Nsg25
I0
ssg26
I01
sg27
I01
sba(iSong
Song
p1768
(dp1769
g3
(dp1770
g5
F0.736
sg6
VBalcony
p1771
sg8
F0.379432
sg9
F0.5
sg10
S'r_b'
p1772
sg12
F0.0934
sg13
VYade Lauren
p1773
sg15
I9999
sg16
F0.562
sg17
Nsg18
F0.9122833333333333
sg19
Nsg20
Nsg21
F0.2163638256898374
sg22
F0.361
sg23
Nsg24
Nsg25
F3.42e-06
ssg26
I01
sg27
I01
sba(iSong
Song
p1774
(dp1775
g3
(dp1776
g5
F0.037
sg6
VFeeling Like Love
p1777
sg8
F0.396152
sg9
F0.337
sg10
S'r_b'
p1778
sg12
F0.148
sg13
VRay J
p1779
sg15
I9999
sg16
F0.852
sg17
Nsg18
F0.7882833333333333
sg19
Nsg20
Nsg21
F0.2163638256898374
sg22
F0.319
sg23
Nsg24
Nsg25
I0
ssg26
I01
sg27
I01
sba(iSong
Song
p1780
(dp1781
g3
(dp1782
g5
F0.025
sg6
VGave Your Love Away
p1783
sg8
F0.40395600000000004
sg9
F0.47
sg10
S'r_b'
p1784
sg12
F0.0343
sg13
VMajid Jordan
p1785
sg15
I9999
sg16
F0.826
sg17
Nsg18
F0.90855
sg19
Nsg20
Nsg21
F0.2163638256898374
sg22
F0.541
sg23
Nsg24
Nsg25
F0.00337
ssg26
I01
sg27
I01
sba(iSong
Song
p1786
(dp1787
g3
(dp1788
g5
F0.143
sg6
VConditional
p1789
sg8
F0.407704
sg9
F0.543
sg10
S'r_b'
p1790
sg12
F0.0376
sg13
VBrandy Haze
p1791
sg15
I9999
sg16
F0.688
sg17
Nsg18
F0.8604833333333333
sg19
Nsg20
Nsg21
F0.2163638256898374
sg22
F0.297
sg23
Nsg24
Nsg25
F1.69e-06
ssg26
I01
sg27
I01
sba(iSong
Song
p1792
(dp1793
g3
(dp1794
g5
F0.241
sg6
VYou Like
p1795
sg8
F0.379608
sg9
F0.48
sg10
S'r_b'
p1796
sg12
F0.182
sg13
VChris Brown
p1797
sg15
I9999
sg16
F0.673
sg17
Nsg18
F0.8541666666666666
sg19
Nsg20
Nsg21
F0.2163638256898374
sg22
F0.542
sg23
Nsg24
Nsg25
I0
ssg26
I01
sg27
I01
sba(iSong
Song
p1798
(dp1799
g3
(dp1800
g5
F0.141
sg6
VObsessed
p1801
sg8
F0.383544
sg9
F0.565
sg10
S'r_b'
p1802
sg12
F0.045
sg13
VSon Kuma
p1803
sg15
I9999
sg16
F0.881
sg17
Nsg18
F0.8687166666666666
sg19
Nsg20
Nsg21
F0.2163638256898374
sg22
F0.397
sg23
Nsg24
Nsg25
I0
ssg26
I01
sg27
I01
sba(iSong
Song
p1804
(dp1805
g3
(dp1806
g5
F0.162
sg6
VNuh Time / Tek Time
p1807
sg8
F0.46792399999999995
sg9
F0.281
sg10
S'r_b'
p1808
sg12
F0.0626
sg13
Vdvsn
p1809
sg15
I9999
sg16
F0.543
sg17
Nsg18
F0.8066
sg19
Nsg20
Nsg21
F0.2163638256898374
sg22
F0.0686
sg23
Nsg24
Nsg25
F0.00325
ssg26
I01
sg27
I01
sba(iSong
Song
p1810
(dp1811
g3
(dp1812
g5
F0.645
sg6
VDragon
p1813
sg8
F0.42255200000000004
sg9
F0.34
sg10
S'r_b'
p1814
sg12
F0.0741
sg13
VLVNDVN
p1815
sg15
I9999
sg16
F0.659
sg17
Nsg18
F0.7504833333333333
sg19
Nsg20
Nsg21
F0.2163638256898374
sg22
F0.317
sg23
Nsg24
Nsg25
F0.126
ssg26
I01
sg27
I01
sba(iSong
Song
p1816
(dp1817
g3
(dp1818
g5
F0.153
sg6
VPrivacy
p1819
sg8
F0.388368
sg9
F0.58
sg10
S'r_b'
p1820
sg12
F0.378
sg13
VChris Brown
p1821
sg15
I9999
sg16
F0.741
sg17
Nsg18
F0.8709833333333333
sg19
Nsg20
Nsg21
F0.2163638256898374
sg22
F0.428
sg23
Nsg24
Nsg25
I0
ssg26
I01
sg27
I01
sba(iSong
Song
p1822
(dp1823
g3
(dp1824
g5
F0.686
sg6
VFMN
p1825
sg8
F0.472284
sg9
F0.567
sg10
S'r_b'
p1826
sg12
F0.0703
sg13
VJR Castro
p1827
sg15
I9999
sg16
F0.725
sg17
Nsg18
F0.8524999999999999
sg19
Nsg20
Nsg21
F0.2163638256898374
sg22
F0.789
sg23
Nsg24
Nsg25
I0
ssg26
I01
sg27
I01
sba(iSong
Song
p1828
(dp1829
g3
(dp1830
g5
F0.0833
sg6
VWho's Gonna (NOBODY)
p1831
sg8
F0.47543599999999997
sg9
F0.456
sg10
S'r_b'
p1832
sg12
F0.0587
sg13
VChris Brown
p1833
sg15
I9999
sg16
F0.634
sg17
Nsg18
F0.8533000000000001
sg19
Nsg20
Nsg21
F0.2163638256898374
sg22
F0.428
sg23
Nsg24
Nsg25
I0
ssg26
I01
sg27
I01
sba(iSong
Song
p1834
(dp1835
g3
(dp1836
g5
F0.0125
sg6
VOver
p1837
sg8
F0.524732
sg9
F0.594
sg10
S'r_b'
p1838
sg12
F0.0314
sg13
VPlaza
p1839
sg15
I9999
sg16
F0.523
sg17
Nsg18
F0.8996333333333334
sg19
Nsg20
Nsg21
F0.2163638256898374
sg22
F0.135
sg23
Nsg24
Nsg25
F0.000254
ssg26
I01
sg27
I01
sba(iSong
Song
p1840
(dp1841
g3
(dp1842
g5
F0.521
sg6
VXana White
p1843
sg8
F0.5161079999999999
sg9
F0.609
sg10
S'r_b'
p1844
sg12
F0.0563
sg13
VElijah Blake
p1845
sg15
I9999
sg16
F0.743
sg17
Nsg18
F0.8674499999999999
sg19
Nsg20
Nsg21
F0.2163638256898374
sg22
F0.399
sg23
Nsg24
Nsg25
I0
ssg26
I01
sg27
I01
sba(iSong
Song
p1846
(dp1847
g3
(dp1848
g5
F0.0824
sg6
VSpecial
p1849
sg8
F0.3836
sg9
F0.653
sg10
S'r_b'
p1850
sg12
F0.324
sg13
VLex Aura
p1851
sg15
I9999
sg16
F0.658
sg17
Nsg18
F0.8669
sg19
Nsg20
Nsg21
F0.2163638256898374
sg22
F0.256
sg23
Nsg24
Nsg25
I0
ssg26
I01
sg27
I01
sba(iSong
Song
p1852
(dp1853
g3
(dp1854
g5
F0.46
sg6
VRed Rum Melody
p1855
sg8
F0.78162
sg9
F0.356
sg10
S'r_b'
p1856
sg12
F0.375
sg13
VTiffany Gouch
p1857
sg15
I9999
sg16
F0.488
sg17
Nsg18
F0.87555
sg19
Nsg20
Nsg21
F0.2163638256898374
sg22
F0.267
sg23
Nsg24
Nsg25
I0
ssg26
I01
sg27
I01
sba(iSong
Song
p1858
(dp1859
g3
(dp1860
g5
F0.334
sg6
VSativa
p1861
sg8
F0.504112
sg9
F0.62
sg10
S'r_b'
p1862
sg12
F0.0472
sg13
VJhene Aiko
p1863
sg15
I9999
sg16
F0.741
sg17
Nsg18
F0.8760166666666667
sg19
Nsg20
Nsg21
F0.2163638256898374
sg22
F0.7
sg23
Nsg24
Nsg25
I0
ssg26
I01
sg27
I01
sba(iSong
Song
p1864
(dp1865
g3
(dp1866
g5
F0.0911
sg6
VCollide (feat. Tyga)
p1867
sg8
F0.559524
sg9
F0.309
sg10
S'r_b'
p1868
sg12
F0.0565
sg13
VJustine Skye
p1869
sg15
I9999
sg16
F0.571
sg17
Nsg18
F0.8355999999999999
sg19
Nsg20
Nsg21
F0.2163638256898374
sg22
F0.133
sg23
Nsg24
Nsg25
I0
ssg26
I01
sg27
I01
sba(iSong
Song
p1870
(dp1871
g3
(dp1872
g5
F0.0872
sg6
VBeretta
p1873
sg8
F0.6401
sg9
F0.622
sg10
S'r_b'
p1874
sg12
F0.3
sg13
VMatt Black
p1875
sg15
I9999
sg16
F0.533
sg17
Nsg18
F0.8748666666666666
sg19
Nsg20
Nsg21
F0.2163638256898374
sg22
F0.3
sg23
Nsg24
Nsg25
F1.86e-06
ssg26
I01
sg27
I01
sba(iSong
Song
p1876
(dp1877
g3
(dp1878
g5
F0.0838
sg6
VSip
p1879
sg8
F0.42016000000000003
sg9
F0.448
sg10
S'r_b'
p1880
sg12
F0.0791
sg13
VChris Brown
p1881
sg15
I9999
sg16
F0.686
sg17
Nsg18
F0.8648833333333333
sg19
Nsg20
Nsg21
F0.2163638256898374
sg22
F0.197
sg23
Nsg24
Nsg25
I0
ssg26
I01
sg27
I01
sba(iSong
Song
p1882
(dp1883
g3
(dp1884
g5
F0.197
sg6
VDysfunctional (feat. SAKIMA)
p1885
sg8
F0.559552
sg9
F0.492
sg10
S'r_b'
p1886
sg12
F0.0609
sg13
VSATICA
p1887
sg15
I9999
sg16
F0.711
sg17
Nsg18
F0.88195
sg19
Nsg20
Nsg21
F0.2163638256898374
sg22
F0.511
sg23
Nsg24
Nsg25
I0
ssg26
I01
sg27
I01
sba(iSong
Song
p1888
(dp1889
g3
(dp1890
g5
F0.143
sg6
VPersonal
p1891
sg8
F0.5997
sg9
F0.885
sg10
S'r_b'
p1892
sg12
F0.139
sg13
VPlaza
p1893
sg15
I9999
sg16
F0.413
sg17
Nsg18
F0.9325666666666667
sg19
Nsg20
Nsg21
F0.2163638256898374
sg22
F0.487
sg23
Nsg24
Nsg25
I0
ssg26
I01
sg27
I01
sba(iSong
Song
p1894
(dp1895
g3
(dp1896
g5
F0.82
sg6
VAll I See Is You
p1897
sg8
F0.5283519999999999
sg9
F0.475
sg10
S'r_b'
p1898
sg12
F0.0609
sg13
VMeaku
p1899
sg15
I9999
sg16
F0.622
sg17
Nsg18
F0.90315
sg19
Nsg20
Nsg21
F0.2163638256898374
sg22
F0.733
sg23
Nsg24
Nsg25
F6.01e-06
ssg26
I01
sg27
I01
sba(iSong
Song
p1900
(dp1901
g3
(dp1902
g5
F0.209
sg6
VBang Your Line (feat. Ty Dolla $ign)
p1903
sg8
F0.385752
sg9
F0.418
sg10
S'r_b'
p1904
sg12
F0.237
sg13
VELHAE
p1905
sg15
I9999
sg16
F0.62
sg17
Nsg18
F0.8478166666666667
sg19
Nsg20
Nsg21
F0.2163638256898374
sg22
F0.301
sg23
Nsg24
Nsg25
I0
ssg26
I01
sg27
I01
sba(iSong
Song
p1906
(dp1907
g3
(dp1908
g5
F0.735
sg6
VAlone
p1909
sg8
F0.503884
sg9
F0.415
sg10
S'r_b'
p1910
sg12
F0.0718
sg13
VYo Trane
p1911
sg15
I9999
sg16
F0.796
sg17
Nsg18
F0.8169
sg19
Nsg20
Nsg21
F0.2163638256898374
sg22
F0.212
sg23
Nsg24
Nsg25
I0
ssg26
I01
sg27
I01
sba(iSong
Song
p1912
(dp1913
g3
(dp1914
g5
F0.828
sg6
VWaiting for You
p1915
sg8
F0.511916
sg9
F0.631
sg10
S'r_b'
p1916
sg12
F0.119
sg13
VRexx Life Raj
p1917
sg15
I9999
sg16
F0.774
sg17
Nsg18
F0.8313166666666666
sg19
Nsg20
Nsg21
F0.2163638256898374
sg22
F0.641
sg23
Nsg24
Nsg25
F0.000291
ssg26
I01
sg27
I01
sba(iSong
Song
p1918
(dp1919
g3
(dp1920
g5
F0.208
sg6
VAddicted
p1921
sg8
F0.5602079999999999
sg9
F0.526
sg10
S'r_b'
p1922
sg12
F0.0607
sg13
VTOTEM
p1923
sg15
I9999
sg16
F0.631
sg17
Nsg18
F0.90425
sg19
Nsg20
Nsg21
F0.2163638256898374
sg22
F0.291
sg23
Nsg24
Nsg25
I0
ssg26
I01
sg27
I01
sba(iSong
Song
p1924
(dp1925
g3
(dp1926
g5
F0.417
sg6
VFvrs
p1927
sg8
F0.418576
sg9
F0.499
sg10
S'r_b'
p1928
sg12
F0.0609
sg13
VMoxiie
p1929
sg15
I9999
sg16
F0.524
sg17
Nsg18
F0.8561
sg19
Nsg20
Nsg21
F0.2163638256898374
sg22
F0.379
sg23
Nsg24
Nsg25
F6.82e-05
ssg26
I01
sg27
I01
sba(iSong
Song
p1930
(dp1931
g3
(dp1932
g5
F0.249
sg6
VMoon Lit District
p1933
sg8
F0.447084
sg9
F0.421
sg10
S'r_b'
p1934
sg12
F0.037
sg13
VLVNDVN
p1935
sg15
I9999
sg16
F0.495
sg17
Nsg18
F0.79325
sg19
Nsg20
Nsg21
F0.2163638256898374
sg22
F0.177
sg23
Nsg24
Nsg25
F0.515
ssg26
I01
sg27
I01
sba(iSong
Song
p1936
(dp1937
g3
(dp1938
g5
F0.451
sg6
VFalling Autumn
p1939
sg8
F0.524428
sg9
F0.462
sg10
S'r_b'
p1940
sg12
F0.0485
sg13
Valayna
p1941
sg15
I9999
sg16
F0.696
sg17
Nsg18
F0.89615
sg19
Nsg20
Nsg21
F0.2163638256898374
sg22
F0.252
sg23
Nsg24
Nsg25
F1.13e-06
ssg26
I01
sg27
I01
sba(iSong
Song
p1942
(dp1943
g3
(dp1944
g5
F0.537
sg6
VTalk
p1945
sg8
F0.22842400000000002
sg9
F0.291
sg10
S'r_b'
p1946
sg12
F0.0276
sg13
VJulius
p1947
sg15
I9999
sg16
F0.45
sg17
Nsg18
F0.8208166666666667
sg19
Nsg20
Nsg21
F0.2163638256898374
sg22
F0.183
sg23
Nsg24
Nsg25
I0
ssg26
I01
sg27
I01
sba(iSong
Song
p1948
(dp1949
g3
(dp1950
g5
F0.575
sg6
VLovely
p1951
sg8
F0.574456
sg9
F0.473
sg10
S'r_b'
p1952
sg12
F0.0519
sg13
VBrent Faiyaz
p1953
sg15
I9999
sg16
F0.385
sg17
Nsg18
F0.8557333333333333
sg19
Nsg20
Nsg21
F0.2163638256898374
sg22
F0.0575
sg23
Nsg24
Nsg25
F2.88e-05
ssg26
I01
sg27
I01
sba(iSong
Song
p1954
(dp1955
g3
(dp1956
g5
F0.0595
sg6
VHard To Do
p1957
sg8
F0.5799719999999999
sg9
F0.425
sg10
S'r_b'
p1958
sg12
F0.193
sg13
VK. Michelle
p1959
sg15
I9999
sg16
F0.566
sg17
Nsg18
F0.8624166666666666
sg19
Nsg20
Nsg21
F0.2163638256898374
sg22
F0.107
sg23
Nsg24
Nsg25
I0
ssg26
I01
sg27
I01
sba(iSong
Song
p1960
(dp1961
g3
(dp1962
g5
F0.14
sg6
VMake It Last
p1963
sg8
F0.495964
sg9
F0.503
sg10
S'r_b'
p1964
sg12
F0.0808
sg13
VP-Lo
p1965
sg15
I9999
sg16
F0.83
sg17
Nsg18
F0.8611666666666667
sg19
Nsg20
Nsg21
F0.2163638256898374
sg22
F0.398
sg23
Nsg24
Nsg25
F0.000139
ssg26
I01
sg27
I01
sba(iSong
Song
p1966
(dp1967
g3
(dp1968
g5
F0.7
sg6
VDon't Worry
p1969
sg8
F0.30801999999999996
sg9
F0.15
sg10
S'r_b'
p1970
sg12
F0.202
sg13
VFriyie
p1971
sg15
I9999
sg16
F0.366
sg17
Nsg18
F0.6295499999999999
sg19
Nsg20
Nsg21
F0.2163638256898374
sg22
F0.321
sg23
Nsg24
Nsg25
F0.00182
ssg26
I01
sg27
I01
sba(iSong
Song
p1972
(dp1973
g3
(dp1974
g5
F0.143
sg6
VHello Ego
p1975
sg8
F0.48031599999999997
sg9
F0.476
sg10
S'r_b'
p1976
sg12
F0.0758
sg13
VJhene Aiko
p1977
sg15
I9999
sg16
F0.726
sg17
Nsg18
F0.8429333333333333
sg19
Nsg20
Nsg21
F0.2163638256898374
sg22
F0.392
sg23
Nsg24
Nsg25
I0
ssg26
I01
sg27
I01
sba(iSong
Song
p1978
(dp1979
g3
(dp1980
g5
F0.362
sg6
VUpps
p1981
sg8
F0.34076
sg9
F0.182
sg10
S'r_b'
p1982
sg12
F0.0847
sg13
VWILLS
p1983
sg15
I9999
sg16
F0.315
sg17
Nsg18
F0.7135666666666667
sg19
Nsg20
Nsg21
F0.2163638256898374
sg22
F0.233
sg23
Nsg24
Nsg25
F2.85e-06
ssg26
I01
sg27
I01
sba(iSong
Song
p1984
(dp1985
g3
(dp1986
g5
F0.65
sg6
VBuzzin
p1987
sg8
F0.598284
sg9
F0.463
sg10
S'r_b'
p1988
sg12
F0.4
sg13
VAlina Baraz
p1989
sg15
I9999
sg16
F0.563
sg17
Nsg18
F0.84585
sg19
Nsg20
Nsg21
F0.2163638256898374
sg22
F0.276
sg23
Nsg24
Nsg25
F4.87e-06
ssg26
I01
sg27
I01
sba(iSong
Song
p1990
(dp1991
g3
(dp1992
g5
F0.0463
sg6
VThe Wall
p1993
sg8
F0.591804
sg9
F0.521
sg10
S'r_b'
p1994
sg12
F0.0494
sg13
Vanders
p1995
sg15
I9999
sg16
F0.772
sg17
Nsg18
F0.8613166666666667
sg19
Nsg20
Nsg21
F0.2163638256898374
sg22
F0.497
sg23
Nsg24
Nsg25
I0
ssg26
I01
sg27
I01
sba(iSong
Song
p1996
(dp1997
g3
(dp1998
g5
F0.529
sg6
VBlack & Blue
p1999
sg8
F0.376448
sg9
F0.467
sg10
S'r_b'
p2000
sg12
F0.327
sg13
VElijah Blake
p2001
sg15
I9999
sg16
F0.537
sg17
Nsg18
F0.8731000000000001
sg19
Nsg20
Nsg21
F0.2163638256898374
sg22
F0.289
sg23
Nsg24
Nsg25
I0
ssg26
I01
sg27
I01
sba(iSong
Song
p2002
(dp2003
g3
(dp2004
g5
F0.0607
sg6
VThink About Me
p2005
sg8
F0.420108
sg9
F0.294
sg10
S'r_b'
p2006
sg12
F0.0482
sg13
Vdvsn
p2007
sg15
I9999
sg16
F0.547
sg17
Nsg18
F0.8299666666666667
sg19
Nsg20
Nsg21
F0.2163638256898374
sg22
F0.11
sg23
Nsg24
Nsg25
F0.786
ssg26
I01
sg27
I01
sba(iSong
Song
p2008
(dp2009
g3
(dp2010
g5
F0.426
sg6
VGet You (feat. Kali Uchis)
p2011
sg8
F0.296148
sg9
F0.295
sg10
S'r_b'
p2012
sg12
F0.0322
sg13
VDaniel Caesar
p2013
sg15
I9999
sg16
F0.659
sg17
Nsg18
F0.8578666666666667
sg19
Nsg20
Nsg21
F0.2163638256898374
sg22
F0.36
sg23
Nsg24
Nsg25
F6.95e-05
ssg26
I01
sg27
I01
sba(iSong
Song
p2014
(dp2015
g3
(dp2016
g5
F0.705
sg6
VNo.Body
p2017
sg8
F0.3783
sg9
F0.3
sg10
S'r_b'
p2018
sg12
F0.089
sg13
VWasionkey
p2019
sg15
I9999
sg16
F0.569
sg17
Nsg18
F0.7692
sg19
Nsg20
Nsg21
F0.2163638256898374
sg22
F0.313
sg23
Nsg24
Nsg25
I0
ssg26
I01
sg27
I01
sba(iSong
Song
p2020
(dp2021
g3
(dp2022
g5
F0.476
sg6
VUnravel Me
p2023
sg8
F0.316844
sg9
F0.419
sg10
S'r_b'
p2024
sg12
F0.183
sg13
VSabrina Claudio
p2025
sg15
I9999
sg16
F0.387
sg17
Nsg18
F0.8532833333333334
sg19
Nsg20
Nsg21
F0.2163638256898374
sg22
F0.337
sg23
Nsg24
Nsg25
F0.00179
ssg26
I01
sg27
I01
sba(iSong
Song
p2026
(dp2027
g3
(dp2028
g5
F0.455
sg6
VShow and Tell (feat. Eric Bellinger)
p2029
sg8
F0.352168
sg9
F0.726
sg10
S'r_b'
p2030
sg12
F0.269
sg13
VSammie
p2031
sg15
I9999
sg16
F0.683
sg17
Nsg18
F0.8860833333333333
sg19
Nsg20
Nsg21
F0.2163638256898374
sg22
F0.699
sg23
Nsg24
Nsg25
I0
ssg26
I01
sg27
I01
sba(iSong
Song
p2032
(dp2033
g3
(dp2034
g5
F0.0289
sg6
VRewind
p2035
sg8
F0.4633
sg9
F0.684
sg10
S'r_b'
p2036
sg12
F0.034
sg13
VStan Sono
p2037
sg15
I9999
sg16
F0.674
sg17
Nsg18
F0.9172666666666667
sg19
Nsg20
Nsg21
F0.2163638256898374
sg22
F0.236
sg23
Nsg24
Nsg25
I0
ssg26
I01
sg27
I01
sba(iSong
Song
p2038
(dp2039
g3
(dp2040
g5
F0.326
sg6
VToo Late
p2041
sg8
F0.509876
sg9
F0.445
sg10
S'r_b'
p2042
sg12
F0.0873
sg13
VRayven Justice
p2043
sg15
I9999
sg16
F0.494
sg17
Nsg18
F0.8393833333333334
sg19
Nsg20
Nsg21
F0.2163638256898374
sg22
F0.239
sg23
Nsg24
Nsg25
I0
ssg26
I01
sg27
I01
sba(iSong
Song
p2044
(dp2045
g3
(dp2046
g5
F0.388
sg6
VGrass Ain't Greener
p2047
sg8
F0.535784
sg9
F0.601
sg10
S'r_b'
p2048
sg12
F0.0496
sg13
VChris Brown
p2049
sg15
I9999
sg16
F0.644
sg17
Nsg18
F0.91505
sg19
Nsg20
Nsg21
F0.2163638256898374
sg22
F0.518
sg23
Nsg24
Nsg25
I0
ssg26
I01
sg27
I01
sba(iSong
Song
p2050
(dp2051
g3
(dp2052
g5
F0.0588
sg6
VOne4Me
p2053
sg8
F0.236068
sg9
F0.503
sg10
S'r_b'
p2054
sg12
F0.0338
sg13
VTravis Mills
p2055
sg15
I9999
sg16
F0.535
sg17
Nsg18
F0.8796666666666667
sg19
Nsg20
Nsg21
F0.2163638256898374
sg22
F0.268
sg23
Nsg24
Nsg25
F1.71e-05
ssg26
I01
sg27
I01
sba(iSong
Song
p2056
(dp2057
g3
(dp2058
g5
F0.709
sg6
VNever Felt This Way
p2059
sg8
F0.48431599999999997
sg9
F0.441
sg10
S'r_b'
p2060
sg12
F0.0968
sg13
VDavid Correy
p2061
sg15
I9999
sg16
F0.469
sg17
Nsg18
F0.8409333333333334
sg19
Nsg20
Nsg21
F0.2163638256898374
sg22
F0.232
sg23
Nsg24
Nsg25
I0
ssg26
I01
sg27
I01
sba(iSong
Song
p2062
(dp2063
g3
(dp2064
g5
F0.242
sg6
VDon't
p2065
sg8
F0.388264
sg9
F0.331
sg10
S'r_b'
p2066
sg12
F0.262
sg13
VBryson Tiller
p2067
sg15
I9999
sg16
F0.743
sg17
Nsg18
F0.89955
sg19
Nsg20
Nsg21
F0.2163638256898374
sg22
F0.218
sg23
Nsg24
Nsg25
I0
ssg26
I01
sg27
I01
sba(iSong
Song
p2068
(dp2069
g3
(dp2070
g5
F0.661
sg6
VNeeds
p2071
sg8
F0.49862799999999996
sg9
F0.331
sg10
S'r_b'
p2072
sg12
F0.0895
sg13
VELHAE
p2073
sg15
I9999
sg16
F0.51
sg17
Nsg18
F0.7821166666666667
sg19
Nsg20
Nsg21
F0.2163638256898374
sg22
F0.225
sg23
Nsg24
Nsg25
I0
ssg26
I01
sg27
I01
sba(iSong
Song
p2074
(dp2075
g3
(dp2076
g5
F0.00505
sg6
VB.E.D.
p2077
sg8
F0.488012
sg9
F0.473
sg10
S'r_b'
p2078
sg12
F0.062
sg13
VJacquees
p2079
sg15
I9999
sg16
F0.73
sg17
Nsg18
F0.8639166666666667
sg19
Nsg20
Nsg21
F0.2163638256898374
sg22
F0.254
sg23
Nsg24
Nsg25
I0
ssg26
I01
sg27
I01
sba(iSong
Song
p2080
(dp2081
g3
(dp2082
g5
F0.432
sg6
VFlex Your Way Out (feat. Blackbear)
p2083
sg8
F0.687264
sg9
F0.46
sg10
S'r_b'
p2084
sg12
F0.245
sg13
VSofi de la Torre
p2085
sg15
I9999
sg16
F0.535
sg17
Nsg18
F0.8619833333333333
sg19
Nsg20
Nsg21
F0.2163638256898374
sg22
F0.325
sg23
Nsg24
Nsg25
F1.58e-05
ssg26
I01
sg27
I01
sba(iSong
Song
p2086
(dp2087
g3
(dp2088
g5
F0.556
sg6
VAll The Time
p2089
sg8
F0.439988
sg9
F0.439
sg10
S'r_b'
p2090
sg12
F0.326
sg13
VJeremih
p2091
sg15
I9999
sg16
F0.677
sg17
Nsg18
F0.8453
sg19
Nsg20
Nsg21
F0.2163638256898374
sg22
F0.034
sg23
Nsg24
Nsg25
F6.3e-06
ssg26
I01
sg27
I01
sba(iSong
Song
p2092
(dp2093
g3
(dp2094
g5
F0.593
sg6
VElectric (feat. Khalid)
p2095
sg8
F0.44419600000000004
sg9
F0.359
sg10
S'r_b'
p2096
sg12
F0.0325
sg13
VAlina Baraz
p2097
sg15
I9999
sg16
F0.637
sg17
Nsg18
F0.8359833333333333
sg19
Nsg20
Nsg21
F0.2163638256898374
sg22
F0.142
sg23
Nsg24
Nsg25
F5.39e-05
ssg26
I01
sg27
I01
sba(iSong
Song
p2098
(dp2099
g3
(dp2100
g5
F0.296
sg6
VHigh Off You
p2101
sg8
F0.387308
sg9
F0.575
sg10
S'r_b'
p2102
sg12
F0.184
sg13
VNOAHJVMES
p2103
sg15
I9999
sg16
F0.564
sg17
Nsg18
F0.8580833333333333
sg19
Nsg20
Nsg21
F0.2163638256898374
sg22
F0.347
sg23
Nsg24
Nsg25
F0.000463
ssg26
I01
sg27
I01
sba(iSong
Song
p2104
(dp2105
g3
(dp2106
g5
F0.133
sg6
VNight Calls
p2107
sg8
F0.559804
sg9
F0.471
sg10
S'r_b'
p2108
sg12
F0.235
sg13
VYo Trane
p2109
sg15
I9999
sg16
F0.86
sg17
Nsg18
F0.8125333333333333
sg19
Nsg20
Nsg21
F0.2163638256898374
sg22
F0.377
sg23
Nsg24
Nsg25
I0
ssg26
I01
sg27
I01
sba(iSong
Song
p2110
(dp2111
g3
(dp2112
g5
F0.711
sg6
VPoison
p2113
sg8
F0.46995600000000004
sg9
F0.394
sg10
S'r_b'
p2114
sg12
F0.065
sg13
VBrent Faiyaz
p2115
sg15
I9999
sg16
F0.689
sg17
Nsg18
F0.8316333333333332
sg19
Nsg20
Nsg21
F0.2163638256898374
sg22
F0.382
sg23
Nsg24
Nsg25
F0.000905
ssg26
I01
sg27
I01
sba(iSong
Song
p2116
(dp2117
g3
(dp2118
g5
F0.0714
sg6
VSimple
p2119
sg8
F0.5682480000000001
sg9
F0.384
sg10
S'r_b'
p2120
sg12
F0.0654
sg13
VKhalil
p2121
sg15
I9999
sg16
F0.616
sg17
Nsg18
F0.8496833333333333
sg19
Nsg20
Nsg21
F0.2163638256898374
sg22
F0.268
sg23
Nsg24
Nsg25
I0
ssg26
I01
sg27
I01
sba(iSong
Song
p2122
(dp2123
g3
(dp2124
g5
F0.864
sg6
VThe Hoodie Song
p2125
sg8
F0.4561
sg9
F0.363
sg10
S'r_b'
p2126
sg12
F0.074
sg13
VMae Muller
p2127
sg15
I9999
sg16
F0.521
sg17
Nsg18
F0.8667
sg19
Nsg20
Nsg21
F0.2163638256898374
sg22
F0.323
sg23
Nsg24
Nsg25
F2.91e-06
ssg26
I01
sg27
I01
sba(iSong
Song
p2128
(dp2129
g3
(dp2130
g5
F0.453
sg6
VNeither Do I
p2131
sg8
F0.47981999999999997
sg9
F0.398
sg10
S'r_b'
p2132
sg12
F0.105
sg13
VStwo
p2133
sg15
I9999
sg16
F0.812
sg17
Nsg18
F0.8361333333333333
sg19
Nsg20
Nsg21
F0.2163638256898374
sg22
F0.189
sg23
Nsg24
Nsg25
F5.4e-06
ssg26
I01
sg27
I01
sba(iSong
Song
p2134
(dp2135
g3
(dp2136
g5
F0.237
sg6
VFcktober
p2137
sg8
F0.540128
sg9
F0.539
sg10
S'r_b'
p2138
sg12
F0.0881
sg13
VOctobertwentyfirst
p2139
sg15
I9999
sg16
F0.724
sg17
Nsg18
F0.8634666666666667
sg19
Nsg20
Nsg21
F0.2163638256898374
sg22
F0.178
sg23
Nsg24
Nsg25
F8.11e-06
ssg26
I01
sg27
I01
sba(iSong
Song
p2140
(dp2141
g3
(dp2142
g5
F0.172
sg6
VThat Work
p2143
sg8
F0.47686
sg9
F0.676
sg10
S'r_b'
p2144
sg12
F0.226
sg13
VBeau Vallis
p2145
sg15
I9999
sg16
F0.716
sg17
Nsg18
F0.8832833333333333
sg19
Nsg20
Nsg21
F0.2163638256898374
sg22
F0.36
sg23
Nsg24
Nsg25
F4.09e-06
ssg26
I01
sg27
I01
sba(iSong
Song
p2146
(dp2147
g3
(dp2148
g5
F0.275
sg6
VMade Love First
p2149
sg8
F0.559884
sg9
F0.51
sg10
S'r_b'
p2150
sg12
F0.0477
sg13
VMarc E. Bassy
p2151
sg15
I9999
sg16
F0.662
sg17
Nsg18
F0.8597
sg19
Nsg20
Nsg21
F0.2163638256898374
sg22
F0.504
sg23
Nsg24
Nsg25
I0
ssg26
I01
sg27
I01
sba(iSong
Song
p2152
(dp2153
g3
(dp2154
g5
F0.459
sg6
VAfrobbean (Bumper)
p2155
sg8
F0.49379199999999995
sg9
F0.386
sg10
S'r_b'
p2156
sg12
F0.332
sg13
VLotto Boyzz
p2157
sg15
I9999
sg16
F0.527
sg17
Nsg18
F0.8291666666666667
sg19
Nsg20
Nsg21
F0.2163638256898374
sg22
F0.51
sg23
Nsg24
Nsg25
I0
ssg26
I01
sg27
I01
sba(iSong
Song
p2158
(dp2159
g3
(dp2160
g5
F0.193
sg6
VRight Away
p2161
sg8
F0.407872
sg9
F0.61
sg10
S'r_b'
p2162
sg12
F0.143
sg13
VJR Castro
p2163
sg15
I9999
sg16
F0.735
sg17
Nsg18
F0.8926833333333334
sg19
Nsg20
Nsg21
F0.2163638256898374
sg22
F0.821
sg23
Nsg24
Nsg25
I0
ssg26
I01
sg27
I01
sba(iSong
Song
p2164
(dp2165
g3
(dp2166
g5
F0.03
sg6
VP.O.V.
p2167
sg8
F0.40005599999999997
sg9
F0.341
sg10
S'r_b'
p2168
sg12
F0.0452
sg13
Vdvsn
p2169
sg15
I9999
sg16
F0.812
sg17
Nsg18
F0.8552
sg19
Nsg20
Nsg21
F0.2163638256898374
sg22
F0.119
sg23
Nsg24
Nsg25
F0.00729
ssg26
I01
sg27
I01
sba(iSong
Song
p2170
(dp2171
g3
(dp2172
g5
F0.00867
sg6
VDoo Wop (That Thing)
p2173
sg8
F0.399688
sg9
F0.56
sg10
S'r_b'
p2174
sg12
F0.0659
sg13
VMs. Lauryn Hill
p2175
sg15
I9999
sg16
F0.795
sg17
Nsg18
F0.8515333333333334
sg19
Nsg20
Nsg21
F0.2163638256898374
sg22
F0.635
sg23
Nsg24
Nsg25
I0
ssg26
I01
sg27
I01
sba(iSong
Song
p2176
(dp2177
g3
(dp2178
g5
F0.0193
sg6
VCreep
p2179
sg8
F0.37176
sg9
F0.458
sg10
S'r_b'
p2180
sg12
F0.0402
sg13
VTLC
p2181
sg15
I9999
sg16
F0.811
sg17
Nsg18
F0.8385333333333332
sg19
Nsg20
Nsg21
F0.2163638256898374
sg22
F0.797
sg23
Nsg24
Nsg25
F1.41e-06
ssg26
I01
sg27
I01
sba(iSong
Song
p2182
(dp2183
g3
(dp2184
g5
F0.184
sg6
VStill Not a Player
p2185
sg8
F0.376276
sg9
F0.614
sg10
S'r_b'
p2186
sg12
F0.289
sg13
VBig Pun
p2187
sg15
I9999
sg16
F0.902
sg17
Nsg18
F0.8911833333333334
sg19
Nsg20
Nsg21
F0.2163638256898374
sg22
F0.862
sg23
Nsg24
Nsg25
F0.000742
ssg26
I01
sg27
I01
sba(iSong
Song
p2188
(dp2189
g3
(dp2190
g5
F0.0359
sg6
VYou Make Me Wanna...
p2191
sg8
F0.6563519999999999
sg9
F0.639
sg10
S'r_b'
p2192
sg12
F0.0539
sg13
VUsher
p2193
sg15
I9999
sg16
F0.761
sg17
Nsg18
F0.8737166666666667
sg19
Nsg20
Nsg21
F0.2163638256898374
sg22
F0.922
sg23
Nsg24
Nsg25
I0
ssg26
I01
sg27
I01
sba(iSong
Song
p2194
(dp2195
g3
(dp2196
g5
F0.0118
sg6
VToo Close
p2197
sg8
F0.398772
sg9
F0.402
sg10
S'r_b'
p2198
sg12
F0.0641
sg13
VNext
p2199
sg15
I9999
sg16
F0.847
sg17
Nsg18
F0.8341333333333334
sg19
Nsg20
Nsg21
F0.2163638256898374
sg22
F0.752
sg23
Nsg24
Nsg25
I0
ssg26
I01
sg27
I01
sba(iSong
Song
p2200
(dp2201
g3
(dp2202
g5
F0.00216
sg6
VPoison
p2203
sg8
F0.447392
sg9
F0.573
sg10
S'r_b'
p2204
sg12
F0.224
sg13
VBell Biv DeVoe
p2205
sg15
I9999
sg16
F0.829
sg17
Nsg18
F0.8280666666666666
sg19
Nsg20
Nsg21
F0.2163638256898374
sg22
F0.803
sg23
Nsg24
Nsg25
F0.00432
ssg26
I01
sg27
I01
sba(iSong
Song
p2206
(dp2207
g3
(dp2208
g5
F0.00186
sg6
VPony
p2209
sg8
F0.568096
sg9
F0.605
sg10
S'r_b'
p2210
sg12
F0.086
sg13
VGinuwine
p2211
sg15
I9999
sg16
F0.749
sg17
Nsg18
F0.8440166666666666
sg19
Nsg20
Nsg21
F0.2163638256898374
sg22
F0.966
sg23
Nsg24
Nsg25
F0.0381
ssg26
I01
sg27
I01
sba(iSong
Song
p2212
(dp2213
g3
(dp2214
g5
F0.224
sg6
VIf You Love Me
p2215
sg8
F0.380548
sg9
F0.583
sg10
S'r_b'
p2216
sg12
F0.064
sg13
VBrownstone
p2217
sg15
I9999
sg16
F0.687
sg17
Nsg18
F0.8295999999999999
sg19
Nsg20
Nsg21
F0.2163638256898374
sg22
F0.21
sg23
Nsg24
Nsg25
I0
ssg26
I01
sg27
I01
sba(iSong
Song
p2218
(dp2219
g3
(dp2220
g5
F0.326
sg6
VNo Diggity
p2221
sg8
F0.35462400000000005
sg9
F0.65
sg10
S'r_b'
p2222
sg12
F0.286
sg13
VBlackstreet
p2223
sg15
I9999
sg16
F0.866
sg17
Nsg18
F0.9192333333333332
sg19
Nsg20
Nsg21
F0.2163638256898374
sg22
F0.653
sg23
Nsg24
Nsg25
I0
ssg26
I01
sg27
I01
sba(iSong
Song
p2224
(dp2225
g3
(dp2226
g5
F0.153
sg6
VRemember the Time
p2227
sg8
F0.432008
sg9
F0.921
sg10
S'r_b'
p2228
sg12
F0.0581
sg13
VMichael Jackson
p2229
sg15
I9999
sg16
F0.831
sg17
Nsg18
F0.9602833333333333
sg19
Nsg20
Nsg21
F0.2163638256898374
sg22
F0.794
sg23
Nsg24
Nsg25
F0.00213
ssg26
I01
sg27
I01
sba(iSong
Song
p2230
(dp2231
g3
(dp2232
g5
F0.00549
sg6
VI Wanna Sex You Up - Single Mix
p2233
sg8
F0.807196
sg9
F0.591
sg10
S'r_b'
p2234
sg12
F0.12
sg13
VColor Me Badd
p2235
sg15
I9999
sg16
F0.551
sg17
Nsg18
F0.8599333333333334
sg19
Nsg20
Nsg21
F0.2163638256898374
sg22
F0.474
sg23
Nsg24
Nsg25
F6.55e-06
ssg26
I01
sg27
I01
sba(iSong
Song
p2236
(dp2237
g3
(dp2238
g5
F0.302
sg6
VThat's The Way Love Goes
p2239
sg8
F0.3907
sg9
F0.7
sg10
S'r_b'
p2240
sg12
F0.0693
sg13
VJanet Jackson
p2241
sg15
I9999
sg16
F0.703
sg17
Nsg18
F0.88685
sg19
Nsg20
Nsg21
F0.2163638256898374
sg22
F0.582
sg23
Nsg24
Nsg25
F0.471
ssg26
I01
sg27
I01
sba(iSong
Song
p2242
(dp2243
g3
(dp2244
g5
F0.0132
sg6
VCandy Rain - Heavy D & TrakMasterz Mix
p2245
sg8
F0.375464
sg9
F0.591
sg10
S'r_b'
p2246
sg12
F0.0501
sg13
VSoul For Real
p2247
sg15
I9999
sg16
F0.786
sg17
Nsg18
F0.8714999999999999
sg19
Nsg20
Nsg21
F0.2163638256898374
sg22
F0.706
sg23
Nsg24
Nsg25
F9.34e-06
ssg26
I01
sg27
I01
sba(iSong
Song
p2248
(dp2249
g3
(dp2250
g5
F0.11
sg6
VIn My Bed - So So Def Mix
p2251
sg8
F0.381772
sg9
F0.655
sg10
S'r_b'
p2252
sg12
F0.253
sg13
VDru Hill
p2253
sg15
I9999
sg16
F0.818
sg17
Nsg18
F0.872
sg19
Nsg20
Nsg21
F0.2163638256898374
sg22
F0.82
sg23
Nsg24
Nsg25
I0
ssg26
I01
sg27
I01
sba(iSong
Song
p2254
(dp2255
g3
(dp2256
g5
F0.157
sg6
VCan't You See
p2257
sg8
F0.34504
sg9
F0.721
sg10
S'r_b'
p2258
sg12
F0.0541
sg13
VTotal
p2259
sg15
I9999
sg16
F0.715
sg17
Nsg18
F0.9063
sg19
Nsg20
Nsg21
F0.2163638256898374
sg22
F0.807
sg23
Nsg24
Nsg25
F1.75e-06
ssg26
I01
sg27
I01
sba(iSong
Song
p2260
(dp2261
g3
(dp2262
g5
F0.113
sg6
VSteelo
p2263
sg8
F0.36403199999999997
sg9
F0.736
sg10
S'r_b'
p2264
sg12
F0.145
sg13
V702
p2265
sg15
I9999
sg16
F0.772
sg17
Nsg18
F0.8635
sg19
Nsg20
Nsg21
F0.2163638256898374
sg22
F0.622
sg23
Nsg24
Nsg25
F0.00189
ssg26
I01
sg27
I01
sba(iSong
Song
p2266
(dp2267
g3
(dp2268
g5
F0.33
sg6
VI Wanna Be Down (feat. Queen Latifah, Yoyo & McLyte) - Remix
p2269
sg8
F0.34404
sg9
F0.433
sg10
S'r_b'
p2270
sg12
F0.396
sg13
VBrandy
p2271
sg15
I9999
sg16
F0.893
sg17
Nsg18
F0.9019999999999999
sg19
Nsg20
Nsg21
F0.2163638256898374
sg22
F0.675
sg23
Nsg24
Nsg25
I0
ssg26
I01
sg27
I01
sba(iSong
Song
p2272
(dp2273
g3
(dp2274
g5
F0.147
sg6
VDon't Walk Away
p2275
sg8
F0.411916
sg9
F0.915
sg10
S'r_b'
p2276
sg12
F0.128
sg13
VJade
p2277
sg15
I9999
sg16
F0.831
sg17
Nsg18
F0.8749833333333333
sg19
Nsg20
Nsg21
F0.2163638256898374
sg22
F0.881
sg23
Nsg24
Nsg25
F0.00571
ssg26
I01
sg27
I01
sba(iSong
Song
p2278
(dp2279
g3
(dp2280
g5
F0.0865
sg6
VHold On
p2281
sg8
F0.387776
sg9
F0.464
sg10
S'r_b'
p2282
sg12
F0.0605
sg13
VEn Vogue
p2283
sg15
I9999
sg16
F0.728
sg17
Nsg18
F0.8140666666666667
sg19
Nsg20
Nsg21
F0.2163638256898374
sg22
F0.383
sg23
Nsg24
Nsg25
I0
ssg26
I01
sg27
I01
sba(iSong
Song
p2284
(dp2285
g3
(dp2286
g5
F0.142
sg6
VSensitivity
p2287
sg8
F0.387804
sg9
F0.664
sg10
S'r_b'
p2288
sg12
F0.0483
sg13
VRalph Tresvant
p2289
sg15
I9999
sg16
F0.691
sg17
Nsg18
F0.7821
sg19
Nsg20
Nsg21
F0.2163638256898374
sg22
F0.688
sg23
Nsg24
Nsg25
F0.37
ssg26
I01
sg27
I01
sba(iSong
Song
p2290
(dp2291
g3
(dp2292
g5
F0.552
sg6
VAll Around the World - Remastered
p2293
sg8
F0.404844
sg9
F0.914
sg10
S'r_b'
p2294
sg12
F0.192
sg13
VLisa Stansfield
p2295
sg15
I9999
sg16
F0.436
sg17
Nsg18
F0.9232
sg19
Nsg20
Nsg21
F0.2163638256898374
sg22
F0.765
sg23
Nsg24
Nsg25
F1.68e-06
ssg26
I01
sg27
I01
sba(iSong
Song
p2296
(dp2297
g3
(dp2298
g5
F0.0171
sg6
VMotownphilly - Original Version
p2299
sg8
F0.45657600000000004
sg9
F0.858
sg10
S'r_b'
p2300
sg12
F0.0682
sg13
VBoyz II Men
p2301
sg15
I9999
sg16
F0.756
sg17
Nsg18
F0.8391833333333333
sg19
Nsg20
Nsg21
F0.2163638256898374
sg22
F0.758
sg23
Nsg24
Nsg25
F2.17e-05
ssg26
I01
sg27
I01
sba(iSong
Song
p2302
(dp2303
g3
(dp2304
g5
F0.145
sg6
VOnly You (feat. The Notorious B.I.G.) - Radio Mix
p2305
sg8
F0.3841
sg9
F0.644
sg10
S'r_b'
p2306
sg12
F0.0532
sg13
V112
p2307
sg15
I9999
sg16
F0.778
sg17
Nsg18
F0.8733333333333333
sg19
Nsg20
Nsg21
F0.2163638256898374
sg22
F0.846
sg23
Nsg24
Nsg25
I0
ssg26
I01
sg27
I01
sba(iSong
Song
p2308
(dp2309
g3
(dp2310
g5
F0.296
sg6
VTouch Me Tease Me
p2311
sg8
F0.35036
sg9
F0.76
sg10
S'r_b'
p2312
sg12
F0.0579
sg13
VCase
p2313
sg15
I9999
sg16
F0.655
sg17
Nsg18
F0.8704833333333333
sg19
Nsg20
Nsg21
F0.2163638256898374
sg22
F0.493
sg23
Nsg24
Nsg25
F3.42e-06
ssg26
I01
sg27
I01
sba(iSong
Song
p2314
(dp2315
g3
(dp2316
g5
F0.247
sg6
VYou Used To Love Me
p2317
sg8
F0.357084
sg9
F0.458
sg10
S'r_b'
p2318
sg12
F0.035
sg13
VFaith Evans
p2319
sg15
I9999
sg16
F0.702
sg17
Nsg18
F0.8634166666666666
sg19
Nsg20
Nsg21
F0.2163638256898374
sg22
F0.678
sg23
Nsg24
Nsg25
F1.64e-06
ssg26
I01
sg27
I01
sba(iSong
Song
p2320
(dp2321
g3
(dp2322
g5
F0.113
sg6
VFeels Good
p2323
sg8
F0.46872
sg9
F0.856
sg10
S'r_b'
p2324
sg12
F0.0935
sg13
VTony! Toni! Ton!
p2325
sg15
I9999
sg16
F0.823
sg17
Nsg18
F0.7998999999999999
sg19
Nsg20
Nsg21
F0.2163638256898374
sg22
F0.658
sg23
Nsg24
Nsg25
F7.44e-06
ssg26
I01
sg27
I01
sba(iSong
Song
p2326
(dp2327
g3
(dp2328
g5
F0.0551
sg6
VIs It Good To You
p2329
sg8
F0.429948
sg9
F0.602
sg10
S'r_b'
p2330
sg12
F0.0369
sg13
VHeavy D & The Boyz
p2331
sg15
I9999
sg16
F0.714
sg17
Nsg18
F0.7814
sg19
Nsg20
Nsg21
F0.2163638256898374
sg22
F0.797
sg23
Nsg24
Nsg25
F0.00494
ssg26
I01
sg27
I01
sba(iSong
Song
p2332
(dp2333
g3
(dp2334
g5
F0.00187
sg6
VDo Me Right
p2335
sg8
F0.423856
sg9
F0.735
sg10
S'r_b'
p2336
sg12
F0.0808
sg13
VGuy
p2337
sg15
I9999
sg16
F0.769
sg17
Nsg18
F0.8139000000000001
sg19
Nsg20
Nsg21
F0.2163638256898374
sg22
F0.613
sg23
Nsg24
Nsg25
F5.55e-05
ssg26
I01
sg27
I01
sba(iSong
Song
p2338
(dp2339
g3
(dp2340
g5
F0.249
sg6
VI'm Dreamin'
p2341
sg8
F0.440532
sg9
F0.745
sg10
S'r_b'
p2342
sg12
F0.0581
sg13
VChristopher Williams
p2343
sg15
I9999
sg16
F0.788
sg17
Nsg18
F0.8443
sg19
Nsg20
Nsg21
F0.2163638256898374
sg22
F0.688
sg23
Nsg24
Nsg25
F7.66e-06
ssg26
I01
sg27
I01
sba(iSong
Song
p2344
(dp2345
g3
(dp2346
g5
F0.0504
sg6
VShe's Got That Vibe
p2347
sg8
F0.452548
sg9
F0.693
sg10
S'r_b'
p2348
sg12
F0.073
sg13
VR. Kelly
p2349
sg15
I9999
sg16
F0.801
sg17
Nsg18
F0.8293499999999999
sg19
Nsg20
Nsg21
F0.2163638256898374
sg22
F0.742
sg23
Nsg24
Nsg25
I0
ssg26
I01
sg27
I01
sba(iSong
Song
p2350
(dp2351
g3
(dp2352
g5
F0.0216
sg6
VRub You The Right Way
p2353
sg8
F0.447484
sg9
F0.874
sg10
S'r_b'
p2354
sg12
F0.0446
sg13
VJohnny Gill
p2355
sg15
I9999
sg16
F0.676
sg17
Nsg18
F0.8840166666666666
sg19
Nsg20
Nsg21
F0.2163638256898374
sg22
F0.844
sg23
Nsg24
Nsg25
F0.00144
ssg26
I01
sg27
I01
sba(iSong
Song
p2356
(dp2357
g3
(dp2358
g5
F0.00581
sg6
VAlright - 7" House Mix With Rap
p2359
sg8
F0.447228
sg9
F0.828
sg10
S'r_b'
p2360
sg12
F0.0364
sg13
VJanet Jackson
p2361
sg15
I9999
sg16
F0.714
sg17
Nsg18
F0.89925
sg19
Nsg20
Nsg21
F0.2163638256898374
sg22
F0.636
sg23
Nsg24
Nsg25
F0.0659
ssg26
I01
sg27
I01
sba(iSong
Song
p2362
(dp2363
g3
(dp2364
g5
F0.054
sg6
VJust Kickin' It
p2365
sg8
F0.32361599999999996
sg9
F0.365
sg10
S'r_b'
p2366
sg12
F0.0635
sg13
VXscape
p2367
sg15
I9999
sg16
F0.694
sg17
Nsg18
F0.7951
sg19
Nsg20
Nsg21
F0.2163638256898374
sg22
F0.693
sg23
Nsg24
Nsg25
F3.43e-05
ssg26
I01
sg27
I01
sba(iSong
Song
p2368
(dp2369
g3
(dp2370
g5
F0.0119
sg6
VI Love Your Smile
p2371
sg8
F0.37562
sg9
F0.813
sg10
S'r_b'
p2372
sg12
F0.137
sg13
VShanice
p2373
sg15
I9999
sg16
F0.669
sg17
Nsg18
F0.8382166666666666
sg19
Nsg20
Nsg21
F0.2163638256898374
sg22
F0.737
sg23
Nsg24
Nsg25
F9.58e-06
ssg26
I01
sg27
I01
sba(iSong
Song
p2374
(dp2375
g3
(dp2376
g5
F0.0227
sg6
VHey Mr. DJ
p2377
sg8
F0.405216
sg9
F0.502
sg10
S'r_b'
p2378
sg12
F0.0575
sg13
VZhan
p2379
sg15
I9999
sg16
F0.859
sg17
Nsg18
F0.8365166666666667
sg19
Nsg20
Nsg21
F0.2163638256898374
sg22
F0.876
sg23
Nsg24
Nsg25
F0.00286
ssg26
I01
sg27
I01
sba(iSong
Song
p2380
(dp2381
g3
(dp2382
g5
F0.0759
sg6
VCan We Talk
p2383
sg8
F0.6894600000000001
sg9
F0.711
sg10
S'r_b'
p2384
sg12
F0.0425
sg13
VTevin Campbell
p2385
sg15
I9999
sg16
F0.658
sg17
Nsg18
F0.8762666666666666
sg19
Nsg20
Nsg21
F0.2163638256898374
sg22
F0.614
sg23
Nsg24
Nsg25
F1.77e-05
ssg26
I01
sg27
I01
sba(iSong
Song
p2386
(dp2387
g3
(dp2388
g5
F0.00847
sg6
VShe's Playing Hard To Get
p2389
sg8
F0.7999080000000001
sg9
F0.811
sg10
S'r_b'
p2390
sg12
F0.0602
sg13
VHi-Five
p2391
sg15
I9999
sg16
F0.525
sg17
Nsg18
F0.8975333333333334
sg19
Nsg20
Nsg21
F0.2163638256898374
sg22
F0.751
sg23
Nsg24
Nsg25
I0
ssg26
I01
sg27
I01
sba(iSong
Song
p2392
(dp2393
g3
(dp2394
g5
F0.0624
sg6
VI'm So Into You
p2395
sg8
F0.39604
sg9
F0.513
sg10
S'r_b'
p2396
sg12
F0.0513
sg13
VSWV
p2397
sg15
I9999
sg16
F0.85
sg17
Nsg18
F0.8222833333333334
sg19
Nsg20
Nsg21
F0.2163638256898374
sg22
F0.623
sg23
Nsg24
Nsg25
F0.00249
ssg26
I01
sg27
I01
sba(iSong
Song
p2398
(dp2399
g3
(dp2400
g5
F0.00662
sg6
VLet Me Be The One
p2401
sg8
F0.368168
sg9
F0.518
sg10
S'r_b'
p2402
sg12
F0.0352
sg13
VIntro
p2403
sg15
I9999
sg16
F0.629
sg17
Nsg18
F0.7793833333333333
sg19
Nsg20
Nsg21
F0.2163638256898374
sg22
F0.632
sg23
Nsg24
Nsg25
I0
ssg26
I01
sg27
I01
sba(iSong
Song
p2404
(dp2405
g3
(dp2406
g5
F0.0262
sg6
VCome And Talk To Me Remix
p2407
sg8
F0.6886720000000001
sg9
F0.657
sg10
S'r_b'
p2408
sg12
F0.295
sg13
VJodeci
p2409
sg15
I9999
sg16
F0.72
sg17
Nsg18
F0.8862833333333333
sg19
Nsg20
Nsg21
F0.2163638256898374
sg22
F0.657
sg23
Nsg24
Nsg25
F2.33e-06
ssg26
I01
sg27
I01
sba(iSong
Song
p2410
(dp2411
g3
(dp2412
g5
F0.0486
sg6
VReminisce
p2413
sg8
F0.36570800000000003
sg9
F0.695
sg10
S'r_b'
p2414
sg12
F0.0749
sg13
VMary J. Blige
p2415
sg15
I9999
sg16
F0.638
sg17
Nsg18
F0.8640333333333333
sg19
Nsg20
Nsg21
F0.2163638256898374
sg22
F0.586
sg23
Nsg24
Nsg25
F1.17e-05
ssg26
I01
sg27
I01
sba(iSong
Song
p2416
(dp2417
g3
(dp2418
g5
F0.317
sg6
VI'm Your Baby Tonight
p2419
sg8
F0.660588
sg9
F0.872
sg10
S'r_b'
p2420
sg12
F0.0852
sg13
VWhitney Houston
p2421
sg15
I9999
sg16
F0.668
sg17
Nsg18
F0.85355
sg19
Nsg20
Nsg21
F0.2163638256898374
sg22
F0.868
sg23
Nsg24
Nsg25
F2.02e-06
ssg26
I01
sg27
I01
sba(iSong
Song
p2422
(dp2423
g3
(dp2424
g5
F0.0159
sg6
VThis Is How We Do It
p2425
sg8
F0.414588
sg9
F0.63
sg10
S'r_b'
p2426
sg12
F0.0748
sg13
VMontell Jordan
p2427
sg15
I9999
sg16
F0.799
sg17
Nsg18
F0.84535
sg19
Nsg20
Nsg21
F0.2163638256898374
sg22
F0.772
sg23
Nsg24
Nsg25
I0
ssg26
I01
sg27
I01
sba(iSong
Song
p2428
(dp2429
g3
(dp2430
g5
F0.0698
sg6
VBack & Forth
p2431
sg8
F0.371752
sg9
F0.727
sg10
S'r_b'
p2432
sg12
F0.0317
sg13
VAaliyah
p2433
sg15
I9999
sg16
F0.706
sg17
Nsg18
F0.8656666666666666
sg19
Nsg20
Nsg21
F0.2163638256898374
sg22
F0.903
sg23
Nsg24
Nsg25
F5.31e-06
ssg26
I01
sg27
I01
sba(iSong
Song
p2434
(dp2435
g3
(dp2436
g5
F0.148
sg6
VBe Happy
p2437
sg8
F0.371672
sg9
F0.715
sg10
S'r_b'
p2438
sg12
F0.085
sg13
VMary J. Blige
p2439
sg15
I9999
sg16
F0.674
sg17
Nsg18
F0.8579166666666667
sg19
Nsg20
Nsg21
F0.2163638256898374
sg22
F0.669
sg23
Nsg24
Nsg25
I0
ssg26
I01
sg27
I01
sba(iSong
Song
p2440
(dp2441
g3
(dp2442
g5
F0.14
sg6
VLady
p2443
sg8
F0.339592
sg9
F0.364
sg10
S'r_b'
p2444
sg12
F0.089
sg13
VD'Angelo
p2445
sg15
I9999
sg16
F0.815
sg17
Nsg18
F0.8027666666666666
sg19
Nsg20
Nsg21
F0.2163638256898374
sg22
F0.723
sg23
Nsg24
Nsg25
F0.0255
ssg26
I01
sg27
I01
sba(iSong
Song
p2446
(dp2447
g3
(dp2448
g5
F0.17
sg6
VYou Got Me
p2449
sg8
F0.323984
sg9
F0.464
sg10
S'r_b'
p2450
sg12
F0.272
sg13
VThe Roots
p2451
sg15
I9999
sg16
F0.725
sg17
Nsg18
F0.8466666666666666
sg19
Nsg20
Nsg21
F0.2163638256898374
sg22
F0.689
sg23
Nsg24
Nsg25
I0
ssg26
I01
sg27
I01
sba(iSong
Song
p2452
(dp2453
g3
(dp2454
g5
F0.0805
sg6
VAscension (Don't Ever Wonder)
p2455
sg8
F0.384152
sg9
F0.471
sg10
S'r_b'
p2456
sg12
F0.0317
sg13
VMaxwell
p2457
sg15
I9999
sg16
F0.753
sg17
Nsg18
F0.8253333333333333
sg19
Nsg20
Nsg21
F0.2163638256898374
sg22
F0.778
sg23
Nsg24
Nsg25
F0.0299
ssg26
I01
sg27
I01
sba(iSong
Song
p2458
(dp2459
g3
(dp2460
g5
F0.061
sg6
VOn & On
p2461
sg8
F0.321544
sg9
F0.403
sg10
S'r_b'
p2462
sg12
F0.167
sg13
VErykah Badu
p2463
sg15
I9999
sg16
F0.765
sg17
Nsg18
F0.8175666666666667
sg19
Nsg20
Nsg21
F0.2163638256898374
sg22
F0.295
sg23
Nsg24
Nsg25
F0.00559
ssg26
I01
sg27
I01
sba(iSong
Song
p2464
(dp2465
g3
(dp2466
g5
F0.0355
sg6
VTell Me
p2467
sg8
F0.372236
sg9
F0.361
sg10
S'r_b'
p2468
sg12
F0.0635
sg13
VGroove Theory
p2469
sg15
I9999
sg16
F0.8
sg17
Nsg18
F0.8191833333333333
sg19
Nsg20
Nsg21
F0.2163638256898374
sg22
F0.887
sg23
Nsg24
Nsg25
F3.75e-06
ssg26
I01
sg27
I01
sba(iSong
Song
p2470
(dp2471
g3
(dp2472
g5
F0.013
sg6
VThat's What I Like
p2473
sg8
F0.536264
sg9
F0.56
sg10
S'r_b'
p2474
sg12
F0.0406
sg13
VBruno Mars
p2475
sg15
I9999
sg16
F0.853
sg17
Nsg18
F0.9173166666666667
sg19
Nsg20
Nsg21
F0.2163638256898374
sg22
F0.86
sg23
Nsg24
Nsg25
I0
ssg26
I01
sg27
I01
sba(iSong
Song
p2476
(dp2477
g3
(dp2478
g5
F0.0287
sg6
VWild Thoughts
p2479
sg8
F0.390484
sg9
F0.681
sg10
S'r_b'
p2480
sg12
F0.0778
sg13
VDJ Khaled
p2481
sg15
I9999
sg16
F0.613
sg17
Nsg18
F0.9485166666666667
sg19
Nsg20
Nsg21
F0.2163638256898374
sg22
F0.619
sg23
Nsg24
Nsg25
I0
ssg26
I01
sg27
I01
sba(iSong
Song
p2482
(dp2483
g3
(dp2484
g5
F0.0873
sg6
VControlla
p2485
sg8
F0.36930399999999997
sg9
F0.478
sg10
S'r_b'
p2486
sg12
F0.287
sg13
VDrake
p2487
sg15
I9999
sg16
F0.545
sg17
Nsg18
F0.8155666666666667
sg19
Nsg20
Nsg21
F0.2163638256898374
sg22
F0.317
sg23
Nsg24
Nsg25
I0
ssg26
I01
sg27
I01
sba(iSong
Song
p2488
(dp2489
g3
(dp2490
g5
F0.107
sg6
VNeeded Me
p2491
sg8
F0.443552
sg9
F0.325
sg10
S'r_b'
p2492
sg12
F0.251
sg13
VRihanna
p2493
sg15
I9999
sg16
F0.688
sg17
Nsg18
F0.8652833333333334
sg19
Nsg20
Nsg21
F0.2163638256898374
sg22
F0.275
sg23
Nsg24
Nsg25
I0
ssg26
I01
sg27
I01
sba(iSong
Song
p2494
(dp2495
g3
(dp2496
g5
F0.222
sg6
VDon't
p2497
sg8
F0.388004
sg9
F0.356
sg10
S'r_b'
p2498
sg12
F0.196
sg13
VBryson Tiller
p2499
sg15
I9999
sg16
F0.765
sg17
Nsg18
F0.9074000000000001
sg19
Nsg20
Nsg21
F0.2163638256898374
sg22
F0.19
sg23
Nsg24
Nsg25
I0
ssg26
I01
sg27
I01
sba(iSong
Song
p2500
(dp2501
g3
(dp2502
g5
F0.168
sg6
VStarboy
p2503
sg8
F0.743992
sg9
F0.595
sg10
S'r_b'
p2504
sg12
F0.284
sg13
VThe Weeknd
p2505
sg15
I9999
sg16
F0.675
sg17
Nsg18
F0.8827833333333334
sg19
Nsg20
Nsg21
F0.2163638256898374
sg22
F0.491
sg23
Nsg24
Nsg25
F3.36e-06
ssg26
I01
sg27
I01
sba(iSong
Song
p2506
(dp2507
g3
(dp2508
g5
F0.0278
sg6
VLUV - Remix
p2509
sg8
F0.38012799999999997
sg9
F0.558
sg10
S'r_b'
p2510
sg12
F0.252
sg13
VTory Lanez
p2511
sg15
I9999
sg16
F0.677
sg17
Nsg18
F0.8729666666666667
sg19
Nsg20
Nsg21
F0.2163638256898374
sg22
F0.564
sg23
Nsg24
Nsg25
I0
ssg26
I01
sg27
I01
sba(iSong
Song
p2512
(dp2513
g3
(dp2514
g5
F0.226
sg6
VCRZY
p2515
sg8
F0.52008
sg9
F0.702
sg10
S'r_b'
p2516
sg12
F0.267
sg13
VKehlani
p2517
sg15
I9999
sg16
F0.827
sg17
Nsg18
F0.8789333333333332
sg19
Nsg20
Nsg21
F0.2163638256898374
sg22
F0.694
sg23
Nsg24
Nsg25
F5.04e-05
ssg26
I01
sg27
I01
sba(iSong
Song
p2518
(dp2519
g3
(dp2520
g5
F0.0799
sg6
VNo Limit
p2521
sg8
F0.508188
sg9
F0.523
sg10
S'r_b'
p2522
sg12
F0.0611
sg13
VUsher
p2523
sg15
I9999
sg16
F0.717
sg17
Nsg18
F0.8915666666666666
sg19
Nsg20
Nsg21
F0.2163638256898374
sg22
F0.282
sg23
Nsg24
Nsg25
I0
ssg26
I01
sg27
I01
sba(iSong
Song
p2524
(dp2525
g3
(dp2526
g5
F0.388
sg6
VGrass Ain't Greener
p2527
sg8
F0.535784
sg9
F0.601
sg10
S'r_b'
p2528
sg12
F0.0496
sg13
VChris Brown
p2529
sg15
I9999
sg16
F0.644
sg17
Nsg18
F0.91505
sg19
Nsg20
Nsg21
F0.2163638256898374
sg22
F0.518
sg23
Nsg24
Nsg25
I0
ssg26
I01
sg27
I01
sba(iSong
Song
p2530
(dp2531
g3
(dp2532
g5
F0.00902
sg6
VOne Dance
p2533
sg8
F0.41592399999999996
sg9
F0.617
sg10
S'r_b'
p2534
sg12
F0.0522
sg13
VDrake
p2535
sg15
I9999
sg16
F0.785
sg17
Nsg18
F0.90215
sg19
Nsg20
Nsg21
F0.2163638256898374
sg22
F0.382
sg23
Nsg24
Nsg25
F0.00246
ssg26
I01
sg27
I01
sba(iSong
Song
p2536
(dp2537
g3
(dp2538
g5
F0.15
sg6
V2 On
p2539
sg8
F0.404052
sg9
F0.595
sg10
S'r_b'
p2540
sg12
F0.107
sg13
VTinashe
p2541
sg15
I9999
sg16
F0.742
sg17
Nsg18
F0.8748333333333334
sg19
Nsg20
Nsg21
F0.2163638256898374
sg22
F0.431
sg23
Nsg24
Nsg25
I0
ssg26
I01
sg27
I01
sba(iSong
Song
p2542
(dp2543
g3
(dp2544
g5
F0.679
sg6
VSlow Motion
p2545
sg8
F0.379788
sg9
F0.408
sg10
S'r_b'
p2546
sg12
F0.0388
sg13
VTrey Songz
p2547
sg15
I9999
sg16
F0.733
sg17
Nsg18
F0.8694333333333333
sg19
Nsg20
Nsg21
F0.2163638256898374
sg22
F0.291
sg23
Nsg24
Nsg25
F3.92e-05
ssg26
I01
sg27
I01
sba(iSong
Song
p2548
(dp2549
g3
(dp2550
g5
F0.0511
sg6
VCome and See Me (feat. Drake)
p2551
sg8
F0.339948
sg9
F0.347
sg10
S'r_b'
p2552
sg12
F0.0636
sg13
VPARTYNEXTDOOR
p2553
sg15
I9999
sg16
F0.717
sg17
Nsg18
F0.8289166666666666
sg19
Nsg20
Nsg21
F0.2163638256898374
sg22
F0.0589
sg23
Nsg24
Nsg25
F2.43e-06
ssg26
I01
sg27
I01
sba(iSong
Song
p2554
(dp2555
g3
(dp2556
g5
F0.0848
sg6
VLove On The Brain
p2557
sg8
F0.687828
sg9
F0.641
sg10
S'r_b'
p2558
sg12
F0.0456
sg13
VRihanna
p2559
sg15
I9999
sg16
F0.506
sg17
Nsg18
F0.9197500000000001
sg19
Nsg20
Nsg21
F0.2163638256898374
sg22
F0.393
sg23
Nsg24
Nsg25
F8.09e-06
ssg26
I01
sg27
I01
sba(iSong
Song
p2560
(dp2561
g3
(dp2562
g5
F0.41
sg6
VThinkin Bout You
p2563
sg8
F0.519368
sg9
F0.35
sg10
S'r_b'
p2564
sg12
F0.0537
sg13
VFrank Ocean
p2565
sg15
I9999
sg16
F0.716
sg17
Nsg18
F0.8150999999999999
sg19
Nsg20
Nsg21
F0.2163638256898374
sg22
F0.178
sg23
Nsg24
Nsg25
F0.00134
ssg26
I01
sg27
I01
sba(iSong
Song
p2566
(dp2567
g3
(dp2568
g5
F0.219
sg6
VInto You (feat. Fabolous)
p2569
sg8
F0.364416
sg9
F0.531
sg10
S'r_b'
p2570
sg12
F0.0327
sg13
VTamia
p2571
sg15
I9999
sg16
F0.677
sg17
Nsg18
F0.87195
sg19
Nsg20
Nsg21
F0.2163638256898374
sg22
F0.57
sg23
Nsg24
Nsg25
I0
ssg26
I01
sg27
I01
sba(iSong
Song
p2572
(dp2573
g3
(dp2574
g5
F0.0358
sg6
VWe Belong Together
p2575
sg8
F0.5599
sg9
F0.469
sg10
S'r_b'
p2576
sg12
F0.0835
sg13
VMariah Carey
p2577
sg15
I9999
sg16
F0.838
sg17
Nsg18
F0.8668
sg19
Nsg20
Nsg21
F0.2163638256898374
sg22
F0.778
sg23
Nsg24
Nsg25
I0
ssg26
I01
sg27
I01
sba(iSong
Song
p2578
(dp2579
g3
(dp2580
g5
F0.0874
sg6
VSay It
p2581
sg8
F0.429196
sg9
F0.521
sg10
S'r_b'
p2582
sg12
F0.0551
sg13
VTory Lanez
p2583
sg15
I9999
sg16
F0.558
sg17
Nsg18
F0.83125
sg19
Nsg20
Nsg21
F0.2163638256898374
sg22
F0.287
sg23
Nsg24
Nsg25
F2.99e-06
ssg26
I01
sg27
I01
sba(iSong
Song
p2584
(dp2585
g3
(dp2586
g5
F0.756
sg6
VPlanes
p2587
sg8
F0.5152920000000001
sg9
F0.678
sg10
S'r_b'
p2588
sg12
F0.26
sg13
VJeremih
p2589
sg15
I9999
sg16
F0.661
sg17
Nsg18
F0.9366666666666668
sg19
Nsg20
Nsg21
F0.2163638256898374
sg22
F0.512
sg23
Nsg24
Nsg25
I0
ssg26
I01
sg27
I01
sba(iSong
Song
p2590
(dp2591
g3
(dp2592
g5
F0.00311
sg6
VHow Many Drinks?
p2593
sg8
F0.327288
sg9
F0.608
sg10
S'r_b'
p2594
sg12
F0.134
sg13
VMiguel
p2595
sg15
I9999
sg16
F0.379
sg17
Nsg18
F0.88315
sg19
Nsg20
Nsg21
F0.2163638256898374
sg22
F0.241
sg23
Nsg24
Nsg25
F0.000614
ssg26
I01
sg27
I01
sba(iSong
Song
p2596
(dp2597
g3
(dp2598
g5
F0.00969
sg6
VDrunk in Love
p2599
sg8
F0.56012
sg9
F0.621
sg10
S'r_b'
p2600
sg12
F0.0468
sg13
VBeyonc
p2601
sg15
I9999
sg16
F0.589
sg17
Nsg18
F0.8849666666666667
sg19
Nsg20
Nsg21
F0.2163638256898374
sg22
F0.401
sg23
Nsg24
Nsg25
F0.00104
ssg26
I01
sg27
I01
sba(iSong
Song
p2602
(dp2603
g3
(dp2604
g5
F0.0478
sg6
VV.S.O.P.
p2605
sg8
F0.296392
sg9
F0.806
sg10
S'r_b'
p2606
sg12
F0.0577
sg13
VK. Michelle
p2607
sg15
I9999
sg16
F0.277
sg17
Nsg18
F0.9214166666666667
sg19
Nsg20
Nsg21
F0.2163638256898374
sg22
F0.617
sg23
Nsg24
Nsg25
I0
ssg26
I01
sg27
I01
sba(iSong
Song
p2608
(dp2609
g3
(dp2610
g5
F0.0649
sg6
VNew Flame
p2611
sg8
F0.567976
sg9
F0.638
sg10
S'r_b'
p2612
sg12
F0.0405
sg13
VChris Brown
p2613
sg15
I9999
sg16
F0.709
sg17
Nsg18
F0.9283333333333333
sg19
Nsg20
Nsg21
F0.2163638256898374
sg22
F0.468
sg23
Nsg24
Nsg25
I0
ssg26
I01
sg27
I01
sba(iSong
Song
p2614
(dp2615
g3
(dp2616
g5
F0.0369
sg6
VTurnin' Me Up
p2617
sg8
F0.314016
sg9
F0.79
sg10
S'r_b'
p2618
sg12
F0.0918
sg13
VBJ The Chicago Kid
p2619
sg15
I9999
sg16
F0.732
sg17
Nsg18
F0.9275666666666667
sg19
Nsg20
Nsg21
F0.2163638256898374
sg22
F0.826
sg23
Nsg24
Nsg25
F0.118
ssg26
I01
sg27
I01
sba(iSong
Song
p2620
(dp2621
g3
(dp2622
g5
F0.034
sg6
V24K Magic
p2623
sg8
F0.42788
sg9
F0.803
sg10
S'r_b'
p2624
sg12
F0.0797
sg13
VBruno Mars
p2625
sg15
I9999
sg16
F0.818
sg17
Nsg18
F0.9286333333333334
sg19
Nsg20
Nsg21
F0.2163638256898374
sg22
F0.632
sg23
Nsg24
Nsg25
I0
ssg26
I01
sg27
I01
sba(iSong
Song
p2626
(dp2627
g3
(dp2628
g5
F0.000131
sg6
VMy Boo - Hitman's Club Mix
p2629
sg8
F0.520312
sg9
F0.477
sg10
S'r_b'
p2630
sg12
F0.0664
sg13
VGhost Town DJs
p2631
sg15
I9999
sg16
F0.885
sg17
Nsg18
F0.8467333333333333
sg19
Nsg20
Nsg21
F0.2163638256898374
sg22
F0.691
sg23
Nsg24
Nsg25
F0.000664
ssg26
I01
sg27
I01
sba(iSong
Song
p2632
(dp2633
g3
(dp2634
g5
F0.0143
sg6
VBody Party
p2635
sg8
F0.535892
sg9
F0.576
sg10
S'r_b'
p2636
sg12
F0.0563
sg13
VCiara
p2637
sg15
I9999
sg16
F0.577
sg17
Nsg18
F0.8950166666666667
sg19
Nsg20
Nsg21
F0.2163638256898374
sg22
F0.12
sg23
Nsg24
Nsg25
I0
ssg26
I01
sg27
I01
sba(iSong
Song
p2638
(dp2639
g3
(dp2640
g5
F0.129
sg6
VWithout Me
p2641
sg8
F0.300056
sg9
F0.687
sg10
S'r_b'
p2642
sg12
F0.21
sg13
VFantasia
p2643
sg15
I9999
sg16
F0.713
sg17
Nsg18
F0.8747
sg19
Nsg20
Nsg21
F0.2163638256898374
sg22
F0.555
sg23
Nsg24
Nsg25
I0
ssg26
I01
sg27
I01
sba(iSong
Song
p2644
(dp2645
g3
(dp2646
g5
F0.176
sg6
VMotivation
p2647
sg8
F0.5636760000000001
sg9
F0.668
sg10
S'r_b'
p2648
sg12
F0.0505
sg13
VKelly Rowland
p2649
sg15
I9999
sg16
F0.721
sg17
Nsg18
F0.9073166666666667
sg19
Nsg20
Nsg21
F0.2163638256898374
sg22
F0.271
sg23
Nsg24
Nsg25
F0.000104
ssg26
I01
sg27
I01
sba(iSong
Song
p2650
(dp2651
g3
(dp2652
g5
F0.107
sg6
V1 Thing
p2653
sg8
F0.519492
sg9
F0.961
sg10
S'r_b'
p2654
sg12
F0.333
sg13
VAmerie
p2655
sg15
I9999
sg16
F0.612
sg17
Nsg18
F0.9487
sg19
Nsg20
Nsg21
F0.2163638256898374
sg22
F0.867
sg23
Nsg24
Nsg25
F4.17e-05
ssg26
I01
sg27
I01
sba(iSong
Song
p2656
(dp2657
g3
(dp2658
g5
F0.00257
sg6
VHotline Bling
p2659
sg8
F0.539848
sg9
F0.623
sg10
S'r_b'
p2660
sg12
F0.0571
sg13
VDrake
p2661
sg15
I9999
sg16
F0.896
sg17
Nsg18
F0.8665333333333334
sg19
Nsg20
Nsg21
F0.2163638256898374
sg22
F0.585
sg23
Nsg24
Nsg25
F0.000258
ssg26
I01
sg27
I01
sba(iSong
Song
p2662
(dp2663
g3
(dp2664
g5
F0.15
sg6
VClassic Man
p2665
sg8
F0.376272
sg9
F0.595
sg10
S'r_b'
p2666
sg12
F0.0351
sg13
VJidenna
p2667
sg15
I9999
sg16
F0.788
sg17
Nsg18
F0.9035
sg19
Nsg20
Nsg21
F0.2163638256898374
sg22
F0.587
sg23
Nsg24
Nsg25
I0
ssg26
I01
sg27
I01
sba(iSong
Song
p2668
(dp2669
g3
(dp2670
g5
F0.527
sg6
VDon't Tell 'Em
p2671
sg8
F0.39212400000000003
sg9
F0.538
sg10
S'r_b'
p2672
sg12
F0.0699
sg13
VJeremih
p2673
sg15
I9999
sg16
F0.859
sg17
Nsg18
F0.9132166666666667
sg19
Nsg20
Nsg21
F0.2163638256898374
sg22
F0.333
sg23
Nsg24
Nsg25
F1.14e-06
ssg26
I01
sg27
I01
sba(iSong
Song
p2674
(dp2675
g3
(dp2676
g5
F0.196
sg6
VTru
p2677
sg8
F0.29231999999999997
sg9
F0.545
sg10
S'r_b'
p2678
sg12
F0.0721
sg13
VLloyd
p2679
sg15
I9999
sg16
F0.539
sg17
Nsg18
F0.90375
sg19
Nsg20
Nsg21
F0.2163638256898374
sg22
F0.144
sg23
Nsg24
Nsg25
I0
ssg26
I01
sg27
I01
sba(iSong
Song
p2680
(dp2681
g3
(dp2682
g5
F0.0644
sg6
VWork
p2683
sg8
F0.365184
sg9
F0.538
sg10
S'r_b'
p2684
sg12
F0.0953
sg13
VRihanna
p2685
sg15
I9999
sg16
F0.667
sg17
Nsg18
F0.8951
sg19
Nsg20
Nsg21
F0.2163638256898374
sg22
F0.527
sg23
Nsg24
Nsg25
I0
ssg26
I01
sg27
I01
sba(iSong
Song
p2686
(dp2687
g3
(dp2688
g5
F0.194
sg6
VLet It Go
p2689
sg8
F0.379756
sg9
F0.721
sg10
S'r_b'
p2690
sg12
F0.206
sg13
VKeyshia Cole
p2691
sg15
I9999
sg16
F0.812
sg17
Nsg18
F0.9152666666666666
sg19
Nsg20
Nsg21
F0.2163638256898374
sg22
F0.772
sg23
Nsg24
Nsg25
I0
ssg26
I01
sg27
I01
sba(iSong
Song
p2692
(dp2693
g3
(dp2694
g5
F0.194
sg6
VU Remind Me
p2695
sg8
F0.37594
sg9
F0.629
sg10
S'r_b'
p2696
sg12
F0.0782
sg13
VUsher
p2697
sg15
I9999
sg16
F0.657
sg17
Nsg18
F0.9177
sg19
Nsg20
Nsg21
F0.2163638256898374
sg22
F0.726
sg23
Nsg24
Nsg25
I0
ssg26
I01
sg27
I01
sba(iSong
Song
p2698
(dp2699
g3
(dp2700
g5
F0.0849
sg6
VLove On Top
p2701
sg8
F0.37639999999999996
sg9
F0.748
sg10
S'r_b'
p2702
sg12
F0.0887
sg13
VBeyonc
p2703
sg15
I9999
sg16
F0.652
sg17
Nsg18
F0.9126333333333334
sg19
Nsg20
Nsg21
F0.2163638256898374
sg22
F0.652
sg23
Nsg24
Nsg25
I0
ssg26
I01
sg27
I01
sba(iSong
Song
p2704
(dp2705
g3
(dp2706
g5
F0.237
sg6
VThe Worst
p2707
sg8
F0.37436
sg9
F0.417
sg10
S'r_b'
p2708
sg12
F0.0578
sg13
VJhene Aiko
p2709
sg15
I9999
sg16
F0.524
sg17
Nsg18
F0.8452833333333333
sg19
Nsg20
Nsg21
F0.2163638256898374
sg22
F0.109
sg23
Nsg24
Nsg25
F1.19e-06
ssg26
I01
sg27
I01
sba(iSong
Song
p2710
(dp2711
g3
(dp2712
g5
F0.016
sg6
VIt Won't Stop (feat. Chris Brown)
p2713
sg8
F0.479968
sg9
F0.574
sg10
S'r_b'
p2714
sg12
F0.0407
sg13
VSevyn Streeter
p2715
sg15
I9999
sg16
F0.657
sg17
Nsg18
F0.8419333333333333
sg19
Nsg20
Nsg21
F0.2163638256898374
sg22
F0.211
sg23
Nsg24
Nsg25
F8.1e-05
ssg26
I01
sg27
I01
sba(iSong
Song
p2716
(dp2717
g3
(dp2718
g5
F0.0523
sg6
V2AM.
p2719
sg8
F0.40804399999999996
sg9
F0.521
sg10
S'r_b'
p2720
sg12
F0.0662
sg13
VAdrian Marcel
p2721
sg15
I9999
sg16
F0.849
sg17
Nsg18
F0.8935666666666666
sg19
Nsg20
Nsg21
F0.2163638256898374
sg22
F0.613
sg23
Nsg24
Nsg25
I0
ssg26
I01
sg27
I01
sba(iSong
Song
p2722
(dp2723
g3
(dp2724
g5
F0.00448
sg6
VNo Love
p2725
sg8
F0.5231760000000001
sg9
F0.625
sg10
S'r_b'
p2726
sg12
F0.148
sg13
VAugust Alsina
p2727
sg15
I9999
sg16
F0.593
sg17
Nsg18
F0.8673833333333333
sg19
Nsg20
Nsg21
F0.2163638256898374
sg22
F0.322
sg23
Nsg24
Nsg25
I0
ssg26
I01
sg27
I01
sba(iSong
Song
p2728
(dp2729
g3
(dp2730
g5
F0.0287
sg6
VValet (feat. Fetty Wap and 2 Chainz)
p2731
sg8
F0.375476
sg9
F0.53
sg10
S'r_b'
p2732
sg12
F0.0386
sg13
VEric Bellinger
p2733
sg15
I9999
sg16
F0.749
sg17
Nsg18
F0.9124833333333334
sg19
Nsg20
Nsg21
F0.2163638256898374
sg22
F0.332
sg23
Nsg24
Nsg25
I0
ssg26
I01
sg27
I01
sba(iSong
Song
p2734
(dp2735
g3
(dp2736
g5
F0.784
sg6
VNaked
p2737
sg8
F0.49918799999999997
sg9
F0.449
sg10
S'r_b'
p2738
sg12
F0.0564
sg13
VElla Mai
p2739
sg15
I9999
sg16
F0.443
sg17
Nsg18
F0.8866999999999999
sg19
Nsg20
Nsg21
F0.2163638256898374
sg22
F0.511
sg23
Nsg24
Nsg25
I0
ssg26
I01
sg27
I01
sba(iSong
Song
p2740
(dp2741
g3
(dp2742
g5
F0.14
sg6
VTalk 2 U
p2743
sg8
F0.352072
sg9
F0.634
sg10
S'r_b'
p2744
sg12
F0.0929
sg13
VBrent Faiyaz
p2745
sg15
I9999
sg16
F0.688
sg17
Nsg18
F0.8259500000000001
sg19
Nsg20
Nsg21
F0.2163638256898374
sg22
F0.561
sg23
Nsg24
Nsg25
F0.000263
ssg26
I01
sg27
I01
sba(iSong
Song
p2746
(dp2747
g3
(dp2748
g5
F0.143
sg6
VWhile We're Young
p2749
sg8
F0.5123479999999999
sg9
F0.784
sg10
S'r_b'
p2750
sg12
F0.227
sg13
VJhene Aiko
p2751
sg15
I9999
sg16
F0.623
sg17
Nsg18
F0.8987833333333334
sg19
Nsg20
Nsg21
F0.2163638256898374
sg22
F0.821
sg23
Nsg24
Nsg25
F1.31e-06
ssg26
I01
sg27
I01
sba(iSong
Song
p2752
(dp2753
g3
(dp2754
g5
F0.74
sg6
VProvider
p2755
sg8
F0.5595439999999999
sg9
F0.325
sg10
S'r_b'
p2756
sg12
F0.282
sg13
VFrank Ocean
p2757
sg15
I9999
sg16
F0.654
sg17
Nsg18
F0.80125
sg19
Nsg20
Nsg21
F0.2163638256898374
sg22
F0.39
sg23
Nsg24
Nsg25
F2.14e-05
ssg26
I01
sg27
I01
sba(iSong
Song
p2758
(dp2759
g3
(dp2760
g5
F0.537
sg6
VInsecure
p2761
sg8
F0.355264
sg9
F0.511
sg10
S'r_b'
p2762
sg12
F0.324
sg13
VJazmine Sullivan
p2763
sg15
I9999
sg16
F0.512
sg17
Nsg18
F0.9264666666666667
sg19
Nsg20
Nsg21
F0.2163638256898374
sg22
F0.651
sg23
Nsg24
Nsg25
I0
ssg26
I01
sg27
I01
sba(iSong
Song
p2764
(dp2765
g3
(dp2766
g5
F0.808
sg6
VBest Part (feat. H.E.R.)
p2767
sg8
F0.30096
sg9
F0.364
sg10
S'r_b'
p2768
sg12
F0.0367
sg13
VDaniel Caesar
p2769
sg15
I9999
sg16
F0.524
sg17
Nsg18
F0.82985
sg19
Nsg20
Nsg21
F0.2163638256898374
sg22
F0.436
sg23
Nsg24
Nsg25
I0
ssg26
I01
sg27
I01
sba(iSong
Song
p2770
(dp2771
g3
(dp2772
g5
F0.616
sg6
VPrototype
p2773
sg8
F0.558868
sg9
F0.418
sg10
S'r_b'
p2774
sg12
F0.117
sg13
VKevin Ross
p2775
sg15
I9999
sg16
F0.706
sg17
Nsg18
F0.84445
sg19
Nsg20
Nsg21
F0.2163638256898374
sg22
F0.195
sg23
Nsg24
Nsg25
F2.04e-05
ssg26
I01
sg27
I01
sba(iSong
Song
p2776
(dp2777
g3
(dp2778
g5
F0.274
sg6
VBelong To You (feat. 6LACK) - Remix [Bonus Track]
p2779
sg8
F0.608304
sg9
F0.553
sg10
S'r_b'
p2780
sg12
F0.101
sg13
VSabrina Claudio
p2781
sg15
I9999
sg16
F0.605
sg17
Nsg18
F0.81925
sg19
Nsg20
Nsg21
F0.2163638256898374
sg22
F0.62
sg23
Nsg24
Nsg25
F0.0152
ssg26
I01
sg27
I01
sba(iSong
Song
p2782
(dp2783
g3
(dp2784
g5
F0.1
sg6
VDie For You
p2785
sg8
F0.533548
sg9
F0.513
sg10
S'r_b'
p2786
sg12
F0.07
sg13
VThe Weeknd
p2787
sg15
I9999
sg16
F0.585
sg17
Nsg18
F0.8812333333333334
sg19
Nsg20
Nsg21
F0.2163638256898374
sg22
F0.533
sg23
Nsg24
Nsg25
I0
ssg26
I01
sg27
I01
sba(iSong
Song
p2788
(dp2789
g3
(dp2790
g5
F0.186
sg6
VWhen We
p2791
sg8
F0.471324
sg9
F0.325
sg10
S'r_b'
p2792
sg12
F0.0794
sg13
VTank
p2793
sg15
I9999
sg16
F0.612
sg17
Nsg18
F0.8417166666666667
sg19
Nsg20
Nsg21
F0.2163638256898374
sg22
F0.0628
sg23
Nsg24
Nsg25
F1.06e-05
ssg26
I01
sg27
I01
sba(iSong
Song
p2794
(dp2795
g3
(dp2796
g5
F0.134
sg6
VCome Through and Chill
p2797
sg8
F0.342796
sg9
F0.591
sg10
S'r_b'
p2798
sg12
F0.0914
sg13
VSalaam Remi
p2799
sg15
I9999
sg16
F0.452
sg17
Nsg18
F0.8100833333333334
sg19
Nsg20
Nsg21
F0.2163638256898374
sg22
F0.5
sg23
Nsg24
Nsg25
F0.000603
ssg26
I01
sg27
I01
sba(iSong
Song
p2800
(dp2801
g3
(dp2802
g5
F0.318
sg6
VMood
p2803
sg8
F0.2754
sg9
F0.446
sg10
S'r_b'
p2804
sg12
F0.22
sg13
Vdvsn
p2805
sg15
I9999
sg16
F0.622
sg17
Nsg18
F0.8392166666666667
sg19
Nsg20
Nsg21
F0.2163638256898374
sg22
F0.168
sg23
Nsg24
Nsg25
F0.0135
ssg26
I01
sg27
I01
sba(iSong
Song
p2806
(dp2807
g3
(dp2808
g5
F0.107
sg6
VComplicated
p2809
sg8
F0.47345600000000004
sg9
F0.516
sg10
S'r_b'
p2810
sg12
F0.259
sg13
VMIKExANGEL
p2811
sg15
I9999
sg16
F0.577
sg17
Nsg18
F0.8730666666666667
sg19
Nsg20
Nsg21
F0.2163638256898374
sg22
F0.343
sg23
Nsg24
Nsg25
I0
ssg26
I01
sg27
I01
sba(iSong
Song
p2812
(dp2813
g3
(dp2814
g5
F0.365
sg6
VLoved By You
p2815
sg8
F0.27557600000000004
sg9
F0.481
sg10
S'r_b'
p2816
sg12
F0.128
sg13
VMali Music
p2817
sg15
I9999
sg16
F0.307
sg17
Nsg18
F0.8593
sg19
Nsg20
Nsg21
F0.2163638256898374
sg22
F0.329
sg23
Nsg24
Nsg25
I0
ssg26
I01
sg27
I01
sba(iSong
Song
p2818
(dp2819
g3
(dp2820
g5
F0.294
sg6
VTrouble With Us
p2821
sg8
F0.478764
sg9
F0.623
sg10
S'r_b'
p2822
sg12
F0.0517
sg13
VErnest K.
p2823
sg15
I9999
sg16
F0.647
sg17
Nsg18
F0.91245
sg19
Nsg20
Nsg21
F0.2163638256898374
sg22
F0.256
sg23
Nsg24
Nsg25
F3.71e-06
ssg26
I01
sg27
I01
sba(iSong
Song
p2824
(dp2825
g3
(dp2826
g5
F0.241
sg6
VThe Weekend
p2827
sg8
F0.272764
sg9
F0.366
sg10
S'r_b'
p2828
sg12
F0.0531
sg13
VSZA
p2829
sg15
I9999
sg16
F0.487
sg17
Nsg18
F0.8432499999999999
sg19
Nsg20
Nsg21
F0.2163638256898374
sg22
F0.161
sg23
Nsg24
Nsg25
I0
ssg26
I01
sg27
I01
sba(iSong
Song
p2830
(dp2831
g3
(dp2832
g5
F0.229
sg6
VIMAGINATION
p2833
sg8
F0.56816
sg9
F0.679
sg10
S'r_b'
p2834
sg12
F0.122
sg13
VAdrian Marcel
p2835
sg15
I9999
sg16
F0.663
sg17
Nsg18
F0.9233499999999999
sg19
Nsg20
Nsg21
F0.2163638256898374
sg22
F0.608
sg23
Nsg24
Nsg25
F7.89e-05
ssg26
I01
sg27
I01
sba(iSong
Song
p2836
(dp2837
g3
(dp2838
g5
F0.18
sg6
VFeel The Real (feat. Marsha Ambrosius)
p2839
sg8
F0.324124
sg9
F0.655
sg10
S'r_b'
p2840
sg12
F0.173
sg13
VMusiq Soulchild
p2841
sg15
I9999
sg16
F0.318
sg17
Nsg18
F0.8681833333333333
sg19
Nsg20
Nsg21
F0.2163638256898374
sg22
F0.761
sg23
Nsg24
Nsg25
I0
ssg26
I01
sg27
I01
sba(iSong
Song
p2842
(dp2843
g3
(dp2844
g5
F0.26
sg6
VTemperature
p2845
sg8
F0.421728
sg9
F0.572
sg10
S'r_b'
p2846
sg12
F0.246
sg13
VDevvon Terrell
p2847
sg15
I9999
sg16
F0.62
sg17
Nsg18
F0.8843833333333334
sg19
Nsg20
Nsg21
F0.2163638256898374
sg22
F0.522
sg23
Nsg24
Nsg25
I0
ssg26
I01
sg27
I01
sba(iSong
Song
p2848
(dp2849
g3
(dp2850
g5
F0.141
sg6
VUs 4ever
p2851
sg8
F0.32006799999999996
sg9
F0.521
sg10
S'r_b'
p2852
sg12
F0.0753
sg13
VLedisi
p2853
sg15
I9999
sg16
F0.678
sg17
Nsg18
F0.9113833333333333
sg19
Nsg20
Nsg21
F0.2163638256898374
sg22
F0.296
sg23
Nsg24
Nsg25
I0
ssg26
I01
sg27
I01
sba(iSong
Song
p2854
(dp2855
g3
(dp2856
g5
F0.542
sg6
VWanna Be Yours
p2857
sg8
F0.685216
sg9
F0.645
sg10
S'r_b'
p2858
sg12
F0.412
sg13
VGuordan Banks
p2859
sg15
I9999
sg16
F0.4
sg17
Nsg18
F0.8909333333333334
sg19
Nsg20
Nsg21
F0.2163638256898374
sg22
F0.672
sg23
Nsg24
Nsg25
F2.74e-05
ssg26
I01
sg27
I01
sba(iSong
Song
p2860
(dp2861
g3
(dp2862
g5
F0.554
sg6
VSet It Off
p2863
sg8
F0.583876
sg9
F0.507
sg10
S'r_b'
p2864
sg12
F0.178
sg13
VBryson Tiller
p2865
sg15
I9999
sg16
F0.538
sg17
Nsg18
F0.8302333333333334
sg19
Nsg20
Nsg21
F0.2163638256898374
sg22
F0.272
sg23
Nsg24
Nsg25
F1.05e-06
ssg26
I01
sg27
I01
sba(iSong
Song
p2866
(dp2867
g3
(dp2868
g5
F0.26
sg6
VChange On Me (feat. Leuca)
p2869
sg8
F0.5518959999999999
sg9
F0.485
sg10
S'r_b'
p2870
sg12
F0.134
sg13
VXavier Omr
p2871
sg15
I9999
sg16
F0.695
sg17
Nsg18
F0.8554833333333334
sg19
Nsg20
Nsg21
F0.2163638256898374
sg22
F0.352
sg23
Nsg24
Nsg25
I0
ssg26
I01
sg27
I01
sba(iSong
Song
p2872
(dp2873
g3
(dp2874
g5
F0.522
sg6
VEast Coast Hiding
p2875
sg8
F0.543956
sg9
F0.692
sg10
S'r_b'
p2876
sg12
F0.11
sg13
VDounia
p2877
sg15
I9999
sg16
F0.864
sg17
Nsg18
F0.9081333333333333
sg19
Nsg20
Nsg21
F0.2163638256898374
sg22
F0.343
sg23
Nsg24
Nsg25
F0.000209
ssg26
I01
sg27
I01
sba(iSong
Song
p2878
(dp2879
g3
(dp2880
g5
F0.194
sg6
VTrap or Die
p2881
sg8
F0.599712
sg9
F0.606
sg10
S'r_b'
p2882
sg12
F0.0393
sg13
VNSTASIA
p2883
sg15
I9999
sg16
F0.569
sg17
Nsg18
F0.8797999999999999
sg19
Nsg20
Nsg21
F0.2163638256898374
sg22
F0.198
sg23
Nsg24
Nsg25
F4.08e-06
ssg26
I01
sg27
I01
sba(iSong
Song
p2884
(dp2885
g3
(dp2886
g5
F0.155
sg6
VMake It Work
p2887
sg8
F0.69202
sg9
F0.634
sg10
S'r_b'
p2888
sg12
F0.281
sg13
VPrince Charlez
p2889
sg15
I9999
sg16
F0.685
sg17
Nsg18
F0.8823500000000001
sg19
Nsg20
Nsg21
F0.2163638256898374
sg22
F0.803
sg23
Nsg24
Nsg25
I0
ssg26
I01
sg27
I01
sba(iSong
Song
p2890
(dp2891
g3
(dp2892
g5
F0.63
sg6
VLights On
p2893
sg8
F0.47236399999999995
sg9
F0.407
sg10
S'r_b'
p2894
sg12
F0.0925
sg13
VH.E.R.
p2895
sg15
I9999
sg16
F0.71
sg17
Nsg18
F0.8430333333333333
sg19
Nsg20
Nsg21
F0.2163638256898374
sg22
F0.339
sg23
Nsg24
Nsg25
F0.000157
ssg26
I01
sg27
I01
sba(iSong
Song
p2896
(dp2897
g3
(dp2898
g5
F0.469
sg6
VGet Down
p2899
sg8
F0.371368
sg9
F0.62
sg10
S'r_b'
p2900
sg12
F0.0753
sg13
VTYuS
p2901
sg15
I9999
sg16
F0.573
sg17
Nsg18
F0.8234999999999999
sg19
Nsg20
Nsg21
F0.2163638256898374
sg22
F0.43
sg23
Nsg24
Nsg25
F6.41e-06
ssg26
I01
sg27
I01
sba(iSong
Song
p2902
(dp2903
g3
(dp2904
g5
F0.652
sg6
VGo Thru Your Phone
p2905
sg8
F0.678384
sg9
F0.403
sg10
S'r_b'
p2906
sg12
F0.214
sg13
VPJ Morton
p2907
sg15
I9999
sg16
F0.641
sg17
Nsg18
F0.7915666666666666
sg19
Nsg20
Nsg21
F0.2163638256898374
sg22
F0.599
sg23
Nsg24
Nsg25
I0
ssg26
I01
sg27
I01
sba(iSong
Song
p2908
(dp2909
g3
(dp2910
g5
F0.0596
sg6
VLuh Ya
p2911
sg8
F0.7204360000000001
sg9
F0.605
sg10
S'r_b'
p2912
sg12
F0.419
sg13
VMarsha Ambrosius
p2913
sg15
I9999
sg16
F0.49
sg17
Nsg18
F0.8539166666666667
sg19
Nsg20
Nsg21
F0.2163638256898374
sg22
F0.257
sg23
Nsg24
Nsg25
I0
ssg26
I01
sg27
I01
sba(iSong
Song
p2914
(dp2915
g3
(dp2916
g5
F0.414
sg6
VTerrified
p2917
sg8
F0.560164
sg9
F0.411
sg10
S'r_b'
p2918
sg12
F0.0548
sg13
VChildish Gambino
p2919
sg15
I9999
sg16
F0.466
sg17
Nsg18
F0.8184666666666668
sg19
Nsg20
Nsg21
F0.2163638256898374
sg22
F0.106
sg23
Nsg24
Nsg25
F0.528
ssg26
I01
sg27
I01
sba(iSong
Song
p2920
(dp2921
g3
(dp2922
g5
F0.0212
sg6
VDrip
p2923
sg8
F0.29196
sg9
F0.415
sg10
S'r_b'
p2924
sg12
F0.0415
sg13
VLuke James
p2925
sg15
I9999
sg16
F0.618
sg17
Nsg18
F0.9124833333333334
sg19
Nsg20
Nsg21
F0.2163638256898374
sg22
F0.429
sg23
Nsg24
Nsg25
F4.98e-06
ssg26
I01
sg27
I01
sba(iSong
Song
p2926
(dp2927
g3
(dp2928
g5
F0.134
sg6
VSupply Luh
p2929
sg8
F0.33169600000000005
sg9
F0.923
sg10
S'r_b'
p2930
sg12
F0.354
sg13
VChildish Major
p2931
sg15
I9999
sg16
F0.522
sg17
Nsg18
F0.90335
sg19
Nsg20
Nsg21
F0.2163638256898374
sg22
F0.744
sg23
Nsg24
Nsg25
F0.000104
ssg26
I01
sg27
I01
sba(iSong
Song
p2932
(dp2933
g3
(dp2934
g5
F0.165
sg6
VLove a Loser
p2935
sg8
F0.5642079999999999
sg9
F0.628
sg10
S'r_b'
p2936
sg12
F0.0861
sg13
VCassie
p2937
sg15
I9999
sg16
F0.73
sg17
Nsg18
F0.9149333333333334
sg19
Nsg20
Nsg21
F0.2163638256898374
sg22
F0.374
sg23
Nsg24
Nsg25
I0
ssg26
I01
sg27
I01
sba(iSong
Song
p2938
(dp2939
g3
(dp2940
g5
F0.0212
sg6
VDate
p2941
sg8
F0.623368
sg9
F0.639
sg10
S'r_b'
p2942
sg12
F0.0692
sg13
VTone Stith
p2943
sg15
I9999
sg16
F0.574
sg17
Nsg18
F0.8722666666666666
sg19
Nsg20
Nsg21
F0.2163638256898374
sg22
F0.668
sg23
Nsg24
Nsg25
I0
ssg26
I01
sg27
I01
sba(iSong
Song
p2944
(dp2945
g3
(dp2946
g5
F0.147
sg6
VIn The Name
p2947
sg8
F0.453952
sg9
F0.55
sg10
S'r_b'
p2948
sg12
F0.0586
sg13
VLeToya Luckett
p2949
sg15
I9999
sg16
F0.562
sg17
Nsg18
F0.9039333333333333
sg19
Nsg20
Nsg21
F0.2163638256898374
sg22
F0.25
sg23
Nsg24
Nsg25
I0
ssg26
I01
sg27
I01
sba(iSong
Song
p2950
(dp2951
g3
(dp2952
g5
F0.459
sg6
VRemember U
p2953
sg8
F0.5898519999999999
sg9
F0.622
sg10
S'r_b'
p2954
sg12
F0.0765
sg13
VMelanie Fiona
p2955
sg15
I9999
sg16
F0.394
sg17
Nsg18
F0.94045
sg19
Nsg20
Nsg21
F0.2163638256898374
sg22
F0.22
sg23
Nsg24
Nsg25
I0
ssg26
I01
sg27
I01
sba(iSong
Song
p2956
(dp2957
g3
(dp2958
g5
F0.516
sg6
VFeels Like
p2959
sg8
F0.544004
sg9
F0.362
sg10
S'r_b'
p2960
sg12
F0.0476
sg13
VNAO
p2961
sg15
I9999
sg16
F0.643
sg17
Nsg18
F0.8570166666666666
sg19
Nsg20
Nsg21
F0.2163638256898374
sg22
F0.56
sg23
Nsg24
Nsg25
F0.00523
ssg26
I01
sg27
I01
sba(iSong
Song
p2962
(dp2963
g3
(dp2964
g5
F0.0976
sg6
VDeep Water
p2965
sg8
F0.371952
sg9
F0.47
sg10
S'r_b'
p2966
sg12
F0.0734
sg13
VDrew Vision
p2967
sg15
I9999
sg16
F0.648
sg17
Nsg18
F0.7997166666666667
sg19
Nsg20
Nsg21
F0.2163638256898374
sg22
F0.415
sg23
Nsg24
Nsg25
I0
ssg26
I01
sg27
I01
sba(iSong
Song
p2968
(dp2969
g3
(dp2970
g5
F0.562
sg6
VDon't Go
p2971
sg8
F0.359632
sg9
F0.702
sg10
S'r_b'
p2972
sg12
F0.132
sg13
VKevin Ross
p2973
sg15
I9999
sg16
F0.604
sg17
Nsg18
F0.8585333333333334
sg19
Nsg20
Nsg21
F0.2163638256898374
sg22
F0.556
sg23
Nsg24
Nsg25
F6.37e-05
ssg26
I01
sg27
I01
sba(iSong
Song
p2974
(dp2975
g3
(dp2976
g5
F0.359
sg6
VBad Dream/No Looking Back
p2977
sg8
F0.394048
sg9
F0.253
sg10
S'r_b'
p2978
sg12
F0.0564
sg13
VSyd
p2979
sg15
I9999
sg16
F0.668
sg17
Nsg18
F0.7521333333333333
sg19
Nsg20
Nsg21
F0.2163638256898374
sg22
F0.142
sg23
Nsg24
Nsg25
F0.308
ssg26
I01
sg27
I01
sba(iSong
Song
p2980
(dp2981
g3
(dp2982
g5
F0.271
sg6
VDon't Choose
p2983
sg8
F0.560184
sg9
F0.335
sg10
S'r_b'
p2984
sg12
F0.325
sg13
Vdvsn
p2985
sg15
I9999
sg16
F0.603
sg17
Nsg18
F0.8364166666666667
sg19
Nsg20
Nsg21
F0.2163638256898374
sg22
F0.199
sg23
Nsg24
Nsg25
F0.0089
ssg26
I01
sg27
I01
sba(iSong
Song
p2986
(dp2987
g3
(dp2988
g5
F0.209
sg6
VBang Your Line (feat. Ty Dolla $ign)
p2989
sg8
F0.385752
sg9
F0.418
sg10
S'r_b'
p2990
sg12
F0.237
sg13
VELHAE
p2991
sg15
I9999
sg16
F0.62
sg17
Nsg18
F0.8478166666666667
sg19
Nsg20
Nsg21
F0.2163638256898374
sg22
F0.301
sg23
Nsg24
Nsg25
I0
ssg26
I01
sg27
I01
sba(iSong
Song
p2992
(dp2993
g3
(dp2994
g5
F0.427
sg6
VTeenage Fantasy
p2995
sg8
F0.703484
sg9
F0.795
sg10
S'r_b'
p2996
sg12
F0.423
sg13
VJorja Smith
p2997
sg15
I9999
sg16
F0.515
sg17
Nsg18
F0.8845
sg19
Nsg20
Nsg21
F0.2163638256898374
sg22
F0.452
sg23
Nsg24
Nsg25
F0.032
ssg26
I01
sg27
I01
sba(iSong
Song
p2998
(dp2999
g3
(dp3000
g5
F0.317
sg6
VKickin\u2019 Back
p3001
sg8
F0.460356
sg9
F0.661
sg10
S'r_b'
p3002
sg12
F0.0771
sg13
VMila J
p3003
sg15
I9999
sg16
F0.7
sg17
Nsg18
F0.8837666666666666
sg19
Nsg20
Nsg21
F0.2163638256898374
sg22
F0.522
sg23
Nsg24
Nsg25
I0
ssg26
I01
sg27
I01
sba(iSong
Song
p3004
(dp3005
g3
(dp3006
g5
F0.782
sg6
VF It Up
p3007
sg8
F0.322996
sg9
F0.396
sg10
S'r_b'
p3008
sg12
F0.115
sg13
VTank
p3009
sg15
I9999
sg16
F0.341
sg17
Nsg18
F0.8840833333333333
sg19
Nsg20
Nsg21
F0.2163638256898374
sg22
F0.0997
sg23
Nsg24
Nsg25
F1.4e-05
ssg26
I01
sg27
I01
sba(iSong
Song
p3010
(dp3011
g3
(dp3012
g5
F0.325
sg6
VFrustrated
p3013
sg8
F0.48830399999999996
sg9
F0.57
sg10
S'r_b'
p3014
sg12
F0.0599
sg13
VR.LUM.R
p3015
sg15
I9999
sg16
F0.4
sg17
Nsg18
F0.8969333333333334
sg19
Nsg20
Nsg21
F0.2163638256898374
sg22
F0.224
sg23
Nsg24
Nsg25
I0
ssg26
I01
sg27
I01
sba(iSong
Song
p3016
(dp3017
g3
(dp3018
g5
F0.62
sg6
VGuilty
p3019
sg8
F0.37105200000000005
sg9
F0.472
sg10
S'r_b'
p3020
sg12
F0.0583
sg13
VAaron Camper
p3021
sg15
I9999
sg16
F0.476
sg17
Nsg18
F0.8411500000000001
sg19
Nsg20
Nsg21
F0.2163638256898374
sg22
F0.423
sg23
Nsg24
Nsg25
I0
ssg26
I01
sg27
I01
sba(iSong
Song
p3022
(dp3023
g3
(dp3024
g5
F0.119
sg6
VLate Night Flex
p3025
sg8
F0.479784
sg9
F0.565
sg10
S'r_b'
p3026
sg12
F0.0484
sg13
VQuincy
p3027
sg15
I9999
sg16
F0.577
sg17
Nsg18
F0.8795666666666667
sg19
Nsg20
Nsg21
F0.2163638256898374
sg22
F0.374
sg23
Nsg24
Nsg25
I0
ssg26
I01
sg27
I01
sba(iSong
Song
p3028
(dp3029
g3
(dp3030
g5
F0.233
sg6
VPeople Get Up And Drive Your Funky Soul - Remix
p3031
sg8
F0.390772
sg9
F0.805
sg10
S'r_b'
p3032
sg12
F0.168
sg13
VJames Brown
p3033
sg15
I9999
sg16
F0.8
sg17
Nsg18
F0.9116666666666667
sg19
Nsg20
Nsg21
F0.2163638256898374
sg22
F0.809
sg23
Nsg24
Nsg25
F0.00236
ssg26
I01
sg27
I01
sba(iSong
Song
p3034
(dp3035
g3
(dp3036
g5
F0.0448
sg6
VSlippery When Wet
p3037
sg8
F0.408892
sg9
F0.877
sg10
S'r_b'
p3038
sg12
F0.107
sg13
VCommodores
p3039
sg15
I9999
sg16
F0.732
sg17
Nsg18
F0.8833
sg19
Nsg20
Nsg21
F0.2163638256898374
sg22
F0.931
sg23
Nsg24
Nsg25
F1.7e-05
ssg26
I01
sg27
I01
sba(iSong
Song
p3040
(dp3041
g3
(dp3042
g5
F0.566
sg6
VClean Up Woman
p3043
sg8
F0.36032400000000003
sg9
F0.652
sg10
S'r_b'
p3044
sg12
F0.143
sg13
VBetty Wright
p3045
sg15
I9999
sg16
F0.865
sg17
Nsg18
F0.8492333333333334
sg19
Nsg20
Nsg21
F0.2163638256898374
sg22
F0.829
sg23
Nsg24
Nsg25
F0.000919
ssg26
I01
sg27
I01
sba(iSong
Song
p3046
(dp3047
g3
(dp3048
g5
F0.125
sg6
VThe Jam
p3049
sg8
F0.431088
sg9
F0.83
sg10
S'r_b'
p3050
sg12
F0.0667
sg13
VGraham Central Station
p3051
sg15
I9999
sg16
F0.701
sg17
Nsg18
F0.8247166666666668
sg19
Nsg20
Nsg21
F0.2163638256898374
sg22
F0.648
sg23
Nsg24
Nsg25
F0.329
ssg26
I01
sg27
I01
sba(iSong
Song
p3052
(dp3053
g3
(dp3054
g5
F0.362
sg6
VThank You (Falettinme Be Mice Elf Agin) - single master
p3055
sg8
F0.42344
sg9
F0.765
sg10
S'r_b'
p3056
sg12
F0.0613
sg13
VSly & The Family Stone
p3057
sg15
I9999
sg16
F0.899
sg17
Nsg18
F0.8170833333333333
sg19
Nsg20
Nsg21
F0.2163638256898374
sg22
F0.932
sg23
Nsg24
Nsg25
F0.000232
ssg26
I01
sg27
I01
sba(iSong
Song
p3058
(dp3059
g3
(dp3060
g5
F0.0777
sg6
VIt's Your Thing
p3061
sg8
F0.741092
sg9
F0.682
sg10
S'r_b'
p3062
sg12
F0.124
sg13
VThe Isley Brothers
p3063
sg15
I9999
sg16
F0.378
sg17
Nsg18
F0.8295333333333333
sg19
Nsg20
Nsg21
F0.2163638256898374
sg22
F0.89
sg23
Nsg24
Nsg25
F2.83e-06
ssg26
I01
sg27
I01
sba(iSong
Song
p3064
(dp3065
g3
(dp3066
g5
F0.689
sg6
VTell Me Something Good
p3067
sg8
F0.29593200000000003
sg9
F0.407
sg10
S'r_b'
p3068
sg12
F0.235
sg13
VRufus
p3069
sg15
I9999
sg16
F0.72
sg17
Nsg18
F0.8480000000000001
sg19
Nsg20
Nsg21
F0.2163638256898374
sg22
F0.765
sg23
Nsg24
Nsg25
I0
ssg26
I01
sg27
I01
sba(iSong
Song
p3070
(dp3071
g3
(dp3072
g5
F0.0182
sg6
VSuperstition
p3073
sg8
F0.401748
sg9
F0.751
sg10
S'r_b'
p3074
sg12
F0.0806
sg13
VStevie Wonder
p3075
sg15
I9999
sg16
F0.648
sg17
Nsg18
F0.8569666666666667
sg19
Nsg20
Nsg21
F0.2163638256898374
sg22
F0.863
sg23
Nsg24
Nsg25
F0.000401
ssg26
I01
sg27
I01
sba(iSong
Song
p3076
(dp3077
g3
(dp3078
g5
F0.375
sg6
VFencewalk
p3079
sg8
F0.423348
sg9
F0.601
sg10
S'r_b'
p3080
sg12
F0.0634
sg13
VMandrill
p3081
sg15
I9999
sg16
F0.586
sg17
Nsg18
F0.8235666666666667
sg19
Nsg20
Nsg21
F0.2163638256898374
sg22
F0.963
sg23
Nsg24
Nsg25
F0.0355
ssg26
I01
sg27
I01
sba(iSong
Song
p3082
(dp3083
g3
(dp3084
g5
F0.228
sg6
VFire
p3085
sg8
F0.429224
sg9
F0.836
sg10
S'r_b'
p3086
sg12
F0.0785
sg13
VOhio Players
p3087
sg15
I9999
sg16
F0.623
sg17
Nsg18
F0.8271166666666667
sg19
Nsg20
Nsg21
F0.2163638256898374
sg22
F0.799
sg23
Nsg24
Nsg25
F0.0466
ssg26
I01
sg27
I01
sba(iSong
Song
p3088
(dp3089
g3
(dp3090
g5
F0.751
sg6
VP-Funk (Wants To Get Funked Up)
p3091
sg8
F0.350216
sg9
F0.455
sg10
S'r_b'
p3092
sg12
F0.215
sg13
VParliament
p3093
sg15
I9999
sg16
F0.661
sg17
Nsg18
F0.7891166666666667
sg19
Nsg20
Nsg21
F0.2163638256898374
sg22
F0.781
sg23
Nsg24
Nsg25
F1.06e-05
ssg26
I01
sg27
I01
sba(iSong
Song
p3094
(dp3095
g3
(dp3096
g5
F0.238
sg6
VI'd Rather Be With You
p3097
sg8
F0.671628
sg9
F0.566
sg10
S'r_b'
p3098
sg12
F0.335
sg13
VBootsy Collins
p3099
sg15
I9999
sg16
F0.477
sg17
Nsg18
F0.7954333333333333
sg19
Nsg20
Nsg21
F0.2163638256898374
sg22
F0.778
sg23
Nsg24
Nsg25
I0
ssg26
I01
sg27
I01
sba(iSong
Song
p3100
(dp3101
g3
(dp3102
g5
F0.224
sg6
VThe Cisco Kid
p3103
sg8
F0.567052
sg9
F0.84
sg10
S'r_b'
p3104
sg12
F0.115
sg13
VWar
p3105
sg15
I9999
sg16
F0.849
sg17
Nsg18
F0.8805999999999999
sg19
Nsg20
Nsg21
F0.2163638256898374
sg22
F0.96
sg23
Nsg24
Nsg25
F0.00671
ssg26
I01
sg27
I01
sba(iSong
Song
p3106
(dp3107
g3
(dp3108
g5
F0.0223
sg6
VMighty Mighty
p3109
sg8
F0.460292
sg9
F0.814
sg10
S'r_b'
p3110
sg12
F0.032
sg13
VEarth, Wind & Fire
p3111
sg15
I9999
sg16
F0.672
sg17
Nsg18
F0.8226333333333334
sg19
Nsg20
Nsg21
F0.2163638256898374
sg22
F0.968
sg23
Nsg24
Nsg25
F0.0411
ssg26
I01
sg27
I01
sba(iSong
Song
p3112
(dp3113
g3
(dp3114
g5
F0.148
sg6
VKeep It Hot - Edit
p3115
sg8
F0.418768
sg9
F0.694
sg10
S'r_b'
p3116
sg12
F0.127
sg13
VCameo
p3117
sg15
I9999
sg16
F0.942
sg17
Nsg18
F0.8692666666666666
sg19
Nsg20
Nsg21
F0.2163638256898374
sg22
F0.636
sg23
Nsg24
Nsg25
F0.00126
ssg26
I01
sg27
I01
sba(iSong
Song
p3118
(dp3119
g3
(dp3120
g5
F0.214
sg6
VHoly Ghost
p3121
sg8
F0.43097199999999997
sg9
F0.956
sg10
S'r_b'
p3122
sg12
F0.0709
sg13
VThe Bar-Kays
p3123
sg15
I9999
sg16
F0.7
sg17
Nsg18
F0.8731666666666666
sg19
Nsg20
Nsg21
F0.2163638256898374
sg22
F0.795
sg23
Nsg24
Nsg25
F0.747
ssg26
I01
sg27
I01
sba(iSong
Song
p3124
(dp3125
g3
(dp3126
g5
F0.013
sg6
VSlide
p3127
sg8
F0.463976
sg9
F0.898
sg10
S'r_b'
p3128
sg12
F0.0325
sg13
VSlave
p3129
sg15
I9999
sg16
F0.62
sg17
Nsg18
F0.8506333333333332
sg19
Nsg20
Nsg21
F0.2163638256898374
sg22
F0.909
sg23
Nsg24
Nsg25
F0.0957
ssg26
I01
sg27
I01
sba(iSong
Song
p3130
(dp3131
g3
(dp3132
g5
F0.339
sg6
VSmiling Faces Sometimes
p3133
sg8
F0.423632
sg9
F0.616
sg10
S'r_b'
p3134
sg12
F0.0273
sg13
VThe Undisputed Truth
p3135
sg15
I9999
sg16
F0.487
sg17
Nsg18
F0.8583166666666667
sg19
Nsg20
Nsg21
F0.2163638256898374
sg22
F0.652
sg23
Nsg24
Nsg25
I0
ssg26
I01
sg27
I01
sba(iSong
Song
p3136
(dp3137
g3
(dp3138
g5
F0.12
sg6
VLet It Whip
p3139
sg8
F0.52836
sg9
F0.886
sg10
S'r_b'
p3140
sg12
F0.0431
sg13
VDazz Band
p3141
sg15
I9999
sg16
F0.829
sg17
Nsg18
F0.9257333333333333
sg19
Nsg20
Nsg21
F0.2163638256898374
sg22
F0.928
sg23
Nsg24
Nsg25
F0.000376
ssg26
I01
sg27
I01
sba(iSong
Song
p3142
(dp3143
g3
(dp3144
g5
F0.112
sg6
VMore Bounce To The Ounce
p3145
sg8
F0.42103199999999996
sg9
F0.762
sg10
S'r_b'
p3146
sg12
F0.0814
sg13
VZapp
p3147
sg15
I9999
sg16
F0.856
sg17
Nsg18
F0.8259166666666666
sg19
Nsg20
Nsg21
F0.2163638256898374
sg22
F0.839
sg23
Nsg24
Nsg25
F0.00549
ssg26
I01
sg27
I01
sba(iSong
Song
p3148
(dp3149
g3
(dp3150
g5
F0.114
sg6
VCutie Pie
p3151
sg8
F0.40998
sg9
F0.535
sg10
S'r_b'
p3152
sg12
F0.056
sg13
VOne Way
p3153
sg15
I9999
sg16
F0.878
sg17
Nsg18
F0.8312
sg19
Nsg20
Nsg21
F0.2163638256898374
sg22
F0.958
sg23
Nsg24
Nsg25
F8.45e-06
ssg26
I01
sg27
I01
sba(iSong
Song
p3154
(dp3155
g3
(dp3156
g5
F0.106
sg6
VWho Is He (And What Is He to You?)
p3157
sg8
F0.397384
sg9
F0.317
sg10
S'r_b'
p3158
sg12
F0.0378
sg13
VBill Withers
p3159
sg15
I9999
sg16
F0.912
sg17
Nsg18
F0.7880166666666667
sg19
Nsg20
Nsg21
F0.2163638256898374
sg22
F0.945
sg23
Nsg24
Nsg25
F0.000208
ssg26
I01
sg27
I01
sba(iSong
Song
p3160
(dp3161
g3
(dp3162
g5
F0.229
sg6
VThe Payback - Part 1
p3163
sg8
F0.388724
sg9
F0.703
sg10
S'r_b'
p3164
sg12
F0.244
sg13
VJames Brown
p3165
sg15
I9999
sg16
F0.888
sg17
Nsg18
F0.8621333333333333
sg19
Nsg20
Nsg21
F0.2163638256898374
sg22
F0.75
sg23
Nsg24
Nsg25
F6.43e-05
ssg26
I01
sg27
I01
sba(iSong
Song
p3166
(dp3167
g3
(dp3168
g5
F0.0435
sg6
VI Can Understand It
p3169
sg8
F0.500308
sg9
F0.859
sg10
S'r_b'
p3170
sg12
F0.0875
sg13
VThe New Birth
p3171
sg15
I9999
sg16
F0.774
sg17
Nsg18
F0.8706833333333334
sg19
Nsg20
Nsg21
F0.2163638256898374
sg22
F0.826
sg23
Nsg24
Nsg25
I0
ssg26
I01
sg27
I01
sba(iSong
Song
p3172
(dp3173
g3
(dp3174
g5
F0.223
sg6
VFfun
p3175
sg8
F0.447452
sg9
F0.636
sg10
S'r_b'
p3176
sg12
F0.0858
sg13
VCon Funk Shun
p3177
sg15
I9999
sg16
F0.933
sg17
Nsg18
F0.8503000000000001
sg19
Nsg20
Nsg21
F0.2163638256898374
sg22
F0.872
sg23
Nsg24
Nsg25
F0.00487
ssg26
I01
sg27
I01
sba(iSong
Song
p3178
(dp3179
g3
(dp3180
g5
F0.259
sg6
VI Don't Believe You Want To Get Up And Dance (Oops Up Side Your Head)
p3181
sg8
F0.414956
sg9
F0.794
sg10
S'r_b'
p3182
sg12
F0.163
sg13
VThe Gap Band
p3183
sg15
I9999
sg16
F0.665
sg17
Nsg18
F0.8305
sg19
Nsg20
Nsg21
F0.2163638256898374
sg22
F0.856
sg23
Nsg24
Nsg25
F1.24e-06
ssg26
I01
sg27
I01
sba(iSong
Song
p3184
(dp3185
g3
(dp3186
g5
F0.0731
sg6
VMary Jane
p3187
sg8
F0.378584
sg9
F0.755
sg10
S'r_b'
p3188
sg12
F0.0857
sg13
VRick James
p3189
sg15
I9999
sg16
F0.575
sg17
Nsg18
F0.8533333333333334
sg19
Nsg20
Nsg21
F0.2163638256898374
sg22
F0.929
sg23
Nsg24
Nsg25
F4.34e-06
ssg26
I01
sg27
I01
sba(iSong
Song
p3190
(dp3191
g3
(dp3192
g5
F0.0928
sg6
VSchool Boy Crush
p3193
sg8
F0.6865800000000001
sg9
F0.588
sg10
S'r_b'
p3194
sg12
F0.0555
sg13
VAverage White Band
p3195
sg15
I9999
sg16
F0.581
sg17
Nsg18
F0.8755166666666666
sg19
Nsg20
Nsg21
F0.2163638256898374
sg22
F0.815
sg23
Nsg24
Nsg25
F0.0141
ssg26
I01
sg27
I01
sba(iSong
Song
p3196
(dp3197
g3
(dp3198
g5
F0.816
sg6
VBoogie Witcha, Baby
p3199
sg8
F0.706908
sg9
F0.639
sg10
S'r_b'
p3200
sg12
F0.0994
sg13
VLarry Graham
p3201
sg15
I9999
sg16
F0.703
sg17
Nsg18
F0.77885
sg19
Nsg20
Nsg21
F0.2163638256898374
sg22
F0.782
sg23
Nsg24
Nsg25
F0.414
ssg26
I01
sg27
I01
sba(iSong
Song
p3202
(dp3203
g3
(dp3204
g5
F0.167
sg6
VHyperbolicsyllablecsesquedalymistic - Album - Remaster
p3205
sg8
F0.720216
sg9
F0.491
sg10
S'r_b'
p3206
sg12
F0.0353
sg13
VIsaac Hayes
p3207
sg15
I9999
sg16
F0.569
sg17
Nsg18
F0.7997666666666667
sg19
Nsg20
Nsg21
F0.2163638256898374
sg22
F0.735
sg23
Nsg24
Nsg25
F0.03
ssg26
I01
sg27
I01
sba(iSong
Song
p3208
(dp3209
g3
(dp3210
g5
F0.228
sg6
VBustin' Loose
p3211
sg8
F0.445928
sg9
F0.938
sg10
S'r_b'
p3212
sg12
F0.0749
sg13
VChuck Brown and the Soul Searchers
p3213
sg15
I9999
sg16
F0.847
sg17
Nsg18
F0.92985
sg19
Nsg20
Nsg21
F0.2163638256898374
sg22
F0.922
sg23
Nsg24
Nsg25
F0.0226
ssg26
I01
sg27
I01
sba(iSong
Song
p3214
(dp3215
g3
(dp3216
g5
F0.436
sg6
VFunkin' for Jamaica
p3217
sg8
F0.444848
sg9
F0.776
sg10
S'r_b'
p3218
sg12
F0.217
sg13
VTom Browne
p3219
sg15
I9999
sg16
F0.854
sg17
Nsg18
F0.8358333333333333
sg19
Nsg20
Nsg21
F0.2163638256898374
sg22
F0.656
sg23
Nsg24
Nsg25
F0.175
ssg26
I01
sg27
I01
sba(iSong
Song
p3220
(dp3221
g3
(dp3222
g5
F0.0262
sg6
VYes We Can Can
p3223
sg8
F0.3598
sg9
F0.544
sg10
S'r_b'
p3224
sg12
F0.247
sg13
VThe Pointer Sisters
p3225
sg15
I9999
sg16
F0.786
sg17
Nsg18
F0.766
sg19
Nsg20
Nsg21
F0.2163638256898374
sg22
F0.81
sg23
Nsg24
Nsg25
F0.000874
ssg26
I01
sg27
I01
sba(iSong
Song
p3226
(dp3227
g3
(dp3228
g5
F0.156
sg6
VRock Me Again & Again & Again & Again & Again & Again - Single Version
p3229
sg8
F0.469676
sg9
F0.586
sg10
S'r_b'
p3230
sg12
F0.215
sg13
VLyn Collins
p3231
sg15
I9999
sg16
F0.799
sg17
Nsg18
F0.87395
sg19
Nsg20
Nsg21
F0.2163638256898374
sg22
F0.954
sg23
Nsg24
Nsg25
I0
ssg26
I01
sg27
I01
sba(iSong
Song
p3232
(dp3233
g3
(dp3234
g5
F0.414
sg6
VBootzilla
p3235
sg8
F0.414972
sg9
F0.908
sg10
S'r_b'
p3236
sg12
F0.111
sg13
VBootsy Collins
p3237
sg15
I9999
sg16
F0.789
sg17
Nsg18
F0.8878833333333332
sg19
Nsg20
Nsg21
F0.2163638256898374
sg22
F0.639
sg23
Nsg24
Nsg25
F3.2e-05
ssg26
I01
sg27
I01
sba(iSong
Song
p3238
(dp3239
g3
(dp3240
g5
F0.0702
sg6
VFight the Power - Pt. 1 & 2
p3241
sg8
F0.5057320000000001
sg9
F0.745
sg10
S'r_b'
p3242
sg12
F0.164
sg13
VThe Isley Brothers
p3243
sg15
I9999
sg16
F0.792
sg17
Nsg18
F0.8703333333333333
sg19
Nsg20
Nsg21
F0.2163638256898374
sg22
F0.755
sg23
Nsg24
Nsg25
F0.00664
ssg26
I01
sg27
I01
sba(iSong
Song
p3244
(dp3245
g3
(dp3246
g5
F0.0458
sg6
VJungle Boogie
p3247
sg8
F0.427448
sg9
F0.787
sg10
S'r_b'
p3248
sg12
F0.08
sg13
VKool & The Gang
p3249
sg15
I9999
sg16
F0.802
sg17
Nsg18
F0.8162333333333334
sg19
Nsg20
Nsg21
F0.2163638256898374
sg22
F0.716
sg23
Nsg24
Nsg25
F5.82e-05
ssg26
I01
sg27
I01
sba(iSong
Song
p3250
(dp3251
g3
(dp3252
g5
F0.122
sg6
VGetaway
p3253
sg8
F0.450544
sg9
F0.909
sg10
S'r_b'
p3254
sg12
F0.0416
sg13
VEarth, Wind & Fire
p3255
sg15
I9999
sg16
F0.727
sg17
Nsg18
F0.8646499999999999
sg19
Nsg20
Nsg21
F0.2163638256898374
sg22
F0.831
sg23
Nsg24
Nsg25
F0.0178
ssg26
I01
sg27
I01
sba(iSong
Song
p3256
(dp3257
g3
(dp3258
g5
F0.366
sg6
VDance Wit Me
p3259
sg8
F0.510952
sg9
F0.516
sg10
S'r_b'
p3260
sg12
F0.105
sg13
VRufus
p3261
sg15
I9999
sg16
F0.874
sg17
Nsg18
F0.7634833333333333
sg19
Nsg20
Nsg21
F0.2163638256898374
sg22
F0.9
sg23
Nsg24
Nsg25
F0.334
ssg26
I01
sg27
I01
sba(iSong
Song
p3262
(dp3263
g3
(dp3264
g5
F0.0157
sg6
VShake Your Rump To The Funk
p3265
sg8
F0.45380000000000004
sg9
F0.907
sg10
S'r_b'
p3266
sg12
F0.0377
sg13
VThe Bar-Kays
p3267
sg15
I9999
sg16
F0.726
sg17
Nsg18
F0.9066
sg19
Nsg20
Nsg21
F0.2163638256898374
sg22
F0.784
sg23
Nsg24
Nsg25
F2.47e-05
ssg26
I01
sg27
I01
sba(iSong
Song
p3268
(dp3269
g3
(dp3270
g5
F0.0519
sg6
VIt's Serious
p3271
sg8
F0.489536
sg9
F0.776
sg10
S'r_b'
p3272
sg12
F0.0353
sg13
VCameo
p3273
sg15
I9999
sg16
F0.861
sg17
Nsg18
F0.8824333333333333
sg19
Nsg20
Nsg21
F0.2163638256898374
sg22
F0.947
sg23
Nsg24
Nsg25
F0.358
ssg26
I01
sg27
I01
sba(iSong
Song
p3274
(dp3275
g3
(dp3276
g5
F0.0646
sg6
VShake
p3277
sg8
F0.402176
sg9
F0.705
sg10
S'r_b'
p3278
sg12
F0.0491
sg13
VThe Gap Band
p3279
sg15
I9999
sg16
F0.898
sg17
Nsg18
F0.8725833333333334
sg19
Nsg20
Nsg21
F0.2163638256898374
sg22
F0.754
sg23
Nsg24
Nsg25
F0.193
ssg26
I01
sg27
I01
sba(iSong
Song
p3280
(dp3281
g3
(dp3282
g5
F0.0839
sg6
VGive Up The Funk (Tear The Roof Off The Sucker)
p3283
sg8
F0.423164
sg9
F0.589
sg10
S'r_b'
p3284
sg12
F0.0381
sg13
VParliament
p3285
sg15
I9999
sg16
F0.742
sg17
Nsg18
F0.7702000000000001
sg19
Nsg20
Nsg21
F0.2163638256898374
sg22
F0.927
sg23
Nsg24
Nsg25
F0.000131
ssg26
I01
sg27
I01
sba(iSong
Song
p3286
(dp3287
g3
(dp3288
g5
F0.0286
sg6
VToo Hot To Stop (Part 1)
p3289
sg8
F0.40478800000000004
sg9
F0.848
sg10
S'r_b'
p3290
sg12
F0.129
sg13
VThe Bar-Kays
p3291
sg15
I9999
sg16
F0.751
sg17
Nsg18
F0.9285166666666667
sg19
Nsg20
Nsg21
F0.2163638256898374
sg22
F0.587
sg23
Nsg24
Nsg25
F0.0167
ssg26
I01
sg27
I01
sba(iSong
Song
p3292
(dp3293
g3
(dp3294
g5
F0.156
sg6
VIt's Party Time
p3295
sg8
F0.481812
sg9
F0.722
sg10
S'r_b'
p3296
sg12
F0.0289
sg13
VBobby Womack
p3297
sg15
I9999
sg16
F0.815
sg17
Nsg18
F0.8828666666666667
sg19
Nsg20
Nsg21
F0.2163638256898374
sg22
F0.964
sg23
Nsg24
Nsg25
F8.88e-05
ssg26
I01
sg27
I01
sba(iSong
Song
p3298
(dp3299
g3
(dp3300
g5
F0.424
sg6
VBoogie Down - Single Version
p3301
sg8
F0.461344
sg9
F0.614
sg10
S'r_b'
p3302
sg12
F0.0396
sg13
VEddie Kendricks
p3303
sg15
I9999
sg16
F0.789
sg17
Nsg18
F0.84125
sg19
Nsg20
Nsg21
F0.2163638256898374
sg22
F0.905
sg23
Nsg24
Nsg25
F0.347
ssg26
I01
sg27
I01
sba(iSong
Song
p3304
(dp3305
g3
(dp3306
g5
F0.087
sg6
VBrick House
p3307
sg8
F0.431712
sg9
F0.783
sg10
S'r_b'
p3308
sg12
F0.0666
sg13
VCommodores
p3309
sg15
I9999
sg16
F0.845
sg17
Nsg18
F0.825
sg19
Nsg20
Nsg21
F0.2163638256898374
sg22
F0.577
sg23
Nsg24
Nsg25
F0.00466
ssg26
I01
sg27
I01
sba(iSong
Song
p3310
(dp3311
g3
(dp3312
g5
F0.303
sg6
VGet The Funk Out Ma Face
p3313
sg8
F0.424272
sg9
F0.731
sg10
S'r_b'
p3314
sg12
F0.143
sg13
VThe Brothers Johnson
p3315
sg15
I9999
sg16
F0.919
sg17
Nsg18
F0.8753666666666666
sg19
Nsg20
Nsg21
F0.2163638256898374
sg22
F0.75
sg23
Nsg24
Nsg25
F0.0124
ssg26
I01
sg27
I01
sba(iSong
Song
p3316
(dp3317
g3
(dp3318
g5
F0.201
sg6
VGet Down On It - Single Version
p3319
sg8
F0.443488
sg9
F0.644
sg10
S'r_b'
p3320
sg12
F0.0581
sg13
VKool & The Gang
p3321
sg15
I9999
sg16
F0.879
sg17
Nsg18
F0.8934
sg19
Nsg20
Nsg21
F0.2163638256898374
sg22
F0.971
sg23
Nsg24
Nsg25
F0.000148
ssg26
I01
sg27
I01
sba(iSong
Song
p3322
(dp3323
g3
(dp3324
g5
F0.457
sg6
VSuperfly
p3325
sg8
F0.480436
sg9
F0.708
sg10
S'r_b'
p3326
sg12
F0.11
sg13
VCurtis Mayfield
p3327
sg15
I9999
sg16
F0.784
sg17
Nsg18
F0.84765
sg19
Nsg20
Nsg21
F0.2163638256898374
sg22
F0.749
sg23
Nsg24
Nsg25
F7.5e-05
ssg26
I01
sg27
I01
sba.