(lp0
(iSong
Song
p1
(dp2
S'attributes'
p3
(dp4
S'accousticness'
p5
F0.0986
sS'title'
p6
VMiss Fatty
p7
sS'tempo'
p8
F0.4372
sS'energy'
p9
F0.479
sS'from_playlist'
p10
S'raggae'
p11
sS'speechiness'
p12
F0.289
sS'artist_name'
p13
VMillion Stylez
p14
sS'cluster_id'
p15
I9999
sS'danceability'
p16
F0.943
sS'end_of_fade_in'
p17
NsS'loudness'
p18
F0.8971333333333333
sS'duration'
p19
NsS'artist_familiarity'
p20
NsS'rec_value'
p21
F0.23193278785871738
sS'valence'
p22
F0.921
sS'start_of_fade_out'
p23
NsS'artist_hotness'
p24
NsS'instrumentalness'
p25
I0
ssS'isNormalized'
p26
I01
sS'hasData'
p27
I01
sba(iSong
Song
p28
(dp29
g3
(dp30
g5
F0.281
sg6
VKontrol
p31
sg8
F0.455972
sg9
F0.521
sg10
S'raggae'
p32
sg12
F0.0512
sg13
VMaleek Berry
p33
sg15
I9999
sg16
F0.868
sg17
Nsg18
F0.8849666666666667
sg19
Nsg20
Nsg21
F0.23193278785871738
sg22
F0.886
sg23
Nsg24
Nsg25
F6.36e-05
ssg26
I01
sg27
I01
sba(iSong
Song
p34
(dp35
g3
(dp36
g5
F0.534
sg6
VYour Number
p37
sg8
F0.399704
sg9
F0.61
sg10
S'raggae'
p38
sg12
F0.234
sg13
VAyo Jay
p39
sg15
I9999
sg16
F0.588
sg17
Nsg18
F0.9165333333333333
sg19
Nsg20
Nsg21
F0.23193278785871738
sg22
F0.645
sg23
Nsg24
Nsg25
I0
ssg26
I01
sg27
I01
sba(iSong
Song
p40
(dp41
g3
(dp42
g5
F0.00117
sg6
VCan't Believe (feat. Ty Dolla $ign & WizKid)
p43
sg8
F0.39984800000000004
sg9
F0.764
sg10
S'raggae'
p44
sg12
F0.0843
sg13
VKranium
p45
sg15
I9999
sg16
F0.725
sg17
Nsg18
F0.91845
sg19
Nsg20
Nsg21
F0.23193278785871738
sg22
F0.611
sg23
Nsg24
Nsg25
F8.93e-06
ssg26
I01
sg27
I01
sba(iSong
Song
p46
(dp47
g3
(dp48
g5
F0.0278
sg6
VLUV - Remix
p49
sg8
F0.38012799999999997
sg9
F0.558
sg10
S'raggae'
p50
sg12
F0.252
sg13
VTory Lanez
p51
sg15
I9999
sg16
F0.677
sg17
Nsg18
F0.8729666666666667
sg19
Nsg20
Nsg21
F0.23193278785871738
sg22
F0.564
sg23
Nsg24
Nsg25
I0
ssg26
I01
sg27
I01
sba(iSong
Song
p52
(dp53
g3
(dp54
g5
F0.0272
sg6
VGyal You A Party Animal
p55
sg8
F0.5154160000000001
sg9
F0.838
sg10
S'raggae'
p56
sg12
F0.0996
sg13
VCharly Black
p57
sg15
I9999
sg16
F0.599
sg17
Nsg18
F0.914
sg19
Nsg20
Nsg21
F0.23193278785871738
sg22
F0.847
sg23
Nsg24
Nsg25
I0
ssg26
I01
sg27
I01
sba(iSong
Song
p58
(dp59
g3
(dp60
g5
F0.139
sg6
VFever
p61
sg8
F0.392372
sg9
F0.62
sg10
S'raggae'
p62
sg12
F0.244
sg13
VVybz Kartel
p63
sg15
I9999
sg16
F0.891
sg17
Nsg18
F0.8756166666666666
sg19
Nsg20
Nsg21
F0.23193278785871738
sg22
F0.404
sg23
Nsg24
Nsg25
F1.61e-05
ssg26
I01
sg27
I01
sba(iSong
Song
p64
(dp65
g3
(dp66
g5
F0.337
sg6
VHold You
p67
sg8
F0.5331480000000001
sg9
F0.643
sg10
S'raggae'
p68
sg12
F0.0518
sg13
VGyptian
p69
sg15
I9999
sg16
F0.64
sg17
Nsg18
F0.9480333333333333
sg19
Nsg20
Nsg21
F0.23193278785871738
sg22
F0.503
sg23
Nsg24
Nsg25
I0
ssg26
I01
sg27
I01
sba(iSong
Song
p70
(dp71
g3
(dp72
g5
F0.448
sg6
VPull Up to Mi Bumper
p73
sg8
F0.847832
sg9
F0.683
sg10
S'raggae'
p74
sg12
F0.464
sg13
VKonshens
p75
sg15
I9999
sg16
F0.599
sg17
Nsg18
F0.9364666666666667
sg19
Nsg20
Nsg21
F0.23193278785871738
sg22
F0.75
sg23
Nsg24
Nsg25
I0
ssg26
I01
sg27
I01
sba(iSong
Song
p76
(dp77
g3
(dp78
g5
F0.0808
sg6
VMillion Pound Girl (Badder Than Bad) - Edit
p79
sg8
F0.799548
sg9
F0.938
sg10
S'raggae'
p80
sg12
F0.076
sg13
VFuse ODG
p81
sg15
I9999
sg16
F0.605
sg17
Nsg18
F0.98005
sg19
Nsg20
Nsg21
F0.23193278785871738
sg22
F0.734
sg23
Nsg24
Nsg25
I0
ssg26
I01
sg27
I01
sba(iSong
Song
p82
(dp83
g3
(dp84
g5
F0.104
sg6
VOva Dweet
p85
sg8
F0.411032
sg9
F0.699
sg10
S'raggae'
p86
sg12
F0.3
sg13
VPopcaan
p87
sg15
I9999
sg16
F0.638
sg17
Nsg18
F0.91835
sg19
Nsg20
Nsg21
F0.23193278785871738
sg22
F0.597
sg23
Nsg24
Nsg25
I0
ssg26
I01
sg27
I01
sba(iSong
Song
p88
(dp89
g3
(dp90
g5
F0.191
sg6
VBruk Off Yuh Back
p91
sg8
F0.40374
sg9
F0.882
sg10
S'raggae'
p92
sg12
F0.173
sg13
VKonshens
p93
sg15
I9999
sg16
F0.834
sg17
Nsg18
F0.9572833333333333
sg19
Nsg20
Nsg21
F0.23193278785871738
sg22
F0.963
sg23
Nsg24
Nsg25
I0
ssg26
I01
sg27
I01
sba(iSong
Song
p94
(dp95
g3
(dp96
g5
F0.0654
sg6
VWhine & Kotch - Raw
p97
sg8
F0.420604
sg9
F0.675
sg10
S'raggae'
p98
sg12
F0.387
sg13
VCharly Black
p99
sg15
I9999
sg16
F0.699
sg17
Nsg18
F0.9102833333333333
sg19
Nsg20
Nsg21
F0.23193278785871738
sg22
F0.442
sg23
Nsg24
Nsg25
I0
ssg26
I01
sg27
I01
sba(iSong
Song
p100
(dp101
g3
(dp102
g5
F0.0382
sg6
VSo Mi Like It
p103
sg8
F0.360508
sg9
F0.694
sg10
S'raggae'
p104
sg12
F0.331
sg13
VSpice
p105
sg15
I9999
sg16
F0.812
sg17
Nsg18
F0.9347833333333334
sg19
Nsg20
Nsg21
F0.23193278785871738
sg22
F0.861
sg23
Nsg24
Nsg25
I0
ssg26
I01
sg27
I01
sba(iSong
Song
p106
(dp107
g3
(dp108
g5
F0.000755
sg6
VNo Games
p109
sg8
F0.743116
sg9
F0.79
sg10
S'raggae'
p110
sg12
F0.284
sg13
VSerani
p111
sg15
I9999
sg16
F0.741
sg17
Nsg18
F0.9157333333333334
sg19
Nsg20
Nsg21
F0.23193278785871738
sg22
F0.806
sg23
Nsg24
Nsg25
I0
ssg26
I01
sg27
I01
sba(iSong
Song
p112
(dp113
g3
(dp114
g5
F0.145
sg6
VGal a Bubble
p115
sg8
F0.400336
sg9
F0.731
sg10
S'raggae'
p116
sg12
F0.349
sg13
VKonshens
p117
sg15
I9999
sg16
F0.827
sg17
Nsg18
F0.87525
sg19
Nsg20
Nsg21
F0.23193278785871738
sg22
F0.665
sg23
Nsg24
Nsg25
F3.16e-05
ssg26
I01
sg27
I01
sba(iSong
Song
p118
(dp119
g3
(dp120
g5
F0.42
sg6
VWe Can (feat. Tory Lanez)
p121
sg8
F0.53106
sg9
F0.618
sg10
S'raggae'
p122
sg12
F0.32
sg13
VKranium
p123
sg15
I9999
sg16
F0.552
sg17
Nsg18
F0.8873833333333334
sg19
Nsg20
Nsg21
F0.23193278785871738
sg22
F0.399
sg23
Nsg24
Nsg25
I0
ssg26
I01
sg27
I01
sba(iSong
Song
p124
(dp125
g3
(dp126
g5
F0.262
sg6
VNuttin Nuh Go So
p127
sg8
F0.391552
sg9
F0.806
sg10
S'raggae'
p128
sg12
F0.115
sg13
VNotch
p129
sg15
I9999
sg16
F0.752
sg17
Nsg18
F0.9175333333333333
sg19
Nsg20
Nsg21
F0.23193278785871738
sg22
F0.763
sg23
Nsg24
Nsg25
I0
ssg26
I01
sg27
I01
sba(iSong
Song
p130
(dp131
g3
(dp132
g5
F0.061
sg6
VTempted To Touch
p133
sg8
F0.423952
sg9
F0.825
sg10
S'raggae'
p134
sg12
F0.0549
sg13
VRupee
p135
sg15
I9999
sg16
F0.819
sg17
Nsg18
F0.8831333333333333
sg19
Nsg20
Nsg21
F0.23193278785871738
sg22
F0.939
sg23
Nsg24
Nsg25
I0
ssg26
I01
sg27
I01
sba(iSong
Song
p136
(dp137
g3
(dp138
g5
F0.0886
sg6
VClarks
p139
sg8
F0.407488
sg9
F0.802
sg10
S'raggae'
p140
sg12
F0.373
sg13
VVybz Kartel
p141
sg15
I9999
sg16
F0.631
sg17
Nsg18
F0.9114
sg19
Nsg20
Nsg21
F0.23193278785871738
sg22
F0.772
sg23
Nsg24
Nsg25
I0
ssg26
I01
sg27
I01
sba(iSong
Song
p142
(dp143
g3
(dp144
g5
F0.00815
sg6
VMek It Bunx Up
p145
sg8
F0.39999599999999996
sg9
F0.806
sg10
S'raggae'
p146
sg12
F0.296
sg13
VDeeWunn
p147
sg15
I9999
sg16
F0.947
sg17
Nsg18
F0.9301499999999999
sg19
Nsg20
Nsg21
F0.23193278785871738
sg22
F0.634
sg23
Nsg24
Nsg25
I0
ssg26
I01
sg27
I01
sba(iSong
Song
p148
(dp149
g3
(dp150
g5
F0.0139
sg6
VRomping Shop
p151
sg8
F0.34386
sg9
F0.721
sg10
S'raggae'
p152
sg12
F0.188
sg13
VVybz Kartel
p153
sg15
I9999
sg16
F0.607
sg17
Nsg18
F0.9241833333333334
sg19
Nsg20
Nsg21
F0.23193278785871738
sg22
F0.414
sg23
Nsg24
Nsg25
I0
ssg26
I01
sg27
I01
sba(iSong
Song
p154
(dp155
g3
(dp156
g5
F0.0246
sg6
VParty Animal
p157
sg8
F0.404024
sg9
F0.867
sg10
S'raggae'
p158
sg12
F0.0497
sg13
VCharly Black
p159
sg15
I9999
sg16
F0.721
sg17
Nsg18
F0.9347333333333334
sg19
Nsg20
Nsg21
F0.23193278785871738
sg22
F0.823
sg23
Nsg24
Nsg25
I0
ssg26
I01
sg27
I01
sba(iSong
Song
p160
(dp161
g3
(dp162
g5
F0.316
sg6
VPana
p163
sg8
F0.800264
sg9
F0.544
sg10
S'raggae'
p164
sg12
F0.328
sg13
VTekno
p165
sg15
I9999
sg16
F0.552
sg17
Nsg18
F0.8768666666666667
sg19
Nsg20
Nsg21
F0.23193278785871738
sg22
F0.685
sg23
Nsg24
Nsg25
F0.0309
ssg26
I01
sg27
I01
sba(iSong
Song
p166
(dp167
g3
(dp168
g5
F0.105
sg6
VRun Up (feat. PARTYNEXTDOOR & Nicki Minaj)
p169
sg8
F0.43201999999999996
sg9
F0.743
sg10
S'raggae'
p170
sg12
F0.0681
sg13
VMajor Lazer
p171
sg15
I9999
sg16
F0.803
sg17
Nsg18
F0.9399666666666667
sg19
Nsg20
Nsg21
F0.23193278785871738
sg22
F0.674
sg23
Nsg24
Nsg25
F2.12e-06
ssg26
I01
sg27
I01
sba(iSong
Song
p172
(dp173
g3
(dp174
g5
F0.0202
sg6
VWatch Out For This (Bumaye) [feat. Busy Signal, The Flexican & FS Green] - feat. Busy Signal, The Flexican & FS Green
p175
sg8
F0.432224
sg9
F0.755
sg10
S'raggae'
p176
sg12
F0.156
sg13
VMajor Lazer
p177
sg15
I9999
sg16
F0.828
sg17
Nsg18
F0.9314
sg19
Nsg20
Nsg21
F0.23193278785871738
sg22
F0.862
sg23
Nsg24
Nsg25
F9.61e-06
ssg26
I01
sg27
I01
sba(iSong
Song
p178
(dp179
g3
(dp180
g5
F0.693
sg6
VWine Slow
p181
sg8
F0.47938
sg9
F0.557
sg10
S'raggae'
p182
sg12
F0.286
sg13
VGyptian
p183
sg15
I9999
sg16
F0.615
sg17
Nsg18
F0.8550333333333333
sg19
Nsg20
Nsg21
F0.23193278785871738
sg22
F0.425
sg23
Nsg24
Nsg25
I0
ssg26
I01
sg27
I01
sba(iSong
Song
p184
(dp185
g3
(dp186
g5
F0.235
sg6
VYuh Love
p187
sg8
F0.487024
sg9
F0.575
sg10
S'raggae'
p188
sg12
F0.325
sg13
VVybz Kartel
p189
sg15
I9999
sg16
F0.632
sg17
Nsg18
F0.8458333333333333
sg19
Nsg20
Nsg21
F0.23193278785871738
sg22
F0.733
sg23
Nsg24
Nsg25
I0
ssg26
I01
sg27
I01
sba(iSong
Song
p190
(dp191
g3
(dp192
g5
F0.111
sg6
VDude
p193
sg8
F0.37602800000000003
sg9
F0.653
sg10
S'raggae'
p194
sg12
F0.236
sg13
VBeenie Man
p195
sg15
I9999
sg16
F0.71
sg17
Nsg18
F0.8615833333333334
sg19
Nsg20
Nsg21
F0.23193278785871738
sg22
F0.943
sg23
Nsg24
Nsg25
I0
ssg26
I01
sg27
I01
sba(iSong
Song
p196
(dp197
g3
(dp198
g5
F0.378
sg6
VLove Yuh Everything
p199
sg8
F0.40067200000000003
sg9
F0.733
sg10
S'raggae'
p200
sg12
F0.124
sg13
VAlkaline
p201
sg15
I9999
sg16
F0.746
sg17
Nsg18
F0.8937333333333334
sg19
Nsg20
Nsg21
F0.23193278785871738
sg22
F0.539
sg23
Nsg24
Nsg25
I0
ssg26
I01
sg27
I01
sba(iSong
Song
p202
(dp203
g3
(dp204
g5
F0.0257
sg6
VMamacita
p205
sg8
F0.413448
sg9
F0.841
sg10
S'raggae'
p206
sg12
F0.106
sg13
VCollie Buddz
p207
sg15
I9999
sg16
F0.593
sg17
Nsg18
F0.9102166666666667
sg19
Nsg20
Nsg21
F0.23193278785871738
sg22
F0.779
sg23
Nsg24
Nsg25
I0
ssg26
I01
sg27
I01
sba(iSong
Song
p208
(dp209
g3
(dp210
g5
F0.00168
sg6
VNobody Has To Know
p211
sg8
F0.339932
sg9
F0.682
sg10
S'raggae'
p212
sg12
F0.173
sg13
VKranium
p213
sg15
I9999
sg16
F0.792
sg17
Nsg18
F0.9173333333333333
sg19
Nsg20
Nsg21
F0.23193278785871738
sg22
F0.666
sg23
Nsg24
Nsg25
I0
ssg26
I01
sg27
I01
sba(iSong
Song
p214
(dp215
g3
(dp216
g5
F0.026
sg6
VCome Again
p217
sg8
F0.416676
sg9
F0.762
sg10
S'raggae'
p218
sg12
F0.141
sg13
VDJ Katch
p219
sg15
I9999
sg16
F0.785
sg17
Nsg18
F0.9007000000000001
sg19
Nsg20
Nsg21
F0.23193278785871738
sg22
F0.331
sg23
Nsg24
Nsg25
I0
ssg26
I01
sg27
I01
sba(iSong
Song
p220
(dp221
g3
(dp222
g5
F0.347
sg6
VBody
p223
sg8
F0.269048
sg9
F0.795
sg10
S'raggae'
p224
sg12
F0.326
sg13
VSean Paul
p225
sg15
I9999
sg16
F0.494
sg17
Nsg18
F0.9417500000000001
sg19
Nsg20
Nsg21
F0.23193278785871738
sg22
F0.441
sg23
Nsg24
Nsg25
I0
ssg26
I01
sg27
I01
sba(iSong
Song
p226
(dp227
g3
(dp228
g5
F0.124
sg6
VBad Yuh Bad
p229
sg8
F0.42315600000000003
sg9
F0.703
sg10
S'raggae'
p230
sg12
F0.176
sg13
VPopcaan
p231
sg15
I9999
sg16
F0.587
sg17
Nsg18
F0.8714999999999999
sg19
Nsg20
Nsg21
F0.23193278785871738
sg22
F0.736
sg23
Nsg24
Nsg25
I0
ssg26
I01
sg27
I01
sba(iSong
Song
p232
(dp233
g3
(dp234
g5
F0.0422
sg6
VBunny
p235
sg8
F0.40338799999999997
sg9
F0.708
sg10
S'raggae'
p236
sg12
F0.393
sg13
VMyssa More
p237
sg15
I9999
sg16
F0.787
sg17
Nsg18
F0.8954166666666666
sg19
Nsg20
Nsg21
F0.23193278785871738
sg22
F0.761
sg23
Nsg24
Nsg25
I0
ssg26
I01
sg27
I01
sba(iSong
Song
p238
(dp239
g3
(dp240
g5
F0.0873
sg6
VControlla
p241
sg8
F0.36930399999999997
sg9
F0.478
sg10
S'raggae'
p242
sg12
F0.287
sg13
VDrake
p243
sg15
I9999
sg16
F0.545
sg17
Nsg18
F0.8155666666666667
sg19
Nsg20
Nsg21
F0.23193278785871738
sg22
F0.317
sg23
Nsg24
Nsg25
I0
ssg26
I01
sg27
I01
sba(iSong
Song
p244
(dp245
g3
(dp246
g5
F0.0826
sg6
VBreadman
p247
sg8
F0.49484
sg9
F0.782
sg10
S'raggae'
p248
sg12
F0.367
sg13
VStylo G
p249
sg15
I9999
sg16
F0.717
sg17
Nsg18
F0.9364
sg19
Nsg20
Nsg21
F0.23193278785871738
sg22
F0.633
sg23
Nsg24
Nsg25
I0
ssg26
I01
sg27
I01
sba(iSong
Song
p250
(dp251
g3
(dp252
g5
F0.0143
sg6
VGive It All To Me
p253
sg8
F0.251928
sg9
F0.71
sg10
S'raggae'
p254
sg12
F0.425
sg13
VMavado
p255
sg15
I9999
sg16
F0.409
sg17
Nsg18
F0.90705
sg19
Nsg20
Nsg21
F0.23193278785871738
sg22
F0.408
sg23
Nsg24
Nsg25
I0
ssg26
I01
sg27
I01
sba(iSong
Song
p256
(dp257
g3
(dp258
g5
F0.51
sg6
VBlackberry (Remastered)
p259
sg8
F0.419904
sg9
F0.835
sg10
S'raggae'
p260
sg12
F0.251
sg13
VVybz Kartel
p261
sg15
I9999
sg16
F0.834
sg17
Nsg18
F0.8964666666666666
sg19
Nsg20
Nsg21
F0.23193278785871738
sg22
F0.693
sg23
Nsg24
Nsg25
I0
ssg26
I01
sg27
I01
sba(iSong
Song
p262
(dp263
g3
(dp264
g5
F0.0841
sg6
VCalling
p265
sg8
F0.50152
sg9
F0.688
sg10
S'raggae'
p266
sg12
F0.199
sg13
VK'More
p267
sg15
I9999
sg16
F0.532
sg17
Nsg18
F0.9139
sg19
Nsg20
Nsg21
F0.23193278785871738
sg22
F0.584
sg23
Nsg24
Nsg25
I0
ssg26
I01
sg27
I01
sba(iSong
Song
p268
(dp269
g3
(dp270
g5
F0.288
sg6
VYou're Perfect
p271
sg8
F0.419648
sg9
F0.858
sg10
S'raggae'
p272
sg12
F0.25
sg13
VCharly Black
p273
sg15
I9999
sg16
F0.809
sg17
Nsg18
F0.9452
sg19
Nsg20
Nsg21
F0.23193278785871738
sg22
F0.803
sg23
Nsg24
Nsg25
I0
ssg26
I01
sg27
I01
sba(iSong
Song
p274
(dp275
g3
(dp276
g5
F0.16
sg6
VDutty Wine
p277
sg8
F0.6261639999999999
sg9
F0.918
sg10
S'raggae'
p278
sg12
F0.359
sg13
VTony Matterhorn
p279
sg15
I9999
sg16
F0.497
sg17
Nsg18
F0.9169833333333333
sg19
Nsg20
Nsg21
F0.23193278785871738
sg22
F0.93
sg23
Nsg24
Nsg25
I0
ssg26
I01
sg27
I01
sba(iSong
Song
p280
(dp281
g3
(dp282
g5
F0.0469
sg6
VNobody Has To Know (feat. Ty Dolla $ign) - Major Lazer and KickRaux Remix
p283
sg8
F0.41198
sg9
F0.79
sg10
S'raggae'
p284
sg12
F0.161
sg13
VKranium
p285
sg15
I9999
sg16
F0.681
sg17
Nsg18
F0.9057666666666667
sg19
Nsg20
Nsg21
F0.23193278785871738
sg22
F0.627
sg23
Nsg24
Nsg25
I0
ssg26
I01
sg27
I01
sba(iSong
Song
p286
(dp287
g3
(dp288
g5
F0.611
sg6
VExtra Lesson Remix (feat. Kojo Funds & Chip)
p289
sg8
F0.401652
sg9
F0.547
sg10
S'raggae'
p290
sg12
F0.29
sg13
VAlkaline
p291
sg15
I9999
sg16
F0.764
sg17
Nsg18
F0.8934166666666667
sg19
Nsg20
Nsg21
F0.23193278785871738
sg22
F0.766
sg23
Nsg24
Nsg25
I0
ssg26
I01
sg27
I01
sba(iSong
Song
p292
(dp293
g3
(dp294
g5
F0.0956
sg6
VDancehall Girl (feat. Shatta Wale)
p295
sg8
F0.426344
sg9
F0.831
sg10
S'raggae'
p296
sg12
F0.322
sg13
VEpik Jones
p297
sg15
I9999
sg16
F0.817
sg17
Nsg18
F0.8977333333333333
sg19
Nsg20
Nsg21
F0.23193278785871738
sg22
F0.841
sg23
Nsg24
Nsg25
I0
ssg26
I01
sg27
I01
sba(iSong
Song
p298
(dp299
g3
(dp300
g5
F0.416
sg6
VAddicted
p301
sg8
F0.523092
sg9
F0.645
sg10
S'raggae'
p302
sg12
F0.174
sg13
VPopcaan
p303
sg15
I9999
sg16
F0.533
sg17
Nsg18
F0.9010166666666667
sg19
Nsg20
Nsg21
F0.23193278785871738
sg22
F0.531
sg23
Nsg24
Nsg25
I0
ssg26
I01
sg27
I01
sba(iSong
Song
p304
(dp305
g3
(dp306
g5
F0.0406
sg6
VFeelin U
p307
sg8
F0.505696
sg9
F0.651
sg10
S'raggae'
p308
sg12
F0.137
sg13
VKickRaux
p309
sg15
I9999
sg16
F0.559
sg17
Nsg18
F0.8739166666666667
sg19
Nsg20
Nsg21
F0.23193278785871738
sg22
F0.498
sg23
Nsg24
Nsg25
I0
ssg26
I01
sg27
I01
sba(iSong
Song
p310
(dp311
g3
(dp312
g5
F0.116
sg6
VOne Wine
p313
sg8
F0.783216
sg9
F0.944
sg10
S'raggae'
p314
sg12
F0.148
sg13
VMachel Montano
p315
sg15
I9999
sg16
F0.502
sg17
Nsg18
F0.9686
sg19
Nsg20
Nsg21
F0.23193278785871738
sg22
F0.899
sg23
Nsg24
Nsg25
I0
ssg26
I01
sg27
I01
sba(iSong
Song
p316
(dp317
g3
(dp318
g5
F0.175
sg6
VLiving the Life
p319
sg8
F0.400132
sg9
F0.726
sg10
S'raggae'
p320
sg12
F0.37
sg13
VFanatix
p321
sg15
I9999
sg16
F0.593
sg17
Nsg18
F0.90125
sg19
Nsg20
Nsg21
F0.23193278785871738
sg22
F0.806
sg23
Nsg24
Nsg25
I0
ssg26
I01
sg27
I01
sba(iSong
Song
p322
(dp323
g3
(dp324
g5
F0.063
sg6
V10 Outa 10
p325
sg8
F0.4081
sg9
F0.878
sg10
S'raggae'
p326
sg12
F0.271
sg13
VMasicka
p327
sg15
I9999
sg16
F0.572
sg17
Nsg18
F0.9276333333333333
sg19
Nsg20
Nsg21
F0.23193278785871738
sg22
F0.668
sg23
Nsg24
Nsg25
I0
ssg26
I01
sg27
I01
sba(iSong
Song
p328
(dp329
g3
(dp330
g5
F0.192
sg6
VAfter All
p331
sg8
F0.5241079999999999
sg9
F0.765
sg10
S'raggae'
p332
sg12
F0.294
sg13
VAlkaline
p333
sg15
I9999
sg16
F0.648
sg17
Nsg18
F0.9197333333333333
sg19
Nsg20
Nsg21
F0.23193278785871738
sg22
F0.749
sg23
Nsg24
Nsg25
I0
ssg26
I01
sg27
I01
sba(iSong
Song
p334
(dp335
g3
(dp336
g5
F0.00399
sg6
VYu Zimme - All Star VIP
p337
sg8
F0.53312
sg9
F0.801
sg10
S'raggae'
p338
sg12
F0.135
sg13
VStylo G
p339
sg15
I9999
sg16
F0.704
sg17
Nsg18
F0.9201666666666667
sg19
Nsg20
Nsg21
F0.23193278785871738
sg22
F0.342
sg23
Nsg24
Nsg25
F0.00212
ssg26
I01
sg27
I01
sba(iSong
Song
p340
(dp341
g3
(dp342
g5
F0.0147
sg6
VBedroom Bully
p343
sg8
F0.399044
sg9
F0.713
sg10
S'raggae'
p344
sg12
F0.26
sg13
VBusy Signal
p345
sg15
I9999
sg16
F0.597
sg17
Nsg18
F0.8924
sg19
Nsg20
Nsg21
F0.23193278785871738
sg22
F0.374
sg23
Nsg24
Nsg25
I0
ssg26
I01
sg27
I01
sba(iSong
Song
p346
(dp347
g3
(dp348
g5
F0.313
sg6
VTurn Me On
p349
sg8
F0.42008
sg9
F0.82
sg10
S'raggae'
p350
sg12
F0.101
sg13
VKonshens
p351
sg15
I9999
sg16
F0.795
sg17
Nsg18
F0.92785
sg19
Nsg20
Nsg21
F0.23193278785871738
sg22
F0.725
sg23
Nsg24
Nsg25
F3.76e-06
ssg26
I01
sg27
I01
sba(iSong
Song
p352
(dp353
g3
(dp354
g5
F0.104
sg6
VGold
p355
sg8
F0.37176
sg9
F0.686
sg10
S'raggae'
p356
sg12
F0.207
sg13
VAlicai Harley
p357
sg15
I9999
sg16
F0.72
sg17
Nsg18
F0.9270166666666667
sg19
Nsg20
Nsg21
F0.23193278785871738
sg22
F0.302
sg23
Nsg24
Nsg25
I0
ssg26
I01
sg27
I01
sba(iSong
Song
p358
(dp359
g3
(dp360
g5
F0.18
sg6
VBen' Ova
p361
sg8
F0.393692
sg9
F0.612
sg10
S'raggae'
p362
sg12
F0.174
sg13
VWSTRN
p363
sg15
I9999
sg16
F0.772
sg17
Nsg18
F0.8820666666666667
sg19
Nsg20
Nsg21
F0.23193278785871738
sg22
F0.478
sg23
Nsg24
Nsg25
F3.47e-06
ssg26
I01
sg27
I01
sba(iSong
Song
p364
(dp365
g3
(dp366
g5
F0.219
sg6
VBruk It Down
p367
sg8
F0.475928
sg9
F0.781
sg10
S'raggae'
p368
sg12
F0.217
sg13
VMr. Vegas
p369
sg15
I9999
sg16
F0.919
sg17
Nsg18
F0.9216
sg19
Nsg20
Nsg21
F0.23193278785871738
sg22
F0.559
sg23
Nsg24
Nsg25
I0
ssg26
I01
sg27
I01
sba(iSong
Song
p370
(dp371
g3
(dp372
g5
F0.0794
sg6
VIskaba
p373
sg8
F0.500104
sg9
F0.764
sg10
S'raggae'
p374
sg12
F0.053
sg13
VWande Coal
p375
sg15
I9999
sg16
F0.814
sg17
Nsg18
F0.8675999999999999
sg19
Nsg20
Nsg21
F0.23193278785871738
sg22
F0.899
sg23
Nsg24
Nsg25
F0.0174
ssg26
I01
sg27
I01
sba(iSong
Song
p376
(dp377
g3
(dp378
g5
F0.153
sg6
VJamming
p379
sg8
F0.494684
sg9
F0.431
sg10
S'raggae'
p380
sg12
F0.299
sg13
VBob Marley & The Wailers
p381
sg15
I9999
sg16
F0.939
sg17
Nsg18
F0.7955500000000001
sg19
Nsg20
Nsg21
F0.23193278785871738
sg22
F0.729
sg23
Nsg24
Nsg25
F4.99e-05
ssg26
I01
sg27
I01
sba(iSong
Song
p382
(dp383
g3
(dp384
g5
F0.0105
sg6
VWorld-A-Reggae
p385
sg8
F0.294896
sg9
F0.457
sg10
S'raggae'
p386
sg12
F0.0601
sg13
VIni Kamoze
p387
sg15
I9999
sg16
F0.863
sg17
Nsg18
F0.80925
sg19
Nsg20
Nsg21
F0.23193278785871738
sg22
F0.382
sg23
Nsg24
Nsg25
F0.000774
ssg26
I01
sg27
I01
sba(iSong
Song
p388
(dp389
g3
(dp390
g5
F0.0122
sg6
VYou Don't Love Me (No, No, No) - Extended Mix
p391
sg8
F0.323848
sg9
F0.428
sg10
S'raggae'
p392
sg12
F0.221
sg13
VDawn Penn
p393
sg15
I9999
sg16
F0.811
sg17
Nsg18
F0.8211999999999999
sg19
Nsg20
Nsg21
F0.23193278785871738
sg22
F0.653
sg23
Nsg24
Nsg25
F0.317
ssg26
I01
sg27
I01
sba(iSong
Song
p394
(dp395
g3
(dp396
g5
F0.043
sg6
VNight Nurse
p397
sg8
F0.298736
sg9
F0.309
sg10
S'raggae'
p398
sg12
F0.216
sg13
VGregory Isaacs
p399
sg15
I9999
sg16
F0.841
sg17
Nsg18
F0.7577166666666667
sg19
Nsg20
Nsg21
F0.23193278785871738
sg22
F0.931
sg23
Nsg24
Nsg25
F0.0152
ssg26
I01
sg27
I01
sba(iSong
Song
p400
(dp401
g3
(dp402
g5
F0.161
sg6
VHere I Come
p403
sg8
F0.68328
sg9
F0.663
sg10
S'raggae'
p404
sg12
F0.0828
sg13
VBarrington Levy
p405
sg15
I9999
sg16
F0.582
sg17
Nsg18
F0.8908833333333334
sg19
Nsg20
Nsg21
F0.23193278785871738
sg22
F0.695
sg23
Nsg24
Nsg25
I0
ssg26
I01
sg27
I01
sba(iSong
Song
p406
(dp407
g3
(dp408
g5
F0.825
sg6
VBam Bam
p409
sg8
F0.6639919999999999
sg9
F0.605
sg10
S'raggae'
p410
sg12
F0.153
sg13
VSister Nancy
p411
sg15
I9999
sg16
F0.722
sg17
Nsg18
F0.8988333333333334
sg19
Nsg20
Nsg21
F0.23193278785871738
sg22
F0.709
sg23
Nsg24
Nsg25
F0.0178
ssg26
I01
sg27
I01
sba(iSong
Song
p412
(dp413
g3
(dp414
g5
F0.0887
sg6
VCool Down The Pace
p415
sg8
F0.30548000000000003
sg9
F0.266
sg10
S'raggae'
p416
sg12
F0.264
sg13
VGregory Isaacs
p417
sg15
I9999
sg16
F0.87
sg17
Nsg18
F0.7406833333333334
sg19
Nsg20
Nsg21
F0.23193278785871738
sg22
F0.929
sg23
Nsg24
Nsg25
F0.0217
ssg26
I01
sg27
I01
sba(iSong
Song
p418
(dp419
g3
(dp420
g5
F0.0845
sg6
VMurderer
p421
sg8
F0.5712
sg9
F0.549
sg10
S'raggae'
p422
sg12
F0.244
sg13
VBarrington Levy
p423
sg15
I9999
sg16
F0.865
sg17
Nsg18
F0.8319500000000001
sg19
Nsg20
Nsg21
F0.23193278785871738
sg22
F0.617
sg23
Nsg24
Nsg25
F0.158
ssg26
I01
sg27
I01
sba(iSong
Song
p424
(dp425
g3
(dp426
g5
F0.025
sg6
VWaiting In Vain
p427
sg8
F0.315348
sg9
F0.453
sg10
S'raggae'
p428
sg12
F0.31
sg13
VBob Marley & The Wailers
p429
sg15
I9999
sg16
F0.838
sg17
Nsg18
F0.8077333333333333
sg19
Nsg20
Nsg21
F0.23193278785871738
sg22
F0.815
sg23
Nsg24
Nsg25
F2.42e-05
ssg26
I01
sg27
I01
sba(iSong
Song
p430
(dp431
g3
(dp432
g5
F0.0331
sg6
VPolice In Helicopter
p433
sg8
F0.56474
sg9
F0.652
sg10
S'raggae'
p434
sg12
F0.111
sg13
VJohn Holt
p435
sg15
I9999
sg16
F0.686
sg17
Nsg18
F0.8735666666666667
sg19
Nsg20
Nsg21
F0.23193278785871738
sg22
F0.503
sg23
Nsg24
Nsg25
F8.34e-06
ssg26
I01
sg27
I01
sba(iSong
Song
p436
(dp437
g3
(dp438
g5
F0.00414
sg6
VRed Red Wine - Edit
p439
sg8
F0.356476
sg9
F0.468
sg10
S'raggae'
p440
sg12
F0.0476
sg13
VUB40
p441
sg15
I9999
sg16
F0.857
sg17
Nsg18
F0.8578333333333333
sg19
Nsg20
Nsg21
F0.23193278785871738
sg22
F0.843
sg23
Nsg24
Nsg25
F1.32e-05
ssg26
I01
sg27
I01
sba(iSong
Song
p442
(dp443
g3
(dp444
g5
F0.102
sg6
VHandsworth Revolution
p445
sg8
F0.473976
sg9
F0.398
sg10
S'raggae'
p446
sg12
F0.0967
sg13
VSteel Pulse
p447
sg15
I9999
sg16
F0.931
sg17
Nsg18
F0.7542000000000001
sg19
Nsg20
Nsg21
F0.23193278785871738
sg22
F0.709
sg23
Nsg24
Nsg25
F0.000204
ssg26
I01
sg27
I01
sba(iSong
Song
p448
(dp449
g3
(dp450
g5
F0.788
sg6
V54-46 Was My Number - Edit
p451
sg8
F0.634144
sg9
F0.377
sg10
S'raggae'
p452
sg12
F0.313
sg13
VToots & The Maytals
p453
sg15
I9999
sg16
F0.714
sg17
Nsg18
F0.84895
sg19
Nsg20
Nsg21
F0.23193278785871738
sg22
F0.437
sg23
Nsg24
Nsg25
F4.68e-06
ssg26
I01
sg27
I01
sba(iSong
Song
p454
(dp455
g3
(dp456
g5
F0.427
sg6
VPass The Dutchie
p457
sg8
F0.599384
sg9
F0.428
sg10
S'raggae'
p458
sg12
F0.0978
sg13
VMusical Youth
p459
sg15
I9999
sg16
F0.8
sg17
Nsg18
F0.76195
sg19
Nsg20
Nsg21
F0.23193278785871738
sg22
F0.966
sg23
Nsg24
Nsg25
I0
ssg26
I01
sg27
I01
sba(iSong
Song
p460
(dp461
g3
(dp462
g5
F0.236
sg6
VBad Boys (Theme from COPS)
p463
sg8
F0.351448
sg9
F0.722
sg10
S'raggae'
p464
sg12
F0.0668
sg13
VInner Circle
p465
sg15
I9999
sg16
F0.781
sg17
Nsg18
F0.8604
sg19
Nsg20
Nsg21
F0.23193278785871738
sg22
F0.532
sg23
Nsg24
Nsg25
F0.00042
ssg26
I01
sg27
I01
sba(iSong
Song
p466
(dp467
g3
(dp468
g5
F0.0109
sg6
VThree Little Birds
p469
sg8
F0.295848
sg9
F0.478
sg10
S'raggae'
p470
sg12
F0.0855
sg13
VBob Marley & The Wailers
p471
sg15
I9999
sg16
F0.781
sg17
Nsg18
F0.8243333333333334
sg19
Nsg20
Nsg21
F0.23193278785871738
sg22
F0.643
sg23
Nsg24
Nsg25
F1.01e-06
ssg26
I01
sg27
I01
sba(iSong
Song
p472
(dp473
g3
(dp474
g5
F0.149
sg6
VHail H.I.M - 2002 Remastered Version
p475
sg8
F0.5514640000000001
sg9
F0.652
sg10
S'raggae'
p476
sg12
F0.0583
sg13
VBurning Spear
p477
sg15
I9999
sg16
F0.775
sg17
Nsg18
F0.86865
sg19
Nsg20
Nsg21
F0.23193278785871738
sg22
F0.671
sg23
Nsg24
Nsg25
F0.18
ssg26
I01
sg27
I01
sba(iSong
Song
p478
(dp479
g3
(dp480
g5
F0.271
sg6
VFunky Kingston
p481
sg8
F0.39877999999999997
sg9
F0.512
sg10
S'raggae'
p482
sg12
F0.0572
sg13
VToots & The Maytals
p483
sg15
I9999
sg16
F0.763
sg17
Nsg18
F0.8436166666666668
sg19
Nsg20
Nsg21
F0.23193278785871738
sg22
F0.962
sg23
Nsg24
Nsg25
F0.000846
ssg26
I01
sg27
I01
sba(iSong
Song
p484
(dp485
g3
(dp486
g5
F0.352
sg6
VDream Land
p487
sg8
F0.291368
sg9
F0.485
sg10
S'raggae'
p488
sg12
F0.321
sg13
VBunny Wailer
p489
sg15
I9999
sg16
F0.786
sg17
Nsg18
F0.7831333333333333
sg19
Nsg20
Nsg21
F0.23193278785871738
sg22
F0.96
sg23
Nsg24
Nsg25
F0.00467
ssg26
I01
sg27
I01
sba(iSong
Song
p490
(dp491
g3
(dp492
g5
F0.0585
sg6
VThe International Herb
p493
sg8
F0.510744
sg9
F0.433
sg10
S'raggae'
p494
sg12
F0.337
sg13
VCulture
p495
sg15
I9999
sg16
F0.825
sg17
Nsg18
F0.7819166666666667
sg19
Nsg20
Nsg21
F0.23193278785871738
sg22
F0.687
sg23
Nsg24
Nsg25
I0
ssg26
I01
sg27
I01
sba(iSong
Song
p496
(dp497
g3
(dp498
g5
F0.449
sg6
VTake Me Home, Country Roads
p499
sg8
F0.700976
sg9
F0.436
sg10
S'raggae'
p500
sg12
F0.146
sg13
VToots & The Maytals
p501
sg15
I9999
sg16
F0.609
sg17
Nsg18
F0.8001666666666666
sg19
Nsg20
Nsg21
F0.23193278785871738
sg22
F0.921
sg23
Nsg24
Nsg25
F0.00677
ssg26
I01
sg27
I01
sba(iSong
Song
p502
(dp503
g3
(dp504
g5
F0.0124
sg6
VSweat (A La La La La Long)
p505
sg8
F0.6921
sg9
F0.727
sg10
S'raggae'
p506
sg12
F0.224
sg13
VInner Circle
p507
sg15
I9999
sg16
F0.787
sg17
Nsg18
F0.8715833333333334
sg19
Nsg20
Nsg21
F0.23193278785871738
sg22
F0.936
sg23
Nsg24
Nsg25
I0
ssg26
I01
sg27
I01
sba(iSong
Song
p508
(dp509
g3
(dp510
g5
F0.0367
sg6
VMellow Mood
p511
sg8
F0.323784
sg9
F0.568
sg10
S'raggae'
p512
sg12
F0.156
sg13
VBunny Wailer
p513
sg15
I9999
sg16
F0.742
sg17
Nsg18
F0.7888833333333333
sg19
Nsg20
Nsg21
F0.23193278785871738
sg22
F0.678
sg23
Nsg24
Nsg25
F0.0715
ssg26
I01
sg27
I01
sba(iSong
Song
p514
(dp515
g3
(dp516
g5
F0.188
sg6
VIsraelites
p517
sg8
F0.585868
sg9
F0.41
sg10
S'raggae'
p518
sg12
F0.0511
sg13
VDesmond Dekker
p519
sg15
I9999
sg16
F0.793
sg17
Nsg18
F0.8223
sg19
Nsg20
Nsg21
F0.23193278785871738
sg22
F0.931
sg23
Nsg24
Nsg25
I0
ssg26
I01
sg27
I01
sba(iSong
Song
p520
(dp521
g3
(dp522
g5
F0.645
sg6
VThe Harder They Come
p523
sg8
F0.409968
sg9
F0.589
sg10
S'raggae'
p524
sg12
F0.0727
sg13
VJimmy Cliff
p525
sg15
I9999
sg16
F0.679
sg17
Nsg18
F0.8665
sg19
Nsg20
Nsg21
F0.23193278785871738
sg22
F0.786
sg23
Nsg24
Nsg25
I0
ssg26
I01
sg27
I01
sba(iSong
Song
p526
(dp527
g3
(dp528
g5
F0.199
sg6
VRevolution
p529
sg8
F0.338492
sg9
F0.719
sg10
S'raggae'
p530
sg12
F0.0995
sg13
VDennis Brown
p531
sg15
I9999
sg16
F0.717
sg17
Nsg18
F0.9472333333333334
sg19
Nsg20
Nsg21
F0.23193278785871738
sg22
F0.766
sg23
Nsg24
Nsg25
F2.62e-06
ssg26
I01
sg27
I01
sba(iSong
Song
p532
(dp533
g3
(dp534
g5
F0.128
sg6
VLegalize It
p535
sg8
F0.580996
sg9
F0.784
sg10
S'raggae'
p536
sg12
F0.204
sg13
VPeter Tosh
p537
sg15
I9999
sg16
F0.701
sg17
Nsg18
F0.8797999999999999
sg19
Nsg20
Nsg21
F0.23193278785871738
sg22
F0.712
sg23
Nsg24
Nsg25
I0
ssg26
I01
sg27
I01
sba(iSong
Song
p538
(dp539
g3
(dp540
g5
F0.172
sg6
VBuffalo Soldier
p541
sg8
F0.496324
sg9
F0.464
sg10
S'raggae'
p542
sg12
F0.27
sg13
VBob Marley & The Wailers
p543
sg15
I9999
sg16
F0.928
sg17
Nsg18
F0.8573333333333333
sg19
Nsg20
Nsg21
F0.23193278785871738
sg22
F0.762
sg23
Nsg24
Nsg25
F7.16e-06
ssg26
I01
sg27
I01
sba(iSong
Song
p544
(dp545
g3
(dp546
g5
F0.313
sg6
VI Shot The Sheriff
p547
sg8
F0.387224
sg9
F0.641
sg10
S'raggae'
p548
sg12
F0.171
sg13
VThe Wailers
p549
sg15
I9999
sg16
F0.799
sg17
Nsg18
F0.8445
sg19
Nsg20
Nsg21
F0.23193278785871738
sg22
F0.719
sg23
Nsg24
Nsg25
F2.22e-05
ssg26
I01
sg27
I01
sba(iSong
Song
p550
(dp551
g3
(dp552
g5
F0.0659
sg6
VWar Ina Babylon
p553
sg8
F0.5910359999999999
sg9
F0.699
sg10
S'raggae'
p554
sg12
F0.119
sg13
VMax Romeo
p555
sg15
I9999
sg16
F0.647
sg17
Nsg18
F0.8888333333333333
sg19
Nsg20
Nsg21
F0.23193278785871738
sg22
F0.862
sg23
Nsg24
Nsg25
I0
ssg26
I01
sg27
I01
sba(iSong
Song
p556
(dp557
g3
(dp558
g5
F0.0442
sg6
VMarcus Garvey
p559
sg8
F0.367596
sg9
F0.487
sg10
S'raggae'
p560
sg12
F0.0993
sg13
VBurning Spear
p561
sg15
I9999
sg16
F0.726
sg17
Nsg18
F0.8460833333333333
sg19
Nsg20
Nsg21
F0.23193278785871738
sg22
F0.48
sg23
Nsg24
Nsg25
F0.00766
ssg26
I01
sg27
I01
sba(iSong
Song
p562
(dp563
g3
(dp564
g5
F0.175
sg6
VUnder Me Sleng Teng
p565
sg8
F0.326052
sg9
F0.537
sg10
S'raggae'
p566
sg12
F0.0631
sg13
VWayne Smith
p567
sg15
I9999
sg16
F0.832
sg17
Nsg18
F0.8776666666666666
sg19
Nsg20
Nsg21
F0.23193278785871738
sg22
F0.901
sg23
Nsg24
Nsg25
I0
ssg26
I01
sg27
I01
sba(iSong
Song
p568
(dp569
g3
(dp570
g5
F0.258
sg6
VGet Up, Stand Up
p571
sg8
F0.31345999999999996
sg9
F0.571
sg10
S'raggae'
p572
sg12
F0.348
sg13
VThe Wailers
p573
sg15
I9999
sg16
F0.776
sg17
Nsg18
F0.8815333333333334
sg19
Nsg20
Nsg21
F0.23193278785871738
sg22
F0.816
sg23
Nsg24
Nsg25
I0
ssg26
I01
sg27
I01
sba(iSong
Song
p574
(dp575
g3
(dp576
g5
F0.354
sg6
VWa Do Dem
p577
sg8
F0.310032
sg9
F0.634
sg10
S'raggae'
p578
sg12
F0.0568
sg13
VEek-A-Mouse
p579
sg15
I9999
sg16
F0.848
sg17
Nsg18
F0.8814666666666666
sg19
Nsg20
Nsg21
F0.23193278785871738
sg22
F0.795
sg23
Nsg24
Nsg25
I0
ssg26
I01
sg27
I01
sba(iSong
Song
p580
(dp581
g3
(dp582
g5
F0.13
sg6
VMurder She Wrote (Original Mix)
p583
sg8
F0.380384
sg9
F0.679
sg10
S'raggae'
p584
sg12
F0.156
sg13
VChaka Demus & Pliers
p585
sg15
I9999
sg16
F0.872
sg17
Nsg18
F0.8329000000000001
sg19
Nsg20
Nsg21
F0.23193278785871738
sg22
F0.948
sg23
Nsg24
Nsg25
F0.00746
ssg26
I01
sg27
I01
sba(iSong
Song
p586
(dp587
g3
(dp588
g5
F0.00988
sg6
VSinsemilla
p589
sg8
F0.524976
sg9
F0.568
sg10
S'raggae'
p590
sg12
F0.113
sg13
VBlack Uhuru
p591
sg15
I9999
sg16
F0.825
sg17
Nsg18
F0.8042166666666667
sg19
Nsg20
Nsg21
F0.23193278785871738
sg22
F0.623
sg23
Nsg24
Nsg25
F0.0341
ssg26
I01
sg27
I01
sba(iSong
Song
p592
(dp593
g3
(dp594
g5
F0.0312
sg6
VOne Draw
p595
sg8
F0.358076
sg9
F0.43
sg10
S'raggae'
p596
sg12
F0.068
sg13
VRita Marley
p597
sg15
I9999
sg16
F0.791
sg17
Nsg18
F0.8114
sg19
Nsg20
Nsg21
F0.23193278785871738
sg22
F0.716
sg23
Nsg24
Nsg25
F0.000189
ssg26
I01
sg27
I01
sba(iSong
Song
p598
(dp599
g3
(dp600
g5
F0.0497
sg6
VZungguzungguguzungguzeng
p601
sg8
F0.659556
sg9
F0.474
sg10
S'raggae'
p602
sg12
F0.243
sg13
VYellowman
p603
sg15
I9999
sg16
F0.75
sg17
Nsg18
F0.82265
sg19
Nsg20
Nsg21
F0.23193278785871738
sg22
F0.425
sg23
Nsg24
Nsg25
F0.0013
ssg26
I01
sg27
I01
sba(iSong
Song
p604
(dp605
g3
(dp606
g5
F0.645
sg6
VGood Thing Going
p607
sg8
F0.31012799999999996
sg9
F0.519
sg10
S'raggae'
p608
sg12
F0.0376
sg13
VSugar Minott
p609
sg15
I9999
sg16
F0.671
sg17
Nsg18
F0.8139166666666667
sg19
Nsg20
Nsg21
F0.23193278785871738
sg22
F0.939
sg23
Nsg24
Nsg25
F0.000368
ssg26
I01
sg27
I01
sba(iSong
Song
p610
(dp611
g3
(dp612
g5
F0.229
sg6
VTenement Yard
p613
sg8
F0.5755159999999999
sg9
F0.521
sg10
S'raggae'
p614
sg12
F0.306
sg13
VJacob Miller
p615
sg15
I9999
sg16
F0.888
sg17
Nsg18
F0.8859166666666667
sg19
Nsg20
Nsg21
F0.23193278785871738
sg22
F0.962
sg23
Nsg24
Nsg25
I0
ssg26
I01
sg27
I01
sba(iSong
Song
p616
(dp617
g3
(dp618
g5
F0.0205
sg6
VKu Klux Klan
p619
sg8
F0.51546
sg9
F0.514
sg10
S'raggae'
p620
sg12
F0.141
sg13
VSteel Pulse
p621
sg15
I9999
sg16
F0.735
sg17
Nsg18
F0.797
sg19
Nsg20
Nsg21
F0.23193278785871738
sg22
F0.817
sg23
Nsg24
Nsg25
I0
ssg26
I01
sg27
I01
sba(iSong
Song
p622
(dp623
g3
(dp624
g5
F0.0477
sg6
VUptown Top Ranking - 2001 Digital Remaster
p625
sg8
F0.329756
sg9
F0.522
sg10
S'raggae'
p626
sg12
F0.173
sg13
VAlthea And Donna
p627
sg15
I9999
sg16
F0.886
sg17
Nsg18
F0.86715
sg19
Nsg20
Nsg21
F0.23193278785871738
sg22
F0.79
sg23
Nsg24
Nsg25
F0.00108
ssg26
I01
sg27
I01
sba(iSong
Song
p628
(dp629
g3
(dp630
g5
F0.248
sg6
VYou Can Get It If You Really Want
p631
sg8
F0.512656
sg9
F0.559
sg10
S'raggae'
p632
sg12
F0.0568
sg13
VJimmy Cliff
p633
sg15
I9999
sg16
F0.894
sg17
Nsg18
F0.85755
sg19
Nsg20
Nsg21
F0.23193278785871738
sg22
F0.929
sg23
Nsg24
Nsg25
I0
ssg26
I01
sg27
I01
sba(iSong
Song
p634
(dp635
g3
(dp636
g5
F0.0631
sg6
VPolice And Thieves
p637
sg8
F0.509964
sg9
F0.429
sg10
S'raggae'
p638
sg12
F0.0781
sg13
VJunior Murvin
p639
sg15
I9999
sg16
F0.934
sg17
Nsg18
F0.8301333333333333
sg19
Nsg20
Nsg21
F0.23193278785871738
sg22
F0.915
sg23
Nsg24
Nsg25
I0
ssg26
I01
sg27
I01
sba(iSong
Song
p640
(dp641
g3
(dp642
g5
F0.0299
sg6
VJohnny B Goode - 2002 Remastered Version
p643
sg8
F0.5806760000000001
sg9
F0.849
sg10
S'raggae'
p644
sg12
F0.0544
sg13
VPeter Tosh
p645
sg15
I9999
sg16
F0.749
sg17
Nsg18
F0.9039833333333332
sg19
Nsg20
Nsg21
F0.23193278785871738
sg22
F0.959
sg23
Nsg24
Nsg25
F0.000168
ssg26
I01
sg27
I01
sba(iSong
Song
p646
(dp647
g3
(dp648
g5
F0.0931
sg6
VEverything I Own
p649
sg8
F0.30296
sg9
F0.474
sg10
S'raggae'
p650
sg12
F0.0468
sg13
VKen Boothe
p651
sg15
I9999
sg16
F0.652
sg17
Nsg18
F0.8454833333333334
sg19
Nsg20
Nsg21
F0.23193278785871738
sg22
F0.737
sg23
Nsg24
Nsg25
I0
ssg26
I01
sg27
I01
sba(iSong
Song
p652
(dp653
g3
(dp654
g5
F0.106
sg6
VPressure Drop
p655
sg8
F0.5958559999999999
sg9
F0.571
sg10
S'raggae'
p656
sg12
F0.0432
sg13
VToots & The Maytals
p657
sg15
I9999
sg16
F0.658
sg17
Nsg18
F0.8004666666666667
sg19
Nsg20
Nsg21
F0.23193278785871738
sg22
F0.985
sg23
Nsg24
Nsg25
I0
ssg26
I01
sg27
I01
sba(iSong
Song
p658
(dp659
g3
(dp660
g5
F0.0669
sg6
V007 (Shanty Town)
p661
sg8
F0.40686
sg9
F0.575
sg10
S'raggae'
p662
sg12
F0.0893
sg13
VDesmond Dekker
p663
sg15
I9999
sg16
F0.86
sg17
Nsg18
F0.88755
sg19
Nsg20
Nsg21
F0.23193278785871738
sg22
F0.846
sg23
Nsg24
Nsg25
F0.159
ssg26
I01
sg27
I01
sba(iSong
Song
p664
(dp665
g3
(dp666
g5
F0.0807
sg6
VChase The Devil
p667
sg8
F0.5963160000000001
sg9
F0.34
sg10
S'raggae'
p668
sg12
F0.565
sg13
VMax Romeo
p669
sg15
I9999
sg16
F0.838
sg17
Nsg18
F0.7611
sg19
Nsg20
Nsg21
F0.23193278785871738
sg22
F0.836
sg23
Nsg24
Nsg25
I0
ssg26
I01
sg27
I01
sba(iSong
Song
p670
(dp671
g3
(dp672
g5
F0.0083
sg6
VIs This Love
p673
sg8
F0.48987200000000003
sg9
F0.529
sg10
S'raggae'
p674
sg12
F0.123
sg13
VBob Marley & The Wailers
p675
sg15
I9999
sg16
F0.758
sg17
Nsg18
F0.828
sg19
Nsg20
Nsg21
F0.23193278785871738
sg22
F0.851
sg23
Nsg24
Nsg25
I0
ssg26
I01
sg27
I01
sba(iSong
Song
p676
(dp677
g3
(dp678
g5
F0.372
sg6
VCould You Be Loved
p679
sg8
F0.41332
sg9
F0.724
sg10
S'raggae'
p680
sg12
F0.105
sg13
VBob Marley & The Wailers
p681
sg15
I9999
sg16
F0.913
sg17
Nsg18
F0.8578833333333333
sg19
Nsg20
Nsg21
F0.23193278785871738
sg22
F0.748
sg23
Nsg24
Nsg25
F0.000201
ssg26
I01
sg27
I01
sba(iSong
Song
p682
(dp683
g3
(dp684
g5
F0.031
sg6
VMedication
p685
sg8
F0.339952
sg9
F0.568
sg10
S'raggae'
p686
sg12
F0.247
sg13
VDamian Marley
p687
sg15
I9999
sg16
F0.868
sg17
Nsg18
F0.8867666666666667
sg19
Nsg20
Nsg21
F0.23193278785871738
sg22
F0.812
sg23
Nsg24
Nsg25
I0
ssg26
I01
sg27
I01
sba(iSong
Song
p688
(dp689
g3
(dp690
g5
F0.212
sg6
VSun Is Shining
p691
sg8
F0.28988400000000003
sg9
F0.437
sg10
S'raggae'
p692
sg12
F0.122
sg13
VBob Marley & The Wailers
p693
sg15
I9999
sg16
F0.674
sg17
Nsg18
F0.8244166666666667
sg19
Nsg20
Nsg21
F0.23193278785871738
sg22
F0.806
sg23
Nsg24
Nsg25
F2.64e-05
ssg26
I01
sg27
I01
sba(iSong
Song
p694
(dp695
g3
(dp696
g5
F0.0269
sg6
VRasta Should Be Deeper
p697
sg8
F0.289536
sg9
F0.803
sg10
S'raggae'
p698
sg12
F0.0556
sg13
VJunior Kelly
p699
sg15
I9999
sg16
F0.746
sg17
Nsg18
F0.90305
sg19
Nsg20
Nsg21
F0.23193278785871738
sg22
F0.731
sg23
Nsg24
Nsg25
I0
ssg26
I01
sg27
I01
sba(iSong
Song
p700
(dp701
g3
(dp702
g5
F0.0159
sg6
VStill Blazing
p703
sg8
F0.582472
sg9
F0.704
sg10
S'raggae'
p704
sg12
F0.269
sg13
VAlborosie
p705
sg15
I9999
sg16
F0.749
sg17
Nsg18
F0.9097500000000001
sg19
Nsg20
Nsg21
F0.23193278785871738
sg22
F0.821
sg23
Nsg24
Nsg25
F2.02e-06
ssg26
I01
sg27
I01
sba(iSong
Song
p706
(dp707
g3
(dp708
g5
F0.00557
sg6
VPimper's Paradise
p709
sg8
F0.538908
sg9
F0.65
sg10
S'raggae'
p710
sg12
F0.0615
sg13
VBob Marley & The Wailers
p711
sg15
I9999
sg16
F0.939
sg17
Nsg18
F0.8619666666666668
sg19
Nsg20
Nsg21
F0.23193278785871738
sg22
F0.968
sg23
Nsg24
Nsg25
I0
ssg26
I01
sg27
I01
sba(iSong
Song
p712
(dp713
g3
(dp714
g5
F0.0405
sg6
VNight Nurse
p715
sg8
F0.298328
sg9
F0.294
sg10
S'raggae'
p716
sg12
F0.164
sg13
VGregory Isaacs
p717
sg15
I9999
sg16
F0.826
sg17
Nsg18
F0.7576666666666667
sg19
Nsg20
Nsg21
F0.23193278785871738
sg22
F0.937
sg23
Nsg24
Nsg25
F0.0384
ssg26
I01
sg27
I01
sba(iSong
Song
p718
(dp719
g3
(dp720
g5
F0.0909
sg6
VWho Knows
p721
sg8
F0.323728
sg9
F0.724
sg10
S'raggae'
p722
sg12
F0.0988
sg13
VProtoje
p723
sg15
I9999
sg16
F0.683
sg17
Nsg18
F0.9260666666666667
sg19
Nsg20
Nsg21
F0.23193278785871738
sg22
F0.742
sg23
Nsg24
Nsg25
I0
ssg26
I01
sg27
I01
sba(iSong
Song
p724
(dp725
g3
(dp726
g5
F0.183
sg6
VChase The Devil
p727
sg8
F0.60234
sg9
F0.623
sg10
S'raggae'
p728
sg12
F0.251
sg13
VMax Romeo
p729
sg15
I9999
sg16
F0.818
sg17
Nsg18
F0.8973666666666666
sg19
Nsg20
Nsg21
F0.23193278785871738
sg22
F0.735
sg23
Nsg24
Nsg25
I0
ssg26
I01
sg27
I01
sba(iSong
Song
p730
(dp731
g3
(dp732
g5
F0.161
sg6
VHere I Come
p733
sg8
F0.68328
sg9
F0.663
sg10
S'raggae'
p734
sg12
F0.0828
sg13
VBarrington Levy
p735
sg15
I9999
sg16
F0.582
sg17
Nsg18
F0.8908833333333334
sg19
Nsg20
Nsg21
F0.23193278785871738
sg22
F0.695
sg23
Nsg24
Nsg25
I0
ssg26
I01
sg27
I01
sba(iSong
Song
p736
(dp737
g3
(dp738
g5
F0.214
sg6
VSo Much Trouble In The World
p739
sg8
F0.6227440000000001
sg9
F0.552
sg10
S'raggae'
p740
sg12
F0.079
sg13
VBob Marley & The Wailers
p741
sg15
I9999
sg16
F0.834
sg17
Nsg18
F0.8560333333333333
sg19
Nsg20
Nsg21
F0.23193278785871738
sg22
F0.912
sg23
Nsg24
Nsg25
F0.000352
ssg26
I01
sg27
I01
sba(iSong
Song
p742
(dp743
g3
(dp744
g5
F0.0561
sg6
VIt Wasn't Me
p745
sg8
F0.379036
sg9
F0.606
sg10
S'raggae'
p746
sg12
F0.0713
sg13
VShaggy
p747
sg15
I9999
sg16
F0.853
sg17
Nsg18
F0.9233999999999999
sg19
Nsg20
Nsg21
F0.23193278785871738
sg22
F0.654
sg23
Nsg24
Nsg25
I0
ssg26
I01
sg27
I01
sba(iSong
Song
p748
(dp749
g3
(dp750
g5
F0.116
sg6
VKingston Town
p751
sg8
F0.408292
sg9
F0.217
sg10
S'raggae'
p752
sg12
F0.0595
sg13
VUB40
p753
sg15
I9999
sg16
F0.957
sg17
Nsg18
F0.7562333333333334
sg19
Nsg20
Nsg21
F0.23193278785871738
sg22
F0.771
sg23
Nsg24
Nsg25
F0.0408
ssg26
I01
sg27
I01
sba(iSong
Song
p754
(dp755
g3
(dp756
g5
F0.214
sg6
VCheerleader
p757
sg8
F0.4
sg9
F0.738
sg10
S'raggae'
p758
sg12
F0.0309
sg13
VOMI
p759
sg15
I9999
sg16
F0.864
sg17
Nsg18
F0.9279499999999999
sg19
Nsg20
Nsg21
F0.23193278785871738
sg22
F0.938
sg23
Nsg24
Nsg25
I0
ssg26
I01
sg27
I01
sba(iSong
Song
p760
(dp761
g3
(dp762
g5
F0.276
sg6
VStand Down
p763
sg8
F0.5197759999999999
sg9
F0.467
sg10
S'raggae'
p764
sg12
F0.0597
sg13
VLionel Richie
p765
sg15
I9999
sg16
F0.799
sg17
Nsg18
F0.8740666666666667
sg19
Nsg20
Nsg21
F0.23193278785871738
sg22
F0.965
sg23
Nsg24
Nsg25
I0
ssg26
I01
sg27
I01
sba(iSong
Song
p766
(dp767
g3
(dp768
g5
F0.651
sg6
VIntoxication
p769
sg8
F0.335552
sg9
F0.652
sg10
S'raggae'
p770
sg12
F0.263
sg13
VGentleman
p771
sg15
I9999
sg16
F0.646
sg17
Nsg18
F0.89925
sg19
Nsg20
Nsg21
F0.23193278785871738
sg22
F0.659
sg23
Nsg24
Nsg25
I0
ssg26
I01
sg27
I01
sba(iSong
Song
p772
(dp773
g3
(dp774
g5
F0.0807
sg6
VChase The Devil
p775
sg8
F0.5963160000000001
sg9
F0.34
sg10
S'raggae'
p776
sg12
F0.565
sg13
VMax Romeo
p777
sg15
I9999
sg16
F0.838
sg17
Nsg18
F0.7611
sg19
Nsg20
Nsg21
F0.23193278785871738
sg22
F0.836
sg23
Nsg24
Nsg25
I0
ssg26
I01
sg27
I01
sba(iSong
Song
p778
(dp779
g3
(dp780
g5
F0.0955
sg6
VLook Who's Dancin'
p781
sg8
F0.41622000000000003
sg9
F0.908
sg10
S'raggae'
p782
sg12
F0.041
sg13
VZiggy Marley & The Melody Makers
p783
sg15
I9999
sg16
F0.767
sg17
Nsg18
F0.9077000000000001
sg19
Nsg20
Nsg21
F0.23193278785871738
sg22
F0.938
sg23
Nsg24
Nsg25
F0.00207
ssg26
I01
sg27
I01
sba(iSong
Song
p784
(dp785
g3
(dp786
g5
F0.0259
sg6
VHandsworth Revolution
p787
sg8
F0.47292
sg9
F0.411
sg10
S'raggae'
p788
sg12
F0.0916
sg13
VSteel Pulse
p789
sg15
I9999
sg16
F0.928
sg17
Nsg18
F0.7633333333333333
sg19
Nsg20
Nsg21
F0.23193278785871738
sg22
F0.693
sg23
Nsg24
Nsg25
F1.06e-05
ssg26
I01
sg27
I01
sba(iSong
Song
p790
(dp791
g3
(dp792
g5
F0.104
sg6
VLady
p793
sg8
F0.595496
sg9
F0.72
sg10
S'raggae'
p794
sg12
F0.14
sg13
VWayne Wade
p795
sg15
I9999
sg16
F0.722
sg17
Nsg18
F0.9312166666666666
sg19
Nsg20
Nsg21
F0.23193278785871738
sg22
F0.899
sg23
Nsg24
Nsg25
F0.00668
ssg26
I01
sg27
I01
sba(iSong
Song
p796
(dp797
g3
(dp798
g5
F0.161
sg6
VCool and Calm
p799
sg8
F0.305496
sg9
F0.399
sg10
S'raggae'
p800
sg12
F0.174
sg13
VIsrael Vibration
p801
sg15
I9999
sg16
F0.794
sg17
Nsg18
F0.8080666666666667
sg19
Nsg20
Nsg21
F0.23193278785871738
sg22
F0.839
sg23
Nsg24
Nsg25
F7.09e-06
ssg26
I01
sg27
I01
sba(iSong
Song
p802
(dp803
g3
(dp804
g5
F0.048
sg6
VPolice & Thieves
p805
sg8
F0.508628
sg9
F0.512
sg10
S'raggae'
p806
sg12
F0.0626
sg13
VJunior Murvin
p807
sg15
I9999
sg16
F0.934
sg17
Nsg18
F0.88105
sg19
Nsg20
Nsg21
F0.23193278785871738
sg22
F0.906
sg23
Nsg24
Nsg25
I0
ssg26
I01
sg27
I01
sba(iSong
Song
p808
(dp809
g3
(dp810
g5
F0.138
sg6
VDubbing Is a Must Part 1 - 2010 Remastered Version
p811
sg8
F0.528512
sg9
F0.661
sg10
S'raggae'
p812
sg12
F0.121
sg13
VPablo Moses
p813
sg15
I9999
sg16
F0.904
sg17
Nsg18
F0.8669833333333333
sg19
Nsg20
Nsg21
F0.23193278785871738
sg22
F0.874
sg23
Nsg24
Nsg25
F0.0146
ssg26
I01
sg27
I01
sba(iSong
Song
p814
(dp815
g3
(dp816
g5
F0.445
sg6
VTenement Yard
p817
sg8
F0.576736
sg9
F0.387
sg10
S'raggae'
p818
sg12
F0.212
sg13
VJacob Miller
p819
sg15
I9999
sg16
F0.887
sg17
Nsg18
F0.7801666666666667
sg19
Nsg20
Nsg21
F0.23193278785871738
sg22
F0.973
sg23
Nsg24
Nsg25
I0
ssg26
I01
sg27
I01
sba(iSong
Song
p820
(dp821
g3
(dp822
g5
F0.0312
sg6
VOne Draw
p823
sg8
F0.358076
sg9
F0.43
sg10
S'raggae'
p824
sg12
F0.068
sg13
VRita Marley
p825
sg15
I9999
sg16
F0.791
sg17
Nsg18
F0.8114
sg19
Nsg20
Nsg21
F0.23193278785871738
sg22
F0.716
sg23
Nsg24
Nsg25
F0.000189
ssg26
I01
sg27
I01
sba(iSong
Song
p826
(dp827
g3
(dp828
g5
F0.042
sg6
VLiving Dread
p829
sg8
F0.543924
sg9
F0.835
sg10
S'raggae'
p830
sg12
F0.0477
sg13
VAlborosie
p831
sg15
I9999
sg16
F0.792
sg17
Nsg18
F0.9193
sg19
Nsg20
Nsg21
F0.23193278785871738
sg22
F0.811
sg23
Nsg24
Nsg25
I0
ssg26
I01
sg27
I01
sba(iSong
Song
p832
(dp833
g3
(dp834
g5
F0.0131
sg6
VTurn Your Lights Down Low
p835
sg8
F0.332428
sg9
F0.668
sg10
S'raggae'
p836
sg12
F0.0755
sg13
VBob Marley & The Wailers
p837
sg15
I9999
sg16
F0.733
sg17
Nsg18
F0.9118333333333334
sg19
Nsg20
Nsg21
F0.23193278785871738
sg22
F0.766
sg23
Nsg24
Nsg25
F2.6e-06
ssg26
I01
sg27
I01
sba(iSong
Song
p838
(dp839
g3
(dp840
g5
F0.0484
sg6
VAlways Be Around
p841
sg8
F0.540208
sg9
F0.714
sg10
S'raggae'
p842
sg12
F0.0457
sg13
VJesse Royal
p843
sg15
I9999
sg16
F0.733
sg17
Nsg18
F0.8873333333333334
sg19
Nsg20
Nsg21
F0.23193278785871738
sg22
F0.738
sg23
Nsg24
Nsg25
I0
ssg26
I01
sg27
I01
sba(iSong
Song
p844
(dp845
g3
(dp846
g5
F0.0208
sg6
VWelcome To Jamrock
p847
sg8
F0.306892
sg9
F0.661
sg10
S'raggae'
p848
sg12
F0.333
sg13
VDamian Marley
p849
sg15
I9999
sg16
F0.835
sg17
Nsg18
F0.8916333333333333
sg19
Nsg20
Nsg21
F0.23193278785871738
sg22
F0.753
sg23
Nsg24
Nsg25
I0
ssg26
I01
sg27
I01
sba(iSong
Song
p850
(dp851
g3
(dp852
g5
F0.158
sg6
V54-46 Was My Number
p853
sg8
F0.643192
sg9
F0.373
sg10
S'raggae'
p854
sg12
F0.137
sg13
VThe Maytals
p855
sg15
I9999
sg16
F0.68
sg17
Nsg18
F0.879
sg19
Nsg20
Nsg21
F0.23193278785871738
sg22
F0.677
sg23
Nsg24
Nsg25
F1.47e-05
ssg26
I01
sg27
I01
sba(iSong
Song
p856
(dp857
g3
(dp858
g5
F0.114
sg6
VHey Baby
p859
sg8
F0.739636
sg9
F0.604
sg10
S'raggae'
p860
sg12
F0.294
sg13
VStephen Marley
p861
sg15
I9999
sg16
F0.629
sg17
Nsg18
F0.9060166666666666
sg19
Nsg20
Nsg21
F0.23193278785871738
sg22
F0.627
sg23
Nsg24
Nsg25
F3.98e-06
ssg26
I01
sg27
I01
sba(iSong
Song
p862
(dp863
g3
(dp864
g5
F0.0124
sg6
VSweat (A La La La La Long)
p865
sg8
F0.6921
sg9
F0.727
sg10
S'raggae'
p866
sg12
F0.224
sg13
VInner Circle
p867
sg15
I9999
sg16
F0.787
sg17
Nsg18
F0.8715833333333334
sg19
Nsg20
Nsg21
F0.23193278785871738
sg22
F0.936
sg23
Nsg24
Nsg25
I0
ssg26
I01
sg27
I01
sba(iSong
Song
p868
(dp869
g3
(dp870
g5
F0.025
sg6
VWaiting In Vain
p871
sg8
F0.315348
sg9
F0.453
sg10
S'raggae'
p872
sg12
F0.31
sg13
VBob Marley & The Wailers
p873
sg15
I9999
sg16
F0.838
sg17
Nsg18
F0.8077333333333333
sg19
Nsg20
Nsg21
F0.23193278785871738
sg22
F0.815
sg23
Nsg24
Nsg25
F2.42e-05
ssg26
I01
sg27
I01
sba(iSong
Song
p874
(dp875
g3
(dp876
g5
F0.35
sg6
VSuperior
p877
sg8
F0.609392
sg9
F0.756
sg10
S'raggae'
p878
sg12
F0.112
sg13
VGentleman
p879
sg15
I9999
sg16
F0.67
sg17
Nsg18
F0.9073166666666667
sg19
Nsg20
Nsg21
F0.23193278785871738
sg22
F0.972
sg23
Nsg24
Nsg25
I0
ssg26
I01
sg27
I01
sba(iSong
Song
p880
(dp881
g3
(dp882
g5
F0.02
sg6
VI Wish You Were Here
p883
sg8
F0.575976
sg9
F0.566
sg10
S'raggae'
p884
sg12
F0.0695
sg13
VAlpha Blondy
p885
sg15
I9999
sg16
F0.796
sg17
Nsg18
F0.86905
sg19
Nsg20
Nsg21
F0.23193278785871738
sg22
F0.58
sg23
Nsg24
Nsg25
F0.0181
ssg26
I01
sg27
I01
sba(iSong
Song
p886
(dp887
g3
(dp888
g5
F0.00356
sg6
VBetter Must Come
p889
sg8
F0.293956
sg9
F0.589
sg10
S'raggae'
p890
sg12
F0.104
sg13
VDelroy Wilson
p891
sg15
I9999
sg16
F0.672
sg17
Nsg18
F0.88315
sg19
Nsg20
Nsg21
F0.23193278785871738
sg22
F0.928
sg23
Nsg24
Nsg25
F8.11e-05
ssg26
I01
sg27
I01
sba(iSong
Song
p892
(dp893
g3
(dp894
g5
F0.458
sg6
VTake Me Home Country Roads
p895
sg8
F0.7064600000000001
sg9
F0.425
sg10
S'raggae'
p896
sg12
F0.0617
sg13
VToots & The Maytals
p897
sg15
I9999
sg16
F0.613
sg17
Nsg18
F0.7936
sg19
Nsg20
Nsg21
F0.23193278785871738
sg22
F0.959
sg23
Nsg24
Nsg25
F9.37e-05
ssg26
I01
sg27
I01
sba(iSong
Song
p898
(dp899
g3
(dp900
g5
F0.137
sg6
VBuffalo Soldier
p901
sg8
F0.496488
sg9
F0.462
sg10
S'raggae'
p902
sg12
F0.284
sg13
VBob Marley & The Wailers
p903
sg15
I9999
sg16
F0.932
sg17
Nsg18
F0.8556
sg19
Nsg20
Nsg21
F0.23193278785871738
sg22
F0.749
sg23
Nsg24
Nsg25
F7.91e-06
ssg26
I01
sg27
I01
sba(iSong
Song
p904
(dp905
g3
(dp906
g5
F0.157
sg6
VStart It Up
p907
sg8
F0.7205839999999999
sg9
F0.798
sg10
S'raggae'
p908
sg12
F0.0648
sg13
VZiggy Marley
p909
sg15
I9999
sg16
F0.659
sg17
Nsg18
F0.9507833333333333
sg19
Nsg20
Nsg21
F0.23193278785871738
sg22
F0.929
sg23
Nsg24
Nsg25
I0
ssg26
I01
sg27
I01
sba(iSong
Song
p910
(dp911
g3
(dp912
g5
F0.229
sg6
VAll Of Me
p913
sg8
F0.524144
sg9
F0.696
sg10
S'raggae'
p914
sg12
F0.0642
sg13
VJah Cure
p915
sg15
I9999
sg16
F0.609
sg17
Nsg18
F0.9299833333333333
sg19
Nsg20
Nsg21
F0.23193278785871738
sg22
F0.425
sg23
Nsg24
Nsg25
I0
ssg26
I01
sg27
I01
sba(iSong
Song
p916
(dp917
g3
(dp918
g5
F0.106
sg6
VRoad To Zion
p919
sg8
F0.373288
sg9
F0.698
sg10
S'raggae'
p920
sg12
F0.221
sg13
VDamian Marley
p921
sg15
I9999
sg16
F0.662
sg17
Nsg18
F0.8943833333333333
sg19
Nsg20
Nsg21
F0.23193278785871738
sg22
F0.441
sg23
Nsg24
Nsg25
I0
ssg26
I01
sg27
I01
sba(iSong
Song
p922
(dp923
g3
(dp924
g5
F0.253
sg6
VNot Because
p925
sg8
F0.561136
sg9
F0.722
sg10
S'raggae'
p926
sg12
F0.197
sg13
VRorystonelove
p927
sg15
I9999
sg16
F0.51
sg17
Nsg18
F0.9233166666666667
sg19
Nsg20
Nsg21
F0.23193278785871738
sg22
F0.719
sg23
Nsg24
Nsg25
I0
ssg26
I01
sg27
I01
sba(iSong
Song
p928
(dp929
g3
(dp930
g5
F0.0674
sg6
VThat Day Will Come
p931
sg8
F0.61348
sg9
F0.839
sg10
S'raggae'
p932
sg12
F0.114
sg13
VCapleton
p933
sg15
I9999
sg16
F0.672
sg17
Nsg18
F0.9161
sg19
Nsg20
Nsg21
F0.23193278785871738
sg22
F0.917
sg23
Nsg24
Nsg25
I0
ssg26
I01
sg27
I01
sba(iSong
Song
p934
(dp935
g3
(dp936
g5
F0.0621
sg6
VFly Rasta
p937
sg8
F0.45182799999999995
sg9
F0.694
sg10
S'raggae'
p938
sg12
F0.156
sg13
VZiggy Marley
p939
sg15
I9999
sg16
F0.816
sg17
Nsg18
F0.901
sg19
Nsg20
Nsg21
F0.23193278785871738
sg22
F0.822
sg23
Nsg24
Nsg25
I0
ssg26
I01
sg27
I01
sba(iSong
Song
p940
(dp941
g3
(dp942
g5
F0.0585
sg6
VThe International Herb
p943
sg8
F0.510744
sg9
F0.433
sg10
S'raggae'
p944
sg12
F0.337
sg13
VCulture
p945
sg15
I9999
sg16
F0.825
sg17
Nsg18
F0.7819166666666667
sg19
Nsg20
Nsg21
F0.23193278785871738
sg22
F0.687
sg23
Nsg24
Nsg25
I0
ssg26
I01
sg27
I01
sba(iSong
Song
p946
(dp947
g3
(dp948
g5
F0.0876
sg6
VKing Without a Crown - Live
p949
sg8
F0.376644
sg9
F0.771
sg10
S'raggae'
p950
sg12
F0.0609
sg13
VMatisyahu
p951
sg15
I9999
sg16
F0.604
sg17
Nsg18
F0.89015
sg19
Nsg20
Nsg21
F0.23193278785871738
sg22
F0.7
sg23
Nsg24
Nsg25
I0
ssg26
I01
sg27
I01
sba(iSong
Song
p952
(dp953
g3
(dp954
g5
F0.121
sg6
VMount Zion Medley (ft. Capleton, Jah Cure, LMS, Ras Shiloh, Bushman)
p955
sg8
F0.550888
sg9
F0.467
sg10
S'raggae'
p956
sg12
F0.295
sg13
VMorgan Heritage
p957
sg15
I9999
sg16
F0.622
sg17
Nsg18
F0.8091
sg19
Nsg20
Nsg21
F0.23193278785871738
sg22
F0.778
sg23
Nsg24
Nsg25
I0
ssg26
I01
sg27
I01
sba(iSong
Song
p958
(dp959
g3
(dp960
g5
F0.0143
sg6
VBush Doctor - 2002 Remastered Version
p961
sg8
F0.545848
sg9
F0.569
sg10
S'raggae'
p962
sg12
F0.0544
sg13
VPeter Tosh
p963
sg15
I9999
sg16
F0.762
sg17
Nsg18
F0.86895
sg19
Nsg20
Nsg21
F0.23193278785871738
sg22
F0.789
sg23
Nsg24
Nsg25
F1.45e-05
ssg26
I01
sg27
I01
sba(iSong
Song
p964
(dp965
g3
(dp966
g5
F0.0068
sg6
VKaya
p967
sg8
F0.39052
sg9
F0.529
sg10
S'raggae'
p968
sg12
F0.066
sg13
VBob Marley & The Wailers
p969
sg15
I9999
sg16
F0.815
sg17
Nsg18
F0.8105
sg19
Nsg20
Nsg21
F0.23193278785871738
sg22
F0.857
sg23
Nsg24
Nsg25
F1.72e-05
ssg26
I01
sg27
I01
sba(iSong
Song
p970
(dp971
g3
(dp972
g5
F0.0424
sg6
VWeekend's Long
p973
sg8
F0.716268
sg9
F0.711
sg10
S'raggae'
p974
sg12
F0.0354
sg13
VZiggy Marley
p975
sg15
I9999
sg16
F0.582
sg17
Nsg18
F0.9387333333333333
sg19
Nsg20
Nsg21
F0.23193278785871738
sg22
F0.867
sg23
Nsg24
Nsg25
I0
ssg26
I01
sg27
I01
sba(iSong
Song
p976
(dp977
g3
(dp978
g5
F0.0331
sg6
VPolice In Helicopter
p979
sg8
F0.56474
sg9
F0.652
sg10
S'raggae'
p980
sg12
F0.111
sg13
VJohn Holt
p981
sg15
I9999
sg16
F0.686
sg17
Nsg18
F0.8735666666666667
sg19
Nsg20
Nsg21
F0.23193278785871738
sg22
F0.503
sg23
Nsg24
Nsg25
F8.34e-06
ssg26
I01
sg27
I01
sba(iSong
Song
p982
(dp983
g3
(dp984
g5
F0.107
sg6
VCocody Rock
p985
sg8
F0.589496
sg9
F0.669
sg10
S'raggae'
p986
sg12
F0.0911
sg13
VThe Wailers
p987
sg15
I9999
sg16
F0.796
sg17
Nsg18
F0.8944500000000001
sg19
Nsg20
Nsg21
F0.23193278785871738
sg22
F0.96
sg23
Nsg24
Nsg25
F0.000113
ssg26
I01
sg27
I01
sba(iSong
Song
p988
(dp989
g3
(dp990
g5
F0.224
sg6
VWhen mi rise it
p991
sg8
F0.311076
sg9
F0.783
sg10
S'raggae'
p992
sg12
F0.215
sg13
VLutan Fyah
p993
sg15
I9999
sg16
F0.693
sg17
Nsg18
F0.93345
sg19
Nsg20
Nsg21
F0.23193278785871738
sg22
F0.774
sg23
Nsg24
Nsg25
I0
ssg26
I01
sg27
I01
sba(iSong
Song
p994
(dp995
g3
(dp996
g5
F0.172
sg6
VNuthin' Wrong With The World
p997
sg8
F0.58782
sg9
F0.82
sg10
S'raggae'
p998
sg12
F0.246
sg13
VJunior Kelly
p999
sg15
I9999
sg16
F0.699
sg17
Nsg18
F0.9328833333333333
sg19
Nsg20
Nsg21
F0.23193278785871738
sg22
F0.931
sg23
Nsg24
Nsg25
I0
ssg26
I01
sg27
I01
sba(iSong
Song
p1000
(dp1001
g3
(dp1002
g5
F0.0299
sg6
VJohnny B Goode - 2002 Remastered Version
p1003
sg8
F0.5806760000000001
sg9
F0.849
sg10
S'raggae'
p1004
sg12
F0.0544
sg13
VPeter Tosh
p1005
sg15
I9999
sg16
F0.749
sg17
Nsg18
F0.9039833333333332
sg19
Nsg20
Nsg21
F0.23193278785871738
sg22
F0.959
sg23
Nsg24
Nsg25
F0.000168
ssg26
I01
sg27
I01
sba(iSong
Song
p1006
(dp1007
g3
(dp1008
g5
F0.0673
sg6
VOne Love / People Get Ready
p1009
sg8
F0.6167440000000001
sg9
F0.516
sg10
S'raggae'
p1010
sg12
F0.366
sg13
VBob Marley & The Wailers
p1011
sg15
I9999
sg16
F0.67
sg17
Nsg18
F0.8400333333333333
sg19
Nsg20
Nsg21
F0.23193278785871738
sg22
F0.939
sg23
Nsg24
Nsg25
I0
ssg26
I01
sg27
I01
sba(iSong
Song
p1012
(dp1013
g3
(dp1014
g5
F0.101
sg6
VSunshine Reggae - Original Mix '82
p1015
sg8
F0.671264
sg9
F0.79
sg10
S'raggae'
p1016
sg12
F0.0432
sg13
VLaid Back
p1017
sg15
I9999
sg16
F0.704
sg17
Nsg18
F0.9040666666666667
sg19
Nsg20
Nsg21
F0.23193278785871738
sg22
F0.933
sg23
Nsg24
Nsg25
F0.00657
ssg26
I01
sg27
I01
sba(iSong
Song
p1018
(dp1019
g3
(dp1020
g5
F0.0392
sg6
VWorld A Reggae Music
p1021
sg8
F0.33261599999999997
sg9
F0.587
sg10
S'raggae'
p1022
sg12
F0.354
sg13
VAnthony B
p1023
sg15
I9999
sg16
F0.831
sg17
Nsg18
F0.8833833333333333
sg19
Nsg20
Nsg21
F0.23193278785871738
sg22
F0.787
sg23
Nsg24
Nsg25
I0
ssg26
I01
sg27
I01
sba(iSong
Song
p1024
(dp1025
g3
(dp1026
g5
F0.497
sg6
VOne Good Spliff
p1027
sg8
F0.431928
sg9
F0.464
sg10
S'raggae'
p1028
sg12
F0.142
sg13
VZiggy Marley & The Melody Makers
p1029
sg15
I9999
sg16
F0.617
sg17
Nsg18
F0.8013666666666667
sg19
Nsg20
Nsg21
F0.23193278785871738
sg22
F0.613
sg23
Nsg24
Nsg25
F7.08e-06
ssg26
I01
sg27
I01
sba(iSong
Song
p1030
(dp1031
g3
(dp1032
g5
F0.177
sg6
V54-46 Was My Number
p1033
sg8
F0.644536
sg9
F0.361
sg10
S'raggae'
p1034
sg12
F0.0538
sg13
VToots & The Maytals
p1035
sg15
I9999
sg16
F0.687
sg17
Nsg18
F0.83845
sg19
Nsg20
Nsg21
F0.23193278785871738
sg22
F0.578
sg23
Nsg24
Nsg25
I0
ssg26
I01
sg27
I01
sba(iSong
Song
p1036
(dp1037
g3
(dp1038
g5
F0.0807
sg6
VGames People Play
p1039
sg8
F0.682376
sg9
F0.892
sg10
S'raggae'
p1040
sg12
F0.17
sg13
VInner Circle
p1041
sg15
I9999
sg16
F0.73
sg17
Nsg18
F0.9117
sg19
Nsg20
Nsg21
F0.23193278785871738
sg22
F0.953
sg23
Nsg24
Nsg25
I0
ssg26
I01
sg27
I01
sba(iSong
Song
p1042
(dp1043
g3
(dp1044
g5
F0.0161
sg6
VHumanity (Love the Way It Should Be)
p1045
sg8
F0.52124
sg9
F0.643
sg10
S'raggae'
p1046
sg12
F0.0307
sg13
VJohn Legend
p1047
sg15
I9999
sg16
F0.46
sg17
Nsg18
F0.92805
sg19
Nsg20
Nsg21
F0.23193278785871738
sg22
F0.506
sg23
Nsg24
Nsg25
F0.00675
ssg26
I01
sg27
I01
sba(iSong
Song
p1048
(dp1049
g3
(dp1050
g5
F0.116
sg6
VAngel
p1051
sg8
F0.6821240000000001
sg9
F0.766
sg10
S'raggae'
p1052
sg12
F0.178
sg13
VShaggy
p1053
sg15
I9999
sg16
F0.74
sg17
Nsg18
F0.9510166666666666
sg19
Nsg20
Nsg21
F0.23193278785871738
sg22
F0.807
sg23
Nsg24
Nsg25
I0
ssg26
I01
sg27
I01
sba(iSong
Song
p1054
(dp1055
g3
(dp1056
g5
F0.0283
sg6
VRefugee
p1057
sg8
F0.36406
sg9
F0.836
sg10
S'raggae'
p1058
sg12
F0.0892
sg13
VSkip Marley
p1059
sg15
I9999
sg16
F0.644
sg17
Nsg18
F0.9323666666666667
sg19
Nsg20
Nsg21
F0.23193278785871738
sg22
F0.825
sg23
Nsg24
Nsg25
I0
ssg26
I01
sg27
I01
sba(iSong
Song
p1060
(dp1061
g3
(dp1062
g5
F0.108
sg6
VIs This Love
p1063
sg8
F0.488916
sg9
F0.559
sg10
S'raggae'
p1064
sg12
F0.088
sg13
VBob Marley & The Wailers
p1065
sg15
I9999
sg16
F0.775
sg17
Nsg18
F0.8603833333333333
sg19
Nsg20
Nsg21
F0.23193278785871738
sg22
F0.804
sg23
Nsg24
Nsg25
I0
ssg26
I01
sg27
I01
sba(iSong
Song
p1066
(dp1067
g3
(dp1068
g5
F0.0291
sg6
VBlind To You - Explicit Album Version
p1069
sg8
F0.6224959999999999
sg9
F0.873
sg10
S'raggae'
p1070
sg12
F0.407
sg13
VCollie Buddz
p1071
sg15
I9999
sg16
F0.624
sg17
Nsg18
F0.9274166666666666
sg19
Nsg20
Nsg21
F0.23193278785871738
sg22
F0.718
sg23
Nsg24
Nsg25
I0
ssg26
I01
sg27
I01
sba(iSong
Song
p1072
(dp1073
g3
(dp1074
g5
F0.0982
sg6
VPressure Drop - Single Version
p1075
sg8
F0.5954160000000001
sg9
F0.589
sg10
S'raggae'
p1076
sg12
F0.0413
sg13
VToots & The Maytals
p1077
sg15
I9999
sg16
F0.651
sg17
Nsg18
F0.7975666666666666
sg19
Nsg20
Nsg21
F0.23193278785871738
sg22
F0.987
sg23
Nsg24
Nsg25
I0
ssg26
I01
sg27
I01
sba(iSong
Song
p1078
(dp1079
g3
(dp1080
g5
F0.0647
sg6
VThat Day Will Come
p1081
sg8
F0.613176
sg9
F0.837
sg10
S'raggae'
p1082
sg12
F0.118
sg13
VCapleton
p1083
sg15
I9999
sg16
F0.696
sg17
Nsg18
F0.9161
sg19
Nsg20
Nsg21
F0.23193278785871738
sg22
F0.916
sg23
Nsg24
Nsg25
I0
ssg26
I01
sg27
I01
sba(iSong
Song
p1084
(dp1085
g3
(dp1086
g5
F0.000119
sg6
VTake Five
p1087
sg8
F0.595748
sg9
F0.461
sg10
S'raggae'
p1088
sg12
F0.135
sg13
VRico
p1089
sg15
I9999
sg16
F0.759
sg17
Nsg18
F0.8016500000000001
sg19
Nsg20
Nsg21
F0.23193278785871738
sg22
F0.694
sg23
Nsg24
Nsg25
F0.000138
ssg26
I01
sg27
I01
sba(iSong
Song
p1090
(dp1091
g3
(dp1092
g5
F0.0649
sg6
VI Am That I Am
p1093
sg8
F0.5841280000000001
sg9
F0.481
sg10
S'raggae'
p1094
sg12
F0.124
sg13
VPeter Tosh
p1095
sg15
I9999
sg16
F0.791
sg17
Nsg18
F0.8435
sg19
Nsg20
Nsg21
F0.23193278785871738
sg22
F0.926
sg23
Nsg24
Nsg25
F1.47e-06
ssg26
I01
sg27
I01
sba(iSong
Song
p1096
(dp1097
g3
(dp1098
g5
F0.000678
sg6
VWake Up
p1099
sg8
F0.3013
sg9
F0.778
sg10
S'raggae'
p1100
sg12
F0.301
sg13
VSizzla
p1101
sg15
I9999
sg16
F0.42
sg17
Nsg18
F0.9166500000000001
sg19
Nsg20
Nsg21
F0.23193278785871738
sg22
F0.642
sg23
Nsg24
Nsg25
I0
ssg26
I01
sg27
I01
sba(iSong
Song
p1102
(dp1103
g3
(dp1104
g5
F0.113
sg6
VOne Drop
p1105
sg8
F0.484968
sg9
F0.472
sg10
S'raggae'
p1106
sg12
F0.231
sg13
VBob Marley & The Wailers
p1107
sg15
I9999
sg16
F0.901
sg17
Nsg18
F0.87725
sg19
Nsg20
Nsg21
F0.23193278785871738
sg22
F0.828
sg23
Nsg24
Nsg25
F1e-05
ssg26
I01
sg27
I01
sba(iSong
Song
p1108
(dp1109
g3
(dp1110
g5
F0.211
sg6
VBeach In Hawaii
p1111
sg8
F0.40383600000000003
sg9
F0.458
sg10
S'raggae'
p1112
sg12
F0.0361
sg13
VZiggy Marley
p1113
sg15
I9999
sg16
F0.807
sg17
Nsg18
F0.8401
sg19
Nsg20
Nsg21
F0.23193278785871738
sg22
F0.874
sg23
Nsg24
Nsg25
F9.01e-06
ssg26
I01
sg27
I01
sba(iSong
Song
p1114
(dp1115
g3
(dp1116
g5
F0.0615
sg6
VNatty Rebel - 1990 Digital Remaster
p1117
sg8
F0.33246800000000004
sg9
F0.395
sg10
S'raggae'
p1118
sg12
F0.0721
sg13
VU-Roy
p1119
sg15
I9999
sg16
F0.813
sg17
Nsg18
F0.8071166666666667
sg19
Nsg20
Nsg21
F0.23193278785871738
sg22
F0.783
sg23
Nsg24
Nsg25
F6.72e-06
ssg26
I01
sg27
I01
sba(iSong
Song
p1120
(dp1121
g3
(dp1122
g5
F0.00394
sg6
VSinsemilla
p1123
sg8
F0.52552
sg9
F0.547
sg10
S'raggae'
p1124
sg12
F0.106
sg13
VBlack Uhuru
p1125
sg15
I9999
sg16
F0.842
sg17
Nsg18
F0.8021666666666667
sg19
Nsg20
Nsg21
F0.23193278785871738
sg22
F0.723
sg23
Nsg24
Nsg25
F0.00314
ssg26
I01
sg27
I01
sba(iSong
Song
p1126
(dp1127
g3
(dp1128
g5
F0.0381
sg6
VKingston Town
p1129
sg8
F0.29591199999999995
sg9
F0.773
sg10
S'raggae'
p1130
sg12
F0.099
sg13
VAlborosie
p1131
sg15
I9999
sg16
F0.788
sg17
Nsg18
F0.9121333333333334
sg19
Nsg20
Nsg21
F0.23193278785871738
sg22
F0.584
sg23
Nsg24
Nsg25
I0
ssg26
I01
sg27
I01
sba(iSong
Song
p1132
(dp1133
g3
(dp1134
g5
F0.0334
sg6
VBlood Money
p1135
sg8
F0.31197199999999997
sg9
F0.76
sg10
S'raggae'
p1136
sg12
F0.0906
sg13
VProtoje
p1137
sg15
I9999
sg16
F0.807
sg17
Nsg18
F0.8963666666666666
sg19
Nsg20
Nsg21
F0.23193278785871738
sg22
F0.801
sg23
Nsg24
Nsg25
I0
ssg26
I01
sg27
I01
sba(iSong
Song
p1138
(dp1139
g3
(dp1140
g5
F0.0111
sg6
VWorld A Music
p1141
sg8
F0.296332
sg9
F0.492
sg10
S'raggae'
p1142
sg12
F0.139
sg13
VIni Kamoze
p1143
sg15
I9999
sg16
F0.874
sg17
Nsg18
F0.8707999999999999
sg19
Nsg20
Nsg21
F0.23193278785871738
sg22
F0.357
sg23
Nsg24
Nsg25
F0.00801
ssg26
I01
sg27
I01
sba(iSong
Song
p1144
(dp1145
g3
(dp1146
g5
F0.306
sg6
VRunning Away - Winta James Mix
p1147
sg8
F0.599904
sg9
F0.584
sg10
S'raggae'
p1148
sg12
F0.0331
sg13
VAdy Suleiman
p1149
sg15
I9999
sg16
F0.669
sg17
Nsg18
F0.9002
sg19
Nsg20
Nsg21
F0.23193278785871738
sg22
F0.949
sg23
Nsg24
Nsg25
F0.0325
ssg26
I01
sg27
I01
sba(iSong
Song
p1150
(dp1151
g3
(dp1152
g5
F0.435
sg6
VDreadlock Holiday
p1153
sg8
F0.42005200000000004
sg9
F0.407
sg10
S'raggae'
p1154
sg12
F0.0563
sg13
V10cc
p1155
sg15
I9999
sg16
F0.837
sg17
Nsg18
F0.7930666666666667
sg19
Nsg20
Nsg21
F0.23193278785871738
sg22
F0.922
sg23
Nsg24
Nsg25
F0.000487
ssg26
I01
sg27
I01
sba(iSong
Song
p1156
(dp1157
g3
(dp1158
g5
F0.454
sg6
VTenement Yard
p1159
sg8
F0.28858
sg9
F0.399
sg10
S'raggae'
p1160
sg12
F0.322
sg13
VJacob Miller
p1161
sg15
I9999
sg16
F0.844
sg17
Nsg18
F0.7834
sg19
Nsg20
Nsg21
F0.23193278785871738
sg22
F0.973
sg23
Nsg24
Nsg25
I0
ssg26
I01
sg27
I01
sba(iSong
Song
p1162
(dp1163
g3
(dp1164
g5
F0.118
sg6
VGirls Dem Sugar - Feat. Mya
p1165
sg8
F0.497212
sg9
F0.782
sg10
S'raggae'
p1166
sg12
F0.162
sg13
VBeenie Man
p1167
sg15
I9999
sg16
F0.603
sg17
Nsg18
F0.9194666666666667
sg19
Nsg20
Nsg21
F0.23193278785871738
sg22
F0.731
sg23
Nsg24
Nsg25
I0
ssg26
I01
sg27
I01
sba(iSong
Song
p1168
(dp1169
g3
(dp1170
g5
F0.313
sg6
VI Shot The Sheriff
p1171
sg8
F0.387224
sg9
F0.641
sg10
S'raggae'
p1172
sg12
F0.171
sg13
VThe Wailers
p1173
sg15
I9999
sg16
F0.799
sg17
Nsg18
F0.8445
sg19
Nsg20
Nsg21
F0.23193278785871738
sg22
F0.719
sg23
Nsg24
Nsg25
F2.22e-05
ssg26
I01
sg27
I01
sba(iSong
Song
p1174
(dp1175
g3
(dp1176
g5
F0.197
sg6
VSmoke Marijuana
p1177
sg8
F0.275264
sg9
F0.738
sg10
S'raggae'
p1178
sg12
F0.213
sg13
VSizzla
p1179
sg15
I9999
sg16
F0.646
sg17
Nsg18
F0.9028833333333334
sg19
Nsg20
Nsg21
F0.23193278785871738
sg22
F0.622
sg23
Nsg24
Nsg25
I0
ssg26
I01
sg27
I01
sba(iSong
Song
p1180
(dp1181
g3
(dp1182
g5
F0.056
sg6
VThat Girl - feat. Shaggy
p1183
sg8
F0.554616
sg9
F0.698
sg10
S'raggae'
p1184
sg12
F0.119
sg13
VMaxi Priest
p1185
sg15
I9999
sg16
F0.667
sg17
Nsg18
F0.8775
sg19
Nsg20
Nsg21
F0.23193278785871738
sg22
F0.662
sg23
Nsg24
Nsg25
I0
ssg26
I01
sg27
I01
sba(iSong
Song
p1186
(dp1187
g3
(dp1188
g5
F0.00414
sg6
VRed Red Wine - Edit
p1189
sg8
F0.356476
sg9
F0.468
sg10
S'raggae'
p1190
sg12
F0.0476
sg13
VUB40
p1191
sg15
I9999
sg16
F0.857
sg17
Nsg18
F0.8578333333333333
sg19
Nsg20
Nsg21
F0.23193278785871738
sg22
F0.843
sg23
Nsg24
Nsg25
F1.32e-05
ssg26
I01
sg27
I01
sba(iSong
Song
p1192
(dp1193
g3
(dp1194
g5
F0.632
sg6
VThe Harder They Come
p1195
sg8
F0.410352
sg9
F0.575
sg10
S'raggae'
p1196
sg12
F0.0717
sg13
VJimmy Cliff
p1197
sg15
I9999
sg16
F0.679
sg17
Nsg18
F0.86605
sg19
Nsg20
Nsg21
F0.23193278785871738
sg22
F0.79
sg23
Nsg24
Nsg25
I0
ssg26
I01
sg27
I01
sba(iSong
Song
p1198
(dp1199
g3
(dp1200
g5
F0.122
sg6
VLiving In Love
p1201
sg8
F0.314096
sg9
F0.827
sg10
S'raggae'
p1202
sg12
F0.242
sg13
VI Wayne
p1203
sg15
I9999
sg16
F0.608
sg17
Nsg18
F0.9192
sg19
Nsg20
Nsg21
F0.23193278785871738
sg22
F0.964
sg23
Nsg24
Nsg25
I0
ssg26
I01
sg27
I01
sba(iSong
Song
p1204
(dp1205
g3
(dp1206
g5
F0.00208
sg6
VIt Don't Make Any Difference To Me (feat. Wyclef Jean) - Supa Dupes Remix
p1207
sg8
F0.354016
sg9
F0.664
sg10
S'raggae'
p1208
sg12
F0.0388
sg13
VKevin Michael
p1209
sg15
I9999
sg16
F0.726
sg17
Nsg18
F0.8893166666666666
sg19
Nsg20
Nsg21
F0.23193278785871738
sg22
F0.387
sg23
Nsg24
Nsg25
I0
ssg26
I01
sg27
I01
sba(iSong
Song
p1210
(dp1211
g3
(dp1212
g5
F0.198
sg6
VOne Day - New Album Version
p1213
sg8
F0.274208
sg9
F0.61
sg10
S'raggae'
p1214
sg12
F0.15
sg13
VMatisyahu
p1215
sg15
I9999
sg16
F0.346
sg17
Nsg18
F0.9030333333333334
sg19
Nsg20
Nsg21
F0.23193278785871738
sg22
F0.235
sg23
Nsg24
Nsg25
I0
ssg26
I01
sg27
I01
sba(iSong
Song
p1216
(dp1217
g3
(dp1218
g5
F0.107
sg6
VJamming
p1219
sg8
F0.494576
sg9
F0.479
sg10
S'raggae'
p1220
sg12
F0.306
sg13
VBob Marley & The Wailers
p1221
sg15
I9999
sg16
F0.935
sg17
Nsg18
F0.8169833333333333
sg19
Nsg20
Nsg21
F0.23193278785871738
sg22
F0.773
sg23
Nsg24
Nsg25
F5.25e-05
ssg26
I01
sg27
I01
sba(iSong
Song
p1222
(dp1223
g3
(dp1224
g5
F0.323
sg6
VIn My Arms
p1225
sg8
F0.30393200000000004
sg9
F0.872
sg10
S'raggae'
p1226
sg12
F0.127
sg13
VBeres Hammond
p1227
sg15
I9999
sg16
F0.682
sg17
Nsg18
F0.9272833333333333
sg19
Nsg20
Nsg21
F0.23193278785871738
sg22
F0.849
sg23
Nsg24
Nsg25
I0
ssg26
I01
sg27
I01
sba(iSong
Song
p1228
(dp1229
g3
(dp1230
g5
F0.0887
sg6
VCool Down The Pace
p1231
sg8
F0.30548000000000003
sg9
F0.266
sg10
S'raggae'
p1232
sg12
F0.264
sg13
VGregory Isaacs
p1233
sg15
I9999
sg16
F0.87
sg17
Nsg18
F0.7406833333333334
sg19
Nsg20
Nsg21
F0.23193278785871738
sg22
F0.929
sg23
Nsg24
Nsg25
F0.0217
ssg26
I01
sg27
I01
sba(iSong
Song
p1234
(dp1235
g3
(dp1236
g5
F0.00626
sg6
VYou Don't Love Me (No, No, No)
p1237
sg8
F0.336012
sg9
F0.64
sg10
S'raggae'
p1238
sg12
F0.0728
sg13
VRihanna
p1239
sg15
I9999
sg16
F0.688
sg17
Nsg18
F0.8826
sg19
Nsg20
Nsg21
F0.23193278785871738
sg22
F0.63
sg23
Nsg24
Nsg25
F2.72e-06
ssg26
I01
sg27
I01
sba(iSong
Song
p1240
(dp1241
g3
(dp1242
g5
F0.00788
sg6
VIt's A Pity
p1243
sg8
F0.558476
sg9
F0.811
sg10
S'raggae'
p1244
sg12
F0.332
sg13
VTanya Stephens
p1245
sg15
I9999
sg16
F0.66
sg17
Nsg18
F0.9092
sg19
Nsg20
Nsg21
F0.23193278785871738
sg22
F0.821
sg23
Nsg24
Nsg25
I0
ssg26
I01
sg27
I01
sba(iSong
Song
p1246
(dp1247
g3
(dp1248
g5
F0.00834
sg6
VShe's Royal
p1249
sg8
F0.312388
sg9
F0.459
sg10
S'raggae'
p1250
sg12
F0.109
sg13
VTarrus Riley
p1251
sg15
I9999
sg16
F0.758
sg17
Nsg18
F0.9008833333333333
sg19
Nsg20
Nsg21
F0.23193278785871738
sg22
F0.828
sg23
Nsg24
Nsg25
I0
ssg26
I01
sg27
I01
sba(iSong
Song
p1252
(dp1253
g3
(dp1254
g5
F0.381
sg6
VWanted Dread and Alive - 2002 Remastered Version
p1255
sg8
F0.384644
sg9
F0.731
sg10
S'raggae'
p1256
sg12
F0.0529
sg13
VPeter Tosh
p1257
sg15
I9999
sg16
F0.795
sg17
Nsg18
F0.8990666666666667
sg19
Nsg20
Nsg21
F0.23193278785871738
sg22
F0.884
sg23
Nsg24
Nsg25
F0.00163
ssg26
I01
sg27
I01
sba(iSong
Song
p1258
(dp1259
g3
(dp1260
g5
F0.0176
sg6
VSinsemilla
p1261
sg8
F0.5248999999999999
sg9
F0.565
sg10
S'raggae'
p1262
sg12
F0.0969
sg13
VBlack Uhuru
p1263
sg15
I9999
sg16
F0.85
sg17
Nsg18
F0.8184833333333333
sg19
Nsg20
Nsg21
F0.23193278785871738
sg22
F0.709
sg23
Nsg24
Nsg25
F0.0217
ssg26
I01
sg27
I01
sba(iSong
Song
p1264
(dp1265
g3
(dp1266
g5
F0.0528
sg6
VBaby, I Love Your Way
p1267
sg8
F0.590072
sg9
F0.747
sg10
S'raggae'
p1268
sg12
F0.0699
sg13
VBig Mountain
p1269
sg15
I9999
sg16
F0.651
sg17
Nsg18
F0.87885
sg19
Nsg20
Nsg21
F0.23193278785871738
sg22
F0.776
sg23
Nsg24
Nsg25
I0
ssg26
I01
sg27
I01
sba(iSong
Song
p1270
(dp1271
g3
(dp1272
g5
F0.0276
sg6
VDash Wata
p1273
sg8
F0.308124
sg9
F0.566
sg10
S'raggae'
p1274
sg12
F0.146
sg13
VRaging Fyah
p1275
sg15
I9999
sg16
F0.844
sg17
Nsg18
F0.9073333333333333
sg19
Nsg20
Nsg21
F0.23193278785871738
sg22
F0.82
sg23
Nsg24
Nsg25
F2.65e-06
ssg26
I01
sg27
I01
sba(iSong
Song
p1276
(dp1277
g3
(dp1278
g5
F0.0673
sg6
VEverything Nice
p1279
sg8
F0.39649599999999996
sg9
F0.603
sg10
S'raggae'
p1280
sg12
F0.198
sg13
VPopcaan
p1281
sg15
I9999
sg16
F0.461
sg17
Nsg18
F0.8564
sg19
Nsg20
Nsg21
F0.23193278785871738
sg22
F0.185
sg23
Nsg24
Nsg25
I0
ssg26
I01
sg27
I01
sba(iSong
Song
p1282
(dp1283
g3
(dp1284
g5
F0.0986
sg6
VThat Day Will Come
p1285
sg8
F0.61348
sg9
F0.802
sg10
S'raggae'
p1286
sg12
F0.114
sg13
VCapleton
p1287
sg15
I9999
sg16
F0.687
sg17
Nsg18
F0.8999166666666666
sg19
Nsg20
Nsg21
F0.23193278785871738
sg22
F0.908
sg23
Nsg24
Nsg25
I0
ssg26
I01
sg27
I01
sba(iSong
Song
p1288
(dp1289
g3
(dp1290
g5
F0.168
sg6
VBrown Skin
p1291
sg8
F0.320072
sg9
F0.601
sg10
S'raggae'
p1292
sg12
F0.256
sg13
VRichie Spice
p1293
sg15
I9999
sg16
F0.765
sg17
Nsg18
F0.8766833333333334
sg19
Nsg20
Nsg21
F0.23193278785871738
sg22
F0.773
sg23
Nsg24
Nsg25
F0.00976
ssg26
I01
sg27
I01
sba(iSong
Song
p1294
(dp1295
g3
(dp1296
g5
F0.112
sg6
VThey Gonna Talk
p1297
sg8
F0.621444
sg9
F0.63
sg10
S'raggae'
p1298
sg12
F0.124
sg13
VBeres Hammond
p1299
sg15
I9999
sg16
F0.687
sg17
Nsg18
F0.88615
sg19
Nsg20
Nsg21
F0.23193278785871738
sg22
F0.864
sg23
Nsg24
Nsg25
I0
ssg26
I01
sg27
I01
sba(iSong
Song
p1300
(dp1301
g3
(dp1302
g5
F0.00224
sg6
VWorld A Reggae (Out In The Street They Call It Murder)
p1303
sg8
F0.314376
sg9
F0.5
sg10
S'raggae'
p1304
sg12
F0.063
sg13
VIni Kamoze
p1305
sg15
I9999
sg16
F0.867
sg17
Nsg18
F0.8929666666666667
sg19
Nsg20
Nsg21
F0.23193278785871738
sg22
F0.801
sg23
Nsg24
Nsg25
I0
ssg26
I01
sg27
I01
sba(iSong
Song
p1306
(dp1307
g3
(dp1308
g5
F0.0194
sg6
VWelcome To Jamrock
p1309
sg8
F0.30655200000000005
sg9
F0.666
sg10
S'raggae'
p1310
sg12
F0.335
sg13
VDamian Marley
p1311
sg15
I9999
sg16
F0.801
sg17
Nsg18
F0.8907
sg19
Nsg20
Nsg21
F0.23193278785871738
sg22
F0.759
sg23
Nsg24
Nsg25
I0
ssg26
I01
sg27
I01
sba(iSong
Song
p1312
(dp1313
g3
(dp1314
g5
F0.149
sg6
VLikes
p1315
sg8
F0.36803199999999997
sg9
F0.766
sg10
S'raggae'
p1316
sg12
F0.126
sg13
VChronixx
p1317
sg15
I9999
sg16
F0.771
sg17
Nsg18
F0.9035
sg19
Nsg20
Nsg21
F0.23193278785871738
sg22
F0.921
sg23
Nsg24
Nsg25
I0
ssg26
I01
sg27
I01
sba(iSong
Song
p1318
(dp1319
g3
(dp1320
g5
F0.0144
sg6
VHeaven In Her Eyes
p1321
sg8
F0.340048
sg9
F0.484
sg10
S'raggae'
p1322
sg12
F0.0509
sg13
VGappy Ranks
p1323
sg15
I9999
sg16
F0.881
sg17
Nsg18
F0.8955333333333333
sg19
Nsg20
Nsg21
F0.23193278785871738
sg22
F0.67
sg23
Nsg24
Nsg25
F0.000611
ssg26
I01
sg27
I01
sba(iSong
Song
p1324
(dp1325
g3
(dp1326
g5
F0.0733
sg6
VGhetto Paradise
p1327
sg8
F0.703604
sg9
F0.687
sg10
S'raggae'
p1328
sg12
F0.222
sg13
VChronixx
p1329
sg15
I9999
sg16
F0.69
sg17
Nsg18
F0.9012166666666667
sg19
Nsg20
Nsg21
F0.23193278785871738
sg22
F0.508
sg23
Nsg24
Nsg25
I0
ssg26
I01
sg27
I01
sba(iSong
Song
p1330
(dp1331
g3
(dp1332
g5
F0.0262
sg6
VYouth Dem Cold
p1333
sg8
F0.33028399999999997
sg9
F0.719
sg10
S'raggae'
p1334
sg12
F0.344
sg13
VRichie Spice
p1335
sg15
I9999
sg16
F0.624
sg17
Nsg18
F0.8994333333333333
sg19
Nsg20
Nsg21
F0.23193278785871738
sg22
F0.781
sg23
Nsg24
Nsg25
I0
ssg26
I01
sg27
I01
sba(iSong
Song
p1336
(dp1337
g3
(dp1338
g5
F0.121
sg6
VMount Zion Medley (ft. Capleton, Jah Cure, LMS, Ras Shiloh, Bushman)
p1339
sg8
F0.550888
sg9
F0.467
sg10
S'raggae'
p1340
sg12
F0.295
sg13
VMorgan Heritage
p1341
sg15
I9999
sg16
F0.622
sg17
Nsg18
F0.8091
sg19
Nsg20
Nsg21
F0.23193278785871738
sg22
F0.778
sg23
Nsg24
Nsg25
I0
ssg26
I01
sg27
I01
sba(iSong
Song
p1342
(dp1343
g3
(dp1344
g5
F0.0102
sg6
VThree Little Birds
p1345
sg8
F0.593964
sg9
F0.487
sg10
S'raggae'
p1346
sg12
F0.0758
sg13
VBob Marley & The Wailers
p1347
sg15
I9999
sg16
F0.807
sg17
Nsg18
F0.8257333333333333
sg19
Nsg20
Nsg21
F0.23193278785871738
sg22
F0.651
sg23
Nsg24
Nsg25
F1.98e-06
ssg26
I01
sg27
I01
sba(iSong
Song
p1348
(dp1349
g3
(dp1350
g5
F0.29
sg6
VLonging For
p1351
sg8
F0.67174
sg9
F0.541
sg10
S'raggae'
p1352
sg12
F0.293
sg13
VJah Cure
p1353
sg15
I9999
sg16
F0.67
sg17
Nsg18
F0.8764166666666667
sg19
Nsg20
Nsg21
F0.23193278785871738
sg22
F0.488
sg23
Nsg24
Nsg25
F3.11e-06
ssg26
I01
sg27
I01
sba(iSong
Song
p1354
(dp1355
g3
(dp1356
g5
F0.145
sg6
VHail H.I.M.
p1357
sg8
F0.551428
sg9
F0.649
sg10
S'raggae'
p1358
sg12
F0.0578
sg13
VBurning Spear
p1359
sg15
I9999
sg16
F0.781
sg17
Nsg18
F0.8694833333333333
sg19
Nsg20
Nsg21
F0.23193278785871738
sg22
F0.689
sg23
Nsg24
Nsg25
F0.177
ssg26
I01
sg27
I01
sba(iSong
Song
p1360
(dp1361
g3
(dp1362
g5
F0.0139
sg6
VAmsterdam
p1363
sg8
F0.660172
sg9
F0.41
sg10
S'raggae'
p1364
sg12
F0.0758
sg13
VMungo's Hi Fi
p1365
sg15
I9999
sg16
F0.858
sg17
Nsg18
F0.8357666666666667
sg19
Nsg20
Nsg21
F0.23193278785871738
sg22
F0.723
sg23
Nsg24
Nsg25
I0
ssg26
I01
sg27
I01
sba(iSong
Song
p1366
(dp1367
g3
(dp1368
g5
F0.0737
sg6
VSmile Jamaica - Remastered
p1369
sg8
F0.591884
sg9
F0.656
sg10
S'raggae'
p1370
sg12
F0.134
sg13
VChronixx
p1371
sg15
I9999
sg16
F0.762
sg17
Nsg18
F0.8915000000000001
sg19
Nsg20
Nsg21
F0.23193278785871738
sg22
F0.94
sg23
Nsg24
Nsg25
I0
ssg26
I01
sg27
I01
sba(iSong
Song
p1372
(dp1373
g3
(dp1374
g5
F0.308
sg6
VNo Money
p1375
sg8
F0.32796
sg9
F0.69
sg10
S'raggae'
p1376
sg12
F0.259
sg13
VRomain Virgo
p1377
sg15
I9999
sg16
F0.753
sg17
Nsg18
F0.9508833333333333
sg19
Nsg20
Nsg21
F0.23193278785871738
sg22
F0.916
sg23
Nsg24
Nsg25
I0
ssg26
I01
sg27
I01
sba(iSong
Song
p1378
(dp1379
g3
(dp1380
g5
F0.00681
sg6
VLove And Affection
p1381
sg8
F0.345408
sg9
F0.686
sg10
S'raggae'
p1382
sg12
F0.174
sg13
VPressure
p1383
sg15
I9999
sg16
F0.664
sg17
Nsg18
F0.8971166666666667
sg19
Nsg20
Nsg21
F0.23193278785871738
sg22
F0.529
sg23
Nsg24
Nsg25
I0
ssg26
I01
sg27
I01
sba(iSong
Song
p1384
(dp1385
g3
(dp1386
g5
F0.00665
sg6
VSolid As A Rock
p1387
sg8
F0.5773959999999999
sg9
F0.681
sg10
S'raggae'
p1388
sg12
F0.197
sg13
VSizzla
p1389
sg15
I9999
sg16
F0.721
sg17
Nsg18
F0.8955833333333333
sg19
Nsg20
Nsg21
F0.23193278785871738
sg22
F0.495
sg23
Nsg24
Nsg25
I0
ssg26
I01
sg27
I01
sba(iSong
Song
p1390
(dp1391
g3
(dp1392
g5
F0.0772
sg6
VCan't Stop Now
p1393
sg8
F0.32619600000000004
sg9
F0.604
sg10
S'raggae'
p1394
sg12
F0.141
sg13
VMajor Lazer
p1395
sg15
I9999
sg16
F0.717
sg17
Nsg18
F0.8967666666666666
sg19
Nsg20
Nsg21
F0.23193278785871738
sg22
F0.585
sg23
Nsg24
Nsg25
F0.000243
ssg26
I01
sg27
I01
sba(iSong
Song
p1396
(dp1397
g3
(dp1398
g5
F0.0597
sg6
VWhere Were U
p1399
sg8
F0.406584
sg9
F0.643
sg10
S'raggae'
p1400
sg12
F0.0909
sg13
Vjahmiel
p1401
sg15
I9999
sg16
F0.574
sg17
Nsg18
F0.8858499999999999
sg19
Nsg20
Nsg21
F0.23193278785871738
sg22
F0.651
sg23
Nsg24
Nsg25
I0
ssg26
I01
sg27
I01
sba(iSong
Song
p1402
(dp1403
g3
(dp1404
g5
F0.00281
sg6
VMissing You
p1405
sg8
F0.667276
sg9
F0.223
sg10
S'raggae'
p1406
sg12
F0.266
sg13
VSanchez
p1407
sg15
I9999
sg16
F0.786
sg17
Nsg18
F0.7859333333333333
sg19
Nsg20
Nsg21
F0.23193278785871738
sg22
F0.84
sg23
Nsg24
Nsg25
F6.03e-06
ssg26
I01
sg27
I01
sba(iSong
Song
p1408
(dp1409
g3
(dp1410
g5
F0.0379
sg6
VJust One Of Those Days
p1411
sg8
F0.592068
sg9
F0.604
sg10
S'raggae'
p1412
sg12
F0.165
sg13
VSizzla
p1413
sg15
I9999
sg16
F0.704
sg17
Nsg18
F0.9036666666666666
sg19
Nsg20
Nsg21
F0.23193278785871738
sg22
F0.522
sg23
Nsg24
Nsg25
I0
ssg26
I01
sg27
I01
sba(iSong
Song
p1414
(dp1415
g3
(dp1416
g5
F0.0381
sg6
VKingston Town
p1417
sg8
F0.29591199999999995
sg9
F0.773
sg10
S'raggae'
p1418
sg12
F0.099
sg13
VAlborosie
p1419
sg15
I9999
sg16
F0.788
sg17
Nsg18
F0.9121333333333334
sg19
Nsg20
Nsg21
F0.23193278785871738
sg22
F0.584
sg23
Nsg24
Nsg25
I0
ssg26
I01
sg27
I01
sba(iSong
Song
p1420
(dp1421
g3
(dp1422
g5
F0.0134
sg6
VCarnival Horns
p1423
sg8
F0.340292
sg9
F0.788
sg10
S'raggae'
p1424
sg12
F0.0654
sg13
VMista Savona
p1425
sg15
I9999
sg16
F0.692
sg17
Nsg18
F0.89235
sg19
Nsg20
Nsg21
F0.23193278785871738
sg22
F0.806
sg23
Nsg24
Nsg25
F0.856
ssg26
I01
sg27
I01
sba(iSong
Song
p1426
(dp1427
g3
(dp1428
g5
F0.00168
sg6
VNobody Has To Know
p1429
sg8
F0.339932
sg9
F0.682
sg10
S'raggae'
p1430
sg12
F0.173
sg13
VKranium
p1431
sg15
I9999
sg16
F0.792
sg17
Nsg18
F0.9173333333333333
sg19
Nsg20
Nsg21
F0.23193278785871738
sg22
F0.666
sg23
Nsg24
Nsg25
I0
ssg26
I01
sg27
I01
sba(iSong
Song
p1432
(dp1433
g3
(dp1434
g5
F0.292
sg6
VReal Love
p1435
sg8
F0.298968
sg9
F0.588
sg10
S'raggae'
p1436
sg12
F0.0775
sg13
VJesse Royal
p1437
sg15
I9999
sg16
F0.543
sg17
Nsg18
F0.9272333333333334
sg19
Nsg20
Nsg21
F0.23193278785871738
sg22
F0.211
sg23
Nsg24
Nsg25
F1.92e-05
ssg26
I01
sg27
I01
sba(iSong
Song
p1438
(dp1439
g3
(dp1440
g5
F0.0608
sg6
VLiving It Up
p1441
sg8
F0.388016
sg9
F0.676
sg10
S'raggae'
p1442
sg12
F0.172
sg13
VDamian Marley
p1443
sg15
I9999
sg16
F0.714
sg17
Nsg18
F0.8881666666666667
sg19
Nsg20
Nsg21
F0.23193278785871738
sg22
F0.799
sg23
Nsg24
Nsg25
I0
ssg26
I01
sg27
I01
sba(iSong
Song
p1444
(dp1445
g3
(dp1446
g5
F0.102
sg6
VI'm Still In Love With You (feat. Sasha)
p1447
sg8
F0.348008
sg9
F0.666
sg10
S'raggae'
p1448
sg12
F0.172
sg13
VSean Paul
p1449
sg15
I9999
sg16
F0.765
sg17
Nsg18
F0.9102666666666667
sg19
Nsg20
Nsg21
F0.23193278785871738
sg22
F0.756
sg23
Nsg24
Nsg25
I0
ssg26
I01
sg27
I01
sba(iSong
Song
p1450
(dp1451
g3
(dp1452
g5
F0.526
sg6
VNuh Compatible
p1453
sg8
F0.695016
sg9
F0.686
sg10
S'raggae'
p1454
sg12
F0.255
sg13
VBugle
p1455
sg15
I9999
sg16
F0.455
sg17
Nsg18
F0.92455
sg19
Nsg20
Nsg21
F0.23193278785871738
sg22
F0.623
sg23
Nsg24
Nsg25
I0
ssg26
I01
sg27
I01
sba(iSong
Song
p1456
(dp1457
g3
(dp1458
g5
F0.0337
sg6
VCool Runnings
p1459
sg8
F0.292964
sg9
F0.564
sg10
S'raggae'
p1460
sg12
F0.181
sg13
VDuane Stephenson
p1461
sg15
I9999
sg16
F0.852
sg17
Nsg18
F0.8931833333333333
sg19
Nsg20
Nsg21
F0.23193278785871738
sg22
F0.766
sg23
Nsg24
Nsg25
I0
ssg26
I01
sg27
I01
sba(iSong
Song
p1462
(dp1463
g3
(dp1464
g5
F0.0059
sg6
VLoving You In Dub
p1465
sg8
F0.668124
sg9
F0.733
sg10
S'raggae'
p1466
sg12
F0.0809
sg13
VEtana
p1467
sg15
I9999
sg16
F0.664
sg17
Nsg18
F0.8955333333333333
sg19
Nsg20
Nsg21
F0.23193278785871738
sg22
F0.851
sg23
Nsg24
Nsg25
F0.00482
ssg26
I01
sg27
I01
sba(iSong
Song
p1468
(dp1469
g3
(dp1470
g5
F0.367
sg6
VThe Rain
p1471
sg8
F0.656064
sg9
F0.552
sg10
S'raggae'
p1472
sg12
F0.276
sg13
VGappy Ranks
p1473
sg15
I9999
sg16
F0.691
sg17
Nsg18
F0.87875
sg19
Nsg20
Nsg21
F0.23193278785871738
sg22
F0.841
sg23
Nsg24
Nsg25
I0
ssg26
I01
sg27
I01
sba(iSong
Song
p1474
(dp1475
g3
(dp1476
g5
F0.034
sg6
VThe Voices Of Sweet Jamaica - All Star Remix
p1477
sg8
F0.6962079999999999
sg9
F0.71
sg10
S'raggae'
p1478
sg12
F0.134
sg13
VShaggy
p1479
sg15
I9999
sg16
F0.669
sg17
Nsg18
F0.9392666666666667
sg19
Nsg20
Nsg21
F0.23193278785871738
sg22
F0.908
sg23
Nsg24
Nsg25
I0
ssg26
I01
sg27
I01
sba(iSong
Song
p1480
(dp1481
g3
(dp1482
g5
F0.0106
sg6
VFoundation
p1483
sg8
F0.34012400000000004
sg9
F0.547
sg10
S'raggae'
p1484
sg12
F0.0534
sg13
VToddla T
p1485
sg15
I9999
sg16
F0.442
sg17
Nsg18
F0.8654
sg19
Nsg20
Nsg21
F0.23193278785871738
sg22
F0.34
sg23
Nsg24
Nsg25
F0.887
ssg26
I01
sg27
I01
sba(iSong
Song
p1486
(dp1487
g3
(dp1488
g5
F0.121
sg6
VSuperstar
p1489
sg8
F0.600244
sg9
F0.627
sg10
S'raggae'
p1490
sg12
F0.0362
sg13
VHollie Cook
p1491
sg15
I9999
sg16
F0.733
sg17
Nsg18
F0.8360833333333333
sg19
Nsg20
Nsg21
F0.23193278785871738
sg22
F0.713
sg23
Nsg24
Nsg25
F0.0671
ssg26
I01
sg27
I01
sba(iSong
Song
p1492
(dp1493
g3
(dp1494
g5
F0.0809
sg6
VSkankin' Sweet
p1495
sg8
F0.31194
sg9
F0.668
sg10
S'raggae'
p1496
sg12
F0.0802
sg13
VChronixx
p1497
sg15
I9999
sg16
F0.734
sg17
Nsg18
F0.90865
sg19
Nsg20
Nsg21
F0.23193278785871738
sg22
F0.673
sg23
Nsg24
Nsg25
F1.27e-06
ssg26
I01
sg27
I01
sba(iSong
Song
p1498
(dp1499
g3
(dp1500
g5
F0.0334
sg6
VBlood Money
p1501
sg8
F0.31197199999999997
sg9
F0.76
sg10
S'raggae'
p1502
sg12
F0.0906
sg13
VProtoje
p1503
sg15
I9999
sg16
F0.807
sg17
Nsg18
F0.8963666666666666
sg19
Nsg20
Nsg21
F0.23193278785871738
sg22
F0.801
sg23
Nsg24
Nsg25
I0
ssg26
I01
sg27
I01
sba(iSong
Song
p1504
(dp1505
g3
(dp1506
g5
F0.805
sg6
VMy Attention
p1507
sg8
F0.428104
sg9
F0.347
sg10
S'raggae'
p1508
sg12
F0.153
sg13
Vjahmiel
p1509
sg15
I9999
sg16
F0.611
sg17
Nsg18
F0.8382333333333333
sg19
Nsg20
Nsg21
F0.23193278785871738
sg22
F0.454
sg23
Nsg24
Nsg25
I0
ssg26
I01
sg27
I01
sba(iSong
Song
p1510
(dp1511
g3
(dp1512
g5
F0.803
sg6
VTight in Size
p1513
sg8
F0.313344
sg9
F0.411
sg10
S'raggae'
p1514
sg12
F0.196
sg13
VLaden
p1515
sg15
I9999
sg16
F0.595
sg17
Nsg18
F0.8446
sg19
Nsg20
Nsg21
F0.23193278785871738
sg22
F0.589
sg23
Nsg24
Nsg25
I0
ssg26
I01
sg27
I01
sba(iSong
Song
p1516
(dp1517
g3
(dp1518
g5
F0.0722
sg6
VSticky
p1519
sg8
F0.657404
sg9
F0.686
sg10
S'raggae'
p1520
sg12
F0.223
sg13
VJah Cure
p1521
sg15
I9999
sg16
F0.59
sg17
Nsg18
F0.9326666666666666
sg19
Nsg20
Nsg21
F0.23193278785871738
sg22
F0.765
sg23
Nsg24
Nsg25
I0
ssg26
I01
sg27
I01
sba(iSong
Song
p1522
(dp1523
g3
(dp1524
g5
F0.318
sg6
VDeeper
p1525
sg8
F0.335836
sg9
F0.585
sg10
S'raggae'
p1526
sg12
F0.143
sg13
VAlaine
p1527
sg15
I9999
sg16
F0.678
sg17
Nsg18
F0.9172833333333333
sg19
Nsg20
Nsg21
F0.23193278785871738
sg22
F0.627
sg23
Nsg24
Nsg25
I0
ssg26
I01
sg27
I01
sba(iSong
Song
p1528
(dp1529
g3
(dp1530
g5
F0.457
sg6
VTell Me Now
p1531
sg8
F0.338884
sg9
F0.651
sg10
S'raggae'
p1532
sg12
F0.0635
sg13
VChronixx
p1533
sg15
I9999
sg16
F0.456
sg17
Nsg18
F0.8677499999999999
sg19
Nsg20
Nsg21
F0.23193278785871738
sg22
F0.662
sg23
Nsg24
Nsg25
F1.29e-05
ssg26
I01
sg27
I01
sba(iSong
Song
p1534
(dp1535
g3
(dp1536
g5
F0.0292
sg6
VWaiting In Vain
p1537
sg8
F0.315156
sg9
F0.457
sg10
S'raggae'
p1538
sg12
F0.327
sg13
VBob Marley & The Wailers
p1539
sg15
I9999
sg16
F0.769
sg17
Nsg18
F0.8083166666666667
sg19
Nsg20
Nsg21
F0.23193278785871738
sg22
F0.806
sg23
Nsg24
Nsg25
F3.07e-05
ssg26
I01
sg27
I01
sba(iSong
Song
p1540
(dp1541
g3
(dp1542
g5
F0.267
sg6
VBeautiful
p1543
sg8
F0.696492
sg9
F0.721
sg10
S'raggae'
p1544
sg12
F0.27
sg13
VKonshens
p1545
sg15
I9999
sg16
F0.526
sg17
Nsg18
F0.8962166666666666
sg19
Nsg20
Nsg21
F0.23193278785871738
sg22
F0.811
sg23
Nsg24
Nsg25
I0
ssg26
I01
sg27
I01
sba(iSong
Song
p1546
(dp1547
g3
(dp1548
g5
F0.0765
sg6
VGood Enuff - Cash Flow Dub
p1549
sg8
F0.320056
sg9
F0.837
sg10
S'raggae'
p1550
sg12
F0.283
sg13
VMajor Lazer
p1551
sg15
I9999
sg16
F0.612
sg17
Nsg18
F0.9113666666666667
sg19
Nsg20
Nsg21
F0.23193278785871738
sg22
F0.442
sg23
Nsg24
Nsg25
I0
ssg26
I01
sg27
I01
sba(iSong
Song
p1552
(dp1553
g3
(dp1554
g5
F0.0847
sg6
VBeautiful
p1555
sg8
F0.371916
sg9
F0.873
sg10
S'raggae'
p1556
sg12
F0.112
sg13
VDamian Marley
p1557
sg15
I9999
sg16
F0.706
sg17
Nsg18
F0.9162833333333334
sg19
Nsg20
Nsg21
F0.23193278785871738
sg22
F0.83
sg23
Nsg24
Nsg25
I0
ssg26
I01
sg27
I01
sba(iSong
Song
p1558
(dp1559
g3
(dp1560
g5
F0.61
sg6
VNo One Else but You - In Dub
p1561
sg8
F0.615756
sg9
F0.632
sg10
S'raggae'
p1562
sg12
F0.0597
sg13
VGlen Washington
p1563
sg15
I9999
sg16
F0.506
sg17
Nsg18
F0.8661666666666666
sg19
Nsg20
Nsg21
F0.23193278785871738
sg22
F0.558
sg23
Nsg24
Nsg25
F1.15e-05
ssg26
I01
sg27
I01
sba(iSong
Song
p1564
(dp1565
g3
(dp1566
g5
F0.354
sg6
VSuperior
p1567
sg8
F0.609428
sg9
F0.768
sg10
S'raggae'
p1568
sg12
F0.124
sg13
VGentleman
p1569
sg15
I9999
sg16
F0.666
sg17
Nsg18
F0.90735
sg19
Nsg20
Nsg21
F0.23193278785871738
sg22
F0.972
sg23
Nsg24
Nsg25
I0
ssg26
I01
sg27
I01
sba(iSong
Song
p1570
(dp1571
g3
(dp1572
g5
F0.0867
sg6
VMore Justice
p1573
sg8
F0.31074
sg9
F0.7
sg10
S'raggae'
p1574
sg12
F0.278
sg13
VDamian Marley
p1575
sg15
I9999
sg16
F0.741
sg17
Nsg18
F0.9195833333333333
sg19
Nsg20
Nsg21
F0.23193278785871738
sg22
F0.886
sg23
Nsg24
Nsg25
I0
ssg26
I01
sg27
I01
sba(iSong
Song
p1576
(dp1577
g3
(dp1578
g5
F0.0381
sg6
VFast Wine
p1579
sg8
F0.431984
sg9
F0.892
sg10
S'raggae'
p1580
sg12
F0.0473
sg13
VMachel Montano
p1581
sg15
I9999
sg16
F0.887
sg17
Nsg18
F0.9609
sg19
Nsg20
Nsg21
F0.23193278785871738
sg22
F0.574
sg23
Nsg24
Nsg25
F3.27e-05
ssg26
I01
sg27
I01
sba(iSong
Song
p1582
(dp1583
g3
(dp1584
g5
F0.07
sg6
VFreaky Girls
p1585
sg8
F0.349012
sg9
F0.705
sg10
S'raggae'
p1586
sg12
F0.146
sg13
VRicky T
p1587
sg15
I9999
sg16
F0.539
sg17
Nsg18
F0.84165
sg19
Nsg20
Nsg21
F0.23193278785871738
sg22
F0.64
sg23
Nsg24
Nsg25
I0
ssg26
I01
sg27
I01
sba(iSong
Song
p1588
(dp1589
g3
(dp1590
g5
F0.0656
sg6
VBuss Head
p1591
sg8
F0.50402
sg9
F0.835
sg10
S'raggae'
p1592
sg12
F0.077
sg13
VMachel Montano
p1593
sg15
I9999
sg16
F0.738
sg17
Nsg18
F0.9125333333333334
sg19
Nsg20
Nsg21
F0.23193278785871738
sg22
F0.648
sg23
Nsg24
Nsg25
I0
ssg26
I01
sg27
I01
sba(iSong
Song
p1594
(dp1595
g3
(dp1596
g5
F0.213
sg6
VCome From?
p1597
sg8
F0.39004
sg9
F0.805
sg10
S'raggae'
p1598
sg12
F0.143
sg13
VErphaan Alves
p1599
sg15
I9999
sg16
F0.713
sg17
Nsg18
F0.8955333333333333
sg19
Nsg20
Nsg21
F0.23193278785871738
sg22
F0.814
sg23
Nsg24
Nsg25
F1.08e-06
ssg26
I01
sg27
I01
sba(iSong
Song
p1600
(dp1601
g3
(dp1602
g5
F0.0538
sg6
VNeed It
p1603
sg8
F0.49186
sg9
F0.781
sg10
S'raggae'
p1604
sg12
F0.0587
sg13
VMachel Montano
p1605
sg15
I9999
sg16
F0.82
sg17
Nsg18
F0.8985
sg19
Nsg20
Nsg21
F0.23193278785871738
sg22
F0.457
sg23
Nsg24
Nsg25
F2.8e-06
ssg26
I01
sg27
I01
sba(iSong
Song
p1606
(dp1607
g3
(dp1608
g5
F0.0327
sg6
VBorn To Wine
p1609
sg8
F0.404024
sg9
F0.906
sg10
S'raggae'
p1610
sg12
F0.0892
sg13
VShurwayne Winchester
p1611
sg15
I9999
sg16
F0.859
sg17
Nsg18
F0.9552833333333334
sg19
Nsg20
Nsg21
F0.23193278785871738
sg22
F0.618
sg23
Nsg24
Nsg25
I0
ssg26
I01
sg27
I01
sba(iSong
Song
p1612
(dp1613
g3
(dp1614
g5
F0.312
sg6
VAh Feeling
p1615
sg8
F0.507408
sg9
F0.73
sg10
S'raggae'
p1616
sg12
F0.245
sg13
VLead Pipe
p1617
sg15
I9999
sg16
F0.64
sg17
Nsg18
F0.8442500000000001
sg19
Nsg20
Nsg21
F0.23193278785871738
sg22
F0.926
sg23
Nsg24
Nsg25
I0
ssg26
I01
sg27
I01
sba(iSong
Song
p1618
(dp1619
g3
(dp1620
g5
F0.0365
sg6
VTurn Up
p1621
sg8
F0.500052
sg9
F0.834
sg10
S'raggae'
p1622
sg12
F0.0484
sg13
VPreedy
p1623
sg15
I9999
sg16
F0.831
sg17
Nsg18
F0.9213333333333333
sg19
Nsg20
Nsg21
F0.23193278785871738
sg22
F0.733
sg23
Nsg24
Nsg25
I0
ssg26
I01
sg27
I01
sba(iSong
Song
p1624
(dp1625
g3
(dp1626
g5
F0.0528
sg6
VPeople
p1627
sg8
F0.512104
sg9
F0.968
sg10
S'raggae'
p1628
sg12
F0.106
sg13
VKes
p1629
sg15
I9999
sg16
F0.703
sg17
Nsg18
F0.9462833333333334
sg19
Nsg20
Nsg21
F0.23193278785871738
sg22
F0.766
sg23
Nsg24
Nsg25
F3.18e-06
ssg26
I01
sg27
I01
sba(iSong
Song
p1630
(dp1631
g3
(dp1632
g5
F0.00383
sg6
VDip & Ride
p1633
sg8
F0.42004
sg9
F0.672
sg10
S'raggae'
p1634
sg12
F0.0719
sg13
VDestra Garcia
p1635
sg15
I9999
sg16
F0.945
sg17
Nsg18
F0.91
sg19
Nsg20
Nsg21
F0.23193278785871738
sg22
F0.164
sg23
Nsg24
Nsg25
F3.33e-05
ssg26
I01
sg27
I01
sba(iSong
Song
p1636
(dp1637
g3
(dp1638
g5
F0.161
sg6
VWhere I'm From
p1639
sg8
F0.512148
sg9
F0.799
sg10
S'raggae'
p1640
sg12
F0.0486
sg13
VOlatunji
p1641
sg15
I9999
sg16
F0.75
sg17
Nsg18
F0.90325
sg19
Nsg20
Nsg21
F0.23193278785871738
sg22
F0.938
sg23
Nsg24
Nsg25
I0
ssg26
I01
sg27
I01
sba(iSong
Song
p1642
(dp1643
g3
(dp1644
g5
F0.00395
sg6
VDip n' Ride
p1645
sg8
F0.42003199999999996
sg9
F0.672
sg10
S'raggae'
p1646
sg12
F0.072
sg13
VDestra Garcia
p1647
sg15
I9999
sg16
F0.945
sg17
Nsg18
F0.9099833333333334
sg19
Nsg20
Nsg21
F0.23193278785871738
sg22
F0.163
sg23
Nsg24
Nsg25
F3.21e-05
ssg26
I01
sg27
I01
sba(iSong
Song
p1648
(dp1649
g3
(dp1650
g5
F0.347
sg6
VFeting Victim
p1651
sg8
F0.520064
sg9
F0.854
sg10
S'raggae'
p1652
sg12
F0.0545
sg13
VLyrikal
p1653
sg15
I9999
sg16
F0.753
sg17
Nsg18
F0.8978333333333333
sg19
Nsg20
Nsg21
F0.23193278785871738
sg22
F0.56
sg23
Nsg24
Nsg25
I0
ssg26
I01
sg27
I01
sba(iSong
Song
p1654
(dp1655
g3
(dp1656
g5
F0.0995
sg6
VBody Talk (feat. Chris Hierro)
p1657
sg8
F0.520068
sg9
F0.932
sg10
S'raggae'
p1658
sg12
F0.059
sg13
VKes
p1659
sg15
I9999
sg16
F0.754
sg17
Nsg18
F0.91545
sg19
Nsg20
Nsg21
F0.23193278785871738
sg22
F0.851
sg23
Nsg24
Nsg25
F0.000419
ssg26
I01
sg27
I01
sba(iSong
Song
p1660
(dp1661
g3
(dp1662
g5
F0.161
sg6
VGo Hard
p1663
sg8
F0.520428
sg9
F0.909
sg10
S'raggae'
p1664
sg12
F0.0468
sg13
VSkinny Fabulous
p1665
sg15
I9999
sg16
F0.726
sg17
Nsg18
F0.9415
sg19
Nsg20
Nsg21
F0.23193278785871738
sg22
F0.894
sg23
Nsg24
Nsg25
I0
ssg26
I01
sg27
I01
sba(iSong
Song
p1666
(dp1667
g3
(dp1668
g5
F0.0213
sg6
VCalling in Sick
p1669
sg8
F0.5118
sg9
F0.92
sg10
S'raggae'
p1670
sg12
F0.0952
sg13
VKing Bubba
p1671
sg15
I9999
sg16
F0.769
sg17
Nsg18
F0.8997166666666666
sg19
Nsg20
Nsg21
F0.23193278785871738
sg22
F0.796
sg23
Nsg24
Nsg25
F6.87e-06
ssg26
I01
sg27
I01
sba(iSong
Song
p1672
(dp1673
g3
(dp1674
g5
F0.00497
sg6
VMoney Done (Fete Out Money)
p1675
sg8
F0.764608
sg9
F0.818
sg10
S'raggae'
p1676
sg12
F0.0676
sg13
VPatrice Roberts
p1677
sg15
I9999
sg16
F0.347
sg17
Nsg18
F0.8685333333333334
sg19
Nsg20
Nsg21
F0.23193278785871738
sg22
F0.756
sg23
Nsg24
Nsg25
I0
ssg26
I01
sg27
I01
sba(iSong
Song
p1678
(dp1679
g3
(dp1680
g5
F0.0243
sg6
VMagic
p1681
sg8
F0.819164
sg9
F0.707
sg10
S'raggae'
p1682
sg12
F0.326
sg13
VSekon Sta
p1683
sg15
I9999
sg16
F0.542
sg17
Nsg18
F0.9241166666666667
sg19
Nsg20
Nsg21
F0.23193278785871738
sg22
F0.805
sg23
Nsg24
Nsg25
F6.6e-05
ssg26
I01
sg27
I01
sba(iSong
Song
p1684
(dp1685
g3
(dp1686
g5
F0.184
sg6
VIndicator - Soca Remix
p1687
sg8
F0.385432
sg9
F0.938
sg10
S'raggae'
p1688
sg12
F0.291
sg13
VSpice
p1689
sg15
I9999
sg16
F0.678
sg17
Nsg18
F0.9090833333333334
sg19
Nsg20
Nsg21
F0.23193278785871738
sg22
F0.864
sg23
Nsg24
Nsg25
I0
ssg26
I01
sg27
I01
sba(iSong
Song
p1690
(dp1691
g3
(dp1692
g5
F0.0287
sg6
VMaintenance Man
p1693
sg8
F0.479588
sg9
F0.845
sg10
S'raggae'
p1694
sg12
F0.353
sg13
VStiffy
p1695
sg15
I9999
sg16
F0.899
sg17
Nsg18
F0.9019999999999999
sg19
Nsg20
Nsg21
F0.23193278785871738
sg22
F0.773
sg23
Nsg24
Nsg25
I0
ssg26
I01
sg27
I01
sba(iSong
Song
p1696
(dp1697
g3
(dp1698
g5
F0.0171
sg6
VBoom Boom Jump
p1699
sg8
F0.50794
sg9
F0.834
sg10
S'raggae'
p1700
sg12
F0.0945
sg13
VLil Rick
p1701
sg15
I9999
sg16
F0.944
sg17
Nsg18
F0.9248166666666666
sg19
Nsg20
Nsg21
F0.23193278785871738
sg22
F0.72
sg23
Nsg24
Nsg25
I0
ssg26
I01
sg27
I01
sba(iSong
Song
p1702
(dp1703
g3
(dp1704
g5
F0.22
sg6
VUnforgettable (Trinidad and Tobago Carnival Soca 2016)
p1705
sg8
F0.505132
sg9
F0.94
sg10
S'raggae'
p1706
sg12
F0.143
sg13
VKerwin Du Bois
p1707
sg15
I9999
sg16
F0.57
sg17
Nsg18
F0.9403
sg19
Nsg20
Nsg21
F0.23193278785871738
sg22
F0.805
sg23
Nsg24
Nsg25
I0
ssg26
I01
sg27
I01
sba(iSong
Song
p1708
(dp1709
g3
(dp1710
g5
F0.143
sg6
VCarnival Groupie
p1711
sg8
F0.520048
sg9
F0.886
sg10
S'raggae'
p1712
sg12
F0.257
sg13
VMachel Montano
p1713
sg15
I9999
sg16
F0.879
sg17
Nsg18
F0.9316
sg19
Nsg20
Nsg21
F0.23193278785871738
sg22
F0.85
sg23
Nsg24
Nsg25
I0
ssg26
I01
sg27
I01
sba(iSong
Song
p1714
(dp1715
g3
(dp1716
g5
F0.00746
sg6
VAll Is Rum
p1717
sg8
F0.511904
sg9
F0.809
sg10
S'raggae'
p1718
sg12
F0.115
sg13
VLil Rick
p1719
sg15
I9999
sg16
F0.957
sg17
Nsg18
F0.9228833333333333
sg19
Nsg20
Nsg21
F0.23193278785871738
sg22
F0.909
sg23
Nsg24
Nsg25
I0
ssg26
I01
sg27
I01
sba(iSong
Song
p1720
(dp1721
g3
(dp1722
g5
F0.0408
sg6
VDifferent Me
p1723
sg8
F0.508196
sg9
F0.954
sg10
S'raggae'
p1724
sg12
F0.0704
sg13
V5 Star Akil
p1725
sg15
I9999
sg16
F0.704
sg17
Nsg18
F0.9623
sg19
Nsg20
Nsg21
F0.23193278785871738
sg22
F0.903
sg23
Nsg24
Nsg25
I0
ssg26
I01
sg27
I01
sba(iSong
Song
p1726
(dp1727
g3
(dp1728
g5
F0.0641
sg6
VErupt
p1729
sg8
F0.639872
sg9
F0.955
sg10
S'raggae'
p1730
sg12
F0.21
sg13
VMachel Montano
p1731
sg15
I9999
sg16
F0.735
sg17
Nsg18
F0.9608166666666667
sg19
Nsg20
Nsg21
F0.23193278785871738
sg22
F0.445
sg23
Nsg24
Nsg25
I0
ssg26
I01
sg27
I01
sba(iSong
Song
p1732
(dp1733
g3
(dp1734
g5
F0.156
sg6
VPigeons & Panties
p1735
sg8
F0.479412
sg9
F0.673
sg10
S'raggae'
p1736
sg12
F0.105
sg13
VGBM Nutron
p1737
sg15
I9999
sg16
F0.837
sg17
Nsg18
F0.9129333333333333
sg19
Nsg20
Nsg21
F0.23193278785871738
sg22
F0.667
sg23
Nsg24
Nsg25
I0
ssg26
I01
sg27
I01
sba(iSong
Song
p1738
(dp1739
g3
(dp1740
g5
F0.03
sg6
VSeasonally
p1741
sg8
F0.500052
sg9
F0.818
sg10
S'raggae'
p1742
sg12
F0.0736
sg13
VOlatunji
p1743
sg15
I9999
sg16
F0.794
sg17
Nsg18
F0.93365
sg19
Nsg20
Nsg21
F0.23193278785871738
sg22
F0.627
sg23
Nsg24
Nsg25
F3.27e-05
ssg26
I01
sg27
I01
sba(iSong
Song
p1744
(dp1745
g3
(dp1746
g5
F0.0621
sg6
VDance In Paint (feat. 1st Klase)
p1747
sg8
F0.472012
sg9
F0.817
sg10
S'raggae'
p1748
sg12
F0.182
sg13
VBunji Garlin
p1749
sg15
I9999
sg16
F0.875
sg17
Nsg18
F0.9166500000000001
sg19
Nsg20
Nsg21
F0.23193278785871738
sg22
F0.832
sg23
Nsg24
Nsg25
F0.00158
ssg26
I01
sg27
I01
sba(iSong
Song
p1750
(dp1751
g3
(dp1752
g5
F0.0282
sg6
VBadishh
p1753
sg8
F0.439932
sg9
F0.889
sg10
S'raggae'
p1754
sg12
F0.0365
sg13
VNailah Blackman
p1755
sg15
I9999
sg16
F0.682
sg17
Nsg18
F0.9493666666666667
sg19
Nsg20
Nsg21
F0.23193278785871738
sg22
F0.583
sg23
Nsg24
Nsg25
F1.14e-05
ssg26
I01
sg27
I01
sba(iSong
Song
p1756
(dp1757
g3
(dp1758
g5
F0.166
sg6
VDucking
p1759
sg8
F0.748272
sg9
F0.932
sg10
S'raggae'
p1760
sg12
F0.0982
sg13
VFadda Fox
p1761
sg15
I9999
sg16
F0.445
sg17
Nsg18
F0.9155166666666666
sg19
Nsg20
Nsg21
F0.23193278785871738
sg22
F0.925
sg23
Nsg24
Nsg25
F0.000934
ssg26
I01
sg27
I01
sba(iSong
Song
p1762
(dp1763
g3
(dp1764
g5
F0.00275
sg6
VLike So
p1765
sg8
F0.508056
sg9
F0.946
sg10
S'raggae'
p1766
sg12
F0.0612
sg13
VAngela Hunte
p1767
sg15
I9999
sg16
F0.802
sg17
Nsg18
F0.91905
sg19
Nsg20
Nsg21
F0.23193278785871738
sg22
F0.71
sg23
Nsg24
Nsg25
F3.47e-06
ssg26
I01
sg27
I01
sba(iSong
Song
p1768
(dp1769
g3
(dp1770
g5
F0.659
sg6
VParty
p1771
sg8
F0.504188
sg9
F0.925
sg10
S'raggae'
p1772
sg12
F0.088
sg13
VShal Marshall
p1773
sg15
I9999
sg16
F0.834
sg17
Nsg18
F0.92745
sg19
Nsg20
Nsg21
F0.23193278785871738
sg22
F0.844
sg23
Nsg24
Nsg25
I0
ssg26
I01
sg27
I01
sba(iSong
Song
p1774
(dp1775
g3
(dp1776
g5
F0.027
sg6
VBam Bam Back
p1777
sg8
F0.5441520000000001
sg9
F0.92
sg10
S'raggae'
p1778
sg12
F0.0908
sg13
VHypasounds
p1779
sg15
I9999
sg16
F0.538
sg17
Nsg18
F0.9299999999999999
sg19
Nsg20
Nsg21
F0.23193278785871738
sg22
F0.536
sg23
Nsg24
Nsg25
F9.82e-05
ssg26
I01
sg27
I01
sba(iSong
Song
p1780
(dp1781
g3
(dp1782
g5
F0.168
sg6
VWine Yuh Body
p1783
sg8
F0.519956
sg9
F0.825
sg10
S'raggae'
p1784
sg12
F0.163
sg13
VPrecision Productions
p1785
sg15
I9999
sg16
F0.782
sg17
Nsg18
F0.8784
sg19
Nsg20
Nsg21
F0.23193278785871738
sg22
F0.513
sg23
Nsg24
Nsg25
I0
ssg26
I01
sg27
I01
sba(iSong
Song
p1786
(dp1787
g3
(dp1788
g5
F0.0803
sg6
VMoney Well Spent
p1789
sg8
F0.488252
sg9
F0.922
sg10
S'raggae'
p1790
sg12
F0.0436
sg13
VBiggie Irie
p1791
sg15
I9999
sg16
F0.809
sg17
Nsg18
F0.9210666666666667
sg19
Nsg20
Nsg21
F0.23193278785871738
sg22
F0.597
sg23
Nsg24
Nsg25
F5.08e-06
ssg26
I01
sg27
I01
sba(iSong
Song
p1792
(dp1793
g3
(dp1794
g5
F0.0833
sg6
VSick wid It
p1795
sg8
F0.479932
sg9
F0.811
sg10
S'raggae'
p1796
sg12
F0.119
sg13
VSkinny Fabulous
p1797
sg15
I9999
sg16
F0.847
sg17
Nsg18
F0.9272666666666667
sg19
Nsg20
Nsg21
F0.23193278785871738
sg22
F0.834
sg23
Nsg24
Nsg25
I0
ssg26
I01
sg27
I01
sba(iSong
Song
p1798
(dp1799
g3
(dp1800
g5
F0.416
sg6
VT.A.O.
p1801
sg8
F0.503856
sg9
F0.937
sg10
S'raggae'
p1802
sg12
F0.211
sg13
VGBM Nutron
p1803
sg15
I9999
sg16
F0.79
sg17
Nsg18
F0.9361166666666667
sg19
Nsg20
Nsg21
F0.23193278785871738
sg22
F0.872
sg23
Nsg24
Nsg25
I0
ssg26
I01
sg27
I01
sba(iSong
Song
p1804
(dp1805
g3
(dp1806
g5
F0.0108
sg6
VHow She Like It
p1807
sg8
F0.535948
sg9
F0.848
sg10
S'raggae'
p1808
sg12
F0.0606
sg13
VHypasounds
p1809
sg15
I9999
sg16
F0.799
sg17
Nsg18
F0.9297666666666667
sg19
Nsg20
Nsg21
F0.23193278785871738
sg22
F0.585
sg23
Nsg24
Nsg25
I0
ssg26
I01
sg27
I01
sba(iSong
Song
p1810
(dp1811
g3
(dp1812
g5
F0.105
sg6
VLike Ah Boss
p1813
sg8
F0.5358719999999999
sg9
F0.944
sg10
S'raggae'
p1814
sg12
F0.175
sg13
VMachel Montano
p1815
sg15
I9999
sg16
F0.802
sg17
Nsg18
F0.9810166666666666
sg19
Nsg20
Nsg21
F0.23193278785871738
sg22
F0.746
sg23
Nsg24
Nsg25
I0
ssg26
I01
sg27
I01
sba(iSong
Song
p1816
(dp1817
g3
(dp1818
g5
F0.0329
sg6
VDo Vex
p1819
sg8
F0.440124
sg9
F0.847
sg10
S'raggae'
p1820
sg12
F0.106
sg13
VLinky First
p1821
sg15
I9999
sg16
F0.831
sg17
Nsg18
F0.9203666666666667
sg19
Nsg20
Nsg21
F0.23193278785871738
sg22
F0.926
sg23
Nsg24
Nsg25
I0
ssg26
I01
sg27
I01
sba(iSong
Song
p1822
(dp1823
g3
(dp1824
g5
F0.135
sg6
VRunaway Love
p1825
sg8
F0.325932
sg9
F0.654
sg10
S'raggae'
p1826
sg12
F0.341
sg13
VAngela Hunte
p1827
sg15
I9999
sg16
F0.648
sg17
Nsg18
F0.9242
sg19
Nsg20
Nsg21
F0.23193278785871738
sg22
F0.567
sg23
Nsg24
Nsg25
I0
ssg26
I01
sg27
I01
sba(iSong
Song
p1828
(dp1829
g3
(dp1830
g5
F0.228
sg6
VBend Ya Back - Remix
p1831
sg8
F0.5128039999999999
sg9
F0.89
sg10
S'raggae'
p1832
sg12
F0.254
sg13
VMr Renzo
p1833
sg15
I9999
sg16
F0.861
sg17
Nsg18
F0.9398333333333333
sg19
Nsg20
Nsg21
F0.23193278785871738
sg22
F0.787
sg23
Nsg24
Nsg25
I0
ssg26
I01
sg27
I01
sba(iSong
Song
p1834
(dp1835
g3
(dp1836
g5
F0.0165
sg6
VBubble & Wine
p1837
sg8
F0.399864
sg9
F0.914
sg10
S'raggae'
p1838
sg12
F0.0852
sg13
VUltimate Rejects
p1839
sg15
I9999
sg16
F0.77
sg17
Nsg18
F0.9572333333333333
sg19
Nsg20
Nsg21
F0.23193278785871738
sg22
F0.665
sg23
Nsg24
Nsg25
F0.000486
ssg26
I01
sg27
I01
sba(iSong
Song
p1840
(dp1841
g3
(dp1842
g5
F0.0437
sg6
VBlessing
p1843
sg8
F0.511888
sg9
F0.932
sg10
S'raggae'
p1844
sg12
F0.0695
sg13
VLil Rick
p1845
sg15
I9999
sg16
F0.716
sg17
Nsg18
F0.9407833333333334
sg19
Nsg20
Nsg21
F0.23193278785871738
sg22
F0.934
sg23
Nsg24
Nsg25
I0
ssg26
I01
sg27
I01
sba(iSong
Song
p1846
(dp1847
g3
(dp1848
g5
F0.0277
sg6
VMashup (When Ah Touchdown)
p1849
sg8
F0.516088
sg9
F0.859
sg10
S'raggae'
p1850
sg12
F0.0859
sg13
VKing Bubba Fm
p1851
sg15
I9999
sg16
F0.828
sg17
Nsg18
F0.93035
sg19
Nsg20
Nsg21
F0.23193278785871738
sg22
F0.898
sg23
Nsg24
Nsg25
I0
ssg26
I01
sg27
I01
sba(iSong
Song
p1852
(dp1853
g3
(dp1854
g5
F0.258
sg6
VRolling
p1855
sg8
F0.476088
sg9
F0.957
sg10
S'raggae'
p1856
sg12
F0.221
sg13
VSean Paul
p1857
sg15
I9999
sg16
F0.809
sg17
Nsg18
F0.9812166666666666
sg19
Nsg20
Nsg21
F0.23193278785871738
sg22
F0.775
sg23
Nsg24
Nsg25
I0
ssg26
I01
sg27
I01
sba(iSong
Song
p1858
(dp1859
g3
(dp1860
g5
F0.0619
sg6
VHuman (Ti' Punch Riddim)
p1861
sg8
F0.484008
sg9
F0.89
sg10
S'raggae'
p1862
sg12
F0.106
sg13
VMachel Montano
p1863
sg15
I9999
sg16
F0.768
sg17
Nsg18
F0.9327666666666666
sg19
Nsg20
Nsg21
F0.23193278785871738
sg22
F0.898
sg23
Nsg24
Nsg25
I0
ssg26
I01
sg27
I01
sba(iSong
Song
p1864
(dp1865
g3
(dp1866
g5
F0.109
sg6
VCheers to Life (Trinidad and Tobago Carnival Soca 2016)
p1867
sg8
F0.50402
sg9
F0.931
sg10
S'raggae'
p1868
sg12
F0.346
sg13
VVoice
p1869
sg15
I9999
sg16
F0.614
sg17
Nsg18
F0.9542333333333333
sg19
Nsg20
Nsg21
F0.23193278785871738
sg22
F0.827
sg23
Nsg24
Nsg25
I0
ssg26
I01
sg27
I01
sba(iSong
Song
p1870
(dp1871
g3
(dp1872
g5
F0.0143
sg6
VScene
p1873
sg8
F0.507292
sg9
F0.717
sg10
S'raggae'
p1874
sg12
F0.128
sg13
VGBM Nutron
p1875
sg15
I9999
sg16
F0.731
sg17
Nsg18
F0.90325
sg19
Nsg20
Nsg21
F0.23193278785871738
sg22
F0.881
sg23
Nsg24
Nsg25
I0
ssg26
I01
sg27
I01
sba(iSong
Song
p1876
(dp1877
g3
(dp1878
g5
F0.0342
sg6
VKnow the Face (Bad Royale Remix) - Bad Royale Remix
p1879
sg8
F0.500096
sg9
F0.925
sg10
S'raggae'
p1880
sg12
F0.116
sg13
VMarvay
p1881
sg15
I9999
sg16
F0.576
sg17
Nsg18
F0.9333666666666667
sg19
Nsg20
Nsg21
F0.23193278785871738
sg22
F0.446
sg23
Nsg24
Nsg25
I0
ssg26
I01
sg27
I01
sba(iSong
Song
p1882
(dp1883
g3
(dp1884
g5
F0.214
sg6
VToo Real
p1885
sg8
F0.500084
sg9
F0.827
sg10
S'raggae'
p1886
sg12
F0.0574
sg13
VKerwin Du Bois
p1887
sg15
I9999
sg16
F0.882
sg17
Nsg18
F0.9311666666666666
sg19
Nsg20
Nsg21
F0.23193278785871738
sg22
F0.418
sg23
Nsg24
Nsg25
I0
ssg26
I01
sg27
I01
sba(iSong
Song
p1888
(dp1889
g3
(dp1890
g5
F0.119
sg6
VBlocking Up D Road
p1891
sg8
F0.431996
sg9
F0.723
sg10
S'raggae'
p1892
sg12
F0.139
sg13
VBunji Garlin
p1893
sg15
I9999
sg16
F0.896
sg17
Nsg18
F0.9435833333333333
sg19
Nsg20
Nsg21
F0.23193278785871738
sg22
F0.73
sg23
Nsg24
Nsg25
I0
ssg26
I01
sg27
I01
sba(iSong
Song
p1894
(dp1895
g3
(dp1896
g5
F0.0246
sg6
VParty Animal
p1897
sg8
F0.404024
sg9
F0.867
sg10
S'raggae'
p1898
sg12
F0.0497
sg13
VCharly Black
p1899
sg15
I9999
sg16
F0.721
sg17
Nsg18
F0.9347333333333334
sg19
Nsg20
Nsg21
F0.23193278785871738
sg22
F0.823
sg23
Nsg24
Nsg25
I0
ssg26
I01
sg27
I01
sba(iSong
Song
p1900
(dp1901
g3
(dp1902
g5
F0.0783
sg6
VWorkout
p1903
sg8
F0.520084
sg9
F0.848
sg10
S'raggae'
p1904
sg12
F0.0979
sg13
VKes
p1905
sg15
I9999
sg16
F0.808
sg17
Nsg18
F0.9080333333333334
sg19
Nsg20
Nsg21
F0.23193278785871738
sg22
F0.606
sg23
Nsg24
Nsg25
I0
ssg26
I01
sg27
I01
sba(iSong
Song
p1906
(dp1907
g3
(dp1908
g5
F0.0435
sg6
VMy Girl
p1909
sg8
F0.264392
sg9
F0.632
sg10
S'raggae'
p1910
sg12
F0.441
sg13
VSizzla
p1911
sg15
I9999
sg16
F0.663
sg17
Nsg18
F0.8454666666666667
sg19
Nsg20
Nsg21
F0.23193278785871738
sg22
F0.7
sg23
Nsg24
Nsg25
I0
ssg26
I01
sg27
I01
sba(iSong
Song
p1912
(dp1913
g3
(dp1914
g5
F0.036
sg6
VBambilambambilambilambam
p1915
sg8
F0.54
sg9
F0.935
sg10
S'raggae'
p1916
sg12
F0.0382
sg13
VFarmer Nappy
p1917
sg15
I9999
sg16
F0.708
sg17
Nsg18
F0.9182666666666667
sg19
Nsg20
Nsg21
F0.23193278785871738
sg22
F0.794
sg23
Nsg24
Nsg25
I0
ssg26
I01
sg27
I01
sba(iSong
Song
p1918
(dp1919
g3
(dp1920
g5
F0.0023
sg6
VI'll Be OK
p1921
sg8
F0.491944
sg9
F0.853
sg10
S'raggae'
p1922
sg12
F0.0389
sg13
VRupee
p1923
sg15
I9999
sg16
F0.737
sg17
Nsg18
F0.9198833333333333
sg19
Nsg20
Nsg21
F0.23193278785871738
sg22
F0.855
sg23
Nsg24
Nsg25
I0
ssg26
I01
sg27
I01
sba(iSong
Song
p1924
(dp1925
g3
(dp1926
g5
F0.0588
sg6
VKings & Queens
p1927
sg8
F0.531972
sg9
F0.898
sg10
S'raggae'
p1928
sg12
F0.0535
sg13
VSekon Sta
p1929
sg15
I9999
sg16
F0.735
sg17
Nsg18
F0.9050666666666667
sg19
Nsg20
Nsg21
F0.23193278785871738
sg22
F0.472
sg23
Nsg24
Nsg25
I0
ssg26
I01
sg27
I01
sba(iSong
Song
p1930
(dp1931
g3
(dp1932
g5
F0.191
sg6
VTight
p1933
sg8
F0.331204
sg9
F0.608
sg10
S'raggae'
p1934
sg12
F0.265
sg13
VQQ
p1935
sg15
I9999
sg16
F0.661
sg17
Nsg18
F0.85295
sg19
Nsg20
Nsg21
F0.23193278785871738
sg22
F0.736
sg23
Nsg24
Nsg25
F2.36e-05
ssg26
I01
sg27
I01
sba(iSong
Song
p1936
(dp1937
g3
(dp1938
g5
F0.0349
sg6
VOne Love
p1939
sg8
F0.30619999999999997
sg9
F0.543
sg10
S'raggae'
p1940
sg12
F0.335
sg13
VBob Marley & The Wailers
p1941
sg15
I9999
sg16
F0.715
sg17
Nsg18
F0.8532166666666666
sg19
Nsg20
Nsg21
F0.23193278785871738
sg22
F0.926
sg23
Nsg24
Nsg25
I0
ssg26
I01
sg27
I01
sba(iSong
Song
p1942
(dp1943
g3
(dp1944
g5
F0.00482
sg6
VI Can See Clearly Now
p1945
sg8
F0.480328
sg9
F0.662
sg10
S'raggae'
p1946
sg12
F0.0347
sg13
VJimmy Cliff
p1947
sg15
I9999
sg16
F0.799
sg17
Nsg18
F0.8569166666666667
sg19
Nsg20
Nsg21
F0.23193278785871738
sg22
F0.717
sg23
Nsg24
Nsg25
F0.000505
ssg26
I01
sg27
I01
sba(iSong
Song
p1948
(dp1949
g3
(dp1950
g5
F0.114
sg6
VSunday Morning
p1951
sg8
F0.471992
sg9
F0.834
sg10
S'raggae'
p1952
sg12
F0.0316
sg13
VMorgan Heritage
p1953
sg15
I9999
sg16
F0.83
sg17
Nsg18
F0.9404333333333333
sg19
Nsg20
Nsg21
F0.23193278785871738
sg22
F0.714
sg23
Nsg24
Nsg25
I0
ssg26
I01
sg27
I01
sba(iSong
Song
p1954
(dp1955
g3
(dp1956
g5
F0.0164
sg6
VThe Sound Of Sunshine
p1957
sg8
F0.38802800000000004
sg9
F0.902
sg10
S'raggae'
p1958
sg12
F0.0553
sg13
VMichael Franti & Spearhead
p1959
sg15
I9999
sg16
F0.673
sg17
Nsg18
F0.9185666666666666
sg19
Nsg20
Nsg21
F0.23193278785871738
sg22
F0.704
sg23
Nsg24
Nsg25
F0.0145
ssg26
I01
sg27
I01
sba(iSong
Song
p1960
(dp1961
g3
(dp1962
g5
F0.106
sg6
VPressure Drop
p1963
sg8
F0.5958559999999999
sg9
F0.571
sg10
S'raggae'
p1964
sg12
F0.0432
sg13
VToots & The Maytals
p1965
sg15
I9999
sg16
F0.658
sg17
Nsg18
F0.8004666666666667
sg19
Nsg20
Nsg21
F0.23193278785871738
sg22
F0.985
sg23
Nsg24
Nsg25
I0
ssg26
I01
sg27
I01
sba(iSong
Song
p1966
(dp1967
g3
(dp1968
g5
F0.139
sg6
VGood Cry
p1969
sg8
F0.35965199999999997
sg9
F0.772
sg10
S'raggae'
p1970
sg12
F0.272
sg13
VJ Boog
p1971
sg15
I9999
sg16
F0.81
sg17
Nsg18
F0.9251
sg19
Nsg20
Nsg21
F0.23193278785871738
sg22
F0.832
sg23
Nsg24
Nsg25
I0
ssg26
I01
sg27
I01
sba(iSong
Song
p1972
(dp1973
g3
(dp1974
g5
F0.0796
sg6
VTrue To Myself
p1975
sg8
F0.39607600000000004
sg9
F0.564
sg10
S'raggae'
p1976
sg12
F0.0498
sg13
VZiggy Marley
p1977
sg15
I9999
sg16
F0.88
sg17
Nsg18
F0.8928166666666667
sg19
Nsg20
Nsg21
F0.23193278785871738
sg22
F0.83
sg23
Nsg24
Nsg25
I0
ssg26
I01
sg27
I01
sba(iSong
Song
p1978
(dp1979
g3
(dp1980
g5
F0.00414
sg6
VRed Red Wine - Edit
p1981
sg8
F0.356476
sg9
F0.468
sg10
S'raggae'
p1982
sg12
F0.0476
sg13
VUB40
p1983
sg15
I9999
sg16
F0.857
sg17
Nsg18
F0.8578333333333333
sg19
Nsg20
Nsg21
F0.23193278785871738
sg22
F0.843
sg23
Nsg24
Nsg25
F1.32e-05
ssg26
I01
sg27
I01
sba(iSong
Song
p1984
(dp1985
g3
(dp1986
g5
F0.0073
sg6
VWonderful World, Beautiful People - Single Version
p1987
sg8
F0.42326400000000003
sg9
F0.491
sg10
S'raggae'
p1988
sg12
F0.0278
sg13
VJimmy Cliff
p1989
sg15
I9999
sg16
F0.781
sg17
Nsg18
F0.8120166666666667
sg19
Nsg20
Nsg21
F0.23193278785871738
sg22
F0.854
sg23
Nsg24
Nsg25
I0
ssg26
I01
sg27
I01
sba(iSong
Song
p1990
(dp1991
g3
(dp1992
g5
F0.0109
sg6
VThree Little Birds
p1993
sg8
F0.295848
sg9
F0.478
sg10
S'raggae'
p1994
sg12
F0.0855
sg13
VBob Marley & The Wailers
p1995
sg15
I9999
sg16
F0.781
sg17
Nsg18
F0.8243333333333334
sg19
Nsg20
Nsg21
F0.23193278785871738
sg22
F0.643
sg23
Nsg24
Nsg25
F1.01e-06
ssg26
I01
sg27
I01
sba(iSong
Song
p1996
(dp1997
g3
(dp1998
g5
F0.622
sg6
VI Got You
p1999
sg8
F0.392324
sg9
F0.404
sg10
S'raggae'
p2000
sg12
F0.0386
sg13
VJack Johnson
p2001
sg15
I9999
sg16
F0.898
sg17
Nsg18
F0.8909833333333333
sg19
Nsg20
Nsg21
F0.23193278785871738
sg22
F0.518
sg23
Nsg24
Nsg25
F1.59e-05
ssg26
I01
sg27
I01
sba(iSong
Song
p2002
(dp2003
g3
(dp2004
g5
F0.388
sg6
VIt Must Be True Love
p2005
sg8
F0.48127600000000004
sg9
F0.346
sg10
S'raggae'
p2006
sg12
F0.114
sg13
VToots & The Maytals
p2007
sg15
I9999
sg16
F0.873
sg17
Nsg18
F0.7769333333333334
sg19
Nsg20
Nsg21
F0.23193278785871738
sg22
F0.938
sg23
Nsg24
Nsg25
F0.0044
ssg26
I01
sg27
I01
sba(iSong
Song
p2008
(dp2009
g3
(dp2010
g5
F0.0498
sg6
VHey Now Now
p2011
sg8
F0.36013999999999996
sg9
F0.781
sg10
S'raggae'
p2012
sg12
F0.234
sg13
VMichael Franti
p2013
sg15
I9999
sg16
F0.844
sg17
Nsg18
F0.91935
sg19
Nsg20
Nsg21
F0.23193278785871738
sg22
F0.73
sg23
Nsg24
Nsg25
I0
ssg26
I01
sg27
I01
sba(iSong
Song
p2014
(dp2015
g3
(dp2016
g5
F0.0887
sg6
VCool Down The Pace
p2017
sg8
F0.30548000000000003
sg9
F0.266
sg10
S'raggae'
p2018
sg12
F0.264
sg13
VGregory Isaacs
p2019
sg15
I9999
sg16
F0.87
sg17
Nsg18
F0.7406833333333334
sg19
Nsg20
Nsg21
F0.23193278785871738
sg22
F0.929
sg23
Nsg24
Nsg25
F0.0217
ssg26
I01
sg27
I01
sba(iSong
Song
p2020
(dp2021
g3
(dp2022
g5
F0.203
sg6
VTrue Love
p2023
sg8
F0.467324
sg9
F0.408
sg10
S'raggae'
p2024
sg12
F0.0532
sg13
VSOJA
p2025
sg15
I9999
sg16
F0.86
sg17
Nsg18
F0.85265
sg19
Nsg20
Nsg21
F0.23193278785871738
sg22
F0.53
sg23
Nsg24
Nsg25
I0
ssg26
I01
sg27
I01
sba(iSong
Song
p2026
(dp2027
g3
(dp2028
g5
F0.248
sg6
VYou Can Get It If You Really Want
p2029
sg8
F0.512656
sg9
F0.559
sg10
S'raggae'
p2030
sg12
F0.0568
sg13
VJimmy Cliff
p2031
sg15
I9999
sg16
F0.894
sg17
Nsg18
F0.85755
sg19
Nsg20
Nsg21
F0.23193278785871738
sg22
F0.929
sg23
Nsg24
Nsg25
I0
ssg26
I01
sg27
I01
sba(iSong
Song
p2032
(dp2033
g3
(dp2034
g5
F0.211
sg6
VBeach In Hawaii
p2035
sg8
F0.40383600000000003
sg9
F0.458
sg10
S'raggae'
p2036
sg12
F0.0361
sg13
VZiggy Marley
p2037
sg15
I9999
sg16
F0.807
sg17
Nsg18
F0.8401
sg19
Nsg20
Nsg21
F0.23193278785871738
sg22
F0.874
sg23
Nsg24
Nsg25
F9.01e-06
ssg26
I01
sg27
I01
sba(iSong
Song
p2038
(dp2039
g3
(dp2040
g5
F0.344
sg6
VLove I
p2041
sg8
F0.53208
sg9
F0.47
sg10
S'raggae'
p2042
sg12
F0.084
sg13
VThe Green
p2043
sg15
I9999
sg16
F0.856
sg17
Nsg18
F0.8588833333333333
sg19
Nsg20
Nsg21
F0.23193278785871738
sg22
F0.929
sg23
Nsg24
Nsg25
I0
ssg26
I01
sg27
I01
sba(iSong
Song
p2044
(dp2045
g3
(dp2046
g5
F0.0736
sg6
VDawn of Time
p2047
sg8
F0.615768
sg9
F0.565
sg10
S'raggae'
p2048
sg12
F0.0553
sg13
VTribal Seeds
p2049
sg15
I9999
sg16
F0.701
sg17
Nsg18
F0.8215166666666666
sg19
Nsg20
Nsg21
F0.23193278785871738
sg22
F0.899
sg23
Nsg24
Nsg25
F0.000504
ssg26
I01
sg27
I01
sba(iSong
Song
p2050
(dp2051
g3
(dp2052
g5
F0.128
sg6
VJamming
p2053
sg8
F0.49472000000000005
sg9
F0.479
sg10
S'raggae'
p2054
sg12
F0.282
sg13
VBob Marley & The Wailers
p2055
sg15
I9999
sg16
F0.939
sg17
Nsg18
F0.8169
sg19
Nsg20
Nsg21
F0.23193278785871738
sg22
F0.723
sg23
Nsg24
Nsg25
F2.65e-05
ssg26
I01
sg27
I01
sba(iSong
Song
p2056
(dp2057
g3
(dp2058
g5
F0.649
sg6
VMe Gustas Tu
p2059
sg8
F0.704132
sg9
F0.734
sg10
S'raggae'
p2060
sg12
F0.075
sg13
VManu Chao
p2061
sg15
I9999
sg16
F0.657
sg17
Nsg18
F0.8863833333333333
sg19
Nsg20
Nsg21
F0.23193278785871738
sg22
F0.914
sg23
Nsg24
Nsg25
F0.299
ssg26
I01
sg27
I01
sba(iSong
Song
p2062
(dp2063
g3
(dp2064
g5
F0.0113
sg6
VIron Lion Zion
p2065
sg8
F0.5695439999999999
sg9
F0.598
sg10
S'raggae'
p2066
sg12
F0.0403
sg13
VBob Marley & The Wailers
p2067
sg15
I9999
sg16
F0.715
sg17
Nsg18
F0.8681333333333333
sg19
Nsg20
Nsg21
F0.23193278785871738
sg22
F0.779
sg23
Nsg24
Nsg25
F0.00058
ssg26
I01
sg27
I01
sba(iSong
Song
p2068
(dp2069
g3
(dp2070
g5
F0.00729
sg6
VEvery Breath You Take
p2071
sg8
F0.39996
sg9
F0.789
sg10
S'raggae'
p2072
sg12
F0.0394
sg13
VUB40
p2073
sg15
I9999
sg16
F0.779
sg17
Nsg18
F0.9203333333333333
sg19
Nsg20
Nsg21
F0.23193278785871738
sg22
F0.655
sg23
Nsg24
Nsg25
F0.00118
ssg26
I01
sg27
I01
sba(iSong
Song
p2074
(dp2075
g3
(dp2076
g5
F0.0117
sg6
VPut a Little Love
p2077
sg8
F0.311464
sg9
F0.651
sg10
S'raggae'
p2078
sg12
F0.0705
sg13
VNatural Vibrations
p2079
sg15
I9999
sg16
F0.731
sg17
Nsg18
F0.8540833333333333
sg19
Nsg20
Nsg21
F0.23193278785871738
sg22
F0.615
sg23
Nsg24
Nsg25
I0
ssg26
I01
sg27
I01
sba(iSong
Song
p2080
(dp2081
g3
(dp2082
g5
F0.449
sg6
VTake Me Home, Country Roads
p2083
sg8
F0.700976
sg9
F0.436
sg10
S'raggae'
p2084
sg12
F0.146
sg13
VToots & The Maytals
p2085
sg15
I9999
sg16
F0.609
sg17
Nsg18
F0.8001666666666666
sg19
Nsg20
Nsg21
F0.23193278785871738
sg22
F0.921
sg23
Nsg24
Nsg25
F0.00677
ssg26
I01
sg27
I01
sba(iSong
Song
p2086
(dp2087
g3
(dp2088
g5
F0.116
sg6
VYou Can Get It If You Really Want
p2089
sg8
F0.510936
sg9
F0.505
sg10
S'raggae'
p2090
sg12
F0.0438
sg13
VDesmond Dekker
p2091
sg15
I9999
sg16
F0.836
sg17
Nsg18
F0.8504833333333333
sg19
Nsg20
Nsg21
F0.23193278785871738
sg22
F0.828
sg23
Nsg24
Nsg25
I0
ssg26
I01
sg27
I01
sba(iSong
Song
p2092
(dp2093
g3
(dp2094
g5
F0.497
sg6
VOne Good Spliff
p2095
sg8
F0.431928
sg9
F0.464
sg10
S'raggae'
p2096
sg12
F0.142
sg13
VZiggy Marley & The Melody Makers
p2097
sg15
I9999
sg16
F0.617
sg17
Nsg18
F0.8013666666666667
sg19
Nsg20
Nsg21
F0.23193278785871738
sg22
F0.613
sg23
Nsg24
Nsg25
F7.08e-06
ssg26
I01
sg27
I01
sba(iSong
Song
p2098
(dp2099
g3
(dp2100
g5
F0.0649
sg6
VI Am That I Am
p2101
sg8
F0.5841280000000001
sg9
F0.481
sg10
S'raggae'
p2102
sg12
F0.124
sg13
VPeter Tosh
p2103
sg15
I9999
sg16
F0.791
sg17
Nsg18
F0.8435
sg19
Nsg20
Nsg21
F0.23193278785871738
sg22
F0.926
sg23
Nsg24
Nsg25
F1.47e-06
ssg26
I01
sg27
I01
sba(iSong
Song
p2104
(dp2105
g3
(dp2106
g5
F0.271
sg6
VFunky Kingston
p2107
sg8
F0.39877999999999997
sg9
F0.512
sg10
S'raggae'
p2108
sg12
F0.0572
sg13
VToots & The Maytals
p2109
sg15
I9999
sg16
F0.763
sg17
Nsg18
F0.8436166666666668
sg19
Nsg20
Nsg21
F0.23193278785871738
sg22
F0.962
sg23
Nsg24
Nsg25
F0.000846
ssg26
I01
sg27
I01
sba(iSong
Song
p2110
(dp2111
g3
(dp2112
g5
F0.788
sg6
VYoung and Able
p2113
sg8
F0.57686
sg9
F0.504
sg10
S'raggae'
p2114
sg12
F0.0383
sg13
VCurrent Swell
p2115
sg15
I9999
sg16
F0.671
sg17
Nsg18
F0.81955
sg19
Nsg20
Nsg21
F0.23193278785871738
sg22
F0.671
sg23
Nsg24
Nsg25
I0
ssg26
I01
sg27
I01
sba(iSong
Song
p2116
(dp2117
g3
(dp2118
g5
F0.7
sg6
VLa Mar
p2119
sg8
F0.684832
sg9
F0.118
sg10
S'raggae'
p2120
sg12
F0.106
sg13
VThe Beautiful Girls
p2121
sg15
I9999
sg16
F0.569
sg17
Nsg18
F0.6844666666666667
sg19
Nsg20
Nsg21
F0.23193278785871738
sg22
F0.463
sg23
Nsg24
Nsg25
F6.21e-05
ssg26
I01
sg27
I01
sba(iSong
Song
p2122
(dp2123
g3
(dp2124
g5
F0.0172
sg6
VWhat I Got
p2125
sg8
F0.382372
sg9
F0.706
sg10
S'raggae'
p2126
sg12
F0.101
sg13
VSublime
p2127
sg15
I9999
sg16
F0.795
sg17
Nsg18
F0.8751
sg19
Nsg20
Nsg21
F0.23193278785871738
sg22
F0.623
sg23
Nsg24
Nsg25
F0.000384
ssg26
I01
sg27
I01
sba(iSong
Song
p2128
(dp2129
g3
(dp2130
g5
F0.125
sg6
VTake You For A Ride
p2131
sg8
F0.360072
sg9
F0.81
sg10
S'raggae'
p2132
sg12
F0.0417
sg13
VKoauka
p2133
sg15
I9999
sg16
F0.759
sg17
Nsg18
F0.8795
sg19
Nsg20
Nsg21
F0.23193278785871738
sg22
F0.937
sg23
Nsg24
Nsg25
F0.0211
ssg26
I01
sg27
I01
sba(iSong
Song
p2134
(dp2135
g3
(dp2136
g5
F0.389
sg6
VI'll Be All Yours
p2137
sg8
F0.31414800000000004
sg9
F0.643
sg10
S'raggae'
p2138
sg12
F0.0882
sg13
VFiji
p2139
sg15
I9999
sg16
F0.519
sg17
Nsg18
F0.8910666666666667
sg19
Nsg20
Nsg21
F0.23193278785871738
sg22
F0.726
sg23
Nsg24
Nsg25
I0
ssg26
I01
sg27
I01
sba(iSong
Song
p2140
(dp2141
g3
(dp2142
g5
F0.328
sg6
VStand Tall
p2143
sg8
F0.632544
sg9
F0.796
sg10
S'raggae'
p2144
sg12
F0.123
sg13
VDirty Heads
p2145
sg15
I9999
sg16
F0.765
sg17
Nsg18
F0.9206166666666667
sg19
Nsg20
Nsg21
F0.23193278785871738
sg22
F0.837
sg23
Nsg24
Nsg25
I0
ssg26
I01
sg27
I01
sba(iSong
Song
p2146
(dp2147
g3
(dp2148
g5
F0.000728
sg6
VOrdinary Girl
p2149
sg8
F0.30870800000000004
sg9
F0.669
sg10
S'raggae'
p2150
sg12
F0.0669
sg13
VRebelution
p2151
sg15
I9999
sg16
F0.786
sg17
Nsg18
F0.8621166666666668
sg19
Nsg20
Nsg21
F0.23193278785871738
sg22
F0.832
sg23
Nsg24
Nsg25
I0
ssg26
I01
sg27
I01
sba(iSong
Song
p2152
(dp2153
g3
(dp2154
g5
F0.0313
sg6
VBreak Us Apart
p2155
sg8
F0.48847199999999996
sg9
F0.613
sg10
S'raggae'
p2156
sg12
F0.26
sg13
VStephen Marley
p2157
sg15
I9999
sg16
F0.863
sg17
Nsg18
F0.9023833333333333
sg19
Nsg20
Nsg21
F0.23193278785871738
sg22
F0.712
sg23
Nsg24
Nsg25
I0
ssg26
I01
sg27
I01
sba(iSong
Song
p2158
(dp2159
g3
(dp2160
g5
F0.194
sg6
VLove Is My Religion
p2161
sg8
F0.382164
sg9
F0.704
sg10
S'raggae'
p2162
sg12
F0.05
sg13
VZiggy Marley
p2163
sg15
I9999
sg16
F0.832
sg17
Nsg18
F0.8836499999999999
sg19
Nsg20
Nsg21
F0.23193278785871738
sg22
F0.773
sg23
Nsg24
Nsg25
I0
ssg26
I01
sg27
I01
sba(iSong
Song
p2164
(dp2165
g3
(dp2166
g5
F0.324
sg6
VI Shot The Sheriff
p2167
sg8
F0.38766
sg9
F0.648
sg10
S'raggae'
p2168
sg12
F0.176
sg13
VThe Wailers
p2169
sg15
I9999
sg16
F0.799
sg17
Nsg18
F0.8472166666666666
sg19
Nsg20
Nsg21
F0.23193278785871738
sg22
F0.675
sg23
Nsg24
Nsg25
F6.8e-05
ssg26
I01
sg27
I01
sba(iSong
Song
p2170
(dp2171
g3
(dp2172
g5
F0.275
sg6
VTrenchtown Rock
p2173
sg8
F0.29817200000000005
sg9
F0.453
sg10
S'raggae'
p2174
sg12
F0.536
sg13
VBob Marley & The Wailers
p2175
sg15
I9999
sg16
F0.798
sg17
Nsg18
F0.8003833333333332
sg19
Nsg20
Nsg21
F0.23193278785871738
sg22
F0.785
sg23
Nsg24
Nsg25
F5.28e-06
ssg26
I01
sg27
I01
sba(iSong
Song
p2176
(dp2177
g3
(dp2178
g5
F0.0311
sg6
VI Don't Wanna Wait
p2179
sg8
F0.50416
sg9
F0.549
sg10
S'raggae'
p2180
sg12
F0.0377
sg13
VSOJA
p2181
sg15
I9999
sg16
F0.804
sg17
Nsg18
F0.9142166666666667
sg19
Nsg20
Nsg21
F0.23193278785871738
sg22
F0.591
sg23
Nsg24
Nsg25
F1.5e-05
ssg26
I01
sg27
I01
sba(iSong
Song
p2182
(dp2183
g3
(dp2184
g5
F0.0736
sg6
VDawn of Time
p2185
sg8
F0.615768
sg9
F0.565
sg10
S'raggae'
p2186
sg12
F0.0553
sg13
VTribal Seeds
p2187
sg15
I9999
sg16
F0.701
sg17
Nsg18
F0.8215166666666666
sg19
Nsg20
Nsg21
F0.23193278785871738
sg22
F0.899
sg23
Nsg24
Nsg25
F0.000504
ssg26
I01
sg27
I01
sba(iSong
Song
p2188
(dp2189
g3
(dp2190
g5
F0.232
sg6
VRoller Skates
p2191
sg8
F0.314756
sg9
F0.575
sg10
S'raggae'
p2192
sg12
F0.238
sg13
VSteel Pulse
p2193
sg15
I9999
sg16
F0.833
sg17
Nsg18
F0.8443166666666666
sg19
Nsg20
Nsg21
F0.23193278785871738
sg22
F0.807
sg23
Nsg24
Nsg25
I0
ssg26
I01
sg27
I01
sba(iSong
Song
p2194
(dp2195
g3
(dp2196
g5
F0.475
sg6
VHills And Valleys
p2197
sg8
F0.5767920000000001
sg9
F0.55
sg10
S'raggae'
p2198
sg12
F0.201
sg13
VBuju Banton
p2199
sg15
I9999
sg16
F0.699
sg17
Nsg18
F0.8573500000000001
sg19
Nsg20
Nsg21
F0.23193278785871738
sg22
F0.773
sg23
Nsg24
Nsg25
I0
ssg26
I01
sg27
I01
sba(iSong
Song
p2200
(dp2201
g3
(dp2202
g5
F0.381
sg6
VWanted Dread and Alive - 2002 Remastered Version
p2203
sg8
F0.384644
sg9
F0.731
sg10
S'raggae'
p2204
sg12
F0.0529
sg13
VPeter Tosh
p2205
sg15
I9999
sg16
F0.795
sg17
Nsg18
F0.8990666666666667
sg19
Nsg20
Nsg21
F0.23193278785871738
sg22
F0.884
sg23
Nsg24
Nsg25
F0.00163
ssg26
I01
sg27
I01
sba(iSong
Song
p2206
(dp2207
g3
(dp2208
g5
F0.134
sg6
VMe Name Jr. Gong
p2209
sg8
F0.50182
sg9
F0.656
sg10
S'raggae'
p2210
sg12
F0.0788
sg13
VDamian Marley
p2211
sg15
I9999
sg16
F0.812
sg17
Nsg18
F0.9149666666666666
sg19
Nsg20
Nsg21
F0.23193278785871738
sg22
F0.903
sg23
Nsg24
Nsg25
I0
ssg26
I01
sg27
I01
sba(iSong
Song
p2212
(dp2213
g3
(dp2214
g5
F0.228
sg6
VThis Joint
p2215
sg8
F0.3
sg9
F0.709
sg10
S'raggae'
p2216
sg12
F0.108
sg13
VSlightly Stoopid
p2217
sg15
I9999
sg16
F0.778
sg17
Nsg18
F0.9048999999999999
sg19
Nsg20
Nsg21
F0.23193278785871738
sg22
F0.96
sg23
Nsg24
Nsg25
F0.00116
ssg26
I01
sg27
I01
sba(iSong
Song
p2218
(dp2219
g3
(dp2220
g5
F0.0241
sg6
VYouths Dem Cold
p2221
sg8
F0.32448
sg9
F0.697
sg10
S'raggae'
p2222
sg12
F0.348
sg13
VRichie Spice
p2223
sg15
I9999
sg16
F0.635
sg17
Nsg18
F0.89795
sg19
Nsg20
Nsg21
F0.23193278785871738
sg22
F0.826
sg23
Nsg24
Nsg25
I0
ssg26
I01
sg27
I01
sba(iSong
Song
p2224
(dp2225
g3
(dp2226
g5
F0.0552
sg6
VThree Little Birds - 12" Mix (Dub Version)
p2227
sg8
F0.2973
sg9
F0.604
sg10
S'raggae'
p2228
sg12
F0.0829
sg13
VBob Marley & The Wailers
p2229
sg15
I9999
sg16
F0.79
sg17
Nsg18
F0.8526
sg19
Nsg20
Nsg21
F0.23193278785871738
sg22
F0.744
sg23
Nsg24
Nsg25
F9.48e-05
ssg26
I01
sg27
I01
sba(iSong
Song
p2230
(dp2231
g3
(dp2232
g5
F0.225
sg6
VSet Sail
p2233
sg8
F0.384988
sg9
F0.651
sg10
S'raggae'
p2234
sg12
F0.05
sg13
VThe Movement
p2235
sg15
I9999
sg16
F0.746
sg17
Nsg18
F0.9022
sg19
Nsg20
Nsg21
F0.23193278785871738
sg22
F0.741
sg23
Nsg24
Nsg25
I0
ssg26
I01
sg27
I01
sba(iSong
Song
p2236
(dp2237
g3
(dp2238
g5
F0.289
sg6
VYoung Girl
p2239
sg8
F0.580072
sg9
F0.333
sg10
S'raggae'
p2240
sg12
F0.232
sg13
VDon Carlos
p2241
sg15
I9999
sg16
F0.839
sg17
Nsg18
F0.7645166666666667
sg19
Nsg20
Nsg21
F0.23193278785871738
sg22
F0.791
sg23
Nsg24
Nsg25
I0
ssg26
I01
sg27
I01
sba(iSong
Song
p2242
(dp2243
g3
(dp2244
g5
F0.196
sg6
VAfrican Teacher
p2245
sg8
F0.313428
sg9
F0.517
sg10
S'raggae'
p2246
sg12
F0.0606
sg13
VBurning Spear
p2247
sg15
I9999
sg16
F0.777
sg17
Nsg18
F0.8227833333333334
sg19
Nsg20
Nsg21
F0.23193278785871738
sg22
F0.96
sg23
Nsg24
Nsg25
F0.298
ssg26
I01
sg27
I01
sba(iSong
Song
p2248
(dp2249
g3
(dp2250
g5
F0.0182
sg6
VGhost Man
p2251
sg8
F0.41174400000000005
sg9
F0.668
sg10
S'raggae'
p2252
sg12
F0.0579
sg13
VPassafire
p2253
sg15
I9999
sg16
F0.678
sg17
Nsg18
F0.9124
sg19
Nsg20
Nsg21
F0.23193278785871738
sg22
F0.784
sg23
Nsg24
Nsg25
I0
ssg26
I01
sg27
I01
sba(iSong
Song
p2254
(dp2255
g3
(dp2256
g5
F0.099
sg6
VLiving In Love
p2257
sg8
F0.306788
sg9
F0.843
sg10
S'raggae'
p2258
sg12
F0.199
sg13
VI Wayne
p2259
sg15
I9999
sg16
F0.789
sg17
Nsg18
F0.9249166666666666
sg19
Nsg20
Nsg21
F0.23193278785871738
sg22
F0.961
sg23
Nsg24
Nsg25
I0
ssg26
I01
sg27
I01
sba(iSong
Song
p2260
(dp2261
g3
(dp2262
g5
F0.0366
sg6
VRasta Should Be Deeper
p2263
sg8
F0.28954
sg9
F0.803
sg10
S'raggae'
p2264
sg12
F0.0617
sg13
VJunior Kelly
p2265
sg15
I9999
sg16
F0.734
sg17
Nsg18
F0.9032
sg19
Nsg20
Nsg21
F0.23193278785871738
sg22
F0.776
sg23
Nsg24
Nsg25
I0
ssg26
I01
sg27
I01
sba(iSong
Song
p2266
(dp2267
g3
(dp2268
g5
F0.224
sg6
VWhen mi rise it
p2269
sg8
F0.311076
sg9
F0.783
sg10
S'raggae'
p2270
sg12
F0.215
sg13
VLutan Fyah
p2271
sg15
I9999
sg16
F0.693
sg17
Nsg18
F0.93345
sg19
Nsg20
Nsg21
F0.23193278785871738
sg22
F0.774
sg23
Nsg24
Nsg25
I0
ssg26
I01
sg27
I01
sba(iSong
Song
p2272
(dp2273
g3
(dp2274
g5
F0.0347
sg6
VStrange Things
p2275
sg8
F0.32827999999999996
sg9
F0.411
sg10
S'raggae'
p2276
sg12
F0.119
sg13
VJohn Holt
p2277
sg15
I9999
sg16
F0.792
sg17
Nsg18
F0.8462333333333334
sg19
Nsg20
Nsg21
F0.23193278785871738
sg22
F0.467
sg23
Nsg24
Nsg25
F1.72e-06
ssg26
I01
sg27
I01
sba(iSong
Song
p2278
(dp2279
g3
(dp2280
g5
F0.424
sg6
VKing Of Kings
p2281
sg8
F0.60024
sg9
F0.61
sg10
S'raggae'
p2282
sg12
F0.0778
sg13
VElijah Prophet
p2283
sg15
I9999
sg16
F0.741
sg17
Nsg18
F0.8955833333333333
sg19
Nsg20
Nsg21
F0.23193278785871738
sg22
F0.951
sg23
Nsg24
Nsg25
I0
ssg26
I01
sg27
I01
sba(iSong
Song
p2284
(dp2285
g3
(dp2286
g5
F0.362
sg6
VMy Confession
p2287
sg8
F0.546424
sg9
F0.367
sg10
S'raggae'
p2288
sg12
F0.0621
sg13
VCornell Campbell
p2289
sg15
I9999
sg16
F0.797
sg17
Nsg18
F0.81145
sg19
Nsg20
Nsg21
F0.23193278785871738
sg22
F0.7
sg23
Nsg24
Nsg25
F0.463
ssg26
I01
sg27
I01
sba(iSong
Song
p2290
(dp2291
g3
(dp2292
g5
F0.0111
sg6
VWorld A Music
p2293
sg8
F0.296332
sg9
F0.492
sg10
S'raggae'
p2294
sg12
F0.139
sg13
VIni Kamoze
p2295
sg15
I9999
sg16
F0.874
sg17
Nsg18
F0.8707999999999999
sg19
Nsg20
Nsg21
F0.23193278785871738
sg22
F0.357
sg23
Nsg24
Nsg25
F0.00801
ssg26
I01
sg27
I01
sba(iSong
Song
p2296
(dp2297
g3
(dp2298
g5
F0.365
sg6
VUnto Zion
p2299
sg8
F0.5513920000000001
sg9
F0.5
sg10
S'raggae'
p2300
sg12
F0.349
sg13
VRas Shiloh
p2301
sg15
I9999
sg16
F0.608
sg17
Nsg18
F0.8627833333333332
sg19
Nsg20
Nsg21
F0.23193278785871738
sg22
F0.595
sg23
Nsg24
Nsg25
I0
ssg26
I01
sg27
I01
sba(iSong
Song
p2302
(dp2303
g3
(dp2304
g5
F0.651
sg6
VIntoxication
p2305
sg8
F0.335552
sg9
F0.652
sg10
S'raggae'
p2306
sg12
F0.263
sg13
VGentleman
p2307
sg15
I9999
sg16
F0.646
sg17
Nsg18
F0.89925
sg19
Nsg20
Nsg21
F0.23193278785871738
sg22
F0.659
sg23
Nsg24
Nsg25
I0
ssg26
I01
sg27
I01
sba(iSong
Song
p2308
(dp2309
g3
(dp2310
g5
F0.217
sg6
VRastafari Anthem
p2311
sg8
F0.306624
sg9
F0.69
sg10
S'raggae'
p2312
sg12
F0.395
sg13
VAlborosie
p2313
sg15
I9999
sg16
F0.666
sg17
Nsg18
F0.9066
sg19
Nsg20
Nsg21
F0.23193278785871738
sg22
F0.768
sg23
Nsg24
Nsg25
I0
ssg26
I01
sg27
I01
sba(iSong
Song
p2314
(dp2315
g3
(dp2316
g5
F0.078
sg6
VHello (Reggae Cover)
p2317
sg8
F0.315972
sg9
F0.535
sg10
S'raggae'
p2318
sg12
F0.0441
sg13
VConkarah
p2319
sg15
I9999
sg16
F0.759
sg17
Nsg18
F0.8428166666666667
sg19
Nsg20
Nsg21
F0.23193278785871738
sg22
F0.46
sg23
Nsg24
Nsg25
F0.0121
ssg26
I01
sg27
I01
sba(iSong
Song
p2320
(dp2321
g3
(dp2322
g5
F0.0056
sg6
VLost (feat. M)
p2323
sg8
F0.559712
sg9
F0.794
sg10
S'raggae'
p2324
sg12
F0.0286
sg13
VMajor Lazer
p2325
sg15
I9999
sg16
F0.675
sg17
Nsg18
F0.91565
sg19
Nsg20
Nsg21
F0.23193278785871738
sg22
F0.847
sg23
Nsg24
Nsg25
F0.00212
ssg26
I01
sg27
I01
sba(iSong
Song
p2326
(dp2327
g3
(dp2328
g5
F0.0477
sg6
VSomebody That I Used to Know
p2329
sg8
F0.512096
sg9
F0.47
sg10
S'raggae'
p2330
sg12
F0.0497
sg13
VFreedom Dub
p2331
sg15
I9999
sg16
F0.832
sg17
Nsg18
F0.8402333333333334
sg19
Nsg20
Nsg21
F0.23193278785871738
sg22
F0.735
sg23
Nsg24
Nsg25
F0.0135
ssg26
I01
sg27
I01
sba(iSong
Song
p2332
(dp2333
g3
(dp2334
g5
F0.154
sg6
VThinking Out Loud (Reggae Version)
p2335
sg8
F0.680196
sg9
F0.693
sg10
S'raggae'
p2336
sg12
F0.0606
sg13
VBrother Strut
p2337
sg15
I9999
sg16
F0.605
sg17
Nsg18
F0.9058666666666667
sg19
Nsg20
Nsg21
F0.23193278785871738
sg22
F0.796
sg23
Nsg24
Nsg25
F3.87e-06
ssg26
I01
sg27
I01
sba(iSong
Song
p2338
(dp2339
g3
(dp2340
g5
F0.00314
sg6
VLocked out of Heaven
p2341
sg8
F0.5599400000000001
sg9
F0.666
sg10
S'raggae'
p2342
sg12
F0.0373
sg13
VGeneral Soundbwoy
p2343
sg15
I9999
sg16
F0.656
sg17
Nsg18
F0.8885166666666666
sg19
Nsg20
Nsg21
F0.23193278785871738
sg22
F0.781
sg23
Nsg24
Nsg25
F4.78e-05
ssg26
I01
sg27
I01
sba(iSong
Song
p2344
(dp2345
g3
(dp2346
g5
F0.0461
sg6
VShow Me
p2347
sg8
F0.311956
sg9
F0.706
sg10
S'raggae'
p2348
sg12
F0.0535
sg13
VBruno Mars
p2349
sg15
I9999
sg16
F0.743
sg17
Nsg18
F0.9045333333333333
sg19
Nsg20
Nsg21
F0.23193278785871738
sg22
F0.514
sg23
Nsg24
Nsg25
I0
ssg26
I01
sg27
I01
sba(iSong
Song
p2350
(dp2351
g3
(dp2352
g5
F0.575
sg6
VI Don't Wanna Waste
p2353
sg8
F0.3762
sg9
F0.71
sg10
S'raggae'
p2354
sg12
F0.224
sg13
VBen L'Oncle Soul
p2355
sg15
I9999
sg16
F0.778
sg17
Nsg18
F0.8669333333333333
sg19
Nsg20
Nsg21
F0.23193278785871738
sg22
F0.784
sg23
Nsg24
Nsg25
F0.133
ssg26
I01
sg27
I01
sba(iSong
Song
p2356
(dp2357
g3
(dp2358
g5
F0.023
sg6
VStanding on the Sun Remix
p2359
sg8
F0.783824
sg9
F0.808
sg10
S'raggae'
p2360
sg12
F0.176
sg13
VBeyonc
p2361
sg15
I9999
sg16
F0.354
sg17
Nsg18
F0.8920499999999999
sg19
Nsg20
Nsg21
F0.23193278785871738
sg22
F0.397
sg23
Nsg24
Nsg25
F2.42e-05
ssg26
I01
sg27
I01
sba(iSong
Song
p2362
(dp2363
g3
(dp2364
g5
F0.115
sg6
VTake Me Over
p2365
sg8
F0.326988
sg9
F0.882
sg10
S'raggae'
p2366
sg12
F0.0391
sg13
VStephanie McKay
p2367
sg15
I9999
sg16
F0.577
sg17
Nsg18
F0.9309666666666666
sg19
Nsg20
Nsg21
F0.23193278785871738
sg22
F0.786
sg23
Nsg24
Nsg25
F3.45e-05
ssg26
I01
sg27
I01
sba(iSong
Song
p2368
(dp2369
g3
(dp2370
g5
F0.0125
sg6
VCan't Be My Lover - Curtis Lynch Remix
p2371
sg8
F0.319884
sg9
F0.651
sg10
S'raggae'
p2372
sg12
F0.238
sg13
VJohn Legend
p2373
sg15
I9999
sg16
F0.622
sg17
Nsg18
F0.9356500000000001
sg19
Nsg20
Nsg21
F0.23193278785871738
sg22
F0.743
sg23
Nsg24
Nsg25
I0
ssg26
I01
sg27
I01
sba(iSong
Song
p2374
(dp2375
g3
(dp2376
g5
F0.0404
sg6
VCan't Tek No More
p2377
sg8
F0.560024
sg9
F0.803
sg10
S'raggae'
p2378
sg12
F0.0435
sg13
VDizzee Rascal
p2379
sg15
I9999
sg16
F0.75
sg17
Nsg18
F0.94325
sg19
Nsg20
Nsg21
F0.23193278785871738
sg22
F0.696
sg23
Nsg24
Nsg25
I0
ssg26
I01
sg27
I01
sba(iSong
Song
p2380
(dp2381
g3
(dp2382
g5
F0.000364
sg6
VHere I Go Again
p2383
sg8
F0.330012
sg9
F0.614
sg10
S'raggae'
p2384
sg12
F0.117
sg13
VRihanna
p2385
sg15
I9999
sg16
F0.505
sg17
Nsg18
F0.9010833333333333
sg19
Nsg20
Nsg21
F0.23193278785871738
sg22
F0.644
sg23
Nsg24
Nsg25
F0.00158
ssg26
I01
sg27
I01
sba(iSong
Song
p2386
(dp2387
g3
(dp2388
g5
F0.275
sg6
VMonkey Man
p2389
sg8
F0.5861000000000001
sg9
F0.845
sg10
S'raggae'
p2390
sg12
F0.078
sg13
VAmy Winehouse
p2391
sg15
I9999
sg16
F0.614
sg17
Nsg18
F0.9527666666666667
sg19
Nsg20
Nsg21
F0.23193278785871738
sg22
F0.918
sg23
Nsg24
Nsg25
I0
ssg26
I01
sg27
I01
sba(iSong
Song
p2392
(dp2393
g3
(dp2394
g5
F0.0626
sg6
VWith Ur Love - Teka & SoulForce Reggae Remix
p2395
sg8
F0.68044
sg9
F0.78
sg10
S'raggae'
p2396
sg12
F0.0539
sg13
VCher Lloyd
p2397
sg15
I9999
sg16
F0.527
sg17
Nsg18
F0.9397833333333333
sg19
Nsg20
Nsg21
F0.23193278785871738
sg22
F0.518
sg23
Nsg24
Nsg25
I0
ssg26
I01
sg27
I01
sba(iSong
Song
p2398
(dp2399
g3
(dp2400
g5
F0.595
sg6
VI'm Yours
p2401
sg8
F0.603812
sg9
F0.457
sg10
S'raggae'
p2402
sg12
F0.0468
sg13
VJason Mraz
p2403
sg15
I9999
sg16
F0.686
sg17
Nsg18
F0.8613
sg19
Nsg20
Nsg21
F0.23193278785871738
sg22
F0.718
sg23
Nsg24
Nsg25
I0
ssg26
I01
sg27
I01
sba(iSong
Song
p2404
(dp2405
g3
(dp2406
g5
F0.306
sg6
VRunning Away - Winta James Mix
p2407
sg8
F0.599904
sg9
F0.584
sg10
S'raggae'
p2408
sg12
F0.0331
sg13
VAdy Suleiman
p2409
sg15
I9999
sg16
F0.669
sg17
Nsg18
F0.9002
sg19
Nsg20
Nsg21
F0.23193278785871738
sg22
F0.949
sg23
Nsg24
Nsg25
F0.0325
ssg26
I01
sg27
I01
sba(iSong
Song
p2410
(dp2411
g3
(dp2412
g5
F0.0496
sg6
VNice Things
p2413
sg8
F0.351888
sg9
F0.614
sg10
S'raggae'
p2414
sg12
F0.211
sg13
VMarlon Roudette
p2415
sg15
I9999
sg16
F0.643
sg17
Nsg18
F0.8859666666666667
sg19
Nsg20
Nsg21
F0.23193278785871738
sg22
F0.61
sg23
Nsg24
Nsg25
I0
ssg26
I01
sg27
I01
sba(iSong
Song
p2416
(dp2417
g3
(dp2418
g5
F0.0422
sg6
VOur Day Will Come
p2419
sg8
F0.39202800000000004
sg9
F0.633
sg10
S'raggae'
p2420
sg12
F0.0289
sg13
VAmy Winehouse
p2421
sg15
I9999
sg16
F0.696
sg17
Nsg18
F0.8995666666666667
sg19
Nsg20
Nsg21
F0.23193278785871738
sg22
F0.697
sg23
Nsg24
Nsg25
F4.74e-05
ssg26
I01
sg27
I01
sba(iSong
Song
p2422
(dp2423
g3
(dp2424
g5
F0.000146
sg6
VWake Me Up - Reggae Mix
p2425
sg8
F0.372
sg9
F0.762
sg10
S'raggae'
p2426
sg12
F0.0296
sg13
VAvicii
p2427
sg15
I9999
sg16
F0.607
sg17
Nsg18
F0.87825
sg19
Nsg20
Nsg21
F0.23193278785871738
sg22
F0.386
sg23
Nsg24
Nsg25
F0.052
ssg26
I01
sg27
I01
sba(iSong
Song
p2428
(dp2429
g3
(dp2430
g5
F0.199
sg6
VCheerleader
p2431
sg8
F0.400032
sg9
F0.719
sg10
S'raggae'
p2432
sg12
F0.031
sg13
VOMI
p2433
sg15
I9999
sg16
F0.864
sg17
Nsg18
F0.9158833333333334
sg19
Nsg20
Nsg21
F0.23193278785871738
sg22
F0.943
sg23
Nsg24
Nsg25
I0
ssg26
I01
sg27
I01
sba(iSong
Song
p2434
(dp2435
g3
(dp2436
g5
F0.304
sg6
VAnimal - Mark Ronson Remix
p2437
sg8
F0.467224
sg9
F0.808
sg10
S'raggae'
p2438
sg12
F0.0414
sg13
VMiike Snow
p2439
sg15
I9999
sg16
F0.833
sg17
Nsg18
F0.9196000000000001
sg19
Nsg20
Nsg21
F0.23193278785871738
sg22
F0.961
sg23
Nsg24
Nsg25
F0.00918
ssg26
I01
sg27
I01
sba(iSong
Song
p2440
(dp2441
g3
(dp2442
g5
F0.21
sg6
VLess Is More
p2443
sg8
F0.315424
sg9
F0.682
sg10
S'raggae'
p2444
sg12
F0.135
sg13
VJoss Stone
p2445
sg15
I9999
sg16
F0.627
sg17
Nsg18
F0.9052
sg19
Nsg20
Nsg21
F0.23193278785871738
sg22
F0.69
sg23
Nsg24
Nsg25
I0
ssg26
I01
sg27
I01
sba(iSong
Song
p2446
(dp2447
g3
(dp2448
g5
F0.0161
sg6
VHumanity (Love the Way It Should Be)
p2449
sg8
F0.52124
sg9
F0.643
sg10
S'raggae'
p2450
sg12
F0.0307
sg13
VJohn Legend
p2451
sg15
I9999
sg16
F0.46
sg17
Nsg18
F0.92805
sg19
Nsg20
Nsg21
F0.23193278785871738
sg22
F0.506
sg23
Nsg24
Nsg25
F0.00675
ssg26
I01
sg27
I01
sba(iSong
Song
p2452
(dp2453
g3
(dp2454
g5
F0.0423
sg6
VRude
p2455
sg8
F0.5761280000000001
sg9
F0.756
sg10
S'raggae'
p2456
sg12
F0.0389
sg13
VMAGIC!
p2457
sg15
I9999
sg16
F0.774
sg17
Nsg18
F0.9167500000000001
sg19
Nsg20
Nsg21
F0.23193278785871738
sg22
F0.931
sg23
Nsg24
Nsg25
I0
ssg26
I01
sg27
I01
sba(iSong
Song
p2458
(dp2459
g3
(dp2460
g5
F0.0614
sg6
VEverybody
p2461
sg8
F0.299892
sg9
F0.676
sg10
S'raggae'
p2462
sg12
F0.194
sg13
VAnthony Hamilton
p2463
sg15
I9999
sg16
F0.64
sg17
Nsg18
F0.8896499999999999
sg19
Nsg20
Nsg21
F0.23193278785871738
sg22
F0.792
sg23
Nsg24
Nsg25
I0
ssg26
I01
sg27
I01
sba(iSong
Song
p2464
(dp2465
g3
(dp2466
g5
F0.00835
sg6
VSimplify (feat. Scratch Professer) - Rootickal Re Twist
p2467
sg8
F0.3361
sg9
F0.868
sg10
S'raggae'
p2468
sg12
F0.308
sg13
VOmar
p2469
sg15
I9999
sg16
F0.667
sg17
Nsg18
F0.9063666666666667
sg19
Nsg20
Nsg21
F0.23193278785871738
sg22
F0.67
sg23
Nsg24
Nsg25
F0.00328
ssg26
I01
sg27
I01
sba(iSong
Song
p2470
(dp2471
g3
(dp2472
g5
F0.0224
sg6
VUnapologetic Bitch
p2473
sg8
F0.300076
sg9
F0.777
sg10
S'raggae'
p2474
sg12
F0.204
sg13
VMadonna
p2475
sg15
I9999
sg16
F0.76
sg17
Nsg18
F0.91955
sg19
Nsg20
Nsg21
F0.23193278785871738
sg22
F0.821
sg23
Nsg24
Nsg25
F0.000106
ssg26
I01
sg27
I01
sba(iSong
Song
p2476
(dp2477
g3
(dp2478
g5
F0.154
sg6
VCome Over (feat. Stylo G)
p2479
sg8
F0.39987599999999995
sg9
F0.782
sg10
S'raggae'
p2480
sg12
F0.0564
sg13
VClean Bandit
p2481
sg15
I9999
sg16
F0.809
sg17
Nsg18
F0.90625
sg19
Nsg20
Nsg21
F0.23193278785871738
sg22
F0.669
sg23
Nsg24
Nsg25
F5.64e-06
ssg26
I01
sg27
I01
sba(iSong
Song
p2482
(dp2483
g3
(dp2484
g5
F0.0975
sg6
VHere I Am - Come And Take Me
p2485
sg8
F0.383624
sg9
F0.621
sg10
S'raggae'
p2486
sg12
F0.0377
sg13
VUB40
p2487
sg15
I9999
sg16
F0.802
sg17
Nsg18
F0.8678
sg19
Nsg20
Nsg21
F0.23193278785871738
sg22
F0.81
sg23
Nsg24
Nsg25
F0.0256
ssg26
I01
sg27
I01
sba(iSong
Song
p2488
(dp2489
g3
(dp2490
g5
F0.00444
sg6
VAll That She Wants
p2491
sg8
F0.375092
sg9
F0.641
sg10
S'raggae'
p2492
sg12
F0.0565
sg13
VAce of Base
p2493
sg15
I9999
sg16
F0.801
sg17
Nsg18
F0.8483833333333333
sg19
Nsg20
Nsg21
F0.23193278785871738
sg22
F0.829
sg23
Nsg24
Nsg25
F3.54e-05
ssg26
I01
sg27
I01
sba(iSong
Song
p2494
(dp2495
g3
(dp2496
g5
F0.117
sg6
VKnow Who You Are
p2497
sg8
F0.729212
sg9
F0.495
sg10
S'raggae'
p2498
sg12
F0.182
sg13
VPharrell Williams
p2499
sg15
I9999
sg16
F0.644
sg17
Nsg18
F0.8816333333333333
sg19
Nsg20
Nsg21
F0.23193278785871738
sg22
F0.747
sg23
Nsg24
Nsg25
F6.15e-06
ssg26
I01
sg27
I01
sba(iSong
Song
p2500
(dp2501
g3
(dp2502
g5
F0.0583
sg6
VPiece Of Me - Sly and Robbie Reggae Remix
p2503
sg8
F0.45988799999999996
sg9
F0.706
sg10
S'raggae'
p2504
sg12
F0.0385
sg13
VBritney Spears
p2505
sg15
I9999
sg16
F0.896
sg17
Nsg18
F0.9121666666666667
sg19
Nsg20
Nsg21
F0.23193278785871738
sg22
F0.94
sg23
Nsg24
Nsg25
F2.03e-06
ssg26
I01
sg27
I01
sba(iSong
Song
p2506
(dp2507
g3
(dp2508
g5
F0.911
sg6
VFire
p2509
sg8
F0.490004
sg9
F0.175
sg10
S'raggae'
p2510
sg12
F0.0846
sg13
VJake Bugg
p2511
sg15
I9999
sg16
F0.673
sg17
Nsg18
F0.8119
sg19
Nsg20
Nsg21
F0.23193278785871738
sg22
F0.358
sg23
Nsg24
Nsg25
I0
ssg26
I01
sg27
I01
sba(iSong
Song
p2512
(dp2513
g3
(dp2514
g5
F0.0147
sg6
VNo One (Curtis Lynch Reggae Remix)
p2515
sg8
F0.35996
sg9
F0.631
sg10
S'raggae'
p2516
sg12
F0.0299
sg13
VAlicia Keys
p2517
sg15
I9999
sg16
F0.636
sg17
Nsg18
F0.9254
sg19
Nsg20
Nsg21
F0.23193278785871738
sg22
F0.561
sg23
Nsg24
Nsg25
I0
ssg26
I01
sg27
I01
sba(iSong
Song
p2518
(dp2519
g3
(dp2520
g5
F0.0731
sg6
VMr Loverman
p2521
sg8
F0.690432
sg9
F0.622
sg10
S'raggae'
p2522
sg12
F0.147
sg13
VShabba Ranks
p2523
sg15
I9999
sg16
F0.673
sg17
Nsg18
F0.8101
sg19
Nsg20
Nsg21
F0.23193278785871738
sg22
F0.81
sg23
Nsg24
Nsg25
F1.58e-06
ssg26
I01
sg27
I01
sba(iSong
Song
p2524
(dp2525
g3
(dp2526
g5
F0.129
sg6
VAngel
p2527
sg8
F0.341116
sg9
F0.759
sg10
S'raggae'
p2528
sg12
F0.0905
sg13
VShaggy
p2529
sg15
I9999
sg16
F0.806
sg17
Nsg18
F0.9509833333333333
sg19
Nsg20
Nsg21
F0.23193278785871738
sg22
F0.785
sg23
Nsg24
Nsg25
I0
ssg26
I01
sg27
I01
sba(iSong
Song
p2530
(dp2531
g3
(dp2532
g5
F0.104
sg6
VYou Girl (feat. Ne-Yo)
p2533
sg8
F0.316584
sg9
F0.652
sg10
S'raggae'
p2534
sg12
F0.117
sg13
VShaggy
p2535
sg15
I9999
sg16
F0.769
sg17
Nsg18
F0.9151666666666666
sg19
Nsg20
Nsg21
F0.23193278785871738
sg22
F0.923
sg23
Nsg24
Nsg25
I0
ssg26
I01
sg27
I01
sba(iSong
Song
p2536
(dp2537
g3
(dp2538
g5
F0.0142
sg6
VLDN
p2539
sg8
F0.400092
sg9
F0.607
sg10
S'raggae'
p2540
sg12
F0.027
sg13
VLily Allen
p2541
sg15
I9999
sg16
F0.673
sg17
Nsg18
F0.8721333333333334
sg19
Nsg20
Nsg21
F0.23193278785871738
sg22
F0.898
sg23
Nsg24
Nsg25
F4.15e-06
ssg26
I01
sg27
I01
sba(iSong
Song
p2542
(dp2543
g3
(dp2544
g5
F0.0223
sg6
VSanteria
p2545
sg8
F0.36142399999999997
sg9
F0.772
sg10
S'raggae'
p2546
sg12
F0.0427
sg13
VSublime
p2547
sg15
I9999
sg16
F0.673
sg17
Nsg18
F0.9125666666666666
sg19
Nsg20
Nsg21
F0.23193278785871738
sg22
F0.585
sg23
Nsg24
Nsg25
F1.23e-06
ssg26
I01
sg27
I01
sba(iSong
Song
p2548
(dp2549
g3
(dp2550
g5
F0.0713
sg6
VEasy To Love
p2551
sg8
F0.303964
sg9
F0.81
sg10
S'raggae'
p2552
sg12
F0.0602
sg13
VMaxi Priest
p2553
sg15
I9999
sg16
F0.588
sg17
Nsg18
F0.8851666666666667
sg19
Nsg20
Nsg21
F0.23193278785871738
sg22
F0.8
sg23
Nsg24
Nsg25
I0
ssg26
I01
sg27
I01
sba(iSong
Song
p2554
(dp2555
g3
(dp2556
g5
F0.121
sg6
VNo Coke - 7" Mix
p2557
sg8
F0.386356
sg9
F0.695
sg10
S'raggae'
p2558
sg12
F0.153
sg13
VDr. Alban
p2559
sg15
I9999
sg16
F0.847
sg17
Nsg18
F0.8515166666666667
sg19
Nsg20
Nsg21
F0.23193278785871738
sg22
F0.645
sg23
Nsg24
Nsg25
I0
ssg26
I01
sg27
I01
sba(iSong
Song
p2560
(dp2561
g3
(dp2562
g5
F0.0628
sg6
VLike A Champion
p2563
sg8
F0.359568
sg9
F0.899
sg10
S'raggae'
p2564
sg12
F0.162
sg13
VSelena Gomez
p2565
sg15
I9999
sg16
F0.451
sg17
Nsg18
F0.9316333333333333
sg19
Nsg20
Nsg21
F0.23193278785871738
sg22
F0.932
sg23
Nsg24
Nsg25
I0
ssg26
I01
sg27
I01
sba(iSong
Song
p2566
(dp2567
g3
(dp2568
g5
F0.00208
sg6
VIt Don't Make Any Difference To Me (feat. Wyclef Jean) - Supa Dupes Remix
p2569
sg8
F0.354016
sg9
F0.664
sg10
S'raggae'
p2570
sg12
F0.0388
sg13
VKevin Michael
p2571
sg15
I9999
sg16
F0.726
sg17
Nsg18
F0.8893166666666666
sg19
Nsg20
Nsg21
F0.23193278785871738
sg22
F0.387
sg23
Nsg24
Nsg25
I0
ssg26
I01
sg27
I01
sba(iSong
Song
p2572
(dp2573
g3
(dp2574
g5
F0.122
sg6
VCan't Remember to Forget You
p2575
sg8
F0.5518719999999999
sg9
F0.81
sg10
S'raggae'
p2576
sg12
F0.0661
sg13
VShakira
p2577
sg15
I9999
sg16
F0.694
sg17
Nsg18
F0.9407333333333334
sg19
Nsg20
Nsg21
F0.23193278785871738
sg22
F0.824
sg23
Nsg24
Nsg25
I0
ssg26
I01
sg27
I01
sba(iSong
Song
p2578
(dp2579
g3
(dp2580
g5
F0.117
sg6
VCalling (feat. Topher)
p2581
sg8
F0.6393840000000001
sg9
F0.736
sg10
S'raggae'
p2582
sg12
F0.126
sg13
VBellita Carol
p2583
sg15
I9999
sg16
F0.756
sg17
Nsg18
F0.9312833333333334
sg19
Nsg20
Nsg21
F0.23193278785871738
sg22
F0.779
sg23
Nsg24
Nsg25
F1.88e-06
ssg26
I01
sg27
I01
sba(iSong
Song
p2584
(dp2585
g3
(dp2586
g5
F1.43e-05
sg6
VBig Hoops (Bigger The Better) - Dancehall Remix
p2587
sg8
F0.7119880000000001
sg9
F0.58
sg10
S'raggae'
p2588
sg12
F0.0474
sg13
VNelly Furtado
p2589
sg15
I9999
sg16
F0.656
sg17
Nsg18
F0.9188166666666666
sg19
Nsg20
Nsg21
F0.23193278785871738
sg22
F0.268
sg23
Nsg24
Nsg25
F0.489
ssg26
I01
sg27
I01
sba(iSong
Song
p2590
(dp2591
g3
(dp2592
g5
F0.244
sg6
VMilk & Honey
p2593
sg8
F0.311864
sg9
F0.682
sg10
S'raggae'
p2594
sg12
F0.178
sg13
VHollie Cook
p2595
sg15
I9999
sg16
F0.752
sg17
Nsg18
F0.8762500000000001
sg19
Nsg20
Nsg21
F0.23193278785871738
sg22
F0.778
sg23
Nsg24
Nsg25
F0.00173
ssg26
I01
sg27
I01
sba(iSong
Song
p2596
(dp2597
g3
(dp2598
g5
F0.0405
sg6
VTurn Me On
p2599
sg8
F0.425116
sg9
F0.682
sg10
S'raggae'
p2600
sg12
F0.0361
sg13
VKevin Lyttle
p2601
sg15
I9999
sg16
F0.677
sg17
Nsg18
F0.8853500000000001
sg19
Nsg20
Nsg21
F0.23193278785871738
sg22
F0.875
sg23
Nsg24
Nsg25
I0
ssg26
I01
sg27
I01
sba(iSong
Song
p2602
(dp2603
g3
(dp2604
g5
F0.137
sg6
VMolly Town
p2605
sg8
F0.33596
sg9
F0.578
sg10
S'raggae'
p2606
sg12
F0.105
sg13
VJoss Stone
p2607
sg15
I9999
sg16
F0.792
sg17
Nsg18
F0.9057
sg19
Nsg20
Nsg21
F0.23193278785871738
sg22
F0.805
sg23
Nsg24
Nsg25
F4.22e-05
ssg26
I01
sg27
I01
sba(iSong
Song
p2608
(dp2609
g3
(dp2610
g5
F0.00338
sg6
VWatching The Wheels
p2611
sg8
F0.3323
sg9
F0.635
sg10
S'raggae'
p2612
sg12
F0.0369
sg13
VMatisyahu
p2613
sg15
I9999
sg16
F0.701
sg17
Nsg18
F0.8794166666666666
sg19
Nsg20
Nsg21
F0.23193278785871738
sg22
F0.684
sg23
Nsg24
Nsg25
F0.000155
ssg26
I01
sg27
I01
sba(iSong
Song
p2614
(dp2615
g3
(dp2616
g5
F0.198
sg6
VOne Day - New Album Version
p2617
sg8
F0.274208
sg9
F0.61
sg10
S'raggae'
p2618
sg12
F0.15
sg13
VMatisyahu
p2619
sg15
I9999
sg16
F0.346
sg17
Nsg18
F0.9030333333333334
sg19
Nsg20
Nsg21
F0.23193278785871738
sg22
F0.235
sg23
Nsg24
Nsg25
I0
ssg26
I01
sg27
I01
sba(iSong
Song
p2620
(dp2621
g3
(dp2622
g5
F0.469
sg6
VBackslider
p2623
sg8
F0.7724439999999999
sg9
F0.541
sg10
S'raggae'
p2624
sg12
F0.102
sg13
VWild Belle
p2625
sg15
I9999
sg16
F0.578
sg17
Nsg18
F0.8524166666666666
sg19
Nsg20
Nsg21
F0.23193278785871738
sg22
F0.739
sg23
Nsg24
Nsg25
F0.0153
ssg26
I01
sg27
I01
sba(iSong
Song
p2626
(dp2627
g3
(dp2628
g5
F0.0231
sg6
VDust and Dirt
p2629
sg8
F0.3232
sg9
F0.508
sg10
S'raggae'
p2630
sg12
F0.0313
sg13
VThe Black Seeds
p2631
sg15
I9999
sg16
F0.723
sg17
Nsg18
F0.8632333333333333
sg19
Nsg20
Nsg21
F0.23193278785871738
sg22
F0.748
sg23
Nsg24
Nsg25
F0.0923
ssg26
I01
sg27
I01
sba(iSong
Song
p2632
(dp2633
g3
(dp2634
g5
F0.000858
sg6
VThe Prophet
p2635
sg8
F0.351964
sg9
F0.73
sg10
S'raggae'
p2636
sg12
F0.0307
sg13
VSlightly Stoopid
p2637
sg15
I9999
sg16
F0.641
sg17
Nsg18
F0.8853833333333333
sg19
Nsg20
Nsg21
F0.23193278785871738
sg22
F0.34
sg23
Nsg24
Nsg25
F0.122
ssg26
I01
sg27
I01
sba(iSong
Song
p2638
(dp2639
g3
(dp2640
g5
F0.1
sg6
VStepping Out (feat. David Hinds)
p2641
sg8
F0.307984
sg9
F0.829
sg10
S'raggae'
p2642
sg12
F0.0793
sg13
VAlborosie
p2643
sg15
I9999
sg16
F0.847
sg17
Nsg18
F0.9248333333333334
sg19
Nsg20
Nsg21
F0.23193278785871738
sg22
F0.964
sg23
Nsg24
Nsg25
I0
ssg26
I01
sg27
I01
sba(iSong
Song
p2644
(dp2645
g3
(dp2646
g5
F0.0623
sg6
VF**k Around (All Night)
p2647
sg8
F0.608116
sg9
F0.893
sg10
S'raggae'
p2648
sg12
F0.0605
sg13
VPepper
p2649
sg15
I9999
sg16
F0.585
sg17
Nsg18
F0.9092833333333333
sg19
Nsg20
Nsg21
F0.23193278785871738
sg22
F0.764
sg23
Nsg24
Nsg25
I0
ssg26
I01
sg27
I01
sba(iSong
Song
p2650
(dp2651
g3
(dp2652
g5
F0.0479
sg6
VHow Do You Want to Be Remembered
p2653
sg8
F0.3221
sg9
F0.567
sg10
S'raggae'
p2654
sg12
F0.0652
sg13
VMAGIC!
p2655
sg15
I9999
sg16
F0.52
sg17
Nsg18
F0.8502666666666666
sg19
Nsg20
Nsg21
F0.23193278785871738
sg22
F0.529
sg23
Nsg24
Nsg25
F1.61e-06
ssg26
I01
sg27
I01
sba(iSong
Song
p2656
(dp2657
g3
(dp2658
g5
F0.325
sg6
VLead The Way
p2659
sg8
F0.701012
sg9
F0.802
sg10
S'raggae'
p2660
sg12
F0.358
sg13
VKabaka Pyramid
p2661
sg15
I9999
sg16
F0.548
sg17
Nsg18
F0.9201833333333334
sg19
Nsg20
Nsg21
F0.23193278785871738
sg22
F0.928
sg23
Nsg24
Nsg25
I0
ssg26
I01
sg27
I01
sba(iSong
Song
p2662
(dp2663
g3
(dp2664
g5
F0.0467
sg6
VDrifting Along - Remastered
p2665
sg8
F0.38468
sg9
F0.545
sg10
S'raggae'
p2666
sg12
F0.0483
sg13
VJamiroquai
p2667
sg15
I9999
sg16
F0.777
sg17
Nsg18
F0.8734833333333333
sg19
Nsg20
Nsg21
F0.23193278785871738
sg22
F0.77
sg23
Nsg24
Nsg25
F0.73
ssg26
I01
sg27
I01
sba(iSong
Song
p2668
(dp2669
g3
(dp2670
g5
F0.0224
sg6
VGunship Politico
p2671
sg8
F0.374056
sg9
F0.74
sg10
S'raggae'
p2672
sg12
F0.0492
sg13
VState Radio
p2673
sg15
I9999
sg16
F0.55
sg17
Nsg18
F0.8922
sg19
Nsg20
Nsg21
F0.23193278785871738
sg22
F0.617
sg23
Nsg24
Nsg25
F6.89e-06
ssg26
I01
sg27
I01
sba(iSong
Song
p2674
(dp2675
g3
(dp2676
g5
F0.00747
sg6
VSunshine
p2677
sg8
F0.40011599999999997
sg9
F0.769
sg10
S'raggae'
p2678
sg12
F0.0626
sg13
VMatisyahu
p2679
sg15
I9999
sg16
F0.697
sg17
Nsg18
F0.9381333333333333
sg19
Nsg20
Nsg21
F0.23193278785871738
sg22
F0.822
sg23
Nsg24
Nsg25
I0
ssg26
I01
sg27
I01
sba(iSong
Song
p2680
(dp2681
g3
(dp2682
g5
F0.529
sg6
VBlack Roses
p2683
sg8
F0.33582799999999996
sg9
F0.323
sg10
S'raggae'
p2684
sg12
F0.0369
sg13
VBarrington Levy
p2685
sg15
I9999
sg16
F0.55
sg17
Nsg18
F0.8372666666666667
sg19
Nsg20
Nsg21
F0.23193278785871738
sg22
F0.586
sg23
Nsg24
Nsg25
I0
ssg26
I01
sg27
I01
sba(iSong
Song
p2686
(dp2687
g3
(dp2688
g5
F0.113
sg6
VCome Let Go
p2689
sg8
F0.5603680000000001
sg9
F0.542
sg10
S'raggae'
p2690
sg12
F0.0478
sg13
VXavier Rudd
p2691
sg15
I9999
sg16
F0.543
sg17
Nsg18
F0.85585
sg19
Nsg20
Nsg21
F0.23193278785871738
sg22
F0.261
sg23
Nsg24
Nsg25
F0.0512
ssg26
I01
sg27
I01
sba(iSong
Song
p2692
(dp2693
g3
(dp2694
g5
F0.0627
sg6
VWalk Away
p2695
sg8
F0.419932
sg9
F0.718
sg10
S'raggae'
p2696
sg12
F0.0392
sg13
VBallyhoo!
p2697
sg15
I9999
sg16
F0.745
sg17
Nsg18
F0.8882166666666667
sg19
Nsg20
Nsg21
F0.23193278785871738
sg22
F0.852
sg23
Nsg24
Nsg25
I0
ssg26
I01
sg27
I01
sba(iSong
Song
p2698
(dp2699
g3
(dp2700
g5
F0.0266
sg6
VSound Of Change
p2701
sg8
F0.389564
sg9
F0.788
sg10
S'raggae'
p2702
sg12
F0.077
sg13
VDirty Heads
p2703
sg15
I9999
sg16
F0.608
sg17
Nsg18
F0.9121333333333334
sg19
Nsg20
Nsg21
F0.23193278785871738
sg22
F0.309
sg23
Nsg24
Nsg25
I0
ssg26
I01
sg27
I01
sba(iSong
Song
p2704
(dp2705
g3
(dp2706
g5
F0.0571
sg6
VStone Love
p2707
sg8
F0.314984
sg9
F0.478
sg10
S'raggae'
p2708
sg12
F0.0627
sg13
VPepper
p2709
sg15
I9999
sg16
F0.837
sg17
Nsg18
F0.9023166666666668
sg19
Nsg20
Nsg21
F0.23193278785871738
sg22
F0.81
sg23
Nsg24
Nsg25
F0.00129
ssg26
I01
sg27
I01
sba(iSong
Song
p2710
(dp2711
g3
(dp2712
g5
F0.0389
sg6
VFeeling Alright
p2713
sg8
F0.536948
sg9
F0.578
sg10
S'raggae'
p2714
sg12
F0.0645
sg13
VRebelution
p2715
sg15
I9999
sg16
F0.839
sg17
Nsg18
F0.8599833333333334
sg19
Nsg20
Nsg21
F0.23193278785871738
sg22
F0.642
sg23
Nsg24
Nsg25
I0
ssg26
I01
sg27
I01
sba(iSong
Song
p2716
(dp2717
g3
(dp2718
g5
F0.258
sg6
VI Want You
p2719
sg8
F0.316076
sg9
F0.437
sg10
S'raggae'
p2720
sg12
F0.0323
sg13
VTaken By Trees
p2721
sg15
I9999
sg16
F0.696
sg17
Nsg18
F0.8214166666666666
sg19
Nsg20
Nsg21
F0.23193278785871738
sg22
F0.606
sg23
Nsg24
Nsg25
F0.045
ssg26
I01
sg27
I01
sba(iSong
Song
p2722
(dp2723
g3
(dp2724
g5
F0.11
sg6
VLighthouse
p2725
sg8
F0.6639120000000001
sg9
F0.658
sg10
S'raggae'
p2726
sg12
F0.0311
sg13
VZiggy Marley
p2727
sg15
I9999
sg16
F0.532
sg17
Nsg18
F0.8730833333333333
sg19
Nsg20
Nsg21
F0.23193278785871738
sg22
F0.569
sg23
Nsg24
Nsg25
F0.00918
ssg26
I01
sg27
I01
sba(iSong
Song
p2728
(dp2729
g3
(dp2730
g5
F0.00808
sg6
VDancehall Days
p2731
sg8
F0.64808
sg9
F0.743
sg10
S'raggae'
p2732
sg12
F0.0525
sg13
VThe Beautiful Girls
p2733
sg15
I9999
sg16
F0.746
sg17
Nsg18
F0.8485333333333334
sg19
Nsg20
Nsg21
F0.23193278785871738
sg22
F0.87
sg23
Nsg24
Nsg25
F0.0315
ssg26
I01
sg27
I01
sba(iSong
Song
p2734
(dp2735
g3
(dp2736
g5
F0.166
sg6
VCollie Herb Man - Joost Langveld & Roger Perry Reactor Dub
p2737
sg8
F0.592088
sg9
F0.838
sg10
S'raggae'
p2738
sg12
F0.0592
sg13
VKatchafire
p2739
sg15
I9999
sg16
F0.874
sg17
Nsg18
F0.9217833333333334
sg19
Nsg20
Nsg21
F0.23193278785871738
sg22
F0.973
sg23
Nsg24
Nsg25
F0.499
ssg26
I01
sg27
I01
sba(iSong
Song
p2740
(dp2741
g3
(dp2742
g5
F0.132
sg6
V10:10
p2743
sg8
F0.711828
sg9
F0.766
sg10
S'raggae'
p2744
sg12
F0.0968
sg13
VThe Beautiful Girls
p2745
sg15
I9999
sg16
F0.589
sg17
Nsg18
F0.9129333333333333
sg19
Nsg20
Nsg21
F0.23193278785871738
sg22
F0.826
sg23
Nsg24
Nsg25
F5.04e-06
ssg26
I01
sg27
I01
sba(iSong
Song
p2746
(dp2747
g3
(dp2748
g5
F0.0643
sg6
VWarrior People
p2749
sg8
F0.63976
sg9
F0.911
sg10
S'raggae'
p2750
sg12
F0.0563
sg13
VNahko and Medicine for the People
p2751
sg15
I9999
sg16
F0.7
sg17
Nsg18
F0.9179833333333334
sg19
Nsg20
Nsg21
F0.23193278785871738
sg22
F0.853
sg23
Nsg24
Nsg25
I0
ssg26
I01
sg27
I01
sba(iSong
Song
p2752
(dp2753
g3
(dp2754
g5
F0.104
sg6
VNo Way No
p2755
sg8
F0.615912
sg9
F0.733
sg10
S'raggae'
p2756
sg12
F0.0513
sg13
VMAGIC!
p2757
sg15
I9999
sg16
F0.743
sg17
Nsg18
F0.9136166666666666
sg19
Nsg20
Nsg21
F0.23193278785871738
sg22
F0.807
sg23
Nsg24
Nsg25
F1.05e-05
ssg26
I01
sg27
I01
sba(iSong
Song
p2758
(dp2759
g3
(dp2760
g5
F0.0162
sg6
VSoundwaves (feat. Eric Rachmany of Rebelution)
p2761
sg8
F0.308032
sg9
F0.587
sg10
S'raggae'
p2762
sg12
F0.0395
sg13
VTribal Seeds
p2763
sg15
I9999
sg16
F0.714
sg17
Nsg18
F0.8854666666666666
sg19
Nsg20
Nsg21
F0.23193278785871738
sg22
F0.628
sg23
Nsg24
Nsg25
I0
ssg26
I01
sg27
I01
sba(iSong
Song
p2764
(dp2765
g3
(dp2766
g5
F0.557
sg6
VI&I
p2767
sg8
F0.5118
sg9
F0.786
sg10
S'raggae'
p2768
sg12
F0.0452
sg13
VProtoje
p2769
sg15
I9999
sg16
F0.772
sg17
Nsg18
F0.9018333333333334
sg19
Nsg20
Nsg21
F0.23193278785871738
sg22
F0.802
sg23
Nsg24
Nsg25
F2.6e-06
ssg26
I01
sg27
I01
sba(iSong
Song
p2770
(dp2771
g3
(dp2772
g5
F0.0109
sg6
VDance All Night
p2773
sg8
F0.324036
sg9
F0.767
sg10
S'raggae'
p2774
sg12
F0.0435
sg13
VDirty Heads
p2775
sg15
I9999
sg16
F0.706
sg17
Nsg18
F0.9133666666666667
sg19
Nsg20
Nsg21
F0.23193278785871738
sg22
F0.879
sg23
Nsg24
Nsg25
F1.35e-06
ssg26
I01
sg27
I01
sba(iSong
Song
p2776
(dp2777
g3
(dp2778
g5
F0.649
sg6
VEver
p2779
sg8
F0.5333479999999999
sg9
F0.41
sg10
S'raggae'
p2780
sg12
F0.0963
sg13
V\u05d4\u05d1\u05e0\u05d5\u05ea \u05e0\u05d7\u05de\u05d4
p2781
sg15
I9999
sg16
F0.602
sg17
Nsg18
F0.8744333333333334
sg19
Nsg20
Nsg21
F0.23193278785871738
sg22
F0.717
sg23
Nsg24
Nsg25
I0
ssg26
I01
sg27
I01
sba(iSong
Song
p2782
(dp2783
g3
(dp2784
g5
F0.257
sg6
ViLove
p2785
sg8
F0.519868
sg9
F0.523
sg10
S'raggae'
p2786
sg12
F0.0377
sg13
VShanique Marie
p2787
sg15
I9999
sg16
F0.751
sg17
Nsg18
F0.8952333333333333
sg19
Nsg20
Nsg21
F0.23193278785871738
sg22
F0.628
sg23
Nsg24
Nsg25
I0
ssg26
I01
sg27
I01
sba(iSong
Song
p2788
(dp2789
g3
(dp2790
g5
F0.249
sg6
VBlessings (feat. Brandon Hucks & Alex Winchester)
p2791
sg8
F0.503408
sg9
F0.696
sg10
S'raggae'
p2792
sg12
F0.0316
sg13
VTreeHouse!
p2793
sg15
I9999
sg16
F0.545
sg17
Nsg18
F0.9135333333333333
sg19
Nsg20
Nsg21
F0.23193278785871738
sg22
F0.674
sg23
Nsg24
Nsg25
I0
ssg26
I01
sg27
I01
sba(iSong
Song
p2794
(dp2795
g3
(dp2796
g5
F0.0333
sg6
VRun Come
p2797
sg8
F0.30785199999999996
sg9
F0.689
sg10
S'raggae'
p2798
sg12
F0.262
sg13
VAlborosie
p2799
sg15
I9999
sg16
F0.789
sg17
Nsg18
F0.8772166666666668
sg19
Nsg20
Nsg21
F0.23193278785871738
sg22
F0.677
sg23
Nsg24
Nsg25
I0
ssg26
I01
sg27
I01
sba(iSong
Song
p2800
(dp2801
g3
(dp2802
g5
F0.59
sg6
VGroovin' Slowly
p2803
sg8
F0.5191319999999999
sg9
F0.512
sg10
S'raggae'
p2804
sg12
F0.0902
sg13
VJohn Butler Trio
p2805
sg15
I9999
sg16
F0.763
sg17
Nsg18
F0.89725
sg19
Nsg20
Nsg21
F0.23193278785871738
sg22
F0.502
sg23
Nsg24
Nsg25
F2.85e-06
ssg26
I01
sg27
I01
sba(iSong
Song
p2806
(dp2807
g3
(dp2808
g5
F0.0293
sg6
VFade 2 Black
p2809
sg8
F0.42038400000000004
sg9
F0.721
sg10
S'raggae'
p2810
sg12
F0.313
sg13
VCherine Anderson
p2811
sg15
I9999
sg16
F0.721
sg17
Nsg18
F0.8731666666666666
sg19
Nsg20
Nsg21
F0.23193278785871738
sg22
F0.495
sg23
Nsg24
Nsg25
I0
ssg26
I01
sg27
I01
sba(iSong
Song
p2812
(dp2813
g3
(dp2814
g5
F0.0406
sg6
VKeep You
p2815
sg8
F0.535892
sg9
F0.893
sg10
S'raggae'
p2816
sg12
F0.0475
sg13
VWild Belle
p2817
sg15
I9999
sg16
F0.64
sg17
Nsg18
F0.9034166666666666
sg19
Nsg20
Nsg21
F0.23193278785871738
sg22
F0.919
sg23
Nsg24
Nsg25
F0.00738
ssg26
I01
sg27
I01
sba(iSong
Song
p2818
(dp2819
g3
(dp2820
g5
F0.0111
sg6
VBorn In Babylon
p2821
sg8
F0.535804
sg9
F0.576
sg10
S'raggae'
p2822
sg12
F0.0302
sg13
VSOJA
p2823
sg15
I9999
sg16
F0.731
sg17
Nsg18
F0.8693166666666666
sg19
Nsg20
Nsg21
F0.23193278785871738
sg22
F0.724
sg23
Nsg24
Nsg25
F0.000235
ssg26
I01
sg27
I01
sba(iSong
Song
p2824
(dp2825
g3
(dp2826
g5
F0.35
sg6
VSuperior
p2827
sg8
F0.609392
sg9
F0.756
sg10
S'raggae'
p2828
sg12
F0.112
sg13
VGentleman
p2829
sg15
I9999
sg16
F0.67
sg17
Nsg18
F0.9073166666666667
sg19
Nsg20
Nsg21
F0.23193278785871738
sg22
F0.972
sg23
Nsg24
Nsg25
I0
ssg26
I01
sg27
I01
sba(iSong
Song
p2830
(dp2831
g3
(dp2832
g5
F0.336
sg6
VNo Capitalist
p2833
sg8
F0.34760800000000003
sg9
F0.727
sg10
S'raggae'
p2834
sg12
F0.226
sg13
VKabaka Pyramid
p2835
sg15
I9999
sg16
F0.639
sg17
Nsg18
F0.9246333333333333
sg19
Nsg20
Nsg21
F0.23193278785871738
sg22
F0.666
sg23
Nsg24
Nsg25
I0
ssg26
I01
sg27
I01
sba(iSong
Song
p2836
(dp2837
g3
(dp2838
g5
F0.372
sg6
VBrutal Hearts
p2839
sg8
F0.4719
sg9
F0.501
sg10
S'raggae'
p2840
sg12
F0.0422
sg13
VBedouin Soundclash
p2841
sg15
I9999
sg16
F0.898
sg17
Nsg18
F0.88
sg19
Nsg20
Nsg21
F0.23193278785871738
sg22
F0.527
sg23
Nsg24
Nsg25
F0.00863
ssg26
I01
sg27
I01
sba(iSong
Song
p2842
(dp2843
g3
(dp2844
g5
F0.0117
sg6
VPut a Little Love
p2845
sg8
F0.311464
sg9
F0.651
sg10
S'raggae'
p2846
sg12
F0.0705
sg13
VNatural Vibrations
p2847
sg15
I9999
sg16
F0.731
sg17
Nsg18
F0.8540833333333333
sg19
Nsg20
Nsg21
F0.23193278785871738
sg22
F0.615
sg23
Nsg24
Nsg25
I0
ssg26
I01
sg27
I01
sba(iSong
Song
p2848
(dp2849
g3
(dp2850
g5
F0.171
sg6
VRooted (feat. Irie Love)
p2851
sg8
F0.5360159999999999
sg9
F0.599
sg10
S'raggae'
p2852
sg12
F0.0468
sg13
VKimie'
p2853
sg15
I9999
sg16
F0.909
sg17
Nsg18
F0.8658833333333333
sg19
Nsg20
Nsg21
F0.23193278785871738
sg22
F0.914
sg23
Nsg24
Nsg25
I0
ssg26
I01
sg27
I01
sba(iSong
Song
p2854
(dp2855
g3
(dp2856
g5
F0.107
sg6
VNecta (Butterfly)
p2857
sg8
F0.576472
sg9
F0.528
sg10
S'raggae'
p2858
sg12
F0.0862
sg13
VSashamon
p2859
sg15
I9999
sg16
F0.887
sg17
Nsg18
F0.8734999999999999
sg19
Nsg20
Nsg21
F0.23193278785871738
sg22
F0.729
sg23
Nsg24
Nsg25
F0.00158
ssg26
I01
sg27
I01
sba(iSong
Song
p2860
(dp2861
g3
(dp2862
g5
F0.31
sg6
VLove Like This
p2863
sg8
F0.548876
sg9
F0.571
sg10
S'raggae'
p2864
sg12
F0.0479
sg13
VWild Belle
p2865
sg15
I9999
sg16
F0.928
sg17
Nsg18
F0.8692
sg19
Nsg20
Nsg21
F0.23193278785871738
sg22
F0.943
sg23
Nsg24
Nsg25
F0.00189
ssg26
I01
sg27
I01
sba(iSong
Song
p2866
(dp2867
g3
(dp2868
g5
F0.00176
sg6
VHold On
p2869
sg8
F0.500036
sg9
F0.517
sg10
S'raggae'
p2870
sg12
F0.114
sg13
VSolid Vibes
p2871
sg15
I9999
sg16
F0.819
sg17
Nsg18
F0.9039
sg19
Nsg20
Nsg21
F0.23193278785871738
sg22
F0.933
sg23
Nsg24
Nsg25
F0.287
ssg26
I01
sg27
I01
sba(iSong
Song
p2872
(dp2873
g3
(dp2874
g5
F0.0717
sg6
VRebel
p2875
sg8
F0.35206
sg9
F0.874
sg10
S'raggae'
p2876
sg12
F0.163
sg13
VCongo Natty
p2877
sg15
I9999
sg16
F0.729
sg17
Nsg18
F0.8879333333333332
sg19
Nsg20
Nsg21
F0.23193278785871738
sg22
F0.559
sg23
Nsg24
Nsg25
I0
ssg26
I01
sg27
I01
sba(iSong
Song
p2878
(dp2879
g3
(dp2880
g5
F0.00398
sg6
VBarfly
p2881
sg8
F0.459904
sg9
F0.498
sg10
S'raggae'
p2882
sg12
F0.0333
sg13
VDrunk Souls
p2883
sg15
I9999
sg16
F0.752
sg17
Nsg18
F0.8572666666666666
sg19
Nsg20
Nsg21
F0.23193278785871738
sg22
F0.652
sg23
Nsg24
Nsg25
F0.00871
ssg26
I01
sg27
I01
sba(iSong
Song
p2884
(dp2885
g3
(dp2886
g5
F0.17
sg6
VRebel In Zion
p2887
sg8
F0.592132
sg9
F0.678
sg10
S'raggae'
p2888
sg12
F0.0281
sg13
VNyabinghia
p2889
sg15
I9999
sg16
F0.492
sg17
Nsg18
F0.9299833333333333
sg19
Nsg20
Nsg21
F0.23193278785871738
sg22
F0.743
sg23
Nsg24
Nsg25
F1.27e-06
ssg26
I01
sg27
I01
sba(iSong
Song
p2890
(dp2891
g3
(dp2892
g5
F0.056
sg6
VFly Rasta
p2893
sg8
F0.451816
sg9
F0.687
sg10
S'raggae'
p2894
sg12
F0.154
sg13
VZiggy Marley
p2895
sg15
I9999
sg16
F0.806
sg17
Nsg18
F0.9009833333333332
sg19
Nsg20
Nsg21
F0.23193278785871738
sg22
F0.831
sg23
Nsg24
Nsg25
I0
ssg26
I01
sg27
I01
sba(iSong
Song
p2896
(dp2897
g3
(dp2898
g5
F0.0207
sg6
VTop of the World
p2899
sg8
F0.375944
sg9
F0.738
sg10
S'raggae'
p2900
sg12
F0.0305
sg13
VSlightly Stoopid
p2901
sg15
I9999
sg16
F0.673
sg17
Nsg18
F0.8963166666666667
sg19
Nsg20
Nsg21
F0.23193278785871738
sg22
F0.681
sg23
Nsg24
Nsg25
F0.00509
ssg26
I01
sg27
I01
sba(iSong
Song
p2902
(dp2903
g3
(dp2904
g5
F0.134
sg6
VSunset
p2905
sg8
F0.368092
sg9
F0.879
sg10
S'raggae'
p2906
sg12
F0.0405
sg13
VFarruko
p2907
sg15
I9999
sg16
F0.698
sg17
Nsg18
F0.9496333333333333
sg19
Nsg20
Nsg21
F0.23193278785871738
sg22
F0.597
sg23
Nsg24
Nsg25
I0
ssg26
I01
sg27
I01
sba(iSong
Song
p2908
(dp2909
g3
(dp2910
g5
F0.0422
sg6
VMy League
p2911
sg8
F0.412204
sg9
F0.88
sg10
S'raggae'
p2912
sg12
F0.0657
sg13
VMavado
p2913
sg15
I9999
sg16
F0.76
sg17
Nsg18
F0.9584333333333334
sg19
Nsg20
Nsg21
F0.23193278785871738
sg22
F0.538
sg23
Nsg24
Nsg25
I0
ssg26
I01
sg27
I01
sba(iSong
Song
p2914
(dp2915
g3
(dp2916
g5
F0.193
sg6
VPon Di Cocky - Raw
p2917
sg8
F0.403944
sg9
F0.794
sg10
S'raggae'
p2918
sg12
F0.0894
sg13
VAidonia
p2919
sg15
I9999
sg16
F0.818
sg17
Nsg18
F0.8757166666666667
sg19
Nsg20
Nsg21
F0.23193278785871738
sg22
F0.569
sg23
Nsg24
Nsg25
I0
ssg26
I01
sg27
I01
sba(iSong
Song
p2920
(dp2921
g3
(dp2922
g5
F0.29
sg6
VVaivn
p2923
sg8
F0.423848
sg9
F0.894
sg10
S'raggae'
p2924
sg12
F0.0413
sg13
VDaddy Yankee
p2925
sg15
I9999
sg16
F0.768
sg17
Nsg18
F0.9572666666666667
sg19
Nsg20
Nsg21
F0.23193278785871738
sg22
F0.745
sg23
Nsg24
Nsg25
F0.0125
ssg26
I01
sg27
I01
sba(iSong
Song
p2926
(dp2927
g3
(dp2928
g5
F0.276
sg6
VReady (feat. Kris Berry)
p2929
sg8
F0.35384
sg9
F0.73
sg10
S'raggae'
p2930
sg12
F0.0354
sg13
VBeans & Fatback
p2931
sg15
I9999
sg16
F0.662
sg17
Nsg18
F0.9042833333333333
sg19
Nsg20
Nsg21
F0.23193278785871738
sg22
F0.711
sg23
Nsg24
Nsg25
F4.32e-05
ssg26
I01
sg27
I01
sba(iSong
Song
p2932
(dp2933
g3
(dp2934
g5
F0.279
sg6
VLa Pelea
p2935
sg8
F0.375788
sg9
F0.81
sg10
S'raggae'
p2936
sg12
F0.214
sg13
VJ-King y Maximan
p2937
sg15
I9999
sg16
F0.76
sg17
Nsg18
F0.9348666666666666
sg19
Nsg20
Nsg21
F0.23193278785871738
sg22
F0.881
sg23
Nsg24
Nsg25
F2.95e-06
ssg26
I01
sg27
I01
sba(iSong
Song
p2938
(dp2939
g3
(dp2940
g5
F0.0445
sg6
VNobody Has To Know (feat. Ty Dolla $ign) - Major Lazer and KickRaux Remix
p2941
sg8
F0.412
sg9
F0.789
sg10
S'raggae'
p2942
sg12
F0.188
sg13
VKranium
p2943
sg15
I9999
sg16
F0.681
sg17
Nsg18
F0.9055666666666667
sg19
Nsg20
Nsg21
F0.23193278785871738
sg22
F0.506
sg23
Nsg24
Nsg25
I0
ssg26
I01
sg27
I01
sba(iSong
Song
p2944
(dp2945
g3
(dp2946
g5
F0.13
sg6
VEncantadora
p2947
sg8
F0.679716
sg9
F0.851
sg10
S'raggae'
p2948
sg12
F0.0495
sg13
VYandel
p2949
sg15
I9999
sg16
F0.657
sg17
Nsg18
F0.91265
sg19
Nsg20
Nsg21
F0.23193278785871738
sg22
F0.9
sg23
Nsg24
Nsg25
I0
ssg26
I01
sg27
I01
sba(iSong
Song
p2950
(dp2951
g3
(dp2952
g5
F0.323
sg6
VChain
p2953
sg8
F0.440012
sg9
F0.846
sg10
S'raggae'
p2954
sg12
F0.171
sg13
VVybz Kartel
p2955
sg15
I9999
sg16
F0.836
sg17
Nsg18
F0.9259666666666667
sg19
Nsg20
Nsg21
F0.23193278785871738
sg22
F0.411
sg23
Nsg24
Nsg25
I0
ssg26
I01
sg27
I01
sba(iSong
Song
p2956
(dp2957
g3
(dp2958
g5
F0.703
sg6
VNuh Like Da Style Yah
p2959
sg8
F0.47781599999999996
sg9
F0.616
sg10
S'raggae'
p2960
sg12
F0.152
sg13
VBugle
p2961
sg15
I9999
sg16
F0.655
sg17
Nsg18
F0.9229
sg19
Nsg20
Nsg21
F0.23193278785871738
sg22
F0.724
sg23
Nsg24
Nsg25
F0.00153
ssg26
I01
sg27
I01
sba(iSong
Song
p2962
(dp2963
g3
(dp2964
g5
F0.224
sg6
VRebel Hifi
p2965
sg8
F0.5515399999999999
sg9
F0.748
sg10
S'raggae'
p2966
sg12
F0.188
sg13
VLotek
p2967
sg15
I9999
sg16
F0.764
sg17
Nsg18
F0.8953666666666666
sg19
Nsg20
Nsg21
F0.23193278785871738
sg22
F0.827
sg23
Nsg24
Nsg25
F0.0944
ssg26
I01
sg27
I01
sba(iSong
Song
p2968
(dp2969
g3
(dp2970
g5
F0.0125
sg6
VCan't Be My Lover - Curtis Lynch Remix
p2971
sg8
F0.319884
sg9
F0.651
sg10
S'raggae'
p2972
sg12
F0.238
sg13
VJohn Legend
p2973
sg15
I9999
sg16
F0.622
sg17
Nsg18
F0.9356500000000001
sg19
Nsg20
Nsg21
F0.23193278785871738
sg22
F0.743
sg23
Nsg24
Nsg25
I0
ssg26
I01
sg27
I01
sba(iSong
Song
p2974
(dp2975
g3
(dp2976
g5
F0.0765
sg6
VGood Enuff - Cash Flow Dub
p2977
sg8
F0.320056
sg9
F0.837
sg10
S'raggae'
p2978
sg12
F0.283
sg13
VMajor Lazer
p2979
sg15
I9999
sg16
F0.612
sg17
Nsg18
F0.9113666666666667
sg19
Nsg20
Nsg21
F0.23193278785871738
sg22
F0.442
sg23
Nsg24
Nsg25
I0
ssg26
I01
sg27
I01
sba(iSong
Song
p2980
(dp2981
g3
(dp2982
g5
F0.0107
sg6
VTorn Apart
p2983
sg8
F0.55214
sg9
F0.868
sg10
S'raggae'
p2984
sg12
F0.122
sg13
VSnoop Lion
p2985
sg15
I9999
sg16
F0.777
sg17
Nsg18
I0
sg19
Nsg20
Nsg21
F0.23193278785871738
sg22
F0.764
sg23
Nsg24
Nsg25
F4.84e-06
ssg26
I01
sg27
I01
sba(iSong
Song
p2986
(dp2987
g3
(dp2988
g5
F0.214
sg6
VCheerleader
p2989
sg8
F0.4
sg9
F0.738
sg10
S'raggae'
p2990
sg12
F0.0309
sg13
VOMI
p2991
sg15
I9999
sg16
F0.864
sg17
Nsg18
F0.9279499999999999
sg19
Nsg20
Nsg21
F0.23193278785871738
sg22
F0.938
sg23
Nsg24
Nsg25
I0
ssg26
I01
sg27
I01
sba(iSong
Song
p2992
(dp2993
g3
(dp2994
g5
F0.0147
sg6
VBedroom Bully
p2995
sg8
F0.399044
sg9
F0.713
sg10
S'raggae'
p2996
sg12
F0.26
sg13
VBusy Signal
p2997
sg15
I9999
sg16
F0.597
sg17
Nsg18
F0.8924
sg19
Nsg20
Nsg21
F0.23193278785871738
sg22
F0.374
sg23
Nsg24
Nsg25
I0
ssg26
I01
sg27
I01
sba(iSong
Song
p2998
(dp2999
g3
(dp3000
g5
F0.000679
sg6
VDon't Play No Game That I Can't Win (featuring Santigold)
p3001
sg8
F0.411872
sg9
F0.876
sg10
S'raggae'
p3002
sg12
F0.0344
sg13
VSantigold
p3003
sg15
I9999
sg16
F0.654
sg17
Nsg18
F0.9467333333333333
sg19
Nsg20
Nsg21
F0.23193278785871738
sg22
F0.44
sg23
Nsg24
Nsg25
F0.125
ssg26
I01
sg27
I01
sba(iSong
Song
p3004
(dp3005
g3
(dp3006
g5
F0.0213
sg6
VMama She Don't Like You - feat. I.Eye
p3007
sg8
F0.392012
sg9
F0.748
sg10
S'raggae'
p3008
sg12
F0.0311
sg13
VAlborosie
p3009
sg15
I9999
sg16
F0.784
sg17
Nsg18
F0.9390166666666667
sg19
Nsg20
Nsg21
F0.23193278785871738
sg22
F0.754
sg23
Nsg24
Nsg25
I0
ssg26
I01
sg27
I01
sba(iSong
Song
p3010
(dp3011
g3
(dp3012
g5
F0.00346
sg6
VLean On (feat. M & DJ Snake)
p3013
sg8
F0.39202800000000004
sg9
F0.809
sg10
S'raggae'
p3014
sg12
F0.0625
sg13
VMajor Lazer
p3015
sg15
I9999
sg16
F0.723
sg17
Nsg18
F0.94865
sg19
Nsg20
Nsg21
F0.23193278785871738
sg22
F0.274
sg23
Nsg24
Nsg25
F0.00123
ssg26
I01
sg27
I01
sba(iSong
Song
p3016
(dp3017
g3
(dp3018
g5
F0.0405
sg6
VTurn Me On
p3019
sg8
F0.425116
sg9
F0.682
sg10
S'raggae'
p3020
sg12
F0.0361
sg13
VKevin Lyttle
p3021
sg15
I9999
sg16
F0.677
sg17
Nsg18
F0.8853500000000001
sg19
Nsg20
Nsg21
F0.23193278785871738
sg22
F0.875
sg23
Nsg24
Nsg25
I0
ssg26
I01
sg27
I01
sba(iSong
Song
p3022
(dp3023
g3
(dp3024
g5
F0.147
sg6
VSmall Axe
p3025
sg8
F0.39184800000000003
sg9
F0.461
sg10
S'raggae'
p3026
sg12
F0.266
sg13
VBob Marley & The Wailers
p3027
sg15
I9999
sg16
F0.905
sg17
Nsg18
F0.8157666666666666
sg19
Nsg20
Nsg21
F0.23193278785871738
sg22
F0.851
sg23
Nsg24
Nsg25
F0.00671
ssg26
I01
sg27
I01
sba(iSong
Song
p3028
(dp3029
g3
(dp3030
g5
F0.304
sg6
VAnimal - Mark Ronson Remix
p3031
sg8
F0.467224
sg9
F0.808
sg10
S'raggae'
p3032
sg12
F0.0414
sg13
VMiike Snow
p3033
sg15
I9999
sg16
F0.833
sg17
Nsg18
F0.9196000000000001
sg19
Nsg20
Nsg21
F0.23193278785871738
sg22
F0.961
sg23
Nsg24
Nsg25
F0.00918
ssg26
I01
sg27
I01
sba(iSong
Song
p3034
(dp3035
g3
(dp3036
g5
F0.104
sg6
VBonafide Love (feat. Wayne Wonder)
p3037
sg8
F0.33794799999999997
sg9
F0.711
sg10
S'raggae'
p3038
sg12
F0.0783
sg13
VBuju Banton
p3039
sg15
I9999
sg16
F0.685
sg17
Nsg18
F0.8989999999999999
sg19
Nsg20
Nsg21
F0.23193278785871738
sg22
F0.682
sg23
Nsg24
Nsg25
I0
ssg26
I01
sg27
I01
sba(iSong
Song
p3040
(dp3041
g3
(dp3042
g5
F0.0392
sg6
VGolddigger
p3043
sg8
F0.395944
sg9
F0.696
sg10
S'raggae'
p3044
sg12
F0.055
sg13
VRandy Valentine
p3045
sg15
I9999
sg16
F0.705
sg17
Nsg18
F0.9063833333333334
sg19
Nsg20
Nsg21
F0.23193278785871738
sg22
F0.923
sg23
Nsg24
Nsg25
I0
ssg26
I01
sg27
I01
sba(iSong
Song
p3046
(dp3047
g3
(dp3048
g5
F0.0208
sg6
VWelcome To Jamrock
p3049
sg8
F0.306892
sg9
F0.661
sg10
S'raggae'
p3050
sg12
F0.333
sg13
VDamian Marley
p3051
sg15
I9999
sg16
F0.835
sg17
Nsg18
F0.8916333333333333
sg19
Nsg20
Nsg21
F0.23193278785871738
sg22
F0.753
sg23
Nsg24
Nsg25
I0
ssg26
I01
sg27
I01
sba(iSong
Song
p3052
(dp3053
g3
(dp3054
g5
F0.138
sg6
VMoney a Di Right Ting
p3055
sg8
F0.41900400000000004
sg9
F0.833
sg10
S'raggae'
p3056
sg12
F0.331
sg13
VMavado
p3057
sg15
I9999
sg16
F0.636
sg17
Nsg18
F0.9801
sg19
Nsg20
Nsg21
F0.23193278785871738
sg22
F0.435
sg23
Nsg24
Nsg25
I0
ssg26
I01
sg27
I01
sba(iSong
Song
p3058
(dp3059
g3
(dp3060
g5
F0.271
sg6
VWhine Inna Di Dance
p3061
sg8
F0.3197
sg9
F0.906
sg10
S'raggae'
p3062
sg12
F0.278
sg13
VSpice
p3063
sg15
I9999
sg16
F0.641
sg17
Nsg18
F0.9707666666666667
sg19
Nsg20
Nsg21
F0.23193278785871738
sg22
F0.813
sg23
Nsg24
Nsg25
I0
ssg26
I01
sg27
I01
sba(iSong
Song
p3064
(dp3065
g3
(dp3066
g5
F0.336
sg6
VKing Of The Dancehall
p3067
sg8
F0.41942
sg9
F0.827
sg10
S'raggae'
p3068
sg12
F0.111
sg13
VBeenie Man
p3069
sg15
I9999
sg16
F0.858
sg17
Nsg18
F0.9053166666666667
sg19
Nsg20
Nsg21
F0.23193278785871738
sg22
F0.859
sg23
Nsg24
Nsg25
I0
ssg26
I01
sg27
I01
sba(iSong
Song
p3070
(dp3071
g3
(dp3072
g5
F0.0732
sg6
VPlaying Games With My Heart
p3073
sg8
F0.391932
sg9
F0.36
sg10
S'raggae'
p3074
sg12
F0.0565
sg13
VChristopher Martin
p3075
sg15
I9999
sg16
F0.942
sg17
Nsg18
F0.8573666666666667
sg19
Nsg20
Nsg21
F0.23193278785871738
sg22
F0.774
sg23
Nsg24
Nsg25
I0
ssg26
I01
sg27
I01
sba(iSong
Song
p3076
(dp3077
g3
(dp3078
g5
F0.124
sg6
VWho Knows
p3079
sg8
F0.32404
sg9
F0.683
sg10
S'raggae'
p3080
sg12
F0.0867
sg13
VProtoje
p3081
sg15
I9999
sg16
F0.681
sg17
Nsg18
F0.8984
sg19
Nsg20
Nsg21
F0.23193278785871738
sg22
F0.795
sg23
Nsg24
Nsg25
I0
ssg26
I01
sg27
I01
sba(iSong
Song
p3082
(dp3083
g3
(dp3084
g5
F0.14
sg6
VGet Free (feat. Amber of Dirty Projectors)
p3085
sg8
F0.703812
sg9
F0.538
sg10
S'raggae'
p3086
sg12
F0.0783
sg13
VMajor Lazer
p3087
sg15
I9999
sg16
F0.525
sg17
Nsg18
F0.8439
sg19
Nsg20
Nsg21
F0.23193278785871738
sg22
F0.802
sg23
Nsg24
Nsg25
F0.117
ssg26
I01
sg27
I01
sba(iSong
Song
p3088
(dp3089
g3
(dp3090
g5
F0.0753
sg6
VYou're Wondering Now
p3091
sg8
F0.535668
sg9
F0.573
sg10
S'raggae'
p3092
sg12
F0.165
sg13
VAmy Winehouse
p3093
sg15
I9999
sg16
F0.787
sg17
Nsg18
F0.9207333333333333
sg19
Nsg20
Nsg21
F0.23193278785871738
sg22
F0.902
sg23
Nsg24
Nsg25
I0
ssg26
I01
sg27
I01
sba(iSong
Song
p3094
(dp3095
g3
(dp3096
g5
F0.0355
sg6
VSoulfly
p3097
sg8
F0.419928
sg9
F0.822
sg10
S'raggae'
p3098
sg12
F0.0341
sg13
VDreadsquad
p3099
sg15
I9999
sg16
F0.882
sg17
Nsg18
F0.9673499999999999
sg19
Nsg20
Nsg21
F0.23193278785871738
sg22
F0.938
sg23
Nsg24
Nsg25
F0.000636
ssg26
I01
sg27
I01
sba(iSong
Song
p3100
(dp3101
g3
(dp3102
g5
F0.0613
sg6
VUk Warriors
p3103
sg8
F0.347808
sg9
F0.737
sg10
S'raggae'
p3104
sg12
F0.301
sg13
VRoots Manuva
p3105
sg15
I9999
sg16
F0.821
sg17
Nsg18
F0.9359333333333333
sg19
Nsg20
Nsg21
F0.23193278785871738
sg22
F0.581
sg23
Nsg24
Nsg25
F0.000297
ssg26
I01
sg27
I01
sba(iSong
Song
p3106
(dp3107
g3
(dp3108
g5
F0.214
sg6
VU Wait
p3109
sg8
F0.362236
sg9
F0.693
sg10
S'raggae'
p3110
sg12
F0.309
sg13
VPostmen
p3111
sg15
I9999
sg16
F0.654
sg17
Nsg18
F0.8925166666666667
sg19
Nsg20
Nsg21
F0.23193278785871738
sg22
F0.659
sg23
Nsg24
Nsg25
I0
ssg26
I01
sg27
I01
sba(iSong
Song
p3112
(dp3113
g3
(dp3114
g5
F0.623
sg6
VI Wanna Be the One
p3115
sg8
F0.682732
sg9
F0.657
sg10
S'raggae'
p3116
sg12
F0.31
sg13
VKonshens
p3117
sg15
I9999
sg16
F0.569
sg17
Nsg18
F0.8861333333333333
sg19
Nsg20
Nsg21
F0.23193278785871738
sg22
F0.78
sg23
Nsg24
Nsg25
F1.94e-06
ssg26
I01
sg27
I01
sba(iSong
Song
p3118
(dp3119
g3
(dp3120
g5
F0.0479
sg6
VMan Down
p3121
sg8
F0.622932
sg9
F0.896
sg10
S'raggae'
p3122
sg12
F0.189
sg13
VRihanna
p3123
sg15
I9999
sg16
F0.457
sg17
Nsg18
F0.9339166666666666
sg19
Nsg20
Nsg21
F0.23193278785871738
sg22
F0.598
sg23
Nsg24
Nsg25
I0
ssg26
I01
sg27
I01
sba(iSong
Song
p3124
(dp3125
g3
(dp3126
g5
F0.0057
sg6
VMy Music (feat. Buggsy)
p3127
sg8
F0.323144
sg9
F0.733
sg10
S'raggae'
p3128
sg12
F0.322
sg13
VDubkasm
p3129
sg15
I9999
sg16
F0.7
sg17
Nsg18
F0.8993833333333333
sg19
Nsg20
Nsg21
F0.23193278785871738
sg22
F0.733
sg23
Nsg24
Nsg25
I0
ssg26
I01
sg27
I01
sba(iSong
Song
p3130
(dp3131
g3
(dp3132
g5
F0.0375
sg6
VWorldwide Traveller - Dreadsquad Remix
p3133
sg8
F0.310076
sg9
F0.732
sg10
S'raggae'
p3134
sg12
F0.203
sg13
VChopstick Dubplate
p3135
sg15
I9999
sg16
F0.777
sg17
Nsg18
F0.9158166666666666
sg19
Nsg20
Nsg21
F0.23193278785871738
sg22
F0.843
sg23
Nsg24
Nsg25
I0
ssg26
I01
sg27
I01
sba(iSong
Song
p3136
(dp3137
g3
(dp3138
g5
F0.149
sg6
VGingerbread Man
p3139
sg8
F0.360036
sg9
F0.716
sg10
S'raggae'
p3140
sg12
F0.0755
sg13
VFlower Fairy
p3141
sg15
I9999
sg16
F0.811
sg17
Nsg18
F0.9036333333333334
sg19
Nsg20
Nsg21
F0.23193278785871738
sg22
F0.688
sg23
Nsg24
Nsg25
F0.00268
ssg26
I01
sg27
I01
sba(iSong
Song
p3142
(dp3143
g3
(dp3144
g5
F0.168
sg6
VChampagne Body
p3145
sg8
F0.391752
sg9
F0.758
sg10
S'raggae'
p3146
sg12
F0.204
sg13
VGeneral Levy
p3147
sg15
I9999
sg16
F0.876
sg17
Nsg18
F0.8098833333333334
sg19
Nsg20
Nsg21
F0.23193278785871738
sg22
F0.792
sg23
Nsg24
Nsg25
I0
ssg26
I01
sg27
I01
sba(iSong
Song
p3148
(dp3149
g3
(dp3150
g5
F0.00208
sg6
VIt Don't Make Any Difference To Me (feat. Wyclef Jean) - Supa Dupes Remix
p3151
sg8
F0.354016
sg9
F0.664
sg10
S'raggae'
p3152
sg12
F0.0388
sg13
VKevin Michael
p3153
sg15
I9999
sg16
F0.726
sg17
Nsg18
F0.8893166666666666
sg19
Nsg20
Nsg21
F0.23193278785871738
sg22
F0.387
sg23
Nsg24
Nsg25
I0
ssg26
I01
sg27
I01
sba(iSong
Song
p3154
(dp3155
g3
(dp3156
g5
F0.108
sg6
VTiger Balm
p3157
sg8
F0.31969200000000003
sg9
F0.509
sg10
S'raggae'
p3158
sg12
F0.106
sg13
VHollie Cook
p3159
sg15
I9999
sg16
F0.694
sg17
Nsg18
F0.8360833333333333
sg19
Nsg20
Nsg21
F0.23193278785871738
sg22
F0.694
sg23
Nsg24
Nsg25
F0.00708
ssg26
I01
sg27
I01
sba(iSong
Song
p3160
(dp3161
g3
(dp3162
g5
F0.221
sg6
VTu Pun Pun
p3163
sg8
F0.717108
sg9
F0.551
sg10
S'raggae'
p3164
sg12
F0.227
sg13
VEl General
p3165
sg15
I9999
sg16
F0.79
sg17
Nsg18
F0.8721
sg19
Nsg20
Nsg21
F0.23193278785871738
sg22
F0.787
sg23
Nsg24
Nsg25
I0
ssg26
I01
sg27
I01
sba(iSong
Song
p3166
(dp3167
g3
(dp3168
g5
F0.154
sg6
VCome Over (feat. Stylo G)
p3169
sg8
F0.39987599999999995
sg9
F0.782
sg10
S'raggae'
p3170
sg12
F0.0564
sg13
VClean Bandit
p3171
sg15
I9999
sg16
F0.809
sg17
Nsg18
F0.90625
sg19
Nsg20
Nsg21
F0.23193278785871738
sg22
F0.669
sg23
Nsg24
Nsg25
F5.64e-06
ssg26
I01
sg27
I01
sba(iSong
Song
p3172
(dp3173
g3
(dp3174
g5
F0.0336
sg6
VKingston Town
p3175
sg8
F0.296028
sg9
F0.819
sg10
S'raggae'
p3176
sg12
F0.0611
sg13
VAlborosie
p3177
sg15
I9999
sg16
F0.779
sg17
Nsg18
F0.9417500000000001
sg19
Nsg20
Nsg21
F0.23193278785871738
sg22
F0.554
sg23
Nsg24
Nsg25
I0
ssg26
I01
sg27
I01
sba(iSong
Song
p3178
(dp3179
g3
(dp3180
g5
F0.162
sg6
VOne Dice
p3181
sg8
F0.30198
sg9
F0.636
sg10
S'raggae'
p3182
sg12
F0.141
sg13
VLutan Fyah
p3183
sg15
I9999
sg16
F0.614
sg17
Nsg18
F0.91155
sg19
Nsg20
Nsg21
F0.23193278785871738
sg22
F0.682
sg23
Nsg24
Nsg25
I0
ssg26
I01
sg27
I01
sba(iSong
Song
p3184
(dp3185
g3
(dp3186
g5
F0.178
sg6
VBorro Cassette
p3187
sg8
F0.703784
sg9
F0.662
sg10
S'raggae'
p3188
sg12
F0.153
sg13
VMaluma
p3189
sg15
I9999
sg16
F0.726
sg17
Nsg18
F0.8959499999999999
sg19
Nsg20
Nsg21
F0.23193278785871738
sg22
F0.729
sg23
Nsg24
Nsg25
I0
ssg26
I01
sg27
I01
sba(iSong
Song
p3190
(dp3191
g3
(dp3192
g5
F0.0035
sg6
VSpecial Delivery
p3193
sg8
F0.384112
sg9
F0.694
sg10
S'raggae'
p3194
sg12
F0.0389
sg13
VVybz Kartel
p3195
sg15
I9999
sg16
F0.808
sg17
Nsg18
F0.9055
sg19
Nsg20
Nsg21
F0.23193278785871738
sg22
F0.332
sg23
Nsg24
Nsg25
F0.000833
ssg26
I01
sg27
I01
sba(iSong
Song
p3196
(dp3197
g3
(dp3198
g5
F0.0586
sg6
VWhine Up - English Version
p3199
sg8
F0.5000439999999999
sg9
F0.554
sg10
S'raggae'
p3200
sg12
F0.0542
sg13
VKat Deluna
p3201
sg15
I9999
sg16
F0.821
sg17
Nsg18
F0.9001166666666667
sg19
Nsg20
Nsg21
F0.23193278785871738
sg22
F0.472
sg23
Nsg24
Nsg25
F2.81e-06
ssg26
I01
sg27
I01
sba(iSong
Song
p3202
(dp3203
g3
(dp3204
g5
F0.0217
sg6
VBlood Money
p3205
sg8
F0.597472
sg9
F0.793
sg10
S'raggae'
p3206
sg12
F0.107
sg13
V10 Ft. Ganja Plant
p3207
sg15
I9999
sg16
F0.789
sg17
Nsg18
F0.8895166666666667
sg19
Nsg20
Nsg21
F0.23193278785871738
sg22
F0.743
sg23
Nsg24
Nsg25
F0.826
ssg26
I01
sg27
I01
sba(iSong
Song
p3208
(dp3209
g3
(dp3210
g5
F0.0476
sg6
VKunta Kinte Dub
p3211
sg8
F0.5625760000000001
sg9
F0.467
sg10
S'raggae'
p3212
sg12
F0.0708
sg13
VThe Revolutionaries
p3213
sg15
I9999
sg16
F0.799
sg17
Nsg18
F0.8076500000000001
sg19
Nsg20
Nsg21
F0.23193278785871738
sg22
F0.533
sg23
Nsg24
Nsg25
F0.816
ssg26
I01
sg27
I01
sba(iSong
Song
p3214
(dp3215
g3
(dp3216
g5
F0.00438
sg6
VOne Step Forward
p3217
sg8
F0.526764
sg9
F0.349
sg10
S'raggae'
p3218
sg12
F0.119
sg13
VMax Romeo
p3219
sg15
I9999
sg16
F0.929
sg17
Nsg18
F0.7731333333333333
sg19
Nsg20
Nsg21
F0.23193278785871738
sg22
F0.788
sg23
Nsg24
Nsg25
F1.2e-06
ssg26
I01
sg27
I01
sba(iSong
Song
p3220
(dp3221
g3
(dp3222
g5
F0.788
sg6
VKing in My Empire (with Cornel Campbell)
p3223
sg8
F0.504028
sg9
F0.241
sg10
S'raggae'
p3224
sg12
F0.0601
sg13
VRhythm & Sound
p3225
sg15
I9999
sg16
F0.882
sg17
Nsg18
F0.7225333333333334
sg19
Nsg20
Nsg21
F0.23193278785871738
sg22
F0.718
sg23
Nsg24
Nsg25
F0.432
ssg26
I01
sg27
I01
sba(iSong
Song
p3226
(dp3227
g3
(dp3228
g5
F0.188
sg6
VScreaming Target
p3229
sg8
F0.276464
sg9
F0.483
sg10
S'raggae'
p3230
sg12
F0.428
sg13
VBig Youth
p3231
sg15
I9999
sg16
F0.834
sg17
Nsg18
F0.8527666666666666
sg19
Nsg20
Nsg21
F0.23193278785871738
sg22
F0.292
sg23
Nsg24
Nsg25
F0.00803
ssg26
I01
sg27
I01
sba(iSong
Song
p3232
(dp3233
g3
(dp3234
g5
F0.0312
sg6
VSo Jah Sey Dub
p3235
sg8
F0.307068
sg9
F0.42
sg10
S'raggae'
p3236
sg12
F0.101
sg13
VThe Aggrovators
p3237
sg15
I9999
sg16
F0.734
sg17
Nsg18
F0.8145666666666667
sg19
Nsg20
Nsg21
F0.23193278785871738
sg22
F0.573
sg23
Nsg24
Nsg25
F0.0569
ssg26
I01
sg27
I01
sba(iSong
Song
p3238
(dp3239
g3
(dp3240
g5
F0.047
sg6
VDaphne
p3241
sg8
F0.320604
sg9
F0.374
sg10
S'raggae'
p3242
sg12
F0.073
sg13
VSly & Robbie
p3243
sg15
I9999
sg16
F0.61
sg17
Nsg18
F0.8434333333333334
sg19
Nsg20
Nsg21
F0.23193278785871738
sg22
F0.735
sg23
Nsg24
Nsg25
F0.873
ssg26
I01
sg27
I01
sba(iSong
Song
p3244
(dp3245
g3
(dp3246
g5
F0.0555
sg6
VWhite Birds (Instrumental Version)
p3247
sg8
F0.476244
sg9
F0.422
sg10
S'raggae'
p3248
sg12
F0.106
sg13
VBlundetto
p3249
sg15
I9999
sg16
F0.919
sg17
Nsg18
F0.8474666666666667
sg19
Nsg20
Nsg21
F0.23193278785871738
sg22
F0.468
sg23
Nsg24
Nsg25
F0.855
ssg26
I01
sg27
I01
sba(iSong
Song
p3250
(dp3251
g3
(dp3252
g5
F0.00222
sg6
VBurru Saturday
p3253
sg8
F0.525624
sg9
F0.621
sg10
S'raggae'
p3254
sg12
F0.0402
sg13
VSly
p3255
sg15
I9999
sg16
F0.796
sg17
Nsg18
F0.7572333333333333
sg19
Nsg20
Nsg21
F0.23193278785871738
sg22
F0.397
sg23
Nsg24
Nsg25
F0.84
ssg26
I01
sg27
I01
sba(iSong
Song
p3256
(dp3257
g3
(dp3258
g5
F0.0391
sg6
VEnjoyment Dub
p3259
sg8
F0.565352
sg9
F0.524
sg10
S'raggae'
p3260
sg12
F0.0469
sg13
VScientist
p3261
sg15
I9999
sg16
F0.78
sg17
Nsg18
F0.8844
sg19
Nsg20
Nsg21
F0.23193278785871738
sg22
F0.738
sg23
Nsg24
Nsg25
F0.95
ssg26
I01
sg27
I01
sba(iSong
Song
p3262
(dp3263
g3
(dp3264
g5
F0.0156
sg6
VJah In Dub
p3265
sg8
F0.597804
sg9
F0.274
sg10
S'raggae'
p3266
sg12
F0.076
sg13
VSly & Robbie
p3267
sg15
I9999
sg16
F0.779
sg17
Nsg18
F0.72255
sg19
Nsg20
Nsg21
F0.23193278785871738
sg22
F0.883
sg23
Nsg24
Nsg25
F0.881
ssg26
I01
sg27
I01
sba(iSong
Song
p3268
(dp3269
g3
(dp3270
g5
F0.0549
sg6
VBlack Roses
p3271
sg8
F0.33917200000000003
sg9
F0.516
sg10
S'raggae'
p3272
sg12
F0.0815
sg13
VBarrington Levy
p3273
sg15
I9999
sg16
F0.801
sg17
Nsg18
F0.8829666666666667
sg19
Nsg20
Nsg21
F0.23193278785871738
sg22
F0.877
sg23
Nsg24
Nsg25
F0.0083
ssg26
I01
sg27
I01
sba(iSong
Song
p3274
(dp3275
g3
(dp3276
g5
F0.00313
sg6
VFeast Of The Passover
p3277
sg8
F0.57162
sg9
F0.49
sg10
S'raggae'
p3278
sg12
F0.0977
sg13
VThe Congos
p3279
sg15
I9999
sg16
F0.747
sg17
Nsg18
F0.8565833333333333
sg19
Nsg20
Nsg21
F0.23193278785871738
sg22
F0.737
sg23
Nsg24
Nsg25
F0.562
ssg26
I01
sg27
I01
sba(iSong
Song
p3280
(dp3281
g3
(dp3282
g5
F0.00283
sg6
VLand of Version
p3283
sg8
F0.487744
sg9
F0.27
sg10
S'raggae'
p3284
sg12
F0.0541
sg13
VJudah Eskender Tafari
p3285
sg15
I9999
sg16
F0.886
sg17
Nsg18
F0.7321166666666666
sg19
Nsg20
Nsg21
F0.23193278785871738
sg22
F0.819
sg23
Nsg24
Nsg25
F0.129
ssg26
I01
sg27
I01
sba(iSong
Song
p3286
(dp3287
g3
(dp3288
g5
F0.0248
sg6
VChanting Down The Wicked
p3289
sg8
F0.5402359999999999
sg9
F0.372
sg10
S'raggae'
p3290
sg12
F0.0763
sg13
VThe Robotiks
p3291
sg15
I9999
sg16
F0.756
sg17
Nsg18
F0.76025
sg19
Nsg20
Nsg21
F0.23193278785871738
sg22
F0.479
sg23
Nsg24
Nsg25
F0.88
ssg26
I01
sg27
I01
sba(iSong
Song
p3292
(dp3293
g3
(dp3294
g5
F0.237
sg6
VZionyouth
p3295
sg8
F0.566284
sg9
F0.519
sg10
S'raggae'
p3296
sg12
F0.0719
sg13
VVin Gordon
p3297
sg15
I9999
sg16
F0.907
sg17
Nsg18
F0.7596666666666666
sg19
Nsg20
Nsg21
F0.23193278785871738
sg22
F0.982
sg23
Nsg24
Nsg25
F0.884
ssg26
I01
sg27
I01
sba(iSong
Song
p3298
(dp3299
g3
(dp3300
g5
F0.00258
sg6
VThe Bomber
p3301
sg8
F0.64532
sg9
F0.566
sg10
S'raggae'
p3302
sg12
F0.135
sg13
VSly
p3303
sg15
I9999
sg16
F0.663
sg17
Nsg18
F0.7723
sg19
Nsg20
Nsg21
F0.23193278785871738
sg22
F0.826
sg23
Nsg24
Nsg25
F0.887
ssg26
I01
sg27
I01
sba(iSong
Song
p3304
(dp3305
g3
(dp3306
g5
F0.00867
sg6
VSailors Dub
p3307
sg8
F0.57762
sg9
F0.485
sg10
S'raggae'
p3308
sg12
F0.0636
sg13
VThe Crazy Mad Professor
p3309
sg15
I9999
sg16
F0.718
sg17
Nsg18
F0.8689
sg19
Nsg20
Nsg21
F0.23193278785871738
sg22
F0.721
sg23
Nsg24
Nsg25
F0.903
ssg26
I01
sg27
I01
sba(iSong
Song
p3310
(dp3311
g3
(dp3312
g5
F0.0259
sg6
VJail House Dub
p3313
sg8
F0.537664
sg9
F0.485
sg10
S'raggae'
p3314
sg12
F0.0637
sg13
VMad Professor
p3315
sg15
I9999
sg16
F0.857
sg17
Nsg18
F0.8207166666666666
sg19
Nsg20
Nsg21
F0.23193278785871738
sg22
F0.501
sg23
Nsg24
Nsg25
F0.712
ssg26
I01
sg27
I01
sba(iSong
Song
p3316
(dp3317
g3
(dp3318
g5
F0.207
sg6
VOriginal Dub
p3319
sg8
F0.579228
sg9
F0.836
sg10
S'raggae'
p3320
sg12
F0.0903
sg13
VKing Tubby
p3321
sg15
I9999
sg16
F0.718
sg17
Nsg18
F0.8765666666666667
sg19
Nsg20
Nsg21
F0.23193278785871738
sg22
F0.878
sg23
Nsg24
Nsg25
F0.837
ssg26
I01
sg27
I01
sba(iSong
Song
p3322
(dp3323
g3
(dp3324
g5
F0.044
sg6
VJah Do That
p3325
sg8
F0.297688
sg9
F0.585
sg10
S'raggae'
p3326
sg12
F0.122
sg13
VPrince Far I
p3327
sg15
I9999
sg16
F0.75
sg17
Nsg18
F0.8400666666666666
sg19
Nsg20
Nsg21
F0.23193278785871738
sg22
F0.843
sg23
Nsg24
Nsg25
F0.0121
ssg26
I01
sg27
I01
sba(iSong
Song
p3328
(dp3329
g3
(dp3330
g5
F0.0238
sg6
VFisher Man Dub
p3331
sg8
F0.33507600000000004
sg9
F0.584
sg10
S'raggae'
p3332
sg12
F0.0486
sg13
VLee "Scratch" Perry
p3333
sg15
I9999
sg16
F0.73
sg17
Nsg18
F0.8759833333333333
sg19
Nsg20
Nsg21
F0.23193278785871738
sg22
F0.414
sg23
Nsg24
Nsg25
F0.0798
ssg26
I01
sg27
I01
sba(iSong
Song
p3334
(dp3335
g3
(dp3336
g5
F0.0041
sg6
VPeace & Love - Feat. Linval Thompson
p3337
sg8
F0.519824
sg9
F0.832
sg10
S'raggae'
p3338
sg12
F0.0403
sg13
VDubmatix
p3339
sg15
I9999
sg16
F0.69
sg17
Nsg18
F0.8772333333333333
sg19
Nsg20
Nsg21
F0.23193278785871738
sg22
F0.777
sg23
Nsg24
Nsg25
F0.000205
ssg26
I01
sg27
I01
sba(iSong
Song
p3340
(dp3341
g3
(dp3342
g5
F0.104
sg6
VRoots and Culture
p3343
sg8
F0.576156
sg9
F0.584
sg10
S'raggae'
p3344
sg12
F0.0825
sg13
VMikey Dread
p3345
sg15
I9999
sg16
F0.73
sg17
Nsg18
F0.8490333333333333
sg19
Nsg20
Nsg21
F0.23193278785871738
sg22
F0.817
sg23
Nsg24
Nsg25
F0.0406
ssg26
I01
sg27
I01
sba(iSong
Song
p3346
(dp3347
g3
(dp3348
g5
F0.00676
sg6
VSatta Dub
p3349
sg8
F0.52428
sg9
F0.367
sg10
S'raggae'
p3350
sg12
F0.0418
sg13
VJah Shaka & Mad Professor
p3351
sg15
I9999
sg16
F0.67
sg17
Nsg18
F0.73405
sg19
Nsg20
Nsg21
F0.23193278785871738
sg22
F0.313
sg23
Nsg24
Nsg25
F0.828
ssg26
I01
sg27
I01
sba(iSong
Song
p3352
(dp3353
g3
(dp3354
g5
F0.194
sg6
VLoser
p3355
sg8
F0.350928
sg9
F0.641
sg10
S'raggae'
p3356
sg12
F0.0481
sg13
VDerrick Harriott
p3357
sg15
I9999
sg16
F0.725
sg17
Nsg18
F0.89775
sg19
Nsg20
Nsg21
F0.23193278785871738
sg22
F0.786
sg23
Nsg24
Nsg25
F0.00498
ssg26
I01
sg27
I01
sba(iSong
Song
p3358
(dp3359
g3
(dp3360
g5
F0.00573
sg6
VWaiting In The Park Dub
p3361
sg8
F0.524792
sg9
F0.59
sg10
S'raggae'
p3362
sg12
F0.0388
sg13
VThe Revolutionaries
p3363
sg15
I9999
sg16
F0.695
sg17
Nsg18
F0.8166333333333333
sg19
Nsg20
Nsg21
F0.23193278785871738
sg22
F0.827
sg23
Nsg24
Nsg25
F0.806
ssg26
I01
sg27
I01
sba(iSong
Song
p3364
(dp3365
g3
(dp3366
g5
F0.00157
sg6
VJah Shall Reign Dub
p3367
sg8
F0.512872
sg9
F0.352
sg10
S'raggae'
p3368
sg12
F0.0526
sg13
VJah Shaka
p3369
sg15
I9999
sg16
F0.804
sg17
Nsg18
F0.7320666666666666
sg19
Nsg20
Nsg21
F0.23193278785871738
sg22
F0.886
sg23
Nsg24
Nsg25
F0.911
ssg26
I01
sg27
I01
sba(iSong
Song
p3370
(dp3371
g3
(dp3372
g5
F0.332
sg6
VDrum Song Dub
p3373
sg8
F0.44812
sg9
F0.538
sg10
S'raggae'
p3374
sg12
F0.0642
sg13
VScientist
p3375
sg15
I9999
sg16
F0.562
sg17
Nsg18
F0.7552833333333333
sg19
Nsg20
Nsg21
F0.23193278785871738
sg22
F0.823
sg23
Nsg24
Nsg25
F0.82
ssg26
I01
sg27
I01
sba(iSong
Song
p3376
(dp3377
g3
(dp3378
g5
F0.342
sg6
VJudge Dread
p3379
sg8
F0.351912
sg9
F0.563
sg10
S'raggae'
p3380
sg12
F0.216
sg13
VPrince Buster
p3381
sg15
I9999
sg16
F0.795
sg17
Nsg18
F0.8668666666666667
sg19
Nsg20
Nsg21
F0.23193278785871738
sg22
F0.896
sg23
Nsg24
Nsg25
F0.0224
ssg26
I01
sg27
I01
sba(iSong
Song
p3382
(dp3383
g3
(dp3384
g5
F0.0135
sg6
VDub Glory
p3385
sg8
F0.32004000000000005
sg9
F0.254
sg10
S'raggae'
p3386
sg12
F0.152
sg13
VSly & Robbie
p3387
sg15
I9999
sg16
F0.774
sg17
Nsg18
F0.7419166666666667
sg19
Nsg20
Nsg21
F0.23193278785871738
sg22
F0.773
sg23
Nsg24
Nsg25
F0.818
ssg26
I01
sg27
I01
sba(iSong
Song
p3388
(dp3389
g3
(dp3390
g5
F9.74e-05
sg6
VRude Boy
p3391
sg8
F0.601028
sg9
F0.427
sg10
S'raggae'
p3392
sg12
F0.106
sg13
VPrince Jammy
p3393
sg15
I9999
sg16
F0.717
sg17
Nsg18
F0.8145166666666667
sg19
Nsg20
Nsg21
F0.23193278785871738
sg22
F0.773
sg23
Nsg24
Nsg25
F0.922
ssg26
I01
sg27
I01
sba(iSong
Song
p3394
(dp3395
g3
(dp3396
g5
F0.0299
sg6
VConquering Lion
p3397
sg8
F0.528848
sg9
F0.453
sg10
S'raggae'
p3398
sg12
F0.0734
sg13
VYabby You
p3399
sg15
I9999
sg16
F0.854
sg17
Nsg18
F0.7863333333333333
sg19
Nsg20
Nsg21
F0.23193278785871738
sg22
F0.816
sg23
Nsg24
Nsg25
I0
ssg26
I01
sg27
I01
sba(iSong
Song
p3400
(dp3401
g3
(dp3402
g5
F0.141
sg6
VSponji Reggae
p3403
sg8
F0.29820800000000003
sg9
F0.656
sg10
S'raggae'
p3404
sg12
F0.0552
sg13
VBlack Uhuru
p3405
sg15
I9999
sg16
F0.796
sg17
Nsg18
F0.8758166666666667
sg19
Nsg20
Nsg21
F0.23193278785871738
sg22
F0.895
sg23
Nsg24
Nsg25
F0.0063
ssg26
I01
sg27
I01
sba(iSong
Song
p3406
(dp3407
g3
(dp3408
g5
F0.00931
sg6
VBad Days Dub
p3409
sg8
F0.52734
sg9
F0.546
sg10
S'raggae'
p3410
sg12
F0.0408
sg13
VScientist
p3411
sg15
I9999
sg16
F0.632
sg17
Nsg18
F0.7714333333333333
sg19
Nsg20
Nsg21
F0.23193278785871738
sg22
F0.727
sg23
Nsg24
Nsg25
F0.509
ssg26
I01
sg27
I01
sba(iSong
Song
p3412
(dp3413
g3
(dp3414
g5
F0.0202
sg6
VThrow Away Your Gun - 1991 Digital Remaster
p3415
sg8
F0.588296
sg9
F0.542
sg10
S'raggae'
p3416
sg12
F0.256
sg13
VPrince Far I
p3417
sg15
I9999
sg16
F0.787
sg17
Nsg18
F0.8442500000000001
sg19
Nsg20
Nsg21
F0.23193278785871738
sg22
F0.777
sg23
Nsg24
Nsg25
F0.0303
ssg26
I01
sg27
I01
sba(iSong
Song
p3418
(dp3419
g3
(dp3420
g5
F0.0621
sg6
VZion Gate Dub
p3421
sg8
F0.59092
sg9
F0.539
sg10
S'raggae'
p3422
sg12
F0.0936
sg13
VKing Tubby
p3423
sg15
I9999
sg16
F0.736
sg17
Nsg18
F0.8613999999999999
sg19
Nsg20
Nsg21
F0.23193278785871738
sg22
F0.765
sg23
Nsg24
Nsg25
F0.0312
ssg26
I01
sg27
I01
sba(iSong
Song
p3424
(dp3425
g3
(dp3426
g5
F0.0408
sg6
VWhite Rice Dub
p3427
sg8
F0.5493279999999999
sg9
F0.662
sg10
S'raggae'
p3428
sg12
F0.112
sg13
VJah Thomas
p3429
sg15
I9999
sg16
F0.761
sg17
Nsg18
F0.8282833333333334
sg19
Nsg20
Nsg21
F0.23193278785871738
sg22
F0.458
sg23
Nsg24
Nsg25
F0.858
ssg26
I01
sg27
I01
sba(iSong
Song
p3430
(dp3431
g3
(dp3432
g5
F0.0413
sg6
VDub Of Excellence
p3433
sg8
F0.5703400000000001
sg9
F0.545
sg10
S'raggae'
p3434
sg12
F0.105
sg13
VMad Professor and Scientist
p3435
sg15
I9999
sg16
F0.711
sg17
Nsg18
F0.81825
sg19
Nsg20
Nsg21
F0.23193278785871738
sg22
F0.771
sg23
Nsg24
Nsg25
F0.939
ssg26
I01
sg27
I01
sba(iSong
Song
p3436
(dp3437
g3
(dp3438
g5
F0.0928
sg6
VRocker's Almighty Dub
p3439
sg8
F0.5895
sg9
F0.4
sg10
S'raggae'
p3440
sg12
F0.128
sg13
VThe Aggrovators
p3441
sg15
I9999
sg16
F0.716
sg17
Nsg18
F0.7746833333333334
sg19
Nsg20
Nsg21
F0.23193278785871738
sg22
F0.772
sg23
Nsg24
Nsg25
F0.0362
ssg26
I01
sg27
I01
sba(iSong
Song
p3442
(dp3443
g3
(dp3444
g5
F0.121
sg6
VNatty Dread A Weh She Want
p3445
sg8
F0.566408
sg9
F0.494
sg10
S'raggae'
p3446
sg12
F0.136
sg13
VHorace Andy
p3447
sg15
I9999
sg16
F0.845
sg17
Nsg18
F0.82455
sg19
Nsg20
Nsg21
F0.23193278785871738
sg22
F0.951
sg23
Nsg24
Nsg25
I0
ssg26
I01
sg27
I01
sba(iSong
Song
p3448
(dp3449
g3
(dp3450
g5
F0.0403
sg6
VDub On Fire
p3451
sg8
F0.32389999999999997
sg9
F0.747
sg10
S'raggae'
p3452
sg12
F0.0503
sg13
VKing Tubby
p3453
sg15
I9999
sg16
F0.576
sg17
Nsg18
F0.8926
sg19
Nsg20
Nsg21
F0.23193278785871738
sg22
F0.293
sg23
Nsg24
Nsg25
F0.852
ssg26
I01
sg27
I01
sba(iSong
Song
p3454
(dp3455
g3
(dp3456
g5
F0.000448
sg6
VNegus Negast, Pt. 2
p3457
sg8
F0.5321319999999999
sg9
F0.313
sg10
S'raggae'
p3458
sg12
F0.108
sg13
VRootz Dimensionz
p3459
sg15
I9999
sg16
F0.787
sg17
Nsg18
F0.6404666666666666
sg19
Nsg20
Nsg21
F0.23193278785871738
sg22
F0.594
sg23
Nsg24
Nsg25
F0.918
ssg26
I01
sg27
I01
sba(iSong
Song
p3460
(dp3461
g3
(dp3462
g5
F0.128
sg6
VJah Jah The Conqueror
p3463
sg8
F0.615116
sg9
F0.483
sg10
S'raggae'
p3464
sg12
F0.323
sg13
VLinval Thompson
p3465
sg15
I9999
sg16
F0.776
sg17
Nsg18
F0.8042666666666667
sg19
Nsg20
Nsg21
F0.23193278785871738
sg22
F0.863
sg23
Nsg24
Nsg25
F0.000837
ssg26
I01
sg27
I01
sba(iSong
Song
p3466
(dp3467
g3
(dp3468
g5
F0.352
sg6
VDream Land
p3469
sg8
F0.291368
sg9
F0.485
sg10
S'raggae'
p3470
sg12
F0.321
sg13
VBunny Wailer
p3471
sg15
I9999
sg16
F0.786
sg17
Nsg18
F0.7831333333333333
sg19
Nsg20
Nsg21
F0.23193278785871738
sg22
F0.96
sg23
Nsg24
Nsg25
F0.00467
ssg26
I01
sg27
I01
sba(iSong
Song
p3472
(dp3473
g3
(dp3474
g5
F0.00942
sg6
VHit The Road Jack
p3475
sg8
F0.566856
sg9
F0.721
sg10
S'raggae'
p3476
sg12
F0.11
sg13
VBig Youth
p3477
sg15
I9999
sg16
F0.596
sg17
Nsg18
F0.8346
sg19
Nsg20
Nsg21
F0.23193278785871738
sg22
F0.794
sg23
Nsg24
Nsg25
F0.000201
ssg26
I01
sg27
I01
sba(iSong
Song
p3478
(dp3479
g3
(dp3480
g5
F0.253
sg6
VUnder Mi Sensi
p3481
sg8
F0.606084
sg9
F0.627
sg10
S'raggae'
p3482
sg12
F0.1
sg13
VBarrington Levy
p3483
sg15
I9999
sg16
F0.768
sg17
Nsg18
F0.8910666666666667
sg19
Nsg20
Nsg21
F0.23193278785871738
sg22
F0.521
sg23
Nsg24
Nsg25
F5.19e-06
ssg26
I01
sg27
I01
sba(iSong
Song
p3484
(dp3485
g3
(dp3486
g5
F1.7e-05
sg6
VDub To Africa
p3487
sg8
F0.5192599999999999
sg9
F0.439
sg10
S'raggae'
p3488
sg12
F0.0448
sg13
VPrince Far I
p3489
sg15
I9999
sg16
F0.755
sg17
Nsg18
F0.8120666666666667
sg19
Nsg20
Nsg21
F0.23193278785871738
sg22
F0.499
sg23
Nsg24
Nsg25
F0.699
ssg26
I01
sg27
I01
sba(iSong
Song
p3490
(dp3491
g3
(dp3492
g5
F0.00264
sg6
VJamaican Proverb
p3493
sg8
F0.633968
sg9
F0.6
sg10
S'raggae'
p3494
sg12
F0.138
sg13
VDub Syndicate
p3495
sg15
I9999
sg16
F0.809
sg17
Nsg18
F0.8675166666666667
sg19
Nsg20
Nsg21
F0.23193278785871738
sg22
F0.657
sg23
Nsg24
Nsg25
F4.63e-06
ssg26
I01
sg27
I01
sba(iSong
Song
p3496
(dp3497
g3
(dp3498
g5
F0.137
sg6
VSlow Motion Dub
p3499
sg8
F0.67752
sg9
F0.583
sg10
S'raggae'
p3500
sg12
F0.112
sg13
VKing Jammy
p3501
sg15
I9999
sg16
F0.637
sg17
Nsg18
F0.76215
sg19
Nsg20
Nsg21
F0.23193278785871738
sg22
F0.316
sg23
Nsg24
Nsg25
F0.853
ssg26
I01
sg27
I01
sba.