(lp0
(lp1
F0.25294464797779537
aF0.6617886665344965
aF0.14706657279936527
aF-7.909106264869153
aF0.09371998413957176
aa(lp2
F0.6892084971098269
aF0.23651869942196535
aF0.3865491770231215
aF-18.19554913294797
aF0.10499017341040465
aa(lp3
F0.10474382032332558
aF0.8716916859122404
aF0.10771024710161646
aF-3.759027713625862
aF0.11324041570438799
aa(lp4
F0.8288814285714283
aF0.06565069999999962
aF0.6799445885714285
aF-28.953657142857146
aF0.09918142857142857
aa(lp5
F0.470595483008299
aF0.4625408713692945
aF0.20461459291493778
aF-12.21463070539419
aF0.080252489626556
aa(lp6
F0.1676099530911679
aF0.7668133903133902
aF0.10617448816239387
aF-5.975680911680911
aF0.09768383190883191
aa(lp7
F0.7330058823529413
aF0.06751470588235309
aF0.6462173576470589
aF-40.081823529411764
aF0.08715882352941176
aa(lp8
F0.597910093
aF0.35593600000000003
aF0.2601035823714284
aF-14.777241428571434
aF0.101792
aa(lp9
F0.8296112994350282
aF0.14319717514124292
aF0.5511854780225987
aF-22.686774011299427
aF0.10972429378531073
aa(lp10
F0.3720054428708134
aF0.5631488899521531
aF0.18926696799043063
aF-9.964721531100478
aF0.07219224880382774
aa.