(lp0
(iSong
Song
p1
(dp2
S'attributes'
p3
(dp4
S'accousticness'
p5
F0.0986
sS'title'
p6
VMiss Fatty
p7
sS'tempo'
p8
F109.3
sS'energy'
p9
F0.479
sS'from_playlist'
p10
S'raggae'
p11
sS'speechiness'
p12
F0.289
sS'artist_name'
p13
VMillion Stylez
p14
sS'cluster_id'
p15
I9999
sS'danceability'
p16
F0.943
sS'end_of_fade_in'
p17
NsS'loudness'
p18
I0
sS'duration'
p19
NsS'artist_familiarity'
p20
NsS'valence'
p21
F0.921
sS'start_of_fade_out'
p22
NsS'artist_hotness'
p23
NsS'instrumentalness'
p24
F-6.172
ssS'hasData'
p25
I01
sba(iSong
Song
p26
(dp27
g3
(dp28
g5
F0.281
sg6
VKontrol
p29
sg8
F113.993
sg9
F0.521
sg10
S'raggae'
p30
sg12
F0.0512
sg13
VMaleek Berry
p31
sg15
I9999
sg16
F0.868
sg17
Nsg18
F6.36e-05
sg19
Nsg20
Nsg21
F0.886
sg22
Nsg23
Nsg24
F-6.902
ssg25
I01
sba(iSong
Song
p32
(dp33
g3
(dp34
g5
F0.534
sg6
VYour Number
p35
sg8
F99.926
sg9
F0.61
sg10
S'raggae'
p36
sg12
F0.234
sg13
VAyo Jay
p37
sg15
I9999
sg16
F0.588
sg17
Nsg18
I0
sg19
Nsg20
Nsg21
F0.645
sg22
Nsg23
Nsg24
F-5.008
ssg25
I01
sba(iSong
Song
p38
(dp39
g3
(dp40
g5
F0.00117
sg6
VCan't Believe (feat. Ty Dolla $ign & WizKid)
p41
sg8
F99.962
sg9
F0.764
sg10
S'raggae'
p42
sg12
F0.0843
sg13
VKranium
p43
sg15
I9999
sg16
F0.725
sg17
Nsg18
F8.93e-06
sg19
Nsg20
Nsg21
F0.611
sg22
Nsg23
Nsg24
F-4.893
ssg25
I01
sba(iSong
Song
p44
(dp45
g3
(dp46
g5
F0.0278
sg6
VLUV - Remix
p47
sg8
F95.032
sg9
F0.558
sg10
S'raggae'
p48
sg12
F0.252
sg13
VTory Lanez
p49
sg15
I9999
sg16
F0.677
sg17
Nsg18
I0
sg19
Nsg20
Nsg21
F0.564
sg22
Nsg23
Nsg24
F-7.622
ssg25
I01
sba(iSong
Song
p50
(dp51
g3
(dp52
g5
F0.0272
sg6
VGyal You A Party Animal
p53
sg8
F128.854
sg9
F0.838
sg10
S'raggae'
p54
sg12
F0.0996
sg13
VCharly Black
p55
sg15
I9999
sg16
F0.599
sg17
Nsg18
I0
sg19
Nsg20
Nsg21
F0.847
sg22
Nsg23
Nsg24
F-5.16
ssg25
I01
sba(iSong
Song
p56
(dp57
g3
(dp58
g5
F0.139
sg6
VFever
p59
sg8
F98.093
sg9
F0.62
sg10
S'raggae'
p60
sg12
F0.244
sg13
VVybz Kartel
p61
sg15
I9999
sg16
F0.891
sg17
Nsg18
F1.61e-05
sg19
Nsg20
Nsg21
F0.404
sg22
Nsg23
Nsg24
F-7.463
ssg25
I01
sba(iSong
Song
p62
(dp63
g3
(dp64
g5
F0.337
sg6
VHold You
p65
sg8
F133.287
sg9
F0.643
sg10
S'raggae'
p66
sg12
F0.0518
sg13
VGyptian
p67
sg15
I9999
sg16
F0.64
sg17
Nsg18
I0
sg19
Nsg20
Nsg21
F0.503
sg22
Nsg23
Nsg24
F-3.118
ssg25
I01
sba(iSong
Song
p68
(dp69
g3
(dp70
g5
F0.448
sg6
VPull Up to Mi Bumper
p71
sg8
F211.958
sg9
F0.683
sg10
S'raggae'
p72
sg12
F0.464
sg13
VKonshens
p73
sg15
I9999
sg16
F0.599
sg17
Nsg18
I0
sg19
Nsg20
Nsg21
F0.75
sg22
Nsg23
Nsg24
F-3.812
ssg25
I01
sba(iSong
Song
p74
(dp75
g3
(dp76
g5
F0.0808
sg6
VMillion Pound Girl (Badder Than Bad) - Edit
p77
sg8
F199.887
sg9
F0.938
sg10
S'raggae'
p78
sg12
F0.076
sg13
VFuse ODG
p79
sg15
I9999
sg16
F0.605
sg17
Nsg18
I0
sg19
Nsg20
Nsg21
F0.734
sg22
Nsg23
Nsg24
F-1.197
ssg25
I01
sba(iSong
Song
p80
(dp81
g3
(dp82
g5
F0.104
sg6
VOva Dweet
p83
sg8
F102.758
sg9
F0.699
sg10
S'raggae'
p84
sg12
F0.3
sg13
VPopcaan
p85
sg15
I9999
sg16
F0.638
sg17
Nsg18
I0
sg19
Nsg20
Nsg21
F0.597
sg22
Nsg23
Nsg24
F-4.899
ssg25
I01
sba(iSong
Song
p86
(dp87
g3
(dp88
g5
F0.191
sg6
VBruk Off Yuh Back
p89
sg8
F100.935
sg9
F0.882
sg10
S'raggae'
p90
sg12
F0.173
sg13
VKonshens
p91
sg15
I9999
sg16
F0.834
sg17
Nsg18
I0
sg19
Nsg20
Nsg21
F0.963
sg22
Nsg23
Nsg24
F-2.563
ssg25
I01
sba(iSong
Song
p92
(dp93
g3
(dp94
g5
F0.0654
sg6
VWhine & Kotch - Raw
p95
sg8
F105.151
sg9
F0.675
sg10
S'raggae'
p96
sg12
F0.387
sg13
VCharly Black
p97
sg15
I9999
sg16
F0.699
sg17
Nsg18
I0
sg19
Nsg20
Nsg21
F0.442
sg22
Nsg23
Nsg24
F-5.383
ssg25
I01
sba(iSong
Song
p98
(dp99
g3
(dp100
g5
F0.0382
sg6
VSo Mi Like It
p101
sg8
F90.127
sg9
F0.694
sg10
S'raggae'
p102
sg12
F0.331
sg13
VSpice
p103
sg15
I9999
sg16
F0.812
sg17
Nsg18
I0
sg19
Nsg20
Nsg21
F0.861
sg22
Nsg23
Nsg24
F-3.913
ssg25
I01
sba(iSong
Song
p104
(dp105
g3
(dp106
g5
F0.000755
sg6
VNo Games
p107
sg8
F185.779
sg9
F0.79
sg10
S'raggae'
p108
sg12
F0.284
sg13
VSerani
p109
sg15
I9999
sg16
F0.741
sg17
Nsg18
I0
sg19
Nsg20
Nsg21
F0.806
sg22
Nsg23
Nsg24
F-5.056
ssg25
I01
sba(iSong
Song
p110
(dp111
g3
(dp112
g5
F0.145
sg6
VGal a Bubble
p113
sg8
F100.084
sg9
F0.731
sg10
S'raggae'
p114
sg12
F0.349
sg13
VKonshens
p115
sg15
I9999
sg16
F0.827
sg17
Nsg18
F3.16e-05
sg19
Nsg20
Nsg21
F0.665
sg22
Nsg23
Nsg24
F-7.485
ssg25
I01
sba(iSong
Song
p116
(dp117
g3
(dp118
g5
F0.42
sg6
VWe Can (feat. Tory Lanez)
p119
sg8
F132.765
sg9
F0.618
sg10
S'raggae'
p120
sg12
F0.32
sg13
VKranium
p121
sg15
I9999
sg16
F0.552
sg17
Nsg18
I0
sg19
Nsg20
Nsg21
F0.399
sg22
Nsg23
Nsg24
F-6.757
ssg25
I01
sba(iSong
Song
p122
(dp123
g3
(dp124
g5
F0.262
sg6
VNuttin Nuh Go So
p125
sg8
F97.888
sg9
F0.806
sg10
S'raggae'
p126
sg12
F0.115
sg13
VNotch
p127
sg15
I9999
sg16
F0.752
sg17
Nsg18
I0
sg19
Nsg20
Nsg21
F0.763
sg22
Nsg23
Nsg24
F-4.948
ssg25
I01
sba(iSong
Song
p128
(dp129
g3
(dp130
g5
F0.061
sg6
VTempted To Touch
p131
sg8
F105.988
sg9
F0.825
sg10
S'raggae'
p132
sg12
F0.0549
sg13
VRupee
p133
sg15
I9999
sg16
F0.819
sg17
Nsg18
I0
sg19
Nsg20
Nsg21
F0.939
sg22
Nsg23
Nsg24
F-7.012
ssg25
I01
sba(iSong
Song
p134
(dp135
g3
(dp136
g5
F0.0886
sg6
VClarks
p137
sg8
F101.872
sg9
F0.802
sg10
S'raggae'
p138
sg12
F0.373
sg13
VVybz Kartel
p139
sg15
I9999
sg16
F0.631
sg17
Nsg18
I0
sg19
Nsg20
Nsg21
F0.772
sg22
Nsg23
Nsg24
F-5.316
ssg25
I01
sba(iSong
Song
p140
(dp141
g3
(dp142
g5
F0.00815
sg6
VMek It Bunx Up
p143
sg8
F99.999
sg9
F0.806
sg10
S'raggae'
p144
sg12
F0.296
sg13
VDeeWunn
p145
sg15
I9999
sg16
F0.947
sg17
Nsg18
I0
sg19
Nsg20
Nsg21
F0.634
sg22
Nsg23
Nsg24
F-4.191
ssg25
I01
sba(iSong
Song
p146
(dp147
g3
(dp148
g5
F0.0139
sg6
VRomping Shop
p149
sg8
F85.965
sg9
F0.721
sg10
S'raggae'
p150
sg12
F0.188
sg13
VVybz Kartel
p151
sg15
I9999
sg16
F0.607
sg17
Nsg18
I0
sg19
Nsg20
Nsg21
F0.414
sg22
Nsg23
Nsg24
F-4.549
ssg25
I01
sba(iSong
Song
p152
(dp153
g3
(dp154
g5
F0.0246
sg6
VParty Animal
p155
sg8
F101.006
sg9
F0.867
sg10
S'raggae'
p156
sg12
F0.0497
sg13
VCharly Black
p157
sg15
I9999
sg16
F0.721
sg17
Nsg18
I0
sg19
Nsg20
Nsg21
F0.823
sg22
Nsg23
Nsg24
F-3.916
ssg25
I01
sba(iSong
Song
p158
(dp159
g3
(dp160
g5
F0.316
sg6
VPana
p161
sg8
F200.066
sg9
F0.544
sg10
S'raggae'
p162
sg12
F0.328
sg13
VTekno
p163
sg15
I9999
sg16
F0.552
sg17
Nsg18
F0.0309
sg19
Nsg20
Nsg21
F0.685
sg22
Nsg23
Nsg24
F-7.388
ssg25
I01
sba(iSong
Song
p164
(dp165
g3
(dp166
g5
F0.105
sg6
VRun Up (feat. PARTYNEXTDOOR & Nicki Minaj)
p167
sg8
F108.005
sg9
F0.743
sg10
S'raggae'
p168
sg12
F0.0681
sg13
VMajor Lazer
p169
sg15
I9999
sg16
F0.803
sg17
Nsg18
F2.12e-06
sg19
Nsg20
Nsg21
F0.674
sg22
Nsg23
Nsg24
F-3.602
ssg25
I01
sba(iSong
Song
p170
(dp171
g3
(dp172
g5
F0.0202
sg6
VWatch Out For This (Bumaye) [feat. Busy Signal, The Flexican & FS Green] - feat. Busy Signal, The Flexican & FS Green
p173
sg8
F108.056
sg9
F0.755
sg10
S'raggae'
p174
sg12
F0.156
sg13
VMajor Lazer
p175
sg15
I9999
sg16
F0.828
sg17
Nsg18
F9.61e-06
sg19
Nsg20
Nsg21
F0.862
sg22
Nsg23
Nsg24
F-4.116
ssg25
I01
sba(iSong
Song
p176
(dp177
g3
(dp178
g5
F0.693
sg6
VWine Slow
p179
sg8
F119.845
sg9
F0.557
sg10
S'raggae'
p180
sg12
F0.286
sg13
VGyptian
p181
sg15
I9999
sg16
F0.615
sg17
Nsg18
I0
sg19
Nsg20
Nsg21
F0.425
sg22
Nsg23
Nsg24
F-8.698
ssg25
I01
sba(iSong
Song
p182
(dp183
g3
(dp184
g5
F0.235
sg6
VYuh Love
p185
sg8
F121.756
sg9
F0.575
sg10
S'raggae'
p186
sg12
F0.325
sg13
VVybz Kartel
p187
sg15
I9999
sg16
F0.632
sg17
Nsg18
I0
sg19
Nsg20
Nsg21
F0.733
sg22
Nsg23
Nsg24
F-9.25
ssg25
I01
sba(iSong
Song
p188
(dp189
g3
(dp190
g5
F0.111
sg6
VDude
p191
sg8
F94.007
sg9
F0.653
sg10
S'raggae'
p192
sg12
F0.236
sg13
VBeenie Man
p193
sg15
I9999
sg16
F0.71
sg17
Nsg18
I0
sg19
Nsg20
Nsg21
F0.943
sg22
Nsg23
Nsg24
F-8.305
ssg25
I01
sba(iSong
Song
p194
(dp195
g3
(dp196
g5
F0.378
sg6
VLove Yuh Everything
p197
sg8
F100.168
sg9
F0.733
sg10
S'raggae'
p198
sg12
F0.124
sg13
VAlkaline
p199
sg15
I9999
sg16
F0.746
sg17
Nsg18
I0
sg19
Nsg20
Nsg21
F0.539
sg22
Nsg23
Nsg24
F-6.376
ssg25
I01
sba(iSong
Song
p200
(dp201
g3
(dp202
g5
F0.0257
sg6
VMamacita
p203
sg8
F103.362
sg9
F0.841
sg10
S'raggae'
p204
sg12
F0.106
sg13
VCollie Buddz
p205
sg15
I9999
sg16
F0.593
sg17
Nsg18
I0
sg19
Nsg20
Nsg21
F0.779
sg22
Nsg23
Nsg24
F-5.387
ssg25
I01
sba(iSong
Song
p206
(dp207
g3
(dp208
g5
F0.00168
sg6
VNobody Has To Know
p209
sg8
F84.983
sg9
F0.682
sg10
S'raggae'
p210
sg12
F0.173
sg13
VKranium
p211
sg15
I9999
sg16
F0.792
sg17
Nsg18
I0
sg19
Nsg20
Nsg21
F0.666
sg22
Nsg23
Nsg24
F-4.96
ssg25
I01
sba(iSong
Song
p212
(dp213
g3
(dp214
g5
F0.026
sg6
VCome Again
p215
sg8
F104.169
sg9
F0.762
sg10
S'raggae'
p216
sg12
F0.141
sg13
VDJ Katch
p217
sg15
I9999
sg16
F0.785
sg17
Nsg18
I0
sg19
Nsg20
Nsg21
F0.331
sg22
Nsg23
Nsg24
F-5.958
ssg25
I01
sba(iSong
Song
p218
(dp219
g3
(dp220
g5
F0.347
sg6
VBody
p221
sg8
F67.262
sg9
F0.795
sg10
S'raggae'
p222
sg12
F0.326
sg13
VSean Paul
p223
sg15
I9999
sg16
F0.494
sg17
Nsg18
I0
sg19
Nsg20
Nsg21
F0.441
sg22
Nsg23
Nsg24
F-3.495
ssg25
I01
sba(iSong
Song
p224
(dp225
g3
(dp226
g5
F0.124
sg6
VBad Yuh Bad
p227
sg8
F105.789
sg9
F0.703
sg10
S'raggae'
p228
sg12
F0.176
sg13
VPopcaan
p229
sg15
I9999
sg16
F0.587
sg17
Nsg18
I0
sg19
Nsg20
Nsg21
F0.736
sg22
Nsg23
Nsg24
F-7.71
ssg25
I01
sba(iSong
Song
p230
(dp231
g3
(dp232
g5
F0.0422
sg6
VBunny
p233
sg8
F100.847
sg9
F0.708
sg10
S'raggae'
p234
sg12
F0.393
sg13
VMyssa More
p235
sg15
I9999
sg16
F0.787
sg17
Nsg18
I0
sg19
Nsg20
Nsg21
F0.761
sg22
Nsg23
Nsg24
F-6.275
ssg25
I01
sba(iSong
Song
p236
(dp237
g3
(dp238
g5
F0.0873
sg6
VControlla
p239
sg8
F92.326
sg9
F0.478
sg10
S'raggae'
p240
sg12
F0.287
sg13
VDrake
p241
sg15
I9999
sg16
F0.545
sg17
Nsg18
I0
sg19
Nsg20
Nsg21
F0.317
sg22
Nsg23
Nsg24
F-11.066
ssg25
I01
sba(iSong
Song
p242
(dp243
g3
(dp244
g5
F0.0826
sg6
VBreadman
p245
sg8
F123.71
sg9
F0.782
sg10
S'raggae'
p246
sg12
F0.367
sg13
VStylo G
p247
sg15
I9999
sg16
F0.717
sg17
Nsg18
I0
sg19
Nsg20
Nsg21
F0.633
sg22
Nsg23
Nsg24
F-3.816
ssg25
I01
sba(iSong
Song
p248
(dp249
g3
(dp250
g5
F0.0143
sg6
VGive It All To Me
p251
sg8
F62.982
sg9
F0.71
sg10
S'raggae'
p252
sg12
F0.425
sg13
VMavado
p253
sg15
I9999
sg16
F0.409
sg17
Nsg18
I0
sg19
Nsg20
Nsg21
F0.408
sg22
Nsg23
Nsg24
F-5.577
ssg25
I01
sba(iSong
Song
p254
(dp255
g3
(dp256
g5
F0.51
sg6
VBlackberry (Remastered)
p257
sg8
F104.976
sg9
F0.835
sg10
S'raggae'
p258
sg12
F0.251
sg13
VVybz Kartel
p259
sg15
I9999
sg16
F0.834
sg17
Nsg18
I0
sg19
Nsg20
Nsg21
F0.693
sg22
Nsg23
Nsg24
F-6.212
ssg25
I01
sba(iSong
Song
p260
(dp261
g3
(dp262
g5
F0.0841
sg6
VCalling
p263
sg8
F125.38
sg9
F0.688
sg10
S'raggae'
p264
sg12
F0.199
sg13
VK'More
p265
sg15
I9999
sg16
F0.532
sg17
Nsg18
I0
sg19
Nsg20
Nsg21
F0.584
sg22
Nsg23
Nsg24
F-5.166
ssg25
I01
sba(iSong
Song
p266
(dp267
g3
(dp268
g5
F0.288
sg6
VYou're Perfect
p269
sg8
F104.912
sg9
F0.858
sg10
S'raggae'
p270
sg12
F0.25
sg13
VCharly Black
p271
sg15
I9999
sg16
F0.809
sg17
Nsg18
I0
sg19
Nsg20
Nsg21
F0.803
sg22
Nsg23
Nsg24
F-3.288
ssg25
I01
sba(iSong
Song
p272
(dp273
g3
(dp274
g5
F0.16
sg6
VDutty Wine
p275
sg8
F156.541
sg9
F0.918
sg10
S'raggae'
p276
sg12
F0.359
sg13
VTony Matterhorn
p277
sg15
I9999
sg16
F0.497
sg17
Nsg18
I0
sg19
Nsg20
Nsg21
F0.93
sg22
Nsg23
Nsg24
F-4.981
ssg25
I01
sba(iSong
Song
p278
(dp279
g3
(dp280
g5
F0.0469
sg6
VNobody Has To Know (feat. Ty Dolla $ign) - Major Lazer and KickRaux Remix
p281
sg8
F102.995
sg9
F0.79
sg10
S'raggae'
p282
sg12
F0.161
sg13
VKranium
p283
sg15
I9999
sg16
F0.681
sg17
Nsg18
I0
sg19
Nsg20
Nsg21
F0.627
sg22
Nsg23
Nsg24
F-5.654
ssg25
I01
sba(iSong
Song
p284
(dp285
g3
(dp286
g5
F0.611
sg6
VExtra Lesson Remix (feat. Kojo Funds & Chip)
p287
sg8
F100.413
sg9
F0.547
sg10
S'raggae'
p288
sg12
F0.29
sg13
VAlkaline
p289
sg15
I9999
sg16
F0.764
sg17
Nsg18
I0
sg19
Nsg20
Nsg21
F0.766
sg22
Nsg23
Nsg24
F-6.395
ssg25
I01
sba(iSong
Song
p290
(dp291
g3
(dp292
g5
F0.0956
sg6
VDancehall Girl (feat. Shatta Wale)
p293
sg8
F106.586
sg9
F0.831
sg10
S'raggae'
p294
sg12
F0.322
sg13
VEpik Jones
p295
sg15
I9999
sg16
F0.817
sg17
Nsg18
I0
sg19
Nsg20
Nsg21
F0.841
sg22
Nsg23
Nsg24
F-6.136
ssg25
I01
sba(iSong
Song
p296
(dp297
g3
(dp298
g5
F0.416
sg6
VAddicted
p299
sg8
F130.773
sg9
F0.645
sg10
S'raggae'
p300
sg12
F0.174
sg13
VPopcaan
p301
sg15
I9999
sg16
F0.533
sg17
Nsg18
I0
sg19
Nsg20
Nsg21
F0.531
sg22
Nsg23
Nsg24
F-5.939
ssg25
I01
sba(iSong
Song
p302
(dp303
g3
(dp304
g5
F0.0406
sg6
VFeelin U
p305
sg8
F126.424
sg9
F0.651
sg10
S'raggae'
p306
sg12
F0.137
sg13
VKickRaux
p307
sg15
I9999
sg16
F0.559
sg17
Nsg18
I0
sg19
Nsg20
Nsg21
F0.498
sg22
Nsg23
Nsg24
F-7.565
ssg25
I01
sba(iSong
Song
p308
(dp309
g3
(dp310
g5
F0.116
sg6
VOne Wine
p311
sg8
F195.804
sg9
F0.944
sg10
S'raggae'
p312
sg12
F0.148
sg13
VMachel Montano
p313
sg15
I9999
sg16
F0.502
sg17
Nsg18
I0
sg19
Nsg20
Nsg21
F0.899
sg22
Nsg23
Nsg24
F-1.884
ssg25
I01
sba(iSong
Song
p314
(dp315
g3
(dp316
g5
F0.175
sg6
VLiving the Life
p317
sg8
F100.033
sg9
F0.726
sg10
S'raggae'
p318
sg12
F0.37
sg13
VFanatix
p319
sg15
I9999
sg16
F0.593
sg17
Nsg18
I0
sg19
Nsg20
Nsg21
F0.806
sg22
Nsg23
Nsg24
F-5.925
ssg25
I01
sba(iSong
Song
p320
(dp321
g3
(dp322
g5
F0.063
sg6
V10 Outa 10
p323
sg8
F102.025
sg9
F0.878
sg10
S'raggae'
p324
sg12
F0.271
sg13
VMasicka
p325
sg15
I9999
sg16
F0.572
sg17
Nsg18
I0
sg19
Nsg20
Nsg21
F0.668
sg22
Nsg23
Nsg24
F-4.342
ssg25
I01
sba(iSong
Song
p326
(dp327
g3
(dp328
g5
F0.192
sg6
VAfter All
p329
sg8
F131.027
sg9
F0.765
sg10
S'raggae'
p330
sg12
F0.294
sg13
VAlkaline
p331
sg15
I9999
sg16
F0.648
sg17
Nsg18
I0
sg19
Nsg20
Nsg21
F0.749
sg22
Nsg23
Nsg24
F-4.816
ssg25
I01
sba(iSong
Song
p332
(dp333
g3
(dp334
g5
F0.00399
sg6
VYu Zimme - All Star VIP
p335
sg8
F133.28
sg9
F0.801
sg10
S'raggae'
p336
sg12
F0.135
sg13
VStylo G
p337
sg15
I9999
sg16
F0.704
sg17
Nsg18
F0.00212
sg19
Nsg20
Nsg21
F0.342
sg22
Nsg23
Nsg24
F-4.79
ssg25
I01
sba(iSong
Song
p338
(dp339
g3
(dp340
g5
F0.0147
sg6
VBedroom Bully
p341
sg8
F99.761
sg9
F0.713
sg10
S'raggae'
p342
sg12
F0.26
sg13
VBusy Signal
p343
sg15
I9999
sg16
F0.597
sg17
Nsg18
I0
sg19
Nsg20
Nsg21
F0.374
sg22
Nsg23
Nsg24
F-6.456
ssg25
I01
sba(iSong
Song
p344
(dp345
g3
(dp346
g5
F0.313
sg6
VTurn Me On
p347
sg8
F105.02
sg9
F0.82
sg10
S'raggae'
p348
sg12
F0.101
sg13
VKonshens
p349
sg15
I9999
sg16
F0.795
sg17
Nsg18
F3.76e-06
sg19
Nsg20
Nsg21
F0.725
sg22
Nsg23
Nsg24
F-4.329
ssg25
I01
sba(iSong
Song
p350
(dp351
g3
(dp352
g5
F0.104
sg6
VGold
p353
sg8
F92.94
sg9
F0.686
sg10
S'raggae'
p354
sg12
F0.207
sg13
VAlicai Harley
p355
sg15
I9999
sg16
F0.72
sg17
Nsg18
I0
sg19
Nsg20
Nsg21
F0.302
sg22
Nsg23
Nsg24
F-4.379
ssg25
I01
sba(iSong
Song
p356
(dp357
g3
(dp358
g5
F0.18
sg6
VBen' Ova
p359
sg8
F98.423
sg9
F0.612
sg10
S'raggae'
p360
sg12
F0.174
sg13
VWSTRN
p361
sg15
I9999
sg16
F0.772
sg17
Nsg18
F3.47e-06
sg19
Nsg20
Nsg21
F0.478
sg22
Nsg23
Nsg24
F-7.076
ssg25
I01
sba(iSong
Song
p362
(dp363
g3
(dp364
g5
F0.219
sg6
VBruk It Down
p365
sg8
F118.982
sg9
F0.781
sg10
S'raggae'
p366
sg12
F0.217
sg13
VMr. Vegas
p367
sg15
I9999
sg16
F0.919
sg17
Nsg18
I0
sg19
Nsg20
Nsg21
F0.559
sg22
Nsg23
Nsg24
F-4.704
ssg25
I01
sba(iSong
Song
p368
(dp369
g3
(dp370
g5
F0.0794
sg6
VIskaba
p371
sg8
F125.026
sg9
F0.764
sg10
S'raggae'
p372
sg12
F0.053
sg13
VWande Coal
p373
sg15
I9999
sg16
F0.814
sg17
Nsg18
F0.0174
sg19
Nsg20
Nsg21
F0.899
sg22
Nsg23
Nsg24
F-7.944
ssg25
I01
sba(iSong
Song
p374
(dp375
g3
(dp376
g5
F0.153
sg6
VJamming
p377
sg8
F123.671
sg9
F0.431
sg10
S'raggae'
p378
sg12
F0.299
sg13
VBob Marley & The Wailers
p379
sg15
I9999
sg16
F0.939
sg17
Nsg18
F4.99e-05
sg19
Nsg20
Nsg21
F0.729
sg22
Nsg23
Nsg24
F-12.267
ssg25
I01
sba(iSong
Song
p380
(dp381
g3
(dp382
g5
F0.0105
sg6
VWorld-A-Reggae
p383
sg8
F73.724
sg9
F0.457
sg10
S'raggae'
p384
sg12
F0.0601
sg13
VIni Kamoze
p385
sg15
I9999
sg16
F0.863
sg17
Nsg18
F0.000774
sg19
Nsg20
Nsg21
F0.382
sg22
Nsg23
Nsg24
F-11.445
ssg25
I01
sba(iSong
Song
p386
(dp387
g3
(dp388
g5
F0.0122
sg6
VYou Don't Love Me (No, No, No) - Extended Mix
p389
sg8
F80.962
sg9
F0.428
sg10
S'raggae'
p390
sg12
F0.221
sg13
VDawn Penn
p391
sg15
I9999
sg16
F0.811
sg17
Nsg18
F0.317
sg19
Nsg20
Nsg21
F0.653
sg22
Nsg23
Nsg24
F-10.728
ssg25
I01
sba(iSong
Song
p392
(dp393
g3
(dp394
g5
F0.043
sg6
VNight Nurse
p395
sg8
F74.684
sg9
F0.309
sg10
S'raggae'
p396
sg12
F0.216
sg13
VGregory Isaacs
p397
sg15
I9999
sg16
F0.841
sg17
Nsg18
F0.0152
sg19
Nsg20
Nsg21
F0.931
sg22
Nsg23
Nsg24
F-14.537
ssg25
I01
sba(iSong
Song
p398
(dp399
g3
(dp400
g5
F0.161
sg6
VHere I Come
p401
sg8
F170.82
sg9
F0.663
sg10
S'raggae'
p402
sg12
F0.0828
sg13
VBarrington Levy
p403
sg15
I9999
sg16
F0.582
sg17
Nsg18
I0
sg19
Nsg20
Nsg21
F0.695
sg22
Nsg23
Nsg24
F-6.547
ssg25
I01
sba(iSong
Song
p404
(dp405
g3
(dp406
g5
F0.825
sg6
VBam Bam
p407
sg8
F165.998
sg9
F0.605
sg10
S'raggae'
p408
sg12
F0.153
sg13
VSister Nancy
p409
sg15
I9999
sg16
F0.722
sg17
Nsg18
F0.0178
sg19
Nsg20
Nsg21
F0.709
sg22
Nsg23
Nsg24
F-6.07
ssg25
I01
sba(iSong
Song
p410
(dp411
g3
(dp412
g5
F0.0887
sg6
VCool Down The Pace
p413
sg8
F76.37
sg9
F0.266
sg10
S'raggae'
p414
sg12
F0.264
sg13
VGregory Isaacs
p415
sg15
I9999
sg16
F0.87
sg17
Nsg18
F0.0217
sg19
Nsg20
Nsg21
F0.929
sg22
Nsg23
Nsg24
F-15.559
ssg25
I01
sba(iSong
Song
p416
(dp417
g3
(dp418
g5
F0.0845
sg6
VMurderer
p419
sg8
F142.8
sg9
F0.549
sg10
S'raggae'
p420
sg12
F0.244
sg13
VBarrington Levy
p421
sg15
I9999
sg16
F0.865
sg17
Nsg18
F0.158
sg19
Nsg20
Nsg21
F0.617
sg22
Nsg23
Nsg24
F-10.083
ssg25
I01
sba(iSong
Song
p422
(dp423
g3
(dp424
g5
F0.025
sg6
VWaiting In Vain
p425
sg8
F78.837
sg9
F0.453
sg10
S'raggae'
p426
sg12
F0.31
sg13
VBob Marley & The Wailers
p427
sg15
I9999
sg16
F0.838
sg17
Nsg18
F2.42e-05
sg19
Nsg20
Nsg21
F0.815
sg22
Nsg23
Nsg24
F-11.536
ssg25
I01
sba(iSong
Song
p428
(dp429
g3
(dp430
g5
F0.0331
sg6
VPolice In Helicopter
p431
sg8
F141.185
sg9
F0.652
sg10
S'raggae'
p432
sg12
F0.111
sg13
VJohn Holt
p433
sg15
I9999
sg16
F0.686
sg17
Nsg18
F8.34e-06
sg19
Nsg20
Nsg21
F0.503
sg22
Nsg23
Nsg24
F-7.586
ssg25
I01
sba(iSong
Song
p434
(dp435
g3
(dp436
g5
F0.00414
sg6
VRed Red Wine - Edit
p437
sg8
F89.119
sg9
F0.468
sg10
S'raggae'
p438
sg12
F0.0476
sg13
VUB40
p439
sg15
I9999
sg16
F0.857
sg17
Nsg18
F1.32e-05
sg19
Nsg20
Nsg21
F0.843
sg22
Nsg23
Nsg24
F-8.53
ssg25
I01
sba(iSong
Song
p440
(dp441
g3
(dp442
g5
F0.102
sg6
VHandsworth Revolution
p443
sg8
F118.494
sg9
F0.398
sg10
S'raggae'
p444
sg12
F0.0967
sg13
VSteel Pulse
p445
sg15
I9999
sg16
F0.931
sg17
Nsg18
F0.000204
sg19
Nsg20
Nsg21
F0.709
sg22
Nsg23
Nsg24
F-14.748
ssg25
I01
sba(iSong
Song
p446
(dp447
g3
(dp448
g5
F0.788
sg6
V54-46 Was My Number - Edit
p449
sg8
F158.536
sg9
F0.377
sg10
S'raggae'
p450
sg12
F0.313
sg13
VToots & The Maytals
p451
sg15
I9999
sg16
F0.714
sg17
Nsg18
F4.68e-06
sg19
Nsg20
Nsg21
F0.437
sg22
Nsg23
Nsg24
F-9.063
ssg25
I01
sba(iSong
Song
p452
(dp453
g3
(dp454
g5
F0.427
sg6
VPass The Dutchie
p455
sg8
F149.846
sg9
F0.428
sg10
S'raggae'
p456
sg12
F0.0978
sg13
VMusical Youth
p457
sg15
I9999
sg16
F0.8
sg17
Nsg18
I0
sg19
Nsg20
Nsg21
F0.966
sg22
Nsg23
Nsg24
F-14.283
ssg25
I01
sba(iSong
Song
p458
(dp459
g3
(dp460
g5
F0.236
sg6
VBad Boys (Theme from COPS)
p461
sg8
F87.862
sg9
F0.722
sg10
S'raggae'
p462
sg12
F0.0668
sg13
VInner Circle
p463
sg15
I9999
sg16
F0.781
sg17
Nsg18
F0.00042
sg19
Nsg20
Nsg21
F0.532
sg22
Nsg23
Nsg24
F-8.376
ssg25
I01
sba(iSong
Song
p464
(dp465
g3
(dp466
g5
F0.0109
sg6
VThree Little Birds
p467
sg8
F73.962
sg9
F0.478
sg10
S'raggae'
p468
sg12
F0.0855
sg13
VBob Marley & The Wailers
p469
sg15
I9999
sg16
F0.781
sg17
Nsg18
F1.01e-06
sg19
Nsg20
Nsg21
F0.643
sg22
Nsg23
Nsg24
F-10.54
ssg25
I01
sba(iSong
Song
p470
(dp471
g3
(dp472
g5
F0.149
sg6
VHail H.I.M - 2002 Remastered Version
p473
sg8
F137.866
sg9
F0.652
sg10
S'raggae'
p474
sg12
F0.0583
sg13
VBurning Spear
p475
sg15
I9999
sg16
F0.775
sg17
Nsg18
F0.18
sg19
Nsg20
Nsg21
F0.671
sg22
Nsg23
Nsg24
F-7.881
ssg25
I01
sba(iSong
Song
p476
(dp477
g3
(dp478
g5
F0.271
sg6
VFunky Kingston
p479
sg8
F99.695
sg9
F0.512
sg10
S'raggae'
p480
sg12
F0.0572
sg13
VToots & The Maytals
p481
sg15
I9999
sg16
F0.763
sg17
Nsg18
F0.000846
sg19
Nsg20
Nsg21
F0.962
sg22
Nsg23
Nsg24
F-9.383
ssg25
I01
sba(iSong
Song
p482
(dp483
g3
(dp484
g5
F0.352
sg6
VDream Land
p485
sg8
F72.842
sg9
F0.485
sg10
S'raggae'
p486
sg12
F0.321
sg13
VBunny Wailer
p487
sg15
I9999
sg16
F0.786
sg17
Nsg18
F0.00467
sg19
Nsg20
Nsg21
F0.96
sg22
Nsg23
Nsg24
F-13.012
ssg25
I01
sba(iSong
Song
p488
(dp489
g3
(dp490
g5
F0.0585
sg6
VThe International Herb
p491
sg8
F127.686
sg9
F0.433
sg10
S'raggae'
p492
sg12
F0.337
sg13
VCulture
p493
sg15
I9999
sg16
F0.825
sg17
Nsg18
I0
sg19
Nsg20
Nsg21
F0.687
sg22
Nsg23
Nsg24
F-13.085
ssg25
I01
sba(iSong
Song
p494
(dp495
g3
(dp496
g5
F0.449
sg6
VTake Me Home, Country Roads
p497
sg8
F175.244
sg9
F0.436
sg10
S'raggae'
p498
sg12
F0.146
sg13
VToots & The Maytals
p499
sg15
I9999
sg16
F0.609
sg17
Nsg18
F0.00677
sg19
Nsg20
Nsg21
F0.921
sg22
Nsg23
Nsg24
F-11.99
ssg25
I01
sba(iSong
Song
p500
(dp501
g3
(dp502
g5
F0.0124
sg6
VSweat (A La La La La Long)
p503
sg8
F173.025
sg9
F0.727
sg10
S'raggae'
p504
sg12
F0.224
sg13
VInner Circle
p505
sg15
I9999
sg16
F0.787
sg17
Nsg18
I0
sg19
Nsg20
Nsg21
F0.936
sg22
Nsg23
Nsg24
F-7.705
ssg25
I01
sba(iSong
Song
p506
(dp507
g3
(dp508
g5
F0.0367
sg6
VMellow Mood
p509
sg8
F80.946
sg9
F0.568
sg10
S'raggae'
p510
sg12
F0.156
sg13
VBunny Wailer
p511
sg15
I9999
sg16
F0.742
sg17
Nsg18
F0.0715
sg19
Nsg20
Nsg21
F0.678
sg22
Nsg23
Nsg24
F-12.667
ssg25
I01
sba(iSong
Song
p512
(dp513
g3
(dp514
g5
F0.188
sg6
VIsraelites
p515
sg8
F146.467
sg9
F0.41
sg10
S'raggae'
p516
sg12
F0.0511
sg13
VDesmond Dekker
p517
sg15
I9999
sg16
F0.793
sg17
Nsg18
I0
sg19
Nsg20
Nsg21
F0.931
sg22
Nsg23
Nsg24
F-10.662
ssg25
I01
sba(iSong
Song
p518
(dp519
g3
(dp520
g5
F0.645
sg6
VThe Harder They Come
p521
sg8
F102.492
sg9
F0.589
sg10
S'raggae'
p522
sg12
F0.0727
sg13
VJimmy Cliff
p523
sg15
I9999
sg16
F0.679
sg17
Nsg18
I0
sg19
Nsg20
Nsg21
F0.786
sg22
Nsg23
Nsg24
F-8.01
ssg25
I01
sba(iSong
Song
p524
(dp525
g3
(dp526
g5
F0.199
sg6
VRevolution
p527
sg8
F84.623
sg9
F0.719
sg10
S'raggae'
p528
sg12
F0.0995
sg13
VDennis Brown
p529
sg15
I9999
sg16
F0.717
sg17
Nsg18
F2.62e-06
sg19
Nsg20
Nsg21
F0.766
sg22
Nsg23
Nsg24
F-3.166
ssg25
I01
sba(iSong
Song
p530
(dp531
g3
(dp532
g5
F0.128
sg6
VLegalize It
p533
sg8
F145.249
sg9
F0.784
sg10
S'raggae'
p534
sg12
F0.204
sg13
VPeter Tosh
p535
sg15
I9999
sg16
F0.701
sg17
Nsg18
I0
sg19
Nsg20
Nsg21
F0.712
sg22
Nsg23
Nsg24
F-7.212
ssg25
I01
sba(iSong
Song
p536
(dp537
g3
(dp538
g5
F0.172
sg6
VBuffalo Soldier
p539
sg8
F124.081
sg9
F0.464
sg10
S'raggae'
p540
sg12
F0.27
sg13
VBob Marley & The Wailers
p541
sg15
I9999
sg16
F0.928
sg17
Nsg18
F7.16e-06
sg19
Nsg20
Nsg21
F0.762
sg22
Nsg23
Nsg24
F-8.56
ssg25
I01
sba(iSong
Song
p542
(dp543
g3
(dp544
g5
F0.313
sg6
VI Shot The Sheriff
p545
sg8
F96.806
sg9
F0.641
sg10
S'raggae'
p546
sg12
F0.171
sg13
VThe Wailers
p547
sg15
I9999
sg16
F0.799
sg17
Nsg18
F2.22e-05
sg19
Nsg20
Nsg21
F0.719
sg22
Nsg23
Nsg24
F-9.33
ssg25
I01
sba(iSong
Song
p548
(dp549
g3
(dp550
g5
F0.0659
sg6
VWar Ina Babylon
p551
sg8
F147.759
sg9
F0.699
sg10
S'raggae'
p552
sg12
F0.119
sg13
VMax Romeo
p553
sg15
I9999
sg16
F0.647
sg17
Nsg18
I0
sg19
Nsg20
Nsg21
F0.862
sg22
Nsg23
Nsg24
F-6.67
ssg25
I01
sba(iSong
Song
p554
(dp555
g3
(dp556
g5
F0.0442
sg6
VMarcus Garvey
p557
sg8
F91.899
sg9
F0.487
sg10
S'raggae'
p558
sg12
F0.0993
sg13
VBurning Spear
p559
sg15
I9999
sg16
F0.726
sg17
Nsg18
F0.00766
sg19
Nsg20
Nsg21
F0.48
sg22
Nsg23
Nsg24
F-9.235
ssg25
I01
sba(iSong
Song
p560
(dp561
g3
(dp562
g5
F0.175
sg6
VUnder Me Sleng Teng
p563
sg8
F81.513
sg9
F0.537
sg10
S'raggae'
p564
sg12
F0.0631
sg13
VWayne Smith
p565
sg15
I9999
sg16
F0.832
sg17
Nsg18
I0
sg19
Nsg20
Nsg21
F0.901
sg22
Nsg23
Nsg24
F-7.34
ssg25
I01
sba(iSong
Song
p566
(dp567
g3
(dp568
g5
F0.258
sg6
VGet Up, Stand Up
p569
sg8
F78.365
sg9
F0.571
sg10
S'raggae'
p570
sg12
F0.348
sg13
VThe Wailers
p571
sg15
I9999
sg16
F0.776
sg17
Nsg18
I0
sg19
Nsg20
Nsg21
F0.816
sg22
Nsg23
Nsg24
F-7.108
ssg25
I01
sba(iSong
Song
p572
(dp573
g3
(dp574
g5
F0.354
sg6
VWa Do Dem
p575
sg8
F77.508
sg9
F0.634
sg10
S'raggae'
p576
sg12
F0.0568
sg13
VEek-A-Mouse
p577
sg15
I9999
sg16
F0.848
sg17
Nsg18
I0
sg19
Nsg20
Nsg21
F0.795
sg22
Nsg23
Nsg24
F-7.112
ssg25
I01
sba(iSong
Song
p578
(dp579
g3
(dp580
g5
F0.13
sg6
VMurder She Wrote (Original Mix)
p581
sg8
F95.096
sg9
F0.679
sg10
S'raggae'
p582
sg12
F0.156
sg13
VChaka Demus & Pliers
p583
sg15
I9999
sg16
F0.872
sg17
Nsg18
F0.00746
sg19
Nsg20
Nsg21
F0.948
sg22
Nsg23
Nsg24
F-10.026
ssg25
I01
sba(iSong
Song
p584
(dp585
g3
(dp586
g5
F0.00988
sg6
VSinsemilla
p587
sg8
F131.244
sg9
F0.568
sg10
S'raggae'
p588
sg12
F0.113
sg13
VBlack Uhuru
p589
sg15
I9999
sg16
F0.825
sg17
Nsg18
F0.0341
sg19
Nsg20
Nsg21
F0.623
sg22
Nsg23
Nsg24
F-11.747
ssg25
I01
sba(iSong
Song
p590
(dp591
g3
(dp592
g5
F0.0312
sg6
VOne Draw
p593
sg8
F89.519
sg9
F0.43
sg10
S'raggae'
p594
sg12
F0.068
sg13
VRita Marley
p595
sg15
I9999
sg16
F0.791
sg17
Nsg18
F0.000189
sg19
Nsg20
Nsg21
F0.716
sg22
Nsg23
Nsg24
F-11.316
ssg25
I01
sba(iSong
Song
p596
(dp597
g3
(dp598
g5
F0.0497
sg6
VZungguzungguguzungguzeng
p599
sg8
F164.889
sg9
F0.474
sg10
S'raggae'
p600
sg12
F0.243
sg13
VYellowman
p601
sg15
I9999
sg16
F0.75
sg17
Nsg18
F0.0013
sg19
Nsg20
Nsg21
F0.425
sg22
Nsg23
Nsg24
F-10.641
ssg25
I01
sba(iSong
Song
p602
(dp603
g3
(dp604
g5
F0.645
sg6
VGood Thing Going
p605
sg8
F77.532
sg9
F0.519
sg10
S'raggae'
p606
sg12
F0.0376
sg13
VSugar Minott
p607
sg15
I9999
sg16
F0.671
sg17
Nsg18
F0.000368
sg19
Nsg20
Nsg21
F0.939
sg22
Nsg23
Nsg24
F-11.165
ssg25
I01
sba(iSong
Song
p608
(dp609
g3
(dp610
g5
F0.229
sg6
VTenement Yard
p611
sg8
F143.879
sg9
F0.521
sg10
S'raggae'
p612
sg12
F0.306
sg13
VJacob Miller
p613
sg15
I9999
sg16
F0.888
sg17
Nsg18
I0
sg19
Nsg20
Nsg21
F0.962
sg22
Nsg23
Nsg24
F-6.845
ssg25
I01
sba(iSong
Song
p614
(dp615
g3
(dp616
g5
F0.0205
sg6
VKu Klux Klan
p617
sg8
F128.865
sg9
F0.514
sg10
S'raggae'
p618
sg12
F0.141
sg13
VSteel Pulse
p619
sg15
I9999
sg16
F0.735
sg17
Nsg18
I0
sg19
Nsg20
Nsg21
F0.817
sg22
Nsg23
Nsg24
F-12.18
ssg25
I01
sba(iSong
Song
p620
(dp621
g3
(dp622
g5
F0.0477
sg6
VUptown Top Ranking - 2001 Digital Remaster
p623
sg8
F82.439
sg9
F0.522
sg10
S'raggae'
p624
sg12
F0.173
sg13
VAlthea And Donna
p625
sg15
I9999
sg16
F0.886
sg17
Nsg18
F0.00108
sg19
Nsg20
Nsg21
F0.79
sg22
Nsg23
Nsg24
F-7.971
ssg25
I01
sba(iSong
Song
p626
(dp627
g3
(dp628
g5
F0.248
sg6
VYou Can Get It If You Really Want
p629
sg8
F128.164
sg9
F0.559
sg10
S'raggae'
p630
sg12
F0.0568
sg13
VJimmy Cliff
p631
sg15
I9999
sg16
F0.894
sg17
Nsg18
I0
sg19
Nsg20
Nsg21
F0.929
sg22
Nsg23
Nsg24
F-8.547
ssg25
I01
sba(iSong
Song
p632
(dp633
g3
(dp634
g5
F0.0631
sg6
VPolice And Thieves
p635
sg8
F127.491
sg9
F0.429
sg10
S'raggae'
p636
sg12
F0.0781
sg13
VJunior Murvin
p637
sg15
I9999
sg16
F0.934
sg17
Nsg18
I0
sg19
Nsg20
Nsg21
F0.915
sg22
Nsg23
Nsg24
F-10.192
ssg25
I01
sba(iSong
Song
p638
(dp639
g3
(dp640
g5
F0.0299
sg6
VJohnny B Goode - 2002 Remastered Version
p641
sg8
F145.169
sg9
F0.849
sg10
S'raggae'
p642
sg12
F0.0544
sg13
VPeter Tosh
p643
sg15
I9999
sg16
F0.749
sg17
Nsg18
F0.000168
sg19
Nsg20
Nsg21
F0.959
sg22
Nsg23
Nsg24
F-5.761
ssg25
I01
sba(iSong
Song
p644
(dp645
g3
(dp646
g5
F0.0931
sg6
VEverything I Own
p647
sg8
F75.74
sg9
F0.474
sg10
S'raggae'
p648
sg12
F0.0468
sg13
VKen Boothe
p649
sg15
I9999
sg16
F0.652
sg17
Nsg18
I0
sg19
Nsg20
Nsg21
F0.737
sg22
Nsg23
Nsg24
F-9.271
ssg25
I01
sba(iSong
Song
p650
(dp651
g3
(dp652
g5
F0.106
sg6
VPressure Drop
p653
sg8
F148.964
sg9
F0.571
sg10
S'raggae'
p654
sg12
F0.0432
sg13
VToots & The Maytals
p655
sg15
I9999
sg16
F0.658
sg17
Nsg18
I0
sg19
Nsg20
Nsg21
F0.985
sg22
Nsg23
Nsg24
F-11.972
ssg25
I01
sba(iSong
Song
p656
(dp657
g3
(dp658
g5
F0.0669
sg6
V007 (Shanty Town)
p659
sg8
F101.715
sg9
F0.575
sg10
S'raggae'
p660
sg12
F0.0893
sg13
VDesmond Dekker
p661
sg15
I9999
sg16
F0.86
sg17
Nsg18
F0.159
sg19
Nsg20
Nsg21
F0.846
sg22
Nsg23
Nsg24
F-6.747
ssg25
I01
sba(iSong
Song
p662
(dp663
g3
(dp664
g5
F0.0807
sg6
VChase The Devil
p665
sg8
F149.079
sg9
F0.34
sg10
S'raggae'
p666
sg12
F0.565
sg13
VMax Romeo
p667
sg15
I9999
sg16
F0.838
sg17
Nsg18
I0
sg19
Nsg20
Nsg21
F0.836
sg22
Nsg23
Nsg24
F-14.334
ssg25
I01
sba(iSong
Song
p668
(dp669
g3
(dp670
g5
F0.0083
sg6
VIs This Love
p671
sg8
F122.468
sg9
F0.529
sg10
S'raggae'
p672
sg12
F0.123
sg13
VBob Marley & The Wailers
p673
sg15
I9999
sg16
F0.758
sg17
Nsg18
I0
sg19
Nsg20
Nsg21
F0.851
sg22
Nsg23
Nsg24
F-10.32
ssg25
I01
sba(iSong
Song
p674
(dp675
g3
(dp676
g5
F0.372
sg6
VCould You Be Loved
p677
sg8
F103.33
sg9
F0.724
sg10
S'raggae'
p678
sg12
F0.105
sg13
VBob Marley & The Wailers
p679
sg15
I9999
sg16
F0.913
sg17
Nsg18
F0.000201
sg19
Nsg20
Nsg21
F0.748
sg22
Nsg23
Nsg24
F-8.527
ssg25
I01
sba(iSong
Song
p680
(dp681
g3
(dp682
g5
F0.031
sg6
VMedication
p683
sg8
F84.988
sg9
F0.568
sg10
S'raggae'
p684
sg12
F0.247
sg13
VDamian Marley
p685
sg15
I9999
sg16
F0.868
sg17
Nsg18
I0
sg19
Nsg20
Nsg21
F0.812
sg22
Nsg23
Nsg24
F-6.794
ssg25
I01
sba(iSong
Song
p686
(dp687
g3
(dp688
g5
F0.212
sg6
VSun Is Shining
p689
sg8
F72.471
sg9
F0.437
sg10
S'raggae'
p690
sg12
F0.122
sg13
VBob Marley & The Wailers
p691
sg15
I9999
sg16
F0.674
sg17
Nsg18
F2.64e-05
sg19
Nsg20
Nsg21
F0.806
sg22
Nsg23
Nsg24
F-10.535
ssg25
I01
sba(iSong
Song
p692
(dp693
g3
(dp694
g5
F0.0269
sg6
VRasta Should Be Deeper
p695
sg8
F72.384
sg9
F0.803
sg10
S'raggae'
p696
sg12
F0.0556
sg13
VJunior Kelly
p697
sg15
I9999
sg16
F0.746
sg17
Nsg18
I0
sg19
Nsg20
Nsg21
F0.731
sg22
Nsg23
Nsg24
F-5.817
ssg25
I01
sba(iSong
Song
p698
(dp699
g3
(dp700
g5
F0.0159
sg6
VStill Blazing
p701
sg8
F145.618
sg9
F0.704
sg10
S'raggae'
p702
sg12
F0.269
sg13
VAlborosie
p703
sg15
I9999
sg16
F0.749
sg17
Nsg18
F2.02e-06
sg19
Nsg20
Nsg21
F0.821
sg22
Nsg23
Nsg24
F-5.415
ssg25
I01
sba(iSong
Song
p704
(dp705
g3
(dp706
g5
F0.00557
sg6
VPimper's Paradise
p707
sg8
F134.727
sg9
F0.65
sg10
S'raggae'
p708
sg12
F0.0615
sg13
VBob Marley & The Wailers
p709
sg15
I9999
sg16
F0.939
sg17
Nsg18
I0
sg19
Nsg20
Nsg21
F0.968
sg22
Nsg23
Nsg24
F-8.282
ssg25
I01
sba(iSong
Song
p710
(dp711
g3
(dp712
g5
F0.0405
sg6
VNight Nurse
p713
sg8
F74.582
sg9
F0.294
sg10
S'raggae'
p714
sg12
F0.164
sg13
VGregory Isaacs
p715
sg15
I9999
sg16
F0.826
sg17
Nsg18
F0.0384
sg19
Nsg20
Nsg21
F0.937
sg22
Nsg23
Nsg24
F-14.54
ssg25
I01
sba(iSong
Song
p716
(dp717
g3
(dp718
g5
F0.0909
sg6
VWho Knows
p719
sg8
F80.932
sg9
F0.724
sg10
S'raggae'
p720
sg12
F0.0988
sg13
VProtoje
p721
sg15
I9999
sg16
F0.683
sg17
Nsg18
I0
sg19
Nsg20
Nsg21
F0.742
sg22
Nsg23
Nsg24
F-4.436
ssg25
I01
sba(iSong
Song
p722
(dp723
g3
(dp724
g5
F0.183
sg6
VChase The Devil
p725
sg8
F150.585
sg9
F0.623
sg10
S'raggae'
p726
sg12
F0.251
sg13
VMax Romeo
p727
sg15
I9999
sg16
F0.818
sg17
Nsg18
I0
sg19
Nsg20
Nsg21
F0.735
sg22
Nsg23
Nsg24
F-6.158
ssg25
I01
sba(iSong
Song
p728
(dp729
g3
(dp730
g5
F0.161
sg6
VHere I Come
p731
sg8
F170.82
sg9
F0.663
sg10
S'raggae'
p732
sg12
F0.0828
sg13
VBarrington Levy
p733
sg15
I9999
sg16
F0.582
sg17
Nsg18
I0
sg19
Nsg20
Nsg21
F0.695
sg22
Nsg23
Nsg24
F-6.547
ssg25
I01
sba(iSong
Song
p734
(dp735
g3
(dp736
g5
F0.214
sg6
VSo Much Trouble In The World
p737
sg8
F155.686
sg9
F0.552
sg10
S'raggae'
p738
sg12
F0.079
sg13
VBob Marley & The Wailers
p739
sg15
I9999
sg16
F0.834
sg17
Nsg18
F0.000352
sg19
Nsg20
Nsg21
F0.912
sg22
Nsg23
Nsg24
F-8.638
ssg25
I01
sba(iSong
Song
p740
(dp741
g3
(dp742
g5
F0.0561
sg6
VIt Wasn't Me
p743
sg8
F94.759
sg9
F0.606
sg10
S'raggae'
p744
sg12
F0.0713
sg13
VShaggy
p745
sg15
I9999
sg16
F0.853
sg17
Nsg18
I0
sg19
Nsg20
Nsg21
F0.654
sg22
Nsg23
Nsg24
F-4.596
ssg25
I01
sba(iSong
Song
p746
(dp747
g3
(dp748
g5
F0.116
sg6
VKingston Town
p749
sg8
F102.073
sg9
F0.217
sg10
S'raggae'
p750
sg12
F0.0595
sg13
VUB40
p751
sg15
I9999
sg16
F0.957
sg17
Nsg18
F0.0408
sg19
Nsg20
Nsg21
F0.771
sg22
Nsg23
Nsg24
F-14.626
ssg25
I01
sba(iSong
Song
p752
(dp753
g3
(dp754
g5
F0.214
sg6
VCheerleader
p755
sg8
I100
sg9
F0.738
sg10
S'raggae'
p756
sg12
F0.0309
sg13
VOMI
p757
sg15
I9999
sg16
F0.864
sg17
Nsg18
I0
sg19
Nsg20
Nsg21
F0.938
sg22
Nsg23
Nsg24
F-4.323
ssg25
I01
sba(iSong
Song
p758
(dp759
g3
(dp760
g5
F0.276
sg6
VStand Down
p761
sg8
F129.944
sg9
F0.467
sg10
S'raggae'
p762
sg12
F0.0597
sg13
VLionel Richie
p763
sg15
I9999
sg16
F0.799
sg17
Nsg18
I0
sg19
Nsg20
Nsg21
F0.965
sg22
Nsg23
Nsg24
F-7.556
ssg25
I01
sba(iSong
Song
p764
(dp765
g3
(dp766
g5
F0.651
sg6
VIntoxication
p767
sg8
F83.888
sg9
F0.652
sg10
S'raggae'
p768
sg12
F0.263
sg13
VGentleman
p769
sg15
I9999
sg16
F0.646
sg17
Nsg18
I0
sg19
Nsg20
Nsg21
F0.659
sg22
Nsg23
Nsg24
F-6.045
ssg25
I01
sba(iSong
Song
p770
(dp771
g3
(dp772
g5
F0.0807
sg6
VChase The Devil
p773
sg8
F149.079
sg9
F0.34
sg10
S'raggae'
p774
sg12
F0.565
sg13
VMax Romeo
p775
sg15
I9999
sg16
F0.838
sg17
Nsg18
I0
sg19
Nsg20
Nsg21
F0.836
sg22
Nsg23
Nsg24
F-14.334
ssg25
I01
sba(iSong
Song
p776
(dp777
g3
(dp778
g5
F0.0955
sg6
VLook Who's Dancin'
p779
sg8
F104.055
sg9
F0.908
sg10
S'raggae'
p780
sg12
F0.041
sg13
VZiggy Marley & The Melody Makers
p781
sg15
I9999
sg16
F0.767
sg17
Nsg18
F0.00207
sg19
Nsg20
Nsg21
F0.938
sg22
Nsg23
Nsg24
F-5.538
ssg25
I01
sba(iSong
Song
p782
(dp783
g3
(dp784
g5
F0.0259
sg6
VHandsworth Revolution
p785
sg8
F118.23
sg9
F0.411
sg10
S'raggae'
p786
sg12
F0.0916
sg13
VSteel Pulse
p787
sg15
I9999
sg16
F0.928
sg17
Nsg18
F1.06e-05
sg19
Nsg20
Nsg21
F0.693
sg22
Nsg23
Nsg24
F-14.2
ssg25
I01
sba(iSong
Song
p788
(dp789
g3
(dp790
g5
F0.104
sg6
VLady
p791
sg8
F148.874
sg9
F0.72
sg10
S'raggae'
p792
sg12
F0.14
sg13
VWayne Wade
p793
sg15
I9999
sg16
F0.722
sg17
Nsg18
F0.00668
sg19
Nsg20
Nsg21
F0.899
sg22
Nsg23
Nsg24
F-4.127
ssg25
I01
sba(iSong
Song
p794
(dp795
g3
(dp796
g5
F0.161
sg6
VCool and Calm
p797
sg8
F76.374
sg9
F0.399
sg10
S'raggae'
p798
sg12
F0.174
sg13
VIsrael Vibration
p799
sg15
I9999
sg16
F0.794
sg17
Nsg18
F7.09e-06
sg19
Nsg20
Nsg21
F0.839
sg22
Nsg23
Nsg24
F-11.516
ssg25
I01
sba(iSong
Song
p800
(dp801
g3
(dp802
g5
F0.048
sg6
VPolice & Thieves
p803
sg8
F127.157
sg9
F0.512
sg10
S'raggae'
p804
sg12
F0.0626
sg13
VJunior Murvin
p805
sg15
I9999
sg16
F0.934
sg17
Nsg18
I0
sg19
Nsg20
Nsg21
F0.906
sg22
Nsg23
Nsg24
F-7.137
ssg25
I01
sba(iSong
Song
p806
(dp807
g3
(dp808
g5
F0.138
sg6
VDubbing Is a Must Part 1 - 2010 Remastered Version
p809
sg8
F132.128
sg9
F0.661
sg10
S'raggae'
p810
sg12
F0.121
sg13
VPablo Moses
p811
sg15
I9999
sg16
F0.904
sg17
Nsg18
F0.0146
sg19
Nsg20
Nsg21
F0.874
sg22
Nsg23
Nsg24
F-7.981
ssg25
I01
sba(iSong
Song
p812
(dp813
g3
(dp814
g5
F0.445
sg6
VTenement Yard
p815
sg8
F144.184
sg9
F0.387
sg10
S'raggae'
p816
sg12
F0.212
sg13
VJacob Miller
p817
sg15
I9999
sg16
F0.887
sg17
Nsg18
I0
sg19
Nsg20
Nsg21
F0.973
sg22
Nsg23
Nsg24
F-13.19
ssg25
I01
sba(iSong
Song
p818
(dp819
g3
(dp820
g5
F0.0312
sg6
VOne Draw
p821
sg8
F89.519
sg9
F0.43
sg10
S'raggae'
p822
sg12
F0.068
sg13
VRita Marley
p823
sg15
I9999
sg16
F0.791
sg17
Nsg18
F0.000189
sg19
Nsg20
Nsg21
F0.716
sg22
Nsg23
Nsg24
F-11.316
ssg25
I01
sba(iSong
Song
p824
(dp825
g3
(dp826
g5
F0.042
sg6
VLiving Dread
p827
sg8
F135.981
sg9
F0.835
sg10
S'raggae'
p828
sg12
F0.0477
sg13
VAlborosie
p829
sg15
I9999
sg16
F0.792
sg17
Nsg18
I0
sg19
Nsg20
Nsg21
F0.811
sg22
Nsg23
Nsg24
F-4.842
ssg25
I01
sba(iSong
Song
p830
(dp831
g3
(dp832
g5
F0.0131
sg6
VTurn Your Lights Down Low
p833
sg8
F83.107
sg9
F0.668
sg10
S'raggae'
p834
sg12
F0.0755
sg13
VBob Marley & The Wailers
p835
sg15
I9999
sg16
F0.733
sg17
Nsg18
F2.6e-06
sg19
Nsg20
Nsg21
F0.766
sg22
Nsg23
Nsg24
F-5.29
ssg25
I01
sba(iSong
Song
p836
(dp837
g3
(dp838
g5
F0.0484
sg6
VAlways Be Around
p839
sg8
F135.052
sg9
F0.714
sg10
S'raggae'
p840
sg12
F0.0457
sg13
VJesse Royal
p841
sg15
I9999
sg16
F0.733
sg17
Nsg18
I0
sg19
Nsg20
Nsg21
F0.738
sg22
Nsg23
Nsg24
F-6.76
ssg25
I01
sba(iSong
Song
p842
(dp843
g3
(dp844
g5
F0.0208
sg6
VWelcome To Jamrock
p845
sg8
F76.723
sg9
F0.661
sg10
S'raggae'
p846
sg12
F0.333
sg13
VDamian Marley
p847
sg15
I9999
sg16
F0.835
sg17
Nsg18
I0
sg19
Nsg20
Nsg21
F0.753
sg22
Nsg23
Nsg24
F-6.502
ssg25
I01
sba(iSong
Song
p848
(dp849
g3
(dp850
g5
F0.158
sg6
V54-46 Was My Number
p851
sg8
F160.798
sg9
F0.373
sg10
S'raggae'
p852
sg12
F0.137
sg13
VThe Maytals
p853
sg15
I9999
sg16
F0.68
sg17
Nsg18
F1.47e-05
sg19
Nsg20
Nsg21
F0.677
sg22
Nsg23
Nsg24
F-7.26
ssg25
I01
sba(iSong
Song
p854
(dp855
g3
(dp856
g5
F0.114
sg6
VHey Baby
p857
sg8
F184.909
sg9
F0.604
sg10
S'raggae'
p858
sg12
F0.294
sg13
VStephen Marley
p859
sg15
I9999
sg16
F0.629
sg17
Nsg18
F3.98e-06
sg19
Nsg20
Nsg21
F0.627
sg22
Nsg23
Nsg24
F-5.639
ssg25
I01
sba(iSong
Song
p860
(dp861
g3
(dp862
g5
F0.0124
sg6
VSweat (A La La La La Long)
p863
sg8
F173.025
sg9
F0.727
sg10
S'raggae'
p864
sg12
F0.224
sg13
VInner Circle
p865
sg15
I9999
sg16
F0.787
sg17
Nsg18
I0
sg19
Nsg20
Nsg21
F0.936
sg22
Nsg23
Nsg24
F-7.705
ssg25
I01
sba(iSong
Song
p866
(dp867
g3
(dp868
g5
F0.025
sg6
VWaiting In Vain
p869
sg8
F78.837
sg9
F0.453
sg10
S'raggae'
p870
sg12
F0.31
sg13
VBob Marley & The Wailers
p871
sg15
I9999
sg16
F0.838
sg17
Nsg18
F2.42e-05
sg19
Nsg20
Nsg21
F0.815
sg22
Nsg23
Nsg24
F-11.536
ssg25
I01
sba(iSong
Song
p872
(dp873
g3
(dp874
g5
F0.35
sg6
VSuperior
p875
sg8
F152.348
sg9
F0.756
sg10
S'raggae'
p876
sg12
F0.112
sg13
VGentleman
p877
sg15
I9999
sg16
F0.67
sg17
Nsg18
I0
sg19
Nsg20
Nsg21
F0.972
sg22
Nsg23
Nsg24
F-5.561
ssg25
I01
sba(iSong
Song
p878
(dp879
g3
(dp880
g5
F0.02
sg6
VI Wish You Were Here
p881
sg8
F143.994
sg9
F0.566
sg10
S'raggae'
p882
sg12
F0.0695
sg13
VAlpha Blondy
p883
sg15
I9999
sg16
F0.796
sg17
Nsg18
F0.0181
sg19
Nsg20
Nsg21
F0.58
sg22
Nsg23
Nsg24
F-7.857
ssg25
I01
sba(iSong
Song
p884
(dp885
g3
(dp886
g5
F0.00356
sg6
VBetter Must Come
p887
sg8
F73.489
sg9
F0.589
sg10
S'raggae'
p888
sg12
F0.104
sg13
VDelroy Wilson
p889
sg15
I9999
sg16
F0.672
sg17
Nsg18
F8.11e-05
sg19
Nsg20
Nsg21
F0.928
sg22
Nsg23
Nsg24
F-7.011
ssg25
I01
sba(iSong
Song
p890
(dp891
g3
(dp892
g5
F0.458
sg6
VTake Me Home Country Roads
p893
sg8
F176.615
sg9
F0.425
sg10
S'raggae'
p894
sg12
F0.0617
sg13
VToots & The Maytals
p895
sg15
I9999
sg16
F0.613
sg17
Nsg18
F9.37e-05
sg19
Nsg20
Nsg21
F0.959
sg22
Nsg23
Nsg24
F-12.384
ssg25
I01
sba(iSong
Song
p896
(dp897
g3
(dp898
g5
F0.137
sg6
VBuffalo Soldier
p899
sg8
F124.122
sg9
F0.462
sg10
S'raggae'
p900
sg12
F0.284
sg13
VBob Marley & The Wailers
p901
sg15
I9999
sg16
F0.932
sg17
Nsg18
F7.91e-06
sg19
Nsg20
Nsg21
F0.749
sg22
Nsg23
Nsg24
F-8.664
ssg25
I01
sba(iSong
Song
p902
(dp903
g3
(dp904
g5
F0.157
sg6
VStart It Up
p905
sg8
F180.146
sg9
F0.798
sg10
S'raggae'
p906
sg12
F0.0648
sg13
VZiggy Marley
p907
sg15
I9999
sg16
F0.659
sg17
Nsg18
I0
sg19
Nsg20
Nsg21
F0.929
sg22
Nsg23
Nsg24
F-2.953
ssg25
I01
sba(iSong
Song
p908
(dp909
g3
(dp910
g5
F0.229
sg6
VAll Of Me
p911
sg8
F131.036
sg9
F0.696
sg10
S'raggae'
p912
sg12
F0.0642
sg13
VJah Cure
p913
sg15
I9999
sg16
F0.609
sg17
Nsg18
I0
sg19
Nsg20
Nsg21
F0.425
sg22
Nsg23
Nsg24
F-4.201
ssg25
I01
sba(iSong
Song
p914
(dp915
g3
(dp916
g5
F0.106
sg6
VRoad To Zion
p917
sg8
F93.322
sg9
F0.698
sg10
S'raggae'
p918
sg12
F0.221
sg13
VDamian Marley
p919
sg15
I9999
sg16
F0.662
sg17
Nsg18
I0
sg19
Nsg20
Nsg21
F0.441
sg22
Nsg23
Nsg24
F-6.337
ssg25
I01
sba(iSong
Song
p920
(dp921
g3
(dp922
g5
F0.253
sg6
VNot Because
p923
sg8
F140.284
sg9
F0.722
sg10
S'raggae'
p924
sg12
F0.197
sg13
VRorystonelove
p925
sg15
I9999
sg16
F0.51
sg17
Nsg18
I0
sg19
Nsg20
Nsg21
F0.719
sg22
Nsg23
Nsg24
F-4.601
ssg25
I01
sba(iSong
Song
p926
(dp927
g3
(dp928
g5
F0.0674
sg6
VThat Day Will Come
p929
sg8
F153.37
sg9
F0.839
sg10
S'raggae'
p930
sg12
F0.114
sg13
VCapleton
p931
sg15
I9999
sg16
F0.672
sg17
Nsg18
I0
sg19
Nsg20
Nsg21
F0.917
sg22
Nsg23
Nsg24
F-5.034
ssg25
I01
sba(iSong
Song
p932
(dp933
g3
(dp934
g5
F0.0621
sg6
VFly Rasta
p935
sg8
F112.957
sg9
F0.694
sg10
S'raggae'
p936
sg12
F0.156
sg13
VZiggy Marley
p937
sg15
I9999
sg16
F0.816
sg17
Nsg18
I0
sg19
Nsg20
Nsg21
F0.822
sg22
Nsg23
Nsg24
F-5.94
ssg25
I01
sba(iSong
Song
p938
(dp939
g3
(dp940
g5
F0.0585
sg6
VThe International Herb
p941
sg8
F127.686
sg9
F0.433
sg10
S'raggae'
p942
sg12
F0.337
sg13
VCulture
p943
sg15
I9999
sg16
F0.825
sg17
Nsg18
I0
sg19
Nsg20
Nsg21
F0.687
sg22
Nsg23
Nsg24
F-13.085
ssg25
I01
sba(iSong
Song
p944
(dp945
g3
(dp946
g5
F0.0876
sg6
VKing Without a Crown - Live
p947
sg8
F94.161
sg9
F0.771
sg10
S'raggae'
p948
sg12
F0.0609
sg13
VMatisyahu
p949
sg15
I9999
sg16
F0.604
sg17
Nsg18
I0
sg19
Nsg20
Nsg21
F0.7
sg22
Nsg23
Nsg24
F-6.591
ssg25
I01
sba(iSong
Song
p950
(dp951
g3
(dp952
g5
F0.121
sg6
VMount Zion Medley (ft. Capleton, Jah Cure, LMS, Ras Shiloh, Bushman)
p953
sg8
F137.722
sg9
F0.467
sg10
S'raggae'
p954
sg12
F0.295
sg13
VMorgan Heritage
p955
sg15
I9999
sg16
F0.622
sg17
Nsg18
I0
sg19
Nsg20
Nsg21
F0.778
sg22
Nsg23
Nsg24
F-11.454
ssg25
I01
sba(iSong
Song
p956
(dp957
g3
(dp958
g5
F0.0143
sg6
VBush Doctor - 2002 Remastered Version
p959
sg8
F136.462
sg9
F0.569
sg10
S'raggae'
p960
sg12
F0.0544
sg13
VPeter Tosh
p961
sg15
I9999
sg16
F0.762
sg17
Nsg18
F1.45e-05
sg19
Nsg20
Nsg21
F0.789
sg22
Nsg23
Nsg24
F-7.863
ssg25
I01
sba(iSong
Song
p962
(dp963
g3
(dp964
g5
F0.0068
sg6
VKaya
p965
sg8
F97.63
sg9
F0.529
sg10
S'raggae'
p966
sg12
F0.066
sg13
VBob Marley & The Wailers
p967
sg15
I9999
sg16
F0.815
sg17
Nsg18
F1.72e-05
sg19
Nsg20
Nsg21
F0.857
sg22
Nsg23
Nsg24
F-11.37
ssg25
I01
sba(iSong
Song
p968
(dp969
g3
(dp970
g5
F0.0424
sg6
VWeekend's Long
p971
sg8
F179.067
sg9
F0.711
sg10
S'raggae'
p972
sg12
F0.0354
sg13
VZiggy Marley
p973
sg15
I9999
sg16
F0.582
sg17
Nsg18
I0
sg19
Nsg20
Nsg21
F0.867
sg22
Nsg23
Nsg24
F-3.676
ssg25
I01
sba(iSong
Song
p974
(dp975
g3
(dp976
g5
F0.0331
sg6
VPolice In Helicopter
p977
sg8
F141.185
sg9
F0.652
sg10
S'raggae'
p978
sg12
F0.111
sg13
VJohn Holt
p979
sg15
I9999
sg16
F0.686
sg17
Nsg18
F8.34e-06
sg19
Nsg20
Nsg21
F0.503
sg22
Nsg23
Nsg24
F-7.586
ssg25
I01
sba(iSong
Song
p980
(dp981
g3
(dp982
g5
F0.107
sg6
VCocody Rock
p983
sg8
F147.374
sg9
F0.669
sg10
S'raggae'
p984
sg12
F0.0911
sg13
VThe Wailers
p985
sg15
I9999
sg16
F0.796
sg17
Nsg18
F0.000113
sg19
Nsg20
Nsg21
F0.96
sg22
Nsg23
Nsg24
F-6.333
ssg25
I01
sba(iSong
Song
p986
(dp987
g3
(dp988
g5
F0.224
sg6
VWhen mi rise it
p989
sg8
F77.769
sg9
F0.783
sg10
S'raggae'
p990
sg12
F0.215
sg13
VLutan Fyah
p991
sg15
I9999
sg16
F0.693
sg17
Nsg18
I0
sg19
Nsg20
Nsg21
F0.774
sg22
Nsg23
Nsg24
F-3.993
ssg25
I01
sba(iSong
Song
p992
(dp993
g3
(dp994
g5
F0.172
sg6
VNuthin' Wrong With The World
p995
sg8
F146.955
sg9
F0.82
sg10
S'raggae'
p996
sg12
F0.246
sg13
VJunior Kelly
p997
sg15
I9999
sg16
F0.699
sg17
Nsg18
I0
sg19
Nsg20
Nsg21
F0.931
sg22
Nsg23
Nsg24
F-4.027
ssg25
I01
sba(iSong
Song
p998
(dp999
g3
(dp1000
g5
F0.0299
sg6
VJohnny B Goode - 2002 Remastered Version
p1001
sg8
F145.169
sg9
F0.849
sg10
S'raggae'
p1002
sg12
F0.0544
sg13
VPeter Tosh
p1003
sg15
I9999
sg16
F0.749
sg17
Nsg18
F0.000168
sg19
Nsg20
Nsg21
F0.959
sg22
Nsg23
Nsg24
F-5.761
ssg25
I01
sba(iSong
Song
p1004
(dp1005
g3
(dp1006
g5
F0.0673
sg6
VOne Love / People Get Ready
p1007
sg8
F154.186
sg9
F0.516
sg10
S'raggae'
p1008
sg12
F0.366
sg13
VBob Marley & The Wailers
p1009
sg15
I9999
sg16
F0.67
sg17
Nsg18
I0
sg19
Nsg20
Nsg21
F0.939
sg22
Nsg23
Nsg24
F-9.598
ssg25
I01
sba(iSong
Song
p1010
(dp1011
g3
(dp1012
g5
F0.101
sg6
VSunshine Reggae - Original Mix '82
p1013
sg8
F167.816
sg9
F0.79
sg10
S'raggae'
p1014
sg12
F0.0432
sg13
VLaid Back
p1015
sg15
I9999
sg16
F0.704
sg17
Nsg18
F0.00657
sg19
Nsg20
Nsg21
F0.933
sg22
Nsg23
Nsg24
F-5.756
ssg25
I01
sba(iSong
Song
p1016
(dp1017
g3
(dp1018
g5
F0.0392
sg6
VWorld A Reggae Music
p1019
sg8
F83.154
sg9
F0.587
sg10
S'raggae'
p1020
sg12
F0.354
sg13
VAnthony B
p1021
sg15
I9999
sg16
F0.831
sg17
Nsg18
I0
sg19
Nsg20
Nsg21
F0.787
sg22
Nsg23
Nsg24
F-6.997
ssg25
I01
sba(iSong
Song
p1022
(dp1023
g3
(dp1024
g5
F0.497
sg6
VOne Good Spliff
p1025
sg8
F107.982
sg9
F0.464
sg10
S'raggae'
p1026
sg12
F0.142
sg13
VZiggy Marley & The Melody Makers
p1027
sg15
I9999
sg16
F0.617
sg17
Nsg18
F7.08e-06
sg19
Nsg20
Nsg21
F0.613
sg22
Nsg23
Nsg24
F-11.918
ssg25
I01
sba(iSong
Song
p1028
(dp1029
g3
(dp1030
g5
F0.177
sg6
V54-46 Was My Number
p1031
sg8
F161.134
sg9
F0.361
sg10
S'raggae'
p1032
sg12
F0.0538
sg13
VToots & The Maytals
p1033
sg15
I9999
sg16
F0.687
sg17
Nsg18
I0
sg19
Nsg20
Nsg21
F0.578
sg22
Nsg23
Nsg24
F-9.693
ssg25
I01
sba(iSong
Song
p1034
(dp1035
g3
(dp1036
g5
F0.0807
sg6
VGames People Play
p1037
sg8
F170.594
sg9
F0.892
sg10
S'raggae'
p1038
sg12
F0.17
sg13
VInner Circle
p1039
sg15
I9999
sg16
F0.73
sg17
Nsg18
I0
sg19
Nsg20
Nsg21
F0.953
sg22
Nsg23
Nsg24
F-5.298
ssg25
I01
sba(iSong
Song
p1040
(dp1041
g3
(dp1042
g5
F0.0161
sg6
VHumanity (Love the Way It Should Be)
p1043
sg8
F130.31
sg9
F0.643
sg10
S'raggae'
p1044
sg12
F0.0307
sg13
VJohn Legend
p1045
sg15
I9999
sg16
F0.46
sg17
Nsg18
F0.00675
sg19
Nsg20
Nsg21
F0.506
sg22
Nsg23
Nsg24
F-4.317
ssg25
I01
sba(iSong
Song
p1046
(dp1047
g3
(dp1048
g5
F0.116
sg6
VAngel
p1049
sg8
F170.531
sg9
F0.766
sg10
S'raggae'
p1050
sg12
F0.178
sg13
VShaggy
p1051
sg15
I9999
sg16
F0.74
sg17
Nsg18
I0
sg19
Nsg20
Nsg21
F0.807
sg22
Nsg23
Nsg24
F-2.939
ssg25
I01
sba(iSong
Song
p1052
(dp1053
g3
(dp1054
g5
F0.0283
sg6
VRefugee
p1055
sg8
F91.015
sg9
F0.836
sg10
S'raggae'
p1056
sg12
F0.0892
sg13
VSkip Marley
p1057
sg15
I9999
sg16
F0.644
sg17
Nsg18
I0
sg19
Nsg20
Nsg21
F0.825
sg22
Nsg23
Nsg24
F-4.058
ssg25
I01
sba(iSong
Song
p1058
(dp1059
g3
(dp1060
g5
F0.108
sg6
VIs This Love
p1061
sg8
F122.229
sg9
F0.559
sg10
S'raggae'
p1062
sg12
F0.088
sg13
VBob Marley & The Wailers
p1063
sg15
I9999
sg16
F0.775
sg17
Nsg18
I0
sg19
Nsg20
Nsg21
F0.804
sg22
Nsg23
Nsg24
F-8.377
ssg25
I01
sba(iSong
Song
p1064
(dp1065
g3
(dp1066
g5
F0.0291
sg6
VBlind To You - Explicit Album Version
p1067
sg8
F155.624
sg9
F0.873
sg10
S'raggae'
p1068
sg12
F0.407
sg13
VCollie Buddz
p1069
sg15
I9999
sg16
F0.624
sg17
Nsg18
I0
sg19
Nsg20
Nsg21
F0.718
sg22
Nsg23
Nsg24
F-4.355
ssg25
I01
sba(iSong
Song
p1070
(dp1071
g3
(dp1072
g5
F0.0982
sg6
VPressure Drop - Single Version
p1073
sg8
F148.854
sg9
F0.589
sg10
S'raggae'
p1074
sg12
F0.0413
sg13
VToots & The Maytals
p1075
sg15
I9999
sg16
F0.651
sg17
Nsg18
I0
sg19
Nsg20
Nsg21
F0.987
sg22
Nsg23
Nsg24
F-12.146
ssg25
I01
sba(iSong
Song
p1076
(dp1077
g3
(dp1078
g5
F0.0647
sg6
VThat Day Will Come
p1079
sg8
F153.294
sg9
F0.837
sg10
S'raggae'
p1080
sg12
F0.118
sg13
VCapleton
p1081
sg15
I9999
sg16
F0.696
sg17
Nsg18
I0
sg19
Nsg20
Nsg21
F0.916
sg22
Nsg23
Nsg24
F-5.034
ssg25
I01
sba(iSong
Song
p1082
(dp1083
g3
(dp1084
g5
F0.000119
sg6
VTake Five
p1085
sg8
F148.937
sg9
F0.461
sg10
S'raggae'
p1086
sg12
F0.135
sg13
VRico
p1087
sg15
I9999
sg16
F0.759
sg17
Nsg18
F0.000138
sg19
Nsg20
Nsg21
F0.694
sg22
Nsg23
Nsg24
F-11.901
ssg25
I01
sba(iSong
Song
p1088
(dp1089
g3
(dp1090
g5
F0.0649
sg6
VI Am That I Am
p1091
sg8
F146.032
sg9
F0.481
sg10
S'raggae'
p1092
sg12
F0.124
sg13
VPeter Tosh
p1093
sg15
I9999
sg16
F0.791
sg17
Nsg18
F1.47e-06
sg19
Nsg20
Nsg21
F0.926
sg22
Nsg23
Nsg24
F-9.39
ssg25
I01
sba(iSong
Song
p1094
(dp1095
g3
(dp1096
g5
F0.000678
sg6
VWake Up
p1097
sg8
F75.325
sg9
F0.778
sg10
S'raggae'
p1098
sg12
F0.301
sg13
VSizzla
p1099
sg15
I9999
sg16
F0.42
sg17
Nsg18
I0
sg19
Nsg20
Nsg21
F0.642
sg22
Nsg23
Nsg24
F-5.001
ssg25
I01
sba(iSong
Song
p1100
(dp1101
g3
(dp1102
g5
F0.113
sg6
VOne Drop
p1103
sg8
F121.242
sg9
F0.472
sg10
S'raggae'
p1104
sg12
F0.231
sg13
VBob Marley & The Wailers
p1105
sg15
I9999
sg16
F0.901
sg17
Nsg18
F1e-05
sg19
Nsg20
Nsg21
F0.828
sg22
Nsg23
Nsg24
F-7.365
ssg25
I01
sba(iSong
Song
p1106
(dp1107
g3
(dp1108
g5
F0.211
sg6
VBeach In Hawaii
p1109
sg8
F100.959
sg9
F0.458
sg10
S'raggae'
p1110
sg12
F0.0361
sg13
VZiggy Marley
p1111
sg15
I9999
sg16
F0.807
sg17
Nsg18
F9.01e-06
sg19
Nsg20
Nsg21
F0.874
sg22
Nsg23
Nsg24
F-9.594
ssg25
I01
sba(iSong
Song
p1112
(dp1113
g3
(dp1114
g5
F0.0615
sg6
VNatty Rebel - 1990 Digital Remaster
p1115
sg8
F83.117
sg9
F0.395
sg10
S'raggae'
p1116
sg12
F0.0721
sg13
VU-Roy
p1117
sg15
I9999
sg16
F0.813
sg17
Nsg18
F6.72e-06
sg19
Nsg20
Nsg21
F0.783
sg22
Nsg23
Nsg24
F-11.573
ssg25
I01
sba(iSong
Song
p1118
(dp1119
g3
(dp1120
g5
F0.00394
sg6
VSinsemilla
p1121
sg8
F131.38
sg9
F0.547
sg10
S'raggae'
p1122
sg12
F0.106
sg13
VBlack Uhuru
p1123
sg15
I9999
sg16
F0.842
sg17
Nsg18
F0.00314
sg19
Nsg20
Nsg21
F0.723
sg22
Nsg23
Nsg24
F-11.87
ssg25
I01
sba(iSong
Song
p1124
(dp1125
g3
(dp1126
g5
F0.0381
sg6
VKingston Town
p1127
sg8
F73.978
sg9
F0.773
sg10
S'raggae'
p1128
sg12
F0.099
sg13
VAlborosie
p1129
sg15
I9999
sg16
F0.788
sg17
Nsg18
I0
sg19
Nsg20
Nsg21
F0.584
sg22
Nsg23
Nsg24
F-5.272
ssg25
I01
sba(iSong
Song
p1130
(dp1131
g3
(dp1132
g5
F0.0334
sg6
VBlood Money
p1133
sg8
F77.993
sg9
F0.76
sg10
S'raggae'
p1134
sg12
F0.0906
sg13
VProtoje
p1135
sg15
I9999
sg16
F0.807
sg17
Nsg18
I0
sg19
Nsg20
Nsg21
F0.801
sg22
Nsg23
Nsg24
F-6.218
ssg25
I01
sba(iSong
Song
p1136
(dp1137
g3
(dp1138
g5
F0.0111
sg6
VWorld A Music
p1139
sg8
F74.083
sg9
F0.492
sg10
S'raggae'
p1140
sg12
F0.139
sg13
VIni Kamoze
p1141
sg15
I9999
sg16
F0.874
sg17
Nsg18
F0.00801
sg19
Nsg20
Nsg21
F0.357
sg22
Nsg23
Nsg24
F-7.752
ssg25
I01
sba(iSong
Song
p1142
(dp1143
g3
(dp1144
g5
F0.306
sg6
VRunning Away - Winta James Mix
p1145
sg8
F149.976
sg9
F0.584
sg10
S'raggae'
p1146
sg12
F0.0331
sg13
VAdy Suleiman
p1147
sg15
I9999
sg16
F0.669
sg17
Nsg18
F0.0325
sg19
Nsg20
Nsg21
F0.949
sg22
Nsg23
Nsg24
F-5.988
ssg25
I01
sba(iSong
Song
p1148
(dp1149
g3
(dp1150
g5
F0.435
sg6
VDreadlock Holiday
p1151
sg8
F105.013
sg9
F0.407
sg10
S'raggae'
p1152
sg12
F0.0563
sg13
V10cc
p1153
sg15
I9999
sg16
F0.837
sg17
Nsg18
F0.000487
sg19
Nsg20
Nsg21
F0.922
sg22
Nsg23
Nsg24
F-12.416
ssg25
I01
sba(iSong
Song
p1154
(dp1155
g3
(dp1156
g5
F0.454
sg6
VTenement Yard
p1157
sg8
F72.145
sg9
F0.399
sg10
S'raggae'
p1158
sg12
F0.322
sg13
VJacob Miller
p1159
sg15
I9999
sg16
F0.844
sg17
Nsg18
I0
sg19
Nsg20
Nsg21
F0.973
sg22
Nsg23
Nsg24
F-12.996
ssg25
I01
sba(iSong
Song
p1160
(dp1161
g3
(dp1162
g5
F0.118
sg6
VGirls Dem Sugar - Feat. Mya
p1163
sg8
F124.303
sg9
F0.782
sg10
S'raggae'
p1164
sg12
F0.162
sg13
VBeenie Man
p1165
sg15
I9999
sg16
F0.603
sg17
Nsg18
I0
sg19
Nsg20
Nsg21
F0.731
sg22
Nsg23
Nsg24
F-4.832
ssg25
I01
sba(iSong
Song
p1166
(dp1167
g3
(dp1168
g5
F0.313
sg6
VI Shot The Sheriff
p1169
sg8
F96.806
sg9
F0.641
sg10
S'raggae'
p1170
sg12
F0.171
sg13
VThe Wailers
p1171
sg15
I9999
sg16
F0.799
sg17
Nsg18
F2.22e-05
sg19
Nsg20
Nsg21
F0.719
sg22
Nsg23
Nsg24
F-9.33
ssg25
I01
sba(iSong
Song
p1172
(dp1173
g3
(dp1174
g5
F0.197
sg6
VSmoke Marijuana
p1175
sg8
F68.816
sg9
F0.738
sg10
S'raggae'
p1176
sg12
F0.213
sg13
VSizzla
p1177
sg15
I9999
sg16
F0.646
sg17
Nsg18
I0
sg19
Nsg20
Nsg21
F0.622
sg22
Nsg23
Nsg24
F-5.827
ssg25
I01
sba(iSong
Song
p1178
(dp1179
g3
(dp1180
g5
F0.056
sg6
VThat Girl - feat. Shaggy
p1181
sg8
F138.654
sg9
F0.698
sg10
S'raggae'
p1182
sg12
F0.119
sg13
VMaxi Priest
p1183
sg15
I9999
sg16
F0.667
sg17
Nsg18
I0
sg19
Nsg20
Nsg21
F0.662
sg22
Nsg23
Nsg24
F-7.35
ssg25
I01
sba(iSong
Song
p1184
(dp1185
g3
(dp1186
g5
F0.00414
sg6
VRed Red Wine - Edit
p1187
sg8
F89.119
sg9
F0.468
sg10
S'raggae'
p1188
sg12
F0.0476
sg13
VUB40
p1189
sg15
I9999
sg16
F0.857
sg17
Nsg18
F1.32e-05
sg19
Nsg20
Nsg21
F0.843
sg22
Nsg23
Nsg24
F-8.53
ssg25
I01
sba(iSong
Song
p1190
(dp1191
g3
(dp1192
g5
F0.632
sg6
VThe Harder They Come
p1193
sg8
F102.588
sg9
F0.575
sg10
S'raggae'
p1194
sg12
F0.0717
sg13
VJimmy Cliff
p1195
sg15
I9999
sg16
F0.679
sg17
Nsg18
I0
sg19
Nsg20
Nsg21
F0.79
sg22
Nsg23
Nsg24
F-8.037
ssg25
I01
sba(iSong
Song
p1196
(dp1197
g3
(dp1198
g5
F0.122
sg6
VLiving In Love
p1199
sg8
F78.524
sg9
F0.827
sg10
S'raggae'
p1200
sg12
F0.242
sg13
VI Wayne
p1201
sg15
I9999
sg16
F0.608
sg17
Nsg18
I0
sg19
Nsg20
Nsg21
F0.964
sg22
Nsg23
Nsg24
F-4.848
ssg25
I01
sba(iSong
Song
p1202
(dp1203
g3
(dp1204
g5
F0.00208
sg6
VIt Don't Make Any Difference To Me (feat. Wyclef Jean) - Supa Dupes Remix
p1205
sg8
F88.504
sg9
F0.664
sg10
S'raggae'
p1206
sg12
F0.0388
sg13
VKevin Michael
p1207
sg15
I9999
sg16
F0.726
sg17
Nsg18
I0
sg19
Nsg20
Nsg21
F0.387
sg22
Nsg23
Nsg24
F-6.641
ssg25
I01
sba(iSong
Song
p1208
(dp1209
g3
(dp1210
g5
F0.198
sg6
VOne Day - New Album Version
p1211
sg8
F68.552
sg9
F0.61
sg10
S'raggae'
p1212
sg12
F0.15
sg13
VMatisyahu
p1213
sg15
I9999
sg16
F0.346
sg17
Nsg18
I0
sg19
Nsg20
Nsg21
F0.235
sg22
Nsg23
Nsg24
F-5.818
ssg25
I01
sba(iSong
Song
p1214
(dp1215
g3
(dp1216
g5
F0.107
sg6
VJamming
p1217
sg8
F123.644
sg9
F0.479
sg10
S'raggae'
p1218
sg12
F0.306
sg13
VBob Marley & The Wailers
p1219
sg15
I9999
sg16
F0.935
sg17
Nsg18
F5.25e-05
sg19
Nsg20
Nsg21
F0.773
sg22
Nsg23
Nsg24
F-10.981
ssg25
I01
sba(iSong
Song
p1220
(dp1221
g3
(dp1222
g5
F0.323
sg6
VIn My Arms
p1223
sg8
F75.983
sg9
F0.872
sg10
S'raggae'
p1224
sg12
F0.127
sg13
VBeres Hammond
p1225
sg15
I9999
sg16
F0.682
sg17
Nsg18
I0
sg19
Nsg20
Nsg21
F0.849
sg22
Nsg23
Nsg24
F-4.363
ssg25
I01
sba(iSong
Song
p1226
(dp1227
g3
(dp1228
g5
F0.0887
sg6
VCool Down The Pace
p1229
sg8
F76.37
sg9
F0.266
sg10
S'raggae'
p1230
sg12
F0.264
sg13
VGregory Isaacs
p1231
sg15
I9999
sg16
F0.87
sg17
Nsg18
F0.0217
sg19
Nsg20
Nsg21
F0.929
sg22
Nsg23
Nsg24
F-15.559
ssg25
I01
sba(iSong
Song
p1232
(dp1233
g3
(dp1234
g5
F0.00626
sg6
VYou Don't Love Me (No, No, No)
p1235
sg8
F84.003
sg9
F0.64
sg10
S'raggae'
p1236
sg12
F0.0728
sg13
VRihanna
p1237
sg15
I9999
sg16
F0.688
sg17
Nsg18
F2.72e-06
sg19
Nsg20
Nsg21
F0.63
sg22
Nsg23
Nsg24
F-7.044
ssg25
I01
sba(iSong
Song
p1238
(dp1239
g3
(dp1240
g5
F0.00788
sg6
VIt's A Pity
p1241
sg8
F139.619
sg9
F0.811
sg10
S'raggae'
p1242
sg12
F0.332
sg13
VTanya Stephens
p1243
sg15
I9999
sg16
F0.66
sg17
Nsg18
I0
sg19
Nsg20
Nsg21
F0.821
sg22
Nsg23
Nsg24
F-5.448
ssg25
I01
sba(iSong
Song
p1244
(dp1245
g3
(dp1246
g5
F0.00834
sg6
VShe's Royal
p1247
sg8
F78.097
sg9
F0.459
sg10
S'raggae'
p1248
sg12
F0.109
sg13
VTarrus Riley
p1249
sg15
I9999
sg16
F0.758
sg17
Nsg18
I0
sg19
Nsg20
Nsg21
F0.828
sg22
Nsg23
Nsg24
F-5.947
ssg25
I01
sba(iSong
Song
p1250
(dp1251
g3
(dp1252
g5
F0.381
sg6
VWanted Dread and Alive - 2002 Remastered Version
p1253
sg8
F96.161
sg9
F0.731
sg10
S'raggae'
p1254
sg12
F0.0529
sg13
VPeter Tosh
p1255
sg15
I9999
sg16
F0.795
sg17
Nsg18
F0.00163
sg19
Nsg20
Nsg21
F0.884
sg22
Nsg23
Nsg24
F-6.056
ssg25
I01
sba(iSong
Song
p1256
(dp1257
g3
(dp1258
g5
F0.0176
sg6
VSinsemilla
p1259
sg8
F131.225
sg9
F0.565
sg10
S'raggae'
p1260
sg12
F0.0969
sg13
VBlack Uhuru
p1261
sg15
I9999
sg16
F0.85
sg17
Nsg18
F0.0217
sg19
Nsg20
Nsg21
F0.709
sg22
Nsg23
Nsg24
F-10.891
ssg25
I01
sba(iSong
Song
p1262
(dp1263
g3
(dp1264
g5
F0.0528
sg6
VBaby, I Love Your Way
p1265
sg8
F147.518
sg9
F0.747
sg10
S'raggae'
p1266
sg12
F0.0699
sg13
VBig Mountain
p1267
sg15
I9999
sg16
F0.651
sg17
Nsg18
I0
sg19
Nsg20
Nsg21
F0.776
sg22
Nsg23
Nsg24
F-7.269
ssg25
I01
sba(iSong
Song
p1268
(dp1269
g3
(dp1270
g5
F0.0276
sg6
VDash Wata
p1271
sg8
F77.031
sg9
F0.566
sg10
S'raggae'
p1272
sg12
F0.146
sg13
VRaging Fyah
p1273
sg15
I9999
sg16
F0.844
sg17
Nsg18
F2.65e-06
sg19
Nsg20
Nsg21
F0.82
sg22
Nsg23
Nsg24
F-5.56
ssg25
I01
sba(iSong
Song
p1274
(dp1275
g3
(dp1276
g5
F0.0673
sg6
VEverything Nice
p1277
sg8
F99.124
sg9
F0.603
sg10
S'raggae'
p1278
sg12
F0.198
sg13
VPopcaan
p1279
sg15
I9999
sg16
F0.461
sg17
Nsg18
I0
sg19
Nsg20
Nsg21
F0.185
sg22
Nsg23
Nsg24
F-8.616
ssg25
I01
sba(iSong
Song
p1280
(dp1281
g3
(dp1282
g5
F0.0986
sg6
VThat Day Will Come
p1283
sg8
F153.37
sg9
F0.802
sg10
S'raggae'
p1284
sg12
F0.114
sg13
VCapleton
p1285
sg15
I9999
sg16
F0.687
sg17
Nsg18
I0
sg19
Nsg20
Nsg21
F0.908
sg22
Nsg23
Nsg24
F-6.005
ssg25
I01
sba(iSong
Song
p1286
(dp1287
g3
(dp1288
g5
F0.168
sg6
VBrown Skin
p1289
sg8
F80.018
sg9
F0.601
sg10
S'raggae'
p1290
sg12
F0.256
sg13
VRichie Spice
p1291
sg15
I9999
sg16
F0.765
sg17
Nsg18
F0.00976
sg19
Nsg20
Nsg21
F0.773
sg22
Nsg23
Nsg24
F-7.399
ssg25
I01
sba(iSong
Song
p1292
(dp1293
g3
(dp1294
g5
F0.112
sg6
VThey Gonna Talk
p1295
sg8
F155.361
sg9
F0.63
sg10
S'raggae'
p1296
sg12
F0.124
sg13
VBeres Hammond
p1297
sg15
I9999
sg16
F0.687
sg17
Nsg18
I0
sg19
Nsg20
Nsg21
F0.864
sg22
Nsg23
Nsg24
F-6.831
ssg25
I01
sba(iSong
Song
p1298
(dp1299
g3
(dp1300
g5
F0.00224
sg6
VWorld A Reggae (Out In The Street They Call It Murder)
p1301
sg8
F78.594
sg9
F0.5
sg10
S'raggae'
p1302
sg12
F0.063
sg13
VIni Kamoze
p1303
sg15
I9999
sg16
F0.867
sg17
Nsg18
I0
sg19
Nsg20
Nsg21
F0.801
sg22
Nsg23
Nsg24
F-6.422
ssg25
I01
sba(iSong
Song
p1304
(dp1305
g3
(dp1306
g5
F0.0194
sg6
VWelcome To Jamrock
p1307
sg8
F76.638
sg9
F0.666
sg10
S'raggae'
p1308
sg12
F0.335
sg13
VDamian Marley
p1309
sg15
I9999
sg16
F0.801
sg17
Nsg18
I0
sg19
Nsg20
Nsg21
F0.759
sg22
Nsg23
Nsg24
F-6.558
ssg25
I01
sba(iSong
Song
p1310
(dp1311
g3
(dp1312
g5
F0.149
sg6
VLikes
p1313
sg8
F92.008
sg9
F0.766
sg10
S'raggae'
p1314
sg12
F0.126
sg13
VChronixx
p1315
sg15
I9999
sg16
F0.771
sg17
Nsg18
I0
sg19
Nsg20
Nsg21
F0.921
sg22
Nsg23
Nsg24
F-5.79
ssg25
I01
sba(iSong
Song
p1316
(dp1317
g3
(dp1318
g5
F0.0144
sg6
VHeaven In Her Eyes
p1319
sg8
F85.012
sg9
F0.484
sg10
S'raggae'
p1320
sg12
F0.0509
sg13
VGappy Ranks
p1321
sg15
I9999
sg16
F0.881
sg17
Nsg18
F0.000611
sg19
Nsg20
Nsg21
F0.67
sg22
Nsg23
Nsg24
F-6.268
ssg25
I01
sba(iSong
Song
p1322
(dp1323
g3
(dp1324
g5
F0.0733
sg6
VGhetto Paradise
p1325
sg8
F175.901
sg9
F0.687
sg10
S'raggae'
p1326
sg12
F0.222
sg13
VChronixx
p1327
sg15
I9999
sg16
F0.69
sg17
Nsg18
I0
sg19
Nsg20
Nsg21
F0.508
sg22
Nsg23
Nsg24
F-5.927
ssg25
I01
sba(iSong
Song
p1328
(dp1329
g3
(dp1330
g5
F0.0262
sg6
VYouth Dem Cold
p1331
sg8
F82.571
sg9
F0.719
sg10
S'raggae'
p1332
sg12
F0.344
sg13
VRichie Spice
p1333
sg15
I9999
sg16
F0.624
sg17
Nsg18
I0
sg19
Nsg20
Nsg21
F0.781
sg22
Nsg23
Nsg24
F-6.034
ssg25
I01
sba(iSong
Song
p1334
(dp1335
g3
(dp1336
g5
F0.121
sg6
VMount Zion Medley (ft. Capleton, Jah Cure, LMS, Ras Shiloh, Bushman)
p1337
sg8
F137.722
sg9
F0.467
sg10
S'raggae'
p1338
sg12
F0.295
sg13
VMorgan Heritage
p1339
sg15
I9999
sg16
F0.622
sg17
Nsg18
I0
sg19
Nsg20
Nsg21
F0.778
sg22
Nsg23
Nsg24
F-11.454
ssg25
I01
sba(iSong
Song
p1340
(dp1341
g3
(dp1342
g5
F0.0102
sg6
VThree Little Birds
p1343
sg8
F148.491
sg9
F0.487
sg10
S'raggae'
p1344
sg12
F0.0758
sg13
VBob Marley & The Wailers
p1345
sg15
I9999
sg16
F0.807
sg17
Nsg18
F1.98e-06
sg19
Nsg20
Nsg21
F0.651
sg22
Nsg23
Nsg24
F-10.456
ssg25
I01
sba(iSong
Song
p1346
(dp1347
g3
(dp1348
g5
F0.29
sg6
VLonging For
p1349
sg8
F167.935
sg9
F0.541
sg10
S'raggae'
p1350
sg12
F0.293
sg13
VJah Cure
p1351
sg15
I9999
sg16
F0.67
sg17
Nsg18
F3.11e-06
sg19
Nsg20
Nsg21
F0.488
sg22
Nsg23
Nsg24
F-7.415
ssg25
I01
sba(iSong
Song
p1352
(dp1353
g3
(dp1354
g5
F0.145
sg6
VHail H.I.M.
p1355
sg8
F137.857
sg9
F0.649
sg10
S'raggae'
p1356
sg12
F0.0578
sg13
VBurning Spear
p1357
sg15
I9999
sg16
F0.781
sg17
Nsg18
F0.177
sg19
Nsg20
Nsg21
F0.689
sg22
Nsg23
Nsg24
F-7.831
ssg25
I01
sba(iSong
Song
p1358
(dp1359
g3
(dp1360
g5
F0.0139
sg6
VAmsterdam
p1361
sg8
F165.043
sg9
F0.41
sg10
S'raggae'
p1362
sg12
F0.0758
sg13
VMungo's Hi Fi
p1363
sg15
I9999
sg16
F0.858
sg17
Nsg18
I0
sg19
Nsg20
Nsg21
F0.723
sg22
Nsg23
Nsg24
F-9.854
ssg25
I01
sba(iSong
Song
p1364
(dp1365
g3
(dp1366
g5
F0.0737
sg6
VSmile Jamaica - Remastered
p1367
sg8
F147.971
sg9
F0.656
sg10
S'raggae'
p1368
sg12
F0.134
sg13
VChronixx
p1369
sg15
I9999
sg16
F0.762
sg17
Nsg18
I0
sg19
Nsg20
Nsg21
F0.94
sg22
Nsg23
Nsg24
F-6.51
ssg25
I01
sba(iSong
Song
p1370
(dp1371
g3
(dp1372
g5
F0.308
sg6
VNo Money
p1373
sg8
F81.99
sg9
F0.69
sg10
S'raggae'
p1374
sg12
F0.259
sg13
VRomain Virgo
p1375
sg15
I9999
sg16
F0.753
sg17
Nsg18
I0
sg19
Nsg20
Nsg21
F0.916
sg22
Nsg23
Nsg24
F-2.947
ssg25
I01
sba(iSong
Song
p1376
(dp1377
g3
(dp1378
g5
F0.00681
sg6
VLove And Affection
p1379
sg8
F86.352
sg9
F0.686
sg10
S'raggae'
p1380
sg12
F0.174
sg13
VPressure
p1381
sg15
I9999
sg16
F0.664
sg17
Nsg18
I0
sg19
Nsg20
Nsg21
F0.529
sg22
Nsg23
Nsg24
F-6.173
ssg25
I01
sba(iSong
Song
p1382
(dp1383
g3
(dp1384
g5
F0.00665
sg6
VSolid As A Rock
p1385
sg8
F144.349
sg9
F0.681
sg10
S'raggae'
p1386
sg12
F0.197
sg13
VSizzla
p1387
sg15
I9999
sg16
F0.721
sg17
Nsg18
I0
sg19
Nsg20
Nsg21
F0.495
sg22
Nsg23
Nsg24
F-6.265
ssg25
I01
sba(iSong
Song
p1388
(dp1389
g3
(dp1390
g5
F0.0772
sg6
VCan't Stop Now
p1391
sg8
F81.549
sg9
F0.604
sg10
S'raggae'
p1392
sg12
F0.141
sg13
VMajor Lazer
p1393
sg15
I9999
sg16
F0.717
sg17
Nsg18
F0.000243
sg19
Nsg20
Nsg21
F0.585
sg22
Nsg23
Nsg24
F-6.194
ssg25
I01
sba(iSong
Song
p1394
(dp1395
g3
(dp1396
g5
F0.0597
sg6
VWhere Were U
p1397
sg8
F101.646
sg9
F0.643
sg10
S'raggae'
p1398
sg12
F0.0909
sg13
Vjahmiel
p1399
sg15
I9999
sg16
F0.574
sg17
Nsg18
I0
sg19
Nsg20
Nsg21
F0.651
sg22
Nsg23
Nsg24
F-6.849
ssg25
I01
sba(iSong
Song
p1400
(dp1401
g3
(dp1402
g5
F0.00281
sg6
VMissing You
p1403
sg8
F166.819
sg9
F0.223
sg10
S'raggae'
p1404
sg12
F0.266
sg13
VSanchez
p1405
sg15
I9999
sg16
F0.786
sg17
Nsg18
F6.03e-06
sg19
Nsg20
Nsg21
F0.84
sg22
Nsg23
Nsg24
F-12.844
ssg25
I01
sba(iSong
Song
p1406
(dp1407
g3
(dp1408
g5
F0.0379
sg6
VJust One Of Those Days
p1409
sg8
F148.017
sg9
F0.604
sg10
S'raggae'
p1410
sg12
F0.165
sg13
VSizzla
p1411
sg15
I9999
sg16
F0.704
sg17
Nsg18
I0
sg19
Nsg20
Nsg21
F0.522
sg22
Nsg23
Nsg24
F-5.78
ssg25
I01
sba(iSong
Song
p1412
(dp1413
g3
(dp1414
g5
F0.0381
sg6
VKingston Town
p1415
sg8
F73.978
sg9
F0.773
sg10
S'raggae'
p1416
sg12
F0.099
sg13
VAlborosie
p1417
sg15
I9999
sg16
F0.788
sg17
Nsg18
I0
sg19
Nsg20
Nsg21
F0.584
sg22
Nsg23
Nsg24
F-5.272
ssg25
I01
sba(iSong
Song
p1418
(dp1419
g3
(dp1420
g5
F0.0134
sg6
VCarnival Horns
p1421
sg8
F85.073
sg9
F0.788
sg10
S'raggae'
p1422
sg12
F0.0654
sg13
VMista Savona
p1423
sg15
I9999
sg16
F0.692
sg17
Nsg18
F0.856
sg19
Nsg20
Nsg21
F0.806
sg22
Nsg23
Nsg24
F-6.459
ssg25
I01
sba(iSong
Song
p1424
(dp1425
g3
(dp1426
g5
F0.00168
sg6
VNobody Has To Know
p1427
sg8
F84.983
sg9
F0.682
sg10
S'raggae'
p1428
sg12
F0.173
sg13
VKranium
p1429
sg15
I9999
sg16
F0.792
sg17
Nsg18
I0
sg19
Nsg20
Nsg21
F0.666
sg22
Nsg23
Nsg24
F-4.96
ssg25
I01
sba(iSong
Song
p1430
(dp1431
g3
(dp1432
g5
F0.292
sg6
VReal Love
p1433
sg8
F74.742
sg9
F0.588
sg10
S'raggae'
p1434
sg12
F0.0775
sg13
VJesse Royal
p1435
sg15
I9999
sg16
F0.543
sg17
Nsg18
F1.92e-05
sg19
Nsg20
Nsg21
F0.211
sg22
Nsg23
Nsg24
F-4.366
ssg25
I01
sba(iSong
Song
p1436
(dp1437
g3
(dp1438
g5
F0.0608
sg6
VLiving It Up
p1439
sg8
F97.004
sg9
F0.676
sg10
S'raggae'
p1440
sg12
F0.172
sg13
VDamian Marley
p1441
sg15
I9999
sg16
F0.714
sg17
Nsg18
I0
sg19
Nsg20
Nsg21
F0.799
sg22
Nsg23
Nsg24
F-6.71
ssg25
I01
sba(iSong
Song
p1442
(dp1443
g3
(dp1444
g5
F0.102
sg6
VI'm Still In Love With You (feat. Sasha)
p1445
sg8
F87.002
sg9
F0.666
sg10
S'raggae'
p1446
sg12
F0.172
sg13
VSean Paul
p1447
sg15
I9999
sg16
F0.765
sg17
Nsg18
I0
sg19
Nsg20
Nsg21
F0.756
sg22
Nsg23
Nsg24
F-5.384
ssg25
I01
sba(iSong
Song
p1448
(dp1449
g3
(dp1450
g5
F0.526
sg6
VNuh Compatible
p1451
sg8
F173.754
sg9
F0.686
sg10
S'raggae'
p1452
sg12
F0.255
sg13
VBugle
p1453
sg15
I9999
sg16
F0.455
sg17
Nsg18
I0
sg19
Nsg20
Nsg21
F0.623
sg22
Nsg23
Nsg24
F-4.527
ssg25
I01
sba(iSong
Song
p1454
(dp1455
g3
(dp1456
g5
F0.0337
sg6
VCool Runnings
p1457
sg8
F73.241
sg9
F0.564
sg10
S'raggae'
p1458
sg12
F0.181
sg13
VDuane Stephenson
p1459
sg15
I9999
sg16
F0.852
sg17
Nsg18
I0
sg19
Nsg20
Nsg21
F0.766
sg22
Nsg23
Nsg24
F-6.409
ssg25
I01
sba(iSong
Song
p1460
(dp1461
g3
(dp1462
g5
F0.0059
sg6
VLoving You In Dub
p1463
sg8
F167.031
sg9
F0.733
sg10
S'raggae'
p1464
sg12
F0.0809
sg13
VEtana
p1465
sg15
I9999
sg16
F0.664
sg17
Nsg18
F0.00482
sg19
Nsg20
Nsg21
F0.851
sg22
Nsg23
Nsg24
F-6.268
ssg25
I01
sba(iSong
Song
p1466
(dp1467
g3
(dp1468
g5
F0.367
sg6
VThe Rain
p1469
sg8
F164.016
sg9
F0.552
sg10
S'raggae'
p1470
sg12
F0.276
sg13
VGappy Ranks
p1471
sg15
I9999
sg16
F0.691
sg17
Nsg18
I0
sg19
Nsg20
Nsg21
F0.841
sg22
Nsg23
Nsg24
F-7.275
ssg25
I01
sba(iSong
Song
p1472
(dp1473
g3
(dp1474
g5
F0.034
sg6
VThe Voices Of Sweet Jamaica - All Star Remix
p1475
sg8
F174.052
sg9
F0.71
sg10
S'raggae'
p1476
sg12
F0.134
sg13
VShaggy
p1477
sg15
I9999
sg16
F0.669
sg17
Nsg18
I0
sg19
Nsg20
Nsg21
F0.908
sg22
Nsg23
Nsg24
F-3.644
ssg25
I01
sba(iSong
Song
p1478
(dp1479
g3
(dp1480
g5
F0.0106
sg6
VFoundation
p1481
sg8
F85.031
sg9
F0.547
sg10
S'raggae'
p1482
sg12
F0.0534
sg13
VToddla T
p1483
sg15
I9999
sg16
F0.442
sg17
Nsg18
F0.887
sg19
Nsg20
Nsg21
F0.34
sg22
Nsg23
Nsg24
F-8.076
ssg25
I01
sba(iSong
Song
p1484
(dp1485
g3
(dp1486
g5
F0.121
sg6
VSuperstar
p1487
sg8
F150.061
sg9
F0.627
sg10
S'raggae'
p1488
sg12
F0.0362
sg13
VHollie Cook
p1489
sg15
I9999
sg16
F0.733
sg17
Nsg18
F0.0671
sg19
Nsg20
Nsg21
F0.713
sg22
Nsg23
Nsg24
F-9.835
ssg25
I01
sba(iSong
Song
p1490
(dp1491
g3
(dp1492
g5
F0.0809
sg6
VSkankin' Sweet
p1493
sg8
F77.985
sg9
F0.668
sg10
S'raggae'
p1494
sg12
F0.0802
sg13
VChronixx
p1495
sg15
I9999
sg16
F0.734
sg17
Nsg18
F1.27e-06
sg19
Nsg20
Nsg21
F0.673
sg22
Nsg23
Nsg24
F-5.481
ssg25
I01
sba(iSong
Song
p1496
(dp1497
g3
(dp1498
g5
F0.0334
sg6
VBlood Money
p1499
sg8
F77.993
sg9
F0.76
sg10
S'raggae'
p1500
sg12
F0.0906
sg13
VProtoje
p1501
sg15
I9999
sg16
F0.807
sg17
Nsg18
I0
sg19
Nsg20
Nsg21
F0.801
sg22
Nsg23
Nsg24
F-6.218
ssg25
I01
sba(iSong
Song
p1502
(dp1503
g3
(dp1504
g5
F0.805
sg6
VMy Attention
p1505
sg8
F107.026
sg9
F0.347
sg10
S'raggae'
p1506
sg12
F0.153
sg13
Vjahmiel
p1507
sg15
I9999
sg16
F0.611
sg17
Nsg18
I0
sg19
Nsg20
Nsg21
F0.454
sg22
Nsg23
Nsg24
F-9.706
ssg25
I01
sba(iSong
Song
p1508
(dp1509
g3
(dp1510
g5
F0.803
sg6
VTight in Size
p1511
sg8
F78.336
sg9
F0.411
sg10
S'raggae'
p1512
sg12
F0.196
sg13
VLaden
p1513
sg15
I9999
sg16
F0.595
sg17
Nsg18
I0
sg19
Nsg20
Nsg21
F0.589
sg22
Nsg23
Nsg24
F-9.324
ssg25
I01
sba(iSong
Song
p1514
(dp1515
g3
(dp1516
g5
F0.0722
sg6
VSticky
p1517
sg8
F164.351
sg9
F0.686
sg10
S'raggae'
p1518
sg12
F0.223
sg13
VJah Cure
p1519
sg15
I9999
sg16
F0.59
sg17
Nsg18
I0
sg19
Nsg20
Nsg21
F0.765
sg22
Nsg23
Nsg24
F-4.04
ssg25
I01
sba(iSong
Song
p1520
(dp1521
g3
(dp1522
g5
F0.318
sg6
VDeeper
p1523
sg8
F83.959
sg9
F0.585
sg10
S'raggae'
p1524
sg12
F0.143
sg13
VAlaine
p1525
sg15
I9999
sg16
F0.678
sg17
Nsg18
I0
sg19
Nsg20
Nsg21
F0.627
sg22
Nsg23
Nsg24
F-4.963
ssg25
I01
sba(iSong
Song
p1526
(dp1527
g3
(dp1528
g5
F0.457
sg6
VTell Me Now
p1529
sg8
F84.721
sg9
F0.651
sg10
S'raggae'
p1530
sg12
F0.0635
sg13
VChronixx
p1531
sg15
I9999
sg16
F0.456
sg17
Nsg18
F1.29e-05
sg19
Nsg20
Nsg21
F0.662
sg22
Nsg23
Nsg24
F-7.935
ssg25
I01
sba(iSong
Song
p1532
(dp1533
g3
(dp1534
g5
F0.0292
sg6
VWaiting In Vain
p1535
sg8
F78.789
sg9
F0.457
sg10
S'raggae'
p1536
sg12
F0.327
sg13
VBob Marley & The Wailers
p1537
sg15
I9999
sg16
F0.769
sg17
Nsg18
F3.07e-05
sg19
Nsg20
Nsg21
F0.806
sg22
Nsg23
Nsg24
F-11.501
ssg25
I01
sba(iSong
Song
p1538
(dp1539
g3
(dp1540
g5
F0.267
sg6
VBeautiful
p1541
sg8
F174.123
sg9
F0.721
sg10
S'raggae'
p1542
sg12
F0.27
sg13
VKonshens
p1543
sg15
I9999
sg16
F0.526
sg17
Nsg18
I0
sg19
Nsg20
Nsg21
F0.811
sg22
Nsg23
Nsg24
F-6.227
ssg25
I01
sba(iSong
Song
p1544
(dp1545
g3
(dp1546
g5
F0.0765
sg6
VGood Enuff - Cash Flow Dub
p1547
sg8
F80.014
sg9
F0.837
sg10
S'raggae'
p1548
sg12
F0.283
sg13
VMajor Lazer
p1549
sg15
I9999
sg16
F0.612
sg17
Nsg18
I0
sg19
Nsg20
Nsg21
F0.442
sg22
Nsg23
Nsg24
F-5.318
ssg25
I01
sba(iSong
Song
p1550
(dp1551
g3
(dp1552
g5
F0.0847
sg6
VBeautiful
p1553
sg8
F92.979
sg9
F0.873
sg10
S'raggae'
p1554
sg12
F0.112
sg13
VDamian Marley
p1555
sg15
I9999
sg16
F0.706
sg17
Nsg18
I0
sg19
Nsg20
Nsg21
F0.83
sg22
Nsg23
Nsg24
F-5.023
ssg25
I01
sba(iSong
Song
p1556
(dp1557
g3
(dp1558
g5
F0.61
sg6
VNo One Else but You - In Dub
p1559
sg8
F153.939
sg9
F0.632
sg10
S'raggae'
p1560
sg12
F0.0597
sg13
VGlen Washington
p1561
sg15
I9999
sg16
F0.506
sg17
Nsg18
F1.15e-05
sg19
Nsg20
Nsg21
F0.558
sg22
Nsg23
Nsg24
F-8.03
ssg25
I01
sba(iSong
Song
p1562
(dp1563
g3
(dp1564
g5
F0.354
sg6
VSuperior
p1565
sg8
F152.357
sg9
F0.768
sg10
S'raggae'
p1566
sg12
F0.124
sg13
VGentleman
p1567
sg15
I9999
sg16
F0.666
sg17
Nsg18
I0
sg19
Nsg20
Nsg21
F0.972
sg22
Nsg23
Nsg24
F-5.559
ssg25
I01
sba(iSong
Song
p1568
(dp1569
g3
(dp1570
g5
F0.0867
sg6
VMore Justice
p1571
sg8
F77.685
sg9
F0.7
sg10
S'raggae'
p1572
sg12
F0.278
sg13
VDamian Marley
p1573
sg15
I9999
sg16
F0.741
sg17
Nsg18
I0
sg19
Nsg20
Nsg21
F0.886
sg22
Nsg23
Nsg24
F-4.825
ssg25
I01
sba(iSong
Song
p1574
(dp1575
g3
(dp1576
g5
F0.0381
sg6
VFast Wine
p1577
sg8
F107.996
sg9
F0.892
sg10
S'raggae'
p1578
sg12
F0.0473
sg13
VMachel Montano
p1579
sg15
I9999
sg16
F0.887
sg17
Nsg18
F3.27e-05
sg19
Nsg20
Nsg21
F0.574
sg22
Nsg23
Nsg24
F-2.346
ssg25
I01
sba(iSong
Song
p1580
(dp1581
g3
(dp1582
g5
F0.07
sg6
VFreaky Girls
p1583
sg8
F87.253
sg9
F0.705
sg10
S'raggae'
p1584
sg12
F0.146
sg13
VRicky T
p1585
sg15
I9999
sg16
F0.539
sg17
Nsg18
I0
sg19
Nsg20
Nsg21
F0.64
sg22
Nsg23
Nsg24
F-9.501
ssg25
I01
sba(iSong
Song
p1586
(dp1587
g3
(dp1588
g5
F0.0656
sg6
VBuss Head
p1589
sg8
F126.005
sg9
F0.835
sg10
S'raggae'
p1590
sg12
F0.077
sg13
VMachel Montano
p1591
sg15
I9999
sg16
F0.738
sg17
Nsg18
I0
sg19
Nsg20
Nsg21
F0.648
sg22
Nsg23
Nsg24
F-5.248
ssg25
I01
sba(iSong
Song
p1592
(dp1593
g3
(dp1594
g5
F0.213
sg6
VCome From?
p1595
sg8
F97.51
sg9
F0.805
sg10
S'raggae'
p1596
sg12
F0.143
sg13
VErphaan Alves
p1597
sg15
I9999
sg16
F0.713
sg17
Nsg18
F1.08e-06
sg19
Nsg20
Nsg21
F0.814
sg22
Nsg23
Nsg24
F-6.268
ssg25
I01
sba(iSong
Song
p1598
(dp1599
g3
(dp1600
g5
F0.0538
sg6
VNeed It
p1601
sg8
F122.965
sg9
F0.781
sg10
S'raggae'
p1602
sg12
F0.0587
sg13
VMachel Montano
p1603
sg15
I9999
sg16
F0.82
sg17
Nsg18
F2.8e-06
sg19
Nsg20
Nsg21
F0.457
sg22
Nsg23
Nsg24
F-6.09
ssg25
I01
sba(iSong
Song
p1604
(dp1605
g3
(dp1606
g5
F0.0327
sg6
VBorn To Wine
p1607
sg8
F101.006
sg9
F0.906
sg10
S'raggae'
p1608
sg12
F0.0892
sg13
VShurwayne Winchester
p1609
sg15
I9999
sg16
F0.859
sg17
Nsg18
I0
sg19
Nsg20
Nsg21
F0.618
sg22
Nsg23
Nsg24
F-2.683
ssg25
I01
sba(iSong
Song
p1610
(dp1611
g3
(dp1612
g5
F0.312
sg6
VAh Feeling
p1613
sg8
F126.852
sg9
F0.73
sg10
S'raggae'
p1614
sg12
F0.245
sg13
VLead Pipe
p1615
sg15
I9999
sg16
F0.64
sg17
Nsg18
I0
sg19
Nsg20
Nsg21
F0.926
sg22
Nsg23
Nsg24
F-9.345
ssg25
I01
sba(iSong
Song
p1616
(dp1617
g3
(dp1618
g5
F0.0365
sg6
VTurn Up
p1619
sg8
F125.013
sg9
F0.834
sg10
S'raggae'
p1620
sg12
F0.0484
sg13
VPreedy
p1621
sg15
I9999
sg16
F0.831
sg17
Nsg18
I0
sg19
Nsg20
Nsg21
F0.733
sg22
Nsg23
Nsg24
F-4.72
ssg25
I01
sba(iSong
Song
p1622
(dp1623
g3
(dp1624
g5
F0.0528
sg6
VPeople
p1625
sg8
F128.026
sg9
F0.968
sg10
S'raggae'
p1626
sg12
F0.106
sg13
VKes
p1627
sg15
I9999
sg16
F0.703
sg17
Nsg18
F3.18e-06
sg19
Nsg20
Nsg21
F0.766
sg22
Nsg23
Nsg24
F-3.223
ssg25
I01
sba(iSong
Song
p1628
(dp1629
g3
(dp1630
g5
F0.00383
sg6
VDip & Ride
p1631
sg8
F105.01
sg9
F0.672
sg10
S'raggae'
p1632
sg12
F0.0719
sg13
VDestra Garcia
p1633
sg15
I9999
sg16
F0.945
sg17
Nsg18
F3.33e-05
sg19
Nsg20
Nsg21
F0.164
sg22
Nsg23
Nsg24
F-5.4
ssg25
I01
sba(iSong
Song
p1634
(dp1635
g3
(dp1636
g5
F0.161
sg6
VWhere I'm From
p1637
sg8
F128.037
sg9
F0.799
sg10
S'raggae'
p1638
sg12
F0.0486
sg13
VOlatunji
p1639
sg15
I9999
sg16
F0.75
sg17
Nsg18
I0
sg19
Nsg20
Nsg21
F0.938
sg22
Nsg23
Nsg24
F-5.805
ssg25
I01
sba(iSong
Song
p1640
(dp1641
g3
(dp1642
g5
F0.00395
sg6
VDip n' Ride
p1643
sg8
F105.008
sg9
F0.672
sg10
S'raggae'
p1644
sg12
F0.072
sg13
VDestra Garcia
p1645
sg15
I9999
sg16
F0.945
sg17
Nsg18
F3.21e-05
sg19
Nsg20
Nsg21
F0.163
sg22
Nsg23
Nsg24
F-5.401
ssg25
I01
sba(iSong
Song
p1646
(dp1647
g3
(dp1648
g5
F0.347
sg6
VFeting Victim
p1649
sg8
F130.016
sg9
F0.854
sg10
S'raggae'
p1650
sg12
F0.0545
sg13
VLyrikal
p1651
sg15
I9999
sg16
F0.753
sg17
Nsg18
I0
sg19
Nsg20
Nsg21
F0.56
sg22
Nsg23
Nsg24
F-6.13
ssg25
I01
sba(iSong
Song
p1652
(dp1653
g3
(dp1654
g5
F0.0995
sg6
VBody Talk (feat. Chris Hierro)
p1655
sg8
F130.017
sg9
F0.932
sg10
S'raggae'
p1656
sg12
F0.059
sg13
VKes
p1657
sg15
I9999
sg16
F0.754
sg17
Nsg18
F0.000419
sg19
Nsg20
Nsg21
F0.851
sg22
Nsg23
Nsg24
F-5.073
ssg25
I01
sba(iSong
Song
p1658
(dp1659
g3
(dp1660
g5
F0.161
sg6
VGo Hard
p1661
sg8
F130.107
sg9
F0.909
sg10
S'raggae'
p1662
sg12
F0.0468
sg13
VSkinny Fabulous
p1663
sg15
I9999
sg16
F0.726
sg17
Nsg18
I0
sg19
Nsg20
Nsg21
F0.894
sg22
Nsg23
Nsg24
F-3.51
ssg25
I01
sba(iSong
Song
p1664
(dp1665
g3
(dp1666
g5
F0.0213
sg6
VCalling in Sick
p1667
sg8
F127.95
sg9
F0.92
sg10
S'raggae'
p1668
sg12
F0.0952
sg13
VKing Bubba
p1669
sg15
I9999
sg16
F0.769
sg17
Nsg18
F6.87e-06
sg19
Nsg20
Nsg21
F0.796
sg22
Nsg23
Nsg24
F-6.017
ssg25
I01
sba(iSong
Song
p1670
(dp1671
g3
(dp1672
g5
F0.00497
sg6
VMoney Done (Fete Out Money)
p1673
sg8
F191.152
sg9
F0.818
sg10
S'raggae'
p1674
sg12
F0.0676
sg13
VPatrice Roberts
p1675
sg15
I9999
sg16
F0.347
sg17
Nsg18
I0
sg19
Nsg20
Nsg21
F0.756
sg22
Nsg23
Nsg24
F-7.888
ssg25
I01
sba(iSong
Song
p1676
(dp1677
g3
(dp1678
g5
F0.0243
sg6
VMagic
p1679
sg8
F204.791
sg9
F0.707
sg10
S'raggae'
p1680
sg12
F0.326
sg13
VSekon Sta
p1681
sg15
I9999
sg16
F0.542
sg17
Nsg18
F6.6e-05
sg19
Nsg20
Nsg21
F0.805
sg22
Nsg23
Nsg24
F-4.553
ssg25
I01
sba(iSong
Song
p1682
(dp1683
g3
(dp1684
g5
F0.184
sg6
VIndicator - Soca Remix
p1685
sg8
F96.358
sg9
F0.938
sg10
S'raggae'
p1686
sg12
F0.291
sg13
VSpice
p1687
sg15
I9999
sg16
F0.678
sg17
Nsg18
I0
sg19
Nsg20
Nsg21
F0.864
sg22
Nsg23
Nsg24
F-5.455
ssg25
I01
sba(iSong
Song
p1688
(dp1689
g3
(dp1690
g5
F0.0287
sg6
VMaintenance Man
p1691
sg8
F119.897
sg9
F0.845
sg10
S'raggae'
p1692
sg12
F0.353
sg13
VStiffy
p1693
sg15
I9999
sg16
F0.899
sg17
Nsg18
I0
sg19
Nsg20
Nsg21
F0.773
sg22
Nsg23
Nsg24
F-5.88
ssg25
I01
sba(iSong
Song
p1694
(dp1695
g3
(dp1696
g5
F0.0171
sg6
VBoom Boom Jump
p1697
sg8
F126.985
sg9
F0.834
sg10
S'raggae'
p1698
sg12
F0.0945
sg13
VLil Rick
p1699
sg15
I9999
sg16
F0.944
sg17
Nsg18
I0
sg19
Nsg20
Nsg21
F0.72
sg22
Nsg23
Nsg24
F-4.511
ssg25
I01
sba(iSong
Song
p1700
(dp1701
g3
(dp1702
g5
F0.22
sg6
VUnforgettable (Trinidad and Tobago Carnival Soca 2016)
p1703
sg8
F126.283
sg9
F0.94
sg10
S'raggae'
p1704
sg12
F0.143
sg13
VKerwin Du Bois
p1705
sg15
I9999
sg16
F0.57
sg17
Nsg18
I0
sg19
Nsg20
Nsg21
F0.805
sg22
Nsg23
Nsg24
F-3.582
ssg25
I01
sba(iSong
Song
p1706
(dp1707
g3
(dp1708
g5
F0.143
sg6
VCarnival Groupie
p1709
sg8
F130.012
sg9
F0.886
sg10
S'raggae'
p1710
sg12
F0.257
sg13
VMachel Montano
p1711
sg15
I9999
sg16
F0.879
sg17
Nsg18
I0
sg19
Nsg20
Nsg21
F0.85
sg22
Nsg23
Nsg24
F-4.104
ssg25
I01
sba(iSong
Song
p1712
(dp1713
g3
(dp1714
g5
F0.00746
sg6
VAll Is Rum
p1715
sg8
F127.976
sg9
F0.809
sg10
S'raggae'
p1716
sg12
F0.115
sg13
VLil Rick
p1717
sg15
I9999
sg16
F0.957
sg17
Nsg18
I0
sg19
Nsg20
Nsg21
F0.909
sg22
Nsg23
Nsg24
F-4.627
ssg25
I01
sba(iSong
Song
p1718
(dp1719
g3
(dp1720
g5
F0.0408
sg6
VDifferent Me
p1721
sg8
F127.049
sg9
F0.954
sg10
S'raggae'
p1722
sg12
F0.0704
sg13
V5 Star Akil
p1723
sg15
I9999
sg16
F0.704
sg17
Nsg18
I0
sg19
Nsg20
Nsg21
F0.903
sg22
Nsg23
Nsg24
F-2.262
ssg25
I01
sba(iSong
Song
p1724
(dp1725
g3
(dp1726
g5
F0.0641
sg6
VErupt
p1727
sg8
F159.968
sg9
F0.955
sg10
S'raggae'
p1728
sg12
F0.21
sg13
VMachel Montano
p1729
sg15
I9999
sg16
F0.735
sg17
Nsg18
I0
sg19
Nsg20
Nsg21
F0.445
sg22
Nsg23
Nsg24
F-2.351
ssg25
I01
sba(iSong
Song
p1730
(dp1731
g3
(dp1732
g5
F0.156
sg6
VPigeons & Panties
p1733
sg8
F119.853
sg9
F0.673
sg10
S'raggae'
p1734
sg12
F0.105
sg13
VGBM Nutron
p1735
sg15
I9999
sg16
F0.837
sg17
Nsg18
I0
sg19
Nsg20
Nsg21
F0.667
sg22
Nsg23
Nsg24
F-5.224
ssg25
I01
sba(iSong
Song
p1736
(dp1737
g3
(dp1738
g5
F0.03
sg6
VSeasonally
p1739
sg8
F125.013
sg9
F0.818
sg10
S'raggae'
p1740
sg12
F0.0736
sg13
VOlatunji
p1741
sg15
I9999
sg16
F0.794
sg17
Nsg18
F3.27e-05
sg19
Nsg20
Nsg21
F0.627
sg22
Nsg23
Nsg24
F-3.981
ssg25
I01
sba(iSong
Song
p1742
(dp1743
g3
(dp1744
g5
F0.0621
sg6
VDance In Paint (feat. 1st Klase)
p1745
sg8
F118.003
sg9
F0.817
sg10
S'raggae'
p1746
sg12
F0.182
sg13
VBunji Garlin
p1747
sg15
I9999
sg16
F0.875
sg17
Nsg18
F0.00158
sg19
Nsg20
Nsg21
F0.832
sg22
Nsg23
Nsg24
F-5.001
ssg25
I01
sba(iSong
Song
p1748
(dp1749
g3
(dp1750
g5
F0.0282
sg6
VBadishh
p1751
sg8
F109.983
sg9
F0.889
sg10
S'raggae'
p1752
sg12
F0.0365
sg13
VNailah Blackman
p1753
sg15
I9999
sg16
F0.682
sg17
Nsg18
F1.14e-05
sg19
Nsg20
Nsg21
F0.583
sg22
Nsg23
Nsg24
F-3.038
ssg25
I01
sba(iSong
Song
p1754
(dp1755
g3
(dp1756
g5
F0.166
sg6
VDucking
p1757
sg8
F187.068
sg9
F0.932
sg10
S'raggae'
p1758
sg12
F0.0982
sg13
VFadda Fox
p1759
sg15
I9999
sg16
F0.445
sg17
Nsg18
F0.000934
sg19
Nsg20
Nsg21
F0.925
sg22
Nsg23
Nsg24
F-5.069
ssg25
I01
sba(iSong
Song
p1760
(dp1761
g3
(dp1762
g5
F0.00275
sg6
VLike So
p1763
sg8
F127.014
sg9
F0.946
sg10
S'raggae'
p1764
sg12
F0.0612
sg13
VAngela Hunte
p1765
sg15
I9999
sg16
F0.802
sg17
Nsg18
F3.47e-06
sg19
Nsg20
Nsg21
F0.71
sg22
Nsg23
Nsg24
F-4.857
ssg25
I01
sba(iSong
Song
p1766
(dp1767
g3
(dp1768
g5
F0.659
sg6
VParty
p1769
sg8
F126.047
sg9
F0.925
sg10
S'raggae'
p1770
sg12
F0.088
sg13
VShal Marshall
p1771
sg15
I9999
sg16
F0.834
sg17
Nsg18
I0
sg19
Nsg20
Nsg21
F0.844
sg22
Nsg23
Nsg24
F-4.353
ssg25
I01
sba(iSong
Song
p1772
(dp1773
g3
(dp1774
g5
F0.027
sg6
VBam Bam Back
p1775
sg8
F136.038
sg9
F0.92
sg10
S'raggae'
p1776
sg12
F0.0908
sg13
VHypasounds
p1777
sg15
I9999
sg16
F0.538
sg17
Nsg18
F9.82e-05
sg19
Nsg20
Nsg21
F0.536
sg22
Nsg23
Nsg24
F-4.2
ssg25
I01
sba(iSong
Song
p1778
(dp1779
g3
(dp1780
g5
F0.168
sg6
VWine Yuh Body
p1781
sg8
F129.989
sg9
F0.825
sg10
S'raggae'
p1782
sg12
F0.163
sg13
VPrecision Productions
p1783
sg15
I9999
sg16
F0.782
sg17
Nsg18
I0
sg19
Nsg20
Nsg21
F0.513
sg22
Nsg23
Nsg24
F-7.296
ssg25
I01
sba(iSong
Song
p1784
(dp1785
g3
(dp1786
g5
F0.0803
sg6
VMoney Well Spent
p1787
sg8
F122.063
sg9
F0.922
sg10
S'raggae'
p1788
sg12
F0.0436
sg13
VBiggie Irie
p1789
sg15
I9999
sg16
F0.809
sg17
Nsg18
F5.08e-06
sg19
Nsg20
Nsg21
F0.597
sg22
Nsg23
Nsg24
F-4.736
ssg25
I01
sba(iSong
Song
p1790
(dp1791
g3
(dp1792
g5
F0.0833
sg6
VSick wid It
p1793
sg8
F119.983
sg9
F0.811
sg10
S'raggae'
p1794
sg12
F0.119
sg13
VSkinny Fabulous
p1795
sg15
I9999
sg16
F0.847
sg17
Nsg18
I0
sg19
Nsg20
Nsg21
F0.834
sg22
Nsg23
Nsg24
F-4.364
ssg25
I01
sba(iSong
Song
p1796
(dp1797
g3
(dp1798
g5
F0.416
sg6
VT.A.O.
p1799
sg8
F125.964
sg9
F0.937
sg10
S'raggae'
p1800
sg12
F0.211
sg13
VGBM Nutron
p1801
sg15
I9999
sg16
F0.79
sg17
Nsg18
I0
sg19
Nsg20
Nsg21
F0.872
sg22
Nsg23
Nsg24
F-3.833
ssg25
I01
sba(iSong
Song
p1802
(dp1803
g3
(dp1804
g5
F0.0108
sg6
VHow She Like It
p1805
sg8
F133.987
sg9
F0.848
sg10
S'raggae'
p1806
sg12
F0.0606
sg13
VHypasounds
p1807
sg15
I9999
sg16
F0.799
sg17
Nsg18
I0
sg19
Nsg20
Nsg21
F0.585
sg22
Nsg23
Nsg24
F-4.214
ssg25
I01
sba(iSong
Song
p1808
(dp1809
g3
(dp1810
g5
F0.105
sg6
VLike Ah Boss
p1811
sg8
F133.968
sg9
F0.944
sg10
S'raggae'
p1812
sg12
F0.175
sg13
VMachel Montano
p1813
sg15
I9999
sg16
F0.802
sg17
Nsg18
I0
sg19
Nsg20
Nsg21
F0.746
sg22
Nsg23
Nsg24
F-1.139
ssg25
I01
sba(iSong
Song
p1814
(dp1815
g3
(dp1816
g5
F0.0329
sg6
VDo Vex
p1817
sg8
F110.031
sg9
F0.847
sg10
S'raggae'
p1818
sg12
F0.106
sg13
VLinky First
p1819
sg15
I9999
sg16
F0.831
sg17
Nsg18
I0
sg19
Nsg20
Nsg21
F0.926
sg22
Nsg23
Nsg24
F-4.778
ssg25
I01
sba(iSong
Song
p1820
(dp1821
g3
(dp1822
g5
F0.135
sg6
VRunaway Love
p1823
sg8
F81.483
sg9
F0.654
sg10
S'raggae'
p1824
sg12
F0.341
sg13
VAngela Hunte
p1825
sg15
I9999
sg16
F0.648
sg17
Nsg18
I0
sg19
Nsg20
Nsg21
F0.567
sg22
Nsg23
Nsg24
F-4.548
ssg25
I01
sba(iSong
Song
p1826
(dp1827
g3
(dp1828
g5
F0.228
sg6
VBend Ya Back - Remix
p1829
sg8
F128.201
sg9
F0.89
sg10
S'raggae'
p1830
sg12
F0.254
sg13
VMr Renzo
p1831
sg15
I9999
sg16
F0.861
sg17
Nsg18
I0
sg19
Nsg20
Nsg21
F0.787
sg22
Nsg23
Nsg24
F-3.61
ssg25
I01
sba(iSong
Song
p1832
(dp1833
g3
(dp1834
g5
F0.0165
sg6
VBubble & Wine
p1835
sg8
F99.966
sg9
F0.914
sg10
S'raggae'
p1836
sg12
F0.0852
sg13
VUltimate Rejects
p1837
sg15
I9999
sg16
F0.77
sg17
Nsg18
F0.000486
sg19
Nsg20
Nsg21
F0.665
sg22
Nsg23
Nsg24
F-2.566
ssg25
I01
sba(iSong
Song
p1838
(dp1839
g3
(dp1840
g5
F0.0437
sg6
VBlessing
p1841
sg8
F127.972
sg9
F0.932
sg10
S'raggae'
p1842
sg12
F0.0695
sg13
VLil Rick
p1843
sg15
I9999
sg16
F0.716
sg17
Nsg18
I0
sg19
Nsg20
Nsg21
F0.934
sg22
Nsg23
Nsg24
F-3.553
ssg25
I01
sba(iSong
Song
p1844
(dp1845
g3
(dp1846
g5
F0.0277
sg6
VMashup (When Ah Touchdown)
p1847
sg8
F129.022
sg9
F0.859
sg10
S'raggae'
p1848
sg12
F0.0859
sg13
VKing Bubba Fm
p1849
sg15
I9999
sg16
F0.828
sg17
Nsg18
I0
sg19
Nsg20
Nsg21
F0.898
sg22
Nsg23
Nsg24
F-4.179
ssg25
I01
sba(iSong
Song
p1850
(dp1851
g3
(dp1852
g5
F0.258
sg6
VRolling
p1853
sg8
F119.022
sg9
F0.957
sg10
S'raggae'
p1854
sg12
F0.221
sg13
VSean Paul
p1855
sg15
I9999
sg16
F0.809
sg17
Nsg18
I0
sg19
Nsg20
Nsg21
F0.775
sg22
Nsg23
Nsg24
F-1.127
ssg25
I01
sba(iSong
Song
p1856
(dp1857
g3
(dp1858
g5
F0.0619
sg6
VHuman (Ti' Punch Riddim)
p1859
sg8
F121.002
sg9
F0.89
sg10
S'raggae'
p1860
sg12
F0.106
sg13
VMachel Montano
p1861
sg15
I9999
sg16
F0.768
sg17
Nsg18
I0
sg19
Nsg20
Nsg21
F0.898
sg22
Nsg23
Nsg24
F-4.034
ssg25
I01
sba(iSong
Song
p1862
(dp1863
g3
(dp1864
g5
F0.109
sg6
VCheers to Life (Trinidad and Tobago Carnival Soca 2016)
p1865
sg8
F126.005
sg9
F0.931
sg10
S'raggae'
p1866
sg12
F0.346
sg13
VVoice
p1867
sg15
I9999
sg16
F0.614
sg17
Nsg18
I0
sg19
Nsg20
Nsg21
F0.827
sg22
Nsg23
Nsg24
F-2.746
ssg25
I01
sba(iSong
Song
p1868
(dp1869
g3
(dp1870
g5
F0.0143
sg6
VScene
p1871
sg8
F126.823
sg9
F0.717
sg10
S'raggae'
p1872
sg12
F0.128
sg13
VGBM Nutron
p1873
sg15
I9999
sg16
F0.731
sg17
Nsg18
I0
sg19
Nsg20
Nsg21
F0.881
sg22
Nsg23
Nsg24
F-5.805
ssg25
I01
sba(iSong
Song
p1874
(dp1875
g3
(dp1876
g5
F0.0342
sg6
VKnow the Face (Bad Royale Remix) - Bad Royale Remix
p1877
sg8
F125.024
sg9
F0.925
sg10
S'raggae'
p1878
sg12
F0.116
sg13
VMarvay
p1879
sg15
I9999
sg16
F0.576
sg17
Nsg18
I0
sg19
Nsg20
Nsg21
F0.446
sg22
Nsg23
Nsg24
F-3.998
ssg25
I01
sba(iSong
Song
p1880
(dp1881
g3
(dp1882
g5
F0.214
sg6
VToo Real
p1883
sg8
F125.021
sg9
F0.827
sg10
S'raggae'
p1884
sg12
F0.0574
sg13
VKerwin Du Bois
p1885
sg15
I9999
sg16
F0.882
sg17
Nsg18
I0
sg19
Nsg20
Nsg21
F0.418
sg22
Nsg23
Nsg24
F-4.13
ssg25
I01
sba(iSong
Song
p1886
(dp1887
g3
(dp1888
g5
F0.119
sg6
VBlocking Up D Road
p1889
sg8
F107.999
sg9
F0.723
sg10
S'raggae'
p1890
sg12
F0.139
sg13
VBunji Garlin
p1891
sg15
I9999
sg16
F0.896
sg17
Nsg18
I0
sg19
Nsg20
Nsg21
F0.73
sg22
Nsg23
Nsg24
F-3.385
ssg25
I01
sba(iSong
Song
p1892
(dp1893
g3
(dp1894
g5
F0.0246
sg6
VParty Animal
p1895
sg8
F101.006
sg9
F0.867
sg10
S'raggae'
p1896
sg12
F0.0497
sg13
VCharly Black
p1897
sg15
I9999
sg16
F0.721
sg17
Nsg18
I0
sg19
Nsg20
Nsg21
F0.823
sg22
Nsg23
Nsg24
F-3.916
ssg25
I01
sba(iSong
Song
p1898
(dp1899
g3
(dp1900
g5
F0.0783
sg6
VWorkout
p1901
sg8
F130.021
sg9
F0.848
sg10
S'raggae'
p1902
sg12
F0.0979
sg13
VKes
p1903
sg15
I9999
sg16
F0.808
sg17
Nsg18
I0
sg19
Nsg20
Nsg21
F0.606
sg22
Nsg23
Nsg24
F-5.518
ssg25
I01
sba(iSong
Song
p1904
(dp1905
g3
(dp1906
g5
F0.0435
sg6
VMy Girl
p1907
sg8
F66.098
sg9
F0.632
sg10
S'raggae'
p1908
sg12
F0.441
sg13
VSizzla
p1909
sg15
I9999
sg16
F0.663
sg17
Nsg18
I0
sg19
Nsg20
Nsg21
F0.7
sg22
Nsg23
Nsg24
F-9.272
ssg25
I01
sba(iSong
Song
p1910
(dp1911
g3
(dp1912
g5
F0.036
sg6
VBambilambambilambilambam
p1913
sg8
I135
sg9
F0.935
sg10
S'raggae'
p1914
sg12
F0.0382
sg13
VFarmer Nappy
p1915
sg15
I9999
sg16
F0.708
sg17
Nsg18
I0
sg19
Nsg20
Nsg21
F0.794
sg22
Nsg23
Nsg24
F-4.904
ssg25
I01
sba(iSong
Song
p1916
(dp1917
g3
(dp1918
g5
F0.0023
sg6
VI'll Be OK
p1919
sg8
F122.986
sg9
F0.853
sg10
S'raggae'
p1920
sg12
F0.0389
sg13
VRupee
p1921
sg15
I9999
sg16
F0.737
sg17
Nsg18
I0
sg19
Nsg20
Nsg21
F0.855
sg22
Nsg23
Nsg24
F-4.807
ssg25
I01
sba(iSong
Song
p1922
(dp1923
g3
(dp1924
g5
F0.0588
sg6
VKings & Queens
p1925
sg8
F132.993
sg9
F0.898
sg10
S'raggae'
p1926
sg12
F0.0535
sg13
VSekon Sta
p1927
sg15
I9999
sg16
F0.735
sg17
Nsg18
I0
sg19
Nsg20
Nsg21
F0.472
sg22
Nsg23
Nsg24
F-5.696
ssg25
I01
sba(iSong
Song
p1928
(dp1929
g3
(dp1930
g5
F0.191
sg6
VTight
p1931
sg8
F82.801
sg9
F0.608
sg10
S'raggae'
p1932
sg12
F0.265
sg13
VQQ
p1933
sg15
I9999
sg16
F0.661
sg17
Nsg18
F2.36e-05
sg19
Nsg20
Nsg21
F0.736
sg22
Nsg23
Nsg24
F-8.823
ssg25
I01
sba(iSong
Song
p1934
(dp1935
g3
(dp1936
g5
F0.0349
sg6
VOne Love
p1937
sg8
F76.55
sg9
F0.543
sg10
S'raggae'
p1938
sg12
F0.335
sg13
VBob Marley & The Wailers
p1939
sg15
I9999
sg16
F0.715
sg17
Nsg18
I0
sg19
Nsg20
Nsg21
F0.926
sg22
Nsg23
Nsg24
F-8.807
ssg25
I01
sba(iSong
Song
p1940
(dp1941
g3
(dp1942
g5
F0.00482
sg6
VI Can See Clearly Now
p1943
sg8
F120.082
sg9
F0.662
sg10
S'raggae'
p1944
sg12
F0.0347
sg13
VJimmy Cliff
p1945
sg15
I9999
sg16
F0.799
sg17
Nsg18
F0.000505
sg19
Nsg20
Nsg21
F0.717
sg22
Nsg23
Nsg24
F-8.585
ssg25
I01
sba(iSong
Song
p1946
(dp1947
g3
(dp1948
g5
F0.114
sg6
VSunday Morning
p1949
sg8
F117.998
sg9
F0.834
sg10
S'raggae'
p1950
sg12
F0.0316
sg13
VMorgan Heritage
p1951
sg15
I9999
sg16
F0.83
sg17
Nsg18
I0
sg19
Nsg20
Nsg21
F0.714
sg22
Nsg23
Nsg24
F-3.574
ssg25
I01
sba(iSong
Song
p1952
(dp1953
g3
(dp1954
g5
F0.0164
sg6
VThe Sound Of Sunshine
p1955
sg8
F97.007
sg9
F0.902
sg10
S'raggae'
p1956
sg12
F0.0553
sg13
VMichael Franti & Spearhead
p1957
sg15
I9999
sg16
F0.673
sg17
Nsg18
F0.0145
sg19
Nsg20
Nsg21
F0.704
sg22
Nsg23
Nsg24
F-4.886
ssg25
I01
sba(iSong
Song
p1958
(dp1959
g3
(dp1960
g5
F0.106
sg6
VPressure Drop
p1961
sg8
F148.964
sg9
F0.571
sg10
S'raggae'
p1962
sg12
F0.0432
sg13
VToots & The Maytals
p1963
sg15
I9999
sg16
F0.658
sg17
Nsg18
I0
sg19
Nsg20
Nsg21
F0.985
sg22
Nsg23
Nsg24
F-11.972
ssg25
I01
sba(iSong
Song
p1964
(dp1965
g3
(dp1966
g5
F0.139
sg6
VGood Cry
p1967
sg8
F89.913
sg9
F0.772
sg10
S'raggae'
p1968
sg12
F0.272
sg13
VJ Boog
p1969
sg15
I9999
sg16
F0.81
sg17
Nsg18
I0
sg19
Nsg20
Nsg21
F0.832
sg22
Nsg23
Nsg24
F-4.494
ssg25
I01
sba(iSong
Song
p1970
(dp1971
g3
(dp1972
g5
F0.0796
sg6
VTrue To Myself
p1973
sg8
F99.019
sg9
F0.564
sg10
S'raggae'
p1974
sg12
F0.0498
sg13
VZiggy Marley
p1975
sg15
I9999
sg16
F0.88
sg17
Nsg18
I0
sg19
Nsg20
Nsg21
F0.83
sg22
Nsg23
Nsg24
F-6.431
ssg25
I01
sba(iSong
Song
p1976
(dp1977
g3
(dp1978
g5
F0.00414
sg6
VRed Red Wine - Edit
p1979
sg8
F89.119
sg9
F0.468
sg10
S'raggae'
p1980
sg12
F0.0476
sg13
VUB40
p1981
sg15
I9999
sg16
F0.857
sg17
Nsg18
F1.32e-05
sg19
Nsg20
Nsg21
F0.843
sg22
Nsg23
Nsg24
F-8.53
ssg25
I01
sba(iSong
Song
p1982
(dp1983
g3
(dp1984
g5
F0.0073
sg6
VWonderful World, Beautiful People - Single Version
p1985
sg8
F105.816
sg9
F0.491
sg10
S'raggae'
p1986
sg12
F0.0278
sg13
VJimmy Cliff
p1987
sg15
I9999
sg16
F0.781
sg17
Nsg18
I0
sg19
Nsg20
Nsg21
F0.854
sg22
Nsg23
Nsg24
F-11.279
ssg25
I01
sba(iSong
Song
p1988
(dp1989
g3
(dp1990
g5
F0.0109
sg6
VThree Little Birds
p1991
sg8
F73.962
sg9
F0.478
sg10
S'raggae'
p1992
sg12
F0.0855
sg13
VBob Marley & The Wailers
p1993
sg15
I9999
sg16
F0.781
sg17
Nsg18
F1.01e-06
sg19
Nsg20
Nsg21
F0.643
sg22
Nsg23
Nsg24
F-10.54
ssg25
I01
sba(iSong
Song
p1994
(dp1995
g3
(dp1996
g5
F0.622
sg6
VI Got You
p1997
sg8
F98.081
sg9
F0.404
sg10
S'raggae'
p1998
sg12
F0.0386
sg13
VJack Johnson
p1999
sg15
I9999
sg16
F0.898
sg17
Nsg18
F1.59e-05
sg19
Nsg20
Nsg21
F0.518
sg22
Nsg23
Nsg24
F-6.541
ssg25
I01
sba(iSong
Song
p2000
(dp2001
g3
(dp2002
g5
F0.388
sg6
VIt Must Be True Love
p2003
sg8
F120.319
sg9
F0.346
sg10
S'raggae'
p2004
sg12
F0.114
sg13
VToots & The Maytals
p2005
sg15
I9999
sg16
F0.873
sg17
Nsg18
F0.0044
sg19
Nsg20
Nsg21
F0.938
sg22
Nsg23
Nsg24
F-13.384
ssg25
I01
sba(iSong
Song
p2006
(dp2007
g3
(dp2008
g5
F0.0498
sg6
VHey Now Now
p2009
sg8
F90.035
sg9
F0.781
sg10
S'raggae'
p2010
sg12
F0.234
sg13
VMichael Franti
p2011
sg15
I9999
sg16
F0.844
sg17
Nsg18
I0
sg19
Nsg20
Nsg21
F0.73
sg22
Nsg23
Nsg24
F-4.839
ssg25
I01
sba(iSong
Song
p2012
(dp2013
g3
(dp2014
g5
F0.0887
sg6
VCool Down The Pace
p2015
sg8
F76.37
sg9
F0.266
sg10
S'raggae'
p2016
sg12
F0.264
sg13
VGregory Isaacs
p2017
sg15
I9999
sg16
F0.87
sg17
Nsg18
F0.0217
sg19
Nsg20
Nsg21
F0.929
sg22
Nsg23
Nsg24
F-15.559
ssg25
I01
sba(iSong
Song
p2018
(dp2019
g3
(dp2020
g5
F0.203
sg6
VTrue Love
p2021
sg8
F116.831
sg9
F0.408
sg10
S'raggae'
p2022
sg12
F0.0532
sg13
VSOJA
p2023
sg15
I9999
sg16
F0.86
sg17
Nsg18
I0
sg19
Nsg20
Nsg21
F0.53
sg22
Nsg23
Nsg24
F-8.841
ssg25
I01
sba(iSong
Song
p2024
(dp2025
g3
(dp2026
g5
F0.248
sg6
VYou Can Get It If You Really Want
p2027
sg8
F128.164
sg9
F0.559
sg10
S'raggae'
p2028
sg12
F0.0568
sg13
VJimmy Cliff
p2029
sg15
I9999
sg16
F0.894
sg17
Nsg18
I0
sg19
Nsg20
Nsg21
F0.929
sg22
Nsg23
Nsg24
F-8.547
ssg25
I01
sba(iSong
Song
p2030
(dp2031
g3
(dp2032
g5
F0.211
sg6
VBeach In Hawaii
p2033
sg8
F100.959
sg9
F0.458
sg10
S'raggae'
p2034
sg12
F0.0361
sg13
VZiggy Marley
p2035
sg15
I9999
sg16
F0.807
sg17
Nsg18
F9.01e-06
sg19
Nsg20
Nsg21
F0.874
sg22
Nsg23
Nsg24
F-9.594
ssg25
I01
sba(iSong
Song
p2036
(dp2037
g3
(dp2038
g5
F0.344
sg6
VLove I
p2039
sg8
F133.02
sg9
F0.47
sg10
S'raggae'
p2040
sg12
F0.084
sg13
VThe Green
p2041
sg15
I9999
sg16
F0.856
sg17
Nsg18
I0
sg19
Nsg20
Nsg21
F0.929
sg22
Nsg23
Nsg24
F-8.467
ssg25
I01
sba(iSong
Song
p2042
(dp2043
g3
(dp2044
g5
F0.0736
sg6
VDawn of Time
p2045
sg8
F153.942
sg9
F0.565
sg10
S'raggae'
p2046
sg12
F0.0553
sg13
VTribal Seeds
p2047
sg15
I9999
sg16
F0.701
sg17
Nsg18
F0.000504
sg19
Nsg20
Nsg21
F0.899
sg22
Nsg23
Nsg24
F-10.709
ssg25
I01
sba(iSong
Song
p2048
(dp2049
g3
(dp2050
g5
F0.128
sg6
VJamming
p2051
sg8
F123.68
sg9
F0.479
sg10
S'raggae'
p2052
sg12
F0.282
sg13
VBob Marley & The Wailers
p2053
sg15
I9999
sg16
F0.939
sg17
Nsg18
F2.65e-05
sg19
Nsg20
Nsg21
F0.723
sg22
Nsg23
Nsg24
F-10.986
ssg25
I01
sba(iSong
Song
p2054
(dp2055
g3
(dp2056
g5
F0.649
sg6
VMe Gustas Tu
p2057
sg8
F176.033
sg9
F0.734
sg10
S'raggae'
p2058
sg12
F0.075
sg13
VManu Chao
p2059
sg15
I9999
sg16
F0.657
sg17
Nsg18
F0.299
sg19
Nsg20
Nsg21
F0.914
sg22
Nsg23
Nsg24
F-6.817
ssg25
I01
sba(iSong
Song
p2060
(dp2061
g3
(dp2062
g5
F0.0113
sg6
VIron Lion Zion
p2063
sg8
F142.386
sg9
F0.598
sg10
S'raggae'
p2064
sg12
F0.0403
sg13
VBob Marley & The Wailers
p2065
sg15
I9999
sg16
F0.715
sg17
Nsg18
F0.00058
sg19
Nsg20
Nsg21
F0.779
sg22
Nsg23
Nsg24
F-7.912
ssg25
I01
sba(iSong
Song
p2066
(dp2067
g3
(dp2068
g5
F0.00729
sg6
VEvery Breath You Take
p2069
sg8
F99.99
sg9
F0.789
sg10
S'raggae'
p2070
sg12
F0.0394
sg13
VUB40
p2071
sg15
I9999
sg16
F0.779
sg17
Nsg18
F0.00118
sg19
Nsg20
Nsg21
F0.655
sg22
Nsg23
Nsg24
F-4.78
ssg25
I01
sba(iSong
Song
p2072
(dp2073
g3
(dp2074
g5
F0.0117
sg6
VPut a Little Love
p2075
sg8
F77.866
sg9
F0.651
sg10
S'raggae'
p2076
sg12
F0.0705
sg13
VNatural Vibrations
p2077
sg15
I9999
sg16
F0.731
sg17
Nsg18
I0
sg19
Nsg20
Nsg21
F0.615
sg22
Nsg23
Nsg24
F-8.755
ssg25
I01
sba(iSong
Song
p2078
(dp2079
g3
(dp2080
g5
F0.449
sg6
VTake Me Home, Country Roads
p2081
sg8
F175.244
sg9
F0.436
sg10
S'raggae'
p2082
sg12
F0.146
sg13
VToots & The Maytals
p2083
sg15
I9999
sg16
F0.609
sg17
Nsg18
F0.00677
sg19
Nsg20
Nsg21
F0.921
sg22
Nsg23
Nsg24
F-11.99
ssg25
I01
sba(iSong
Song
p2084
(dp2085
g3
(dp2086
g5
F0.116
sg6
VYou Can Get It If You Really Want
p2087
sg8
F127.734
sg9
F0.505
sg10
S'raggae'
p2088
sg12
F0.0438
sg13
VDesmond Dekker
p2089
sg15
I9999
sg16
F0.836
sg17
Nsg18
I0
sg19
Nsg20
Nsg21
F0.828
sg22
Nsg23
Nsg24
F-8.971
ssg25
I01
sba(iSong
Song
p2090
(dp2091
g3
(dp2092
g5
F0.497
sg6
VOne Good Spliff
p2093
sg8
F107.982
sg9
F0.464
sg10
S'raggae'
p2094
sg12
F0.142
sg13
VZiggy Marley & The Melody Makers
p2095
sg15
I9999
sg16
F0.617
sg17
Nsg18
F7.08e-06
sg19
Nsg20
Nsg21
F0.613
sg22
Nsg23
Nsg24
F-11.918
ssg25
I01
sba(iSong
Song
p2096
(dp2097
g3
(dp2098
g5
F0.0649
sg6
VI Am That I Am
p2099
sg8
F146.032
sg9
F0.481
sg10
S'raggae'
p2100
sg12
F0.124
sg13
VPeter Tosh
p2101
sg15
I9999
sg16
F0.791
sg17
Nsg18
F1.47e-06
sg19
Nsg20
Nsg21
F0.926
sg22
Nsg23
Nsg24
F-9.39
ssg25
I01
sba(iSong
Song
p2102
(dp2103
g3
(dp2104
g5
F0.271
sg6
VFunky Kingston
p2105
sg8
F99.695
sg9
F0.512
sg10
S'raggae'
p2106
sg12
F0.0572
sg13
VToots & The Maytals
p2107
sg15
I9999
sg16
F0.763
sg17
Nsg18
F0.000846
sg19
Nsg20
Nsg21
F0.962
sg22
Nsg23
Nsg24
F-9.383
ssg25
I01
sba(iSong
Song
p2108
(dp2109
g3
(dp2110
g5
F0.788
sg6
VYoung and Able
p2111
sg8
F144.215
sg9
F0.504
sg10
S'raggae'
p2112
sg12
F0.0383
sg13
VCurrent Swell
p2113
sg15
I9999
sg16
F0.671
sg17
Nsg18
I0
sg19
Nsg20
Nsg21
F0.671
sg22
Nsg23
Nsg24
F-10.827
ssg25
I01
sba(iSong
Song
p2114
(dp2115
g3
(dp2116
g5
F0.7
sg6
VLa Mar
p2117
sg8
F171.208
sg9
F0.118
sg10
S'raggae'
p2118
sg12
F0.106
sg13
VThe Beautiful Girls
p2119
sg15
I9999
sg16
F0.569
sg17
Nsg18
F6.21e-05
sg19
Nsg20
Nsg21
F0.463
sg22
Nsg23
Nsg24
F-18.932
ssg25
I01
sba(iSong
Song
p2120
(dp2121
g3
(dp2122
g5
F0.0172
sg6
VWhat I Got
p2123
sg8
F95.593
sg9
F0.706
sg10
S'raggae'
p2124
sg12
F0.101
sg13
VSublime
p2125
sg15
I9999
sg16
F0.795
sg17
Nsg18
F0.000384
sg19
Nsg20
Nsg21
F0.623
sg22
Nsg23
Nsg24
F-7.494
ssg25
I01
sba(iSong
Song
p2126
(dp2127
g3
(dp2128
g5
F0.125
sg6
VTake You For A Ride
p2129
sg8
F90.018
sg9
F0.81
sg10
S'raggae'
p2130
sg12
F0.0417
sg13
VKoauka
p2131
sg15
I9999
sg16
F0.759
sg17
Nsg18
F0.0211
sg19
Nsg20
Nsg21
F0.937
sg22
Nsg23
Nsg24
F-7.23
ssg25
I01
sba(iSong
Song
p2132
(dp2133
g3
(dp2134
g5
F0.389
sg6
VI'll Be All Yours
p2135
sg8
F78.537
sg9
F0.643
sg10
S'raggae'
p2136
sg12
F0.0882
sg13
VFiji
p2137
sg15
I9999
sg16
F0.519
sg17
Nsg18
I0
sg19
Nsg20
Nsg21
F0.726
sg22
Nsg23
Nsg24
F-6.536
ssg25
I01
sba(iSong
Song
p2138
(dp2139
g3
(dp2140
g5
F0.328
sg6
VStand Tall
p2141
sg8
F158.136
sg9
F0.796
sg10
S'raggae'
p2142
sg12
F0.123
sg13
VDirty Heads
p2143
sg15
I9999
sg16
F0.765
sg17
Nsg18
I0
sg19
Nsg20
Nsg21
F0.837
sg22
Nsg23
Nsg24
F-4.763
ssg25
I01
sba(iSong
Song
p2144
(dp2145
g3
(dp2146
g5
F0.000728
sg6
VOrdinary Girl
p2147
sg8
F77.177
sg9
F0.669
sg10
S'raggae'
p2148
sg12
F0.0669
sg13
VRebelution
p2149
sg15
I9999
sg16
F0.786
sg17
Nsg18
I0
sg19
Nsg20
Nsg21
F0.832
sg22
Nsg23
Nsg24
F-8.273
ssg25
I01
sba(iSong
Song
p2150
(dp2151
g3
(dp2152
g5
F0.0313
sg6
VBreak Us Apart
p2153
sg8
F122.118
sg9
F0.613
sg10
S'raggae'
p2154
sg12
F0.26
sg13
VStephen Marley
p2155
sg15
I9999
sg16
F0.863
sg17
Nsg18
I0
sg19
Nsg20
Nsg21
F0.712
sg22
Nsg23
Nsg24
F-5.857
ssg25
I01
sba(iSong
Song
p2156
(dp2157
g3
(dp2158
g5
F0.194
sg6
VLove Is My Religion
p2159
sg8
F95.541
sg9
F0.704
sg10
S'raggae'
p2160
sg12
F0.05
sg13
VZiggy Marley
p2161
sg15
I9999
sg16
F0.832
sg17
Nsg18
I0
sg19
Nsg20
Nsg21
F0.773
sg22
Nsg23
Nsg24
F-6.981
ssg25
I01
sba(iSong
Song
p2162
(dp2163
g3
(dp2164
g5
F0.324
sg6
VI Shot The Sheriff
p2165
sg8
F96.915
sg9
F0.648
sg10
S'raggae'
p2166
sg12
F0.176
sg13
VThe Wailers
p2167
sg15
I9999
sg16
F0.799
sg17
Nsg18
F6.8e-05
sg19
Nsg20
Nsg21
F0.675
sg22
Nsg23
Nsg24
F-9.167
ssg25
I01
sba(iSong
Song
p2168
(dp2169
g3
(dp2170
g5
F0.275
sg6
VTrenchtown Rock
p2171
sg8
F74.543
sg9
F0.453
sg10
S'raggae'
p2172
sg12
F0.536
sg13
VBob Marley & The Wailers
p2173
sg15
I9999
sg16
F0.798
sg17
Nsg18
F5.28e-06
sg19
Nsg20
Nsg21
F0.785
sg22
Nsg23
Nsg24
F-11.977
ssg25
I01
sba(iSong
Song
p2174
(dp2175
g3
(dp2176
g5
F0.0311
sg6
VI Don't Wanna Wait
p2177
sg8
F126.04
sg9
F0.549
sg10
S'raggae'
p2178
sg12
F0.0377
sg13
VSOJA
p2179
sg15
I9999
sg16
F0.804
sg17
Nsg18
F1.5e-05
sg19
Nsg20
Nsg21
F0.591
sg22
Nsg23
Nsg24
F-5.147
ssg25
I01
sba(iSong
Song
p2180
(dp2181
g3
(dp2182
g5
F0.0736
sg6
VDawn of Time
p2183
sg8
F153.942
sg9
F0.565
sg10
S'raggae'
p2184
sg12
F0.0553
sg13
VTribal Seeds
p2185
sg15
I9999
sg16
F0.701
sg17
Nsg18
F0.000504
sg19
Nsg20
Nsg21
F0.899
sg22
Nsg23
Nsg24
F-10.709
ssg25
I01
sba(iSong
Song
p2186
(dp2187
g3
(dp2188
g5
F0.232
sg6
VRoller Skates
p2189
sg8
F78.689
sg9
F0.575
sg10
S'raggae'
p2190
sg12
F0.238
sg13
VSteel Pulse
p2191
sg15
I9999
sg16
F0.833
sg17
Nsg18
I0
sg19
Nsg20
Nsg21
F0.807
sg22
Nsg23
Nsg24
F-9.341
ssg25
I01
sba(iSong
Song
p2192
(dp2193
g3
(dp2194
g5
F0.475
sg6
VHills And Valleys
p2195
sg8
F144.198
sg9
F0.55
sg10
S'raggae'
p2196
sg12
F0.201
sg13
VBuju Banton
p2197
sg15
I9999
sg16
F0.699
sg17
Nsg18
I0
sg19
Nsg20
Nsg21
F0.773
sg22
Nsg23
Nsg24
F-8.559
ssg25
I01
sba(iSong
Song
p2198
(dp2199
g3
(dp2200
g5
F0.381
sg6
VWanted Dread and Alive - 2002 Remastered Version
p2201
sg8
F96.161
sg9
F0.731
sg10
S'raggae'
p2202
sg12
F0.0529
sg13
VPeter Tosh
p2203
sg15
I9999
sg16
F0.795
sg17
Nsg18
F0.00163
sg19
Nsg20
Nsg21
F0.884
sg22
Nsg23
Nsg24
F-6.056
ssg25
I01
sba(iSong
Song
p2204
(dp2205
g3
(dp2206
g5
F0.134
sg6
VMe Name Jr. Gong
p2207
sg8
F125.455
sg9
F0.656
sg10
S'raggae'
p2208
sg12
F0.0788
sg13
VDamian Marley
p2209
sg15
I9999
sg16
F0.812
sg17
Nsg18
I0
sg19
Nsg20
Nsg21
F0.903
sg22
Nsg23
Nsg24
F-5.102
ssg25
I01
sba(iSong
Song
p2210
(dp2211
g3
(dp2212
g5
F0.228
sg6
VThis Joint
p2213
sg8
I75
sg9
F0.709
sg10
S'raggae'
p2214
sg12
F0.108
sg13
VSlightly Stoopid
p2215
sg15
I9999
sg16
F0.778
sg17
Nsg18
F0.00116
sg19
Nsg20
Nsg21
F0.96
sg22
Nsg23
Nsg24
F-5.706
ssg25
I01
sba(iSong
Song
p2216
(dp2217
g3
(dp2218
g5
F0.0241
sg6
VYouths Dem Cold
p2219
sg8
F81.12
sg9
F0.697
sg10
S'raggae'
p2220
sg12
F0.348
sg13
VRichie Spice
p2221
sg15
I9999
sg16
F0.635
sg17
Nsg18
I0
sg19
Nsg20
Nsg21
F0.826
sg22
Nsg23
Nsg24
F-6.123
ssg25
I01
sba(iSong
Song
p2222
(dp2223
g3
(dp2224
g5
F0.0552
sg6
VThree Little Birds - 12" Mix (Dub Version)
p2225
sg8
F74.325
sg9
F0.604
sg10
S'raggae'
p2226
sg12
F0.0829
sg13
VBob Marley & The Wailers
p2227
sg15
I9999
sg16
F0.79
sg17
Nsg18
F9.48e-05
sg19
Nsg20
Nsg21
F0.744
sg22
Nsg23
Nsg24
F-8.844
ssg25
I01
sba(iSong
Song
p2228
(dp2229
g3
(dp2230
g5
F0.225
sg6
VSet Sail
p2231
sg8
F96.247
sg9
F0.651
sg10
S'raggae'
p2232
sg12
F0.05
sg13
VThe Movement
p2233
sg15
I9999
sg16
F0.746
sg17
Nsg18
I0
sg19
Nsg20
Nsg21
F0.741
sg22
Nsg23
Nsg24
F-5.868
ssg25
I01
sba(iSong
Song
p2234
(dp2235
g3
(dp2236
g5
F0.289
sg6
VYoung Girl
p2237
sg8
F145.018
sg9
F0.333
sg10
S'raggae'
p2238
sg12
F0.232
sg13
VDon Carlos
p2239
sg15
I9999
sg16
F0.839
sg17
Nsg18
I0
sg19
Nsg20
Nsg21
F0.791
sg22
Nsg23
Nsg24
F-14.129
ssg25
I01
sba(iSong
Song
p2240
(dp2241
g3
(dp2242
g5
F0.196
sg6
VAfrican Teacher
p2243
sg8
F78.357
sg9
F0.517
sg10
S'raggae'
p2244
sg12
F0.0606
sg13
VBurning Spear
p2245
sg15
I9999
sg16
F0.777
sg17
Nsg18
F0.298
sg19
Nsg20
Nsg21
F0.96
sg22
Nsg23
Nsg24
F-10.633
ssg25
I01
sba(iSong
Song
p2246
(dp2247
g3
(dp2248
g5
F0.0182
sg6
VGhost Man
p2249
sg8
F102.936
sg9
F0.668
sg10
S'raggae'
p2250
sg12
F0.0579
sg13
VPassafire
p2251
sg15
I9999
sg16
F0.678
sg17
Nsg18
I0
sg19
Nsg20
Nsg21
F0.784
sg22
Nsg23
Nsg24
F-5.256
ssg25
I01
sba(iSong
Song
p2252
(dp2253
g3
(dp2254
g5
F0.099
sg6
VLiving In Love
p2255
sg8
F76.697
sg9
F0.843
sg10
S'raggae'
p2256
sg12
F0.199
sg13
VI Wayne
p2257
sg15
I9999
sg16
F0.789
sg17
Nsg18
I0
sg19
Nsg20
Nsg21
F0.961
sg22
Nsg23
Nsg24
F-4.505
ssg25
I01
sba(iSong
Song
p2258
(dp2259
g3
(dp2260
g5
F0.0366
sg6
VRasta Should Be Deeper
p2261
sg8
F72.385
sg9
F0.803
sg10
S'raggae'
p2262
sg12
F0.0617
sg13
VJunior Kelly
p2263
sg15
I9999
sg16
F0.734
sg17
Nsg18
I0
sg19
Nsg20
Nsg21
F0.776
sg22
Nsg23
Nsg24
F-5.808
ssg25
I01
sba(iSong
Song
p2264
(dp2265
g3
(dp2266
g5
F0.224
sg6
VWhen mi rise it
p2267
sg8
F77.769
sg9
F0.783
sg10
S'raggae'
p2268
sg12
F0.215
sg13
VLutan Fyah
p2269
sg15
I9999
sg16
F0.693
sg17
Nsg18
I0
sg19
Nsg20
Nsg21
F0.774
sg22
Nsg23
Nsg24
F-3.993
ssg25
I01
sba(iSong
Song
p2270
(dp2271
g3
(dp2272
g5
F0.0347
sg6
VStrange Things
p2273
sg8
F82.07
sg9
F0.411
sg10
S'raggae'
p2274
sg12
F0.119
sg13
VJohn Holt
p2275
sg15
I9999
sg16
F0.792
sg17
Nsg18
F1.72e-06
sg19
Nsg20
Nsg21
F0.467
sg22
Nsg23
Nsg24
F-9.226
ssg25
I01
sba(iSong
Song
p2276
(dp2277
g3
(dp2278
g5
F0.424
sg6
VKing Of Kings
p2279
sg8
F150.06
sg9
F0.61
sg10
S'raggae'
p2280
sg12
F0.0778
sg13
VElijah Prophet
p2281
sg15
I9999
sg16
F0.741
sg17
Nsg18
I0
sg19
Nsg20
Nsg21
F0.951
sg22
Nsg23
Nsg24
F-6.265
ssg25
I01
sba(iSong
Song
p2282
(dp2283
g3
(dp2284
g5
F0.362
sg6
VMy Confession
p2285
sg8
F136.606
sg9
F0.367
sg10
S'raggae'
p2286
sg12
F0.0621
sg13
VCornell Campbell
p2287
sg15
I9999
sg16
F0.797
sg17
Nsg18
F0.463
sg19
Nsg20
Nsg21
F0.7
sg22
Nsg23
Nsg24
F-11.313
ssg25
I01
sba(iSong
Song
p2288
(dp2289
g3
(dp2290
g5
F0.0111
sg6
VWorld A Music
p2291
sg8
F74.083
sg9
F0.492
sg10
S'raggae'
p2292
sg12
F0.139
sg13
VIni Kamoze
p2293
sg15
I9999
sg16
F0.874
sg17
Nsg18
F0.00801
sg19
Nsg20
Nsg21
F0.357
sg22
Nsg23
Nsg24
F-7.752
ssg25
I01
sba(iSong
Song
p2294
(dp2295
g3
(dp2296
g5
F0.365
sg6
VUnto Zion
p2297
sg8
F137.848
sg9
F0.5
sg10
S'raggae'
p2298
sg12
F0.349
sg13
VRas Shiloh
p2299
sg15
I9999
sg16
F0.608
sg17
Nsg18
I0
sg19
Nsg20
Nsg21
F0.595
sg22
Nsg23
Nsg24
F-8.233
ssg25
I01
sba(iSong
Song
p2300
(dp2301
g3
(dp2302
g5
F0.651
sg6
VIntoxication
p2303
sg8
F83.888
sg9
F0.652
sg10
S'raggae'
p2304
sg12
F0.263
sg13
VGentleman
p2305
sg15
I9999
sg16
F0.646
sg17
Nsg18
I0
sg19
Nsg20
Nsg21
F0.659
sg22
Nsg23
Nsg24
F-6.045
ssg25
I01
sba(iSong
Song
p2306
(dp2307
g3
(dp2308
g5
F0.217
sg6
VRastafari Anthem
p2309
sg8
F76.656
sg9
F0.69
sg10
S'raggae'
p2310
sg12
F0.395
sg13
VAlborosie
p2311
sg15
I9999
sg16
F0.666
sg17
Nsg18
I0
sg19
Nsg20
Nsg21
F0.768
sg22
Nsg23
Nsg24
F-5.604
ssg25
I01
sba(iSong
Song
p2312
(dp2313
g3
(dp2314
g5
F0.078
sg6
VHello (Reggae Cover)
p2315
sg8
F78.993
sg9
F0.535
sg10
S'raggae'
p2316
sg12
F0.0441
sg13
VConkarah
p2317
sg15
I9999
sg16
F0.759
sg17
Nsg18
F0.0121
sg19
Nsg20
Nsg21
F0.46
sg22
Nsg23
Nsg24
F-9.431
ssg25
I01
sba(iSong
Song
p2318
(dp2319
g3
(dp2320
g5
F0.0056
sg6
VLost (feat. M)
p2321
sg8
F139.928
sg9
F0.794
sg10
S'raggae'
p2322
sg12
F0.0286
sg13
VMajor Lazer
p2323
sg15
I9999
sg16
F0.675
sg17
Nsg18
F0.00212
sg19
Nsg20
Nsg21
F0.847
sg22
Nsg23
Nsg24
F-5.061
ssg25
I01
sba(iSong
Song
p2324
(dp2325
g3
(dp2326
g5
F0.0477
sg6
VSomebody That I Used to Know
p2327
sg8
F128.024
sg9
F0.47
sg10
S'raggae'
p2328
sg12
F0.0497
sg13
VFreedom Dub
p2329
sg15
I9999
sg16
F0.832
sg17
Nsg18
F0.0135
sg19
Nsg20
Nsg21
F0.735
sg22
Nsg23
Nsg24
F-9.586
ssg25
I01
sba(iSong
Song
p2330
(dp2331
g3
(dp2332
g5
F0.154
sg6
VThinking Out Loud (Reggae Version)
p2333
sg8
F170.049
sg9
F0.693
sg10
S'raggae'
p2334
sg12
F0.0606
sg13
VBrother Strut
p2335
sg15
I9999
sg16
F0.605
sg17
Nsg18
F3.87e-06
sg19
Nsg20
Nsg21
F0.796
sg22
Nsg23
Nsg24
F-5.648
ssg25
I01
sba(iSong
Song
p2336
(dp2337
g3
(dp2338
g5
F0.00314
sg6
VLocked out of Heaven
p2339
sg8
F139.985
sg9
F0.666
sg10
S'raggae'
p2340
sg12
F0.0373
sg13
VGeneral Soundbwoy
p2341
sg15
I9999
sg16
F0.656
sg17
Nsg18
F4.78e-05
sg19
Nsg20
Nsg21
F0.781
sg22
Nsg23
Nsg24
F-6.689
ssg25
I01
sba(iSong
Song
p2342
(dp2343
g3
(dp2344
g5
F0.0461
sg6
VShow Me
p2345
sg8
F77.989
sg9
F0.706
sg10
S'raggae'
p2346
sg12
F0.0535
sg13
VBruno Mars
p2347
sg15
I9999
sg16
F0.743
sg17
Nsg18
I0
sg19
Nsg20
Nsg21
F0.514
sg22
Nsg23
Nsg24
F-5.728
ssg25
I01
sba(iSong
Song
p2348
(dp2349
g3
(dp2350
g5
F0.575
sg6
VI Don't Wanna Waste
p2351
sg8
F94.05
sg9
F0.71
sg10
S'raggae'
p2352
sg12
F0.224
sg13
VBen L'Oncle Soul
p2353
sg15
I9999
sg16
F0.778
sg17
Nsg18
F0.133
sg19
Nsg20
Nsg21
F0.784
sg22
Nsg23
Nsg24
F-7.984
ssg25
I01
sba(iSong
Song
p2354
(dp2355
g3
(dp2356
g5
F0.023
sg6
VStanding on the Sun Remix
p2357
sg8
F195.956
sg9
F0.808
sg10
S'raggae'
p2358
sg12
F0.176
sg13
VBeyonc
p2359
sg15
I9999
sg16
F0.354
sg17
Nsg18
F2.42e-05
sg19
Nsg20
Nsg21
F0.397
sg22
Nsg23
Nsg24
F-6.477
ssg25
I01
sba(iSong
Song
p2360
(dp2361
g3
(dp2362
g5
F0.115
sg6
VTake Me Over
p2363
sg8
F81.747
sg9
F0.882
sg10
S'raggae'
p2364
sg12
F0.0391
sg13
VStephanie McKay
p2365
sg15
I9999
sg16
F0.577
sg17
Nsg18
F3.45e-05
sg19
Nsg20
Nsg21
F0.786
sg22
Nsg23
Nsg24
F-4.142
ssg25
I01
sba(iSong
Song
p2366
(dp2367
g3
(dp2368
g5
F0.0125
sg6
VCan't Be My Lover - Curtis Lynch Remix
p2369
sg8
F79.971
sg9
F0.651
sg10
S'raggae'
p2370
sg12
F0.238
sg13
VJohn Legend
p2371
sg15
I9999
sg16
F0.622
sg17
Nsg18
I0
sg19
Nsg20
Nsg21
F0.743
sg22
Nsg23
Nsg24
F-3.861
ssg25
I01
sba(iSong
Song
p2372
(dp2373
g3
(dp2374
g5
F0.0404
sg6
VCan't Tek No More
p2375
sg8
F140.006
sg9
F0.803
sg10
S'raggae'
p2376
sg12
F0.0435
sg13
VDizzee Rascal
p2377
sg15
I9999
sg16
F0.75
sg17
Nsg18
I0
sg19
Nsg20
Nsg21
F0.696
sg22
Nsg23
Nsg24
F-3.405
ssg25
I01
sba(iSong
Song
p2378
(dp2379
g3
(dp2380
g5
F0.000364
sg6
VHere I Go Again
p2381
sg8
F82.503
sg9
F0.614
sg10
S'raggae'
p2382
sg12
F0.117
sg13
VRihanna
p2383
sg15
I9999
sg16
F0.505
sg17
Nsg18
F0.00158
sg19
Nsg20
Nsg21
F0.644
sg22
Nsg23
Nsg24
F-5.935
ssg25
I01
sba(iSong
Song
p2384
(dp2385
g3
(dp2386
g5
F0.275
sg6
VMonkey Man
p2387
sg8
F146.525
sg9
F0.845
sg10
S'raggae'
p2388
sg12
F0.078
sg13
VAmy Winehouse
p2389
sg15
I9999
sg16
F0.614
sg17
Nsg18
I0
sg19
Nsg20
Nsg21
F0.918
sg22
Nsg23
Nsg24
F-2.834
ssg25
I01
sba(iSong
Song
p2390
(dp2391
g3
(dp2392
g5
F0.0626
sg6
VWith Ur Love - Teka & SoulForce Reggae Remix
p2393
sg8
F170.11
sg9
F0.78
sg10
S'raggae'
p2394
sg12
F0.0539
sg13
VCher Lloyd
p2395
sg15
I9999
sg16
F0.527
sg17
Nsg18
I0
sg19
Nsg20
Nsg21
F0.518
sg22
Nsg23
Nsg24
F-3.613
ssg25
I01
sba(iSong
Song
p2396
(dp2397
g3
(dp2398
g5
F0.595
sg6
VI'm Yours
p2399
sg8
F150.953
sg9
F0.457
sg10
S'raggae'
p2400
sg12
F0.0468
sg13
VJason Mraz
p2401
sg15
I9999
sg16
F0.686
sg17
Nsg18
I0
sg19
Nsg20
Nsg21
F0.718
sg22
Nsg23
Nsg24
F-8.322
ssg25
I01
sba(iSong
Song
p2402
(dp2403
g3
(dp2404
g5
F0.306
sg6
VRunning Away - Winta James Mix
p2405
sg8
F149.976
sg9
F0.584
sg10
S'raggae'
p2406
sg12
F0.0331
sg13
VAdy Suleiman
p2407
sg15
I9999
sg16
F0.669
sg17
Nsg18
F0.0325
sg19
Nsg20
Nsg21
F0.949
sg22
Nsg23
Nsg24
F-5.988
ssg25
I01
sba(iSong
Song
p2408
(dp2409
g3
(dp2410
g5
F0.0496
sg6
VNice Things
p2411
sg8
F87.972
sg9
F0.614
sg10
S'raggae'
p2412
sg12
F0.211
sg13
VMarlon Roudette
p2413
sg15
I9999
sg16
F0.643
sg17
Nsg18
I0
sg19
Nsg20
Nsg21
F0.61
sg22
Nsg23
Nsg24
F-6.842
ssg25
I01
sba(iSong
Song
p2414
(dp2415
g3
(dp2416
g5
F0.0422
sg6
VOur Day Will Come
p2417
sg8
F98.007
sg9
F0.633
sg10
S'raggae'
p2418
sg12
F0.0289
sg13
VAmy Winehouse
p2419
sg15
I9999
sg16
F0.696
sg17
Nsg18
F4.74e-05
sg19
Nsg20
Nsg21
F0.697
sg22
Nsg23
Nsg24
F-6.026
ssg25
I01
sba(iSong
Song
p2420
(dp2421
g3
(dp2422
g5
F0.000146
sg6
VWake Me Up - Reggae Mix
p2423
sg8
I93
sg9
F0.762
sg10
S'raggae'
p2424
sg12
F0.0296
sg13
VAvicii
p2425
sg15
I9999
sg16
F0.607
sg17
Nsg18
F0.052
sg19
Nsg20
Nsg21
F0.386
sg22
Nsg23
Nsg24
F-7.305
ssg25
I01
sba(iSong
Song
p2426
(dp2427
g3
(dp2428
g5
F0.199
sg6
VCheerleader
p2429
sg8
F100.008
sg9
F0.719
sg10
S'raggae'
p2430
sg12
F0.031
sg13
VOMI
p2431
sg15
I9999
sg16
F0.864
sg17
Nsg18
I0
sg19
Nsg20
Nsg21
F0.943
sg22
Nsg23
Nsg24
F-5.047
ssg25
I01
sba(iSong
Song
p2432
(dp2433
g3
(dp2434
g5
F0.304
sg6
VAnimal - Mark Ronson Remix
p2435
sg8
F116.806
sg9
F0.808
sg10
S'raggae'
p2436
sg12
F0.0414
sg13
VMiike Snow
p2437
sg15
I9999
sg16
F0.833
sg17
Nsg18
F0.00918
sg19
Nsg20
Nsg21
F0.961
sg22
Nsg23
Nsg24
F-4.824
ssg25
I01
sba(iSong
Song
p2438
(dp2439
g3
(dp2440
g5
F0.21
sg6
VLess Is More
p2441
sg8
F78.856
sg9
F0.682
sg10
S'raggae'
p2442
sg12
F0.135
sg13
VJoss Stone
p2443
sg15
I9999
sg16
F0.627
sg17
Nsg18
I0
sg19
Nsg20
Nsg21
F0.69
sg22
Nsg23
Nsg24
F-5.688
ssg25
I01
sba(iSong
Song
p2444
(dp2445
g3
(dp2446
g5
F0.0161
sg6
VHumanity (Love the Way It Should Be)
p2447
sg8
F130.31
sg9
F0.643
sg10
S'raggae'
p2448
sg12
F0.0307
sg13
VJohn Legend
p2449
sg15
I9999
sg16
F0.46
sg17
Nsg18
F0.00675
sg19
Nsg20
Nsg21
F0.506
sg22
Nsg23
Nsg24
F-4.317
ssg25
I01
sba(iSong
Song
p2450
(dp2451
g3
(dp2452
g5
F0.0423
sg6
VRude
p2453
sg8
F144.032
sg9
F0.756
sg10
S'raggae'
p2454
sg12
F0.0389
sg13
VMAGIC!
p2455
sg15
I9999
sg16
F0.774
sg17
Nsg18
I0
sg19
Nsg20
Nsg21
F0.931
sg22
Nsg23
Nsg24
F-4.995
ssg25
I01
sba(iSong
Song
p2456
(dp2457
g3
(dp2458
g5
F0.0614
sg6
VEverybody
p2459
sg8
F74.973
sg9
F0.676
sg10
S'raggae'
p2460
sg12
F0.194
sg13
VAnthony Hamilton
p2461
sg15
I9999
sg16
F0.64
sg17
Nsg18
I0
sg19
Nsg20
Nsg21
F0.792
sg22
Nsg23
Nsg24
F-6.621
ssg25
I01
sba(iSong
Song
p2462
(dp2463
g3
(dp2464
g5
F0.00835
sg6
VSimplify (feat. Scratch Professer) - Rootickal Re Twist
p2465
sg8
F84.025
sg9
F0.868
sg10
S'raggae'
p2466
sg12
F0.308
sg13
VOmar
p2467
sg15
I9999
sg16
F0.667
sg17
Nsg18
F0.00328
sg19
Nsg20
Nsg21
F0.67
sg22
Nsg23
Nsg24
F-5.618
ssg25
I01
sba(iSong
Song
p2468
(dp2469
g3
(dp2470
g5
F0.0224
sg6
VUnapologetic Bitch
p2471
sg8
F75.019
sg9
F0.777
sg10
S'raggae'
p2472
sg12
F0.204
sg13
VMadonna
p2473
sg15
I9999
sg16
F0.76
sg17
Nsg18
F0.000106
sg19
Nsg20
Nsg21
F0.821
sg22
Nsg23
Nsg24
F-4.827
ssg25
I01
sba(iSong
Song
p2474
(dp2475
g3
(dp2476
g5
F0.154
sg6
VCome Over (feat. Stylo G)
p2477
sg8
F99.969
sg9
F0.782
sg10
S'raggae'
p2478
sg12
F0.0564
sg13
VClean Bandit
p2479
sg15
I9999
sg16
F0.809
sg17
Nsg18
F5.64e-06
sg19
Nsg20
Nsg21
F0.669
sg22
Nsg23
Nsg24
F-5.625
ssg25
I01
sba(iSong
Song
p2480
(dp2481
g3
(dp2482
g5
F0.0975
sg6
VHere I Am - Come And Take Me
p2483
sg8
F95.906
sg9
F0.621
sg10
S'raggae'
p2484
sg12
F0.0377
sg13
VUB40
p2485
sg15
I9999
sg16
F0.802
sg17
Nsg18
F0.0256
sg19
Nsg20
Nsg21
F0.81
sg22
Nsg23
Nsg24
F-7.932
ssg25
I01
sba(iSong
Song
p2486
(dp2487
g3
(dp2488
g5
F0.00444
sg6
VAll That She Wants
p2489
sg8
F93.773
sg9
F0.641
sg10
S'raggae'
p2490
sg12
F0.0565
sg13
VAce of Base
p2491
sg15
I9999
sg16
F0.801
sg17
Nsg18
F3.54e-05
sg19
Nsg20
Nsg21
F0.829
sg22
Nsg23
Nsg24
F-9.097
ssg25
I01
sba(iSong
Song
p2492
(dp2493
g3
(dp2494
g5
F0.117
sg6
VKnow Who You Are
p2495
sg8
F182.303
sg9
F0.495
sg10
S'raggae'
p2496
sg12
F0.182
sg13
VPharrell Williams
p2497
sg15
I9999
sg16
F0.644
sg17
Nsg18
F6.15e-06
sg19
Nsg20
Nsg21
F0.747
sg22
Nsg23
Nsg24
F-7.102
ssg25
I01
sba(iSong
Song
p2498
(dp2499
g3
(dp2500
g5
F0.0583
sg6
VPiece Of Me - Sly and Robbie Reggae Remix
p2501
sg8
F114.972
sg9
F0.706
sg10
S'raggae'
p2502
sg12
F0.0385
sg13
VBritney Spears
p2503
sg15
I9999
sg16
F0.896
sg17
Nsg18
F2.03e-06
sg19
Nsg20
Nsg21
F0.94
sg22
Nsg23
Nsg24
F-5.27
ssg25
I01
sba(iSong
Song
p2504
(dp2505
g3
(dp2506
g5
F0.911
sg6
VFire
p2507
sg8
F122.501
sg9
F0.175
sg10
S'raggae'
p2508
sg12
F0.0846
sg13
VJake Bugg
p2509
sg15
I9999
sg16
F0.673
sg17
Nsg18
I0
sg19
Nsg20
Nsg21
F0.358
sg22
Nsg23
Nsg24
F-11.286
ssg25
I01
sba(iSong
Song
p2510
(dp2511
g3
(dp2512
g5
F0.0147
sg6
VNo One (Curtis Lynch Reggae Remix)
p2513
sg8
F89.99
sg9
F0.631
sg10
S'raggae'
p2514
sg12
F0.0299
sg13
VAlicia Keys
p2515
sg15
I9999
sg16
F0.636
sg17
Nsg18
I0
sg19
Nsg20
Nsg21
F0.561
sg22
Nsg23
Nsg24
F-4.476
ssg25
I01
sba(iSong
Song
p2516
(dp2517
g3
(dp2518
g5
F0.0731
sg6
VMr Loverman
p2519
sg8
F172.608
sg9
F0.622
sg10
S'raggae'
p2520
sg12
F0.147
sg13
VShabba Ranks
p2521
sg15
I9999
sg16
F0.673
sg17
Nsg18
F1.58e-06
sg19
Nsg20
Nsg21
F0.81
sg22
Nsg23
Nsg24
F-11.394
ssg25
I01
sba(iSong
Song
p2522
(dp2523
g3
(dp2524
g5
F0.129
sg6
VAngel
p2525
sg8
F85.279
sg9
F0.759
sg10
S'raggae'
p2526
sg12
F0.0905
sg13
VShaggy
p2527
sg15
I9999
sg16
F0.806
sg17
Nsg18
I0
sg19
Nsg20
Nsg21
F0.785
sg22
Nsg23
Nsg24
F-2.941
ssg25
I01
sba(iSong
Song
p2528
(dp2529
g3
(dp2530
g5
F0.104
sg6
VYou Girl (feat. Ne-Yo)
p2531
sg8
F79.146
sg9
F0.652
sg10
S'raggae'
p2532
sg12
F0.117
sg13
VShaggy
p2533
sg15
I9999
sg16
F0.769
sg17
Nsg18
I0
sg19
Nsg20
Nsg21
F0.923
sg22
Nsg23
Nsg24
F-5.09
ssg25
I01
sba(iSong
Song
p2534
(dp2535
g3
(dp2536
g5
F0.0142
sg6
VLDN
p2537
sg8
F100.023
sg9
F0.607
sg10
S'raggae'
p2538
sg12
F0.027
sg13
VLily Allen
p2539
sg15
I9999
sg16
F0.673
sg17
Nsg18
F4.15e-06
sg19
Nsg20
Nsg21
F0.898
sg22
Nsg23
Nsg24
F-7.672
ssg25
I01
sba(iSong
Song
p2540
(dp2541
g3
(dp2542
g5
F0.0223
sg6
VSanteria
p2543
sg8
F90.356
sg9
F0.772
sg10
S'raggae'
p2544
sg12
F0.0427
sg13
VSublime
p2545
sg15
I9999
sg16
F0.673
sg17
Nsg18
F1.23e-06
sg19
Nsg20
Nsg21
F0.585
sg22
Nsg23
Nsg24
F-5.246
ssg25
I01
sba(iSong
Song
p2546
(dp2547
g3
(dp2548
g5
F0.0713
sg6
VEasy To Love
p2549
sg8
F75.991
sg9
F0.81
sg10
S'raggae'
p2550
sg12
F0.0602
sg13
VMaxi Priest
p2551
sg15
I9999
sg16
F0.588
sg17
Nsg18
I0
sg19
Nsg20
Nsg21
F0.8
sg22
Nsg23
Nsg24
F-6.89
ssg25
I01
sba(iSong
Song
p2552
(dp2553
g3
(dp2554
g5
F0.121
sg6
VNo Coke - 7" Mix
p2555
sg8
F96.589
sg9
F0.695
sg10
S'raggae'
p2556
sg12
F0.153
sg13
VDr. Alban
p2557
sg15
I9999
sg16
F0.847
sg17
Nsg18
I0
sg19
Nsg20
Nsg21
F0.645
sg22
Nsg23
Nsg24
F-8.909
ssg25
I01
sba(iSong
Song
p2558
(dp2559
g3
(dp2560
g5
F0.0628
sg6
VLike A Champion
p2561
sg8
F89.892
sg9
F0.899
sg10
S'raggae'
p2562
sg12
F0.162
sg13
VSelena Gomez
p2563
sg15
I9999
sg16
F0.451
sg17
Nsg18
I0
sg19
Nsg20
Nsg21
F0.932
sg22
Nsg23
Nsg24
F-4.102
ssg25
I01
sba(iSong
Song
p2564
(dp2565
g3
(dp2566
g5
F0.00208
sg6
VIt Don't Make Any Difference To Me (feat. Wyclef Jean) - Supa Dupes Remix
p2567
sg8
F88.504
sg9
F0.664
sg10
S'raggae'
p2568
sg12
F0.0388
sg13
VKevin Michael
p2569
sg15
I9999
sg16
F0.726
sg17
Nsg18
I0
sg19
Nsg20
Nsg21
F0.387
sg22
Nsg23
Nsg24
F-6.641
ssg25
I01
sba(iSong
Song
p2570
(dp2571
g3
(dp2572
g5
F0.122
sg6
VCan't Remember to Forget You
p2573
sg8
F137.968
sg9
F0.81
sg10
S'raggae'
p2574
sg12
F0.0661
sg13
VShakira
p2575
sg15
I9999
sg16
F0.694
sg17
Nsg18
I0
sg19
Nsg20
Nsg21
F0.824
sg22
Nsg23
Nsg24
F-3.556
ssg25
I01
sba(iSong
Song
p2576
(dp2577
g3
(dp2578
g5
F0.117
sg6
VCalling (feat. Topher)
p2579
sg8
F159.846
sg9
F0.736
sg10
S'raggae'
p2580
sg12
F0.126
sg13
VBellita Carol
p2581
sg15
I9999
sg16
F0.756
sg17
Nsg18
F1.88e-06
sg19
Nsg20
Nsg21
F0.779
sg22
Nsg23
Nsg24
F-4.123
ssg25
I01
sba(iSong
Song
p2582
(dp2583
g3
(dp2584
g5
F1.43e-05
sg6
VBig Hoops (Bigger The Better) - Dancehall Remix
p2585
sg8
F177.997
sg9
F0.58
sg10
S'raggae'
p2586
sg12
F0.0474
sg13
VNelly Furtado
p2587
sg15
I9999
sg16
F0.656
sg17
Nsg18
F0.489
sg19
Nsg20
Nsg21
F0.268
sg22
Nsg23
Nsg24
F-4.871
ssg25
I01
sba(iSong
Song
p2588
(dp2589
g3
(dp2590
g5
F0.244
sg6
VMilk & Honey
p2591
sg8
F77.966
sg9
F0.682
sg10
S'raggae'
p2592
sg12
F0.178
sg13
VHollie Cook
p2593
sg15
I9999
sg16
F0.752
sg17
Nsg18
F0.00173
sg19
Nsg20
Nsg21
F0.778
sg22
Nsg23
Nsg24
F-7.425
ssg25
I01
sba(iSong
Song
p2594
(dp2595
g3
(dp2596
g5
F0.0405
sg6
VTurn Me On
p2597
sg8
F106.279
sg9
F0.682
sg10
S'raggae'
p2598
sg12
F0.0361
sg13
VKevin Lyttle
p2599
sg15
I9999
sg16
F0.677
sg17
Nsg18
I0
sg19
Nsg20
Nsg21
F0.875
sg22
Nsg23
Nsg24
F-6.879
ssg25
I01
sba(iSong
Song
p2600
(dp2601
g3
(dp2602
g5
F0.137
sg6
VMolly Town
p2603
sg8
F83.99
sg9
F0.578
sg10
S'raggae'
p2604
sg12
F0.105
sg13
VJoss Stone
p2605
sg15
I9999
sg16
F0.792
sg17
Nsg18
F4.22e-05
sg19
Nsg20
Nsg21
F0.805
sg22
Nsg23
Nsg24
F-5.658
ssg25
I01
sba(iSong
Song
p2606
(dp2607
g3
(dp2608
g5
F0.00338
sg6
VWatching The Wheels
p2609
sg8
F83.075
sg9
F0.635
sg10
S'raggae'
p2610
sg12
F0.0369
sg13
VMatisyahu
p2611
sg15
I9999
sg16
F0.701
sg17
Nsg18
F0.000155
sg19
Nsg20
Nsg21
F0.684
sg22
Nsg23
Nsg24
F-7.235
ssg25
I01
sba(iSong
Song
p2612
(dp2613
g3
(dp2614
g5
F0.198
sg6
VOne Day - New Album Version
p2615
sg8
F68.552
sg9
F0.61
sg10
S'raggae'
p2616
sg12
F0.15
sg13
VMatisyahu
p2617
sg15
I9999
sg16
F0.346
sg17
Nsg18
I0
sg19
Nsg20
Nsg21
F0.235
sg22
Nsg23
Nsg24
F-5.818
ssg25
I01
sba(iSong
Song
p2618
(dp2619
g3
(dp2620
g5
F0.469
sg6
VBackslider
p2621
sg8
F193.111
sg9
F0.541
sg10
S'raggae'
p2622
sg12
F0.102
sg13
VWild Belle
p2623
sg15
I9999
sg16
F0.578
sg17
Nsg18
F0.0153
sg19
Nsg20
Nsg21
F0.739
sg22
Nsg23
Nsg24
F-8.855
ssg25
I01
sba(iSong
Song
p2624
(dp2625
g3
(dp2626
g5
F0.0231
sg6
VDust and Dirt
p2627
sg8
F80.8
sg9
F0.508
sg10
S'raggae'
p2628
sg12
F0.0313
sg13
VThe Black Seeds
p2629
sg15
I9999
sg16
F0.723
sg17
Nsg18
F0.0923
sg19
Nsg20
Nsg21
F0.748
sg22
Nsg23
Nsg24
F-8.206
ssg25
I01
sba(iSong
Song
p2630
(dp2631
g3
(dp2632
g5
F0.000858
sg6
VThe Prophet
p2633
sg8
F87.991
sg9
F0.73
sg10
S'raggae'
p2634
sg12
F0.0307
sg13
VSlightly Stoopid
p2635
sg15
I9999
sg16
F0.641
sg17
Nsg18
F0.122
sg19
Nsg20
Nsg21
F0.34
sg22
Nsg23
Nsg24
F-6.877
ssg25
I01
sba(iSong
Song
p2636
(dp2637
g3
(dp2638
g5
F0.1
sg6
VStepping Out (feat. David Hinds)
p2639
sg8
F76.996
sg9
F0.829
sg10
S'raggae'
p2640
sg12
F0.0793
sg13
VAlborosie
p2641
sg15
I9999
sg16
F0.847
sg17
Nsg18
I0
sg19
Nsg20
Nsg21
F0.964
sg22
Nsg23
Nsg24
F-4.51
ssg25
I01
sba(iSong
Song
p2642
(dp2643
g3
(dp2644
g5
F0.0623
sg6
VF**k Around (All Night)
p2645
sg8
F152.029
sg9
F0.893
sg10
S'raggae'
p2646
sg12
F0.0605
sg13
VPepper
p2647
sg15
I9999
sg16
F0.585
sg17
Nsg18
I0
sg19
Nsg20
Nsg21
F0.764
sg22
Nsg23
Nsg24
F-5.443
ssg25
I01
sba(iSong
Song
p2648
(dp2649
g3
(dp2650
g5
F0.0479
sg6
VHow Do You Want to Be Remembered
p2651
sg8
F80.525
sg9
F0.567
sg10
S'raggae'
p2652
sg12
F0.0652
sg13
VMAGIC!
p2653
sg15
I9999
sg16
F0.52
sg17
Nsg18
F1.61e-06
sg19
Nsg20
Nsg21
F0.529
sg22
Nsg23
Nsg24
F-8.984
ssg25
I01
sba(iSong
Song
p2654
(dp2655
g3
(dp2656
g5
F0.325
sg6
VLead The Way
p2657
sg8
F175.253
sg9
F0.802
sg10
S'raggae'
p2658
sg12
F0.358
sg13
VKabaka Pyramid
p2659
sg15
I9999
sg16
F0.548
sg17
Nsg18
I0
sg19
Nsg20
Nsg21
F0.928
sg22
Nsg23
Nsg24
F-4.789
ssg25
I01
sba(iSong
Song
p2660
(dp2661
g3
(dp2662
g5
F0.0467
sg6
VDrifting Along - Remastered
p2663
sg8
F96.17
sg9
F0.545
sg10
S'raggae'
p2664
sg12
F0.0483
sg13
VJamiroquai
p2665
sg15
I9999
sg16
F0.777
sg17
Nsg18
F0.73
sg19
Nsg20
Nsg21
F0.77
sg22
Nsg23
Nsg24
F-7.591
ssg25
I01
sba(iSong
Song
p2666
(dp2667
g3
(dp2668
g5
F0.0224
sg6
VGunship Politico
p2669
sg8
F93.514
sg9
F0.74
sg10
S'raggae'
p2670
sg12
F0.0492
sg13
VState Radio
p2671
sg15
I9999
sg16
F0.55
sg17
Nsg18
F6.89e-06
sg19
Nsg20
Nsg21
F0.617
sg22
Nsg23
Nsg24
F-6.468
ssg25
I01
sba(iSong
Song
p2672
(dp2673
g3
(dp2674
g5
F0.00747
sg6
VSunshine
p2675
sg8
F100.029
sg9
F0.769
sg10
S'raggae'
p2676
sg12
F0.0626
sg13
VMatisyahu
p2677
sg15
I9999
sg16
F0.697
sg17
Nsg18
I0
sg19
Nsg20
Nsg21
F0.822
sg22
Nsg23
Nsg24
F-3.712
ssg25
I01
sba(iSong
Song
p2678
(dp2679
g3
(dp2680
g5
F0.529
sg6
VBlack Roses
p2681
sg8
F83.957
sg9
F0.323
sg10
S'raggae'
p2682
sg12
F0.0369
sg13
VBarrington Levy
p2683
sg15
I9999
sg16
F0.55
sg17
Nsg18
I0
sg19
Nsg20
Nsg21
F0.586
sg22
Nsg23
Nsg24
F-9.764
ssg25
I01
sba(iSong
Song
p2684
(dp2685
g3
(dp2686
g5
F0.113
sg6
VCome Let Go
p2687
sg8
F140.092
sg9
F0.542
sg10
S'raggae'
p2688
sg12
F0.0478
sg13
VXavier Rudd
p2689
sg15
I9999
sg16
F0.543
sg17
Nsg18
F0.0512
sg19
Nsg20
Nsg21
F0.261
sg22
Nsg23
Nsg24
F-8.649
ssg25
I01
sba(iSong
Song
p2690
(dp2691
g3
(dp2692
g5
F0.0627
sg6
VWalk Away
p2693
sg8
F104.983
sg9
F0.718
sg10
S'raggae'
p2694
sg12
F0.0392
sg13
VBallyhoo!
p2695
sg15
I9999
sg16
F0.745
sg17
Nsg18
I0
sg19
Nsg20
Nsg21
F0.852
sg22
Nsg23
Nsg24
F-6.707
ssg25
I01
sba(iSong
Song
p2696
(dp2697
g3
(dp2698
g5
F0.0266
sg6
VSound Of Change
p2699
sg8
F97.391
sg9
F0.788
sg10
S'raggae'
p2700
sg12
F0.077
sg13
VDirty Heads
p2701
sg15
I9999
sg16
F0.608
sg17
Nsg18
I0
sg19
Nsg20
Nsg21
F0.309
sg22
Nsg23
Nsg24
F-5.272
ssg25
I01
sba(iSong
Song
p2702
(dp2703
g3
(dp2704
g5
F0.0571
sg6
VStone Love
p2705
sg8
F78.746
sg9
F0.478
sg10
S'raggae'
p2706
sg12
F0.0627
sg13
VPepper
p2707
sg15
I9999
sg16
F0.837
sg17
Nsg18
F0.00129
sg19
Nsg20
Nsg21
F0.81
sg22
Nsg23
Nsg24
F-5.861
ssg25
I01
sba(iSong
Song
p2708
(dp2709
g3
(dp2710
g5
F0.0389
sg6
VFeeling Alright
p2711
sg8
F134.237
sg9
F0.578
sg10
S'raggae'
p2712
sg12
F0.0645
sg13
VRebelution
p2713
sg15
I9999
sg16
F0.839
sg17
Nsg18
I0
sg19
Nsg20
Nsg21
F0.642
sg22
Nsg23
Nsg24
F-8.401
ssg25
I01
sba(iSong
Song
p2714
(dp2715
g3
(dp2716
g5
F0.258
sg6
VI Want You
p2717
sg8
F79.019
sg9
F0.437
sg10
S'raggae'
p2718
sg12
F0.0323
sg13
VTaken By Trees
p2719
sg15
I9999
sg16
F0.696
sg17
Nsg18
F0.045
sg19
Nsg20
Nsg21
F0.606
sg22
Nsg23
Nsg24
F-10.715
ssg25
I01
sba(iSong
Song
p2720
(dp2721
g3
(dp2722
g5
F0.11
sg6
VLighthouse
p2723
sg8
F165.978
sg9
F0.658
sg10
S'raggae'
p2724
sg12
F0.0311
sg13
VZiggy Marley
p2725
sg15
I9999
sg16
F0.532
sg17
Nsg18
F0.00918
sg19
Nsg20
Nsg21
F0.569
sg22
Nsg23
Nsg24
F-7.615
ssg25
I01
sba(iSong
Song
p2726
(dp2727
g3
(dp2728
g5
F0.00808
sg6
VDancehall Days
p2729
sg8
F162.02
sg9
F0.743
sg10
S'raggae'
p2730
sg12
F0.0525
sg13
VThe Beautiful Girls
p2731
sg15
I9999
sg16
F0.746
sg17
Nsg18
F0.0315
sg19
Nsg20
Nsg21
F0.87
sg22
Nsg23
Nsg24
F-9.088
ssg25
I01
sba(iSong
Song
p2732
(dp2733
g3
(dp2734
g5
F0.166
sg6
VCollie Herb Man - Joost Langveld & Roger Perry Reactor Dub
p2735
sg8
F148.022
sg9
F0.838
sg10
S'raggae'
p2736
sg12
F0.0592
sg13
VKatchafire
p2737
sg15
I9999
sg16
F0.874
sg17
Nsg18
F0.499
sg19
Nsg20
Nsg21
F0.973
sg22
Nsg23
Nsg24
F-4.693
ssg25
I01
sba(iSong
Song
p2738
(dp2739
g3
(dp2740
g5
F0.132
sg6
V10:10
p2741
sg8
F177.957
sg9
F0.766
sg10
S'raggae'
p2742
sg12
F0.0968
sg13
VThe Beautiful Girls
p2743
sg15
I9999
sg16
F0.589
sg17
Nsg18
F5.04e-06
sg19
Nsg20
Nsg21
F0.826
sg22
Nsg23
Nsg24
F-5.224
ssg25
I01
sba(iSong
Song
p2744
(dp2745
g3
(dp2746
g5
F0.0643
sg6
VWarrior People
p2747
sg8
F159.94
sg9
F0.911
sg10
S'raggae'
p2748
sg12
F0.0563
sg13
VNahko and Medicine for the People
p2749
sg15
I9999
sg16
F0.7
sg17
Nsg18
I0
sg19
Nsg20
Nsg21
F0.853
sg22
Nsg23
Nsg24
F-4.921
ssg25
I01
sba(iSong
Song
p2750
(dp2751
g3
(dp2752
g5
F0.104
sg6
VNo Way No
p2753
sg8
F153.978
sg9
F0.733
sg10
S'raggae'
p2754
sg12
F0.0513
sg13
VMAGIC!
p2755
sg15
I9999
sg16
F0.743
sg17
Nsg18
F1.05e-05
sg19
Nsg20
Nsg21
F0.807
sg22
Nsg23
Nsg24
F-5.183
ssg25
I01
sba(iSong
Song
p2756
(dp2757
g3
(dp2758
g5
F0.0162
sg6
VSoundwaves (feat. Eric Rachmany of Rebelution)
p2759
sg8
F77.008
sg9
F0.587
sg10
S'raggae'
p2760
sg12
F0.0395
sg13
VTribal Seeds
p2761
sg15
I9999
sg16
F0.714
sg17
Nsg18
I0
sg19
Nsg20
Nsg21
F0.628
sg22
Nsg23
Nsg24
F-6.872
ssg25
I01
sba(iSong
Song
p2762
(dp2763
g3
(dp2764
g5
F0.557
sg6
VI&I
p2765
sg8
F127.95
sg9
F0.786
sg10
S'raggae'
p2766
sg12
F0.0452
sg13
VProtoje
p2767
sg15
I9999
sg16
F0.772
sg17
Nsg18
F2.6e-06
sg19
Nsg20
Nsg21
F0.802
sg22
Nsg23
Nsg24
F-5.89
ssg25
I01
sba(iSong
Song
p2768
(dp2769
g3
(dp2770
g5
F0.0109
sg6
VDance All Night
p2771
sg8
F81.009
sg9
F0.767
sg10
S'raggae'
p2772
sg12
F0.0435
sg13
VDirty Heads
p2773
sg15
I9999
sg16
F0.706
sg17
Nsg18
F1.35e-06
sg19
Nsg20
Nsg21
F0.879
sg22
Nsg23
Nsg24
F-5.198
ssg25
I01
sba(iSong
Song
p2774
(dp2775
g3
(dp2776
g5
F0.649
sg6
VEver
p2777
sg8
F133.337
sg9
F0.41
sg10
S'raggae'
p2778
sg12
F0.0963
sg13
V\u05d4\u05d1\u05e0\u05d5\u05ea \u05e0\u05d7\u05de\u05d4
p2779
sg15
I9999
sg16
F0.602
sg17
Nsg18
I0
sg19
Nsg20
Nsg21
F0.717
sg22
Nsg23
Nsg24
F-7.534
ssg25
I01
sba(iSong
Song
p2780
(dp2781
g3
(dp2782
g5
F0.257
sg6
ViLove
p2783
sg8
F129.967
sg9
F0.523
sg10
S'raggae'
p2784
sg12
F0.0377
sg13
VShanique Marie
p2785
sg15
I9999
sg16
F0.751
sg17
Nsg18
I0
sg19
Nsg20
Nsg21
F0.628
sg22
Nsg23
Nsg24
F-6.286
ssg25
I01
sba(iSong
Song
p2786
(dp2787
g3
(dp2788
g5
F0.249
sg6
VBlessings (feat. Brandon Hucks & Alex Winchester)
p2789
sg8
F125.852
sg9
F0.696
sg10
S'raggae'
p2790
sg12
F0.0316
sg13
VTreeHouse!
p2791
sg15
I9999
sg16
F0.545
sg17
Nsg18
I0
sg19
Nsg20
Nsg21
F0.674
sg22
Nsg23
Nsg24
F-5.188
ssg25
I01
sba(iSong
Song
p2792
(dp2793
g3
(dp2794
g5
F0.0333
sg6
VRun Come
p2795
sg8
F76.963
sg9
F0.689
sg10
S'raggae'
p2796
sg12
F0.262
sg13
VAlborosie
p2797
sg15
I9999
sg16
F0.789
sg17
Nsg18
I0
sg19
Nsg20
Nsg21
F0.677
sg22
Nsg23
Nsg24
F-7.367
ssg25
I01
sba(iSong
Song
p2798
(dp2799
g3
(dp2800
g5
F0.59
sg6
VGroovin' Slowly
p2801
sg8
F129.783
sg9
F0.512
sg10
S'raggae'
p2802
sg12
F0.0902
sg13
VJohn Butler Trio
p2803
sg15
I9999
sg16
F0.763
sg17
Nsg18
F2.85e-06
sg19
Nsg20
Nsg21
F0.502
sg22
Nsg23
Nsg24
F-6.165
ssg25
I01
sba(iSong
Song
p2804
(dp2805
g3
(dp2806
g5
F0.0293
sg6
VFade 2 Black
p2807
sg8
F105.096
sg9
F0.721
sg10
S'raggae'
p2808
sg12
F0.313
sg13
VCherine Anderson
p2809
sg15
I9999
sg16
F0.721
sg17
Nsg18
I0
sg19
Nsg20
Nsg21
F0.495
sg22
Nsg23
Nsg24
F-7.61
ssg25
I01
sba(iSong
Song
p2810
(dp2811
g3
(dp2812
g5
F0.0406
sg6
VKeep You
p2813
sg8
F133.973
sg9
F0.893
sg10
S'raggae'
p2814
sg12
F0.0475
sg13
VWild Belle
p2815
sg15
I9999
sg16
F0.64
sg17
Nsg18
F0.00738
sg19
Nsg20
Nsg21
F0.919
sg22
Nsg23
Nsg24
F-5.795
ssg25
I01
sba(iSong
Song
p2816
(dp2817
g3
(dp2818
g5
F0.0111
sg6
VBorn In Babylon
p2819
sg8
F133.951
sg9
F0.576
sg10
S'raggae'
p2820
sg12
F0.0302
sg13
VSOJA
p2821
sg15
I9999
sg16
F0.731
sg17
Nsg18
F0.000235
sg19
Nsg20
Nsg21
F0.724
sg22
Nsg23
Nsg24
F-7.841
ssg25
I01
sba(iSong
Song
p2822
(dp2823
g3
(dp2824
g5
F0.35
sg6
VSuperior
p2825
sg8
F152.348
sg9
F0.756
sg10
S'raggae'
p2826
sg12
F0.112
sg13
VGentleman
p2827
sg15
I9999
sg16
F0.67
sg17
Nsg18
I0
sg19
Nsg20
Nsg21
F0.972
sg22
Nsg23
Nsg24
F-5.561
ssg25
I01
sba(iSong
Song
p2828
(dp2829
g3
(dp2830
g5
F0.336
sg6
VNo Capitalist
p2831
sg8
F86.902
sg9
F0.727
sg10
S'raggae'
p2832
sg12
F0.226
sg13
VKabaka Pyramid
p2833
sg15
I9999
sg16
F0.639
sg17
Nsg18
I0
sg19
Nsg20
Nsg21
F0.666
sg22
Nsg23
Nsg24
F-4.522
ssg25
I01
sba(iSong
Song
p2834
(dp2835
g3
(dp2836
g5
F0.372
sg6
VBrutal Hearts
p2837
sg8
F117.975
sg9
F0.501
sg10
S'raggae'
p2838
sg12
F0.0422
sg13
VBedouin Soundclash
p2839
sg15
I9999
sg16
F0.898
sg17
Nsg18
F0.00863
sg19
Nsg20
Nsg21
F0.527
sg22
Nsg23
Nsg24
F-7.2
ssg25
I01
sba(iSong
Song
p2840
(dp2841
g3
(dp2842
g5
F0.0117
sg6
VPut a Little Love
p2843
sg8
F77.866
sg9
F0.651
sg10
S'raggae'
p2844
sg12
F0.0705
sg13
VNatural Vibrations
p2845
sg15
I9999
sg16
F0.731
sg17
Nsg18
I0
sg19
Nsg20
Nsg21
F0.615
sg22
Nsg23
Nsg24
F-8.755
ssg25
I01
sba(iSong
Song
p2846
(dp2847
g3
(dp2848
g5
F0.171
sg6
VRooted (feat. Irie Love)
p2849
sg8
F134.004
sg9
F0.599
sg10
S'raggae'
p2850
sg12
F0.0468
sg13
VKimie'
p2851
sg15
I9999
sg16
F0.909
sg17
Nsg18
I0
sg19
Nsg20
Nsg21
F0.914
sg22
Nsg23
Nsg24
F-8.047
ssg25
I01
sba(iSong
Song
p2852
(dp2853
g3
(dp2854
g5
F0.107
sg6
VNecta (Butterfly)
p2855
sg8
F144.118
sg9
F0.528
sg10
S'raggae'
p2856
sg12
F0.0862
sg13
VSashamon
p2857
sg15
I9999
sg16
F0.887
sg17
Nsg18
F0.00158
sg19
Nsg20
Nsg21
F0.729
sg22
Nsg23
Nsg24
F-7.59
ssg25
I01
sba(iSong
Song
p2858
(dp2859
g3
(dp2860
g5
F0.31
sg6
VLove Like This
p2861
sg8
F137.219
sg9
F0.571
sg10
S'raggae'
p2862
sg12
F0.0479
sg13
VWild Belle
p2863
sg15
I9999
sg16
F0.928
sg17
Nsg18
F0.00189
sg19
Nsg20
Nsg21
F0.943
sg22
Nsg23
Nsg24
F-7.848
ssg25
I01
sba(iSong
Song
p2864
(dp2865
g3
(dp2866
g5
F0.00176
sg6
VHold On
p2867
sg8
F125.009
sg9
F0.517
sg10
S'raggae'
p2868
sg12
F0.114
sg13
VSolid Vibes
p2869
sg15
I9999
sg16
F0.819
sg17
Nsg18
F0.287
sg19
Nsg20
Nsg21
F0.933
sg22
Nsg23
Nsg24
F-5.766
ssg25
I01
sba(iSong
Song
p2870
(dp2871
g3
(dp2872
g5
F0.0717
sg6
VRebel
p2873
sg8
F88.015
sg9
F0.874
sg10
S'raggae'
p2874
sg12
F0.163
sg13
VCongo Natty
p2875
sg15
I9999
sg16
F0.729
sg17
Nsg18
I0
sg19
Nsg20
Nsg21
F0.559
sg22
Nsg23
Nsg24
F-6.724
ssg25
I01
sba(iSong
Song
p2876
(dp2877
g3
(dp2878
g5
F0.00398
sg6
VBarfly
p2879
sg8
F114.976
sg9
F0.498
sg10
S'raggae'
p2880
sg12
F0.0333
sg13
VDrunk Souls
p2881
sg15
I9999
sg16
F0.752
sg17
Nsg18
F0.00871
sg19
Nsg20
Nsg21
F0.652
sg22
Nsg23
Nsg24
F-8.564
ssg25
I01
sba(iSong
Song
p2882
(dp2883
g3
(dp2884
g5
F0.17
sg6
VRebel In Zion
p2885
sg8
F148.033
sg9
F0.678
sg10
S'raggae'
p2886
sg12
F0.0281
sg13
VNyabinghia
p2887
sg15
I9999
sg16
F0.492
sg17
Nsg18
F1.27e-06
sg19
Nsg20
Nsg21
F0.743
sg22
Nsg23
Nsg24
F-4.201
ssg25
I01
sba(iSong
Song
p2888
(dp2889
g3
(dp2890
g5
F0.056
sg6
VFly Rasta
p2891
sg8
F112.954
sg9
F0.687
sg10
S'raggae'
p2892
sg12
F0.154
sg13
VZiggy Marley
p2893
sg15
I9999
sg16
F0.806
sg17
Nsg18
I0
sg19
Nsg20
Nsg21
F0.831
sg22
Nsg23
Nsg24
F-5.941
ssg25
I01
sba(iSong
Song
p2894
(dp2895
g3
(dp2896
g5
F0.0207
sg6
VTop of the World
p2897
sg8
F93.986
sg9
F0.738
sg10
S'raggae'
p2898
sg12
F0.0305
sg13
VSlightly Stoopid
p2899
sg15
I9999
sg16
F0.673
sg17
Nsg18
F0.00509
sg19
Nsg20
Nsg21
F0.681
sg22
Nsg23
Nsg24
F-6.221
ssg25
I01
sba(iSong
Song
p2900
(dp2901
g3
(dp2902
g5
F0.134
sg6
VSunset
p2903
sg8
F92.023
sg9
F0.879
sg10
S'raggae'
p2904
sg12
F0.0405
sg13
VFarruko
p2905
sg15
I9999
sg16
F0.698
sg17
Nsg18
I0
sg19
Nsg20
Nsg21
F0.597
sg22
Nsg23
Nsg24
F-3.022
ssg25
I01
sba(iSong
Song
p2906
(dp2907
g3
(dp2908
g5
F0.0422
sg6
VMy League
p2909
sg8
F103.051
sg9
F0.88
sg10
S'raggae'
p2910
sg12
F0.0657
sg13
VMavado
p2911
sg15
I9999
sg16
F0.76
sg17
Nsg18
I0
sg19
Nsg20
Nsg21
F0.538
sg22
Nsg23
Nsg24
F-2.494
ssg25
I01
sba(iSong
Song
p2912
(dp2913
g3
(dp2914
g5
F0.193
sg6
VPon Di Cocky - Raw
p2915
sg8
F100.986
sg9
F0.794
sg10
S'raggae'
p2916
sg12
F0.0894
sg13
VAidonia
p2917
sg15
I9999
sg16
F0.818
sg17
Nsg18
I0
sg19
Nsg20
Nsg21
F0.569
sg22
Nsg23
Nsg24
F-7.457
ssg25
I01
sba(iSong
Song
p2918
(dp2919
g3
(dp2920
g5
F0.29
sg6
VVaivn
p2921
sg8
F105.962
sg9
F0.894
sg10
S'raggae'
p2922
sg12
F0.0413
sg13
VDaddy Yankee
p2923
sg15
I9999
sg16
F0.768
sg17
Nsg18
F0.0125
sg19
Nsg20
Nsg21
F0.745
sg22
Nsg23
Nsg24
F-2.564
ssg25
I01
sba(iSong
Song
p2924
(dp2925
g3
(dp2926
g5
F0.276
sg6
VReady (feat. Kris Berry)
p2927
sg8
F88.46
sg9
F0.73
sg10
S'raggae'
p2928
sg12
F0.0354
sg13
VBeans & Fatback
p2929
sg15
I9999
sg16
F0.662
sg17
Nsg18
F4.32e-05
sg19
Nsg20
Nsg21
F0.711
sg22
Nsg23
Nsg24
F-5.743
ssg25
I01
sba(iSong
Song
p2930
(dp2931
g3
(dp2932
g5
F0.279
sg6
VLa Pelea
p2933
sg8
F93.947
sg9
F0.81
sg10
S'raggae'
p2934
sg12
F0.214
sg13
VJ-King y Maximan
p2935
sg15
I9999
sg16
F0.76
sg17
Nsg18
F2.95e-06
sg19
Nsg20
Nsg21
F0.881
sg22
Nsg23
Nsg24
F-3.908
ssg25
I01
sba(iSong
Song
p2936
(dp2937
g3
(dp2938
g5
F0.0445
sg6
VNobody Has To Know (feat. Ty Dolla $ign) - Major Lazer and KickRaux Remix
p2939
sg8
I103
sg9
F0.789
sg10
S'raggae'
p2940
sg12
F0.188
sg13
VKranium
p2941
sg15
I9999
sg16
F0.681
sg17
Nsg18
I0
sg19
Nsg20
Nsg21
F0.506
sg22
Nsg23
Nsg24
F-5.666
ssg25
I01
sba(iSong
Song
p2942
(dp2943
g3
(dp2944
g5
F0.13
sg6
VEncantadora
p2945
sg8
F169.929
sg9
F0.851
sg10
S'raggae'
p2946
sg12
F0.0495
sg13
VYandel
p2947
sg15
I9999
sg16
F0.657
sg17
Nsg18
I0
sg19
Nsg20
Nsg21
F0.9
sg22
Nsg23
Nsg24
F-5.241
ssg25
I01
sba(iSong
Song
p2948
(dp2949
g3
(dp2950
g5
F0.323
sg6
VChain
p2951
sg8
F110.003
sg9
F0.846
sg10
S'raggae'
p2952
sg12
F0.171
sg13
VVybz Kartel
p2953
sg15
I9999
sg16
F0.836
sg17
Nsg18
I0
sg19
Nsg20
Nsg21
F0.411
sg22
Nsg23
Nsg24
F-4.442
ssg25
I01
sba(iSong
Song
p2954
(dp2955
g3
(dp2956
g5
F0.703
sg6
VNuh Like Da Style Yah
p2957
sg8
F119.454
sg9
F0.616
sg10
S'raggae'
p2958
sg12
F0.152
sg13
VBugle
p2959
sg15
I9999
sg16
F0.655
sg17
Nsg18
F0.00153
sg19
Nsg20
Nsg21
F0.724
sg22
Nsg23
Nsg24
F-4.626
ssg25
I01
sba(iSong
Song
p2960
(dp2961
g3
(dp2962
g5
F0.224
sg6
VRebel Hifi
p2963
sg8
F137.885
sg9
F0.748
sg10
S'raggae'
p2964
sg12
F0.188
sg13
VLotek
p2965
sg15
I9999
sg16
F0.764
sg17
Nsg18
F0.0944
sg19
Nsg20
Nsg21
F0.827
sg22
Nsg23
Nsg24
F-6.278
ssg25
I01
sba(iSong
Song
p2966
(dp2967
g3
(dp2968
g5
F0.0125
sg6
VCan't Be My Lover - Curtis Lynch Remix
p2969
sg8
F79.971
sg9
F0.651
sg10
S'raggae'
p2970
sg12
F0.238
sg13
VJohn Legend
p2971
sg15
I9999
sg16
F0.622
sg17
Nsg18
I0
sg19
Nsg20
Nsg21
F0.743
sg22
Nsg23
Nsg24
F-3.861
ssg25
I01
sba(iSong
Song
p2972
(dp2973
g3
(dp2974
g5
F0.0765
sg6
VGood Enuff - Cash Flow Dub
p2975
sg8
F80.014
sg9
F0.837
sg10
S'raggae'
p2976
sg12
F0.283
sg13
VMajor Lazer
p2977
sg15
I9999
sg16
F0.612
sg17
Nsg18
I0
sg19
Nsg20
Nsg21
F0.442
sg22
Nsg23
Nsg24
F-5.318
ssg25
I01
sba(iSong
Song
p2978
(dp2979
g3
(dp2980
g5
F0.0107
sg6
VTorn Apart
p2981
sg8
F138.035
sg9
F0.868
sg10
S'raggae'
p2982
sg12
F0.122
sg13
VSnoop Lion
p2983
sg15
I9999
sg16
F0.777
sg17
Nsg18
F4.84e-06
sg19
Nsg20
Nsg21
F0.764
sg22
Nsg23
Nsg24
I-6
ssg25
I01
sba(iSong
Song
p2984
(dp2985
g3
(dp2986
g5
F0.214
sg6
VCheerleader
p2987
sg8
I100
sg9
F0.738
sg10
S'raggae'
p2988
sg12
F0.0309
sg13
VOMI
p2989
sg15
I9999
sg16
F0.864
sg17
Nsg18
I0
sg19
Nsg20
Nsg21
F0.938
sg22
Nsg23
Nsg24
F-4.323
ssg25
I01
sba(iSong
Song
p2990
(dp2991
g3
(dp2992
g5
F0.0147
sg6
VBedroom Bully
p2993
sg8
F99.761
sg9
F0.713
sg10
S'raggae'
p2994
sg12
F0.26
sg13
VBusy Signal
p2995
sg15
I9999
sg16
F0.597
sg17
Nsg18
I0
sg19
Nsg20
Nsg21
F0.374
sg22
Nsg23
Nsg24
F-6.456
ssg25
I01
sba(iSong
Song
p2996
(dp2997
g3
(dp2998
g5
F0.000679
sg6
VDon't Play No Game That I Can't Win (featuring Santigold)
p2999
sg8
F102.968
sg9
F0.876
sg10
S'raggae'
p3000
sg12
F0.0344
sg13
VSantigold
p3001
sg15
I9999
sg16
F0.654
sg17
Nsg18
F0.125
sg19
Nsg20
Nsg21
F0.44
sg22
Nsg23
Nsg24
F-3.196
ssg25
I01
sba(iSong
Song
p3002
(dp3003
g3
(dp3004
g5
F0.0213
sg6
VMama She Don't Like You - feat. I.Eye
p3005
sg8
F98.003
sg9
F0.748
sg10
S'raggae'
p3006
sg12
F0.0311
sg13
VAlborosie
p3007
sg15
I9999
sg16
F0.784
sg17
Nsg18
I0
sg19
Nsg20
Nsg21
F0.754
sg22
Nsg23
Nsg24
F-3.659
ssg25
I01
sba(iSong
Song
p3008
(dp3009
g3
(dp3010
g5
F0.00346
sg6
VLean On (feat. M & DJ Snake)
p3011
sg8
F98.007
sg9
F0.809
sg10
S'raggae'
p3012
sg12
F0.0625
sg13
VMajor Lazer
p3013
sg15
I9999
sg16
F0.723
sg17
Nsg18
F0.00123
sg19
Nsg20
Nsg21
F0.274
sg22
Nsg23
Nsg24
F-3.081
ssg25
I01
sba(iSong
Song
p3014
(dp3015
g3
(dp3016
g5
F0.0405
sg6
VTurn Me On
p3017
sg8
F106.279
sg9
F0.682
sg10
S'raggae'
p3018
sg12
F0.0361
sg13
VKevin Lyttle
p3019
sg15
I9999
sg16
F0.677
sg17
Nsg18
I0
sg19
Nsg20
Nsg21
F0.875
sg22
Nsg23
Nsg24
F-6.879
ssg25
I01
sba(iSong
Song
p3020
(dp3021
g3
(dp3022
g5
F0.147
sg6
VSmall Axe
p3023
sg8
F97.962
sg9
F0.461
sg10
S'raggae'
p3024
sg12
F0.266
sg13
VBob Marley & The Wailers
p3025
sg15
I9999
sg16
F0.905
sg17
Nsg18
F0.00671
sg19
Nsg20
Nsg21
F0.851
sg22
Nsg23
Nsg24
F-11.054
ssg25
I01
sba(iSong
Song
p3026
(dp3027
g3
(dp3028
g5
F0.304
sg6
VAnimal - Mark Ronson Remix
p3029
sg8
F116.806
sg9
F0.808
sg10
S'raggae'
p3030
sg12
F0.0414
sg13
VMiike Snow
p3031
sg15
I9999
sg16
F0.833
sg17
Nsg18
F0.00918
sg19
Nsg20
Nsg21
F0.961
sg22
Nsg23
Nsg24
F-4.824
ssg25
I01
sba(iSong
Song
p3032
(dp3033
g3
(dp3034
g5
F0.104
sg6
VBonafide Love (feat. Wayne Wonder)
p3035
sg8
F84.487
sg9
F0.711
sg10
S'raggae'
p3036
sg12
F0.0783
sg13
VBuju Banton
p3037
sg15
I9999
sg16
F0.685
sg17
Nsg18
I0
sg19
Nsg20
Nsg21
F0.682
sg22
Nsg23
Nsg24
F-6.06
ssg25
I01
sba(iSong
Song
p3038
(dp3039
g3
(dp3040
g5
F0.0392
sg6
VGolddigger
p3041
sg8
F98.986
sg9
F0.696
sg10
S'raggae'
p3042
sg12
F0.055
sg13
VRandy Valentine
p3043
sg15
I9999
sg16
F0.705
sg17
Nsg18
I0
sg19
Nsg20
Nsg21
F0.923
sg22
Nsg23
Nsg24
F-5.617
ssg25
I01
sba(iSong
Song
p3044
(dp3045
g3
(dp3046
g5
F0.0208
sg6
VWelcome To Jamrock
p3047
sg8
F76.723
sg9
F0.661
sg10
S'raggae'
p3048
sg12
F0.333
sg13
VDamian Marley
p3049
sg15
I9999
sg16
F0.835
sg17
Nsg18
I0
sg19
Nsg20
Nsg21
F0.753
sg22
Nsg23
Nsg24
F-6.502
ssg25
I01
sba(iSong
Song
p3050
(dp3051
g3
(dp3052
g5
F0.138
sg6
VMoney a Di Right Ting
p3053
sg8
F104.751
sg9
F0.833
sg10
S'raggae'
p3054
sg12
F0.331
sg13
VMavado
p3055
sg15
I9999
sg16
F0.636
sg17
Nsg18
I0
sg19
Nsg20
Nsg21
F0.435
sg22
Nsg23
Nsg24
F-1.194
ssg25
I01
sba(iSong
Song
p3056
(dp3057
g3
(dp3058
g5
F0.271
sg6
VWhine Inna Di Dance
p3059
sg8
F79.925
sg9
F0.906
sg10
S'raggae'
p3060
sg12
F0.278
sg13
VSpice
p3061
sg15
I9999
sg16
F0.641
sg17
Nsg18
I0
sg19
Nsg20
Nsg21
F0.813
sg22
Nsg23
Nsg24
F-1.754
ssg25
I01
sba(iSong
Song
p3062
(dp3063
g3
(dp3064
g5
F0.336
sg6
VKing Of The Dancehall
p3065
sg8
F104.855
sg9
F0.827
sg10
S'raggae'
p3066
sg12
F0.111
sg13
VBeenie Man
p3067
sg15
I9999
sg16
F0.858
sg17
Nsg18
I0
sg19
Nsg20
Nsg21
F0.859
sg22
Nsg23
Nsg24
F-5.681
ssg25
I01
sba(iSong
Song
p3068
(dp3069
g3
(dp3070
g5
F0.0732
sg6
VPlaying Games With My Heart
p3071
sg8
F97.983
sg9
F0.36
sg10
S'raggae'
p3072
sg12
F0.0565
sg13
VChristopher Martin
p3073
sg15
I9999
sg16
F0.942
sg17
Nsg18
I0
sg19
Nsg20
Nsg21
F0.774
sg22
Nsg23
Nsg24
F-8.558
ssg25
I01
sba(iSong
Song
p3074
(dp3075
g3
(dp3076
g5
F0.124
sg6
VWho Knows
p3077
sg8
F81.01
sg9
F0.683
sg10
S'raggae'
p3078
sg12
F0.0867
sg13
VProtoje
p3079
sg15
I9999
sg16
F0.681
sg17
Nsg18
I0
sg19
Nsg20
Nsg21
F0.795
sg22
Nsg23
Nsg24
F-6.096
ssg25
I01
sba(iSong
Song
p3080
(dp3081
g3
(dp3082
g5
F0.14
sg6
VGet Free (feat. Amber of Dirty Projectors)
p3083
sg8
F175.953
sg9
F0.538
sg10
S'raggae'
p3084
sg12
F0.0783
sg13
VMajor Lazer
p3085
sg15
I9999
sg16
F0.525
sg17
Nsg18
F0.117
sg19
Nsg20
Nsg21
F0.802
sg22
Nsg23
Nsg24
F-9.366
ssg25
I01
sba(iSong
Song
p3086
(dp3087
g3
(dp3088
g5
F0.0753
sg6
VYou're Wondering Now
p3089
sg8
F133.917
sg9
F0.573
sg10
S'raggae'
p3090
sg12
F0.165
sg13
VAmy Winehouse
p3091
sg15
I9999
sg16
F0.787
sg17
Nsg18
I0
sg19
Nsg20
Nsg21
F0.902
sg22
Nsg23
Nsg24
F-4.756
ssg25
I01
sba(iSong
Song
p3092
(dp3093
g3
(dp3094
g5
F0.0355
sg6
VSoulfly
p3095
sg8
F104.982
sg9
F0.822
sg10
S'raggae'
p3096
sg12
F0.0341
sg13
VDreadsquad
p3097
sg15
I9999
sg16
F0.882
sg17
Nsg18
F0.000636
sg19
Nsg20
Nsg21
F0.938
sg22
Nsg23
Nsg24
F-1.959
ssg25
I01
sba(iSong
Song
p3098
(dp3099
g3
(dp3100
g5
F0.0613
sg6
VUk Warriors
p3101
sg8
F86.952
sg9
F0.737
sg10
S'raggae'
p3102
sg12
F0.301
sg13
VRoots Manuva
p3103
sg15
I9999
sg16
F0.821
sg17
Nsg18
F0.000297
sg19
Nsg20
Nsg21
F0.581
sg22
Nsg23
Nsg24
F-3.844
ssg25
I01
sba(iSong
Song
p3104
(dp3105
g3
(dp3106
g5
F0.214
sg6
VU Wait
p3107
sg8
F90.559
sg9
F0.693
sg10
S'raggae'
p3108
sg12
F0.309
sg13
VPostmen
p3109
sg15
I9999
sg16
F0.654
sg17
Nsg18
I0
sg19
Nsg20
Nsg21
F0.659
sg22
Nsg23
Nsg24
F-6.449
ssg25
I01
sba(iSong
Song
p3110
(dp3111
g3
(dp3112
g5
F0.623
sg6
VI Wanna Be the One
p3113
sg8
F170.683
sg9
F0.657
sg10
S'raggae'
p3114
sg12
F0.31
sg13
VKonshens
p3115
sg15
I9999
sg16
F0.569
sg17
Nsg18
F1.94e-06
sg19
Nsg20
Nsg21
F0.78
sg22
Nsg23
Nsg24
F-6.832
ssg25
I01
sba(iSong
Song
p3116
(dp3117
g3
(dp3118
g5
F0.0479
sg6
VMan Down
p3119
sg8
F155.733
sg9
F0.896
sg10
S'raggae'
p3120
sg12
F0.189
sg13
VRihanna
p3121
sg15
I9999
sg16
F0.457
sg17
Nsg18
I0
sg19
Nsg20
Nsg21
F0.598
sg22
Nsg23
Nsg24
F-3.965
ssg25
I01
sba(iSong
Song
p3122
(dp3123
g3
(dp3124
g5
F0.0057
sg6
VMy Music (feat. Buggsy)
p3125
sg8
F80.786
sg9
F0.733
sg10
S'raggae'
p3126
sg12
F0.322
sg13
VDubkasm
p3127
sg15
I9999
sg16
F0.7
sg17
Nsg18
I0
sg19
Nsg20
Nsg21
F0.733
sg22
Nsg23
Nsg24
F-6.037
ssg25
I01
sba(iSong
Song
p3128
(dp3129
g3
(dp3130
g5
F0.0375
sg6
VWorldwide Traveller - Dreadsquad Remix
p3131
sg8
F77.519
sg9
F0.732
sg10
S'raggae'
p3132
sg12
F0.203
sg13
VChopstick Dubplate
p3133
sg15
I9999
sg16
F0.777
sg17
Nsg18
I0
sg19
Nsg20
Nsg21
F0.843
sg22
Nsg23
Nsg24
F-5.051
ssg25
I01
sba(iSong
Song
p3134
(dp3135
g3
(dp3136
g5
F0.149
sg6
VGingerbread Man
p3137
sg8
F90.009
sg9
F0.716
sg10
S'raggae'
p3138
sg12
F0.0755
sg13
VFlower Fairy
p3139
sg15
I9999
sg16
F0.811
sg17
Nsg18
F0.00268
sg19
Nsg20
Nsg21
F0.688
sg22
Nsg23
Nsg24
F-5.782
ssg25
I01
sba(iSong
Song
p3140
(dp3141
g3
(dp3142
g5
F0.168
sg6
VChampagne Body
p3143
sg8
F97.938
sg9
F0.758
sg10
S'raggae'
p3144
sg12
F0.204
sg13
VGeneral Levy
p3145
sg15
I9999
sg16
F0.876
sg17
Nsg18
I0
sg19
Nsg20
Nsg21
F0.792
sg22
Nsg23
Nsg24
F-11.407
ssg25
I01
sba(iSong
Song
p3146
(dp3147
g3
(dp3148
g5
F0.00208
sg6
VIt Don't Make Any Difference To Me (feat. Wyclef Jean) - Supa Dupes Remix
p3149
sg8
F88.504
sg9
F0.664
sg10
S'raggae'
p3150
sg12
F0.0388
sg13
VKevin Michael
p3151
sg15
I9999
sg16
F0.726
sg17
Nsg18
I0
sg19
Nsg20
Nsg21
F0.387
sg22
Nsg23
Nsg24
F-6.641
ssg25
I01
sba(iSong
Song
p3152
(dp3153
g3
(dp3154
g5
F0.108
sg6
VTiger Balm
p3155
sg8
F79.923
sg9
F0.509
sg10
S'raggae'
p3156
sg12
F0.106
sg13
VHollie Cook
p3157
sg15
I9999
sg16
F0.694
sg17
Nsg18
F0.00708
sg19
Nsg20
Nsg21
F0.694
sg22
Nsg23
Nsg24
F-9.835
ssg25
I01
sba(iSong
Song
p3158
(dp3159
g3
(dp3160
g5
F0.221
sg6
VTu Pun Pun
p3161
sg8
F179.277
sg9
F0.551
sg10
S'raggae'
p3162
sg12
F0.227
sg13
VEl General
p3163
sg15
I9999
sg16
F0.79
sg17
Nsg18
I0
sg19
Nsg20
Nsg21
F0.787
sg22
Nsg23
Nsg24
F-7.674
ssg25
I01
sba(iSong
Song
p3164
(dp3165
g3
(dp3166
g5
F0.154
sg6
VCome Over (feat. Stylo G)
p3167
sg8
F99.969
sg9
F0.782
sg10
S'raggae'
p3168
sg12
F0.0564
sg13
VClean Bandit
p3169
sg15
I9999
sg16
F0.809
sg17
Nsg18
F5.64e-06
sg19
Nsg20
Nsg21
F0.669
sg22
Nsg23
Nsg24
F-5.625
ssg25
I01
sba(iSong
Song
p3170
(dp3171
g3
(dp3172
g5
F0.0336
sg6
VKingston Town
p3173
sg8
F74.007
sg9
F0.819
sg10
S'raggae'
p3174
sg12
F0.0611
sg13
VAlborosie
p3175
sg15
I9999
sg16
F0.779
sg17
Nsg18
I0
sg19
Nsg20
Nsg21
F0.554
sg22
Nsg23
Nsg24
F-3.495
ssg25
I01
sba(iSong
Song
p3176
(dp3177
g3
(dp3178
g5
F0.162
sg6
VOne Dice
p3179
sg8
F75.495
sg9
F0.636
sg10
S'raggae'
p3180
sg12
F0.141
sg13
VLutan Fyah
p3181
sg15
I9999
sg16
F0.614
sg17
Nsg18
I0
sg19
Nsg20
Nsg21
F0.682
sg22
Nsg23
Nsg24
F-5.307
ssg25
I01
sba(iSong
Song
p3182
(dp3183
g3
(dp3184
g5
F0.178
sg6
VBorro Cassette
p3185
sg8
F175.946
sg9
F0.662
sg10
S'raggae'
p3186
sg12
F0.153
sg13
VMaluma
p3187
sg15
I9999
sg16
F0.726
sg17
Nsg18
I0
sg19
Nsg20
Nsg21
F0.729
sg22
Nsg23
Nsg24
F-6.243
ssg25
I01
sba(iSong
Song
p3188
(dp3189
g3
(dp3190
g5
F0.0035
sg6
VSpecial Delivery
p3191
sg8
F96.028
sg9
F0.694
sg10
S'raggae'
p3192
sg12
F0.0389
sg13
VVybz Kartel
p3193
sg15
I9999
sg16
F0.808
sg17
Nsg18
F0.000833
sg19
Nsg20
Nsg21
F0.332
sg22
Nsg23
Nsg24
F-5.67
ssg25
I01
sba(iSong
Song
p3194
(dp3195
g3
(dp3196
g5
F0.0586
sg6
VWhine Up - English Version
p3197
sg8
F125.011
sg9
F0.554
sg10
S'raggae'
p3198
sg12
F0.0542
sg13
VKat Deluna
p3199
sg15
I9999
sg16
F0.821
sg17
Nsg18
F2.81e-06
sg19
Nsg20
Nsg21
F0.472
sg22
Nsg23
Nsg24
F-5.993
ssg25
I01
sba(iSong
Song
p3200
(dp3201
g3
(dp3202
g5
F0.0217
sg6
VBlood Money
p3203
sg8
F149.368
sg9
F0.793
sg10
S'raggae'
p3204
sg12
F0.107
sg13
V10 Ft. Ganja Plant
p3205
sg15
I9999
sg16
F0.789
sg17
Nsg18
F0.826
sg19
Nsg20
Nsg21
F0.743
sg22
Nsg23
Nsg24
F-6.629
ssg25
I01
sba(iSong
Song
p3206
(dp3207
g3
(dp3208
g5
F0.0476
sg6
VKunta Kinte Dub
p3209
sg8
F140.644
sg9
F0.467
sg10
S'raggae'
p3210
sg12
F0.0708
sg13
VThe Revolutionaries
p3211
sg15
I9999
sg16
F0.799
sg17
Nsg18
F0.816
sg19
Nsg20
Nsg21
F0.533
sg22
Nsg23
Nsg24
F-11.541
ssg25
I01
sba(iSong
Song
p3212
(dp3213
g3
(dp3214
g5
F0.00438
sg6
VOne Step Forward
p3215
sg8
F131.691
sg9
F0.349
sg10
S'raggae'
p3216
sg12
F0.119
sg13
VMax Romeo
p3217
sg15
I9999
sg16
F0.929
sg17
Nsg18
F1.2e-06
sg19
Nsg20
Nsg21
F0.788
sg22
Nsg23
Nsg24
F-13.612
ssg25
I01
sba(iSong
Song
p3218
(dp3219
g3
(dp3220
g5
F0.788
sg6
VKing in My Empire (with Cornel Campbell)
p3221
sg8
F126.007
sg9
F0.241
sg10
S'raggae'
p3222
sg12
F0.0601
sg13
VRhythm & Sound
p3223
sg15
I9999
sg16
F0.882
sg17
Nsg18
F0.432
sg19
Nsg20
Nsg21
F0.718
sg22
Nsg23
Nsg24
F-16.648
ssg25
I01
sba(iSong
Song
p3224
(dp3225
g3
(dp3226
g5
F0.188
sg6
VScreaming Target
p3227
sg8
F69.116
sg9
F0.483
sg10
S'raggae'
p3228
sg12
F0.428
sg13
VBig Youth
p3229
sg15
I9999
sg16
F0.834
sg17
Nsg18
F0.00803
sg19
Nsg20
Nsg21
F0.292
sg22
Nsg23
Nsg24
F-8.834
ssg25
I01
sba(iSong
Song
p3230
(dp3231
g3
(dp3232
g5
F0.0312
sg6
VSo Jah Sey Dub
p3233
sg8
F76.767
sg9
F0.42
sg10
S'raggae'
p3234
sg12
F0.101
sg13
VThe Aggrovators
p3235
sg15
I9999
sg16
F0.734
sg17
Nsg18
F0.0569
sg19
Nsg20
Nsg21
F0.573
sg22
Nsg23
Nsg24
F-11.126
ssg25
I01
sba(iSong
Song
p3236
(dp3237
g3
(dp3238
g5
F0.047
sg6
VDaphne
p3239
sg8
F80.151
sg9
F0.374
sg10
S'raggae'
p3240
sg12
F0.073
sg13
VSly & Robbie
p3241
sg15
I9999
sg16
F0.61
sg17
Nsg18
F0.873
sg19
Nsg20
Nsg21
F0.735
sg22
Nsg23
Nsg24
F-9.394
ssg25
I01
sba(iSong
Song
p3242
(dp3243
g3
(dp3244
g5
F0.0555
sg6
VWhite Birds (Instrumental Version)
p3245
sg8
F119.061
sg9
F0.422
sg10
S'raggae'
p3246
sg12
F0.106
sg13
VBlundetto
p3247
sg15
I9999
sg16
F0.919
sg17
Nsg18
F0.855
sg19
Nsg20
Nsg21
F0.468
sg22
Nsg23
Nsg24
F-9.152
ssg25
I01
sba(iSong
Song
p3248
(dp3249
g3
(dp3250
g5
F0.00222
sg6
VBurru Saturday
p3251
sg8
F131.406
sg9
F0.621
sg10
S'raggae'
p3252
sg12
F0.0402
sg13
VSly
p3253
sg15
I9999
sg16
F0.796
sg17
Nsg18
F0.84
sg19
Nsg20
Nsg21
F0.397
sg22
Nsg23
Nsg24
F-14.566
ssg25
I01
sba(iSong
Song
p3254
(dp3255
g3
(dp3256
g5
F0.0391
sg6
VEnjoyment Dub
p3257
sg8
F141.338
sg9
F0.524
sg10
S'raggae'
p3258
sg12
F0.0469
sg13
VScientist
p3259
sg15
I9999
sg16
F0.78
sg17
Nsg18
F0.95
sg19
Nsg20
Nsg21
F0.738
sg22
Nsg23
Nsg24
F-6.936
ssg25
I01
sba(iSong
Song
p3260
(dp3261
g3
(dp3262
g5
F0.0156
sg6
VJah In Dub
p3263
sg8
F149.451
sg9
F0.274
sg10
S'raggae'
p3264
sg12
F0.076
sg13
VSly & Robbie
p3265
sg15
I9999
sg16
F0.779
sg17
Nsg18
F0.881
sg19
Nsg20
Nsg21
F0.883
sg22
Nsg23
Nsg24
F-16.647
ssg25
I01
sba(iSong
Song
p3266
(dp3267
g3
(dp3268
g5
F0.0549
sg6
VBlack Roses
p3269
sg8
F84.793
sg9
F0.516
sg10
S'raggae'
p3270
sg12
F0.0815
sg13
VBarrington Levy
p3271
sg15
I9999
sg16
F0.801
sg17
Nsg18
F0.0083
sg19
Nsg20
Nsg21
F0.877
sg22
Nsg23
Nsg24
F-7.022
ssg25
I01
sba(iSong
Song
p3272
(dp3273
g3
(dp3274
g5
F0.00313
sg6
VFeast Of The Passover
p3275
sg8
F142.905
sg9
F0.49
sg10
S'raggae'
p3276
sg12
F0.0977
sg13
VThe Congos
p3277
sg15
I9999
sg16
F0.747
sg17
Nsg18
F0.562
sg19
Nsg20
Nsg21
F0.737
sg22
Nsg23
Nsg24
F-8.605
ssg25
I01
sba(iSong
Song
p3278
(dp3279
g3
(dp3280
g5
F0.00283
sg6
VLand of Version
p3281
sg8
F121.936
sg9
F0.27
sg10
S'raggae'
p3282
sg12
F0.0541
sg13
VJudah Eskender Tafari
p3283
sg15
I9999
sg16
F0.886
sg17
Nsg18
F0.129
sg19
Nsg20
Nsg21
F0.819
sg22
Nsg23
Nsg24
F-16.073
ssg25
I01
sba(iSong
Song
p3284
(dp3285
g3
(dp3286
g5
F0.0248
sg6
VChanting Down The Wicked
p3287
sg8
F135.059
sg9
F0.372
sg10
S'raggae'
p3288
sg12
F0.0763
sg13
VThe Robotiks
p3289
sg15
I9999
sg16
F0.756
sg17
Nsg18
F0.88
sg19
Nsg20
Nsg21
F0.479
sg22
Nsg23
Nsg24
F-14.385
ssg25
I01
sba(iSong
Song
p3290
(dp3291
g3
(dp3292
g5
F0.237
sg6
VZionyouth
p3293
sg8
F141.571
sg9
F0.519
sg10
S'raggae'
p3294
sg12
F0.0719
sg13
VVin Gordon
p3295
sg15
I9999
sg16
F0.907
sg17
Nsg18
F0.884
sg19
Nsg20
Nsg21
F0.982
sg22
Nsg23
Nsg24
F-14.42
ssg25
I01
sba(iSong
Song
p3296
(dp3297
g3
(dp3298
g5
F0.00258
sg6
VThe Bomber
p3299
sg8
F161.33
sg9
F0.566
sg10
S'raggae'
p3300
sg12
F0.135
sg13
VSly
p3301
sg15
I9999
sg16
F0.663
sg17
Nsg18
F0.887
sg19
Nsg20
Nsg21
F0.826
sg22
Nsg23
Nsg24
F-13.662
ssg25
I01
sba(iSong
Song
p3302
(dp3303
g3
(dp3304
g5
F0.00867
sg6
VSailors Dub
p3305
sg8
F144.405
sg9
F0.485
sg10
S'raggae'
p3306
sg12
F0.0636
sg13
VThe Crazy Mad Professor
p3307
sg15
I9999
sg16
F0.718
sg17
Nsg18
F0.903
sg19
Nsg20
Nsg21
F0.721
sg22
Nsg23
Nsg24
F-7.866
ssg25
I01
sba(iSong
Song
p3308
(dp3309
g3
(dp3310
g5
F0.0259
sg6
VJail House Dub
p3311
sg8
F134.416
sg9
F0.485
sg10
S'raggae'
p3312
sg12
F0.0637
sg13
VMad Professor
p3313
sg15
I9999
sg16
F0.857
sg17
Nsg18
F0.712
sg19
Nsg20
Nsg21
F0.501
sg22
Nsg23
Nsg24
F-10.757
ssg25
I01
sba(iSong
Song
p3314
(dp3315
g3
(dp3316
g5
F0.207
sg6
VOriginal Dub
p3317
sg8
F144.807
sg9
F0.836
sg10
S'raggae'
p3318
sg12
F0.0903
sg13
VKing Tubby
p3319
sg15
I9999
sg16
F0.718
sg17
Nsg18
F0.837
sg19
Nsg20
Nsg21
F0.878
sg22
Nsg23
Nsg24
F-7.406
ssg25
I01
sba(iSong
Song
p3320
(dp3321
g3
(dp3322
g5
F0.044
sg6
VJah Do That
p3323
sg8
F74.422
sg9
F0.585
sg10
S'raggae'
p3324
sg12
F0.122
sg13
VPrince Far I
p3325
sg15
I9999
sg16
F0.75
sg17
Nsg18
F0.0121
sg19
Nsg20
Nsg21
F0.843
sg22
Nsg23
Nsg24
F-9.596
ssg25
I01
sba(iSong
Song
p3326
(dp3327
g3
(dp3328
g5
F0.0238
sg6
VFisher Man Dub
p3329
sg8
F83.769
sg9
F0.584
sg10
S'raggae'
p3330
sg12
F0.0486
sg13
VLee "Scratch" Perry
p3331
sg15
I9999
sg16
F0.73
sg17
Nsg18
F0.0798
sg19
Nsg20
Nsg21
F0.414
sg22
Nsg23
Nsg24
F-7.441
ssg25
I01
sba(iSong
Song
p3332
(dp3333
g3
(dp3334
g5
F0.0041
sg6
VPeace & Love - Feat. Linval Thompson
p3335
sg8
F129.956
sg9
F0.832
sg10
S'raggae'
p3336
sg12
F0.0403
sg13
VDubmatix
p3337
sg15
I9999
sg16
F0.69
sg17
Nsg18
F0.000205
sg19
Nsg20
Nsg21
F0.777
sg22
Nsg23
Nsg24
F-7.366
ssg25
I01
sba(iSong
Song
p3338
(dp3339
g3
(dp3340
g5
F0.104
sg6
VRoots and Culture
p3341
sg8
F144.039
sg9
F0.584
sg10
S'raggae'
p3342
sg12
F0.0825
sg13
VMikey Dread
p3343
sg15
I9999
sg16
F0.73
sg17
Nsg18
F0.0406
sg19
Nsg20
Nsg21
F0.817
sg22
Nsg23
Nsg24
F-9.058
ssg25
I01
sba(iSong
Song
p3344
(dp3345
g3
(dp3346
g5
F0.00676
sg6
VSatta Dub
p3347
sg8
F131.07
sg9
F0.367
sg10
S'raggae'
p3348
sg12
F0.0418
sg13
VJah Shaka & Mad Professor
p3349
sg15
I9999
sg16
F0.67
sg17
Nsg18
F0.828
sg19
Nsg20
Nsg21
F0.313
sg22
Nsg23
Nsg24
F-15.957
ssg25
I01
sba(iSong
Song
p3350
(dp3351
g3
(dp3352
g5
F0.194
sg6
VLoser
p3353
sg8
F87.732
sg9
F0.641
sg10
S'raggae'
p3354
sg12
F0.0481
sg13
VDerrick Harriott
p3355
sg15
I9999
sg16
F0.725
sg17
Nsg18
F0.00498
sg19
Nsg20
Nsg21
F0.786
sg22
Nsg23
Nsg24
F-6.135
ssg25
I01
sba(iSong
Song
p3356
(dp3357
g3
(dp3358
g5
F0.00573
sg6
VWaiting In The Park Dub
p3359
sg8
F131.198
sg9
F0.59
sg10
S'raggae'
p3360
sg12
F0.0388
sg13
VThe Revolutionaries
p3361
sg15
I9999
sg16
F0.695
sg17
Nsg18
F0.806
sg19
Nsg20
Nsg21
F0.827
sg22
Nsg23
Nsg24
F-11.002
ssg25
I01
sba(iSong
Song
p3362
(dp3363
g3
(dp3364
g5
F0.00157
sg6
VJah Shall Reign Dub
p3365
sg8
F128.218
sg9
F0.352
sg10
S'raggae'
p3366
sg12
F0.0526
sg13
VJah Shaka
p3367
sg15
I9999
sg16
F0.804
sg17
Nsg18
F0.911
sg19
Nsg20
Nsg21
F0.886
sg22
Nsg23
Nsg24
F-16.076
ssg25
I01
sba(iSong
Song
p3368
(dp3369
g3
(dp3370
g5
F0.332
sg6
VDrum Song Dub
p3371
sg8
F112.03
sg9
F0.538
sg10
S'raggae'
p3372
sg12
F0.0642
sg13
VScientist
p3373
sg15
I9999
sg16
F0.562
sg17
Nsg18
F0.82
sg19
Nsg20
Nsg21
F0.823
sg22
Nsg23
Nsg24
F-14.683
ssg25
I01
sba(iSong
Song
p3374
(dp3375
g3
(dp3376
g5
F0.342
sg6
VJudge Dread
p3377
sg8
F87.978
sg9
F0.563
sg10
S'raggae'
p3378
sg12
F0.216
sg13
VPrince Buster
p3379
sg15
I9999
sg16
F0.795
sg17
Nsg18
F0.0224
sg19
Nsg20
Nsg21
F0.896
sg22
Nsg23
Nsg24
F-7.988
ssg25
I01
sba(iSong
Song
p3380
(dp3381
g3
(dp3382
g5
F0.0135
sg6
VDub Glory
p3383
sg8
F80.01
sg9
F0.254
sg10
S'raggae'
p3384
sg12
F0.152
sg13
VSly & Robbie
p3385
sg15
I9999
sg16
F0.774
sg17
Nsg18
F0.818
sg19
Nsg20
Nsg21
F0.773
sg22
Nsg23
Nsg24
F-15.485
ssg25
I01
sba(iSong
Song
p3386
(dp3387
g3
(dp3388
g5
F9.74e-05
sg6
VRude Boy
p3389
sg8
F150.257
sg9
F0.427
sg10
S'raggae'
p3390
sg12
F0.106
sg13
VPrince Jammy
p3391
sg15
I9999
sg16
F0.717
sg17
Nsg18
F0.922
sg19
Nsg20
Nsg21
F0.773
sg22
Nsg23
Nsg24
F-11.129
ssg25
I01
sba(iSong
Song
p3392
(dp3393
g3
(dp3394
g5
F0.0299
sg6
VConquering Lion
p3395
sg8
F132.212
sg9
F0.453
sg10
S'raggae'
p3396
sg12
F0.0734
sg13
VYabby You
p3397
sg15
I9999
sg16
F0.854
sg17
Nsg18
I0
sg19
Nsg20
Nsg21
F0.816
sg22
Nsg23
Nsg24
F-12.82
ssg25
I01
sba(iSong
Song
p3398
(dp3399
g3
(dp3400
g5
F0.141
sg6
VSponji Reggae
p3401
sg8
F74.552
sg9
F0.656
sg10
S'raggae'
p3402
sg12
F0.0552
sg13
VBlack Uhuru
p3403
sg15
I9999
sg16
F0.796
sg17
Nsg18
F0.0063
sg19
Nsg20
Nsg21
F0.895
sg22
Nsg23
Nsg24
F-7.451
ssg25
I01
sba(iSong
Song
p3404
(dp3405
g3
(dp3406
g5
F0.00931
sg6
VBad Days Dub
p3407
sg8
F131.835
sg9
F0.546
sg10
S'raggae'
p3408
sg12
F0.0408
sg13
VScientist
p3409
sg15
I9999
sg16
F0.632
sg17
Nsg18
F0.509
sg19
Nsg20
Nsg21
F0.727
sg22
Nsg23
Nsg24
F-13.714
ssg25
I01
sba(iSong
Song
p3410
(dp3411
g3
(dp3412
g5
F0.0202
sg6
VThrow Away Your Gun - 1991 Digital Remaster
p3413
sg8
F147.074
sg9
F0.542
sg10
S'raggae'
p3414
sg12
F0.256
sg13
VPrince Far I
p3415
sg15
I9999
sg16
F0.787
sg17
Nsg18
F0.0303
sg19
Nsg20
Nsg21
F0.777
sg22
Nsg23
Nsg24
F-9.345
ssg25
I01
sba(iSong
Song
p3416
(dp3417
g3
(dp3418
g5
F0.0621
sg6
VZion Gate Dub
p3419
sg8
F147.73
sg9
F0.539
sg10
S'raggae'
p3420
sg12
F0.0936
sg13
VKing Tubby
p3421
sg15
I9999
sg16
F0.736
sg17
Nsg18
F0.0312
sg19
Nsg20
Nsg21
F0.765
sg22
Nsg23
Nsg24
F-8.316
ssg25
I01
sba(iSong
Song
p3422
(dp3423
g3
(dp3424
g5
F0.0408
sg6
VWhite Rice Dub
p3425
sg8
F137.332
sg9
F0.662
sg10
S'raggae'
p3426
sg12
F0.112
sg13
VJah Thomas
p3427
sg15
I9999
sg16
F0.761
sg17
Nsg18
F0.858
sg19
Nsg20
Nsg21
F0.458
sg22
Nsg23
Nsg24
F-10.303
ssg25
I01
sba(iSong
Song
p3428
(dp3429
g3
(dp3430
g5
F0.0413
sg6
VDub Of Excellence
p3431
sg8
F142.585
sg9
F0.545
sg10
S'raggae'
p3432
sg12
F0.105
sg13
VMad Professor and Scientist
p3433
sg15
I9999
sg16
F0.711
sg17
Nsg18
F0.939
sg19
Nsg20
Nsg21
F0.771
sg22
Nsg23
Nsg24
F-10.905
ssg25
I01
sba(iSong
Song
p3434
(dp3435
g3
(dp3436
g5
F0.0928
sg6
VRocker's Almighty Dub
p3437
sg8
F147.375
sg9
F0.4
sg10
S'raggae'
p3438
sg12
F0.128
sg13
VThe Aggrovators
p3439
sg15
I9999
sg16
F0.716
sg17
Nsg18
F0.0362
sg19
Nsg20
Nsg21
F0.772
sg22
Nsg23
Nsg24
F-13.519
ssg25
I01
sba(iSong
Song
p3440
(dp3441
g3
(dp3442
g5
F0.121
sg6
VNatty Dread A Weh She Want
p3443
sg8
F141.602
sg9
F0.494
sg10
S'raggae'
p3444
sg12
F0.136
sg13
VHorace Andy
p3445
sg15
I9999
sg16
F0.845
sg17
Nsg18
I0
sg19
Nsg20
Nsg21
F0.951
sg22
Nsg23
Nsg24
F-10.527
ssg25
I01
sba(iSong
Song
p3446
(dp3447
g3
(dp3448
g5
F0.0403
sg6
VDub On Fire
p3449
sg8
F80.975
sg9
F0.747
sg10
S'raggae'
p3450
sg12
F0.0503
sg13
VKing Tubby
p3451
sg15
I9999
sg16
F0.576
sg17
Nsg18
F0.852
sg19
Nsg20
Nsg21
F0.293
sg22
Nsg23
Nsg24
F-6.444
ssg25
I01
sba(iSong
Song
p3452
(dp3453
g3
(dp3454
g5
F0.000448
sg6
VNegus Negast, Pt. 2
p3455
sg8
F133.033
sg9
F0.313
sg10
S'raggae'
p3456
sg12
F0.108
sg13
VRootz Dimensionz
p3457
sg15
I9999
sg16
F0.787
sg17
Nsg18
F0.918
sg19
Nsg20
Nsg21
F0.594
sg22
Nsg23
Nsg24
F-21.572
ssg25
I01
sba(iSong
Song
p3458
(dp3459
g3
(dp3460
g5
F0.128
sg6
VJah Jah The Conqueror
p3461
sg8
F153.779
sg9
F0.483
sg10
S'raggae'
p3462
sg12
F0.323
sg13
VLinval Thompson
p3463
sg15
I9999
sg16
F0.776
sg17
Nsg18
F0.000837
sg19
Nsg20
Nsg21
F0.863
sg22
Nsg23
Nsg24
F-11.744
ssg25
I01
sba(iSong
Song
p3464
(dp3465
g3
(dp3466
g5
F0.352
sg6
VDream Land
p3467
sg8
F72.842
sg9
F0.485
sg10
S'raggae'
p3468
sg12
F0.321
sg13
VBunny Wailer
p3469
sg15
I9999
sg16
F0.786
sg17
Nsg18
F0.00467
sg19
Nsg20
Nsg21
F0.96
sg22
Nsg23
Nsg24
F-13.012
ssg25
I01
sba(iSong
Song
p3470
(dp3471
g3
(dp3472
g5
F0.00942
sg6
VHit The Road Jack
p3473
sg8
F141.714
sg9
F0.721
sg10
S'raggae'
p3474
sg12
F0.11
sg13
VBig Youth
p3475
sg15
I9999
sg16
F0.596
sg17
Nsg18
F0.000201
sg19
Nsg20
Nsg21
F0.794
sg22
Nsg23
Nsg24
F-9.924
ssg25
I01
sba(iSong
Song
p3476
(dp3477
g3
(dp3478
g5
F0.253
sg6
VUnder Mi Sensi
p3479
sg8
F151.521
sg9
F0.627
sg10
S'raggae'
p3480
sg12
F0.1
sg13
VBarrington Levy
p3481
sg15
I9999
sg16
F0.768
sg17
Nsg18
F5.19e-06
sg19
Nsg20
Nsg21
F0.521
sg22
Nsg23
Nsg24
F-6.536
ssg25
I01
sba(iSong
Song
p3482
(dp3483
g3
(dp3484
g5
F1.7e-05
sg6
VDub To Africa
p3485
sg8
F129.815
sg9
F0.439
sg10
S'raggae'
p3486
sg12
F0.0448
sg13
VPrince Far I
p3487
sg15
I9999
sg16
F0.755
sg17
Nsg18
F0.699
sg19
Nsg20
Nsg21
F0.499
sg22
Nsg23
Nsg24
F-11.276
ssg25
I01
sba(iSong
Song
p3488
(dp3489
g3
(dp3490
g5
F0.00264
sg6
VJamaican Proverb
p3491
sg8
F158.492
sg9
F0.6
sg10
S'raggae'
p3492
sg12
F0.138
sg13
VDub Syndicate
p3493
sg15
I9999
sg16
F0.809
sg17
Nsg18
F4.63e-06
sg19
Nsg20
Nsg21
F0.657
sg22
Nsg23
Nsg24
F-7.949
ssg25
I01
sba(iSong
Song
p3494
(dp3495
g3
(dp3496
g5
F0.137
sg6
VSlow Motion Dub
p3497
sg8
F169.38
sg9
F0.583
sg10
S'raggae'
p3498
sg12
F0.112
sg13
VKing Jammy
p3499
sg15
I9999
sg16
F0.637
sg17
Nsg18
F0.853
sg19
Nsg20
Nsg21
F0.316
sg22
Nsg23
Nsg24
F-14.271
ssg25
I01
sba.