(lp0
(lp1
F0.1447700256622516
aF0.7515430463576159
aF0.6835923013245032
aF0.011440381216884232
aF0.7727483443708605
aa(lp2
F0.9433155080213902
aF0.2969092691622109
aF0.09890735983363064
aF0.8761265597147959
aF0.10491868805704202
aa(lp3
F0.6257398255813953
aF0.6310363372093023
aF0.48608793604651157
aF0.022909665654067213
aF0.6071460755813951
aa(lp4
F0.14219881701244794
aF0.4174840940525589
aF0.5962394513139696
aF0.8089100968188103
aF0.12612216735822934
aa(lp5
F0.16465013158562367
aF0.6284156448202959
aF0.5337558893868921
aF0.015578907551793392
aF0.29391295560253705
aa(lp6
F0.8850022598870058
aF0.5636802259887006
aF0.21552310395480218
aF0.8591220338983049
aF0.3567406779661017
aa(lp7
F0.07506997499176249
aF0.6280197693574959
aF0.7312250411861616
aF0.7358731466227346
aF0.558667215815486
aa(lp8
F0.8208918406072101
aF0.4682182163187856
aF0.24473660050600848
aF0.04589044201770909
aF0.24445483870967727
aa(lp9
F0.05711913573323535
aF0.5613559322033899
aF0.8345906411201172
aF0.016416720434781318
aF0.6093047162859253
aa(lp10
F0.021235009713321318
aF0.4333718381112982
aF0.8825267003934794
aF0.03608465190556373
aF0.29722271500843195
aa.