(lp0
(iCluster
Cluster
p1
(dp2
S'attributes'
p3
(dp4
S'accousticness'
p5
F0.1447700256622516
sS'energy'
p6
F0.6835923013245032
sS'cluster_id'
p7
I0
sS'danceability'
p8
F0.7515430463576159
sS'valence'
p9
F0.7727483443708605
sS'instrumentalness'
p10
F0.011440381216884232
ssba(iCluster
Cluster
p11
(dp12
g3
(dp13
g5
F0.9433155080213902
sg6
F0.09890735983363064
sg7
I1
sg8
F0.2969092691622109
sg9
F0.10491868805704202
sg10
F0.8761265597147959
ssba(iCluster
Cluster
p14
(dp15
g3
(dp16
g5
F0.6257398255813953
sg6
F0.48608793604651157
sg7
I2
sg8
F0.6310363372093023
sg9
F0.6071460755813951
sg10
F0.022909665654067213
ssba(iCluster
Cluster
p17
(dp18
g3
(dp19
g5
F0.14219881701244794
sg6
F0.5962394513139696
sg7
I3
sg8
F0.4174840940525589
sg9
F0.12612216735822934
sg10
F0.8089100968188103
ssba(iCluster
Cluster
p20
(dp21
g3
(dp22
g5
F0.16465013158562367
sg6
F0.5337558893868921
sg7
I4
sg8
F0.6284156448202959
sg9
F0.29391295560253705
sg10
F0.015578907551793392
ssba(iCluster
Cluster
p23
(dp24
g3
(dp25
g5
F0.8850022598870058
sg6
F0.21552310395480218
sg7
I5
sg8
F0.5636802259887006
sg9
F0.3567406779661017
sg10
F0.8591220338983049
ssba(iCluster
Cluster
p26
(dp27
g3
(dp28
g5
F0.07506997499176249
sg6
F0.7312250411861616
sg7
I6
sg8
F0.6280197693574959
sg9
F0.558667215815486
sg10
F0.7358731466227346
ssba(iCluster
Cluster
p29
(dp30
g3
(dp31
g5
F0.8208918406072101
sg6
F0.24473660050600848
sg7
I7
sg8
F0.4682182163187856
sg9
F0.24445483870967727
sg10
F0.04589044201770909
ssba(iCluster
Cluster
p32
(dp33
g3
(dp34
g5
F0.05711913573323535
sg6
F0.8345906411201172
sg7
I8
sg8
F0.5613559322033899
sg9
F0.6093047162859253
sg10
F0.016416720434781318
ssba(iCluster
Cluster
p35
(dp36
g3
(dp37
g5
F0.021235009713321318
sg6
F0.8825267003934794
sg7
I9
sg8
F0.4333718381112982
sg9
F0.29722271500843195
sg10
F0.03608465190556373
ssba.