(lp0
(iSong
Song
p1
(dp2
S'attributes'
p3
(dp4
S'accousticness'
p5
F0.000545
sS'title'
p6
VI'm Glad Trouble Don't Last Always
p7
sS'tempo'
p8
F0.327876
sS'energy'
p9
F0.522
sS'from_playlist'
p10
S'blues'
p11
sS'speechiness'
p12
F0.0232
sS'artist_name'
p13
VLuke Winslow-King
p14
sS'cluster_id'
p15
I9999
sS'danceability'
p16
F0.579
sS'end_of_fade_in'
p17
NsS'artist_familiarity'
p18
NsS'duration'
p19
NsS'loudness'
p20
F0.8812666666666666
sS'valence'
p21
F0.286
sS'start_of_fade_out'
p22
NsS'artist_hotness'
p23
NsS'instrumentalness'
p24
F0.00811
ssS'isNormalized'
p25
I01
sS'hasData'
p26
I01
sba(iSong
Song
p27
(dp28
g3
(dp29
g5
F0.228
sg6
VThousand Mile Night
p30
sg8
F0.562608
sg9
F0.35
sg10
S'blues'
p31
sg12
F0.0471
sg13
VJonah Tolchin
p32
sg15
I9999
sg16
F0.584
sg17
Nsg18
Nsg19
Nsg20
F0.7676333333333333
sg21
F0.498
sg22
Nsg23
Nsg24
F0.0719
ssg25
I01
sg26
I01
sba(iSong
Song
p33
(dp34
g3
(dp35
g5
F0.0234
sg6
VNo Good
p36
sg8
F0.43410000000000004
sg9
F0.925
sg10
S'blues'
p37
sg12
F0.185
sg13
VKaleo
p38
sg15
I9999
sg16
F0.378
sg17
Nsg18
Nsg19
Nsg20
F0.9369833333333334
sg21
F0.584
sg22
Nsg23
Nsg24
F0.00062
ssg25
I01
sg26
I01
sba(iSong
Song
p39
(dp40
g3
(dp41
g5
F0.351
sg6
VOn Our Own
p42
sg8
F0.41902
sg9
F0.504
sg10
S'blues'
p43
sg12
F0.0267
sg13
VThe Suitcase Junket
p44
sg15
I9999
sg16
F0.509
sg17
Nsg18
Nsg19
Nsg20
F0.88685
sg21
F0.327
sg22
Nsg23
Nsg24
F0.15
ssg25
I01
sg26
I01
sba(iSong
Song
p45
(dp46
g3
(dp47
g5
F0.383
sg6
VBad Things
p48
sg8
F0.323224
sg9
F0.586
sg10
S'blues'
p49
sg12
F0.0375
sg13
VRayland Baxter
p50
sg15
I9999
sg16
F0.318
sg17
Nsg18
Nsg19
Nsg20
F0.8732333333333333
sg21
F0.211
sg22
Nsg23
Nsg24
I0
ssg25
I01
sg26
I01
sba(iSong
Song
p51
(dp52
g3
(dp53
g5
F0.0286
sg6
VBottle Rocket
p54
sg8
F0.368184
sg9
F0.634
sg10
S'blues'
p55
sg12
F0.0522
sg13
VThe Weeks
p56
sg15
I9999
sg16
F0.679
sg17
Nsg18
Nsg19
Nsg20
F0.9449166666666666
sg21
F0.642
sg22
Nsg23
Nsg24
I0
ssg25
I01
sg26
I01
sba(iSong
Song
p57
(dp58
g3
(dp59
g5
F0.285
sg6
VIt Came to Me
p60
sg8
F0.46838799999999997
sg9
F0.931
sg10
S'blues'
p61
sg12
F0.0388
sg13
VThe Barr Brothers
p62
sg15
I9999
sg16
F0.516
sg17
Nsg18
Nsg19
Nsg20
F0.89515
sg21
F0.578
sg22
Nsg23
Nsg24
F0.013
ssg25
I01
sg26
I01
sba(iSong
Song
p63
(dp64
g3
(dp65
g5
F0.0245
sg6
VHades Pleads
p66
sg8
F0.659292
sg9
F0.632
sg10
S'blues'
p67
sg12
F0.161
sg13
VParker Millsap
p68
sg15
I9999
sg16
F0.568
sg17
Nsg18
Nsg19
Nsg20
F0.8840333333333333
sg21
F0.711
sg22
Nsg23
Nsg24
F0.000246
ssg25
I01
sg26
I01
sba(iSong
Song
p69
(dp70
g3
(dp71
g5
F0.479
sg6
VWhite House Road - OurVinyl Sessions
p72
sg8
F0.31972
sg9
F0.41
sg10
S'blues'
p73
sg12
F0.0396
sg13
VTyler Childers
p74
sg15
I9999
sg16
F0.406
sg17
Nsg18
Nsg19
Nsg20
F0.8558333333333333
sg21
F0.368
sg22
Nsg23
Nsg24
I0
ssg25
I01
sg26
I01
sba(iSong
Song
p75
(dp76
g3
(dp77
g5
F0.112
sg6
VSallisaw Blue
p78
sg8
F0.6030800000000001
sg9
F0.866
sg10
S'blues'
p79
sg12
F0.0691
sg13
VJohn Moreland
p80
sg15
I9999
sg16
F0.395
sg17
Nsg18
Nsg19
Nsg20
F0.8825500000000001
sg21
F0.836
sg22
Nsg23
Nsg24
F9.85e-06
ssg25
I01
sg26
I01
sba(iSong
Song
p81
(dp82
g3
(dp83
g5
F0.685
sg6
VThirty
p84
sg8
F0.6503239999999999
sg9
F0.553
sg10
S'blues'
p85
sg12
F0.0552
sg13
VThe Weather Station
p86
sg15
I9999
sg16
F0.403
sg17
Nsg18
Nsg19
Nsg20
F0.8543666666666667
sg21
F0.543
sg22
Nsg23
Nsg24
F3.85e-05
ssg25
I01
sg26
I01
sba(iSong
Song
p87
(dp88
g3
(dp89
g5
F0.115
sg6
VI Know
p90
sg8
F0.48062
sg9
F0.908
sg10
S'blues'
p91
sg12
F0.0512
sg13
VShovels & Rope
p92
sg15
I9999
sg16
F0.545
sg17
Nsg18
Nsg19
Nsg20
F0.8908666666666666
sg21
F0.391
sg22
Nsg23
Nsg24
I0
ssg25
I01
sg26
I01
sba(iSong
Song
p93
(dp94
g3
(dp95
g5
F0.0664
sg6
VLUCKY PENNY
p96
sg8
F0.511916
sg9
F0.736
sg10
S'blues'
p97
sg12
F0.0481
sg13
VJD McPherson
p98
sg15
I9999
sg16
F0.698
sg17
Nsg18
Nsg19
Nsg20
F0.9079166666666667
sg21
F0.822
sg22
Nsg23
Nsg24
F2.16e-05
ssg25
I01
sg26
I01
sba(iSong
Song
p99
(dp100
g3
(dp101
g5
F0.843
sg6
VIf I Was The Devil
p102
sg8
F0.358848
sg9
F0.432
sg10
S'blues'
p103
sg12
F0.0362
sg13
VJustin Townes Earle
p104
sg15
I9999
sg16
F0.535
sg17
Nsg18
Nsg19
Nsg20
F0.7927
sg21
F0.287
sg22
Nsg23
Nsg24
F0.0212
ssg25
I01
sg26
I01
sba(iSong
Song
p105
(dp106
g3
(dp107
g5
F0.00381
sg6
VCalifornia
p108
sg8
F0.498712
sg9
F0.741
sg10
S'blues'
p109
sg12
F0.0326
sg13
VThe Delta Saints
p110
sg15
I9999
sg16
F0.585
sg17
Nsg18
Nsg19
Nsg20
F0.8841
sg21
F0.676
sg22
Nsg23
Nsg24
F8.96e-06
ssg25
I01
sg26
I01
sba(iSong
Song
p111
(dp112
g3
(dp113
g5
F0.587
sg6
VBarleycorn
p114
sg8
F0.39632
sg9
F0.422
sg10
S'blues'
p115
sg12
F0.0354
sg13
VJohnny Flynn
p116
sg15
I9999
sg16
F0.661
sg17
Nsg18
Nsg19
Nsg20
F0.8330166666666667
sg21
F0.251
sg22
Nsg23
Nsg24
F0.132
ssg25
I01
sg26
I01
sba(iSong
Song
p117
(dp118
g3
(dp119
g5
F0.343
sg6
VSugar Daddy - Theme from Vinyl
p120
sg8
F0.327884
sg9
F0.929
sg10
S'blues'
p121
sg12
F0.143
sg13
VSturgill Simpson
p122
sg15
I9999
sg16
F0.26
sg17
Nsg18
Nsg19
Nsg20
F0.90265
sg21
F0.358
sg22
Nsg23
Nsg24
F0.0356
ssg25
I01
sg26
I01
sba(iSong
Song
p123
(dp124
g3
(dp125
g5
F0.02
sg6
VDidn't He Ramble
p126
sg8
F0.72054
sg9
F0.764
sg10
S'blues'
p127
sg12
F0.0563
sg13
VGlen Hansard
p128
sg15
I9999
sg16
F0.257
sg17
Nsg18
Nsg19
Nsg20
F0.8849333333333333
sg21
F0.446
sg22
Nsg23
Nsg24
F0.000685
ssg25
I01
sg26
I01
sba(iSong
Song
p129
(dp130
g3
(dp131
g5
F0.724
sg6
VProphet Story
p132
sg8
F0.369528
sg9
F0.478
sg10
S'blues'
p133
sg12
F0.0274
sg13
VCobi
p134
sg15
I9999
sg16
F0.433
sg17
Nsg18
Nsg19
Nsg20
F0.9328666666666667
sg21
F0.235
sg22
Nsg23
Nsg24
I0
ssg25
I01
sg26
I01
sba(iSong
Song
p135
(dp136
g3
(dp137
g5
F0.0325
sg6
VJust to Be with You
p138
sg8
F0.679728
sg9
F0.739
sg10
S'blues'
p139
sg12
F0.0481
sg13
VAubrie Sellers
p140
sg15
I9999
sg16
F0.336
sg17
Nsg18
Nsg19
Nsg20
F0.9101
sg21
F0.578
sg22
Nsg23
Nsg24
F5.9e-05
ssg25
I01
sg26
I01
sba(iSong
Song
p141
(dp142
g3
(dp143
g5
F0.717
sg6
VBlack Crow
p144
sg8
F0.525248
sg9
F0.327
sg10
S'blues'
p145
sg12
F0.0687
sg13
VBrent Cobb
p146
sg15
I9999
sg16
F0.706
sg17
Nsg18
Nsg19
Nsg20
F0.8066166666666666
sg21
F0.632
sg22
Nsg23
Nsg24
F0.0192
ssg25
I01
sg26
I01
sba(iSong
Song
p147
(dp148
g3
(dp149
g5
F0.456
sg6
VShelter
p150
sg8
F0.45743599999999995
sg9
F0.299
sg10
S'blues'
p151
sg12
F0.0309
sg13
VDorothy
p152
sg15
I9999
sg16
F0.568
sg17
Nsg18
Nsg19
Nsg20
F0.8349
sg21
F0.139
sg22
Nsg23
Nsg24
I0
ssg25
I01
sg26
I01
sba(iSong
Song
p153
(dp154
g3
(dp155
g5
F0.361
sg6
VSinking Down
p156
sg8
F0.568372
sg9
F0.796
sg10
S'blues'
p157
sg12
F0.0461
sg13
VSon Volt
p158
sg15
I9999
sg16
F0.36
sg17
Nsg18
Nsg19
Nsg20
F0.89795
sg21
F0.494
sg22
Nsg23
Nsg24
F0.392
ssg25
I01
sg26
I01
sba(iSong
Song
p159
(dp160
g3
(dp161
g5
F0.00385
sg6
VGot It Bad
p162
sg8
F0.685096
sg9
F0.785
sg10
S'blues'
p163
sg12
F0.0505
sg13
VThe Sore Losers
p164
sg15
I9999
sg16
F0.263
sg17
Nsg18
Nsg19
Nsg20
F0.9223666666666667
sg21
F0.379
sg22
Nsg23
Nsg24
F0.000272
ssg25
I01
sg26
I01
sba(iSong
Song
p165
(dp166
g3
(dp167
g5
F0.00252
sg6
VLift Me Up (Leave Me Here)
p168
sg8
F0.6715399999999999
sg9
F0.767
sg10
S'blues'
p169
sg12
F0.0367
sg13
VBrent Cowles
p170
sg15
I9999
sg16
F0.4
sg17
Nsg18
Nsg19
Nsg20
F0.9426
sg21
F0.482
sg22
Nsg23
Nsg24
F0.0334
ssg25
I01
sg26
I01
sba(iSong
Song
p171
(dp172
g3
(dp173
g5
F0.000477
sg6
VOh No
p174
sg8
F0.53188
sg9
F0.978
sg10
S'blues'
p175
sg12
F0.22
sg13
VGoodbye June
p176
sg15
I9999
sg16
F0.259
sg17
Nsg18
Nsg19
Nsg20
F0.9359666666666667
sg21
F0.266
sg22
Nsg23
Nsg24
F0.000314
ssg25
I01
sg26
I01
sba(iSong
Song
p177
(dp178
g3
(dp179
g5
F0.203
sg6
VI Own You
p180
sg8
F0.5677559999999999
sg9
F0.721
sg10
S'blues'
p181
sg12
F0.0347
sg13
VMick Flannery
p182
sg15
I9999
sg16
F0.54
sg17
Nsg18
Nsg19
Nsg20
F0.8991666666666667
sg21
F0.346
sg22
Nsg23
Nsg24
F5.83e-05
ssg25
I01
sg26
I01
sba(iSong
Song
p183
(dp184
g3
(dp185
g5
F0.0367
sg6
VHabbie Doobie
p186
sg8
F0.359856
sg9
F0.723
sg10
S'blues'
p187
sg12
F0.0331
sg13
VThe Texas Gentlemen
p188
sg15
I9999
sg16
F0.51
sg17
Nsg18
Nsg19
Nsg20
F0.888
sg21
F0.499
sg22
Nsg23
Nsg24
F7.88e-05
ssg25
I01
sg26
I01
sba(iSong
Song
p189
(dp190
g3
(dp191
g5
F0.0283
sg6
VMy Church Is Black
p192
sg8
F0.42422000000000004
sg9
F0.817
sg10
S'blues'
p193
sg12
F0.0343
sg13
VMe And That Man
p194
sg15
I9999
sg16
F0.39
sg17
Nsg18
Nsg19
Nsg20
F0.9508500000000001
sg21
F0.323
sg22
Nsg23
Nsg24
F0.486
ssg25
I01
sg26
I01
sba(iSong
Song
p195
(dp196
g3
(dp197
g5
F0.185
sg6
VDon't Give Up
p198
sg8
F0.44894
sg9
F0.689
sg10
S'blues'
p199
sg12
F0.0389
sg13
VSouthern Avenue
p200
sg15
I9999
sg16
F0.638
sg17
Nsg18
Nsg19
Nsg20
F0.9243333333333333
sg21
F0.555
sg22
Nsg23
Nsg24
F2.91e-05
ssg25
I01
sg26
I01
sba(iSong
Song
p201
(dp202
g3
(dp203
g5
F0.0419
sg6
VLost on the Young
p204
sg8
F0.64436
sg9
F0.738
sg10
S'blues'
p205
sg12
F0.0464
sg13
VBalto
p206
sg15
I9999
sg16
F0.267
sg17
Nsg18
Nsg19
Nsg20
F0.9076500000000001
sg21
F0.488
sg22
Nsg23
Nsg24
F1.35e-06
ssg25
I01
sg26
I01
sba(iSong
Song
p207
(dp208
g3
(dp209
g5
F0.11
sg6
VPart One - Hey, No Pressure
p210
sg8
F0.6050599999999999
sg9
F0.748
sg10
S'blues'
p211
sg12
F0.0522
sg13
VRay LaMontagne
p212
sg15
I9999
sg16
F0.434
sg17
Nsg18
Nsg19
Nsg20
F0.8715499999999999
sg21
F0.703
sg22
Nsg23
Nsg24
F0.000273
ssg25
I01
sg26
I01
sba(iSong
Song
p213
(dp214
g3
(dp215
g5
F0.404
sg6
VBring Down The Wall
p216
sg8
F0.391868
sg9
F0.392
sg10
S'blues'
p217
sg12
F0.034
sg13
VPiers Faccini
p218
sg15
I9999
sg16
F0.697
sg17
Nsg18
Nsg19
Nsg20
F0.8315833333333332
sg21
F0.725
sg22
Nsg23
Nsg24
F0.00121
ssg25
I01
sg26
I01
sba(iSong
Song
p219
(dp220
g3
(dp221
g5
F0.0069
sg6
VSiren
p222
sg8
F0.39277999999999996
sg9
F0.788
sg10
S'blues'
p223
sg12
F0.0625
sg13
VMonica Heldal
p224
sg15
I9999
sg16
F0.279
sg17
Nsg18
Nsg19
Nsg20
F0.8579666666666667
sg21
F0.381
sg22
Nsg23
Nsg24
F0.048
ssg25
I01
sg26
I01
sba(iSong
Song
p225
(dp226
g3
(dp227
g5
F0.00253
sg6
VSomething\u2019s Got a Hold on Me
p228
sg8
F0.440184
sg9
F0.333
sg10
S'blues'
p229
sg12
F0.0274
sg13
VAngel Snow
p230
sg15
I9999
sg16
F0.74
sg17
Nsg18
Nsg19
Nsg20
F0.8059999999999999
sg21
F0.266
sg22
Nsg23
Nsg24
F0.0507
ssg25
I01
sg26
I01
sba(iSong
Song
p231
(dp232
g3
(dp233
g5
F0.144
sg6
VTrinity Lane
p234
sg8
F0.5802240000000001
sg9
F0.811
sg10
S'blues'
p235
sg12
F0.027
sg13
VLilly Hiatt
p236
sg15
I9999
sg16
F0.578
sg17
Nsg18
Nsg19
Nsg20
F0.8962
sg21
F0.752
sg22
Nsg23
Nsg24
F0.0054
ssg25
I01
sg26
I01
sba(iSong
Song
p237
(dp238
g3
(dp239
g5
F0.0134
sg6
VGood Evening
p240
sg8
F0.422036
sg9
F0.606
sg10
S'blues'
p241
sg12
F0.0305
sg13
VQuaker City Night Hawks
p242
sg15
I9999
sg16
F0.527
sg17
Nsg18
Nsg19
Nsg20
F0.8866833333333334
sg21
F0.267
sg22
Nsg23
Nsg24
F0.00029
ssg25
I01
sg26
I01
sba(iSong
Song
p243
(dp244
g3
(dp245
g5
F0.452
sg6
VCall It What It Is
p246
sg8
F0.264936
sg9
F0.572
sg10
S'blues'
p247
sg12
F0.0357
sg13
VBen Harper And The Innocent Criminals
p248
sg15
I9999
sg16
F0.603
sg17
Nsg18
Nsg19
Nsg20
F0.8709166666666667
sg21
F0.465
sg22
Nsg23
Nsg24
F5.39e-06
ssg25
I01
sg26
I01
sba(iSong
Song
p249
(dp250
g3
(dp251
g5
F0.0112
sg6
VFleet Foot
p252
sg8
F0.42954000000000003
sg9
F0.957
sg10
S'blues'
p253
sg12
F0.259
sg13
VBlack Pistol Fire
p254
sg15
I9999
sg16
F0.348
sg17
Nsg18
Nsg19
Nsg20
F0.9361166666666667
sg21
F0.216
sg22
Nsg23
Nsg24
I0
ssg25
I01
sg26
I01
sba(iSong
Song
p255
(dp256
g3
(dp257
g5
F0.0319
sg6
VRun Devil Run
p258
sg8
F0.698776
sg9
F0.958
sg10
S'blues'
p259
sg12
F0.171
sg13
VCrowder
p260
sg15
I9999
sg16
F0.417
sg17
Nsg18
Nsg19
Nsg20
F0.9454499999999999
sg21
F0.815
sg22
Nsg23
Nsg24
I0
ssg25
I01
sg26
I01
sba(iSong
Song
p261
(dp262
g3
(dp263
g5
F0.353
sg6
VChampagne And Reefer
p264
sg8
F0.48500400000000005
sg9
F0.836
sg10
S'blues'
p265
sg12
F0.0451
sg13
VThe Devil Makes Three
p266
sg15
I9999
sg16
F0.735
sg17
Nsg18
Nsg19
Nsg20
F0.87555
sg21
F0.781
sg22
Nsg23
Nsg24
F0.0143
ssg25
I01
sg26
I01
sba(iSong
Song
p267
(dp268
g3
(dp269
g5
F0.033
sg6
VPlunder
p270
sg8
F0.5402680000000001
sg9
F0.828
sg10
S'blues'
p271
sg12
F0.0359
sg13
VThe Felice Brothers
p272
sg15
I9999
sg16
F0.383
sg17
Nsg18
Nsg19
Nsg20
F0.8946333333333333
sg21
F0.845
sg22
Nsg23
Nsg24
F3.05e-05
ssg25
I01
sg26
I01
sba(iSong
Song
p273
(dp274
g3
(dp275
g5
F0.00016
sg6
VLeadfoot
p276
sg8
F0.548356
sg9
F0.852
sg10
S'blues'
p277
sg12
F0.0499
sg13
VNo Sinner
p278
sg15
I9999
sg16
F0.345
sg17
Nsg18
Nsg19
Nsg20
F0.92925
sg21
F0.396
sg22
Nsg23
Nsg24
F0.0165
ssg25
I01
sg26
I01
sba(iSong
Song
p279
(dp280
g3
(dp281
g5
F0.775
sg6
VIt Runs Together
p282
sg8
F0.415932
sg9
F0.548
sg10
S'blues'
p283
sg12
F0.0555
sg13
VHard Working Americans
p284
sg15
I9999
sg16
F0.61
sg17
Nsg18
Nsg19
Nsg20
F0.8265333333333333
sg21
F0.413
sg22
Nsg23
Nsg24
F0.0347
ssg25
I01
sg26
I01
sba(iSong
Song
p285
(dp286
g3
(dp287
g5
F0.0988
sg6
VGimme Something Good - Live At The Village
p288
sg8
F0.381484
sg9
F0.791
sg10
S'blues'
p289
sg12
F0.0359
sg13
VRyan Adams
p290
sg15
I9999
sg16
F0.416
sg17
Nsg18
Nsg19
Nsg20
F0.9441
sg21
F0.511
sg22
Nsg23
Nsg24
F0.383
ssg25
I01
sg26
I01
sba(iSong
Song
p291
(dp292
g3
(dp293
g5
F0.102
sg6
VWaiting for the Thunder
p294
sg8
F0.576188
sg9
F0.805
sg10
S'blues'
p295
sg12
F0.0301
sg13
VBlackberry Smoke
p296
sg15
I9999
sg16
F0.582
sg17
Nsg18
Nsg19
Nsg20
F0.9122166666666666
sg21
F0.895
sg22
Nsg23
Nsg24
F3.14e-06
ssg25
I01
sg26
I01
sba(iSong
Song
p297
(dp298
g3
(dp299
g5
F0.242
sg6
VFire
p300
sg8
F0.433448
sg9
F0.625
sg10
S'blues'
p301
sg12
F0.0296
sg13
VBarns Courtney
p302
sg15
I9999
sg16
F0.552
sg17
Nsg18
Nsg19
Nsg20
F0.8991166666666667
sg21
F0.425
sg22
Nsg23
Nsg24
F0.000558
ssg25
I01
sg26
I01
sba(iSong
Song
p303
(dp304
g3
(dp305
g5
F0.0928
sg6
VPretty Pimpin
p306
sg8
F0.364468
sg9
F0.664
sg10
S'blues'
p307
sg12
F0.0281
sg13
VKurt Vile
p308
sg15
I9999
sg16
F0.566
sg17
Nsg18
Nsg19
Nsg20
F0.8486499999999999
sg21
F0.764
sg22
Nsg23
Nsg24
F0.305
ssg25
I01
sg26
I01
sba(iSong
Song
p309
(dp310
g3
(dp311
g5
F0.0588
sg6
VWorking Poor
p312
sg8
F0.334064
sg9
F0.396
sg10
S'blues'
p313
sg12
F0.0485
sg13
VFantastic Negrito
p314
sg15
I9999
sg16
F0.77
sg17
Nsg18
Nsg19
Nsg20
F0.716
sg21
F0.567
sg22
Nsg23
Nsg24
F0.000164
ssg25
I01
sg26
I01
sba(iSong
Song
p315
(dp316
g3
(dp317
g5
F0.00183
sg6
VSmoke Rising
p318
sg8
F0.5406920000000001
sg9
F0.735
sg10
S'blues'
p319
sg12
F0.0266
sg13
VBrown Bird
p320
sg15
I9999
sg16
F0.572
sg17
Nsg18
Nsg19
Nsg20
F0.8993
sg21
F0.599
sg22
Nsg23
Nsg24
F0.782
ssg25
I01
sg26
I01
sba(iSong
Song
p321
(dp322
g3
(dp323
g5
F0.0255
sg6
VRain Dance (feat. Bo Diddley)
p324
sg8
F0.7504679999999999
sg9
F0.691
sg10
S'blues'
p325
sg12
F0.0499
sg13
VHollis Brown
p326
sg15
I9999
sg16
F0.563
sg17
Nsg18
Nsg19
Nsg20
F0.8823166666666666
sg21
F0.514
sg22
Nsg23
Nsg24
F3.55e-05
ssg25
I01
sg26
I01
sba(iSong
Song
p327
(dp328
g3
(dp329
g5
F0.00625
sg6
VJack Is Back
p330
sg8
F0.527996
sg9
F0.766
sg10
S'blues'
p331
sg12
F0.0419
sg13
VSonia Leigh
p332
sg15
I9999
sg16
F0.677
sg17
Nsg18
Nsg19
Nsg20
F0.8669999999999999
sg21
F0.589
sg22
Nsg23
Nsg24
F0.000123
ssg25
I01
sg26
I01
sba(iSong
Song
p333
(dp334
g3
(dp335
g5
F0.00356
sg6
VHurry Up And Wait
p336
sg8
F0.49198000000000003
sg9
F0.874
sg10
S'blues'
p337
sg12
F0.0511
sg13
VBen Miller Band
p338
sg15
I9999
sg16
F0.563
sg17
Nsg18
Nsg19
Nsg20
F0.89165
sg21
F0.499
sg22
Nsg23
Nsg24
F0.528
ssg25
I01
sg26
I01
sba(iSong
Song
p339
(dp340
g3
(dp341
g5
F0.171
sg6
VSun Sets West
p342
sg8
F0.45090399999999997
sg9
F0.698
sg10
S'blues'
p343
sg12
F0.0643
sg13
Vlittle hurricane
p344
sg15
I9999
sg16
F0.439
sg17
Nsg18
Nsg19
Nsg20
F0.8872666666666666
sg21
F0.815
sg22
Nsg23
Nsg24
F3.73e-06
ssg25
I01
sg26
I01
sba(iSong
Song
p345
(dp346
g3
(dp347
g5
F0.0685
sg6
VDead Eyes
p348
sg8
F0.775024
sg9
F0.635
sg10
S'blues'
p349
sg12
F0.056
sg13
VAdia Victoria
p350
sg15
I9999
sg16
F0.28
sg17
Nsg18
Nsg19
Nsg20
F0.86215
sg21
F0.375
sg22
Nsg23
Nsg24
F0.121
ssg25
I01
sg26
I01
sba(iSong
Song
p351
(dp352
g3
(dp353
g5
F0.0062
sg6
VShape Shifter
p354
sg8
F0.52012
sg9
F0.685
sg10
S'blues'
p355
sg12
F0.0294
sg13
VLera Lynn
p356
sg15
I9999
sg16
F0.806
sg17
Nsg18
Nsg19
Nsg20
F0.8617333333333334
sg21
F0.961
sg22
Nsg23
Nsg24
F0.0831
ssg25
I01
sg26
I01
sba(iSong
Song
p357
(dp358
g3
(dp359
g5
F0.00104
sg6
VLet You Go
p360
sg8
F0.471988
sg9
F0.616
sg10
S'blues'
p361
sg12
F0.0282
sg13
VGreat Peacock
p362
sg15
I9999
sg16
F0.616
sg17
Nsg18
Nsg19
Nsg20
F0.8556333333333334
sg21
F0.598
sg22
Nsg23
Nsg24
F0.0806
ssg25
I01
sg26
I01
sba(iSong
Song
p363
(dp364
g3
(dp365
g5
F0.102
sg6
VI\u2019m a Raven (Shake Children)
p366
sg8
F0.681744
sg9
F0.503
sg10
S'blues'
p367
sg12
F0.0275
sg13
VHiss Golden Messenger
p368
sg15
I9999
sg16
F0.503
sg17
Nsg18
Nsg19
Nsg20
F0.87505
sg21
F0.867
sg22
Nsg23
Nsg24
I0
ssg25
I01
sg26
I01
sba(iSong
Song
p369
(dp370
g3
(dp371
g5
F0.115
sg6
VMy Babe
p372
sg8
F0.688408
sg9
F0.79
sg10
S'blues'
p373
sg12
F0.0884
sg13
VWhitehorse
p374
sg15
I9999
sg16
F0.621
sg17
Nsg18
Nsg19
Nsg20
F0.9256
sg21
F0.947
sg22
Nsg23
Nsg24
F1.32e-05
ssg25
I01
sg26
I01
sba(iSong
Song
p375
(dp376
g3
(dp377
g5
F0.00124
sg6
VVagabond
p378
sg8
F0.47193999999999997
sg9
F0.842
sg10
S'blues'
p379
sg12
F0.0721
sg13
VAquila Young
p380
sg15
I9999
sg16
F0.624
sg17
Nsg18
Nsg19
Nsg20
F0.875
sg21
F0.55
sg22
Nsg23
Nsg24
F0.0124
ssg25
I01
sg26
I01
sba(iSong
Song
p381
(dp382
g3
(dp383
g5
F0.0078
sg6
VThe Hurricane's Eye
p384
sg8
F0.656884
sg9
F0.658
sg10
S'blues'
p385
sg12
F0.0621
sg13
VJesse Roper
p386
sg15
I9999
sg16
F0.357
sg17
Nsg18
Nsg19
Nsg20
F0.8633833333333333
sg21
F0.227
sg22
Nsg23
Nsg24
F0.00274
ssg25
I01
sg26
I01
sba(iSong
Song
p387
(dp388
g3
(dp389
g5
F0.144
sg6
VDon't Strike Me Down
p390
sg8
F0.619464
sg9
F0.844
sg10
S'blues'
p391
sg12
F0.0463
sg13
VWilliam Elliott Whitmore
p392
sg15
I9999
sg16
F0.466
sg17
Nsg18
Nsg19
Nsg20
F0.90085
sg21
F0.45
sg22
Nsg23
Nsg24
F3.65e-05
ssg25
I01
sg26
I01
sba(iSong
Song
p393
(dp394
g3
(dp395
g5
F0.426
sg6
VOn the Road Again
p396
sg8
F0.586444
sg9
F0.414
sg10
S'blues'
p397
sg12
F0.0421
sg13
VJack Broadbent
p398
sg15
I9999
sg16
F0.408
sg17
Nsg18
Nsg19
Nsg20
F0.87305
sg21
F0.219
sg22
Nsg23
Nsg24
F0.0535
ssg25
I01
sg26
I01
sba(iSong
Song
p399
(dp400
g3
(dp401
g5
F0.594
sg6
VOff The Ground
p402
sg8
F0.369448
sg9
F0.694
sg10
S'blues'
p403
sg12
F0.0397
sg13
VThe Record Company
p404
sg15
I9999
sg16
F0.537
sg17
Nsg18
Nsg19
Nsg20
F0.9243
sg21
F0.864
sg22
Nsg23
Nsg24
F0.241
ssg25
I01
sg26
I01
sba(iSong
Song
p405
(dp406
g3
(dp407
g5
F0.045
sg6
VSnake Eyes
p408
sg8
F0.373004
sg9
F0.885
sg10
S'blues'
p409
sg12
F0.0472
sg13
VThe Wood Brothers
p410
sg15
I9999
sg16
F0.572
sg17
Nsg18
Nsg19
Nsg20
F0.9110166666666667
sg21
F0.649
sg22
Nsg23
Nsg24
F1.78e-06
ssg25
I01
sg26
I01
sba(iSong
Song
p411
(dp412
g3
(dp413
g5
F0.437
sg6
VI Am A Man Of Constant Sorrow
p414
sg8
F0.35999200000000003
sg9
F0.79
sg10
S'blues'
p415
sg12
F0.0253
sg13
VBlitzen Trapper
p416
sg15
I9999
sg16
F0.728
sg17
Nsg18
Nsg19
Nsg20
F0.9154666666666667
sg21
F0.894
sg22
Nsg23
Nsg24
F2.46e-05
ssg25
I01
sg26
I01
sba(iSong
Song
p417
(dp418
g3
(dp419
g5
F0.124
sg6
VTrouble
p420
sg8
F0.5682440000000001
sg9
F0.782
sg10
S'blues'
p421
sg12
F0.0391
sg13
VHamish Anderson
p422
sg15
I9999
sg16
F0.588
sg17
Nsg18
Nsg19
Nsg20
F0.8852166666666667
sg21
F0.892
sg22
Nsg23
Nsg24
F0.13
ssg25
I01
sg26
I01
sba(iSong
Song
p423
(dp424
g3
(dp425
g5
F0.278
sg6
VGold to Glass
p426
sg8
F0.32954
sg9
F0.648
sg10
S'blues'
p427
sg12
F0.146
sg13
VThe Revivalists
p428
sg15
I9999
sg16
F0.64
sg17
Nsg18
Nsg19
Nsg20
F0.8715166666666666
sg21
F0.398
sg22
Nsg23
Nsg24
F2.84e-05
ssg25
I01
sg26
I01
sba(iSong
Song
p429
(dp430
g3
(dp431
g5
F0.373
sg6
VBlack and Blue
p432
sg8
F0.69636
sg9
F0.726
sg10
S'blues'
p433
sg12
F0.0457
sg13
VThe Harpoonist & the Axe Murderer
p434
sg15
I9999
sg16
F0.539
sg17
Nsg18
Nsg19
Nsg20
F0.9038666666666667
sg21
F0.724
sg22
Nsg23
Nsg24
F0.00327
ssg25
I01
sg26
I01
sba(iSong
Song
p435
(dp436
g3
(dp437
g5
F0.00818
sg6
VRide On / Right On
p438
sg8
F0.38027999999999995
sg9
F0.582
sg10
S'blues'
p439
sg12
F0.0328
sg13
VPhosphorescent
p440
sg15
I9999
sg16
F0.539
sg17
Nsg18
Nsg19
Nsg20
F0.8764333333333333
sg21
F0.245
sg22
Nsg23
Nsg24
F0.0717
ssg25
I01
sg26
I01
sba(iSong
Song
p441
(dp442
g3
(dp443
g5
F0.0751
sg6
VMockingbird
p444
sg8
F0.5882999999999999
sg9
F0.806
sg10
S'blues'
p445
sg12
F0.0452
sg13
VQuaker City Night Hawks
p446
sg15
I9999
sg16
F0.35
sg17
Nsg18
Nsg19
Nsg20
F0.9343
sg21
F0.395
sg22
Nsg23
Nsg24
F5.93e-05
ssg25
I01
sg26
I01
sba(iSong
Song
p447
(dp448
g3
(dp449
g5
F0.000183
sg6
VBetter Way
p450
sg8
F0.42442
sg9
F0.67
sg10
S'blues'
p451
sg12
F0.0292
sg13
VKim Logan
p452
sg15
I9999
sg16
F0.477
sg17
Nsg18
Nsg19
Nsg20
F0.8973
sg21
F0.323
sg22
Nsg23
Nsg24
F0.777
ssg25
I01
sg26
I01
sba(iSong
Song
p453
(dp454
g3
(dp455
g5
F0.000843
sg6
VBoone
p456
sg8
F0.679924
sg9
F0.757
sg10
S'blues'
p457
sg12
F0.041
sg13
VThe Marcus King Band
p458
sg15
I9999
sg16
F0.357
sg17
Nsg18
Nsg19
Nsg20
F0.8752166666666666
sg21
F0.488
sg22
Nsg23
Nsg24
F0.00435
ssg25
I01
sg26
I01
sba(iSong
Song
p459
(dp460
g3
(dp461
g5
F0.00855
sg6
VGrinder
p462
sg8
F0.647732
sg9
F0.792
sg10
S'blues'
p463
sg12
F0.0363
sg13
VGary Clark Jr.
p464
sg15
I9999
sg16
F0.293
sg17
Nsg18
Nsg19
Nsg20
F0.93755
sg21
F0.697
sg22
Nsg23
Nsg24
F0.0111
ssg25
I01
sg26
I01
sba(iSong
Song
p465
(dp466
g3
(dp467
g5
F0.843
sg6
VBoneyard - Edit
p468
sg8
F0.426152
sg9
F0.475
sg10
S'blues'
p469
sg12
F0.0265
sg13
VFink
p470
sg15
I9999
sg16
F0.386
sg17
Nsg18
Nsg19
Nsg20
F0.8624333333333334
sg21
F0.391
sg22
Nsg23
Nsg24
F0.000106
ssg25
I01
sg26
I01
sba(iSong
Song
p471
(dp472
g3
(dp473
g5
F0.0066
sg6
VBotched Execution
p474
sg8
F0.640204
sg9
F0.938
sg10
S'blues'
p475
sg12
F0.0854
sg13
VShovels & Rope
p476
sg15
I9999
sg16
F0.495
sg17
Nsg18
Nsg19
Nsg20
F0.90555
sg21
F0.783
sg22
Nsg23
Nsg24
I0
ssg25
I01
sg26
I01
sba(iSong
Song
p477
(dp478
g3
(dp479
g5
F0.112
sg6
VMagnolia
p480
sg8
F0.378532
sg9
F0.507
sg10
S'blues'
p481
sg12
F0.0292
sg13
VMail the Horse
p482
sg15
I9999
sg16
F0.647
sg17
Nsg18
Nsg19
Nsg20
F0.8469
sg21
F0.711
sg22
Nsg23
Nsg24
F0.0117
ssg25
I01
sg26
I01
sba(iSong
Song
p483
(dp484
g3
(dp485
g5
F0.000369
sg6
VHeavy Is the Head
p486
sg8
F0.34210399999999996
sg9
F0.923
sg10
S'blues'
p487
sg12
F0.0392
sg13
VZac Brown Band
p488
sg15
I9999
sg16
F0.508
sg17
Nsg18
Nsg19
Nsg20
F0.9457
sg21
F0.689
sg22
Nsg23
Nsg24
F0.00171
ssg25
I01
sg26
I01
sba(iSong
Song
p489
(dp490
g3
(dp491
g5
F0.0091
sg6
VI Feel Love (Every Million Miles)
p492
sg8
F0.37568
sg9
F0.919
sg10
S'blues'
p493
sg12
F0.139
sg13
VThe Dead Weather
p494
sg15
I9999
sg16
F0.404
sg17
Nsg18
Nsg19
Nsg20
F0.8873333333333334
sg21
F0.207
sg22
Nsg23
Nsg24
I0
ssg25
I01
sg26
I01
sba(iSong
Song
p495
(dp496
g3
(dp497
g5
F0.0657
sg6
VDead In The Water
p498
sg8
F0.319904
sg9
F0.785
sg10
S'blues'
p499
sg12
F0.036
sg13
VRandall Bramblett
p500
sg15
I9999
sg16
F0.617
sg17
Nsg18
Nsg19
Nsg20
F0.8758833333333332
sg21
F0.766
sg22
Nsg23
Nsg24
F0.018
ssg25
I01
sg26
I01
sba(iSong
Song
p501
(dp502
g3
(dp503
g5
F0.144
sg6
VRiverbottom
p504
sg8
F0.583824
sg9
F0.604
sg10
S'blues'
p505
sg12
F0.0401
sg13
VJonathan Tyler
p506
sg15
I9999
sg16
F0.626
sg17
Nsg18
Nsg19
Nsg20
F0.9425666666666667
sg21
F0.481
sg22
Nsg23
Nsg24
F0.000225
ssg25
I01
sg26
I01
sba(iSong
Song
p507
(dp508
g3
(dp509
g5
F0.143
sg6
VDreamcatchers
p510
sg8
F0.315768
sg9
F0.553
sg10
S'blues'
p511
sg12
F0.0322
sg13
VOdetta Hartman
p512
sg15
I9999
sg16
F0.502
sg17
Nsg18
Nsg19
Nsg20
F0.8665166666666667
sg21
F0.568
sg22
Nsg23
Nsg24
F0.168
ssg25
I01
sg26
I01
sba(iSong
Song
p513
(dp514
g3
(dp515
g5
F0.0011
sg6
VWicked Waters
p516
sg8
F0.411128
sg9
F0.978
sg10
S'blues'
p517
sg12
F0.14
sg13
VBenjamin Booker
p518
sg15
I9999
sg16
F0.367
sg17
Nsg18
Nsg19
Nsg20
F0.9028833333333334
sg21
F0.318
sg22
Nsg23
Nsg24
I0
ssg25
I01
sg26
I01
sba(iSong
Song
p519
(dp520
g3
(dp521
g5
F0.000385
sg6
VCompany Man
p522
sg8
F0.47956
sg9
F0.889
sg10
S'blues'
p523
sg12
F0.0428
sg13
VJamestown Revival
p524
sg15
I9999
sg16
F0.551
sg17
Nsg18
Nsg19
Nsg20
F0.9162833333333334
sg21
F0.851
sg22
Nsg23
Nsg24
F3.94e-05
ssg25
I01
sg26
I01
sba(iSong
Song
p525
(dp526
g3
(dp527
g5
F0.0239
sg6
VThese American Blues
p528
sg8
F0.5076080000000001
sg9
F0.701
sg10
S'blues'
p529
sg12
F0.0268
sg13
VLevi Parham
p530
sg15
I9999
sg16
F0.701
sg17
Nsg18
Nsg19
Nsg20
F0.8365833333333333
sg21
F0.962
sg22
Nsg23
Nsg24
F0.00501
ssg25
I01
sg26
I01
sba(iSong
Song
p531
(dp532
g3
(dp533
g5
F0.565
sg6
VSomebody Was Watching
p534
sg8
F0.667996
sg9
F0.374
sg10
S'blues'
p535
sg12
F0.177
sg13
VPops Staples
p536
sg15
I9999
sg16
F0.63
sg17
Nsg18
Nsg19
Nsg20
F0.8115833333333333
sg21
F0.562
sg22
Nsg23
Nsg24
F0.00146
ssg25
I01
sg26
I01
sba(iSong
Song
p537
(dp538
g3
(dp539
g5
F0.789
sg6
VYou're The Best Lover That I Ever Had
p540
sg8
F0.6030760000000001
sg9
F0.504
sg10
S'blues'
p541
sg12
F0.032
sg13
VSteve Earle
p542
sg15
I9999
sg16
F0.547
sg17
Nsg18
Nsg19
Nsg20
F0.8317833333333333
sg21
F0.766
sg22
Nsg23
Nsg24
F0.0799
ssg25
I01
sg26
I01
sba(iSong
Song
p543
(dp544
g3
(dp545
g5
F0.215
sg6
VSleepy Lagoon
p546
sg8
F0.32185199999999997
sg9
F0.629
sg10
S'blues'
p547
sg12
F0.0275
sg13
VCarl Broemel
p548
sg15
I9999
sg16
F0.604
sg17
Nsg18
Nsg19
Nsg20
F0.85285
sg21
F0.756
sg22
Nsg23
Nsg24
F0.481
ssg25
I01
sg26
I01
sba(iSong
Song
p549
(dp550
g3
(dp551
g5
F0.772
sg6
VPromise Land (feat. Jason Eskridge)
p552
sg8
F0.40058
sg9
F0.306
sg10
S'blues'
p553
sg12
F0.036
sg13
VHannah Miller
p554
sg15
I9999
sg16
F0.341
sg17
Nsg18
Nsg19
Nsg20
F0.8241833333333334
sg21
F0.122
sg22
Nsg23
Nsg24
F0.0196
ssg25
I01
sg26
I01
sba(iSong
Song
p555
(dp556
g3
(dp557
g5
F0.0495
sg6
VThe Perfect Parts
p558
sg8
F0.498948
sg9
F0.657
sg10
S'blues'
p559
sg12
F0.0454
sg13
VShakey Graves
p560
sg15
I9999
sg16
F0.534
sg17
Nsg18
Nsg19
Nsg20
F0.8981333333333333
sg21
F0.282
sg22
Nsg23
Nsg24
F0.000301
ssg25
I01
sg26
I01
sba(iSong
Song
p561
(dp562
g3
(dp563
g5
F0.178
sg6
VRaising Hands Raising Hell Raise 'em High
p564
sg8
F0.40004
sg9
F0.821
sg10
S'blues'
p565
sg12
F0.0426
sg13
VThe Wind and The Wave
p566
sg15
I9999
sg16
F0.623
sg17
Nsg18
Nsg19
Nsg20
F0.9036500000000001
sg21
F0.577
sg22
Nsg23
Nsg24
F0.528
ssg25
I01
sg26
I01
sba(iSong
Song
p567
(dp568
g3
(dp569
g5
F0.11
sg6
VBetter Feeln' Better Days
p570
sg8
F0.59968
sg9
F0.401
sg10
S'blues'
p571
sg12
F0.0423
sg13
VKail Baxley
p572
sg15
I9999
sg16
F0.764
sg17
Nsg18
Nsg19
Nsg20
F0.8564666666666666
sg21
F0.0716
sg22
Nsg23
Nsg24
F0.833
ssg25
I01
sg26
I01
sba(iSong
Song
p573
(dp574
g3
(dp575
g5
F0.3
sg6
VGlitter & Gold
p576
sg8
F0.6812999999999999
sg9
F0.62
sg10
S'blues'
p577
sg12
F0.0441
sg13
VBarns Courtney
p578
sg15
I9999
sg16
F0.488
sg17
Nsg18
Nsg19
Nsg20
F0.9120333333333334
sg21
F0.357
sg22
Nsg23
Nsg24
I0
ssg25
I01
sg26
I01
sba(iSong
Song
p579
(dp580
g3
(dp581
g5
F0.596
sg6
VI'm Going to Live the Life I Sing About in My Song
p582
sg8
F0.4747
sg9
F0.29
sg10
S'blues'
p583
sg12
F0.0361
sg13
VThe Last Internationale
p584
sg15
I9999
sg16
F0.541
sg17
Nsg18
Nsg19
Nsg20
F0.8566166666666667
sg21
F0.272
sg22
Nsg23
Nsg24
F0.00372
ssg25
I01
sg26
I01
sba(iSong
Song
p585
(dp586
g3
(dp587
g5
F0.344
sg6
VFirst Of The Week
p588
sg8
F0.31601999999999997
sg9
F0.327
sg10
S'blues'
p589
sg12
F0.0347
sg13
VPatrick Sweany
p590
sg15
I9999
sg16
F0.684
sg17
Nsg18
Nsg19
Nsg20
F0.7695166666666666
sg21
F0.535
sg22
Nsg23
Nsg24
F0.239
ssg25
I01
sg26
I01
sba(iSong
Song
p591
(dp592
g3
(dp593
g5
F0.928
sg6
VAngel of Small Death and the Codeine Scene - Live From Spotify London
p594
sg8
F0.371284
sg9
F0.2
sg10
S'blues'
p595
sg12
F0.0622
sg13
VHozier
p596
sg15
I9999
sg16
F0.594
sg17
Nsg18
Nsg19
Nsg20
F0.8254666666666667
sg21
F0.415
sg22
Nsg23
Nsg24
I0
ssg25
I01
sg26
I01
sba(iSong
Song
p597
(dp598
g3
(dp599
g5
F9.24e-06
sg6
VThe 28th of January - Electric
p600
sg8
F0.343952
sg9
F0.854
sg10
S'blues'
p601
sg12
F0.0331
sg13
VMichael Daves
p602
sg15
I9999
sg16
F0.414
sg17
Nsg18
Nsg19
Nsg20
F0.85215
sg21
F0.737
sg22
Nsg23
Nsg24
F0.906
ssg25
I01
sg26
I01
sba(iSong
Song
p603
(dp604
g3
(dp605
g5
F0.0658
sg6
VSweat Shock
p606
sg8
F0.452724
sg9
F0.948
sg10
S'blues'
p607
sg12
F0.214
sg13
VJ. Roddy Walston & The Business
p608
sg15
I9999
sg16
F0.495
sg17
Nsg18
Nsg19
Nsg20
F0.9409
sg21
F0.158
sg22
Nsg23
Nsg24
F7.4e-05
ssg25
I01
sg26
I01
sba(iSong
Song
p609
(dp610
g3
(dp611
g5
F0.00428
sg6
VLazaretto
p612
sg8
F0.720164
sg9
F0.831
sg10
S'blues'
p613
sg12
F0.0811
sg13
VJack White
p614
sg15
I9999
sg16
F0.325
sg17
Nsg18
Nsg19
Nsg20
F0.8904333333333334
sg21
F0.541
sg22
Nsg23
Nsg24
F3.72e-05
ssg25
I01
sg26
I01
sba(iSong
Song
p615
(dp616
g3
(dp617
g5
F0.0451
sg6
VStrike Your Light
p618
sg8
F0.679308
sg9
F0.938
sg10
S'blues'
p619
sg12
F0.135
sg13
VVintage Trouble
p620
sg15
I9999
sg16
F0.309
sg17
Nsg18
Nsg19
Nsg20
F0.9336666666666668
sg21
F0.611
sg22
Nsg23
Nsg24
F1.42e-06
ssg25
I01
sg26
I01
sba(iSong
Song
p621
(dp622
g3
(dp623
g5
F0.82
sg6
VDry Dirt (Stripped)
p624
sg8
F0.50478
sg9
F0.33
sg10
S'blues'
p625
sg12
F0.0588
sg13
VThe Bones of J.R. Jones
p626
sg15
I9999
sg16
F0.682
sg17
Nsg18
Nsg19
Nsg20
F0.7880833333333332
sg21
F0.326
sg22
Nsg23
Nsg24
F0.358
ssg25
I01
sg26
I01
sba(iSong
Song
p627
(dp628
g3
(dp629
g5
F0.228
sg6
VThousand Mile Night
p630
sg8
F0.562608
sg9
F0.35
sg10
S'blues'
p631
sg12
F0.0471
sg13
VJonah Tolchin
p632
sg15
I9999
sg16
F0.584
sg17
Nsg18
Nsg19
Nsg20
F0.7676333333333333
sg21
F0.498
sg22
Nsg23
Nsg24
F0.0719
ssg25
I01
sg26
I01
sba(iSong
Song
p633
(dp634
g3
(dp635
g5
F0.828
sg6
VLead Me Home - The Walking Dead Soundtrack
p636
sg8
F0.5451119999999999
sg9
F0.276
sg10
S'blues'
p637
sg12
F0.0323
sg13
VJamie N Commons
p638
sg15
I9999
sg16
F0.435
sg17
Nsg18
Nsg19
Nsg20
F0.8155166666666667
sg21
F0.175
sg22
Nsg23
Nsg24
F0.00015
ssg25
I01
sg26
I01
sba(iSong
Song
p639
(dp640
g3
(dp641
g5
F0.804
sg6
VWhispered Words (Pretty Lies)
p642
sg8
F0.346788
sg9
F0.585
sg10
S'blues'
p643
sg12
F0.0734
sg13
VDan Auerbach
p644
sg15
I9999
sg16
F0.481
sg17
Nsg18
Nsg19
Nsg20
F0.885
sg21
F0.481
sg22
Nsg23
Nsg24
F0.000453
ssg25
I01
sg26
I01
sba(iSong
Song
p645
(dp646
g3
(dp647
g5
F0.426
sg6
VOn the Road Again
p648
sg8
F0.586444
sg9
F0.414
sg10
S'blues'
p649
sg12
F0.0421
sg13
VJack Broadbent
p650
sg15
I9999
sg16
F0.408
sg17
Nsg18
Nsg19
Nsg20
F0.87305
sg21
F0.219
sg22
Nsg23
Nsg24
F0.0535
ssg25
I01
sg26
I01
sba(iSong
Song
p651
(dp652
g3
(dp653
g5
F0.819
sg6
VSleeping on the Blacktop
p654
sg8
F0.33212400000000003
sg9
F0.308
sg10
S'blues'
p655
sg12
F0.0478
sg13
VColter Wall
p656
sg15
I9999
sg16
F0.566
sg17
Nsg18
Nsg19
Nsg20
F0.7588666666666666
sg21
F0.461
sg22
Nsg23
Nsg24
F0.272
ssg25
I01
sg26
I01
sba(iSong
Song
p657
(dp658
g3
(dp659
g5
F0.802
sg6
VBroken Bones
p660
sg8
F0.49597199999999997
sg9
F0.486
sg10
S'blues'
p661
sg12
F0.193
sg13
VKaleo
p662
sg15
I9999
sg16
F0.779
sg17
Nsg18
Nsg19
Nsg20
F0.8799166666666667
sg21
F0.654
sg22
Nsg23
Nsg24
F5.76e-05
ssg25
I01
sg26
I01
sba(iSong
Song
p663
(dp664
g3
(dp665
g5
F0.749
sg6
VWork Song
p666
sg8
F0.485648
sg9
F0.363
sg10
S'blues'
p667
sg12
F0.0608
sg13
VHozier
p668
sg15
I9999
sg16
F0.531
sg17
Nsg18
Nsg19
Nsg20
F0.8721333333333334
sg21
F0.259
sg22
Nsg23
Nsg24
I0
ssg25
I01
sg26
I01
sba(iSong
Song
p669
(dp670
g3
(dp671
g5
F0.991
sg6
VHow Long
p672
sg8
F0.5739160000000001
sg9
F0.327
sg10
S'blues'
p673
sg12
F0.0981
sg13
VC.W. Stoneking
p674
sg15
I9999
sg16
F0.562
sg17
Nsg18
Nsg19
Nsg20
F0.8113499999999999
sg21
F0.802
sg22
Nsg23
Nsg24
F0.0328
ssg25
I01
sg26
I01
sba(iSong
Song
p675
(dp676
g3
(dp677
g5
F0.454
sg6
VHeaven Sent
p678
sg8
F0.451524
sg9
F0.281
sg10
S'blues'
p679
sg12
F0.0292
sg13
VParker Millsap
p680
sg15
I9999
sg16
F0.403
sg17
Nsg18
Nsg19
Nsg20
F0.8272499999999999
sg21
F0.182
sg22
Nsg23
Nsg24
I0
ssg25
I01
sg26
I01
sba(iSong
Song
p681
(dp682
g3
(dp683
g5
F0.844
sg6
VHeaven Bent
p684
sg8
F0.496452
sg9
F0.157
sg10
S'blues'
p685
sg12
F0.0437
sg13
VLady Lamb
p686
sg15
I9999
sg16
F0.492
sg17
Nsg18
Nsg19
Nsg20
F0.8544666666666667
sg21
F0.131
sg22
Nsg23
Nsg24
I0
ssg25
I01
sg26
I01
sba(iSong
Song
p687
(dp688
g3
(dp689
g5
F0.763
sg6
VDarkwater
p690
sg8
F0.45516
sg9
F0.277
sg10
S'blues'
p691
sg12
F0.0308
sg13
VSam Williams
p692
sg15
I9999
sg16
F0.629
sg17
Nsg18
Nsg19
Nsg20
F0.7876833333333333
sg21
F0.628
sg22
Nsg23
Nsg24
F0.000147
ssg25
I01
sg26
I01
sba(iSong
Song
p693
(dp694
g3
(dp695
g5
F0.801
sg6
VLittle Jose
p696
sg8
F0.696668
sg9
F0.2
sg10
S'blues'
p697
sg12
F0.0385
sg13
VGrey Reverend
p698
sg15
I9999
sg16
F0.354
sg17
Nsg18
Nsg19
Nsg20
F0.7369833333333333
sg21
F0.228
sg22
Nsg23
Nsg24
F0.847
ssg25
I01
sg26
I01
sba(iSong
Song
p699
(dp700
g3
(dp701
g5
F0.955
sg6
VGold
p702
sg8
F0.495496
sg9
F0.137
sg10
S'blues'
p703
sg12
F0.0378
sg13
VArum Rae
p704
sg15
I9999
sg16
F0.325
sg17
Nsg18
Nsg19
Nsg20
F0.7484
sg21
F0.255
sg22
Nsg23
Nsg24
F0.144
ssg25
I01
sg26
I01
sba(iSong
Song
p705
(dp706
g3
(dp707
g5
F0.922
sg6
VBloodshot - Demo
p708
sg8
F0.301832
sg9
F0.0838
sg10
S'blues'
p709
sg12
F0.0561
sg13
VAlbin Lee Meldau
p710
sg15
I9999
sg16
F0.483
sg17
Nsg18
Nsg19
Nsg20
F0.7941833333333332
sg21
F0.162
sg22
Nsg23
Nsg24
F1.74e-05
ssg25
I01
sg26
I01
sba(iSong
Song
p711
(dp712
g3
(dp713
g5
F0.124
sg6
VSinging Saw
p714
sg8
F0.7368279999999999
sg9
F0.513
sg10
S'blues'
p715
sg12
F0.0284
sg13
VKevin Morby
p716
sg15
I9999
sg16
F0.462
sg17
Nsg18
Nsg19
Nsg20
F0.8684833333333334
sg21
F0.47
sg22
Nsg23
Nsg24
F0.205
ssg25
I01
sg26
I01
sba(iSong
Song
p717
(dp718
g3
(dp719
g5
F0.899
sg6
VOak Tree
p720
sg8
F0.403824
sg9
F0.273
sg10
S'blues'
p721
sg12
F0.0304
sg13
VMirel Wagner
p722
sg15
I9999
sg16
F0.553
sg17
Nsg18
Nsg19
Nsg20
F0.8070166666666666
sg21
F0.23
sg22
Nsg23
Nsg24
F0.442
ssg25
I01
sg26
I01
sba(iSong
Song
p723
(dp724
g3
(dp725
g5
F0.00203
sg6
VLittle Red Rooster
p726
sg8
F0.34448
sg9
F0.709
sg10
S'blues'
p727
sg12
F0.0504
sg13
VDan Owen
p728
sg15
I9999
sg16
F0.217
sg17
Nsg18
Nsg19
Nsg20
F0.9077333333333333
sg21
F0.401
sg22
Nsg23
Nsg24
F0.000442
ssg25
I01
sg26
I01
sba(iSong
Song
p729
(dp730
g3
(dp731
g5
F0.869
sg6
VBig Boss Man
p732
sg8
F0.5596720000000001
sg9
F0.261
sg10
S'blues'
p733
sg12
F0.0511
sg13
VWhitehorse
p734
sg15
I9999
sg16
F0.588
sg17
Nsg18
Nsg19
Nsg20
F0.8068833333333333
sg21
F0.316
sg22
Nsg23
Nsg24
F5.22e-05
ssg25
I01
sg26
I01
sba(iSong
Song
p735
(dp736
g3
(dp737
g5
F0.843
sg6
VBoneyard - Edit
p738
sg8
F0.426152
sg9
F0.475
sg10
S'blues'
p739
sg12
F0.0265
sg13
VFink
p740
sg15
I9999
sg16
F0.386
sg17
Nsg18
Nsg19
Nsg20
F0.8624333333333334
sg21
F0.391
sg22
Nsg23
Nsg24
F0.000106
ssg25
I01
sg26
I01
sba(iSong
Song
p741
(dp742
g3
(dp743
g5
F0.482
sg6
VMissing At Sea
p744
sg8
F0.497424
sg9
F0.5
sg10
S'blues'
p745
sg12
F0.0266
sg13
VMaggie Bjorklund
p746
sg15
I9999
sg16
F0.497
sg17
Nsg18
Nsg19
Nsg20
F0.8483499999999999
sg21
F0.263
sg22
Nsg23
Nsg24
F0.97
ssg25
I01
sg26
I01
sba(iSong
Song
p747
(dp748
g3
(dp749
g5
F0.139
sg6
VRed Right Hand - 2011 - Remaster
p750
sg8
F0.462632
sg9
F0.403
sg10
S'blues'
p751
sg12
F0.037
sg13
VNick Cave & The Bad Seeds
p752
sg15
I9999
sg16
F0.735
sg17
Nsg18
Nsg19
Nsg20
F0.8066833333333333
sg21
F0.453
sg22
Nsg23
Nsg24
F0.473
ssg25
I01
sg26
I01
sba(iSong
Song
p753
(dp754
g3
(dp755
g5
F0.868
sg6
VSlow Coming
p756
sg8
F0.484044
sg9
F0.511
sg10
S'blues'
p757
sg12
F0.0481
sg13
VBenjamin Booker
p758
sg15
I9999
sg16
F0.375
sg17
Nsg18
Nsg19
Nsg20
F0.8393666666666667
sg21
F0.474
sg22
Nsg23
Nsg24
F0.0138
ssg25
I01
sg26
I01
sba(iSong
Song
p759
(dp760
g3
(dp761
g5
F0.725
sg6
VAn Honest Man
p762
sg8
F0.519676
sg9
F0.548
sg10
S'blues'
p763
sg12
F0.0521
sg13
VFantastic Negrito
p764
sg15
I9999
sg16
F0.735
sg17
Nsg18
Nsg19
Nsg20
F0.9208833333333334
sg21
F0.391
sg22
Nsg23
Nsg24
I0
ssg25
I01
sg26
I01
sba(iSong
Song
p765
(dp766
g3
(dp767
g5
F0.0688
sg6
VCrocodile Tears
p768
sg8
F0.513204
sg9
F0.561
sg10
S'blues'
p769
sg12
F0.0491
sg13
Vlittle hurricane
p770
sg15
I9999
sg16
F0.341
sg17
Nsg18
Nsg19
Nsg20
F0.8372833333333334
sg21
F0.333
sg22
Nsg23
Nsg24
F0.0222
ssg25
I01
sg26
I01
sba(iSong
Song
p771
(dp772
g3
(dp773
g5
F0.655
sg6
VI Can't Go On Without You
p774
sg8
F0.36751999999999996
sg9
F0.267
sg10
S'blues'
p775
sg12
F0.0428
sg13
VKaleo
p776
sg15
I9999
sg16
F0.368
sg17
Nsg18
Nsg19
Nsg20
F0.8434166666666667
sg21
F0.194
sg22
Nsg23
Nsg24
F2.24e-05
ssg25
I01
sg26
I01
sba(iSong
Song
p777
(dp778
g3
(dp779
g5
F0.403
sg6
VTo Be Alone
p780
sg8
F0.2682
sg9
F0.443
sg10
S'blues'
p781
sg12
F0.0259
sg13
VHozier
p782
sg15
I9999
sg16
F0.559
sg17
Nsg18
Nsg19
Nsg20
F0.8913333333333334
sg21
F0.264
sg22
Nsg23
Nsg24
F0.000183
ssg25
I01
sg26
I01
sba(iSong
Song
p783
(dp784
g3
(dp785
g5
F0.634
sg6
VWild Horses - Acoustic
p786
sg8
F0.51986
sg9
F0.27
sg10
S'blues'
p787
sg12
F0.0349
sg13
VBishop Briggs
p788
sg15
I9999
sg16
F0.719
sg17
Nsg18
Nsg19
Nsg20
F0.8244333333333334
sg21
F0.299
sg22
Nsg23
Nsg24
I0
ssg25
I01
sg26
I01
sba(iSong
Song
p789
(dp790
g3
(dp791
g5
F0.777
sg6
VThe Dirt
p792
sg8
F0.40189600000000003
sg9
F0.092
sg10
S'blues'
p793
sg12
F0.158
sg13
VMirel Wagner
p794
sg15
I9999
sg16
F0.617
sg17
Nsg18
Nsg19
Nsg20
F0.7370833333333333
sg21
F0.17
sg22
Nsg23
Nsg24
F0.00613
ssg25
I01
sg26
I01
sba(iSong
Song
p795
(dp796
g3
(dp797
g5
F0.197
sg6
VCome on in My Kitchen
p798
sg8
F0.444224
sg9
F0.623
sg10
S'blues'
p799
sg12
F0.0406
sg13
VWhitehorse
p800
sg15
I9999
sg16
F0.481
sg17
Nsg18
Nsg19
Nsg20
F0.9020499999999999
sg21
F0.622
sg22
Nsg23
Nsg24
F0.0678
ssg25
I01
sg26
I01
sba(iSong
Song
p801
(dp802
g3
(dp803
g5
F0.942
sg6
VThe Mark - Live Solo
p804
sg8
F0.4183
sg9
F0.0591
sg10
S'blues'
p805
sg12
F0.0325
sg13
VCold Specks
p806
sg15
I9999
sg16
F0.469
sg17
Nsg18
Nsg19
Nsg20
F0.7239666666666668
sg21
F0.128
sg22
Nsg23
Nsg24
I0
ssg25
I01
sg26
I01
sba(iSong
Song
p807
(dp808
g3
(dp809
g5
F0.936
sg6
VForget - Live From Spotify NYC
p810
sg8
F0.38418
sg9
F0.38
sg10
S'blues'
p811
sg12
F0.0988
sg13
VLianne La Havas
p812
sg15
I9999
sg16
F0.558
sg17
Nsg18
Nsg19
Nsg20
F0.7838166666666666
sg21
F0.485
sg22
Nsg23
Nsg24
F0.000228
ssg25
I01
sg26
I01
sba(iSong
Song
p813
(dp814
g3
(dp815
g5
F0.915
sg6
VI Thought I Heard You Screaming
p816
sg8
F0.39472
sg9
F0.0734
sg10
S'blues'
p817
sg12
F0.0319
sg13
VBenjamin Booker
p818
sg15
I9999
sg16
F0.535
sg17
Nsg18
Nsg19
Nsg20
F0.7386
sg21
F0.321
sg22
Nsg23
Nsg24
F2.31e-05
ssg25
I01
sg26
I01
sba(iSong
Song
p819
(dp820
g3
(dp821
g5
F0.715
sg6
VLump in Your Throat - Radio Edit
p822
sg8
F0.480136
sg9
F0.467
sg10
S'blues'
p823
sg12
F0.0305
sg13
VAndrea Bignasca
p824
sg15
I9999
sg16
F0.677
sg17
Nsg18
Nsg19
Nsg20
F0.8667833333333334
sg21
F0.452
sg22
Nsg23
Nsg24
F0.0351
ssg25
I01
sg26
I01
sba(iSong
Song
p825
(dp826
g3
(dp827
g5
F0.464
sg6
VHoneysuckle Reel
p828
sg8
F0.461984
sg9
F0.414
sg10
S'blues'
p829
sg12
F0.0368
sg13
VDaniel Bachman
p830
sg15
I9999
sg16
F0.314
sg17
Nsg18
Nsg19
Nsg20
F0.78455
sg21
F0.388
sg22
Nsg23
Nsg24
F0.939
ssg25
I01
sg26
I01
sba(iSong
Song
p831
(dp832
g3
(dp833
g5
F0.558
sg6
VBy The Evening
p834
sg8
F0.694948
sg9
F0.328
sg10
S'blues'
p835
sg12
F0.0364
sg13
VBenjamin Booker
p836
sg15
I9999
sg16
F0.33
sg17
Nsg18
Nsg19
Nsg20
F0.8387833333333333
sg21
F0.332
sg22
Nsg23
Nsg24
F0.00114
ssg25
I01
sg26
I01
sba(iSong
Song
p837
(dp838
g3
(dp839
g5
F0.0046
sg6
VLazaretto
p840
sg8
F0.472856
sg9
F0.838
sg10
S'blues'
p841
sg12
F0.0709
sg13
VJack White
p842
sg15
I9999
sg16
F0.381
sg17
Nsg18
Nsg19
Nsg20
F0.8906333333333334
sg21
F0.581
sg22
Nsg23
Nsg24
F3.77e-05
ssg25
I01
sg26
I01
sba(iSong
Song
p843
(dp844
g3
(dp845
g5
F0.00274
sg6
VShake It
p846
sg8
F0.315984
sg9
F0.811
sg10
S'blues'
p847
sg12
F0.0786
sg13
VSteve Smyth
p848
sg15
I9999
sg16
F0.449
sg17
Nsg18
Nsg19
Nsg20
F0.9010333333333332
sg21
F0.274
sg22
Nsg23
Nsg24
F4.03e-05
ssg25
I01
sg26
I01
sba(iSong
Song
p849
(dp850
g3
(dp851
g5
F0.404
sg6
VIt Will Come Back
p852
sg8
F0.695572
sg9
F0.441
sg10
S'blues'
p853
sg12
F0.0397
sg13
VHozier
p854
sg15
I9999
sg16
F0.36
sg17
Nsg18
Nsg19
Nsg20
F0.8722666666666666
sg21
F0.201
sg22
Nsg23
Nsg24
F4.93e-06
ssg25
I01
sg26
I01
sba(iSong
Song
p855
(dp856
g3
(dp857
g5
F0.602
sg6
VDon't Need It
p858
sg8
F0.452444
sg9
F0.739
sg10
S'blues'
p859
sg12
F0.0383
sg13
VWilliam Elliott Whitmore
p860
sg15
I9999
sg16
F0.761
sg17
Nsg18
Nsg19
Nsg20
F0.8417666666666667
sg21
F0.392
sg22
Nsg23
Nsg24
F1.78e-06
ssg25
I01
sg26
I01
sba(iSong
Song
p861
(dp862
g3
(dp863
g5
F0.188
sg6
VTop Yourself
p864
sg8
F0.343596
sg9
F0.727
sg10
S'blues'
p865
sg12
F0.058
sg13
VThe Raconteurs
p866
sg15
I9999
sg16
F0.505
sg17
Nsg18
Nsg19
Nsg20
F0.91015
sg21
F0.254
sg22
Nsg23
Nsg24
F0.000826
ssg25
I01
sg26
I01
sba(iSong
Song
p867
(dp868
g3
(dp869
g5
F0.575
sg6
VNo Sugar In My Coffee
p870
sg8
F0.34014
sg9
F0.576
sg10
S'blues'
p871
sg12
F0.224
sg13
VCaught A Ghost
p872
sg15
I9999
sg16
F0.719
sg17
Nsg18
Nsg19
Nsg20
F0.89395
sg21
F0.429
sg22
Nsg23
Nsg24
F1.03e-05
ssg25
I01
sg26
I01
sba(iSong
Song
p873
(dp874
g3
(dp875
g5
F0.0762
sg6
VBang Bang Bang
p876
sg8
F0.568228
sg9
F0.62
sg10
S'blues'
p877
sg12
F0.0362
sg13
VDorothy
p878
sg15
I9999
sg16
F0.455
sg17
Nsg18
Nsg19
Nsg20
F0.91
sg21
F0.297
sg22
Nsg23
Nsg24
F0.015
ssg25
I01
sg26
I01
sba(iSong
Song
p879
(dp880
g3
(dp881
g5
F0.0657
sg6
VAin't No Easy Way
p882
sg8
F0.383144
sg9
F0.947
sg10
S'blues'
p883
sg12
F0.0457
sg13
VBlack Rebel Motorcycle Club
p884
sg15
I9999
sg16
F0.532
sg17
Nsg18
Nsg19
Nsg20
F0.9299999999999999
sg21
F0.748
sg22
Nsg23
Nsg24
F1.49e-06
ssg25
I01
sg26
I01
sba(iSong
Song
p885
(dp886
g3
(dp887
g5
F0.761
sg6
VLittle Lady Blues
p888
sg8
F0.548832
sg9
F0.328
sg10
S'blues'
p889
sg12
F0.045
sg13
VDaniel Bachman
p890
sg15
I9999
sg16
F0.407
sg17
Nsg18
Nsg19
Nsg20
F0.8493333333333334
sg21
F0.349
sg22
Nsg23
Nsg24
F0.772
ssg25
I01
sg26
I01
sba(iSong
Song
p891
(dp892
g3
(dp893
g5
F0.224
sg6
VHenry Nearly Killed Me (It's a Shame)
p894
sg8
F0.539184
sg9
F0.599
sg10
S'blues'
p895
sg12
F0.033
sg13
VRay LaMontagne
p896
sg15
I9999
sg16
F0.538
sg17
Nsg18
Nsg19
Nsg20
F0.8414666666666667
sg21
F0.429
sg22
Nsg23
Nsg24
F0.0703
ssg25
I01
sg26
I01
sba(iSong
Song
p897
(dp898
g3
(dp899
g5
F0.358
sg6
VGone Forever
p900
sg8
F0.38462
sg9
F0.729
sg10
S'blues'
p901
sg12
F0.0316
sg13
VMick Flannery
p902
sg15
I9999
sg16
F0.621
sg17
Nsg18
Nsg19
Nsg20
F0.9092166666666667
sg21
F0.767
sg22
Nsg23
Nsg24
I0
ssg25
I01
sg26
I01
sba(iSong
Song
p903
(dp904
g3
(dp905
g5
F0.878
sg6
VMy Love Will Never Die
p906
sg8
F0.33784
sg9
F0.0532
sg10
S'blues'
p907
sg12
F0.0318
sg13
VHozier
p908
sg15
I9999
sg16
F0.613
sg17
Nsg18
Nsg19
Nsg20
F0.755
sg21
F0.218
sg22
Nsg23
Nsg24
F0.0113
ssg25
I01
sg26
I01
sba(iSong
Song
p909
(dp910
g3
(dp911
g5
F0.202
sg6
VOld Number Seven
p912
sg8
F0.569816
sg9
F0.427
sg10
S'blues'
p913
sg12
F0.0405
sg13
VThe Devil Makes Three
p914
sg15
I9999
sg16
F0.571
sg17
Nsg18
Nsg19
Nsg20
F0.8737666666666667
sg21
F0.894
sg22
Nsg23
Nsg24
I0
ssg25
I01
sg26
I01
sba(iSong
Song
p915
(dp916
g3
(dp917
g5
F0.2
sg6
VNight Has Turned to Day
p918
sg8
F0.819696
sg9
F0.675
sg10
S'blues'
p919
sg12
F0.286
sg13
VFantastic Negrito
p920
sg15
I9999
sg16
F0.522
sg17
Nsg18
Nsg19
Nsg20
F0.91435
sg21
F0.588
sg22
Nsg23
Nsg24
I0
ssg25
I01
sg26
I01
sba(iSong
Song
p921
(dp922
g3
(dp923
g5
F0.126
sg6
VThree More Days
p924
sg8
F0.33564
sg9
F0.681
sg10
S'blues'
p925
sg12
F0.0328
sg13
VRay LaMontagne
p926
sg15
I9999
sg16
F0.56
sg17
Nsg18
Nsg19
Nsg20
F0.8606999999999999
sg21
F0.901
sg22
Nsg23
Nsg24
F0.000889
ssg25
I01
sg26
I01
sba(iSong
Song
p927
(dp928
g3
(dp929
g5
F0.725
sg6
V1922 Blues
p930
sg8
F0.47004399999999996
sg9
F0.715
sg10
S'blues'
p931
sg12
F0.0341
sg13
VCharlie Parr
p932
sg15
I9999
sg16
F0.466
sg17
Nsg18
Nsg19
Nsg20
F0.8732000000000001
sg21
F0.824
sg22
Nsg23
Nsg24
F0.353
ssg25
I01
sg26
I01
sba(iSong
Song
p933
(dp934
g3
(dp935
g5
F0.47
sg6
VCrazy Woman
p936
sg8
F0.394336
sg9
F0.704
sg10
S'blues'
p937
sg12
F0.0589
sg13
VJoseph LeMay
p938
sg15
I9999
sg16
F0.633
sg17
Nsg18
Nsg19
Nsg20
F0.8764666666666667
sg21
F0.742
sg22
Nsg23
Nsg24
F0.00047
ssg25
I01
sg26
I01
sba(iSong
Song
p939
(dp940
g3
(dp941
g5
F0.342
sg6
VTrouble
p942
sg8
F0.69296
sg9
F0.425
sg10
S'blues'
p943
sg12
F0.0455
sg13
VRay LaMontagne
p944
sg15
I9999
sg16
F0.321
sg17
Nsg18
Nsg19
Nsg20
F0.7878333333333333
sg21
F0.493
sg22
Nsg23
Nsg24
F0.000262
ssg25
I01
sg26
I01
sba(iSong
Song
p945
(dp946
g3
(dp947
g5
F0.962
sg6
VJohnny law
p948
sg8
F0.431012
sg9
F0.322
sg10
S'blues'
p949
sg12
F0.06
sg13
VWilliam Elliott Whitmore
p950
sg15
I9999
sg16
F0.687
sg17
Nsg18
Nsg19
Nsg20
F0.7830833333333334
sg21
F0.312
sg22
Nsg23
Nsg24
I0
ssg25
I01
sg26
I01
sba(iSong
Song
p951
(dp952
g3
(dp953
g5
F0.000943
sg6
VHoney Forgive Me
p954
sg8
F0.372228
sg9
F0.932
sg10
S'blues'
p955
sg12
F0.034
sg13
VJared James Nichols
p956
sg15
I9999
sg16
F0.596
sg17
Nsg18
Nsg19
Nsg20
F0.9278166666666666
sg21
F0.839
sg22
Nsg23
Nsg24
F0.0178
ssg25
I01
sg26
I01
sba(iSong
Song
p957
(dp958
g3
(dp959
g5
F0.00194
sg6
VU got 2 believe
p960
sg8
F0.371936
sg9
F0.908
sg10
S'blues'
p961
sg12
F0.0551
sg13
VPaulo Mendonca
p962
sg15
I9999
sg16
F0.616
sg17
Nsg18
Nsg19
Nsg20
F0.8855500000000001
sg21
F0.808
sg22
Nsg23
Nsg24
F0.00235
ssg25
I01
sg26
I01
sba(iSong
Song
p963
(dp964
g3
(dp965
g5
F0.00032
sg6
VTrue Lies
p966
sg8
F0.692744
sg9
F0.769
sg10
S'blues'
p967
sg12
F0.0317
sg13
VKenny Wayne Shepherd
p968
sg15
I9999
sg16
F0.367
sg17
Nsg18
Nsg19
Nsg20
F0.8790333333333333
sg21
F0.7
sg22
Nsg23
Nsg24
F0.628
ssg25
I01
sg26
I01
sba(iSong
Song
p969
(dp970
g3
(dp971
g5
F0.187
sg6
VHump Thru the Winter
p972
sg8
F0.304072
sg9
F0.697
sg10
S'blues'
p973
sg12
F0.164
sg13
VFantastic Negrito
p974
sg15
I9999
sg16
F0.734
sg17
Nsg18
Nsg19
Nsg20
F0.9071166666666667
sg21
F0.537
sg22
Nsg23
Nsg24
I0
ssg25
I01
sg26
I01
sba(iSong
Song
p975
(dp976
g3
(dp977
g5
F0.00321
sg6
VLong Coal Train
p978
sg8
F0.552136
sg9
F0.843
sg10
S'blues'
p979
sg12
F0.094
sg13
VBig Head Todd and The Monsters
p980
sg15
I9999
sg16
F0.58
sg17
Nsg18
Nsg19
Nsg20
F0.9070833333333332
sg21
F0.666
sg22
Nsg23
Nsg24
F0.112
ssg25
I01
sg26
I01
sba(iSong
Song
p981
(dp982
g3
(dp983
g5
F3.71e-05
sg6
VMake It Easy
p984
sg8
F0.495712
sg9
F0.908
sg10
S'blues'
p985
sg12
F0.0561
sg13
VRichie Kotzen
p986
sg15
I9999
sg16
F0.505
sg17
Nsg18
Nsg19
Nsg20
F0.9213833333333333
sg21
F0.494
sg22
Nsg23
Nsg24
F0.0092
ssg25
I01
sg26
I01
sba(iSong
Song
p987
(dp988
g3
(dp989
g5
F0.0315
sg6
VLove Is
p990
sg8
F0.396024
sg9
F0.776
sg10
S'blues'
p991
sg12
F0.0645
sg13
VTommy Castro
p992
sg15
I9999
sg16
F0.76
sg17
Nsg18
Nsg19
Nsg20
F0.9151
sg21
F0.935
sg22
Nsg23
Nsg24
F0.000124
ssg25
I01
sg26
I01
sba(iSong
Song
p993
(dp994
g3
(dp995
g5
F0.000697
sg6
VShake It
p996
sg8
F0.743692
sg9
F0.964
sg10
S'blues'
p997
sg12
F0.12
sg13
VRobert Randolph & The Family Band
p998
sg15
I9999
sg16
F0.351
sg17
Nsg18
Nsg19
Nsg20
F0.9375833333333333
sg21
F0.496
sg22
Nsg23
Nsg24
F0.0304
ssg25
I01
sg26
I01
sba(iSong
Song
p999
(dp1000
g3
(dp1001
g5
F0.219
sg6
VStronger
p1002
sg8
F0.388108
sg9
F0.676
sg10
S'blues'
p1003
sg12
F0.0307
sg13
VJessy Martens and Band
p1004
sg15
I9999
sg16
F0.718
sg17
Nsg18
Nsg19
Nsg20
F0.8759666666666667
sg21
F0.595
sg22
Nsg23
Nsg24
F0.000167
ssg25
I01
sg26
I01
sba(iSong
Song
p1005
(dp1006
g3
(dp1007
g5
F0.00683
sg6
VMorning Star
p1008
sg8
F0.31262799999999996
sg9
F0.913
sg10
S'blues'
p1009
sg12
F0.0713
sg13
VPhilip Sayce Group
p1010
sg15
I9999
sg16
F0.393
sg17
Nsg18
Nsg19
Nsg20
F0.9165166666666666
sg21
F0.651
sg22
Nsg23
Nsg24
F0.00328
ssg25
I01
sg26
I01
sba(iSong
Song
p1011
(dp1012
g3
(dp1013
g5
F0.0371
sg6
VDiamonds & Gold
p1014
sg8
F0.36816000000000004
sg9
F0.846
sg10
S'blues'
p1015
sg12
F0.0339
sg13
VKenny Wayne Shepherd
p1016
sg15
I9999
sg16
F0.574
sg17
Nsg18
Nsg19
Nsg20
F0.9049499999999999
sg21
F0.794
sg22
Nsg23
Nsg24
F4.08e-05
ssg25
I01
sg26
I01
sba(iSong
Song
p1017
(dp1018
g3
(dp1019
g5
F0.736
sg6
VCarry Yourself
p1020
sg8
F0.343848
sg9
F0.575
sg10
S'blues'
p1021
sg12
F0.0303
sg13
VEric Gales
p1022
sg15
I9999
sg16
F0.675
sg17
Nsg18
Nsg19
Nsg20
F0.9184
sg21
F0.778
sg22
Nsg23
Nsg24
F0.0171
ssg25
I01
sg26
I01
sba(iSong
Song
p1023
(dp1024
g3
(dp1025
g5
F0.00229
sg6
VOpenness
p1026
sg8
F0.679476
sg9
F0.891
sg10
S'blues'
p1027
sg12
F0.0621
sg13
VHenrik Freischlader Trio
p1028
sg15
I9999
sg16
F0.454
sg17
Nsg18
Nsg19
Nsg20
F0.9149833333333334
sg21
F0.752
sg22
Nsg23
Nsg24
F0.0135
ssg25
I01
sg26
I01
sba(iSong
Song
p1029
(dp1030
g3
(dp1031
g5
F0.43
sg6
VJust in case
p1032
sg8
F0.339524
sg9
F0.969
sg10
S'blues'
p1033
sg12
F0.0915
sg13
VPaulo Mendonca
p1034
sg15
I9999
sg16
F0.536
sg17
Nsg18
Nsg19
Nsg20
F0.9563333333333334
sg21
F0.805
sg22
Nsg23
Nsg24
F1.26e-06
ssg25
I01
sg26
I01
sba(iSong
Song
p1035
(dp1036
g3
(dp1037
g5
F0.000455
sg6
VBuilt For Comfort
p1038
sg8
F0.6513519999999999
sg9
F0.88
sg10
S'blues'
p1039
sg12
F0.0963
sg13
VBlack Stone Cherry
p1040
sg15
I9999
sg16
F0.333
sg17
Nsg18
Nsg19
Nsg20
F0.9486666666666667
sg21
F0.49
sg22
Nsg23
Nsg24
F0.135
ssg25
I01
sg26
I01
sba(iSong
Song
p1041
(dp1042
g3
(dp1043
g5
F0.00703
sg6
VThe Answer
p1044
sg8
F0.463856
sg9
F0.648
sg10
S'blues'
p1045
sg12
F0.0294
sg13
VTony Spinner
p1046
sg15
I9999
sg16
F0.676
sg17
Nsg18
Nsg19
Nsg20
F0.8924
sg21
F0.889
sg22
Nsg23
Nsg24
F0.00137
ssg25
I01
sg26
I01
sba(iSong
Song
p1047
(dp1048
g3
(dp1049
g5
F0.00279
sg6
VHighway Jones
p1050
sg8
F0.510992
sg9
F0.675
sg10
S'blues'
p1051
sg12
F0.0379
sg13
VCry Of Love
p1052
sg15
I9999
sg16
F0.611
sg17
Nsg18
Nsg19
Nsg20
F0.8278833333333334
sg21
F0.606
sg22
Nsg23
Nsg24
F0.00628
ssg25
I01
sg26
I01
sba(iSong
Song
p1053
(dp1054
g3
(dp1055
g5
F0.075
sg6
VStand Tall
p1056
sg8
F0.7352000000000001
sg9
F0.679
sg10
S'blues'
p1057
sg12
F0.0684
sg13
VRichie Kotzen
p1058
sg15
I9999
sg16
F0.606
sg17
Nsg18
Nsg19
Nsg20
F0.8984833333333333
sg21
F0.964
sg22
Nsg23
Nsg24
F0.00274
ssg25
I01
sg26
I01
sba(iSong
Song
p1059
(dp1060
g3
(dp1061
g5
F0.007
sg6
VFind a Way
p1062
sg8
F0.616004
sg9
F0.78
sg10
S'blues'
p1063
sg12
F0.0479
sg13
VRobert Randolph & The Family Band
p1064
sg15
I9999
sg16
F0.442
sg17
Nsg18
Nsg19
Nsg20
F0.9070666666666667
sg21
F0.666
sg22
Nsg23
Nsg24
I0
ssg25
I01
sg26
I01
sba(iSong
Song
p1065
(dp1066
g3
(dp1067
g5
F0.00357
sg6
VChills & Thrills
p1068
sg8
F0.4647
sg9
F0.657
sg10
S'blues'
p1069
sg12
F0.0429
sg13
VBernard Allison
p1070
sg15
I9999
sg16
F0.723
sg17
Nsg18
Nsg19
Nsg20
F0.9104666666666666
sg21
F0.803
sg22
Nsg23
Nsg24
F0.0179
ssg25
I01
sg26
I01
sba(iSong
Song
p1071
(dp1072
g3
(dp1073
g5
F0.112
sg6
VDon't Be a Fool
p1074
sg8
F0.47200400000000003
sg9
F0.878
sg10
S'blues'
p1075
sg12
F0.0396
sg13
VSimon McBride
p1076
sg15
I9999
sg16
F0.604
sg17
Nsg18
Nsg19
Nsg20
F0.9117666666666667
sg21
F0.705
sg22
Nsg23
Nsg24
F0.0282
ssg25
I01
sg26
I01
sba(iSong
Song
p1077
(dp1078
g3
(dp1079
g5
F0.0753
sg6
VShe Was a Doorman
p1080
sg8
F0.744892
sg9
F0.897
sg10
S'blues'
p1081
sg12
F0.131
sg13
VAna Popovic
p1082
sg15
I9999
sg16
F0.429
sg17
Nsg18
Nsg19
Nsg20
F0.9316666666666666
sg21
F0.823
sg22
Nsg23
Nsg24
F2.23e-05
ssg25
I01
sg26
I01
sba(iSong
Song
p1083
(dp1084
g3
(dp1085
g5
F0.0602
sg6
VWell Run Dry
p1086
sg8
F0.500156
sg9
F0.914
sg10
S'blues'
p1087
sg12
F0.0749
sg13
VPhat Phunktion
p1088
sg15
I9999
sg16
F0.71
sg17
Nsg18
Nsg19
Nsg20
F0.9401333333333334
sg21
F0.742
sg22
Nsg23
Nsg24
F0.00377
ssg25
I01
sg26
I01
sba(iSong
Song
p1089
(dp1090
g3
(dp1091
g5
F0.02
sg6
VSailin' Shoes
p1092
sg8
F0.378072
sg9
F0.913
sg10
S'blues'
p1093
sg12
F0.0594
sg13
VPhilip Sayce
p1094
sg15
I9999
sg16
F0.473
sg17
Nsg18
Nsg19
Nsg20
F0.8991666666666667
sg21
F0.594
sg22
Nsg23
Nsg24
F0.000109
ssg25
I01
sg26
I01
sba(iSong
Song
p1095
(dp1096
g3
(dp1097
g5
F0.0175
sg6
VPoint of View
p1098
sg8
F0.80872
sg9
F0.924
sg10
S'blues'
p1099
sg12
F0.0497
sg13
VHenrik Freischlader
p1100
sg15
I9999
sg16
F0.317
sg17
Nsg18
Nsg19
Nsg20
F0.94385
sg21
F0.701
sg22
Nsg23
Nsg24
F0.000148
ssg25
I01
sg26
I01
sba(iSong
Song
p1101
(dp1102
g3
(dp1103
g5
F0.295
sg6
VLove Sweet Love
p1104
sg8
F0.443912
sg9
F0.777
sg10
S'blues'
p1105
sg12
F0.0262
sg13
VAnthony Gomes
p1106
sg15
I9999
sg16
F0.612
sg17
Nsg18
Nsg19
Nsg20
F0.9526166666666666
sg21
F0.857
sg22
Nsg23
Nsg24
I0
ssg25
I01
sg26
I01
sba(iSong
Song
p1107
(dp1108
g3
(dp1109
g5
F0.0971
sg6
VBig Mouth
p1110
sg8
F0.39748
sg9
F0.743
sg10
S'blues'
p1111
sg12
F0.0349
sg13
VMike Zito
p1112
sg15
I9999
sg16
F0.604
sg17
Nsg18
Nsg19
Nsg20
F0.8926333333333333
sg21
F0.823
sg22
Nsg23
Nsg24
F0.000131
ssg25
I01
sg26
I01
sba(iSong
Song
p1113
(dp1114
g3
(dp1115
g5
F0.133
sg6
VGo Faster
p1116
sg8
F0.47236
sg9
F0.939
sg10
S'blues'
p1117
sg12
F0.0554
sg13
VRichie Kotzen
p1118
sg15
I9999
sg16
F0.504
sg17
Nsg18
Nsg19
Nsg20
F0.9702333333333333
sg21
F0.741
sg22
Nsg23
Nsg24
F0.00758
ssg25
I01
sg26
I01
sba(iSong
Song
p1119
(dp1120
g3
(dp1121
g5
F0.0846
sg6
VFew And Far Between
p1122
sg8
F0.76166
sg9
F0.627
sg10
S'blues'
p1123
sg12
F0.122
sg13
VShannon Curfman
p1124
sg15
I9999
sg16
F0.574
sg17
Nsg18
Nsg19
Nsg20
F0.8969666666666666
sg21
F0.864
sg22
Nsg23
Nsg24
I0
ssg25
I01
sg26
I01
sba(iSong
Song
p1125
(dp1126
g3
(dp1127
g5
F0.212
sg6
VOpen Road
p1128
sg8
F0.36804000000000003
sg9
F0.576
sg10
S'blues'
p1129
sg12
F0.0565
sg13
VOli Brown
p1130
sg15
I9999
sg16
F0.628
sg17
Nsg18
Nsg19
Nsg20
F0.9217666666666666
sg21
F0.693
sg22
Nsg23
Nsg24
F4.47e-05
ssg25
I01
sg26
I01
sba(iSong
Song
p1131
(dp1132
g3
(dp1133
g5
F0.0143
sg6
VLife On The Outside
p1134
sg8
F0.427156
sg9
F0.99
sg10
S'blues'
p1135
sg12
F0.125
sg13
VGov't Mule
p1136
sg15
I9999
sg16
F0.498
sg17
Nsg18
Nsg19
Nsg20
F0.9546499999999999
sg21
F0.394
sg22
Nsg23
Nsg24
F0.0258
ssg25
I01
sg26
I01
sba(iSong
Song
p1137
(dp1138
g3
(dp1139
g5
F0.16
sg6
VBefore You Hit The Ground
p1140
sg8
F0.368676
sg9
F0.876
sg10
S'blues'
p1141
sg12
F0.0873
sg13
VJonny Lang
p1142
sg15
I9999
sg16
F0.724
sg17
Nsg18
Nsg19
Nsg20
F0.9024333333333333
sg21
F0.812
sg22
Nsg23
Nsg24
F0.00278
ssg25
I01
sg26
I01
sba(iSong
Song
p1143
(dp1144
g3
(dp1145
g5
F0.00371
sg6
VMotivational Speaker
p1146
sg8
F0.406068
sg9
F0.849
sg10
S'blues'
p1147
sg12
F0.0389
sg13
VAlvin Youngblood Hart
p1148
sg15
I9999
sg16
F0.608
sg17
Nsg18
Nsg19
Nsg20
F0.889
sg21
F0.644
sg22
Nsg23
Nsg24
F0.0259
ssg25
I01
sg26
I01
sba(iSong
Song
p1149
(dp1150
g3
(dp1151
g5
F0.000197
sg6
VFunky Guitar Blues
p1152
sg8
F0.45957600000000004
sg9
F0.871
sg10
S'blues'
p1153
sg12
F0.029
sg13
VBryce Janey
p1154
sg15
I9999
sg16
F0.563
sg17
Nsg18
Nsg19
Nsg20
F0.9029166666666666
sg21
F0.517
sg22
Nsg23
Nsg24
F0.0128
ssg25
I01
sg26
I01
sba(iSong
Song
p1155
(dp1156
g3
(dp1157
g5
F0.0203
sg6
VWho Do You Love?
p1158
sg8
F0.416056
sg9
F0.648
sg10
S'blues'
p1159
sg12
F0.0382
sg13
VJoanne Shaw Taylor
p1160
sg15
I9999
sg16
F0.629
sg17
Nsg18
Nsg19
Nsg20
F0.7656166666666666
sg21
F0.691
sg22
Nsg23
Nsg24
F0.0356
ssg25
I01
sg26
I01
sba(iSong
Song
p1161
(dp1162
g3
(dp1163
g5
F0.251
sg6
VT.C.B. or T.Y.A.
p1164
sg8
F0.41627600000000003
sg9
F0.958
sg10
S'blues'
p1165
sg12
F0.154
sg13
VEdwin McCain
p1166
sg15
I9999
sg16
F0.74
sg17
Nsg18
Nsg19
Nsg20
F0.9627333333333333
sg21
F0.83
sg22
Nsg23
Nsg24
F5.84e-06
ssg25
I01
sg26
I01
sba(iSong
Song
p1167
(dp1168
g3
(dp1169
g5
F0.0766
sg6
VVixen Eyes
p1170
sg8
F0.44020800000000004
sg9
F0.873
sg10
S'blues'
p1171
sg12
F0.0538
sg13
VGugun Power Trio
p1172
sg15
I9999
sg16
F0.688
sg17
Nsg18
Nsg19
Nsg20
F0.8758666666666667
sg21
F0.905
sg22
Nsg23
Nsg24
F0.00173
ssg25
I01
sg26
I01
sba(iSong
Song
p1173
(dp1174
g3
(dp1175
g5
F0.000233
sg6
VSoul On Fire
p1176
sg8
F0.52616
sg9
F0.858
sg10
S'blues'
p1177
sg12
F0.0392
sg13
VSaint Jude
p1178
sg15
I9999
sg16
F0.46
sg17
Nsg18
Nsg19
Nsg20
F0.9250833333333334
sg21
F0.502
sg22
Nsg23
Nsg24
F6.72e-05
ssg25
I01
sg26
I01
sba(iSong
Song
p1179
(dp1180
g3
(dp1181
g5
F0.0132
sg6
VWalkin' The Dawg
p1182
sg8
F0.349508
sg9
F0.923
sg10
S'blues'
p1183
sg12
F0.0474
sg13
VTony Spinner
p1184
sg15
I9999
sg16
F0.626
sg17
Nsg18
Nsg19
Nsg20
F0.9258666666666666
sg21
F0.845
sg22
Nsg23
Nsg24
F0.000771
ssg25
I01
sg26
I01
sba(iSong
Song
p1185
(dp1186
g3
(dp1187
g5
F0.0929
sg6
VLives That Don't Exist
p1188
sg8
F0.40244
sg9
F0.92
sg10
S'blues'
p1189
sg12
F0.0849
sg13
VAna Popovic
p1190
sg15
I9999
sg16
F0.715
sg17
Nsg18
Nsg19
Nsg20
F0.9301833333333334
sg21
F0.798
sg22
Nsg23
Nsg24
I0
ssg25
I01
sg26
I01
sba(iSong
Song
p1191
(dp1192
g3
(dp1193
g5
F0.0582
sg6
VDark Side Of Love
p1194
sg8
F0.47231599999999996
sg9
F0.879
sg10
S'blues'
p1195
sg12
F0.0469
sg13
VKenny Wayne Shepherd
p1196
sg15
I9999
sg16
F0.525
sg17
Nsg18
Nsg19
Nsg20
F0.9178833333333334
sg21
F0.842
sg22
Nsg23
Nsg24
F0.00396
ssg25
I01
sg26
I01
sba(iSong
Song
p1197
(dp1198
g3
(dp1199
g5
F0.00178
sg6
VHoney
p1200
sg8
F0.669
sg9
F0.887
sg10
S'blues'
p1201
sg12
F0.0497
sg13
VPaulo Mendonca
p1202
sg15
I9999
sg16
F0.467
sg17
Nsg18
Nsg19
Nsg20
F0.91255
sg21
F0.756
sg22
Nsg23
Nsg24
I0
ssg25
I01
sg26
I01
sba(iSong
Song
p1203
(dp1204
g3
(dp1205
g5
F0.000744
sg6
VLove Ain't a Love Song
p1206
sg8
F0.377656
sg9
F0.944
sg10
S'blues'
p1207
sg12
F0.0686
sg13
VJoe Bonamassa
p1208
sg15
I9999
sg16
F0.471
sg17
Nsg18
Nsg19
Nsg20
F0.9221166666666666
sg21
F0.763
sg22
Nsg23
Nsg24
F0.000587
ssg25
I01
sg26
I01
sba(iSong
Song
p1209
(dp1210
g3
(dp1211
g5
F0.194
sg6
VGroove With Me
p1212
sg8
F0.398092
sg9
F0.689
sg10
S'blues'
p1213
sg12
F0.0715
sg13
VBernard Allison
p1214
sg15
I9999
sg16
F0.816
sg17
Nsg18
Nsg19
Nsg20
F0.90345
sg21
F0.567
sg22
Nsg23
Nsg24
F0.0322
ssg25
I01
sg26
I01
sba(iSong
Song
p1215
(dp1216
g3
(dp1217
g5
F0.815
sg6
VDiving Duck Blues
p1218
sg8
F0.526288
sg9
F0.269
sg10
S'blues'
p1219
sg12
F0.0394
sg13
VTaj Mahal
p1220
sg15
I9999
sg16
F0.616
sg17
Nsg18
Nsg19
Nsg20
F0.80615
sg21
F0.696
sg22
Nsg23
Nsg24
I0
ssg25
I01
sg26
I01
sba(iSong
Song
p1221
(dp1222
g3
(dp1223
g5
F0.814
sg6
VBumble Bee (Live)
p1224
sg8
F0.302908
sg9
F0.244
sg10
S'blues'
p1225
sg12
F0.063
sg13
VDani Wilde
p1226
sg15
I9999
sg16
F0.471
sg17
Nsg18
Nsg19
Nsg20
F0.8496166666666667
sg21
F0.444
sg22
Nsg23
Nsg24
F4.25e-05
ssg25
I01
sg26
I01
sba(iSong
Song
p1227
(dp1228
g3
(dp1229
g5
F0.716
sg6
VNo Expectations
p1230
sg8
F0.33784800000000004
sg9
F0.28
sg10
S'blues'
p1231
sg12
F0.0361
sg13
VGeorge Thorogood
p1232
sg15
I9999
sg16
F0.47
sg17
Nsg18
Nsg19
Nsg20
F0.8484499999999999
sg21
F0.261
sg22
Nsg23
Nsg24
F0.0029
ssg25
I01
sg26
I01
sba(iSong
Song
p1233
(dp1234
g3
(dp1235
g5
F0.913
sg6
VKansas City Blues
p1236
sg8
F0.318304
sg9
F0.276
sg10
S'blues'
p1237
sg12
F0.0481
sg13
VSteve Howell
p1238
sg15
I9999
sg16
F0.584
sg17
Nsg18
Nsg19
Nsg20
F0.7957333333333333
sg21
F0.398
sg22
Nsg23
Nsg24
F0.000562
ssg25
I01
sg26
I01
sba(iSong
Song
p1239
(dp1240
g3
(dp1241
g5
F0.872
sg6
VDelta Getaway
p1242
sg8
F0.397216
sg9
F0.281
sg10
S'blues'
p1243
sg12
F0.0489
sg13
VEric Bibb
p1244
sg15
I9999
sg16
F0.778
sg17
Nsg18
Nsg19
Nsg20
F0.78345
sg21
F0.783
sg22
Nsg23
Nsg24
F0.00878
ssg25
I01
sg26
I01
sba(iSong
Song
p1245
(dp1246
g3
(dp1247
g5
F0.816
sg6
VBreak My Fall
p1248
sg8
F0.557232
sg9
F0.317
sg10
S'blues'
p1249
sg12
F0.0297
sg13
VThe Cold Stares
p1250
sg15
I9999
sg16
F0.49
sg17
Nsg18
Nsg19
Nsg20
F0.8646666666666667
sg21
F0.251
sg22
Nsg23
Nsg24
F0.000123
ssg25
I01
sg26
I01
sba(iSong
Song
p1251
(dp1252
g3
(dp1253
g5
F0.816
sg6
VBad to the Bone
p1254
sg8
F0.675756
sg9
F0.0704
sg10
S'blues'
p1255
sg12
F0.0678
sg13
VCarolyn Wonderland
p1256
sg15
I9999
sg16
F0.578
sg17
Nsg18
Nsg19
Nsg20
F0.776
sg21
F0.288
sg22
Nsg23
Nsg24
F0.00298
ssg25
I01
sg26
I01
sba(iSong
Song
p1257
(dp1258
g3
(dp1259
g5
F0.834
sg6
VLead Me On
p1260
sg8
F0.706664
sg9
F0.307
sg10
S'blues'
p1261
sg12
F0.031
sg13
VKelly Joe Phelps
p1262
sg15
I9999
sg16
F0.345
sg17
Nsg18
Nsg19
Nsg20
F0.7671666666666667
sg21
F0.483
sg22
Nsg23
Nsg24
F0.000239
ssg25
I01
sg26
I01
sba(iSong
Song
p1263
(dp1264
g3
(dp1265
g5
F0.458
sg6
VAm I Wrong
p1266
sg8
F0.4506
sg9
F0.476
sg10
S'blues'
p1267
sg12
F0.0528
sg13
VKeb' Mo'
p1268
sg15
I9999
sg16
F0.882
sg17
Nsg18
Nsg19
Nsg20
F0.8460833333333333
sg21
F0.964
sg22
Nsg23
Nsg24
F2.47e-06
ssg25
I01
sg26
I01
sba(iSong
Song
p1269
(dp1270
g3
(dp1271
g5
F0.522
sg6
VCross Creek Road
p1272
sg8
F0.53012
sg9
F0.248
sg10
S'blues'
p1273
sg12
F0.0752
sg13
VBig Daddy Wilson
p1274
sg15
I9999
sg16
F0.708
sg17
Nsg18
Nsg19
Nsg20
F0.8351000000000001
sg21
F0.612
sg22
Nsg23
Nsg24
F2.7e-06
ssg25
I01
sg26
I01
sba(iSong
Song
p1275
(dp1276
g3
(dp1277
g5
F0.952
sg6
VOh Lord
p1278
sg8
F0.535432
sg9
F0.197
sg10
S'blues'
p1279
sg12
F0.0324
sg13
VJj Thames
p1280
sg15
I9999
sg16
F0.492
sg17
Nsg18
Nsg19
Nsg20
F0.7573333333333333
sg21
F0.29
sg22
Nsg23
Nsg24
F0.000171
ssg25
I01
sg26
I01
sba(iSong
Song
p1281
(dp1282
g3
(dp1283
g5
F0.773
sg6
VWith My Maker I Am One
p1284
sg8
F0.39180000000000004
sg9
F0.213
sg10
S'blues'
p1285
sg12
F0.0479
sg13
VEric Bibb
p1286
sg15
I9999
sg16
F0.791
sg17
Nsg18
Nsg19
Nsg20
F0.8141
sg21
F0.597
sg22
Nsg23
Nsg24
F2.39e-05
ssg25
I01
sg26
I01
sba(iSong
Song
p1287
(dp1288
g3
(dp1289
g5
F0.618
sg6
VRiding In the Moonlight / Mr. Luck
p1290
sg8
F0.524492
sg9
F0.697
sg10
S'blues'
p1291
sg12
F0.0813
sg13
VColin James
p1292
sg15
I9999
sg16
F0.619
sg17
Nsg18
Nsg19
Nsg20
F0.8972166666666667
sg21
F0.961
sg22
Nsg23
Nsg24
F0.000315
ssg25
I01
sg26
I01
sba(iSong
Song
p1293
(dp1294
g3
(dp1295
g5
F0.885
sg6
VRight Here
p1296
sg8
F0.573504
sg9
F0.194
sg10
S'blues'
p1297
sg12
F0.0729
sg13
VKeller Williams
p1298
sg15
I9999
sg16
F0.633
sg17
Nsg18
Nsg19
Nsg20
F0.7576166666666667
sg21
F0.421
sg22
Nsg23
Nsg24
F0.404
ssg25
I01
sg26
I01
sba(iSong
Song
p1299
(dp1300
g3
(dp1301
g5
F0.346
sg6
VGoing Down the Road Feeling Bad
p1302
sg8
F0.7318640000000001
sg9
F0.567
sg10
S'blues'
p1303
sg12
F0.0397
sg13
VSteve Hill
p1304
sg15
I9999
sg16
F0.401
sg17
Nsg18
Nsg19
Nsg20
F0.84455
sg21
F0.622
sg22
Nsg23
Nsg24
F0.125
ssg25
I01
sg26
I01
sba(iSong
Song
p1305
(dp1306
g3
(dp1307
g5
F0.871
sg6
VDon't Ask Me (Bonus Track)
p1308
sg8
F0.4249
sg9
F0.391
sg10
S'blues'
p1309
sg12
F0.121
sg13
VSeasick Steve
p1310
sg15
I9999
sg16
F0.671
sg17
Nsg18
Nsg19
Nsg20
F0.7761666666666667
sg21
F0.288
sg22
Nsg23
Nsg24
F0.0265
ssg25
I01
sg26
I01
sba(iSong
Song
p1311
(dp1312
g3
(dp1313
g5
F0.928
sg6
VRefugee Moan
p1314
sg8
F0.512632
sg9
F0.22
sg10
S'blues'
p1315
sg12
F0.0953
sg13
VEric Bibb
p1316
sg15
I9999
sg16
F0.639
sg17
Nsg18
Nsg19
Nsg20
F0.7884333333333333
sg21
F0.514
sg22
Nsg23
Nsg24
F0.00156
ssg25
I01
sg26
I01
sba(iSong
Song
p1317
(dp1318
g3
(dp1319
g5
F0.983
sg6
VSo Grateful
p1320
sg8
F0.374636
sg9
F0.109
sg10
S'blues'
p1321
sg12
F0.0355
sg13
VCee Cee James
p1322
sg15
I9999
sg16
F0.434
sg17
Nsg18
Nsg19
Nsg20
F0.7453500000000001
sg21
F0.25
sg22
Nsg23
Nsg24
F0.000376
ssg25
I01
sg26
I01
sba(iSong
Song
p1323
(dp1324
g3
(dp1325
g5
F0.906
sg6
VOh Now
p1326
sg8
F0.697708
sg9
F0.207
sg10
S'blues'
p1327
sg12
F0.0299
sg13
VBrian Casey
p1328
sg15
I9999
sg16
F0.452
sg17
Nsg18
Nsg19
Nsg20
F0.7826166666666666
sg21
F0.347
sg22
Nsg23
Nsg24
F0.283
ssg25
I01
sg26
I01
sba(iSong
Song
p1329
(dp1330
g3
(dp1331
g5
F0.872
sg6
VWhen the Levee Breaks (feat. Jean Jacques Milteau)
p1332
sg8
F0.417888
sg9
F0.211
sg10
S'blues'
p1333
sg12
F0.0497
sg13
VCary Morin
p1334
sg15
I9999
sg16
F0.73
sg17
Nsg18
Nsg19
Nsg20
F0.7847666666666666
sg21
F0.76
sg22
Nsg23
Nsg24
F0.19
ssg25
I01
sg26
I01
sba(iSong
Song
p1335
(dp1336
g3
(dp1337
g5
F0.91
sg6
VLong Way Home
p1338
sg8
F0.312132
sg9
F0.054
sg10
S'blues'
p1339
sg12
F0.038
sg13
VClarence "Gatemouth" Brown
p1340
sg15
I9999
sg16
F0.728
sg17
Nsg18
Nsg19
Nsg20
F0.62405
sg21
F0.425
sg22
Nsg23
Nsg24
F0.048
ssg25
I01
sg26
I01
sba(iSong
Song
p1341
(dp1342
g3
(dp1343
g5
F0.861
sg6
VYou Don't Care for Me Enough to Cry
p1344
sg8
F0.36138400000000004
sg9
F0.208
sg10
S'blues'
p1345
sg12
F0.0359
sg13
VJohn Moreland
p1346
sg15
I9999
sg16
F0.389
sg17
Nsg18
Nsg19
Nsg20
F0.8055166666666668
sg21
F0.233
sg22
Nsg23
Nsg24
F7.76e-06
ssg25
I01
sg26
I01
sba(iSong
Song
p1347
(dp1348
g3
(dp1349
g5
F0.84
sg6
VThumb A Ride
p1350
sg8
F0.38416
sg9
F0.27
sg10
S'blues'
p1351
sg12
F0.0367
sg13
VBig Daddy Wilson
p1352
sg15
I9999
sg16
F0.727
sg17
Nsg18
Nsg19
Nsg20
F0.78035
sg21
F0.742
sg22
Nsg23
Nsg24
F0.124
ssg25
I01
sg26
I01
sba(iSong
Song
p1353
(dp1354
g3
(dp1355
g5
F0.818
sg6
VApple Picker (Acoustic)
p1356
sg8
F0.456544
sg9
F0.102
sg10
S'blues'
p1357
sg12
F0.061
sg13
VLittle G Weevil
p1358
sg15
I9999
sg16
F0.692
sg17
Nsg18
Nsg19
Nsg20
F0.80465
sg21
F0.475
sg22
Nsg23
Nsg24
F0.00328
ssg25
I01
sg26
I01
sba(iSong
Song
p1359
(dp1360
g3
(dp1361
g5
F0.837
sg6
VBaby, Please Don't Go
p1362
sg8
F0.49724799999999997
sg9
F0.408
sg10
S'blues'
p1363
sg12
F0.0328
sg13
VPreacher Boy
p1364
sg15
I9999
sg16
F0.553
sg17
Nsg18
Nsg19
Nsg20
F0.8754000000000001
sg21
F0.16
sg22
Nsg23
Nsg24
F0.00034
ssg25
I01
sg26
I01
sba(iSong
Song
p1365
(dp1366
g3
(dp1367
g5
F0.924
sg6
VWalking Blues
p1368
sg8
F0.425712
sg9
F0.104
sg10
S'blues'
p1369
sg12
F0.053
sg13
VRory Block
p1370
sg15
I9999
sg16
F0.831
sg17
Nsg18
Nsg19
Nsg20
F0.75575
sg21
F0.572
sg22
Nsg23
Nsg24
I0
ssg25
I01
sg26
I01
sba(iSong
Song
p1371
(dp1372
g3
(dp1373
g5
F0.746
sg6
VGoing To Canada
p1374
sg8
F0.37891199999999997
sg9
F0.416
sg10
S'blues'
p1375
sg12
F0.111
sg13
VJoe Louis Walker
p1376
sg15
I9999
sg16
F0.528
sg17
Nsg18
Nsg19
Nsg20
F0.7695166666666666
sg21
F0.826
sg22
Nsg23
Nsg24
F0.00864
ssg25
I01
sg26
I01
sba(iSong
Song
p1377
(dp1378
g3
(dp1379
g5
F0.774
sg6
VMake Me A Pallet On Your Floor
p1380
sg8
F0.720872
sg9
F0.398
sg10
S'blues'
p1381
sg12
F0.0328
sg13
VRory Block
p1382
sg15
I9999
sg16
F0.392
sg17
Nsg18
Nsg19
Nsg20
F0.8417833333333333
sg21
F0.721
sg22
Nsg23
Nsg24
F0.00229
ssg25
I01
sg26
I01
sba(iSong
Song
p1383
(dp1384
g3
(dp1385
g5
F0.676
sg6
VSeven Hours Of Light
p1386
sg8
F0.698504
sg9
F0.098
sg10
S'blues'
p1387
sg12
F0.122
sg13
VOtis Taylor
p1388
sg15
I9999
sg16
F0.595
sg17
Nsg18
Nsg19
Nsg20
F0.7544
sg21
F0.451
sg22
Nsg23
Nsg24
F0.128
ssg25
I01
sg26
I01
sba(iSong
Song
p1389
(dp1390
g3
(dp1391
g5
F0.758
sg6
VPrisoner
p1392
sg8
F0.35982
sg9
F0.086
sg10
S'blues'
p1393
sg12
F0.036
sg13
VCary Morin
p1394
sg15
I9999
sg16
F0.54
sg17
Nsg18
Nsg19
Nsg20
F0.7284666666666666
sg21
F0.285
sg22
Nsg23
Nsg24
F6e-05
ssg25
I01
sg26
I01
sba(iSong
Song
p1395
(dp1396
g3
(dp1397
g5
F0.823
sg6
VAmerica the Beautiful
p1398
sg8
F0.319232
sg9
F0.31
sg10
S'blues'
p1399
sg12
F0.0303
sg13
VKeb' Mo'
p1400
sg15
I9999
sg16
F0.67
sg17
Nsg18
Nsg19
Nsg20
F0.8418833333333333
sg21
F0.501
sg22
Nsg23
Nsg24
F0.000154
ssg25
I01
sg26
I01
sba(iSong
Song
p1401
(dp1402
g3
(dp1403
g5
F0.81
sg6
VPlay With Your Poodle
p1404
sg8
F0.663572
sg9
F0.43
sg10
S'blues'
p1405
sg12
F0.25
sg13
VJames Cotton
p1406
sg15
I9999
sg16
F0.515
sg17
Nsg18
Nsg19
Nsg20
F0.8181333333333334
sg21
F0.624
sg22
Nsg23
Nsg24
F0.0069
ssg25
I01
sg26
I01
sba(iSong
Song
p1407
(dp1408
g3
(dp1409
g5
F0.941
sg6
VTalkin' To Jehova
p1410
sg8
F0.42853600000000003
sg9
F0.142
sg10
S'blues'
p1411
sg12
F0.05
sg13
VKelly Joe Phelps
p1412
sg15
I9999
sg16
F0.72
sg17
Nsg18
Nsg19
Nsg20
F0.6956666666666665
sg21
F0.64
sg22
Nsg23
Nsg24
F0.0969
ssg25
I01
sg26
I01
sba(iSong
Song
p1413
(dp1414
g3
(dp1415
g5
F0.873
sg6
VMaybe I'll Go
p1416
sg8
F0.317612
sg9
F0.247
sg10
S'blues'
p1417
sg12
F0.047
sg13
VGuy Davis
p1418
sg15
I9999
sg16
F0.666
sg17
Nsg18
Nsg19
Nsg20
F0.7787833333333334
sg21
F0.721
sg22
Nsg23
Nsg24
F0.00656
ssg25
I01
sg26
I01
sba(iSong
Song
p1419
(dp1420
g3
(dp1421
g5
F0.311
sg6
VSlowly Slipping Away
p1422
sg8
F0.70968
sg9
F0.444
sg10
S'blues'
p1423
sg12
F0.0345
sg13
VSteve Hill
p1424
sg15
I9999
sg16
F0.384
sg17
Nsg18
Nsg19
Nsg20
F0.8496666666666667
sg21
F0.663
sg22
Nsg23
Nsg24
F0.000449
ssg25
I01
sg26
I01
sba(iSong
Song
p1425
(dp1426
g3
(dp1427
g5
F0.98
sg6
VLet's Have Some Fun
p1428
sg8
F0.365028
sg9
F0.318
sg10
S'blues'
p1429
sg12
F0.0281
sg13
VSamantha Fish
p1430
sg15
I9999
sg16
F0.674
sg17
Nsg18
Nsg19
Nsg20
F0.88625
sg21
F0.189
sg22
Nsg23
Nsg24
F0.00144
ssg25
I01
sg26
I01
sba(iSong
Song
p1431
(dp1432
g3
(dp1433
g5
F0.848
sg6
VBig Mama's Door
p1434
sg8
F0.394108
sg9
F0.195
sg10
S'blues'
p1435
sg12
F0.0406
sg13
VAlvin Youngblood Hart
p1436
sg15
I9999
sg16
F0.628
sg17
Nsg18
Nsg19
Nsg20
F0.7824333333333333
sg21
F0.538
sg22
Nsg23
Nsg24
F5.05e-05
ssg25
I01
sg26
I01
sba(iSong
Song
p1437
(dp1438
g3
(dp1439
g5
F0.964
sg6
VCalling Out To You
p1440
sg8
F0.40826799999999996
sg9
F0.118
sg10
S'blues'
p1441
sg12
F0.0358
sg13
VTedeschi Trucks Band
p1442
sg15
I9999
sg16
F0.597
sg17
Nsg18
Nsg19
Nsg20
F0.7682
sg21
F0.316
sg22
Nsg23
Nsg24
F0.00132
ssg25
I01
sg26
I01
sba(iSong
Song
p1443
(dp1444
g3
(dp1445
g5
F0.837
sg6
VSearching Blues
p1446
sg8
F0.46768400000000004
sg9
F0.249
sg10
S'blues'
p1447
sg12
F0.0338
sg13
VManuel Galvin
p1448
sg15
I9999
sg16
F0.687
sg17
Nsg18
Nsg19
Nsg20
F0.7647999999999999
sg21
F0.471
sg22
Nsg23
Nsg24
F0.0033
ssg25
I01
sg26
I01
sba(iSong
Song
p1449
(dp1450
g3
(dp1451
g5
F0.419
sg6
VWalking the dog
p1452
sg8
F0.452884
sg9
F0.165
sg10
S'blues'
p1453
sg12
F0.0584
sg13
VHans Theessink
p1454
sg15
I9999
sg16
F0.837
sg17
Nsg18
Nsg19
Nsg20
F0.8175666666666667
sg21
F0.446
sg22
Nsg23
Nsg24
F2.92e-06
ssg25
I01
sg26
I01
sba(iSong
Song
p1455
(dp1456
g3
(dp1457
g5
F0.878
sg6
VSamson And Delilah
p1458
sg8
F0.457208
sg9
F0.237
sg10
S'blues'
p1459
sg12
F0.0567
sg13
VRev. Gary Davis
p1460
sg15
I9999
sg16
F0.712
sg17
Nsg18
Nsg19
Nsg20
F0.7683666666666668
sg21
F0.751
sg22
Nsg23
Nsg24
F0.000601
ssg25
I01
sg26
I01
sba(iSong
Song
p1461
(dp1462
g3
(dp1463
g5
F0.978
sg6
VKeep Your Lamp Trimmed And Burning
p1464
sg8
F0.536948
sg9
F0.0422
sg10
S'blues'
p1465
sg12
F0.0423
sg13
VCorey Harris
p1466
sg15
I9999
sg16
F0.642
sg17
Nsg18
Nsg19
Nsg20
I0
sg21
F0.331
sg22
Nsg23
Nsg24
F0.000295
ssg25
I01
sg26
I01
sba(iSong
Song
p1467
(dp1468
g3
(dp1469
g5
F0.962
sg6
VPray For Rain
p1470
sg8
F0.617312
sg9
F0.0863
sg10
S'blues'
p1471
sg12
F0.0357
sg13
VWalter Trout
p1472
sg15
I9999
sg16
F0.425
sg17
Nsg18
Nsg19
Nsg20
F0.7472833333333334
sg21
F0.362
sg22
Nsg23
Nsg24
F0.00615
ssg25
I01
sg26
I01
sba(iSong
Song
p1473
(dp1474
g3
(dp1475
g5
F0.9
sg6
VI'm So Lonely
p1476
sg8
F0.7102200000000001
sg9
F0.0488
sg10
S'blues'
p1477
sg12
F0.0491
sg13
VThe Holmes Brothers
p1478
sg15
I9999
sg16
F0.472
sg17
Nsg18
Nsg19
Nsg20
F0.67275
sg21
F0.166
sg22
Nsg23
Nsg24
F0.00799
ssg25
I01
sg26
I01
sba(iSong
Song
p1479
(dp1480
g3
(dp1481
g5
F0.511
sg6
VDeath Row
p1482
sg8
F0.565984
sg9
F0.596
sg10
S'blues'
p1483
sg12
F0.0288
sg13
VMike Zito
p1484
sg15
I9999
sg16
F0.714
sg17
Nsg18
Nsg19
Nsg20
F0.8618666666666667
sg21
F0.665
sg22
Nsg23
Nsg24
F0.00718
ssg25
I01
sg26
I01
sba(iSong
Song
p1485
(dp1486
g3
(dp1487
g5
F0.75
sg6
VRatchet Blues
p1488
sg8
F0.371828
sg9
F0.668
sg10
S'blues'
p1489
sg12
F0.0734
sg13
VEric Sardinas
p1490
sg15
I9999
sg16
F0.709
sg17
Nsg18
Nsg19
Nsg20
F0.8998666666666666
sg21
F0.873
sg22
Nsg23
Nsg24
I0
ssg25
I01
sg26
I01
sba(iSong
Song
p1491
(dp1492
g3
(dp1493
g5
F0.964
sg6
VCoffee Blues
p1494
sg8
F0.416932
sg9
F0.0785
sg10
S'blues'
p1495
sg12
F0.0503
sg13
VMississippi John Hurt
p1496
sg15
I9999
sg16
F0.61
sg17
Nsg18
Nsg19
Nsg20
F0.6576166666666666
sg21
F0.763
sg22
Nsg23
Nsg24
F0.00014
ssg25
I01
sg26
I01
sba(iSong
Song
p1497
(dp1498
g3
(dp1499
g5
F0.694
sg6
VWhat They Say
p1500
sg8
F0.333092
sg9
F0.574
sg10
S'blues'
p1501
sg12
F0.0322
sg13
VChris Smither
p1502
sg15
I9999
sg16
F0.57
sg17
Nsg18
Nsg19
Nsg20
F0.8927999999999999
sg21
F0.963
sg22
Nsg23
Nsg24
F3.02e-06
ssg25
I01
sg26
I01
sba(iSong
Song
p1503
(dp1504
g3
(dp1505
g5
F0.869
sg6
VLiving With The Blues
p1506
sg8
F0.447548
sg9
F0.11
sg10
S'blues'
p1507
sg12
F0.16
sg13
VHans Theessink
p1508
sg15
I9999
sg16
F0.774
sg17
Nsg18
Nsg19
Nsg20
F0.6845333333333333
sg21
F0.383
sg22
Nsg23
Nsg24
F9.27e-05
ssg25
I01
sg26
I01
sba(iSong
Song
p1509
(dp1510
g3
(dp1511
g5
F0.925
sg6
VOutside In
p1512
sg8
F0.31924
sg9
F0.307
sg10
S'blues'
p1513
sg12
F0.0342
sg13
VChris Smither
p1514
sg15
I9999
sg16
F0.485
sg17
Nsg18
Nsg19
Nsg20
F0.7885000000000001
sg21
F0.437
sg22
Nsg23
Nsg24
F0.015
ssg25
I01
sg26
I01
sba(iSong
Song
p1515
(dp1516
g3
(dp1517
g5
F0.968
sg6
VTurtle Beach
p1518
sg8
F0.382656
sg9
F0.141
sg10
S'blues'
p1519
sg12
F0.0325
sg13
VEric Von Schmidt
p1520
sg15
I9999
sg16
F0.535
sg17
Nsg18
Nsg19
Nsg20
F0.7238666666666667
sg21
F0.536
sg22
Nsg23
Nsg24
F0.0738
ssg25
I01
sg26
I01
sba(iSong
Song
p1521
(dp1522
g3
(dp1523
g5
F0.805
sg6
VLife By The Drop
p1524
sg8
F0.38385199999999997
sg9
F0.204
sg10
S'blues'
p1525
sg12
F0.0358
sg13
VStevie Ray Vaughan
p1526
sg15
I9999
sg16
F0.663
sg17
Nsg18
Nsg19
Nsg20
F0.83465
sg21
F0.52
sg22
Nsg23
Nsg24
F1.42e-05
ssg25
I01
sg26
I01
sba(iSong
Song
p1527
(dp1528
g3
(dp1529
g5
F0.813
sg6
VGuitar & Harmonica Rag
p1530
sg8
F0.458672
sg9
F0.314
sg10
S'blues'
p1531
sg12
F0.0718
sg13
VBowling Green John Cephas
p1532
sg15
I9999
sg16
F0.724
sg17
Nsg18
Nsg19
Nsg20
F0.81855
sg21
F0.877
sg22
Nsg23
Nsg24
F0.937
ssg25
I01
sg26
I01
sba(iSong
Song
p1533
(dp1534
g3
(dp1535
g5
F0.581
sg6
VYou'll All Get What's Coming To You
p1536
sg8
F0.468792
sg9
F0.531
sg10
S'blues'
p1537
sg12
F0.0325
sg13
VDan Arborise
p1538
sg15
I9999
sg16
F0.467
sg17
Nsg18
Nsg19
Nsg20
F0.8492166666666667
sg21
F0.232
sg22
Nsg23
Nsg24
F0.0299
ssg25
I01
sg26
I01
sba(iSong
Song
p1539
(dp1540
g3
(dp1541
g5
F0.824
sg6
VAlabama Blues
p1542
sg8
F0.389784
sg9
F0.308
sg10
S'blues'
p1543
sg12
F0.0348
sg13
VJ.B. Lenoir
p1544
sg15
I9999
sg16
F0.675
sg17
Nsg18
Nsg19
Nsg20
F0.8653166666666666
sg21
F0.69
sg22
Nsg23
Nsg24
F3.75e-05
ssg25
I01
sg26
I01
sba(iSong
Song
p1545
(dp1546
g3
(dp1547
g5
F0.962
sg6
VJohnny law
p1548
sg8
F0.431012
sg9
F0.322
sg10
S'blues'
p1549
sg12
F0.06
sg13
VWilliam Elliott Whitmore
p1550
sg15
I9999
sg16
F0.687
sg17
Nsg18
Nsg19
Nsg20
F0.7830833333333334
sg21
F0.312
sg22
Nsg23
Nsg24
I0
ssg25
I01
sg26
I01
sba(iSong
Song
p1551
(dp1552
g3
(dp1553
g5
F0.54
sg6
VPay Day
p1554
sg8
F0.360196
sg9
F0.678
sg10
S'blues'
p1555
sg12
F0.0279
sg13
VThe Blues Preachers
p1556
sg15
I9999
sg16
F0.629
sg17
Nsg18
Nsg19
Nsg20
F0.9026833333333334
sg21
F0.0635
sg22
Nsg23
Nsg24
F5.37e-05
ssg25
I01
sg26
I01
sba(iSong
Song
p1557
(dp1558
g3
(dp1559
g5
F0.673
sg6
VGood Morning Little Schoolgirl
p1560
sg8
F0.421828
sg9
F0.435
sg10
S'blues'
p1561
sg12
F0.0343
sg13
VMississippi Fred McDowell
p1562
sg15
I9999
sg16
F0.511
sg17
Nsg18
Nsg19
Nsg20
F0.7551833333333333
sg21
F0.601
sg22
Nsg23
Nsg24
F0.00552
ssg25
I01
sg26
I01
sba(iSong
Song
p1563
(dp1564
g3
(dp1565
g5
F0.93
sg6
VCross Road Blues
p1566
sg8
F0.38863600000000004
sg9
F0.311
sg10
S'blues'
p1567
sg12
F0.0525
sg13
VRobert Johnson
p1568
sg15
I9999
sg16
F0.675
sg17
Nsg18
Nsg19
Nsg20
F0.8006833333333333
sg21
F0.638
sg22
Nsg23
Nsg24
F0.000261
ssg25
I01
sg26
I01
sba(iSong
Song
p1569
(dp1570
g3
(dp1571
g5
F0.876
sg6
VDeep River Blues
p1572
sg8
F0.374876
sg9
F0.157
sg10
S'blues'
p1573
sg12
F0.0354
sg13
VDoc Watson
p1574
sg15
I9999
sg16
F0.516
sg17
Nsg18
Nsg19
Nsg20
F0.6797833333333333
sg21
F0.783
sg22
Nsg23
Nsg24
F1.42e-05
ssg25
I01
sg26
I01
sba(iSong
Song
p1575
(dp1576
g3
(dp1577
g5
F0.708
sg6
VSpoonful
p1578
sg8
F0.476432
sg9
F0.466
sg10
S'blues'
p1579
sg12
F0.0426
sg13
VHowlin' Wolf
p1580
sg15
I9999
sg16
F0.854
sg17
Nsg18
Nsg19
Nsg20
F0.85005
sg21
F0.634
sg22
Nsg23
Nsg24
F0.000267
ssg25
I01
sg26
I01
sba(iSong
Song
p1581
(dp1582
g3
(dp1583
g5
F0.284
sg6
VI'm A Man - Single Version
p1584
sg8
F0.509988
sg9
F0.54
sg10
S'blues'
p1585
sg12
F0.0462
sg13
VBo Diddley
p1586
sg15
I9999
sg16
F0.617
sg17
Nsg18
Nsg19
Nsg20
F0.7751
sg21
F0.86
sg22
Nsg23
Nsg24
I0
ssg25
I01
sg26
I01
sba(iSong
Song
p1587
(dp1588
g3
(dp1589
g5
F0.841
sg6
VMannish Boy
p1590
sg8
F0.45411599999999996
sg9
F0.666
sg10
S'blues'
p1591
sg12
F0.145
sg13
VMuddy Waters
p1592
sg15
I9999
sg16
F0.567
sg17
Nsg18
Nsg19
Nsg20
F0.8557
sg21
F0.768
sg22
Nsg23
Nsg24
F2.53e-05
ssg25
I01
sg26
I01
sba(iSong
Song
p1593
(dp1594
g3
(dp1595
g5
F0.678
sg6
VHelp Me
p1596
sg8
F0.45612
sg9
F0.43
sg10
S'blues'
p1597
sg12
F0.0525
sg13
VSonny Boy Williamson II
p1598
sg15
I9999
sg16
F0.717
sg17
Nsg18
Nsg19
Nsg20
F0.8255166666666667
sg21
F0.8
sg22
Nsg23
Nsg24
F0.106
ssg25
I01
sg26
I01
sba(iSong
Song
p1599
(dp1600
g3
(dp1601
g5
F0.97
sg6
VI Can't Quit You Baby
p1602
sg8
F0.347808
sg9
F0.596
sg10
S'blues'
p1603
sg12
F0.0395
sg13
VOtis Rush
p1604
sg15
I9999
sg16
F0.492
sg17
Nsg18
Nsg19
Nsg20
F0.9327000000000001
sg21
F0.548
sg22
Nsg23
Nsg24
F0.043
ssg25
I01
sg26
I01
sba(iSong
Song
p1605
(dp1606
g3
(dp1607
g5
F0.773
sg6
VMonday Morning Blues - Live
p1608
sg8
F0.365788
sg9
F0.413
sg10
S'blues'
p1609
sg12
F0.13
sg13
VMississippi John Hurt
p1610
sg15
I9999
sg16
F0.679
sg17
Nsg18
Nsg19
Nsg20
F0.7239
sg21
F0.538
sg22
Nsg23
Nsg24
F0.000183
ssg25
I01
sg26
I01
sba(iSong
Song
p1611
(dp1612
g3
(dp1613
g5
F0.949
sg6
VThree O'Clock Blues
p1614
sg8
F0.28304
sg9
F0.461
sg10
S'blues'
p1615
sg12
F0.0357
sg13
VB.B. King
p1616
sg15
I9999
sg16
F0.521
sg17
Nsg18
Nsg19
Nsg20
F0.8785166666666666
sg21
F0.583
sg22
Nsg23
Nsg24
F0.00161
ssg25
I01
sg26
I01
sba(iSong
Song
p1617
(dp1618
g3
(dp1619
g5
F0.971
sg6
VFive Long Years - Live
p1620
sg8
F0.31020400000000004
sg9
F0.592
sg10
S'blues'
p1621
sg12
F0.874
sg13
VEddie Boyd
p1622
sg15
I9999
sg16
F0.594
sg17
Nsg18
Nsg19
Nsg20
F0.8015333333333333
sg21
F0.842
sg22
Nsg23
Nsg24
F0.112
ssg25
I01
sg26
I01
sba(iSong
Song
p1623
(dp1624
g3
(dp1625
g5
F0.0155
sg6
VHave A Good Time
p1626
sg8
F0.624928
sg9
F0.597
sg10
S'blues'
p1627
sg12
F0.289
sg13
VBig Walter Horton
p1628
sg15
I9999
sg16
F0.641
sg17
Nsg18
Nsg19
Nsg20
F0.7546999999999999
sg21
F0.89
sg22
Nsg23
Nsg24
F0.00218
ssg25
I01
sg26
I01
sba(iSong
Song
p1629
(dp1630
g3
(dp1631
g5
F0.656
sg6
VMojo Hand
p1632
sg8
F0.588032
sg9
F0.56
sg10
S'blues'
p1633
sg12
F0.147
sg13
VLightnin' Hopkins
p1634
sg15
I9999
sg16
F0.567
sg17
Nsg18
Nsg19
Nsg20
F0.8607333333333334
sg21
F0.766
sg22
Nsg23
Nsg24
F0.000102
ssg25
I01
sg26
I01
sba(iSong
Song
p1635
(dp1636
g3
(dp1637
g5
F0.93
sg6
VCross Road Blues
p1638
sg8
F0.38863600000000004
sg9
F0.311
sg10
S'blues'
p1639
sg12
F0.0525
sg13
VRobert Johnson
p1640
sg15
I9999
sg16
F0.675
sg17
Nsg18
Nsg19
Nsg20
F0.8006833333333333
sg21
F0.638
sg22
Nsg23
Nsg24
F0.000261
ssg25
I01
sg26
I01
sba(iSong
Song
p1641
(dp1642
g3
(dp1643
g5
F0.0984
sg6
VSnatch It Back And Hold It
p1644
sg8
F0.546852
sg9
F0.408
sg10
S'blues'
p1645
sg12
F0.167
sg13
VJunior Wells
p1646
sg15
I9999
sg16
F0.765
sg17
Nsg18
Nsg19
Nsg20
F0.7820166666666667
sg21
F0.891
sg22
Nsg23
Nsg24
I0
ssg25
I01
sg26
I01
sba(iSong
Song
p1647
(dp1648
g3
(dp1649
g5
F0.769
sg6
VWalkin' Thru The Park
p1650
sg8
F0.5364479999999999
sg9
F0.686
sg10
S'blues'
p1651
sg12
F0.0545
sg13
VMuddy Waters
p1652
sg15
I9999
sg16
F0.678
sg17
Nsg18
Nsg19
Nsg20
F0.9026333333333334
sg21
F0.799
sg22
Nsg23
Nsg24
F0.000712
ssg25
I01
sg26
I01
sba(iSong
Song
p1653
(dp1654
g3
(dp1655
g5
F0.91
sg6
VI Got The Cross The River Jordan
p1656
sg8
F0.309584
sg9
F0.177
sg10
S'blues'
p1657
sg12
F0.0447
sg13
VBlind Willie McTell
p1658
sg15
I9999
sg16
F0.538
sg17
Nsg18
Nsg19
Nsg20
F0.7640333333333333
sg21
F0.415
sg22
Nsg23
Nsg24
F0.00825
ssg25
I01
sg26
I01
sba(iSong
Song
p1659
(dp1660
g3
(dp1661
g5
F0.685
sg6
VGet Back
p1662
sg8
F0.491584
sg9
F0.0995
sg10
S'blues'
p1663
sg12
F0.047
sg13
VBig Bill Broonzy
p1664
sg15
I9999
sg16
F0.846
sg17
Nsg18
Nsg19
Nsg20
F0.75335
sg21
F0.526
sg22
Nsg23
Nsg24
I0
ssg25
I01
sg26
I01
sba(iSong
Song
p1665
(dp1666
g3
(dp1667
g5
F0.892
sg6
VReconsider Baby - Single Version
p1668
sg8
F0.377828
sg9
F0.643
sg10
S'blues'
p1669
sg12
F0.0673
sg13
VLowell Fulson
p1670
sg15
I9999
sg16
F0.659
sg17
Nsg18
Nsg19
Nsg20
F0.8670166666666667
sg21
F0.659
sg22
Nsg23
Nsg24
F0.103
ssg25
I01
sg26
I01
sba(iSong
Song
p1671
(dp1672
g3
(dp1673
g5
F0.442
sg6
VHoodoo Man Blues
p1674
sg8
F0.415696
sg9
F0.324
sg10
S'blues'
p1675
sg12
F0.332
sg13
VJunior Wells
p1676
sg15
I9999
sg16
F0.708
sg17
Nsg18
Nsg19
Nsg20
F0.7792166666666667
sg21
F0.638
sg22
Nsg23
Nsg24
F0.000147
ssg25
I01
sg26
I01
sba(iSong
Song
p1677
(dp1678
g3
(dp1679
g5
F0.805
sg6
VT-Bone Blues
p1680
sg8
F0.30731200000000003
sg9
F0.283
sg10
S'blues'
p1681
sg12
F0.0527
sg13
VT-Bone Walker
p1682
sg15
I9999
sg16
F0.541
sg17
Nsg18
Nsg19
Nsg20
F0.77235
sg21
F0.564
sg22
Nsg23
Nsg24
F0.0367
ssg25
I01
sg26
I01
sba(iSong
Song
p1683
(dp1684
g3
(dp1685
g5
F0.862
sg6
VLonesome
p1686
sg8
F0.635884
sg9
F0.749
sg10
S'blues'
p1687
sg12
F0.086
sg13
VMemphis Slim
p1688
sg15
I9999
sg16
F0.622
sg17
Nsg18
Nsg19
Nsg20
F0.9330999999999999
sg21
F0.854
sg22
Nsg23
Nsg24
F0.00514
ssg25
I01
sg26
I01
sba(iSong
Song
p1689
(dp1690
g3
(dp1691
g5
F0.0226
sg6
VThe Sky Is Crying
p1692
sg8
F0.7127640000000001
sg9
F0.611
sg10
S'blues'
p1693
sg12
F0.0348
sg13
VElmore James
p1694
sg15
I9999
sg16
F0.294
sg17
Nsg18
Nsg19
Nsg20
F0.8955333333333333
sg21
F0.567
sg22
Nsg23
Nsg24
F0.435
ssg25
I01
sg26
I01
sba(iSong
Song
p1695
(dp1696
g3
(dp1697
g5
F0.516
sg6
VI'm In The Mood - Single Version
p1698
sg8
F0.802
sg9
F0.302
sg10
S'blues'
p1699
sg12
F0.0493
sg13
VJohn Lee Hooker
p1700
sg15
I9999
sg16
F0.602
sg17
Nsg18
Nsg19
Nsg20
F0.7849166666666666
sg21
F0.724
sg22
Nsg23
Nsg24
F0.00291
ssg25
I01
sg26
I01
sba(iSong
Song
p1701
(dp1702
g3
(dp1703
g5
F0.968
sg6
VDark Was the Night, Cold Was the Ground
p1704
sg8
F0.464468
sg9
F0.0406
sg10
S'blues'
p1705
sg12
F0.044
sg13
VBlind Willie Johnson
p1706
sg15
I9999
sg16
F0.394
sg17
Nsg18
Nsg19
Nsg20
F0.6136833333333332
sg21
F0.2
sg22
Nsg23
Nsg24
F0.0453
ssg25
I01
sg26
I01
sba(iSong
Song
p1707
(dp1708
g3
(dp1709
g5
F0.887
sg6
VWhen You Get Home, Write Me a Few Little Lines
p1710
sg8
F0.452772
sg9
F0.383
sg10
S'blues'
p1711
sg12
F0.0314
sg13
VMississippi Fred McDowell
p1712
sg15
I9999
sg16
F0.483
sg17
Nsg18
Nsg19
Nsg20
F0.7716333333333334
sg21
F0.51
sg22
Nsg23
Nsg24
F0.0977
ssg25
I01
sg26
I01
sba(iSong
Song
p1713
(dp1714
g3
(dp1715
g5
F0.992
sg6
VBlack Betty
p1716
sg8
F0.41714
sg9
F0.128
sg10
S'blues'
p1717
sg12
F0.433
sg13
VLead Belly
p1718
sg15
I9999
sg16
F0.708
sg17
Nsg18
Nsg19
Nsg20
F0.7387
sg21
F0.194
sg22
Nsg23
Nsg24
F0.000594
ssg25
I01
sg26
I01
sba(iSong
Song
p1719
(dp1720
g3
(dp1721
g5
F0.18
sg6
VBo Diddley
p1722
sg8
F0.422752
sg9
F0.737
sg10
S'blues'
p1723
sg12
F0.0481
sg13
VBo Diddley
p1724
sg15
I9999
sg16
F0.814
sg17
Nsg18
Nsg19
Nsg20
F0.8183333333333334
sg21
F0.55
sg22
Nsg23
Nsg24
I0
ssg25
I01
sg26
I01
sba(iSong
Song
p1725
(dp1726
g3
(dp1727
g5
F0.856
sg6
VJunker's Blues
p1728
sg8
F0.413008
sg9
F0.155
sg10
S'blues'
p1729
sg12
F0.112
sg13
VChampion Jack Dupree
p1730
sg15
I9999
sg16
F0.779
sg17
Nsg18
Nsg19
Nsg20
F0.6405
sg21
F0.696
sg22
Nsg23
Nsg24
F7.82e-06
ssg25
I01
sg26
I01
sba(iSong
Song
p1731
(dp1732
g3
(dp1733
g5
F0.982
sg6
VDown The Dirt Road Blues
p1734
sg8
F0.476372
sg9
F0.0536
sg10
S'blues'
p1735
sg12
F0.0453
sg13
VCharley Patton
p1736
sg15
I9999
sg16
F0.494
sg17
Nsg18
Nsg19
Nsg20
F0.6486166666666667
sg21
F0.612
sg22
Nsg23
Nsg24
F0.00081
ssg25
I01
sg26
I01
sba(iSong
Song
p1737
(dp1738
g3
(dp1739
g5
F0.867
sg6
VBobby Sox Blues
p1740
sg8
F0.44429599999999997
sg9
F0.0883
sg10
S'blues'
p1741
sg12
F0.0704
sg13
VT-Bone Walker
p1742
sg15
I9999
sg16
F0.627
sg17
Nsg18
Nsg19
Nsg20
F0.7704500000000001
sg21
F0.406
sg22
Nsg23
Nsg24
F0.000165
ssg25
I01
sg26
I01
sba(iSong
Song
p1743
(dp1744
g3
(dp1745
g5
F0.898
sg6
VMy Babe
p1746
sg8
F0.6340119999999999
sg9
F0.258
sg10
S'blues'
p1747
sg12
F0.061
sg13
VLittle Walter
p1748
sg15
I9999
sg16
F0.71
sg17
Nsg18
Nsg19
Nsg20
F0.7730333333333334
sg21
F0.923
sg22
Nsg23
Nsg24
I0
ssg25
I01
sg26
I01
sba(iSong
Song
p1749
(dp1750
g3
(dp1751
g5
F0.865
sg6
VDeath Letter Blues
p1752
sg8
F0.46274
sg9
F0.288
sg10
S'blues'
p1753
sg12
F0.0629
sg13
VSon House
p1754
sg15
I9999
sg16
F0.803
sg17
Nsg18
Nsg19
Nsg20
F0.7430333333333333
sg21
F0.865
sg22
Nsg23
Nsg24
F0.0593
ssg25
I01
sg26
I01
sba(iSong
Song
p1755
(dp1756
g3
(dp1757
g5
F0.947
sg6
VBaby What You Want Me To Do
p1758
sg8
F0.377152
sg9
F0.302
sg10
S'blues'
p1759
sg12
F0.0353
sg13
VJimmy Reed
p1760
sg15
I9999
sg16
F0.582
sg17
Nsg18
Nsg19
Nsg20
F0.8062666666666666
sg21
F0.642
sg22
Nsg23
Nsg24
F0.0107
ssg25
I01
sg26
I01
sba(iSong
Song
p1761
(dp1762
g3
(dp1763
g5
F0.989
sg6
VSouthern Can Is Mine
p1764
sg8
F0.43902800000000003
sg9
F0.275
sg10
S'blues'
p1765
sg12
F0.191
sg13
VBlind Sammie a.k.a. Blind Willie McTell
p1766
sg15
I9999
sg16
F0.716
sg17
Nsg18
Nsg19
Nsg20
F0.7944
sg21
F0.878
sg22
Nsg23
Nsg24
F0.018
ssg25
I01
sg26
I01
sba(iSong
Song
p1767
(dp1768
g3
(dp1769
g5
F0.147
sg6
VShe's a Sweet One
p1770
sg8
F0.49119999999999997
sg9
F0.579
sg10
S'blues'
p1771
sg12
F0.0581
sg13
VJunior Wells
p1772
sg15
I9999
sg16
F0.688
sg17
Nsg18
Nsg19
Nsg20
F0.84765
sg21
F0.676
sg22
Nsg23
Nsg24
F0.0174
ssg25
I01
sg26
I01
sba(iSong
Song
p1773
(dp1774
g3
(dp1775
g5
F0.964
sg6
VCoffee Blues
p1776
sg8
F0.416932
sg9
F0.0785
sg10
S'blues'
p1777
sg12
F0.0503
sg13
VMississippi John Hurt
p1778
sg15
I9999
sg16
F0.61
sg17
Nsg18
Nsg19
Nsg20
F0.6576166666666666
sg21
F0.763
sg22
Nsg23
Nsg24
F0.00014
ssg25
I01
sg26
I01
sba(iSong
Song
p1779
(dp1780
g3
(dp1781
g5
F0.799
sg6
VSmokestack Lightnin'
p1782
sg8
F0.5845520000000001
sg9
F0.502
sg10
S'blues'
p1783
sg12
F0.0401
sg13
VHowlin' Wolf
p1784
sg15
I9999
sg16
F0.683
sg17
Nsg18
Nsg19
Nsg20
F0.8528333333333333
sg21
F0.5
sg22
Nsg23
Nsg24
F0.000116
ssg25
I01
sg26
I01
sba(iSong
Song
p1785
(dp1786
g3
(dp1787
g5
F0.899
sg6
VYou Got To Move
p1788
sg8
F0.32424000000000003
sg9
F0.185
sg10
S'blues'
p1789
sg12
F0.0631
sg13
VMississippi Fred McDowell
p1790
sg15
I9999
sg16
F0.66
sg17
Nsg18
Nsg19
Nsg20
F0.7101000000000001
sg21
F0.507
sg22
Nsg23
Nsg24
F0.00875
ssg25
I01
sg26
I01
sba(iSong
Song
p1791
(dp1792
g3
(dp1793
g5
F0.843
sg6
VAll Your Love
p1794
sg8
F0.322492
sg9
F0.7
sg10
S'blues'
p1795
sg12
F0.163
sg13
VMagic Sam
p1796
sg15
I9999
sg16
F0.433
sg17
Nsg18
Nsg19
Nsg20
F0.8633833333333333
sg21
F0.8
sg22
Nsg23
Nsg24
F0.324
ssg25
I01
sg26
I01
sba(iSong
Song
p1797
(dp1798
g3
(dp1799
g5
F0.805
sg6
VJohn the Revelator
p1800
sg8
F0.5179279999999999
sg9
F0.0423
sg10
S'blues'
p1801
sg12
F0.369
sg13
VSon House
p1802
sg15
I9999
sg16
F0.668
sg17
Nsg18
Nsg19
Nsg20
F0.7271000000000001
sg21
F0.564
sg22
Nsg23
Nsg24
I0
ssg25
I01
sg26
I01
sba(iSong
Song
p1803
(dp1804
g3
(dp1805
g5
F0.965
sg6
VAwful Dreams
p1806
sg8
F0.74822
sg9
F0.0566
sg10
S'blues'
p1807
sg12
F0.0706
sg13
VLightnin' Hopkins
p1808
sg15
I9999
sg16
F0.527
sg17
Nsg18
Nsg19
Nsg20
F0.6745333333333333
sg21
F0.275
sg22
Nsg23
Nsg24
F0.188
ssg25
I01
sg26
I01
sba(iSong
Song
p1809
(dp1810
g3
(dp1811
g5
F0.976
sg6
VMatch Box Blues
p1812
sg8
F0.33107600000000004
sg9
F0.16
sg10
S'blues'
p1813
sg12
F0.0565
sg13
VBlind Lemon Jefferson
p1814
sg15
I9999
sg16
F0.483
sg17
Nsg18
Nsg19
Nsg20
F0.6825
sg21
F0.522
sg22
Nsg23
Nsg24
F0.0126
ssg25
I01
sg26
I01
sba(iSong
Song
p1815
(dp1816
g3
(dp1817
g5
F0.247
sg6
VDust My Broom
p1818
sg8
F0.40771199999999996
sg9
F0.664
sg10
S'blues'
p1819
sg12
F0.0354
sg13
VElmore James
p1820
sg15
I9999
sg16
F0.526
sg17
Nsg18
Nsg19
Nsg20
F0.8896666666666667
sg21
F0.797
sg22
Nsg23
Nsg24
F0.0124
ssg25
I01
sg26
I01
sba(iSong
Song
p1821
(dp1822
g3
(dp1823
g5
F0.995
sg6
VJohn the Revelator
p1824
sg8
F0.5024
sg9
F0.334
sg10
S'blues'
p1825
sg12
F0.27
sg13
VBlind Willie Johnson
p1826
sg15
I9999
sg16
F0.738
sg17
Nsg18
Nsg19
Nsg20
F0.7837999999999999
sg21
F0.503
sg22
Nsg23
Nsg24
F0.0675
ssg25
I01
sg26
I01
sba(iSong
Song
p1827
(dp1828
g3
(dp1829
g5
F0.346
sg6
VBoom Boom
p1830
sg8
F0.6450119999999999
sg9
F0.473
sg10
S'blues'
p1831
sg12
F0.0458
sg13
VJohn Lee Hooker
p1832
sg15
I9999
sg16
F0.469
sg17
Nsg18
Nsg19
Nsg20
F0.7655333333333334
sg21
F0.849
sg22
Nsg23
Nsg24
F0.0194
ssg25
I01
sg26
I01
sba(iSong
Song
p1833
(dp1834
g3
(dp1835
g5
F0.979
sg6
VBlue Guitar
p1836
sg8
F0.320928
sg9
F0.459
sg10
S'blues'
p1837
sg12
F0.0357
sg13
VEarl Hooker
p1838
sg15
I9999
sg16
F0.272
sg17
Nsg18
Nsg19
Nsg20
F0.8437666666666667
sg21
F0.467
sg22
Nsg23
Nsg24
F0.826
ssg25
I01
sg26
I01
sba(iSong
Song
p1839
(dp1840
g3
(dp1841
g5
F0.436
sg6
VBorn Under A Bad Sign
p1842
sg8
F0.365592
sg9
F0.633
sg10
S'blues'
p1843
sg12
F0.0261
sg13
VAlbert King
p1844
sg15
I9999
sg16
F0.699
sg17
Nsg18
Nsg19
Nsg20
F0.8958499999999999
sg21
F0.907
sg22
Nsg23
Nsg24
F9.32e-05
ssg25
I01
sg26
I01
sba(iSong
Song
p1845
(dp1846
g3
(dp1847
g5
F0.44
sg6
VMannish Boy
p1848
sg8
F0.444516
sg9
F0.735
sg10
S'blues'
p1849
sg12
F0.0973
sg13
VMuddy Waters
p1850
sg15
I9999
sg16
F0.598
sg17
Nsg18
Nsg19
Nsg20
F0.8186333333333333
sg21
F0.615
sg22
Nsg23
Nsg24
F0.000215
ssg25
I01
sg26
I01
sba(iSong
Song
p1851
(dp1852
g3
(dp1853
g5
F0.799
sg6
VSmokestack Lightnin'
p1854
sg8
F0.5845520000000001
sg9
F0.502
sg10
S'blues'
p1855
sg12
F0.0401
sg13
VHowlin' Wolf
p1856
sg15
I9999
sg16
F0.683
sg17
Nsg18
Nsg19
Nsg20
F0.8528333333333333
sg21
F0.5
sg22
Nsg23
Nsg24
F0.000116
ssg25
I01
sg26
I01
sba(iSong
Song
p1857
(dp1858
g3
(dp1859
g5
F0.612
sg6
VBoom Boom
p1860
sg8
F0.634124
sg9
F0.464
sg10
S'blues'
p1861
sg12
F0.0515
sg13
VJohn Lee Hooker
p1862
sg15
I9999
sg16
F0.442
sg17
Nsg18
Nsg19
Nsg20
F0.7646666666666667
sg21
F0.944
sg22
Nsg23
Nsg24
F0.00189
ssg25
I01
sg26
I01
sba(iSong
Song
p1863
(dp1864
g3
(dp1865
g5
F0.0719
sg6
VEveryday (I Have The Blues)
p1866
sg8
F0.420856
sg9
F0.628
sg10
S'blues'
p1867
sg12
F0.0347
sg13
VB.B. King
p1868
sg15
I9999
sg16
F0.529
sg17
Nsg18
Nsg19
Nsg20
F0.8402333333333334
sg21
F0.67
sg22
Nsg23
Nsg24
F0.00325
ssg25
I01
sg26
I01
sba(iSong
Song
p1869
(dp1870
g3
(dp1871
g5
F0.439
sg6
VFirst Time I Met The Blues - 1960 Single Version
p1872
sg8
F0.399384
sg9
F0.66
sg10
S'blues'
p1873
sg12
F0.0505
sg13
VBuddy Guy
p1874
sg15
I9999
sg16
F0.429
sg17
Nsg18
Nsg19
Nsg20
F0.8829833333333333
sg21
F0.692
sg22
Nsg23
Nsg24
F4.51e-05
ssg25
I01
sg26
I01
sba(iSong
Song
p1875
(dp1876
g3
(dp1877
g5
F0.656
sg6
VMojo Hand
p1878
sg8
F0.588032
sg9
F0.56
sg10
S'blues'
p1879
sg12
F0.147
sg13
VLightnin' Hopkins
p1880
sg15
I9999
sg16
F0.567
sg17
Nsg18
Nsg19
Nsg20
F0.8607333333333334
sg21
F0.766
sg22
Nsg23
Nsg24
F0.000102
ssg25
I01
sg26
I01
sba(iSong
Song
p1881
(dp1882
g3
(dp1883
g5
F0.661
sg6
VI'd Rather Go Blind
p1884
sg8
F0.326316
sg9
F0.398
sg10
S'blues'
p1885
sg12
F0.0253
sg13
VEtta James
p1886
sg15
I9999
sg16
F0.539
sg17
Nsg18
Nsg19
Nsg20
F0.8914500000000001
sg21
F0.588
sg22
Nsg23
Nsg24
F0.000519
ssg25
I01
sg26
I01
sba(iSong
Song
p1887
(dp1888
g3
(dp1889
g5
F0.0115
sg6
VDust My Broom
p1890
sg8
F0.403132
sg9
F0.66
sg10
S'blues'
p1891
sg12
F0.0306
sg13
VElmore James
p1892
sg15
I9999
sg16
F0.507
sg17
Nsg18
Nsg19
Nsg20
F0.9173833333333333
sg21
F0.696
sg22
Nsg23
Nsg24
F0.336
ssg25
I01
sg26
I01
sba(iSong
Song
p1893
(dp1894
g3
(dp1895
g5
F0.886
sg6
VMy Babe - Single Version
p1896
sg8
F0.631548
sg9
F0.333
sg10
S'blues'
p1897
sg12
F0.0524
sg13
VLittle Walter
p1898
sg15
I9999
sg16
F0.684
sg17
Nsg18
Nsg19
Nsg20
F0.8252166666666666
sg21
F0.833
sg22
Nsg23
Nsg24
I0
ssg25
I01
sg26
I01
sba(iSong
Song
p1899
(dp1900
g3
(dp1901
g5
F0.67
sg6
VI'm Your Hoochie Coochie Man
p1902
sg8
F0.455792
sg9
F0.588
sg10
S'blues'
p1903
sg12
F0.0665
sg13
VMuddy Waters
p1904
sg15
I9999
sg16
F0.542
sg17
Nsg18
Nsg19
Nsg20
F0.8455333333333334
sg21
F0.881
sg22
Nsg23
Nsg24
F0.158
ssg25
I01
sg26
I01
sba(iSong
Song
p1905
(dp1906
g3
(dp1907
g5
F0.805
sg6
VJohn the Revelator
p1908
sg8
F0.5179279999999999
sg9
F0.0423
sg10
S'blues'
p1909
sg12
F0.369
sg13
VSon House
p1910
sg15
I9999
sg16
F0.668
sg17
Nsg18
Nsg19
Nsg20
F0.7271000000000001
sg21
F0.564
sg22
Nsg23
Nsg24
I0
ssg25
I01
sg26
I01
sba(iSong
Song
p1911
(dp1912
g3
(dp1913
g5
F0.678
sg6
VHelp Me
p1914
sg8
F0.45612
sg9
F0.43
sg10
S'blues'
p1915
sg12
F0.0525
sg13
VSonny Boy Williamson II
p1916
sg15
I9999
sg16
F0.717
sg17
Nsg18
Nsg19
Nsg20
F0.8255166666666667
sg21
F0.8
sg22
Nsg23
Nsg24
F0.106
ssg25
I01
sg26
I01
sba(iSong
Song
p1917
(dp1918
g3
(dp1919
g5
F0.231
sg6
VCrosscut Saw
p1920
sg8
F0.48985199999999995
sg9
F0.389
sg10
S'blues'
p1921
sg12
F0.0517
sg13
VAlbert King
p1922
sg15
I9999
sg16
F0.861
sg17
Nsg18
Nsg19
Nsg20
F0.7661833333333334
sg21
F0.94
sg22
Nsg23
Nsg24
F0.577
ssg25
I01
sg26
I01
sba(iSong
Song
p1923
(dp1924
g3
(dp1925
g5
F0.805
sg6
VT-Bone Blues
p1926
sg8
F0.30731200000000003
sg9
F0.283
sg10
S'blues'
p1927
sg12
F0.0527
sg13
VT-Bone Walker
p1928
sg15
I9999
sg16
F0.541
sg17
Nsg18
Nsg19
Nsg20
F0.77235
sg21
F0.564
sg22
Nsg23
Nsg24
F0.0367
ssg25
I01
sg26
I01
sba(iSong
Song
p1929
(dp1930
g3
(dp1931
g5
F0.101
sg6
VStumble
p1932
sg8
F0.473524
sg9
F0.612
sg10
S'blues'
p1933
sg12
F0.0339
sg13
VFreddie King
p1934
sg15
I9999
sg16
F0.678
sg17
Nsg18
Nsg19
Nsg20
F0.8372666666666667
sg21
F0.857
sg22
Nsg23
Nsg24
F0.318
ssg25
I01
sg26
I01
sba(iSong
Song
p1935
(dp1936
g3
(dp1937
g5
F0.442
sg6
VHoodoo Man Blues
p1938
sg8
F0.415696
sg9
F0.324
sg10
S'blues'
p1939
sg12
F0.332
sg13
VJunior Wells
p1940
sg15
I9999
sg16
F0.708
sg17
Nsg18
Nsg19
Nsg20
F0.7792166666666667
sg21
F0.638
sg22
Nsg23
Nsg24
F0.000147
ssg25
I01
sg26
I01
sba(iSong
Song
p1941
(dp1942
g3
(dp1943
g5
F0.833
sg6
VI've Got A Woman
p1944
sg8
F0.797492
sg9
F0.61
sg10
S'blues'
p1945
sg12
F0.213
sg13
VRay Charles
p1946
sg15
I9999
sg16
F0.556
sg17
Nsg18
Nsg19
Nsg20
F0.9211833333333334
sg21
F0.665
sg22
Nsg23
Nsg24
F2.22e-06
ssg25
I01
sg26
I01
sba(iSong
Song
p1947
(dp1948
g3
(dp1949
g5
F0.708
sg6
VSpoonful
p1950
sg8
F0.476432
sg9
F0.466
sg10
S'blues'
p1951
sg12
F0.0426
sg13
VHowlin' Wolf
p1952
sg15
I9999
sg16
F0.854
sg17
Nsg18
Nsg19
Nsg20
F0.85005
sg21
F0.634
sg22
Nsg23
Nsg24
F0.000267
ssg25
I01
sg26
I01
sba(iSong
Song
p1953
(dp1954
g3
(dp1955
g5
F0.416
sg6
VBack Door Man
p1956
sg8
F0.439556
sg9
F0.441
sg10
S'blues'
p1957
sg12
F0.0604
sg13
VWillie Dixon
p1958
sg15
I9999
sg16
F0.8
sg17
Nsg18
Nsg19
Nsg20
F0.7336666666666666
sg21
F0.795
sg22
Nsg23
Nsg24
F0.0404
ssg25
I01
sg26
I01
sba(iSong
Song
p1959
(dp1960
g3
(dp1961
g5
F0.492
sg6
VWorking Man
p1962
sg8
F0.41342
sg9
F0.625
sg10
S'blues'
p1963
sg12
F0.0436
sg13
VOtis Rush
p1964
sg15
I9999
sg16
F0.633
sg17
Nsg18
Nsg19
Nsg20
F0.8174833333333333
sg21
F0.841
sg22
Nsg23
Nsg24
F0.000418
ssg25
I01
sg26
I01
sba(iSong
Song
p1965
(dp1966
g3
(dp1967
g5
F0.284
sg6
VI'm A Man - Single Version
p1968
sg8
F0.509988
sg9
F0.54
sg10
S'blues'
p1969
sg12
F0.0462
sg13
VBo Diddley
p1970
sg15
I9999
sg16
F0.617
sg17
Nsg18
Nsg19
Nsg20
F0.7751
sg21
F0.86
sg22
Nsg23
Nsg24
I0
ssg25
I01
sg26
I01
sba(iSong
Song
p1971
(dp1972
g3
(dp1973
g5
F0.944
sg6
VSomeday (Electric)
p1974
sg8
F0.376788
sg9
F0.333
sg10
S'blues'
p1975
sg12
F0.032
sg13
VOtis Spann
p1976
sg15
I9999
sg16
F0.581
sg17
Nsg18
Nsg19
Nsg20
F0.7631833333333333
sg21
F0.488
sg22
Nsg23
Nsg24
F0.472
ssg25
I01
sg26
I01
sba(iSong
Song
p1977
(dp1978
g3
(dp1979
g5
F0.545
sg6
VCall It Stormy Monday
p1980
sg8
F0.403916
sg9
F0.301
sg10
S'blues'
p1981
sg12
F0.0423
sg13
VT-Bone Walker
p1982
sg15
I9999
sg16
F0.606
sg17
Nsg18
Nsg19
Nsg20
F0.8099666666666666
sg21
F0.457
sg22
Nsg23
Nsg24
F0.00194
ssg25
I01
sg26
I01
sba(iSong
Song
p1983
(dp1984
g3
(dp1985
g5
F0.0226
sg6
VThe Sky Is Crying
p1986
sg8
F0.7127640000000001
sg9
F0.611
sg10
S'blues'
p1987
sg12
F0.0348
sg13
VElmore James
p1988
sg15
I9999
sg16
F0.294
sg17
Nsg18
Nsg19
Nsg20
F0.8955333333333333
sg21
F0.567
sg22
Nsg23
Nsg24
F0.435
ssg25
I01
sg26
I01
sba(iSong
Song
p1989
(dp1990
g3
(dp1991
g5
F0.225
sg6
VNo Angels
p1992
sg8
F0.526608
sg9
F0.655
sg10
S'blues'
p1993
sg12
F0.0837
sg13
VSamantha Fish
p1994
sg15
I9999
sg16
F0.635
sg17
Nsg18
Nsg19
Nsg20
F0.8444
sg21
F0.373
sg22
Nsg23
Nsg24
F0.00149
ssg25
I01
sg26
I01
sba(iSong
Song
p1995
(dp1996
g3
(dp1997
g5
F0.0791
sg6
VWe're All In This Together (feat. Joe Bonamassa)
p1998
sg8
F0.440836
sg9
F0.858
sg10
S'blues'
p1999
sg12
F0.065
sg13
VWalter Trout
p2000
sg15
I9999
sg16
F0.372
sg17
Nsg18
Nsg19
Nsg20
F0.9263333333333333
sg21
F0.612
sg22
Nsg23
Nsg24
F0.342
ssg25
I01
sg26
I01
sba(iSong
Song
p2001
(dp2002
g3
(dp2003
g5
F0.00726
sg6
VWhat Would You Do
p2004
sg8
F0.392144
sg9
F0.702
sg10
S'blues'
p2005
sg12
F0.0354
sg13
VLaurence Jones
p2006
sg15
I9999
sg16
F0.709
sg17
Nsg18
Nsg19
Nsg20
F0.9071333333333332
sg21
F0.573
sg22
Nsg23
Nsg24
F1.5e-06
ssg25
I01
sg26
I01
sba(iSong
Song
p2007
(dp2008
g3
(dp2009
g5
F0.11
sg6
VHeadful of Blues
p2010
sg8
F0.592248
sg9
F0.521
sg10
S'blues'
p2011
sg12
F0.0325
sg13
VSnowy White
p2012
sg15
I9999
sg16
F0.595
sg17
Nsg18
Nsg19
Nsg20
F0.8576
sg21
F0.66
sg22
Nsg23
Nsg24
F0.0369
ssg25
I01
sg26
I01
sba(iSong
Song
p2013
(dp2014
g3
(dp2015
g5
F0.167
sg6
VLet 'Em In
p2016
sg8
F0.34799599999999997
sg9
F0.446
sg10
S'blues'
p2017
sg12
F0.0313
sg13
VThe Bros. Landreth
p2018
sg15
I9999
sg16
F0.768
sg17
Nsg18
Nsg19
Nsg20
F0.8790833333333333
sg21
F0.489
sg22
Nsg23
Nsg24
F5.36e-06
ssg25
I01
sg26
I01
sba(iSong
Song
p2019
(dp2020
g3
(dp2021
g5
F0.191
sg6
VDon't Give Up
p2022
sg8
F0.44898000000000005
sg9
F0.693
sg10
S'blues'
p2023
sg12
F0.0392
sg13
VSouthern Avenue
p2024
sg15
I9999
sg16
F0.639
sg17
Nsg18
Nsg19
Nsg20
F0.9241833333333334
sg21
F0.537
sg22
Nsg23
Nsg24
F3.18e-05
ssg25
I01
sg26
I01
sba(iSong
Song
p2025
(dp2026
g3
(dp2027
g5
F0.05
sg6
VMs. Molly
p2028
sg8
F0.325724
sg9
F0.786
sg10
S'blues'
p2029
sg12
F0.0809
sg13
VCabinet
p2030
sg15
I9999
sg16
F0.588
sg17
Nsg18
Nsg19
Nsg20
F0.9076166666666666
sg21
F0.53
sg22
Nsg23
Nsg24
F0.000134
ssg25
I01
sg26
I01
sba(iSong
Song
p2031
(dp2032
g3
(dp2033
g5
F0.184
sg6
VGood Advice
p2034
sg8
F0.44024
sg9
F0.739
sg10
S'blues'
p2035
sg12
F0.0589
sg13
VJackie Greene
p2036
sg15
I9999
sg16
F0.745
sg17
Nsg18
Nsg19
Nsg20
F0.9269999999999999
sg21
F0.753
sg22
Nsg23
Nsg24
F0.0137
ssg25
I01
sg26
I01
sba(iSong
Song
p2037
(dp2038
g3
(dp2039
g5
F0.0515
sg6
VBetrayed Me
p2040
sg8
F0.331852
sg9
F0.718
sg10
S'blues'
p2041
sg12
F0.0294
sg13
VKing King
p2042
sg15
I9999
sg16
F0.535
sg17
Nsg18
Nsg19
Nsg20
F0.8984
sg21
F0.531
sg22
Nsg23
Nsg24
F0.0507
ssg25
I01
sg26
I01
sba(iSong
Song
p2043
(dp2044
g3
(dp2045
g5
F0.0474
sg6
VBlues Been Good to Me
p2046
sg8
F0.464168
sg9
F0.79
sg10
S'blues'
p2047
sg12
F0.0391
sg13
VJames Armstrong
p2048
sg15
I9999
sg16
F0.747
sg17
Nsg18
Nsg19
Nsg20
F0.8894833333333333
sg21
F0.798
sg22
Nsg23
Nsg24
F0.000183
ssg25
I01
sg26
I01
sba(iSong
Song
p2049
(dp2050
g3
(dp2051
g5
F0.96
sg6
VCome on in My Kitchen
p2052
sg8
F0.32689999999999997
sg9
F0.25
sg10
S'blues'
p2053
sg12
F0.0493
sg13
VLarkin Poe
p2054
sg15
I9999
sg16
F0.531
sg17
Nsg18
Nsg19
Nsg20
F0.8412833333333334
sg21
F0.425
sg22
Nsg23
Nsg24
F1.69e-05
ssg25
I01
sg26
I01
sba(iSong
Song
p2055
(dp2056
g3
(dp2057
g5
F0.241
sg6
VLittle Bit
p2058
sg8
F0.336964
sg9
F0.463
sg10
S'blues'
p2059
sg12
F0.0346
sg13
VMavis Staples
p2060
sg15
I9999
sg16
F0.804
sg17
Nsg18
Nsg19
Nsg20
F0.8521166666666667
sg21
F0.662
sg22
Nsg23
Nsg24
F0.0167
ssg25
I01
sg26
I01
sba(iSong
Song
p2061
(dp2062
g3
(dp2063
g5
F0.455
sg6
VMake It Move
p2064
sg8
F0.310328
sg9
F0.473
sg10
S'blues'
p2065
sg12
F0.102
sg13
VJonny Lang
p2066
sg15
I9999
sg16
F0.647
sg17
Nsg18
Nsg19
Nsg20
F0.8989333333333334
sg21
F0.67
sg22
Nsg23
Nsg24
I0
ssg25
I01
sg26
I01
sba(iSong
Song
p2067
(dp2068
g3
(dp2069
g5
F0.376
sg6
VIf You Believe in Me
p2070
sg8
F0.41192
sg9
F0.577
sg10
S'blues'
p2071
sg12
F0.0264
sg13
VRobin Trower
p2072
sg15
I9999
sg16
F0.678
sg17
Nsg18
Nsg19
Nsg20
F0.8496
sg21
F0.27
sg22
Nsg23
Nsg24
F0.00272
ssg25
I01
sg26
I01
sba(iSong
Song
p2073
(dp2074
g3
(dp2075
g5
F0.0334
sg6
VBaby Got Gone
p2076
sg8
F0.39604
sg9
F0.878
sg10
S'blues'
p2077
sg12
F0.032
sg13
VKenny Wayne Shepherd
p2078
sg15
I9999
sg16
F0.576
sg17
Nsg18
Nsg19
Nsg20
F0.91515
sg21
F0.764
sg22
Nsg23
Nsg24
I0
ssg25
I01
sg26
I01
sba(iSong
Song
p2079
(dp2080
g3
(dp2081
g5
F0.626
sg6
VNobody Gets Out Alive (From "The Hitman's Bodyguard")
p2082
sg8
F0.420084
sg9
F0.572
sg10
S'blues'
p2083
sg12
F0.0591
sg13
VSamuel L. Jackson
p2084
sg15
I9999
sg16
F0.594
sg17
Nsg18
Nsg19
Nsg20
F0.8780833333333333
sg21
F0.779
sg22
Nsg23
Nsg24
I0
ssg25
I01
sg26
I01
sba(iSong
Song
p2085
(dp2086
g3
(dp2087
g5
F0.742
sg6
VMigration Blues
p2088
sg8
F0.6178640000000001
sg9
F0.488
sg10
S'blues'
p2089
sg12
F0.0311
sg13
VEric Bibb
p2090
sg15
I9999
sg16
F0.47
sg17
Nsg18
Nsg19
Nsg20
F0.837
sg21
F0.613
sg22
Nsg23
Nsg24
F0.427
ssg25
I01
sg26
I01
sba(iSong
Song
p2091
(dp2092
g3
(dp2093
g5
F0.0068
sg6
VGonna Hurt Like Hell (feat. Kenny Wayne Shepherd)
p2094
sg8
F0.47256
sg9
F0.843
sg10
S'blues'
p2095
sg12
F0.0429
sg13
VWalter Trout
p2096
sg15
I9999
sg16
F0.48
sg17
Nsg18
Nsg19
Nsg20
F0.9057
sg21
F0.86
sg22
Nsg23
Nsg24
F0.0507
ssg25
I01
sg26
I01
sba(iSong
Song
p2097
(dp2098
g3
(dp2099
g5
F0.178
sg6
VUnder the Midnight Sun
p2100
sg8
F0.41583600000000004
sg9
F0.544
sg10
S'blues'
p2101
sg12
F0.0281
sg13
VKaren Lovely
p2102
sg15
I9999
sg16
F0.746
sg17
Nsg18
Nsg19
Nsg20
F0.8923166666666666
sg21
F0.771
sg22
Nsg23
Nsg24
F0.000594
ssg25
I01
sg26
I01
sba(iSong
Song
p2103
(dp2104
g3
(dp2105
g5
F0.0453
sg6
VStronger Together
p2106
sg8
F0.6281599999999999
sg9
F0.635
sg10
S'blues'
p2107
sg12
F0.154
sg13
VJonny Lang
p2108
sg15
I9999
sg16
F0.685
sg17
Nsg18
Nsg19
Nsg20
F0.8830833333333333
sg21
F0.862
sg22
Nsg23
Nsg24
I0
ssg25
I01
sg26
I01
sba(iSong
Song
p2109
(dp2110
g3
(dp2111
g5
F0.528
sg6
VSomeday After a While
p2112
sg8
F0.461852
sg9
F0.588
sg10
S'blues'
p2113
sg12
F0.0378
sg13
VCarl Verheyen
p2114
sg15
I9999
sg16
F0.724
sg17
Nsg18
Nsg19
Nsg20
F0.8981333333333333
sg21
F0.447
sg22
Nsg23
Nsg24
F0.00157
ssg25
I01
sg26
I01
sba(iSong
Song
p2115
(dp2116
g3
(dp2117
g5
F0.00358
sg6
VI Can Tell
p2118
sg8
F0.47216
sg9
F0.801
sg10
S'blues'
p2119
sg12
F0.036
sg13
VJaniva Magness
p2120
sg15
I9999
sg16
F0.644
sg17
Nsg18
Nsg19
Nsg20
F0.8963666666666666
sg21
F0.913
sg22
Nsg23
Nsg24
F0.000871
ssg25
I01
sg26
I01
sba(iSong
Song
p2121
(dp2122
g3
(dp2123
g5
F0.282
sg6
VAin't Gonna Name Names
p2124
sg8
F0.480252
sg9
F0.736
sg10
S'blues'
p2125
sg12
F0.0546
sg13
VThe Reverend Shawn Amos
p2126
sg15
I9999
sg16
F0.714
sg17
Nsg18
Nsg19
Nsg20
F0.9254166666666667
sg21
F0.64
sg22
Nsg23
Nsg24
F0.000173
ssg25
I01
sg26
I01
sba(iSong
Song
p2127
(dp2128
g3
(dp2129
g5
F0.018
sg6
VDown To The Bottom
p2130
sg8
F0.34986
sg9
F0.6
sg10
S'blues'
p2131
sg12
F0.0266
sg13
VDorothy
p2132
sg15
I9999
sg16
F0.608
sg17
Nsg18
Nsg19
Nsg20
F0.9090166666666666
sg21
F0.553
sg22
Nsg23
Nsg24
I0
ssg25
I01
sg26
I01
sba(iSong
Song
p2133
(dp2134
g3
(dp2135
g5
F0.825
sg6
VTwelve String Mile
p2136
sg8
F0.359736
sg9
F0.283
sg10
S'blues'
p2137
sg12
F0.0431
sg13
VOtis Taylor
p2138
sg15
I9999
sg16
F0.76
sg17
Nsg18
Nsg19
Nsg20
F0.76365
sg21
F0.68
sg22
Nsg23
Nsg24
F0.36
ssg25
I01
sg26
I01
sba(iSong
Song
p2139
(dp2140
g3
(dp2141
g5
F0.449
sg6
VDo You Still See Me At All (feat. Jon Trout)
p2142
sg8
F0.45567599999999997
sg9
F0.788
sg10
S'blues'
p2143
sg12
F0.0442
sg13
VWalter Trout
p2144
sg15
I9999
sg16
F0.466
sg17
Nsg18
Nsg19
Nsg20
F0.9219166666666666
sg21
F0.709
sg22
Nsg23
Nsg24
F0.195
ssg25
I01
sg26
I01
sba(iSong
Song
p2145
(dp2146
g3
(dp2147
g5
F0.611
sg6
VSpoonful
p2148
sg8
F0.45114800000000005
sg9
F0.432
sg10
S'blues'
p2149
sg12
F0.0347
sg13
VBenjamin Booker
p2150
sg15
I9999
sg16
F0.789
sg17
Nsg18
Nsg19
Nsg20
F0.8237666666666666
sg21
F0.846
sg22
Nsg23
Nsg24
F4.97e-05
ssg25
I01
sg26
I01
sba(iSong
Song
p2151
(dp2152
g3
(dp2153
g5
F0.00124
sg6
VGot Soul
p2154
sg8
F0.479808
sg9
F0.808
sg10
S'blues'
p2155
sg12
F0.0502
sg13
VRobert Randolph & The Family Band
p2156
sg15
I9999
sg16
F0.616
sg17
Nsg18
Nsg19
Nsg20
F0.9249166666666666
sg21
F0.531
sg22
Nsg23
Nsg24
F0.000111
ssg25
I01
sg26
I01
sba(iSong
Song
p2157
(dp2158
g3
(dp2159
g5
F0.509
sg6
VCan't Turn Back the Clock
p2160
sg8
F0.5602039999999999
sg9
F0.677
sg10
S'blues'
p2161
sg12
F0.0367
sg13
VRobin Trower
p2162
sg15
I9999
sg16
F0.703
sg17
Nsg18
Nsg19
Nsg20
F0.8625
sg21
F0.749
sg22
Nsg23
Nsg24
F2.26e-06
ssg25
I01
sg26
I01
sba(iSong
Song
p2163
(dp2164
g3
(dp2165
g5
F0.0068
sg6
VAre You
p2166
sg8
F0.3735
sg9
F0.852
sg10
S'blues'
p2167
sg12
F0.0309
sg13
VThe Delta Saints
p2168
sg15
I9999
sg16
F0.43
sg17
Nsg18
Nsg19
Nsg20
F0.8782833333333334
sg21
F0.509
sg22
Nsg23
Nsg24
F0.00011
ssg25
I01
sg26
I01
sba(iSong
Song
p2169
(dp2170
g3
(dp2171
g5
F0.513
sg6
VWasted
p2172
sg8
F0.359876
sg9
F0.774
sg10
S'blues'
p2173
sg12
F0.0288
sg13
VBlack Joe Lewis & The Honeybears
p2174
sg15
I9999
sg16
F0.558
sg17
Nsg18
Nsg19
Nsg20
F0.9489333333333333
sg21
F0.787
sg22
Nsg23
Nsg24
F0.0456
ssg25
I01
sg26
I01
sba(iSong
Song
p2175
(dp2176
g3
(dp2177
g5
F0.762
sg6
VMiddle of Nowhere
p2178
sg8
F0.352176
sg9
F0.401
sg10
S'blues'
p2179
sg12
F0.0315
sg13
VDelbert McClinton
p2180
sg15
I9999
sg16
F0.797
sg17
Nsg18
Nsg19
Nsg20
F0.8879666666666667
sg21
F0.748
sg22
Nsg23
Nsg24
F0.0019
ssg25
I01
sg26
I01
sba(iSong
Song
p2181
(dp2182
g3
(dp2183
g5
F0.843
sg6
VBoneyard - Edit
p2184
sg8
F0.426152
sg9
F0.475
sg10
S'blues'
p2185
sg12
F0.0265
sg13
VFink
p2186
sg15
I9999
sg16
F0.386
sg17
Nsg18
Nsg19
Nsg20
F0.8624333333333334
sg21
F0.391
sg22
Nsg23
Nsg24
F0.000106
ssg25
I01
sg26
I01
sba(iSong
Song
p2187
(dp2188
g3
(dp2189
g5
F0.0684
sg6
VMidnight Highway
p2190
sg8
F0.498816
sg9
F0.707
sg10
S'blues'
p2191
sg12
F0.0428
sg13
VQuinn Sullivan
p2192
sg15
I9999
sg16
F0.482
sg17
Nsg18
Nsg19
Nsg20
F0.9190833333333333
sg21
F0.489
sg22
Nsg23
Nsg24
F1.6e-05
ssg25
I01
sg26
I01
sba(iSong
Song
p2193
(dp2194
g3
(dp2195
g5
F0.175
sg6
VLove Is A Lie
p2196
sg8
F0.455648
sg9
F0.534
sg10
S'blues'
p2197
sg12
F0.0419
sg13
VBeth Hart
p2198
sg15
I9999
sg16
F0.73
sg17
Nsg18
Nsg19
Nsg20
F0.88935
sg21
F0.709
sg22
Nsg23
Nsg24
F0.000185
ssg25
I01
sg26
I01
sba(iSong
Song
p2199
(dp2200
g3
(dp2201
g5
F0.116
sg6
VThe Reformation
p2202
sg8
F0.359936
sg9
F0.585
sg10
S'blues'
p2203
sg12
F0.0409
sg13
VJo Harman
p2204
sg15
I9999
sg16
F0.572
sg17
Nsg18
Nsg19
Nsg20
F0.8704666666666667
sg21
F0.611
sg22
Nsg23
Nsg24
F1.47e-05
ssg25
I01
sg26
I01
sba(iSong
Song
p2205
(dp2206
g3
(dp2207
g5
F2.42e-06
sg6
VBlood from a Stone
p2208
sg8
F0.506292
sg9
F0.945
sg10
S'blues'
p2209
sg12
F0.181
sg13
VEric Krasno
p2210
sg15
I9999
sg16
F0.275
sg17
Nsg18
Nsg19
Nsg20
F0.9200666666666667
sg21
F0.321
sg22
Nsg23
Nsg24
F0.914
ssg25
I01
sg26
I01
sba(iSong
Song
p2211
(dp2212
g3
(dp2213
g5
F0.179
sg6
VLong Story Short
p2214
sg8
F0.409208
sg9
F0.84
sg10
S'blues'
p2215
sg12
F0.0369
sg13
VRonnie Baker Brooks
p2216
sg15
I9999
sg16
F0.655
sg17
Nsg18
Nsg19
Nsg20
F0.9229
sg21
F0.924
sg22
Nsg23
Nsg24
F0.328
ssg25
I01
sg26
I01
sba(iSong
Song
p2217
(dp2218
g3
(dp2219
g5
F0.15
sg6
VHonest Man
p2220
sg8
F0.373924
sg9
F0.536
sg10
S'blues'
p2221
sg12
F0.0372
sg13
VMatt Andersen
p2222
sg15
I9999
sg16
F0.823
sg17
Nsg18
Nsg19
Nsg20
F0.90345
sg21
F0.777
sg22
Nsg23
Nsg24
F7.19e-06
ssg25
I01
sg26
I01
sba(iSong
Song
p2223
(dp2224
g3
(dp2225
g5
F0.578
sg6
VKillin' Floor
p2226
sg8
F0.467448
sg9
F0.242
sg10
S'blues'
p2227
sg12
F0.0382
sg13
VKail Baxley
p2228
sg15
I9999
sg16
F0.744
sg17
Nsg18
Nsg19
Nsg20
F0.7951166666666667
sg21
F0.229
sg22
Nsg23
Nsg24
F0.243
ssg25
I01
sg26
I01
sba(iSong
Song
p2229
(dp2230
g3
(dp2231
g5
F0.00909
sg6
VPTP
p2232
sg8
F0.423568
sg9
F0.878
sg10
S'blues'
p2233
sg12
F0.0471
sg13
VBlack Joe Lewis & The Honeybears
p2234
sg15
I9999
sg16
F0.649
sg17
Nsg18
Nsg19
Nsg20
F0.9396833333333333
sg21
F0.81
sg22
Nsg23
Nsg24
F0.000159
ssg25
I01
sg26
I01
sba(iSong
Song
p2235
(dp2236
g3
(dp2237
g5
F0.0166
sg6
VAll of Your Love
p2238
sg8
F0.6159640000000001
sg9
F0.891
sg10
S'blues'
p2239
sg12
F0.0445
sg13
VAynsley Lister
p2240
sg15
I9999
sg16
F0.457
sg17
Nsg18
Nsg19
Nsg20
F0.9151
sg21
F0.6
sg22
Nsg23
Nsg24
F0.0179
ssg25
I01
sg26
I01
sba(iSong
Song
p2241
(dp2242
g3
(dp2243
g5
F0.401
sg6
VBrother, What Happened?
p2244
sg8
F0.36016000000000004
sg9
F0.697
sg10
S'blues'
p2245
sg12
F0.0481
sg13
VMuddy Magnolias
p2246
sg15
I9999
sg16
F0.629
sg17
Nsg18
Nsg19
Nsg20
F0.8780333333333333
sg21
F0.795
sg22
Nsg23
Nsg24
I0
ssg25
I01
sg26
I01
sba(iSong
Song
p2247
(dp2248
g3
(dp2249
g5
F0.0732
sg6
VTimes Have Changed (feat. Al Kapone)
p2250
sg8
F0.347536
sg9
F0.779
sg10
S'blues'
p2251
sg12
F0.0371
sg13
VRonnie Baker Brooks
p2252
sg15
I9999
sg16
F0.679
sg17
Nsg18
Nsg19
Nsg20
F0.9136000000000001
sg21
F0.847
sg22
Nsg23
Nsg24
F0.0631
ssg25
I01
sg26
I01
sba(iSong
Song
p2253
(dp2254
g3
(dp2255
g5
F0.401
sg6
VI Know A Good Thing
p2256
sg8
F0.36448
sg9
F0.624
sg10
S'blues'
p2257
sg12
F0.0388
sg13
VCurtis Salgado
p2258
sg15
I9999
sg16
F0.751
sg17
Nsg18
Nsg19
Nsg20
F0.8995833333333334
sg21
F0.847
sg22
Nsg23
Nsg24
F0.000584
ssg25
I01
sg26
I01
sba(iSong
Song
p2259
(dp2260
g3
(dp2261
g5
F0.104
sg6
VAbandoned
p2262
sg8
F0.50774
sg9
F0.647
sg10
S'blues'
p2263
sg12
F0.0283
sg13
VGina Sicilia
p2264
sg15
I9999
sg16
F0.643
sg17
Nsg18
Nsg19
Nsg20
F0.9218666666666666
sg21
F0.547
sg22
Nsg23
Nsg24
F2.14e-06
ssg25
I01
sg26
I01
sba(iSong
Song
p2265
(dp2266
g3
(dp2267
g5
F0.0455
sg6
VEarly Morning Blues
p2268
sg8
F0.399084
sg9
F0.553
sg10
S'blues'
p2269
sg12
F0.0638
sg13
VHenrik Freischlader Trio
p2270
sg15
I9999
sg16
F0.649
sg17
Nsg18
Nsg19
Nsg20
F0.8484166666666667
sg21
F0.514
sg22
Nsg23
Nsg24
F2.88e-05
ssg25
I01
sg26
I01
sba(iSong
Song
p2271
(dp2272
g3
(dp2273
g5
F0.412
sg6
VGoing Down
p2274
sg8
F0.36962
sg9
F0.81
sg10
S'blues'
p2275
sg12
F0.0308
sg13
VColin James
p2276
sg15
I9999
sg16
F0.579
sg17
Nsg18
Nsg19
Nsg20
F0.8912166666666667
sg21
F0.2
sg22
Nsg23
Nsg24
F0.0942
ssg25
I01
sg26
I01
sba(iSong
Song
p2277
(dp2278
g3
(dp2279
g5
F0.0937
sg6
VAngel in the Shadows
p2280
sg8
F0.411216
sg9
F0.69
sg10
S'blues'
p2281
sg12
F0.0252
sg13
VHitman Blues Band
p2282
sg15
I9999
sg16
F0.516
sg17
Nsg18
Nsg19
Nsg20
F0.9025333333333333
sg21
F0.299
sg22
Nsg23
Nsg24
F4.11e-05
ssg25
I01
sg26
I01
sba(iSong
Song
p2283
(dp2284
g3
(dp2285
g5
F0.476
sg6
VWaiting Around To Die
p2286
sg8
F0.5757559999999999
sg9
F0.16
sg10
S'blues'
p2287
sg12
F0.045
sg13
VThe Devil Makes Three
p2288
sg15
I9999
sg16
F0.4
sg17
Nsg18
Nsg19
Nsg20
F0.7429166666666667
sg21
F0.097
sg22
Nsg23
Nsg24
F1.42e-05
ssg25
I01
sg26
I01
sba(iSong
Song
p2289
(dp2290
g3
(dp2291
g5
F0.428
sg6
VRough and Tumble
p2292
sg8
F0.472
sg9
F0.86
sg10
S'blues'
p2293
sg12
F0.0356
sg13
VJono Manson
p2294
sg15
I9999
sg16
F0.656
sg17
Nsg18
Nsg19
Nsg20
F0.8641333333333333
sg21
F0.898
sg22
Nsg23
Nsg24
F0.00127
ssg25
I01
sg26
I01
sba(iSong
Song
p2295
(dp2296
g3
(dp2297
g5
F0.293
sg6
VDon't Burn Me (feat. Anson Funderburgh)
p2298
sg8
F0.400112
sg9
F0.561
sg10
S'blues'
p2299
sg12
F0.0302
sg13
VThe Fabulous Thunderbirds
p2300
sg15
I9999
sg16
F0.883
sg17
Nsg18
Nsg19
Nsg20
F0.8479166666666667
sg21
F0.659
sg22
Nsg23
Nsg24
F0.0232
ssg25
I01
sg26
I01
sba(iSong
Song
p2301
(dp2302
g3
(dp2303
g5
F0.561
sg6
VBad Man
p2304
sg8
F0.648308
sg9
F0.711
sg10
S'blues'
p2305
sg12
F0.0652
sg13
VJj Thames
p2306
sg15
I9999
sg16
F0.547
sg17
Nsg18
Nsg19
Nsg20
F0.8870333333333333
sg21
F0.834
sg22
Nsg23
Nsg24
F0.0265
ssg25
I01
sg26
I01
sba(iSong
Song
p2307
(dp2308
g3
(dp2309
g5
F0.0863
sg6
VCan't Be Helped
p2310
sg8
F0.35196
sg9
F0.717
sg10
S'blues'
p2311
sg12
F0.0275
sg13
VThe Soul Of John Black
p2312
sg15
I9999
sg16
F0.771
sg17
Nsg18
Nsg19
Nsg20
F0.9343666666666667
sg21
F0.845
sg22
Nsg23
Nsg24
F0.000501
ssg25
I01
sg26
I01
sba(iSong
Song
p2313
(dp2314
g3
(dp2315
g5
F0.879
sg6
VIs It Me
p2316
sg8
F0.276284
sg9
F0.164
sg10
S'blues'
p2317
sg12
F0.0389
sg13
VSt. Paul & The Broken Bones
p2318
sg15
I9999
sg16
F0.269
sg17
Nsg18
Nsg19
Nsg20
F0.7855833333333333
sg21
F0.254
sg22
Nsg23
Nsg24
F0.00066
ssg25
I01
sg26
I01
sba(iSong
Song
p2319
(dp2320
g3
(dp2321
g5
F0.353
sg6
VChampagne And Reefer
p2322
sg8
F0.48500400000000005
sg9
F0.836
sg10
S'blues'
p2323
sg12
F0.0451
sg13
VThe Devil Makes Three
p2324
sg15
I9999
sg16
F0.735
sg17
Nsg18
Nsg19
Nsg20
F0.87555
sg21
F0.781
sg22
Nsg23
Nsg24
F0.0143
ssg25
I01
sg26
I01
sba(iSong
Song
p2325
(dp2326
g3
(dp2327
g5
F0.00712
sg6
VDyin' to Know
p2328
sg8
F0.560068
sg9
F0.773
sg10
S'blues'
p2329
sg12
F0.0353
sg13
VJoanne Shaw Taylor
p2330
sg15
I9999
sg16
F0.528
sg17
Nsg18
Nsg19
Nsg20
F0.8641166666666666
sg21
F0.506
sg22
Nsg23
Nsg24
F0.864
ssg25
I01
sg26
I01
sba(iSong
Song
p2331
(dp2332
g3
(dp2333
g5
F0.00855
sg6
VGrinder
p2334
sg8
F0.647732
sg9
F0.792
sg10
S'blues'
p2335
sg12
F0.0363
sg13
VGary Clark Jr.
p2336
sg15
I9999
sg16
F0.293
sg17
Nsg18
Nsg19
Nsg20
F0.93755
sg21
F0.697
sg22
Nsg23
Nsg24
F0.0111
ssg25
I01
sg26
I01
sba(iSong
Song
p2337
(dp2338
g3
(dp2339
g5
F0.301
sg6
VI Think I Love You Too Much
p2340
sg8
F0.445168
sg9
F0.39
sg10
S'blues'
p2341
sg12
F0.0319
sg13
VBen Poole
p2342
sg15
I9999
sg16
F0.804
sg17
Nsg18
Nsg19
Nsg20
F0.8173333333333334
sg21
F0.86
sg22
Nsg23
Nsg24
F0.446
ssg25
I01
sg26
I01
sba(iSong
Song
p2343
(dp2344
g3
(dp2345
g5
F0.306
sg6
VThe Valley Runs Low
p2346
sg8
F0.383924
sg9
F0.546
sg10
S'blues'
p2347
sg12
F0.0239
sg13
VJoe Bonamassa
p2348
sg15
I9999
sg16
F0.749
sg17
Nsg18
Nsg19
Nsg20
F0.8905666666666666
sg21
F0.601
sg22
Nsg23
Nsg24
F1.84e-05
ssg25
I01
sg26
I01
sba(iSong
Song
p2349
(dp2350
g3
(dp2351
g5
F0.753
sg6
VOnly a River
p2352
sg8
F0.512076
sg9
F0.464
sg10
S'blues'
p2353
sg12
F0.0279
sg13
VBob Weir
p2354
sg15
I9999
sg16
F0.525
sg17
Nsg18
Nsg19
Nsg20
F0.8436833333333333
sg21
F0.453
sg22
Nsg23
Nsg24
F0.0683
ssg25
I01
sg26
I01
sba(iSong
Song
p2355
(dp2356
g3
(dp2357
g5
F0.00462
sg6
VYou Ain't My Dog No More
p2358
sg8
F0.461784
sg9
F0.735
sg10
S'blues'
p2359
sg12
F0.0352
sg13
VEliza Neals
p2360
sg15
I9999
sg16
F0.527
sg17
Nsg18
Nsg19
Nsg20
F0.8904
sg21
F0.448
sg22
Nsg23
Nsg24
F0.211
ssg25
I01
sg26
I01
sba(iSong
Song
p2361
(dp2362
g3
(dp2363
g5
F0.00804
sg6
VShadows
p2364
sg8
F0.47176
sg9
F0.978
sg10
S'blues'
p2365
sg12
F0.104
sg13
VPaul Reddick
p2366
sg15
I9999
sg16
F0.478
sg17
Nsg18
Nsg19
Nsg20
F0.9361333333333334
sg21
F0.287
sg22
Nsg23
Nsg24
F2.71e-05
ssg25
I01
sg26
I01
sba(iSong
Song
p2367
(dp2368
g3
(dp2369
g5
F0.427
sg6
VDon't Know What It Means
p2370
sg8
F0.366408
sg9
F0.624
sg10
S'blues'
p2371
sg12
F0.0343
sg13
VTedeschi Trucks Band
p2372
sg15
I9999
sg16
F0.648
sg17
Nsg18
Nsg19
Nsg20
F0.8461166666666666
sg21
F0.78
sg22
Nsg23
Nsg24
F0.0139
ssg25
I01
sg26
I01
sba(iSong
Song
p2373
(dp2374
g3
(dp2375
g5
F0.351
sg6
VCan't Let You Do It
p2376
sg8
F0.39863600000000005
sg9
F0.456
sg10
S'blues'
p2377
sg12
F0.031
sg13
VEric Clapton
p2378
sg15
I9999
sg16
F0.83
sg17
Nsg18
Nsg19
Nsg20
F0.7786333333333334
sg21
F0.918
sg22
Nsg23
Nsg24
F0.0187
ssg25
I01
sg26
I01
sba(iSong
Song
p2379
(dp2380
g3
(dp2381
g5
F0.278
sg6
VDon't Hurt Me Now
p2382
sg8
F0.39233999999999997
sg9
F0.681
sg10
S'blues'
p2383
sg12
F0.0291
sg13
VIna Forsman
p2384
sg15
I9999
sg16
F0.523
sg17
Nsg18
Nsg19
Nsg20
F0.9292833333333334
sg21
F0.51
sg22
Nsg23
Nsg24
F9.77e-06
ssg25
I01
sg26
I01
sba(iSong
Song
p2385
(dp2386
g3
(dp2387
g5
F0.425
sg6
VHigh Note
p2388
sg8
F0.3328
sg9
F0.575
sg10
S'blues'
p2389
sg12
F0.151
sg13
VMavis Staples
p2390
sg15
I9999
sg16
F0.609
sg17
Nsg18
Nsg19
Nsg20
F0.8776333333333334
sg21
F0.495
sg22
Nsg23
Nsg24
F5.21e-05
ssg25
I01
sg26
I01
sba(iSong
Song
p2391
(dp2392
g3
(dp2393
g5
F0.768
sg6
VBorn To Play Guitar
p2394
sg8
F0.6781079999999999
sg9
F0.423
sg10
S'blues'
p2395
sg12
F0.0694
sg13
VBuddy Guy
p2396
sg15
I9999
sg16
F0.479
sg17
Nsg18
Nsg19
Nsg20
F0.8714333333333334
sg21
F0.4
sg22
Nsg23
Nsg24
F0.000305
ssg25
I01
sg26
I01
sba(iSong
Song
p2397
(dp2398
g3
(dp2399
g5
F0.021
sg6
VDon't Leave Me Here
p2400
sg8
F0.38012
sg9
F0.775
sg10
S'blues'
p2401
sg12
F0.0389
sg13
VTaj Mahal
p2402
sg15
I9999
sg16
F0.784
sg17
Nsg18
Nsg19
Nsg20
F0.8858666666666667
sg21
F0.789
sg22
Nsg23
Nsg24
F0.00351
ssg25
I01
sg26
I01
sba(iSong
Song
p2403
(dp2404
g3
(dp2405
g5
F0.84
sg6
VI Love You More Than You'll Ever Know
p2406
sg8
F0.416488
sg9
F0.401
sg10
S'blues'
p2407
sg12
F0.0959
sg13
VJaniva Magness
p2408
sg15
I9999
sg16
F0.442
sg17
Nsg18
Nsg19
Nsg20
F0.8544833333333333
sg21
F0.268
sg22
Nsg23
Nsg24
F0.000502
ssg25
I01
sg26
I01
sba(iSong
Song
p2409
(dp2410
g3
(dp2411
g5
F0.112
sg6
VSallisaw Blue
p2412
sg8
F0.6030800000000001
sg9
F0.866
sg10
S'blues'
p2413
sg12
F0.0691
sg13
VJohn Moreland
p2414
sg15
I9999
sg16
F0.395
sg17
Nsg18
Nsg19
Nsg20
F0.8825500000000001
sg21
F0.836
sg22
Nsg23
Nsg24
F9.85e-06
ssg25
I01
sg26
I01
sba(iSong
Song
p2415
(dp2416
g3
(dp2417
g5
F0.26
sg6
VWorking Woman
p2418
sg8
F0.30392
sg9
F0.825
sg10
S'blues'
p2419
sg12
F0.0509
sg13
VRuthie Foster
p2420
sg15
I9999
sg16
F0.547
sg17
Nsg18
Nsg19
Nsg20
F0.9496
sg21
F0.508
sg22
Nsg23
Nsg24
I0
ssg25
I01
sg26
I01
sba(iSong
Song
p2421
(dp2422
g3
(dp2423
g5
F0.00614
sg6
VChange of Pace
p2424
sg8
F0.36856
sg9
F0.655
sg10
S'blues'
p2425
sg12
F0.0308
sg13
VGreyhounds
p2426
sg15
I9999
sg16
F0.641
sg17
Nsg18
Nsg19
Nsg20
F0.8429166666666668
sg21
F0.514
sg22
Nsg23
Nsg24
F0.000431
ssg25
I01
sg26
I01
sba(iSong
Song
p2427
(dp2428
g3
(dp2429
g5
F0.00829
sg6
VDyin' To Know
p2430
sg8
F0.560068
sg9
F0.79
sg10
S'blues'
p2431
sg12
F0.0383
sg13
VJoanne Shaw Taylor
p2432
sg15
I9999
sg16
F0.538
sg17
Nsg18
Nsg19
Nsg20
F0.8856
sg21
F0.528
sg22
Nsg23
Nsg24
F0.834
ssg25
I01
sg26
I01
sba(iSong
Song
p2433
(dp2434
g3
(dp2435
g5
F0.346
sg6
VCall My Name
p2436
sg8
F0.302116
sg9
F0.424
sg10
S'blues'
p2437
sg12
F0.0414
sg13
VSeth Walker
p2438
sg15
I9999
sg16
F0.701
sg17
Nsg18
Nsg19
Nsg20
F0.8831333333333333
sg21
F0.437
sg22
Nsg23
Nsg24
F0.000203
ssg25
I01
sg26
I01
sba(iSong
Song
p2439
(dp2440
g3
(dp2441
g5
F0.978
sg6
VOhio
p2442
sg8
F0.48837200000000003
sg9
F0.204
sg10
S'blues'
p2443
sg12
F0.0334
sg13
VJon Batiste
p2444
sg15
I9999
sg16
F0.425
sg17
Nsg18
Nsg19
Nsg20
F0.7817166666666666
sg21
F0.121
sg22
Nsg23
Nsg24
F0.000481
ssg25
I01
sg26
I01
sba(iSong
Song
p2445
(dp2446
g3
(dp2447
g5
F0.186
sg6
VLong Haired Doney
p2448
sg8
F0.3845
sg9
F0.789
sg10
S'blues'
p2449
sg12
F0.0371
sg13
VNorth Mississippi Allstars
p2450
sg15
I9999
sg16
F0.573
sg17
Nsg18
Nsg19
Nsg20
F0.8253
sg21
F0.773
sg22
Nsg23
Nsg24
F0.835
ssg25
I01
sg26
I01
sba(iSong
Song
p2451
(dp2452
g3
(dp2453
g5
F0.0277
sg6
VHoller
p2454
sg8
F0.391792
sg9
F0.853
sg10
S'blues'
p2455
sg12
F0.0692
sg13
VBand of Rascals
p2456
sg15
I9999
sg16
F0.369
sg17
Nsg18
Nsg19
Nsg20
F0.9427
sg21
F0.383
sg22
Nsg23
Nsg24
I0
ssg25
I01
sg26
I01
sba(iSong
Song
p2457
(dp2458
g3
(dp2459
g5
F0.236
sg6
VLet The Good Times Roll - Live
p2460
sg8
F0.5873400000000001
sg9
F0.881
sg10
S'blues'
p2461
sg12
F0.0572
sg13
VJoe Bonamassa
p2462
sg15
I9999
sg16
F0.334
sg17
Nsg18
Nsg19
Nsg20
F0.8852
sg21
F0.508
sg22
Nsg23
Nsg24
F7.96e-05
ssg25
I01
sg26
I01
sba(iSong
Song
p2463
(dp2464
g3
(dp2465
g5
F0.222
sg6
VThe Healing - Live
p2466
sg8
F0.356772
sg9
F0.56
sg10
S'blues'
p2467
sg12
F0.031
sg13
VGary Clark Jr.
p2468
sg15
I9999
sg16
F0.344
sg17
Nsg18
Nsg19
Nsg20
F0.8606166666666667
sg21
F0.345
sg22
Nsg23
Nsg24
F0.00141
ssg25
I01
sg26
I01
sba(iSong
Song
p2469
(dp2470
g3
(dp2471
g5
F0.184
sg6
VSoul Salvation - Live
p2472
sg8
F0.528164
sg9
F0.836
sg10
S'blues'
p2473
sg12
F0.0913
sg13
VSonny Landreth
p2474
sg15
I9999
sg16
F0.561
sg17
Nsg18
Nsg19
Nsg20
F0.8516
sg21
F0.495
sg22
Nsg23
Nsg24
F0.00355
ssg25
I01
sg26
I01
sba(iSong
Song
p2475
(dp2476
g3
(dp2477
g5
F0.613
sg6
VBird On The Wire - Live
p2478
sg8
F0.424468
sg9
F0.362
sg10
S'blues'
p2479
sg12
F0.0339
sg13
VTedeschi Trucks Band
p2480
sg15
I9999
sg16
F0.449
sg17
Nsg18
Nsg19
Nsg20
F0.8101833333333334
sg21
F0.392
sg22
Nsg23
Nsg24
F0.000252
ssg25
I01
sg26
I01
sba(iSong
Song
p2481
(dp2482
g3
(dp2483
g5
F0.0231
sg6
VTexas Flood - Live at Ripley's Music Hall, Philadelphia, PA, Oct. 20, 1983
p2484
sg8
F0.5541520000000001
sg9
F0.613
sg10
S'blues'
p2485
sg12
F0.0414
sg13
VStevie Ray Vaughan
p2486
sg15
I9999
sg16
F0.261
sg17
Nsg18
Nsg19
Nsg20
F0.8370333333333334
sg21
F0.402
sg22
Nsg23
Nsg24
F0.0867
ssg25
I01
sg26
I01
sba(iSong
Song
p2487
(dp2488
g3
(dp2489
g5
F0.0447
sg6
VTrue Lies
p2490
sg8
F0.6918759999999999
sg9
F0.913
sg10
S'blues'
p2491
sg12
F0.102
sg13
VKenny Wayne Shepherd
p2492
sg15
I9999
sg16
F0.116
sg17
Nsg18
Nsg19
Nsg20
F0.8709666666666667
sg21
F0.604
sg22
Nsg23
Nsg24
F0.0524
ssg25
I01
sg26
I01
sba(iSong
Song
p2493
(dp2494
g3
(dp2495
g5
F0.00257
sg6
VStop Breakin' Down - Live
p2496
sg8
F0.46563600000000005
sg9
F0.777
sg10
S'blues'
p2497
sg12
F0.137
sg13
VThe Jeff Healey Band
p2498
sg15
I9999
sg16
F0.376
sg17
Nsg18
Nsg19
Nsg20
F0.8548666666666667
sg21
F0.37
sg22
Nsg23
Nsg24
F0.000925
ssg25
I01
sg26
I01
sba(iSong
Song
p2499
(dp2500
g3
(dp2501
g5
F0.355
sg6
VWeatherman
p2502
sg8
F0.6823279999999999
sg9
F0.574
sg10
S'blues'
p2503
sg12
F0.208
sg13
VIna Forsman
p2504
sg15
I9999
sg16
F0.652
sg17
Nsg18
Nsg19
Nsg20
F0.8484666666666667
sg21
F0.628
sg22
Nsg23
Nsg24
F9.66e-05
ssg25
I01
sg26
I01
sba(iSong
Song
p2505
(dp2506
g3
(dp2507
g5
F0.0687
sg6
VSteamroller / Powerful Thing - Live
p2508
sg8
F0.35631599999999997
sg9
F0.967
sg10
S'blues'
p2509
sg12
F0.155
sg13
VPhilip Sayce
p2510
sg15
I9999
sg16
F0.328
sg17
Nsg18
Nsg19
Nsg20
F0.9170833333333334
sg21
F0.152
sg22
Nsg23
Nsg24
I0
ssg25
I01
sg26
I01
sba(iSong
Song
p2511
(dp2512
g3
(dp2513
g5
F0.0264
sg6
VKeep On Growing - Live
p2514
sg8
F0.400472
sg9
F0.821
sg10
S'blues'
p2515
sg12
F0.0602
sg13
VTedeschi Trucks Band
p2516
sg15
I9999
sg16
F0.318
sg17
Nsg18
Nsg19
Nsg20
F0.8339166666666666
sg21
F0.424
sg22
Nsg23
Nsg24
F0.0789
ssg25
I01
sg26
I01
sba(iSong
Song
p2517
(dp2518
g3
(dp2519
g5
F0.0117
sg6
VFeeling Good - Live
p2520
sg8
F0.499576
sg9
F0.844
sg10
S'blues'
p2521
sg12
F0.0593
sg13
VThe Sheepdogs
p2522
sg15
I9999
sg16
F0.292
sg17
Nsg18
Nsg19
Nsg20
F0.8659833333333334
sg21
F0.526
sg22
Nsg23
Nsg24
F7.27e-06
ssg25
I01
sg26
I01
sba(iSong
Song
p2523
(dp2524
g3
(dp2525
g5
F0.197
sg6
VPocket Full of Dust (Live)
p2526
sg8
F0.7357079999999999
sg9
F0.669
sg10
S'blues'
p2527
sg12
F0.103
sg13
VDave Fields
p2528
sg15
I9999
sg16
F0.257
sg17
Nsg18
Nsg19
Nsg20
F0.8495166666666667
sg21
F0.393
sg22
Nsg23
Nsg24
F0.0491
ssg25
I01
sg26
I01
sba(iSong
Song
p2529
(dp2530
g3
(dp2531
g5
F0.0171
sg6
VTouch My Blues Away - Live
p2532
sg8
F0.634644
sg9
F0.466
sg10
S'blues'
p2533
sg12
F0.0367
sg13
VJessy Martens and Band
p2534
sg15
I9999
sg16
F0.311
sg17
Nsg18
Nsg19
Nsg20
F0.8639500000000001
sg21
F0.233
sg22
Nsg23
Nsg24
F0.00023
ssg25
I01
sg26
I01
sba(iSong
Song
p2535
(dp2536
g3
(dp2537
g5
F0.04
sg6
VWait On Time - Live
p2538
sg8
F0.47230399999999995
sg9
F0.801
sg10
S'blues'
p2539
sg12
F0.0688
sg13
VKing King
p2540
sg15
I9999
sg16
F0.567
sg17
Nsg18
Nsg19
Nsg20
F0.8603666666666666
sg21
F0.58
sg22
Nsg23
Nsg24
F0.00189
ssg25
I01
sg26
I01
sba(iSong
Song
p2541
(dp2542
g3
(dp2543
g5
F0.15
sg6
VRed Light - Live
p2544
sg8
F0.480508
sg9
F0.462
sg10
S'blues'
p2545
sg12
F0.0541
sg13
VJonny Lang
p2546
sg15
I9999
sg16
F0.667
sg17
Nsg18
Nsg19
Nsg20
F0.8517666666666667
sg21
F0.341
sg22
Nsg23
Nsg24
F1.16e-05
ssg25
I01
sg26
I01
sba(iSong
Song
p2547
(dp2548
g3
(dp2549
g5
F0.0809
sg6
VSome Other Day, Some Other Time - Live
p2550
sg8
F0.48742399999999997
sg9
F0.82
sg10
S'blues'
p2551
sg12
F0.0365
sg13
VJoe Bonamassa
p2552
sg15
I9999
sg16
F0.645
sg17
Nsg18
Nsg19
Nsg20
F0.86485
sg21
F0.816
sg22
Nsg23
Nsg24
F0.00174
ssg25
I01
sg26
I01
sba(iSong
Song
p2553
(dp2554
g3
(dp2555
g5
F0.37
sg6
VEveryday I Have The Blues - Live (San Quentin)
p2556
sg8
F0.55202
sg9
F0.805
sg10
S'blues'
p2557
sg12
F0.0557
sg13
VB.B. King
p2558
sg15
I9999
sg16
F0.431
sg17
Nsg18
Nsg19
Nsg20
F0.8869166666666667
sg21
F0.589
sg22
Nsg23
Nsg24
F2.27e-06
ssg25
I01
sg26
I01
sba(iSong
Song
p2559
(dp2560
g3
(dp2561
g5
F0.123
sg6
VA Better Man
p2562
sg8
F0.569652
sg9
F0.772
sg10
S'blues'
p2563
sg12
F0.0544
sg13
VHenrik Freischlader
p2564
sg15
I9999
sg16
F0.312
sg17
Nsg18
Nsg19
Nsg20
F0.8998833333333334
sg21
F0.628
sg22
Nsg23
Nsg24
F0.069
ssg25
I01
sg26
I01
sba(iSong
Song
p2565
(dp2566
g3
(dp2567
g5
F0.00491
sg6
VRoll With Me - Live
p2568
sg8
F0.5853959999999999
sg9
F0.964
sg10
S'blues'
p2569
sg12
F0.065
sg13
VJohnny Winter
p2570
sg15
I9999
sg16
F0.401
sg17
Nsg18
Nsg19
Nsg20
F0.8605166666666667
sg21
F0.583
sg22
Nsg23
Nsg24
F4.3e-05
ssg25
I01
sg26
I01
sba(iSong
Song
p2571
(dp2572
g3
(dp2573
g5
F0.083
sg6
VRiver Of Tears - Live
p2574
sg8
F0.43447199999999997
sg9
F0.525
sg10
S'blues'
p2575
sg12
F0.0299
sg13
VEric Clapton
p2576
sg15
I9999
sg16
F0.457
sg17
Nsg18
Nsg19
Nsg20
F0.8605999999999999
sg21
F0.194
sg22
Nsg23
Nsg24
F0.0975
ssg25
I01
sg26
I01
sba(iSong
Song
p2577
(dp2578
g3
(dp2579
g5
F0.0793
sg6
VWhy Me - Live
p2580
sg8
F0.6612279999999999
sg9
F0.961
sg10
S'blues'
p2581
sg12
F0.0671
sg13
VAlbert Cummings
p2582
sg15
I9999
sg16
F0.255
sg17
Nsg18
Nsg19
Nsg20
F0.9354166666666667
sg21
F0.862
sg22
Nsg23
Nsg24
F1.85e-05
ssg25
I01
sg26
I01
sba(iSong
Song
p2583
(dp2584
g3
(dp2585
g5
F0.0209
sg6
VDamn Right I've Got The Blues - Live
p2586
sg8
F0.40817200000000003
sg9
F0.587
sg10
S'blues'
p2587
sg12
F0.12
sg13
VBuddy Guy
p2588
sg15
I9999
sg16
F0.348
sg17
Nsg18
Nsg19
Nsg20
F0.8326666666666667
sg21
F0.557
sg22
Nsg23
Nsg24
F0.0818
ssg25
I01
sg26
I01
sba(iSong
Song
p2589
(dp2590
g3
(dp2591
g5
F0.0131
sg6
VCrying For My Baby
p2592
sg8
F0.614152
sg9
F0.873
sg10
S'blues'
p2593
sg12
F0.0719
sg13
VSon Seals
p2594
sg15
I9999
sg16
F0.402
sg17
Nsg18
Nsg19
Nsg20
F0.8633166666666666
sg21
F0.658
sg22
Nsg23
Nsg24
F5.02e-05
ssg25
I01
sg26
I01
sba(iSong
Song
p2595
(dp2596
g3
(dp2597
g5
F0.0191
sg6
VLonesome Whistle Blues - Live
p2598
sg8
F0.416772
sg9
F0.72
sg10
S'blues'
p2599
sg12
F0.0315
sg13
VJoe Bonamassa
p2600
sg15
I9999
sg16
F0.545
sg17
Nsg18
Nsg19
Nsg20
F0.85325
sg21
F0.624
sg22
Nsg23
Nsg24
F0.00337
ssg25
I01
sg26
I01
sba(iSong
Song
p2601
(dp2602
g3
(dp2603
g5
F0.0215
sg6
VCamp Washington Chile/If You Have To Know
p2604
sg8
F0.496724
sg9
F0.726
sg10
S'blues'
p2605
sg12
F0.0336
sg13
VLonnie Mack
p2606
sg15
I9999
sg16
F0.395
sg17
Nsg18
Nsg19
Nsg20
F0.8120333333333334
sg21
F0.804
sg22
Nsg23
Nsg24
F0.595
ssg25
I01
sg26
I01
sba(iSong
Song
p2607
(dp2608
g3
(dp2609
g5
F0.673
sg6
VGravity - Live In Concert
p2610
sg8
F0.46112400000000003
sg9
F0.344
sg10
S'blues'
p2611
sg12
F0.035
sg13
VJohn Mayer Trio
p2612
sg15
I9999
sg16
F0.543
sg17
Nsg18
Nsg19
Nsg20
F0.8400166666666666
sg21
F0.477
sg22
Nsg23
Nsg24
F0.00329
ssg25
I01
sg26
I01
sba(iSong
Song
p2613
(dp2614
g3
(dp2615
g5
F0.24
sg6
VThings Are Changin' - Live
p2616
sg8
F0.750644
sg9
F0.639
sg10
S'blues'
p2617
sg12
F0.0963
sg13
VGary Clark Jr.
p2618
sg15
I9999
sg16
F0.303
sg17
Nsg18
Nsg19
Nsg20
F0.8709333333333333
sg21
F0.237
sg22
Nsg23
Nsg24
F0.00328
ssg25
I01
sg26
I01
sba(iSong
Song
p2619
(dp2620
g3
(dp2621
g5
F0.0545
sg6
VHideaway
p2622
sg8
F0.502508
sg9
F0.903
sg10
S'blues'
p2623
sg12
F0.122
sg13
VJohn Mayall & The Bluesbreakers
p2624
sg15
I9999
sg16
F0.495
sg17
Nsg18
Nsg19
Nsg20
F0.8733666666666667
sg21
F0.63
sg22
Nsg23
Nsg24
F0.511
ssg25
I01
sg26
I01
sba(iSong
Song
p2625
(dp2626
g3
(dp2627
g5
F0.081
sg6
VChills & Thrills
p2628
sg8
F0.44764
sg9
F0.752
sg10
S'blues'
p2629
sg12
F0.065
sg13
VBernard Allison
p2630
sg15
I9999
sg16
F0.581
sg17
Nsg18
Nsg19
Nsg20
F0.84695
sg21
F0.627
sg22
Nsg23
Nsg24
F0.304
ssg25
I01
sg26
I01
sba(iSong
Song
p2631
(dp2632
g3
(dp2633
g5
F0.00162
sg6
VFreedom
p2634
sg8
F0.42482
sg9
F0.8
sg10
S'blues'
p2635
sg12
F0.0698
sg13
VTony Spinner
p2636
sg15
I9999
sg16
F0.373
sg17
Nsg18
Nsg19
Nsg20
F0.8851333333333333
sg21
F0.89
sg22
Nsg23
Nsg24
F0.00659
ssg25
I01
sg26
I01
sba(iSong
Song
p2637
(dp2638
g3
(dp2639
g5
F0.157
sg6
VBorn Under A Bad Sign - Live
p2640
sg8
F0.35831599999999997
sg9
F0.793
sg10
S'blues'
p2641
sg12
F0.0269
sg13
VJoe Bonamassa
p2642
sg15
I9999
sg16
F0.443
sg17
Nsg18
Nsg19
Nsg20
F0.8919166666666667
sg21
F0.796
sg22
Nsg23
Nsg24
F0.00304
ssg25
I01
sg26
I01
sba(iSong
Song
p2643
(dp2644
g3
(dp2645
g5
F0.0164
sg6
VKey To The Highway - Live
p2646
sg8
F0.447232
sg9
F0.728
sg10
S'blues'
p2647
sg12
F0.0671
sg13
VThe Derek Trucks Band
p2648
sg15
I9999
sg16
F0.399
sg17
Nsg18
Nsg19
Nsg20
F0.8979833333333332
sg21
F0.504
sg22
Nsg23
Nsg24
F0.0221
ssg25
I01
sg26
I01
sba(iSong
Song
p2649
(dp2650
g3
(dp2651
g5
F0.0827
sg6
VJudgment Day
p2652
sg8
F0.32761599999999996
sg9
F0.716
sg10
S'blues'
p2653
sg12
F0.0283
sg13
VMike Zito
p2654
sg15
I9999
sg16
F0.493
sg17
Nsg18
Nsg19
Nsg20
F0.90465
sg21
F0.757
sg22
Nsg23
Nsg24
F0.00837
ssg25
I01
sg26
I01
sba(iSong
Song
p2655
(dp2656
g3
(dp2657
g5
F0.467
sg6
VStoop Down Baby - Live
p2658
sg8
F0.43547199999999997
sg9
F0.941
sg10
S'blues'
p2659
sg12
F0.0722
sg13
VPopa Chubby
p2660
sg15
I9999
sg16
F0.571
sg17
Nsg18
Nsg19
Nsg20
F0.9282666666666667
sg21
F0.599
sg22
Nsg23
Nsg24
F0.351
ssg25
I01
sg26
I01
sba(iSong
Song
p2661
(dp2662
g3
(dp2663
g5
F0.0665
sg6
VLet Me Know
p2664
sg8
F0.6179479999999999
sg9
F0.799
sg10
S'blues'
p2665
sg12
F0.109
sg13
VWalter Trout and The Free Radicals
p2666
sg15
I9999
sg16
F0.285
sg17
Nsg18
Nsg19
Nsg20
F0.8964
sg21
F0.611
sg22
Nsg23
Nsg24
F0.00186
ssg25
I01
sg26
I01
sba(iSong
Song
p2667
(dp2668
g3
(dp2669
g5
F0.0935
sg6
VSoulshine
p2670
sg8
F0.491124
sg9
F0.633
sg10
S'blues'
p2671
sg12
F0.0462
sg13
VGov't Mule
p2672
sg15
I9999
sg16
F0.418
sg17
Nsg18
Nsg19
Nsg20
F0.8643666666666667
sg21
F0.483
sg22
Nsg23
Nsg24
F0.079
ssg25
I01
sg26
I01
sba(iSong
Song
p2673
(dp2674
g3
(dp2675
g5
F0.118
sg6
VMe & the Devil Blues
p2676
sg8
F0.442336
sg9
F0.424
sg10
S'blues'
p2677
sg12
F0.0376
sg13
VJonah Tolchin
p2678
sg15
I9999
sg16
F0.492
sg17
Nsg18
Nsg19
Nsg20
F0.8492333333333334
sg21
F0.506
sg22
Nsg23
Nsg24
F0.00513
ssg25
I01
sg26
I01
sba(iSong
Song
p2679
(dp2680
g3
(dp2681
g5
F0.75
sg6
VRestless Sinner
p2682
sg8
F0.48194
sg9
F0.281
sg10
S'blues'
p2683
sg12
F0.036
sg13
VBlack Rebel Motorcycle Club
p2684
sg15
I9999
sg16
F0.381
sg17
Nsg18
Nsg19
Nsg20
F0.79395
sg21
F0.298
sg22
Nsg23
Nsg24
I0
ssg25
I01
sg26
I01
sba(iSong
Song
p2685
(dp2686
g3
(dp2687
g5
F0.0051
sg6
VSeven Hells
p2688
sg8
F0.57266
sg9
F0.613
sg10
S'blues'
p2689
sg12
F0.0838
sg13
VBrown Bird
p2690
sg15
I9999
sg16
F0.514
sg17
Nsg18
Nsg19
Nsg20
F0.8415
sg21
F0.545
sg22
Nsg23
Nsg24
F0.00134
ssg25
I01
sg26
I01
sba(iSong
Song
p2691
(dp2692
g3
(dp2693
g5
F0.515
sg6
VDevil's Resting Place
p2694
sg8
F0.717068
sg9
F0.59
sg10
S'blues'
p2695
sg12
F0.0916
sg13
VLaura Marling
p2696
sg15
I9999
sg16
F0.221
sg17
Nsg18
Nsg19
Nsg20
F0.7950166666666667
sg21
F0.713
sg22
Nsg23
Nsg24
F0.0636
ssg25
I01
sg26
I01
sba(iSong
Song
p2697
(dp2698
g3
(dp2699
g5
F0.93
sg6
VCross Road Blues
p2700
sg8
F0.38863600000000004
sg9
F0.311
sg10
S'blues'
p2701
sg12
F0.0525
sg13
VRobert Johnson
p2702
sg15
I9999
sg16
F0.675
sg17
Nsg18
Nsg19
Nsg20
F0.8006833333333333
sg21
F0.638
sg22
Nsg23
Nsg24
F0.000261
ssg25
I01
sg26
I01
sba(iSong
Song
p2703
(dp2704
g3
(dp2705
g5
F0.875
sg6
VThe High Price of Inspiration
p2706
sg8
F0.52252
sg9
F0.188
sg10
S'blues'
p2707
sg12
F0.0586
sg13
VHard Working Americans
p2708
sg15
I9999
sg16
F0.575
sg17
Nsg18
Nsg19
Nsg20
F0.7250166666666668
sg21
F0.322
sg22
Nsg23
Nsg24
F0.00205
ssg25
I01
sg26
I01
sba(iSong
Song
p2709
(dp2710
g3
(dp2711
g5
F0.0446
sg6
VBad Things
p2712
sg8
F0.524024
sg9
F0.864
sg10
S'blues'
p2713
sg12
F0.0399
sg13
VJace Everett
p2714
sg15
I9999
sg16
F0.591
sg17
Nsg18
Nsg19
Nsg20
F0.9215666666666666
sg21
F0.728
sg22
Nsg23
Nsg24
F0.00571
ssg25
I01
sg26
I01
sba(iSong
Song
p2715
(dp2716
g3
(dp2717
g5
F0.381
sg6
VOld devils
p2718
sg8
F0.408464
sg9
F0.461
sg10
S'blues'
p2719
sg12
F0.026
sg13
VWilliam Elliott Whitmore
p2720
sg15
I9999
sg16
F0.473
sg17
Nsg18
Nsg19
Nsg20
F0.8226166666666667
sg21
F0.408
sg22
Nsg23
Nsg24
F1.44e-06
ssg25
I01
sg26
I01
sba(iSong
Song
p2721
(dp2722
g3
(dp2723
g5
F0.407
sg6
VGraveyard
p2724
sg8
F0.5092559999999999
sg9
F0.494
sg10
S'blues'
p2725
sg12
F0.0275
sg13
VThe Devil Makes Three
p2726
sg15
I9999
sg16
F0.69
sg17
Nsg18
Nsg19
Nsg20
F0.84755
sg21
F0.84
sg22
Nsg23
Nsg24
F3.79e-06
ssg25
I01
sg26
I01
sba(iSong
Song
p2727
(dp2728
g3
(dp2729
g5
F0.221
sg6
VCrossroads
p2730
sg8
F0.456864
sg9
F0.507
sg10
S'blues'
p2731
sg12
F0.0564
sg13
VJohn Mayer
p2732
sg15
I9999
sg16
F0.894
sg17
Nsg18
Nsg19
Nsg20
F0.88425
sg21
F0.916
sg22
Nsg23
Nsg24
F0.0661
ssg25
I01
sg26
I01
sba(iSong
Song
p2733
(dp2734
g3
(dp2735
g5
F0.993
sg6
VDevil's Gonna Git You
p2736
sg8
F0.285736
sg9
F0.0442
sg10
S'blues'
p2737
sg12
F0.0371
sg13
VBessie Smith
p2738
sg15
I9999
sg16
F0.653
sg17
Nsg18
Nsg19
Nsg20
F0.7955166666666666
sg21
F0.346
sg22
Nsg23
Nsg24
I0
ssg25
I01
sg26
I01
sba(iSong
Song
p2739
(dp2740
g3
(dp2741
g5
F0.931
sg6
VMe and the Devil Blues
p2742
sg8
F0.328724
sg9
F0.111
sg10
S'blues'
p2743
sg12
F0.0873
sg13
VRobert Johnson
p2744
sg15
I9999
sg16
F0.717
sg17
Nsg18
Nsg19
Nsg20
F0.7699166666666667
sg21
F0.15
sg22
Nsg23
Nsg24
F0.000163
ssg25
I01
sg26
I01
sba(iSong
Song
p2745
(dp2746
g3
(dp2747
g5
F0.995
sg6
VEvil Devil Woman Blues
p2748
sg8
F0.580356
sg9
F0.0708
sg10
S'blues'
p2749
sg12
F0.0541
sg13
VMemphis Minnie & Kansas Joe
p2750
sg15
I9999
sg16
F0.476
sg17
Nsg18
Nsg19
Nsg20
F0.7293833333333334
sg21
F0.495
sg22
Nsg23
Nsg24
F0.00912
ssg25
I01
sg26
I01
sba(iSong
Song
p2751
(dp2752
g3
(dp2753
g5
F0.763
sg6
VBlue Guitar
p2754
sg8
F0.275216
sg9
F0.325
sg10
S'blues'
p2755
sg12
F0.0305
sg13
VEarl Hooker
p2756
sg15
I9999
sg16
F0.515
sg17
Nsg18
Nsg19
Nsg20
F0.7750333333333334
sg21
F0.553
sg22
Nsg23
Nsg24
F0.912
ssg25
I01
sg26
I01
sba(iSong
Song
p2757
(dp2758
g3
(dp2759
g5
F0.994
sg6
VBlue Guitar Stomp
p2760
sg8
F0.7308680000000001
sg9
F0.162
sg10
S'blues'
p2761
sg12
F0.055
sg13
VBuddy Burton & Fats Hudson
p2762
sg15
I9999
sg16
F0.533
sg17
Nsg18
Nsg19
Nsg20
F0.7371
sg21
F0.764
sg22
Nsg23
Nsg24
F0.671
ssg25
I01
sg26
I01
sba(iSong
Song
p2763
(dp2764
g3
(dp2765
g5
F0.673
sg6
VBlue Guitar
p2766
sg8
F0.717068
sg9
F0.203
sg10
S'blues'
p2767
sg12
F0.0407
sg13
VWillie Kent
p2768
sg15
I9999
sg16
F0.425
sg17
Nsg18
Nsg19
Nsg20
F0.7355
sg21
F0.457
sg22
Nsg23
Nsg24
F0.849
ssg25
I01
sg26
I01
sba(iSong
Song
p2769
(dp2770
g3
(dp2771
g5
F0.767
sg6
VEvil Woman
p2772
sg8
F0.455852
sg9
F0.271
sg10
S'blues'
p2773
sg12
F0.0667
sg13
VChampion Jack Dupree
p2774
sg15
I9999
sg16
F0.545
sg17
Nsg18
Nsg19
Nsg20
F0.7051666666666667
sg21
F0.679
sg22
Nsg23
Nsg24
F6e-06
ssg25
I01
sg26
I01
sba(iSong
Song
p2775
(dp2776
g3
(dp2777
g5
F0.901
sg6
VI Put A Spell On You
p2778
sg8
F0.696732
sg9
F0.384
sg10
S'blues'
p2779
sg12
F0.0321
sg13
VJesse Cook
p2780
sg15
I9999
sg16
F0.43
sg17
Nsg18
Nsg19
Nsg20
F0.847
sg21
F0.304
sg22
Nsg23
Nsg24
F0.0481
ssg25
I01
sg26
I01
sba(iSong
Song
p2781
(dp2782
g3
(dp2783
g5
F0.157
sg6
VDon't You Lie To Me (I Get Evil) - 2002 - Remaster
p2784
sg8
F0.5919840000000001
sg9
F0.829
sg10
S'blues'
p2785
sg12
F0.0792
sg13
VGary Moore
p2786
sg15
I9999
sg16
F0.598
sg17
Nsg18
Nsg19
Nsg20
F0.8581333333333333
sg21
F0.777
sg22
Nsg23
Nsg24
F6.78e-06
ssg25
I01
sg26
I01
sba(iSong
Song
p2787
(dp2788
g3
(dp2789
g5
F0.315
sg6
VStanding At The Crossroads
p2790
sg8
F0.39846800000000004
sg9
F0.765
sg10
S'blues'
p2791
sg12
F0.0331
sg13
VElmore James
p2792
sg15
I9999
sg16
F0.632
sg17
Nsg18
Nsg19
Nsg20
F0.9237166666666667
sg21
F0.95
sg22
Nsg23
Nsg24
F0.000246
ssg25
I01
sg26
I01
sba(iSong
Song
p2793
(dp2794
g3
(dp2795
g5
F0.489
sg6
VEvil Is Going On
p2796
sg8
F0.37486
sg9
F0.284
sg10
S'blues'
p2797
sg12
F0.0668
sg13
VJohn Hammond
p2798
sg15
I9999
sg16
F0.622
sg17
Nsg18
Nsg19
Nsg20
F0.7723166666666667
sg21
F0.671
sg22
Nsg23
Nsg24
F0.0744
ssg25
I01
sg26
I01
sba(iSong
Song
p2799
(dp2800
g3
(dp2801
g5
F0.446
sg6
VSweet Love and Evil Women
p2802
sg8
F0.42793200000000003
sg9
F0.715
sg10
S'blues'
p2803
sg12
F0.0482
sg13
VJohnny Winter
p2804
sg15
I9999
sg16
F0.597
sg17
Nsg18
Nsg19
Nsg20
F0.77215
sg21
F0.772
sg22
Nsg23
Nsg24
F0.454
ssg25
I01
sg26
I01
sba(iSong
Song
p2805
(dp2806
g3
(dp2807
g5
F0.989
sg6
VCross And Evil Woman Blues
p2808
sg8
F0.585844
sg9
F0.0976
sg10
S'blues'
p2809
sg12
F0.0611
sg13
VRev. Blind Gary Davis
p2810
sg15
I9999
sg16
F0.586
sg17
Nsg18
Nsg19
Nsg20
F0.706
sg21
F0.841
sg22
Nsg23
Nsg24
F0.0472
ssg25
I01
sg26
I01
sba(iSong
Song
p2811
(dp2812
g3
(dp2813
g5
F0.911
sg6
VEvil Hearted Woman - Alternate Take
p2814
sg8
F0.26414
sg9
F0.254
sg10
S'blues'
p2815
sg12
F0.0639
sg13
VT-Bone Walker
p2816
sg15
I9999
sg16
F0.582
sg17
Nsg18
Nsg19
Nsg20
F0.8060333333333334
sg21
F0.551
sg22
Nsg23
Nsg24
F0.0208
ssg25
I01
sg26
I01
sba(iSong
Song
p2817
(dp2818
g3
(dp2819
g5
F0.987
sg6
VEvil Blues
p2820
sg8
F0.797712
sg9
F0.0757
sg10
S'blues'
p2821
sg12
F0.0478
sg13
VMelvin "Lil' Son" Jackson
p2822
sg15
I9999
sg16
F0.599
sg17
Nsg18
Nsg19
Nsg20
F0.7867
sg21
F0.641
sg22
Nsg23
Nsg24
F0.00555
ssg25
I01
sg26
I01
sba(iSong
Song
p2823
(dp2824
g3
(dp2825
g5
F0.781
sg6
VMean and Evil
p2826
sg8
F0.383036
sg9
F0.269
sg10
S'blues'
p2827
sg12
F0.0633
sg13
VElmore James
p2828
sg15
I9999
sg16
F0.738
sg17
Nsg18
Nsg19
Nsg20
F0.7622333333333333
sg21
F0.679
sg22
Nsg23
Nsg24
F0.071
ssg25
I01
sg26
I01
sba(iSong
Song
p2829
(dp2830
g3
(dp2831
g5
F0.992
sg6
VBlue And Evil Blues - Remastered - 1997
p2832
sg8
F0.325852
sg9
F0.165
sg10
S'blues'
p2833
sg12
F0.0488
sg13
VTampa Red
p2834
sg15
I9999
sg16
F0.593
sg17
Nsg18
Nsg19
Nsg20
F0.7722833333333334
sg21
F0.455
sg22
Nsg23
Nsg24
F0.0374
ssg25
I01
sg26
I01
sba(iSong
Song
p2835
(dp2836
g3
(dp2837
g5
F0.986
sg6
VBlack And Evil Blues
p2838
sg8
F0.447988
sg9
F0.0851
sg10
S'blues'
p2839
sg12
F0.0759
sg13
VJosh White
p2840
sg15
I9999
sg16
F0.731
sg17
Nsg18
Nsg19
Nsg20
F0.755
sg21
F0.641
sg22
Nsg23
Nsg24
F9.63e-05
ssg25
I01
sg26
I01
sba(iSong
Song
p2841
(dp2842
g3
(dp2843
g5
F0.746
sg6
VDevil Don't Want Me Blues
p2844
sg8
F0.345888
sg9
F0.469
sg10
S'blues'
p2845
sg12
F0.0305
sg13
VTristan Omand
p2846
sg15
I9999
sg16
F0.583
sg17
Nsg18
Nsg19
Nsg20
F0.8987166666666667
sg21
F0.357
sg22
Nsg23
Nsg24
F0.00322
ssg25
I01
sg26
I01
sba(iSong
Song
p2847
(dp2848
g3
(dp2849
g5
F0.0109
sg6
VShe's Got The Devil In Her
p2850
sg8
F0.47656400000000004
sg9
F0.9
sg10
S'blues'
p2851
sg12
F0.095
sg13
VBuddy Guy
p2852
sg15
I9999
sg16
F0.441
sg17
Nsg18
Nsg19
Nsg20
F0.9328333333333333
sg21
F0.465
sg22
Nsg23
Nsg24
F0.462
ssg25
I01
sg26
I01
sba(iSong
Song
p2853
(dp2854
g3
(dp2855
g5
F0.917
sg6
VPreachin' Blues (Up Jumped the Devil)
p2856
sg8
F0.5536599999999999
sg9
F0.313
sg10
S'blues'
p2857
sg12
F0.0526
sg13
VRobert Johnson
p2858
sg15
I9999
sg16
F0.665
sg17
Nsg18
Nsg19
Nsg20
F0.7468666666666667
sg21
F0.531
sg22
Nsg23
Nsg24
F0.0118
ssg25
I01
sg26
I01
sba(iSong
Song
p2859
(dp2860
g3
(dp2861
g5
F0.000119
sg6
VDevil In My Closet
p2862
sg8
F0.324072
sg9
F0.495
sg10
S'blues'
p2863
sg12
F0.0344
sg13
VJohn Campbell
p2864
sg15
I9999
sg16
F0.353
sg17
Nsg18
Nsg19
Nsg20
F0.8082833333333334
sg21
F0.567
sg22
Nsg23
Nsg24
F0.0119
ssg25
I01
sg26
I01
sba(iSong
Song
p2865
(dp2866
g3
(dp2867
g5
F0.718
sg6
VBlue Devil Jump
p2868
sg8
F0.428056
sg9
F0.349
sg10
S'blues'
p2869
sg12
F0.0362
sg13
VJay McShann
p2870
sg15
I9999
sg16
F0.732
sg17
Nsg18
Nsg19
Nsg20
F0.8435666666666667
sg21
F0.77
sg22
Nsg23
Nsg24
F0.245
ssg25
I01
sg26
I01
sba(iSong
Song
p2871
(dp2872
g3
(dp2873
g5
F0.927
sg6
VCrossroads
p2874
sg8
F0.369596
sg9
F0.356
sg10
S'blues'
p2875
sg12
F0.0458
sg13
VDavid "Honeyboy" Edwards
p2876
sg15
I9999
sg16
F0.537
sg17
Nsg18
Nsg19
Nsg20
F0.8566666666666667
sg21
F0.312
sg22
Nsg23
Nsg24
F0.0653
ssg25
I01
sg26
I01
sba(iSong
Song
p2877
(dp2878
g3
(dp2879
g5
F0.0959
sg6
VDon't Give The Devil No Ground
p2880
sg8
F0.42842399999999997
sg9
F0.945
sg10
S'blues'
p2881
sg12
F0.048
sg13
VJames & Lucky Peterson
p2882
sg15
I9999
sg16
F0.662
sg17
Nsg18
Nsg19
Nsg20
F0.9227166666666666
sg21
F0.874
sg22
Nsg23
Nsg24
F0.000886
ssg25
I01
sg26
I01
sba(iSong
Song
p2883
(dp2884
g3
(dp2885
g5
F0.597
sg6
VDealin' With the Devil
p2886
sg8
F0.329736
sg9
F0.713
sg10
S'blues'
p2887
sg12
F0.114
sg13
VMuddy Waters
p2888
sg15
I9999
sg16
F0.365
sg17
Nsg18
Nsg19
Nsg20
F0.8835999999999999
sg21
F0.324
sg22
Nsg23
Nsg24
F2.07e-05
ssg25
I01
sg26
I01
sba(iSong
Song
p2889
(dp2890
g3
(dp2891
g5
F0.0451
sg6
VWhen The Devil Starts Crying
p2892
sg8
F0.560868
sg9
F0.799
sg10
S'blues'
p2893
sg12
F0.0459
sg13
VJohn Mayall & The Bluesbreakers
p2894
sg15
I9999
sg16
F0.481
sg17
Nsg18
Nsg19
Nsg20
F0.8650333333333333
sg21
F0.745
sg22
Nsg23
Nsg24
F0.000438
ssg25
I01
sg26
I01
sba(iSong
Song
p2895
(dp2896
g3
(dp2897
g5
F0.942
sg6
VDevil's Dream
p2898
sg8
F0.419416
sg9
F0.0971
sg10
S'blues'
p2899
sg12
F0.0528
sg13
VRev. Gary Davis
p2900
sg15
I9999
sg16
F0.578
sg17
Nsg18
Nsg19
Nsg20
F0.6088333333333333
sg21
F0.699
sg22
Nsg23
Nsg24
F0.805
ssg25
I01
sg26
I01
sba(iSong
Song
p2901
(dp2902
g3
(dp2903
g5
F0.161
sg6
VShe Wasn't Nothin' But a Devil
p2904
sg8
F0.495976
sg9
F0.831
sg10
S'blues'
p2905
sg12
F0.12
sg13
VJohn Lee Hooker, Jr.
p2906
sg15
I9999
sg16
F0.418
sg17
Nsg18
Nsg19
Nsg20
F0.9628666666666666
sg21
F0.76
sg22
Nsg23
Nsg24
I0
ssg25
I01
sg26
I01
sba(iSong
Song
p2907
(dp2908
g3
(dp2909
g5
F0.841
sg6
VDevil Got My Woman
p2910
sg8
F0.305496
sg9
F0.202
sg10
S'blues'
p2911
sg12
F0.0407
sg13
VSkip James
p2912
sg15
I9999
sg16
F0.597
sg17
Nsg18
Nsg19
Nsg20
F0.8050666666666667
sg21
F0.521
sg22
Nsg23
Nsg24
F1.44e-06
ssg25
I01
sg26
I01
sba(iSong
Song
p2913
(dp2914
g3
(dp2915
g5
F0.966
sg6
VSay No to the Devil
p2916
sg8
F0.688532
sg9
F0.201
sg10
S'blues'
p2917
sg12
F0.0495
sg13
VRev. Gary Davis
p2918
sg15
I9999
sg16
F0.559
sg17
Nsg18
Nsg19
Nsg20
F0.7750666666666667
sg21
F0.627
sg22
Nsg23
Nsg24
F0.00496
ssg25
I01
sg26
I01
sba(iSong
Song
p2919
(dp2920
g3
(dp2921
g5
F0.471
sg6
VOld Devil Moon
p2922
sg8
F0.5738759999999999
sg9
F0.714
sg10
S'blues'
p2923
sg12
F0.0307
sg13
VMickey Baker
p2924
sg15
I9999
sg16
F0.5
sg17
Nsg18
Nsg19
Nsg20
F0.8675166666666667
sg21
F0.872
sg22
Nsg23
Nsg24
F0.531
ssg25
I01
sg26
I01
sba(iSong
Song
p2925
(dp2926
g3
(dp2927
g5
F0.865
sg6
VDevil Is Watching You
p2928
sg8
F0.441872
sg9
F0.424
sg10
S'blues'
p2929
sg12
F0.041
sg13
VLightnin' Hopkins
p2930
sg15
I9999
sg16
F0.559
sg17
Nsg18
Nsg19
Nsg20
F0.8480166666666666
sg21
F0.385
sg22
Nsg23
Nsg24
F0.00118
ssg25
I01
sg26
I01
sba(iSong
Song
p2931
(dp2932
g3
(dp2933
g5
F0.979
sg6
VBlue Devil Blues
p2934
sg8
F0.303488
sg9
F0.0132
sg10
S'blues'
p2935
sg12
F0.086
sg13
VTexas Alexander
p2936
sg15
I9999
sg16
F0.541
sg17
Nsg18
Nsg19
Nsg20
F0.5938
sg21
F0.319
sg22
Nsg23
Nsg24
F1.95e-05
ssg25
I01
sg26
I01
sba(iSong
Song
p2937
(dp2938
g3
(dp2939
g5
F0.0995
sg6
VShoot The Devil
p2940
sg8
F0.47992
sg9
F0.72
sg10
S'blues'
p2941
sg12
F0.0357
sg13
VDavid Jacobs-Strain
p2942
sg15
I9999
sg16
F0.561
sg17
Nsg18
Nsg19
Nsg20
F0.9353833333333333
sg21
F0.472
sg22
Nsg23
Nsg24
F7.83e-06
ssg25
I01
sg26
I01
sba(iSong
Song
p2943
(dp2944
g3
(dp2945
g5
F0.322
sg6
VCrossroads - Remastered Version
p2946
sg8
F0.545492
sg9
F0.736
sg10
S'blues'
p2947
sg12
F0.0481
sg13
VRy Cooder
p2948
sg15
I9999
sg16
F0.632
sg17
Nsg18
Nsg19
Nsg20
F0.7675833333333333
sg21
F0.744
sg22
Nsg23
Nsg24
I0
ssg25
I01
sg26
I01
sba(iSong
Song
p2949
(dp2950
g3
(dp2951
g5
F0.417
sg6
VShake Hands With The Devil
p2952
sg8
F0.454428
sg9
F0.479
sg10
S'blues'
p2953
sg12
F0.0338
sg13
VKenny Parker
p2954
sg15
I9999
sg16
F0.472
sg17
Nsg18
Nsg19
Nsg20
F0.75065
sg21
F0.619
sg22
Nsg23
Nsg24
F0.00519
ssg25
I01
sg26
I01
sba(iSong
Song
p2955
(dp2956
g3
(dp2957
g5
F0.868
sg6
VThe Devil With The Devil
p2958
sg8
F0.35492
sg9
F0.2
sg10
S'blues'
p2959
sg12
F0.106
sg13
VThe Golden Gate Quartet
p2960
sg15
I9999
sg16
F0.419
sg17
Nsg18
Nsg19
Nsg20
F0.68245
sg21
F0.48
sg22
Nsg23
Nsg24
F0.827
ssg25
I01
sg26
I01
sba(iSong
Song
p2961
(dp2962
g3
(dp2963
g5
F0.876
sg6
VGwine Dig A Hole To Put The Devil In (142-B-1)
p2964
sg8
F0.49842000000000003
sg9
F0.916
sg10
S'blues'
p2965
sg12
F0.393
sg13
VLead Belly
p2966
sg15
I9999
sg16
F0.668
sg17
Nsg18
Nsg19
Nsg20
F0.8649166666666666
sg21
F0.671
sg22
Nsg23
Nsg24
F0.00584
ssg25
I01
sg26
I01
sba(iSong
Song
p2967
(dp2968
g3
(dp2969
g5
F0.865
sg6
VDevil Got My Woman
p2970
sg8
F0.37056
sg9
F0.265
sg10
S'blues'
p2971
sg12
F0.03
sg13
VPaul Geremia
p2972
sg15
I9999
sg16
F0.497
sg17
Nsg18
Nsg19
Nsg20
F0.7651
sg21
F0.474
sg22
Nsg23
Nsg24
F0.000585
ssg25
I01
sg26
I01
sba(iSong
Song
p2973
(dp2974
g3
(dp2975
g5
F0.345
sg6
VCrossRoads
p2976
sg8
F0.571496
sg9
F0.591
sg10
S'blues'
p2977
sg12
F0.0337
sg13
VElmore James
p2978
sg15
I9999
sg16
F0.358
sg17
Nsg18
Nsg19
Nsg20
F0.7318333333333332
sg21
F0.885
sg22
Nsg23
Nsg24
F0.00251
ssg25
I01
sg26
I01
sba(iSong
Song
p2979
(dp2980
g3
(dp2981
g5
F0.984
sg6
VThe Devil Is A Busy Man
p2982
sg8
F0.277628
sg9
F0.635
sg10
S'blues'
p2983
sg12
F0.558
sg13
VJ.B. Lenoir, Sunny Land Slim and Friends
p2984
sg15
I9999
sg16
F0.557
sg17
Nsg18
Nsg19
Nsg20
F0.8802166666666668
sg21
F0.586
sg22
Nsg23
Nsg24
F0.0118
ssg25
I01
sg26
I01
sba(iSong
Song
p2985
(dp2986
g3
(dp2987
g5
F0.208
sg6
VCrossroads - Crossroad 2 Box/Set Version/Live Version
p2988
sg8
F0.370968
sg9
F0.637
sg10
S'blues'
p2989
sg12
F0.0308
sg13
VEric Clapton
p2990
sg15
I9999
sg16
F0.542
sg17
Nsg18
Nsg19
Nsg20
F0.7700166666666667
sg21
F0.835
sg22
Nsg23
Nsg24
F0.277
ssg25
I01
sg26
I01
sba(iSong
Song
p2991
(dp2992
g3
(dp2993
g5
F0.971
sg6
VDevil Sent The Rain Blues
p2994
sg8
F0.731604
sg9
F0.166
sg10
S'blues'
p2995
sg12
F0.0406
sg13
VCharley Patton
p2996
sg15
I9999
sg16
F0.485
sg17
Nsg18
Nsg19
Nsg20
F0.7462833333333333
sg21
F0.336
sg22
Nsg23
Nsg24
F0.813
ssg25
I01
sg26
I01
sba(iSong
Song
p2997
(dp2998
g3
(dp2999
g5
F0.951
sg6
VDealing With The Devil
p3000
sg8
F0.32982
sg9
F0.272
sg10
S'blues'
p3001
sg12
F0.0524
sg13
VBrownie McGhee
p3002
sg15
I9999
sg16
F0.645
sg17
Nsg18
Nsg19
Nsg20
F0.7396166666666667
sg21
F0.903
sg22
Nsg23
Nsg24
F0.00252
ssg25
I01
sg26
I01
sba(iSong
Song
p3003
(dp3004
g3
(dp3005
g5
F0.777
sg6
VCrossroads
p3006
sg8
F0.42388
sg9
F0.255
sg10
S'blues'
p3007
sg12
F0.0399
sg13
VTracy Chapman
p3008
sg15
I9999
sg16
F0.787
sg17
Nsg18
Nsg19
Nsg20
F0.75445
sg21
F0.6
sg22
Nsg23
Nsg24
F0.00959
ssg25
I01
sg26
I01
sba(iSong
Song
p3009
(dp3010
g3
(dp3011
g5
F0.686
sg6
VLady Weeping at the Crossroads
p3012
sg8
F0.315496
sg9
F0.253
sg10
S'blues'
p3013
sg12
F0.0403
sg13
VCarla Bruni
p3014
sg15
I9999
sg16
F0.59
sg17
Nsg18
Nsg19
Nsg20
F0.7752
sg21
F0.139
sg22
Nsg23
Nsg24
F1.59e-05
ssg25
I01
sg26
I01
sba(iSong
Song
p3015
(dp3016
g3
(dp3017
g5
F0.953
sg6
VHellhound On My Trail - Take 1-Complete Master Version/Remix
p3018
sg8
F0.263296
sg9
F0.063
sg10
S'blues'
p3019
sg12
F0.039
sg13
VFleetwood Mac
p3020
sg15
I9999
sg16
F0.388
sg17
Nsg18
Nsg19
Nsg20
F0.7320833333333333
sg21
F0.286
sg22
Nsg23
Nsg24
F0.00851
ssg25
I01
sg26
I01
sba(iSong
Song
p3021
(dp3022
g3
(dp3023
g5
F0.261
sg6
VBoom Boom
p3024
sg8
F0.622936
sg9
F0.388
sg10
S'blues'
p3025
sg12
F0.247
sg13
VJohn Lee Hooker
p3026
sg15
I9999
sg16
F0.632
sg17
Nsg18
Nsg19
Nsg20
F0.7852833333333334
sg21
F0.825
sg22
Nsg23
Nsg24
F0.00688
ssg25
I01
sg26
I01
sba(iSong
Song
p3027
(dp3028
g3
(dp3029
g5
F0.0406
sg6
VMustang Sally
p3030
sg8
F0.429092
sg9
F0.934
sg10
S'blues'
p3031
sg12
F0.0342
sg13
VBuddy Guy
p3032
sg15
I9999
sg16
F0.613
sg17
Nsg18
Nsg19
Nsg20
F0.93815
sg21
F0.776
sg22
Nsg23
Nsg24
F0.000313
ssg25
I01
sg26
I01
sba(iSong
Song
p3033
(dp3034
g3
(dp3035
g5
F0.262
sg6
VMilkcow's Calf Blues
p3036
sg8
F0.6758959999999999
sg9
F0.758
sg10
S'blues'
p3037
sg12
F0.0286
sg13
VEric Clapton
p3038
sg15
I9999
sg16
F0.458
sg17
Nsg18
Nsg19
Nsg20
F0.8967833333333334
sg21
F0.784
sg22
Nsg23
Nsg24
F0.000504
ssg25
I01
sg26
I01
sba(iSong
Song
p3039
(dp3040
g3
(dp3041
g5
F0.561
sg6
VWorld's In A Tangle
p3042
sg8
F0.41374
sg9
F0.369
sg10
S'blues'
p3043
sg12
F0.0536
sg13
VFleetwood Mac
p3044
sg15
I9999
sg16
F0.521
sg17
Nsg18
Nsg19
Nsg20
F0.7704500000000001
sg21
F0.536
sg22
Nsg23
Nsg24
F0.0772
ssg25
I01
sg26
I01
sba(iSong
Song
p3045
(dp3046
g3
(dp3047
g5
F0.704
sg6
VHound Dog
p3048
sg8
F0.533252
sg9
F0.542
sg10
S'blues'
p3049
sg12
F0.0977
sg13
VBig Mama Thornton
p3050
sg15
I9999
sg16
F0.552
sg17
Nsg18
Nsg19
Nsg20
F0.8189666666666666
sg21
F0.784
sg22
Nsg23
Nsg24
F3.59e-05
ssg25
I01
sg26
I01
sba(iSong
Song
p3051
(dp3052
g3
(dp3053
g5
F0.142
sg6
VPut The Pot On
p3054
sg8
F0.4774
sg9
F0.616
sg10
S'blues'
p3055
sg12
F0.0448
sg13
VKoko Taylor
p3056
sg15
I9999
sg16
F0.64
sg17
Nsg18
Nsg19
Nsg20
F0.8259666666666666
sg21
F0.844
sg22
Nsg23
Nsg24
F3e-05
ssg25
I01
sg26
I01
sba(iSong
Song
p3057
(dp3058
g3
(dp3059
g5
F0.468
sg6
VI Just Want To Make Love To You
p3060
sg8
F0.32356799999999997
sg9
F0.347
sg10
S'blues'
p3061
sg12
F0.0503
sg13
VMuddy Waters
p3062
sg15
I9999
sg16
F0.565
sg17
Nsg18
Nsg19
Nsg20
F0.8433666666666667
sg21
F0.238
sg22
Nsg23
Nsg24
F5.73e-06
ssg25
I01
sg26
I01
sba(iSong
Song
p3063
(dp3064
g3
(dp3065
g5
F0.951
sg6
VMy Babe - Single Version
p3066
sg8
F0.6381760000000001
sg9
F0.403
sg10
S'blues'
p3067
sg12
F0.0434
sg13
VLittle Walter
p3068
sg15
I9999
sg16
F0.606
sg17
Nsg18
Nsg19
Nsg20
F0.8583833333333334
sg21
F0.844
sg22
Nsg23
Nsg24
I0
ssg25
I01
sg26
I01
sba(iSong
Song
p3069
(dp3070
g3
(dp3071
g5
F0.701
sg6
VShake Your Money Maker
p3072
sg8
F0.405528
sg9
F0.659
sg10
S'blues'
p3073
sg12
F0.0416
sg13
VElmore James
p3074
sg15
I9999
sg16
F0.502
sg17
Nsg18
Nsg19
Nsg20
F0.8754500000000001
sg21
F0.841
sg22
Nsg23
Nsg24
F0.000225
ssg25
I01
sg26
I01
sba(iSong
Song
p3075
(dp3076
g3
(dp3077
g5
F0.575
sg6
VThe Hunter
p3078
sg8
F0.5348440000000001
sg9
F0.287
sg10
S'blues'
p3079
sg12
F0.0352
sg13
VAlbert King
p3080
sg15
I9999
sg16
F0.8
sg17
Nsg18
Nsg19
Nsg20
F0.7081166666666666
sg21
F0.748
sg22
Nsg23
Nsg24
F0.000768
ssg25
I01
sg26
I01
sba(iSong
Song
p3081
(dp3082
g3
(dp3083
g5
F0.266
sg6
VTen Long Years
p3084
sg8
F0.39106799999999997
sg9
F0.551
sg10
S'blues'
p3085
sg12
F0.0261
sg13
VEric Clapton
p3086
sg15
I9999
sg16
F0.678
sg17
Nsg18
Nsg19
Nsg20
F0.8778
sg21
F0.767
sg22
Nsg23
Nsg24
F0.00322
ssg25
I01
sg26
I01
sba(iSong
Song
p3087
(dp3088
g3
(dp3089
g5
F0.15
sg6
VThird Degree
p3090
sg8
F0.805836
sg9
F0.571
sg10
S'blues'
p3091
sg12
F0.0414
sg13
VJohnny Winter
p3092
sg15
I9999
sg16
F0.257
sg17
Nsg18
Nsg19
Nsg20
F0.79695
sg21
F0.832
sg22
Nsg23
Nsg24
F0.0207
ssg25
I01
sg26
I01
sba(iSong
Song
p3093
(dp3094
g3
(dp3095
g5
F0.44
sg6
VMannish Boy
p3096
sg8
F0.444516
sg9
F0.735
sg10
S'blues'
p3097
sg12
F0.0973
sg13
VMuddy Waters
p3098
sg15
I9999
sg16
F0.598
sg17
Nsg18
Nsg19
Nsg20
F0.8186333333333333
sg21
F0.615
sg22
Nsg23
Nsg24
F0.000215
ssg25
I01
sg26
I01
sba(iSong
Song
p3099
(dp3100
g3
(dp3101
g5
F0.76
sg6
VDriftin' Blues
p3102
sg8
F0.685988
sg9
F0.453
sg10
S'blues'
p3103
sg12
F0.0466
sg13
VBobby "Blue" Bland
p3104
sg15
I9999
sg16
F0.437
sg17
Nsg18
Nsg19
Nsg20
F0.8866833333333334
sg21
F0.456
sg22
Nsg23
Nsg24
F2.07e-06
ssg25
I01
sg26
I01
sba(iSong
Song
p3105
(dp3106
g3
(dp3107
g5
F0.934
sg6
VEmpty Arms
p3108
sg8
F0.561784
sg9
F0.447
sg10
S'blues'
p3109
sg12
F0.0501
sg13
VEddie Boyd
p3110
sg15
I9999
sg16
F0.705
sg17
Nsg18
Nsg19
Nsg20
F0.8112166666666667
sg21
F0.547
sg22
Nsg23
Nsg24
F0.172
ssg25
I01
sg26
I01
sba(iSong
Song
p3111
(dp3112
g3
(dp3113
g5
F0.639
sg6
VAvailable Space
p3114
sg8
F0.5895520000000001
sg9
F0.434
sg10
S'blues'
p3115
sg12
F0.0379
sg13
VRy Cooder
p3116
sg15
I9999
sg16
F0.568
sg17
Nsg18
Nsg19
Nsg20
F0.7638333333333333
sg21
F0.694
sg22
Nsg23
Nsg24
F0.626
ssg25
I01
sg26
I01
sba(iSong
Song
p3117
(dp3118
g3
(dp3119
g5
F0.458
sg6
VAm I Wrong
p3120
sg8
F0.4506
sg9
F0.476
sg10
S'blues'
p3121
sg12
F0.0528
sg13
VKeb' Mo'
p3122
sg15
I9999
sg16
F0.882
sg17
Nsg18
Nsg19
Nsg20
F0.8460833333333333
sg21
F0.964
sg22
Nsg23
Nsg24
F2.47e-06
ssg25
I01
sg26
I01
sba(iSong
Song
p3123
(dp3124
g3
(dp3125
g5
F0.109
sg6
VOne Scotch, One Bourbon, One Beer - Bonus track
p3126
sg8
F0.702824
sg9
F0.668
sg10
S'blues'
p3127
sg12
F0.0538
sg13
VChampion Jack Dupree
p3128
sg15
I9999
sg16
F0.431
sg17
Nsg18
Nsg19
Nsg20
F0.8717666666666666
sg21
F0.901
sg22
Nsg23
Nsg24
F0.000157
ssg25
I01
sg26
I01
sba(iSong
Song
p3129
(dp3130
g3
(dp3131
g5
F0.00614
sg6
VBad To The Bone
p3132
sg8
F0.596916
sg9
F0.727
sg10
S'blues'
p3133
sg12
F0.0303
sg13
VGeorge Thorogood & The Destroyers
p3134
sg15
I9999
sg16
F0.459
sg17
Nsg18
Nsg19
Nsg20
F0.8037166666666666
sg21
F0.954
sg22
Nsg23
Nsg24
F0.065
ssg25
I01
sg26
I01
sba(iSong
Song
p3135
(dp3136
g3
(dp3137
g5
F0.0984
sg6
VSnatch It Back And Hold It
p3138
sg8
F0.546852
sg9
F0.408
sg10
S'blues'
p3139
sg12
F0.167
sg13
VJunior Wells
p3140
sg15
I9999
sg16
F0.765
sg17
Nsg18
Nsg19
Nsg20
F0.7820166666666667
sg21
F0.891
sg22
Nsg23
Nsg24
I0
ssg25
I01
sg26
I01
sba(iSong
Song
p3141
(dp3142
g3
(dp3143
g5
F0.544
sg6
VMadison Blues
p3144
sg8
F0.466368
sg9
F0.813
sg10
S'blues'
p3145
sg12
F0.148
sg13
VFleetwood Mac
p3146
sg15
I9999
sg16
F0.453
sg17
Nsg18
Nsg19
Nsg20
F0.8425166666666667
sg21
F0.517
sg22
Nsg23
Nsg24
F0.0222
ssg25
I01
sg26
I01
sba(iSong
Song
p3147
(dp3148
g3
(dp3149
g5
F0.0459
sg6
VGoing Down - 2000 - Remastered
p3150
sg8
F0.670608
sg9
F0.669
sg10
S'blues'
p3151
sg12
F0.0311
sg13
VFreddie King
p3152
sg15
I9999
sg16
F0.555
sg17
Nsg18
Nsg19
Nsg20
F0.8756666666666667
sg21
F0.691
sg22
Nsg23
Nsg24
F0.000521
ssg25
I01
sg26
I01
sba(iSong
Song
p3153
(dp3154
g3
(dp3155
g5
F0.33
sg6
VWalking The Backstreets And Crying
p3156
sg8
F0.493008
sg9
F0.256
sg10
S'blues'
p3157
sg12
F0.0622
sg13
VLittle Milton
p3158
sg15
I9999
sg16
F0.724
sg17
Nsg18
Nsg19
Nsg20
F0.7370666666666668
sg21
F0.442
sg22
Nsg23
Nsg24
F0.00181
ssg25
I01
sg26
I01
sba(iSong
Song
p3159
(dp3160
g3
(dp3161
g5
F0.705
sg6
VGood Morning Little School Girl
p3162
sg8
F0.350508
sg9
F0.306
sg10
S'blues'
p3163
sg12
F0.0652
sg13
VMuddy Waters
p3164
sg15
I9999
sg16
F0.767
sg17
Nsg18
Nsg19
Nsg20
F0.755
sg21
F0.56
sg22
Nsg23
Nsg24
F0.00545
ssg25
I01
sg26
I01
sba(iSong
Song
p3165
(dp3166
g3
(dp3167
g5
F0.68
sg6
VIt Hurt So Bad
p3168
sg8
F0.831736
sg9
F0.518
sg10
S'blues'
p3169
sg12
F0.0949
sg13
VSusan Tedeschi
p3170
sg15
I9999
sg16
F0.354
sg17
Nsg18
Nsg19
Nsg20
F0.8979666666666667
sg21
F0.528
sg22
Nsg23
Nsg24
F3.46e-05
ssg25
I01
sg26
I01
sba(iSong
Song
p3171
(dp3172
g3
(dp3173
g5
F0.707
sg6
VMean Old Frisco Blues
p3174
sg8
F0.430848
sg9
F0.757
sg10
S'blues'
p3175
sg12
F0.0267
sg13
VMuddy Waters
p3176
sg15
I9999
sg16
F0.686
sg17
Nsg18
Nsg19
Nsg20
F0.8777166666666666
sg21
F0.896
sg22
Nsg23
Nsg24
F0.000153
ssg25
I01
sg26
I01
sba(iSong
Song
p3177
(dp3178
g3
(dp3179
g5
F0.0114
sg6
VSo Many Roads
p3180
sg8
F0.585832
sg9
F0.756
sg10
S'blues'
p3181
sg12
F0.039
sg13
VJoe Bonamassa
p3182
sg15
I9999
sg16
F0.29
sg17
Nsg18
Nsg19
Nsg20
F0.9098666666666666
sg21
F0.546
sg22
Nsg23
Nsg24
F0.148
ssg25
I01
sg26
I01
sba(iSong
Song
p3183
(dp3184
g3
(dp3185
g5
F0.285
sg6
VHolding You Up For Love
p3186
sg8
F0.38988
sg9
F0.727
sg10
S'blues'
p3187
sg12
F0.0264
sg13
VOtis Grand
p3188
sg15
I9999
sg16
F0.554
sg17
Nsg18
Nsg19
Nsg20
F0.8644666666666667
sg21
F0.582
sg22
Nsg23
Nsg24
F7.79e-06
ssg25
I01
sg26
I01
sba(iSong
Song
p3189
(dp3190
g3
(dp3191
g5
F0.687
sg6
VAll The Way
p3192
sg8
F0.6873640000000001
sg9
F0.398
sg10
S'blues'
p3193
sg12
F0.0607
sg13
VThe Robert Cray Band
p3194
sg15
I9999
sg16
F0.563
sg17
Nsg18
Nsg19
Nsg20
F0.7858666666666667
sg21
F0.364
sg22
Nsg23
Nsg24
F0.00246
ssg25
I01
sg26
I01
sba(iSong
Song
p3195
(dp3196
g3
(dp3197
g5
F0.795
sg6
VNine Below Zero - 1961 Single Version
p3198
sg8
F0.394208
sg9
F0.535
sg10
S'blues'
p3199
sg12
F0.0351
sg13
VSonny Boy Williamson II
p3200
sg15
I9999
sg16
F0.56
sg17
Nsg18
Nsg19
Nsg20
F0.9186333333333334
sg21
F0.677
sg22
Nsg23
Nsg24
F0.00184
ssg25
I01
sg26
I01
sba(iSong
Song
p3201
(dp3202
g3
(dp3203
g5
F0.0792
sg6
VBlues for Mrs. Pauline / Leave My Boy Alown
p3204
sg8
F0.69486
sg9
F0.752
sg10
S'blues'
p3205
sg12
F0.1
sg13
VAna Popovic
p3206
sg15
I9999
sg16
F0.364
sg17
Nsg18
Nsg19
Nsg20
F0.9062833333333333
sg21
F0.636
sg22
Nsg23
Nsg24
F1.57e-05
ssg25
I01
sg26
I01
sba(iSong
Song
p3207
(dp3208
g3
(dp3209
g5
F0.0496
sg6
VTime Has Come
p3210
sg8
F0.38444799999999996
sg9
F0.564
sg10
S'blues'
p3211
sg12
F0.0337
sg13
VJoanne Shaw Taylor
p3212
sg15
I9999
sg16
F0.569
sg17
Nsg18
Nsg19
Nsg20
F0.8776666666666666
sg21
F0.526
sg22
Nsg23
Nsg24
F0.0138
ssg25
I01
sg26
I01
sba(iSong
Song
p3213
(dp3214
g3
(dp3215
g5
F0.0377
sg6
VFarther On Up the Road - 2012 Remastered Version
p3216
sg8
F0.460804
sg9
F0.918
sg10
S'blues'
p3217
sg12
F0.173
sg13
VRobin Trower
p3218
sg15
I9999
sg16
F0.469
sg17
Nsg18
Nsg19
Nsg20
F0.8902666666666667
sg21
F0.77
sg22
Nsg23
Nsg24
F0.000392
ssg25
I01
sg26
I01
sba(iSong
Song
p3219
(dp3220
g3
(dp3221
g5
F0.011
sg6
VSittin On Top Of The World
p3222
sg8
F0.6530560000000001
sg9
F0.924
sg10
S'blues'
p3223
sg12
F0.0561
sg13
VWalter Trout
p3224
sg15
I9999
sg16
F0.167
sg17
Nsg18
Nsg19
Nsg20
F0.9022
sg21
F0.555
sg22
Nsg23
Nsg24
F0.0593
ssg25
I01
sg26
I01
sba(iSong
Song
p3225
(dp3226
g3
(dp3227
g5
F0.561
sg6
VLie To Me
p3228
sg8
F0.449512
sg9
F0.684
sg10
S'blues'
p3229
sg12
F0.043
sg13
VJonny Lang
p3230
sg15
I9999
sg16
F0.615
sg17
Nsg18
Nsg19
Nsg20
F0.8553499999999999
sg21
F0.894
sg22
Nsg23
Nsg24
F0.000492
ssg25
I01
sg26
I01
sba(iSong
Song
p3231
(dp3232
g3
(dp3233
g5
F0.13
sg6
VBlues I Believe to My Soul
p3234
sg8
F0.595828
sg9
F0.612
sg10
S'blues'
p3235
sg12
F0.0572
sg13
VHumble Pie
p3236
sg15
I9999
sg16
F0.328
sg17
Nsg18
Nsg19
Nsg20
F0.8595
sg21
F0.433
sg22
Nsg23
Nsg24
F0.000599
ssg25
I01
sg26
I01
sba(iSong
Song
p3237
(dp3238
g3
(dp3239
g5
F0.978
sg6
VGood Morning, Little Schoolgirl
p3240
sg8
F0.369244
sg9
F0.137
sg10
S'blues'
p3241
sg12
F0.117
sg13
VSonny Boy Williamson II
p3242
sg15
I9999
sg16
F0.577
sg17
Nsg18
Nsg19
Nsg20
F0.6981499999999999
sg21
F0.823
sg22
Nsg23
Nsg24
F0.0134
ssg25
I01
sg26
I01
sba(iSong
Song
p3243
(dp3244
g3
(dp3245
g5
F0.818
sg6
VKokomo Blues
p3246
sg8
F0.4298
sg9
F0.247
sg10
S'blues'
p3247
sg12
F0.0385
sg13
VMississippi Fred McDowell
p3248
sg15
I9999
sg16
F0.554
sg17
Nsg18
Nsg19
Nsg20
F0.73405
sg21
F0.466
sg22
Nsg23
Nsg24
F8.38e-06
ssg25
I01
sg26
I01
sba(iSong
Song
p3249
(dp3250
g3
(dp3251
g5
F0.511
sg6
VThe Man Who Hated Mornings
p3252
sg8
F0.25582
sg9
F0.578
sg10
S'blues'
p3253
sg12
F0.0372
sg13
VMichael Chapman
p3254
sg15
I9999
sg16
F0.514
sg17
Nsg18
Nsg19
Nsg20
F0.8565333333333333
sg21
F0.492
sg22
Nsg23
Nsg24
F0.0533
ssg25
I01
sg26
I01
sba(iSong
Song
p3255
(dp3256
g3
(dp3257
g5
F0.0671
sg6
VI Ain't Superstitious (feat. Eric Clapton)
p3258
sg8
F0.385668
sg9
F0.853
sg10
S'blues'
p3259
sg12
F0.0346
sg13
VHowlin' Wolf
p3260
sg15
I9999
sg16
F0.59
sg17
Nsg18
Nsg19
Nsg20
F0.8703166666666667
sg21
F0.806
sg22
Nsg23
Nsg24
F0.000204
ssg25
I01
sg26
I01
sba(iSong
Song
p3261
(dp3262
g3
(dp3263
g5
F0.0472
sg6
VSmokestack Lightnin'
p3264
sg8
F0.74188
sg9
F0.657
sg10
S'blues'
p3265
sg12
F0.0639
sg13
VThe Groundhogs
p3266
sg15
I9999
sg16
F0.388
sg17
Nsg18
Nsg19
Nsg20
F0.8303999999999999
sg21
F0.905
sg22
Nsg23
Nsg24
F0.00198
ssg25
I01
sg26
I01
sba(iSong
Song
p3267
(dp3268
g3
(dp3269
g5
F0.0995
sg6
VSince I've Been Loving You - "In Concert" Live Version From BBC Sessions
p3270
sg8
F0.5137480000000001
sg9
F0.67
sg10
S'blues'
p3271
sg12
F0.0545
sg13
VLed Zeppelin
p3272
sg15
I9999
sg16
F0.376
sg17
Nsg18
Nsg19
Nsg20
F0.8687666666666666
sg21
F0.348
sg22
Nsg23
Nsg24
F0.00831
ssg25
I01
sg26
I01
sba(iSong
Song
p3273
(dp3274
g3
(dp3275
g5
F0.118
sg6
VHideaway
p3276
sg8
F0.490664
sg9
F0.71
sg10
S'blues'
p3277
sg12
F0.065
sg13
VFreddie King
p3278
sg15
I9999
sg16
F0.658
sg17
Nsg18
Nsg19
Nsg20
F0.80845
sg21
F0.899
sg22
Nsg23
Nsg24
F0.862
ssg25
I01
sg26
I01
sba(iSong
Song
p3279
(dp3280
g3
(dp3281
g5
F0.888
sg6
VHow Many More Years
p3282
sg8
F0.439316
sg9
F0.444
sg10
S'blues'
p3283
sg12
F0.136
sg13
VHowlin' Wolf
p3284
sg15
I9999
sg16
F0.677
sg17
Nsg18
Nsg19
Nsg20
F0.7066333333333332
sg21
F0.53
sg22
Nsg23
Nsg24
F0.00821
ssg25
I01
sg26
I01
sba(iSong
Song
p3285
(dp3286
g3
(dp3287
g5
F0.354
sg6
VI'm Ready - 2000 Digital Remaster
p3288
sg8
F0.528924
sg9
F0.716
sg10
S'blues'
p3289
sg12
F0.0933
sg13
VFreddie King
p3290
sg15
I9999
sg16
F0.466
sg17
Nsg18
Nsg19
Nsg20
F0.87915
sg21
F0.859
sg22
Nsg23
Nsg24
F0.000125
ssg25
I01
sg26
I01
sba(iSong
Song
p3291
(dp3292
g3
(dp3293
g5
F0.0226
sg6
VThe Sky Is Crying
p3294
sg8
F0.7127640000000001
sg9
F0.611
sg10
S'blues'
p3295
sg12
F0.0348
sg13
VElmore James
p3296
sg15
I9999
sg16
F0.294
sg17
Nsg18
Nsg19
Nsg20
F0.8955333333333333
sg21
F0.567
sg22
Nsg23
Nsg24
F0.435
ssg25
I01
sg26
I01
sba(iSong
Song
p3297
(dp3298
g3
(dp3299
g5
F0.824
sg6
VAlabama Blues
p3300
sg8
F0.389784
sg9
F0.308
sg10
S'blues'
p3301
sg12
F0.0348
sg13
VJ.B. Lenoir
p3302
sg15
I9999
sg16
F0.675
sg17
Nsg18
Nsg19
Nsg20
F0.8653166666666666
sg21
F0.69
sg22
Nsg23
Nsg24
F3.75e-05
ssg25
I01
sg26
I01
sba(iSong
Song
p3303
(dp3304
g3
(dp3305
g5
F0.67
sg6
VI'm Your Hoochie Coochie Man
p3306
sg8
F0.455792
sg9
F0.588
sg10
S'blues'
p3307
sg12
F0.0665
sg13
VMuddy Waters
p3308
sg15
I9999
sg16
F0.542
sg17
Nsg18
Nsg19
Nsg20
F0.8455333333333334
sg21
F0.881
sg22
Nsg23
Nsg24
F0.158
ssg25
I01
sg26
I01
sba(iSong
Song
p3309
(dp3310
g3
(dp3311
g5
F0.943
sg6
VTake It Easy Baby
p3312
sg8
F0.646712
sg9
F0.254
sg10
S'blues'
p3313
sg12
F0.0485
sg13
VPinetop Perkins
p3314
sg15
I9999
sg16
F0.575
sg17
Nsg18
Nsg19
Nsg20
F0.7801333333333333
sg21
F0.526
sg22
Nsg23
Nsg24
F2.34e-05
ssg25
I01
sg26
I01
sba(iSong
Song
p3315
(dp3316
g3
(dp3317
g5
F0.944
sg6
VSomeday (Electric)
p3318
sg8
F0.376788
sg9
F0.333
sg10
S'blues'
p3319
sg12
F0.032
sg13
VOtis Spann
p3320
sg15
I9999
sg16
F0.581
sg17
Nsg18
Nsg19
Nsg20
F0.7631833333333333
sg21
F0.488
sg22
Nsg23
Nsg24
F0.472
ssg25
I01
sg26
I01
sba(iSong
Song
p3321
(dp3322
g3
(dp3323
g5
F0.0876
sg6
VInto the Blues
p3324
sg8
F0.48022000000000004
sg9
F0.544
sg10
S'blues'
p3325
sg12
F0.0393
sg13
VJoan Armatrading
p3326
sg15
I9999
sg16
F0.77
sg17
Nsg18
Nsg19
Nsg20
F0.8920999999999999
sg21
F0.506
sg22
Nsg23
Nsg24
F0.00375
ssg25
I01
sg26
I01
sba(iSong
Song
p3327
(dp3328
g3
(dp3329
g5
F0.0589
sg6
VAlone In The Dark
p3330
sg8
F0.39236
sg9
F0.388
sg10
S'blues'
p3331
sg12
F0.0317
sg13
VJohn Hiatt
p3332
sg15
I9999
sg16
F0.611
sg17
Nsg18
Nsg19
Nsg20
F0.8169166666666666
sg21
F0.656
sg22
Nsg23
Nsg24
F0.000581
ssg25
I01
sg26
I01
sba(iSong
Song
p3333
(dp3334
g3
(dp3335
g5
F0.0535
sg6
VGet Lost
p3336
sg8
F0.496788
sg9
F0.781
sg10
S'blues'
p3337
sg12
F0.0862
sg13
VAl King
p3338
sg15
I9999
sg16
F0.347
sg17
Nsg18
Nsg19
Nsg20
F0.8636666666666667
sg21
F0.736
sg22
Nsg23
Nsg24
F7.74e-06
ssg25
I01
sg26
I01
sba(iSong
Song
p3339
(dp3340
g3
(dp3341
g5
F0.393
sg6
VBo Diddley
p3342
sg8
F0.421892
sg9
F0.753
sg10
S'blues'
p3343
sg12
F0.0572
sg13
VBo Diddley
p3344
sg15
I9999
sg16
F0.826
sg17
Nsg18
Nsg19
Nsg20
F0.86295
sg21
F0.48
sg22
Nsg23
Nsg24
I0
ssg25
I01
sg26
I01
sba(iSong
Song
p3345
(dp3346
g3
(dp3347
g5
F0.964
sg6
VCoffee Blues
p3348
sg8
F0.416932
sg9
F0.0785
sg10
S'blues'
p3349
sg12
F0.0503
sg13
VMississippi John Hurt
p3350
sg15
I9999
sg16
F0.61
sg17
Nsg18
Nsg19
Nsg20
F0.6576166666666666
sg21
F0.763
sg22
Nsg23
Nsg24
F0.00014
ssg25
I01
sg26
I01
sba(iSong
Song
p3351
(dp3352
g3
(dp3353
g5
F0.44
sg6
VMannish Boy
p3354
sg8
F0.444516
sg9
F0.735
sg10
S'blues'
p3355
sg12
F0.0973
sg13
VMuddy Waters
p3356
sg15
I9999
sg16
F0.598
sg17
Nsg18
Nsg19
Nsg20
F0.8186333333333333
sg21
F0.615
sg22
Nsg23
Nsg24
F0.000215
ssg25
I01
sg26
I01
sba(iSong
Song
p3357
(dp3358
g3
(dp3359
g5
F0.799
sg6
VSmokestack Lightnin'
p3360
sg8
F0.5845520000000001
sg9
F0.502
sg10
S'blues'
p3361
sg12
F0.0401
sg13
VHowlin' Wolf
p3362
sg15
I9999
sg16
F0.683
sg17
Nsg18
Nsg19
Nsg20
F0.8528333333333333
sg21
F0.5
sg22
Nsg23
Nsg24
F0.000116
ssg25
I01
sg26
I01
sba(iSong
Song
p3363
(dp3364
g3
(dp3365
g5
F0.651
sg6
VTwo Bugs And A Roach
p3366
sg8
F0.5411
sg9
F0.568
sg10
S'blues'
p3367
sg12
F0.0752
sg13
VEarl Hooker
p3368
sg15
I9999
sg16
F0.541
sg17
Nsg18
Nsg19
Nsg20
F0.7902666666666666
sg21
F0.815
sg22
Nsg23
Nsg24
F0.00563
ssg25
I01
sg26
I01
sba(iSong
Song
p3369
(dp3370
g3
(dp3371
g5
F0.369
sg6
VWang Dang Doodle - Single Version
p3372
sg8
F0.6111
sg9
F0.561
sg10
S'blues'
p3373
sg12
F0.199
sg13
VKoko Taylor
p3374
sg15
I9999
sg16
F0.655
sg17
Nsg18
Nsg19
Nsg20
F0.8523333333333334
sg21
F0.659
sg22
Nsg23
Nsg24
F5.04e-06
ssg25
I01
sg26
I01
sba(iSong
Song
p3375
(dp3376
g3
(dp3377
g5
F0.442
sg6
VHoodoo Man Blues
p3378
sg8
F0.415696
sg9
F0.324
sg10
S'blues'
p3379
sg12
F0.332
sg13
VJunior Wells
p3380
sg15
I9999
sg16
F0.708
sg17
Nsg18
Nsg19
Nsg20
F0.7792166666666667
sg21
F0.638
sg22
Nsg23
Nsg24
F0.000147
ssg25
I01
sg26
I01
sba(iSong
Song
p3381
(dp3382
g3
(dp3383
g5
F0.97
sg6
VI Can't Quit You Baby
p3384
sg8
F0.347808
sg9
F0.596
sg10
S'blues'
p3385
sg12
F0.0395
sg13
VOtis Rush
p3386
sg15
I9999
sg16
F0.492
sg17
Nsg18
Nsg19
Nsg20
F0.9327000000000001
sg21
F0.548
sg22
Nsg23
Nsg24
F0.043
ssg25
I01
sg26
I01
sba(iSong
Song
p3387
(dp3388
g3
(dp3389
g5
F0.843
sg6
VAll Your Love
p3390
sg8
F0.322492
sg9
F0.7
sg10
S'blues'
p3391
sg12
F0.163
sg13
VMagic Sam
p3392
sg15
I9999
sg16
F0.433
sg17
Nsg18
Nsg19
Nsg20
F0.8633833333333333
sg21
F0.8
sg22
Nsg23
Nsg24
F0.324
ssg25
I01
sg26
I01
sba(iSong
Song
p3393
(dp3394
g3
(dp3395
g5
F0.554
sg6
VThe Little Red Rooster
p3396
sg8
F0.490356
sg9
F0.29
sg10
S'blues'
p3397
sg12
F0.0374
sg13
VWillie Dixon
p3398
sg15
I9999
sg16
F0.477
sg17
Nsg18
Nsg19
Nsg20
F0.6989
sg21
F0.727
sg22
Nsg23
Nsg24
F0.178
ssg25
I01
sg26
I01
sba(iSong
Song
p3399
(dp3400
g3
(dp3401
g5
F0.978
sg6
VLast Night - Single Version
p3402
sg8
F0.41654
sg9
F0.406
sg10
S'blues'
p3403
sg12
F0.0518
sg13
VLittle Walter
p3404
sg15
I9999
sg16
F0.711
sg17
Nsg18
Nsg19
Nsg20
F0.8208666666666667
sg21
F0.484
sg22
Nsg23
Nsg24
F0.000997
ssg25
I01
sg26
I01
sba(iSong
Song
p3405
(dp3406
g3
(dp3407
g5
F0.67
sg6
VI'm Your Hoochie Coochie Man
p3408
sg8
F0.455792
sg9
F0.588
sg10
S'blues'
p3409
sg12
F0.0665
sg13
VMuddy Waters
p3410
sg15
I9999
sg16
F0.542
sg17
Nsg18
Nsg19
Nsg20
F0.8455333333333334
sg21
F0.881
sg22
Nsg23
Nsg24
F0.158
ssg25
I01
sg26
I01
sba(iSong
Song
p3411
(dp3412
g3
(dp3413
g5
F0.787
sg6
VFirst Time I Met The Blues
p3414
sg8
F0.409128
sg9
F0.818
sg10
S'blues'
p3415
sg12
F0.0455
sg13
VBuddy Guy
p3416
sg15
I9999
sg16
F0.414
sg17
Nsg18
Nsg19
Nsg20
F0.9007000000000001
sg21
F0.743
sg22
Nsg23
Nsg24
F0.00303
ssg25
I01
sg26
I01
sba(iSong
Song
p3417
(dp3418
g3
(dp3419
g5
F0.644
sg6
VThat's All Right - Single Version
p3420
sg8
F0.30272000000000004
sg9
F0.247
sg10
S'blues'
p3421
sg12
F0.0414
sg13
VJimmy Rogers
p3422
sg15
I9999
sg16
F0.481
sg17
Nsg18
Nsg19
Nsg20
F0.7777166666666666
sg21
F0.567
sg22
Nsg23
Nsg24
F2.81e-05
ssg25
I01
sg26
I01
sba(iSong
Song
p3423
(dp3424
g3
(dp3425
g5
F0.0226
sg6
VThe Sky Is Crying
p3426
sg8
F0.7127640000000001
sg9
F0.611
sg10
S'blues'
p3427
sg12
F0.0348
sg13
VElmore James
p3428
sg15
I9999
sg16
F0.294
sg17
Nsg18
Nsg19
Nsg20
F0.8955333333333333
sg21
F0.567
sg22
Nsg23
Nsg24
F0.435
ssg25
I01
sg26
I01
sba(iSong
Song
p3429
(dp3430
g3
(dp3431
g5
F0.687
sg6
VBack Door Man
p3432
sg8
F0.6312559999999999
sg9
F0.701
sg10
S'blues'
p3433
sg12
F0.094
sg13
VHowlin' Wolf
p3434
sg15
I9999
sg16
F0.562
sg17
Nsg18
Nsg19
Nsg20
F0.86565
sg21
F0.876
sg22
Nsg23
Nsg24
F1.43e-05
ssg25
I01
sg26
I01
sba(iSong
Song
p3435
(dp3436
g3
(dp3437
g5
F0.885
sg6
VDark Road
p3438
sg8
F0.278248
sg9
F0.513
sg10
S'blues'
p3439
sg12
F0.034
sg13
VEddie Taylor
p3440
sg15
I9999
sg16
F0.617
sg17
Nsg18
Nsg19
Nsg20
F0.7852666666666667
sg21
F0.626
sg22
Nsg23
Nsg24
F0.00108
ssg25
I01
sg26
I01
sba(iSong
Song
p3441
(dp3442
g3
(dp3443
g5
F0.284
sg6
VI'm A Man - Single Version
p3444
sg8
F0.509988
sg9
F0.54
sg10
S'blues'
p3445
sg12
F0.0462
sg13
VBo Diddley
p3446
sg15
I9999
sg16
F0.617
sg17
Nsg18
Nsg19
Nsg20
F0.7751
sg21
F0.86
sg22
Nsg23
Nsg24
I0
ssg25
I01
sg26
I01
sba(iSong
Song
p3447
(dp3448
g3
(dp3449
g5
F0.944
sg6
VSomeday (Electric)
p3450
sg8
F0.376788
sg9
F0.333
sg10
S'blues'
p3451
sg12
F0.032
sg13
VOtis Spann
p3452
sg15
I9999
sg16
F0.581
sg17
Nsg18
Nsg19
Nsg20
F0.7631833333333333
sg21
F0.488
sg22
Nsg23
Nsg24
F0.472
ssg25
I01
sg26
I01
sba(iSong
Song
p3453
(dp3454
g3
(dp3455
g5
F0.113
sg6
VRock Me Baby
p3456
sg8
F0.424408
sg9
F0.697
sg10
S'blues'
p3457
sg12
F0.045
sg13
VMighty Joe Young
p3458
sg15
I9999
sg16
F0.581
sg17
Nsg18
Nsg19
Nsg20
F0.8626833333333332
sg21
F0.906
sg22
Nsg23
Nsg24
F0.000924
ssg25
I01
sg26
I01
sba(iSong
Song
p3459
(dp3460
g3
(dp3461
g5
F0.886
sg6
VMy Babe - Single Version
p3462
sg8
F0.631548
sg9
F0.333
sg10
S'blues'
p3463
sg12
F0.0524
sg13
VLittle Walter
p3464
sg15
I9999
sg16
F0.684
sg17
Nsg18
Nsg19
Nsg20
F0.8252166666666666
sg21
F0.833
sg22
Nsg23
Nsg24
I0
ssg25
I01
sg26
I01
sba(iSong
Song
p3465
(dp3466
g3
(dp3467
g5
F0.561
sg6
VMadison Blues
p3468
sg8
F0.542452
sg9
F0.844
sg10
S'blues'
p3469
sg12
F0.0432
sg13
VElmore James
p3470
sg15
I9999
sg16
F0.496
sg17
Nsg18
Nsg19
Nsg20
F0.8953166666666666
sg21
F0.822
sg22
Nsg23
Nsg24
F0.193
ssg25
I01
sg26
I01
sba.