(lp0
(iSong
Song
p1
(dp2
S'attributes'
p3
(dp4
S'accousticness'
p5
F0.02913520452753832
sS'title'
p6
VNot Nice
p7
sS'tempo'
p8
F0.48348278775654835
sS'energy'
p9
F0.42663378545006164
sS'from_playlist'
p10
S'r_b'
p11
sS'speechiness'
p12
F0.11551011529258211
sS'artist_name'
p13
VPARTYNEXTDOOR
p14
sS'cluster_id'
p15
I9999
sS'danceability'
p16
F0.48125937031484256
sS'end_of_fade_in'
p17
NsS'artist_familiarity'
p18
NsS'duration'
p19
NsS'loudness'
p20
F0.0016793893129770992
sS'valence'
p21
F0.7374599786552828
sS'start_of_fade_out'
p22
NsS'artist_hotness'
p23
NsS'instrumentalness'
p24
F0.6509776254787342
ssS'hasData'
p25
I01
sba(iSong
Song
p26
(dp27
g3
(dp28
g5
F0.060737218258786925
sg6
VSlow Wine
p29
sg8
F0.056331598026656514
sg9
F0.654747225647349
sg10
S'r_b'
p30
sg12
F0.47574505112029586
sg13
VJ-Soul
p31
sg15
I9999
sg16
F0.616191904047976
sg17
Nsg18
Nsg19
Nsg20
F1e-07
sg21
F0.5955176093916755
sg22
Nsg23
Nsg24
F0.9872001612578108
ssg25
I01
sba(iSong
Song
p32
(dp33
g3
(dp34
g5
F0.1804312922445417
sg6
VReminder
p35
sg8
F0.7017430292458231
sg9
F0.4254007398273736
sg10
S'r_b'
p36
sg12
F0.41918642592995436
sg13
VThe Weeknd
p37
sg15
I9999
sg16
F0.649175412293853
sg17
Nsg18
Nsg19
Nsg20
F1e-07
sg21
F0.3863393810032017
sg22
Nsg23
Nsg24
F0.7487401733521467
ssg25
I01
sba(iSong
Song
p38
(dp39
g3
(dp40
g5
F0.48603318327200074
sg6
VWe Can (feat. Tory Lanez)
p41
sg8
F0.5155428057455913
sg9
F0.5770653514180025
sg10
S'r_b'
p42
sg12
F0.6367195997389602
sg13
VKranium
p43
sg15
I9999
sg16
F0.41229385307346333
sg17
Nsg18
Nsg19
Nsg20
F1e-07
sg21
F0.38954108858057634
sg22
Nsg23
Nsg24
F0.7795807296915944
ssg25
I01
sba(iSong
Song
p44
(dp45
g3
(dp46
g5
F0.015359967772891493
sg6
VNobody's Better (feat. Fetty Wap)
p47
sg8
F0.2993540298182016
sg9
F0.6300863131935882
sg10
S'r_b'
p48
sg12
F0.1711986077876876
sg13
VZ
p49
sg15
I9999
sg16
F0.11994002998500745
sg17
Nsg18
Nsg19
Nsg20
F1e-07
sg21
F0.5410885805763074
sg22
Nsg23
Nsg24
F0.754283410602701
ssg25
I01
sba(iSong
Song
p50
(dp51
g3
(dp52
g5
F0.21284361402018132
sg6
VDistance
p53
sg8
F0.31870587914633813
sg9
F0.8162762022194823
sg10
S'r_b'
p54
sg12
F0.408309767239504
sg13
VOmarion
p55
sg15
I9999
sg16
F0.7451274362818592
sg17
Nsg18
Nsg19
Nsg20
F1e-07
sg21
F0.7566702241195304
sg22
Nsg23
Nsg24
F0.845646039105019
ssg25
I01
sba(iSong
Song
p56
(dp57
g3
(dp58
g5
F0.33554740359938834
sg6
VComin Out Strong
p59
sg8
F0.3519787947341165
sg9
F0.408138101109741
sg10
S'r_b'
p60
sg12
F0.9738960191429192
sg13
VFuture
p61
sg15
I9999
sg16
F0.5262368815592204
sg17
Nsg18
Nsg19
Nsg20
F1e-07
sg21
F0.3159018143009606
sg22
Nsg23
Nsg24
F0.7282805885910099
ssg25
I01
sba(iSong
Song
p62
(dp63
g3
(dp64
g5
F0.06015842679850764
sg6
VBlem
p65
sg8
F0.27876884079696906
sg9
F0.4907521578298398
sg10
S'r_b'
p66
sg12
F0.04872743093321732
sg13
VDrake
p67
sg15
I9999
sg16
F0.6701649175412294
sg17
Nsg18
Nsg19
Nsg20
F9.414758269720102e-06
sg21
F0.3820704375667022
sg22
Nsg23
Nsg24
F0.7138177786736545
ssg25
I01
sba(iSong
Song
p68
(dp69
g3
(dp70
g5
F0.014781176312612214
sg6
VLUV
p71
sg8
F0.5521000844939901
sg9
F0.4710234278668311
sg10
S'r_b'
p72
sg12
F0.4735697193822058
sg13
VTory Lanez
p73
sg15
I9999
sg16
F0.31484257871064464
sg17
Nsg18
Nsg19
Nsg20
F1e-07
sg21
F0.22305229455709713
sg22
Nsg23
Nsg24
F0.7104414432574078
ssg25
I01
sba(iSong
Song
p74
(dp75
g3
(dp76
g5
F0.17695854348286605
sg6
VPrivacy
p77
sg8
F0.2724658617024176
sg9
F0.530209617755857
sg10
S'r_b'
p78
sg12
F0.7628888405481836
sg13
VChris Brown
p79
sg15
I9999
sg16
F0.6956521739130435
sg17
Nsg18
Nsg19
Nsg20
F1e-07
sg21
F0.4204909284951975
sg22
Nsg23
Nsg24
F0.7299939528320903
ssg25
I01
sba(iSong
Song
p80
(dp81
g3
(dp82
g5
F0.4119478763562531
sg6
VBody
p83
sg8
F0.2989588159938946
sg9
F0.7965474722564736
sg10
S'r_b'
p84
sg12
F0.4496410702632152
sg13
VSean Paul
p85
sg15
I9999
sg16
F0.4437781109445277
sg17
Nsg18
Nsg19
Nsg20
F1e-07
sg21
F0.47065101387406616
sg22
Nsg23
Nsg24
F0.9441644829671437
ssg25
I01
sba(iSong
Song
p86
(dp87
g3
(dp88
g5
F0.297347167220956
sg6
VOne I Want (feat. PARTYNEXTDOOR)
p89
sg8
F0.5646242743056502
sg9
F0.0900123304562269
sg10
S'r_b'
p90
sg12
F0.6388949314770503
sg13
VMajid Jordan
p91
sg15
I9999
sg16
F0.9535232383808098
sg17
Nsg18
Nsg19
Nsg20
F0.00011170483460559797
sg21
F0.3372465314834578
sg22
Nsg23
Nsg24
F0.4941544043539609
ssg25
I01
sba(iSong
Song
p92
(dp93
g3
(dp94
g5
F0.6075793899306492
sg6
VI'm A Fan (feat. Jeremih)
p95
sg8
F0.2651135217640165
sg9
F0.5782983970406905
sg10
S'r_b'
p96
sg12
F0.12312377637589732
sg13
VPia Mia
p97
sg15
I9999
sg16
F0.56071964017991
sg17
Nsg18
Nsg19
Nsg20
F1e-07
sg21
F0.5635005336179296
sg22
Nsg23
Nsg24
F0.8687260632936907
ssg25
I01
sba(iSong
Song
p98
(dp99
g3
(dp100
g5
F0.09859017976105172
sg6
VSigns
p101
sg8
F0.3424936629507482
sg9
F0.720098643649815
sg10
S'r_b'
p102
sg12
F0.05460082662606048
sg13
VDrake
p103
sg15
I9999
sg16
F0.7691154422788606
sg17
Nsg18
Nsg19
Nsg20
F0.005203562340966921
sg21
F0.2017075773745998
sg22
Nsg23
Nsg24
F0.8852549889135255
ssg25
I01
sba(iSong
Song
p104
(dp105
g3
(dp106
g5
F0.42005095680016297
sg6
VF With U
p107
sg8
F0.2797568753577367
sg9
F0.45622688039457465
sg10
S'r_b'
p108
sg12
F0.6867522297150316
sg13
VKid Ink
p109
sg15
I9999
sg16
F0.3943028485757122
sg17
Nsg18
Nsg19
Nsg20
F1e-07
sg21
F0.6072572038420491
sg22
Nsg23
Nsg24
F0.7576093529530337
ssg25
I01
sba(iSong
Song
p110
(dp111
g3
(dp112
g5
F0.04395226591068785
sg6
VNobody Else But You
p113
sg8
F0.564249502575704
sg9
F0.5696670776818742
sg10
S'r_b'
p114
sg12
F0.20600391559712855
sg13
VTrey Songz
p115
sg15
I9999
sg16
F0.6461769115442278
sg17
Nsg18
Nsg19
Nsg20
F1e-07
sg21
F0.24439701173959447
sg22
Nsg23
Nsg24
F0.7986293086071357
ssg25
I01
sba(iSong
Song
p116
(dp117
g3
(dp118
g5
F0.5462274951410456
sg6
VCall Me
p119
sg8
F0.24035133146174606
sg9
F0.46485819975339093
sg10
S'r_b'
p120
sg12
F0.026974113552316725
sg13
VRamriddlz
p121
sg15
I9999
sg16
F0.34932533733133436
sg17
Nsg18
Nsg19
Nsg20
F1e-07
sg21
F0.6008537886872999
sg22
Nsg23
Nsg24
F0.6813142511590404
ssg25
I01
sba(iSong
Song
p122
(dp123
g3
(dp124
g5
F0.3818507204217306
sg6
VLocation
p125
sg8
F0.15685900406116277
sg9
F0.3686806411837239
sg10
S'r_b'
p126
sg12
F0.8651294322384163
sg13
VKhalid
p127
sg15
I9999
sg16
F0.6881559220389806
sg17
Nsg18
Nsg19
Nsg20
F0.00020610687022900762
sg21
F0.3116328708644611
sg22
Nsg23
Nsg24
F0.5424813545656118
ssg25
I01
sba(iSong
Song
p128
(dp129
g3
(dp130
g5
F0.14686138754834357
sg6
VCome Closer
p131
sg8
F0.29210390035160405
sg9
F0.373612823674476
sg10
S'r_b'
p132
sg12
F0.4344137480965848
sg13
VWizKid
p133
sg15
I9999
sg16
F0.8215892053973013
sg17
Nsg18
Nsg19
Nsg20
F4.860050890585241e-06
sg21
F0.49306296691568835
sg22
Nsg23
Nsg24
F0.7457165893972989
ssg25
I01
sba(iSong
Song
p134
(dp135
g3
(dp136
g5
F0.2082132823379471
sg6
VYour Number REMIX
p137
sg8
F0.29242415982992176
sg9
F0.5487053020961775
sg10
S'r_b'
p138
sg12
F0.2038285838590385
sg13
VAyo Jay
p139
sg15
I9999
sg16
F0.712143928035982
sg17
Nsg18
Nsg19
Nsg20
F1e-07
sg21
F0.759871931696905
sg22
Nsg23
Nsg24
F0.7792783712961097
ssg25
I01
sba(iSong
Song
p140
(dp141
g3
(dp142
g5
F0.027051555270532917
sg6
VA Lie
p143
sg8
F0.4366635776390744
sg9
F0.7916152897657214
sg10
S'r_b'
p144
sg12
F0.4104850989775941
sg13
VFrench Montana
p145
sg15
I9999
sg16
F0.35832083958020994
sg17
Nsg18
Nsg19
Nsg20
F1e-07
sg21
F0.5229455709711847
sg22
Nsg23
Nsg24
F0.8489719814553518
ssg25
I01
sba(iSong
Song
p146
(dp147
g3
(dp148
g5
F0.003367408715904842
sg6
VSelf-Made
p149
sg8
F0.5852912317043256
sg9
F0.6806411837237978
sg10
S'r_b'
p150
sg12
F0.1370458994996737
sg13
VBryson Tiller
p151
sg15
I9999
sg16
F0.9820089955022491
sg17
Nsg18
Nsg19
Nsg20
F2.3791348600508906e-05
sg21
F0.5293489861259338
sg22
Nsg23
Nsg24
F0.9457770610763959
ssg25
I01
sba(iSong
Song
p152
(dp153
g3
(dp154
g5
F0.3517535644872081
sg6
VPassionfruit
p155
sg8
F0.37379732344844496
sg9
F0.3810110974106043
sg10
S'r_b'
p156
sg12
F0.025451381335653684
sg13
VDrake
p157
sg15
I9999
sg16
F0.7901049475262371
sg17
Nsg18
Nsg19
Nsg20
F0.10966921119592875
sg21
F0.3607257203842049
sg22
Nsg23
Nsg24
F0.5377444063696836
ssg25
I01
sba(iSong
Song
p158
(dp159
g3
(dp160
g5
F0.0824997771652878
sg6
VGwan Big Up Urself
p161
sg8
F0.2243247294829513
sg9
F0.46485819975339093
sg10
S'r_b'
p162
sg12
F0.025016314988035675
sg13
VRoy Woods
p163
sg15
I9999
sg16
F0.5952023988005998
sg17
Nsg18
Nsg19
Nsg20
F1e-07
sg21
F0.25400213447171827
sg22
Nsg23
Nsg24
F0.7473291675065511
ssg25
I01
sba(iSong
Song
p164
(dp165
g3
(dp166
g5
F0.033765536209772545
sg6
VUnforgettable
p167
sg8
F0.2785507917904549
sg9
F0.7632552404438965
sg10
S'r_b'
p168
sg12
F0.20817924733521861
sg13
VFrench Montana
p169
sg15
I9999
sg16
F0.6731634182908546
sg17
Nsg18
Nsg19
Nsg20
F0.012849872773536894
sg21
F0.7459978655282817
sg22
Nsg23
Nsg24
F0.8659544446684136
ssg25
I01
sba(iSong
Song
p170
(dp171
g3
(dp172
g5
F0.6666161188791355
sg6
VPatient
p173
sg8
F0.2235956281174194
sg9
F0.621454993834772
sg10
S'r_b'
p174
sg12
F0.6454209266913205
sg13
VPost Malone
p175
sg15
I9999
sg16
F0.32983508245877063
sg17
Nsg18
Nsg19
Nsg20
F1e-07
sg21
F0.560298826040555
sg22
Nsg23
Nsg24
F0.8064402338238258
ssg25
I01
sba(iSong
Song
p176
(dp177
g3
(dp178
g5
F0.008483925224773663
sg6
VEx Calling
p179
sg8
F0.6739894791354357
sg9
F0.5043156596794082
sg10
S'r_b'
p180
sg12
F0.5018490319773766
sg13
V6LACK
p181
sg15
I9999
sg16
F0.7571214392803599
sg17
Nsg18
Nsg19
Nsg20
F2.213740458015267e-05
sg21
F0.044823906083244394
sg22
Nsg23
Nsg24
F0.7398709937512598
ssg25
I01
sba(iSong
Song
p182
(dp183
g3
(dp184
g5
F0.06594634140130043
sg6
VAll Eyez (feat. Jeremih) [Bonus Track]
p185
sg8
F0.1344340265474665
sg9
F0.62268803945746
sg10
S'r_b'
p186
sg12
F0.4779203828583859
sg13
VThe Game
p187
sg15
I9999
sg16
F0.21289355322338827
sg17
Nsg18
Nsg19
Nsg20
F1e-07
sg21
F0.34044823906083244
sg22
Nsg23
Nsg24
F0.7835113888328965
ssg25
I01
sba(iSong
Song
p188
(dp189
g3
(dp190
g5
F0.12139456329605529
sg6
VSome Way
p191
sg8
F0.666821118046281
sg9
F0.7065351418002466
sg10
S'r_b'
p192
sg12
F0.6954535566673917
sg13
VNAV
p193
sg15
I9999
sg16
F0.7061469265367317
sg17
Nsg18
Nsg19
Nsg20
F1e-07
sg21
F0.3372465314834578
sg22
Nsg23
Nsg24
F0.8069945575488812
ssg25
I01
sba(iSong
Song
p194
(dp195
g3
(dp196
g5
F0.3691173082955865
sg6
V247
p197
sg8
F0.37468996156886253
sg9
F0.5092478421701603
sg10
S'r_b'
p198
sg12
F0.5953882967152491
sg13
VDavid Correy
p199
sg15
I9999
sg16
F0.28635682158920545
sg17
Nsg18
Nsg19
Nsg20
F1e-07
sg21
F0.45677694770544297
sg22
Nsg23
Nsg24
F0.8254384196734529
ssg25
I01
sba(iSong
Song
p200
(dp201
g3
(dp202
g5
F0.10541991899234722
sg6
VNever Enough (feat. Trey Songz)
p203
sg8
F0.27943661587941887
sg9
F0.31319358816276205
sg10
S'r_b'
p204
sg12
F0.34304981509680227
sg13
VMIKExANGEL
p205
sg15
I9999
sg16
F0.719640179910045
sg17
Nsg18
Nsg19
Nsg20
F1e-07
sg21
F0.37246531483457845
sg22
Nsg23
Nsg24
F0.5774541423100181
ssg25
I01
sba(iSong
Song
p206
(dp207
g3
(dp208
g5
F0.44899052981412696
sg6
VGrass Ain't Greener
p209
sg8
F0.5235901768922565
sg9
F0.5561035758323057
sg10
S'r_b'
p210
sg12
F0.0485098977594083
sg13
VChris Brown
p211
sg15
I9999
sg16
F0.5502248875562219
sg17
Nsg18
Nsg19
Nsg20
F1e-07
sg21
F0.5165421558164355
sg22
Nsg23
Nsg24
F0.8632332191090505
ssg25
I01
sba(iSong
Song
p212
(dp213
g3
(dp214
g5
F0.03399705279388426
sg6
VOMG
p215
sg8
F0.5645220638338467
sg9
F0.5252774352651047
sg10
S'r_b'
p216
sg12
F0.057211224711768545
sg13
VCamila Cabello
p217
sg15
I9999
sg16
F0.5667166416791605
sg17
Nsg18
Nsg19
Nsg20
F0.14631043256997456
sg21
F0.14194236926360726
sg22
Nsg23
Nsg24
F0.7806893771417053
ssg25
I01
sba(iSong
Song
p218
(dp219
g3
(dp220
g5
F0.0349231191303311
sg6
VSelfish
p221
sg8
F0.26329417536591343
sg9
F0.27003699136868065
sg10
S'r_b'
p222
sg12
F0.10180552534261474
sg13
VFuture
p223
sg15
I9999
sg16
F0.2068965517241379
sg17
Nsg18
Nsg19
Nsg20
F9.720101781170482e-06
sg21
F0.06115261472785486
sg22
Nsg23
Nsg24
F0.6139387220318484
ssg25
I01
sba(iSong
Song
p224
(dp225
g3
(dp226
g5
F0.12834006081940663
sg6
VLove Galore
p227
sg8
F0.5307857941072257
sg9
F0.5474722564734895
sg10
S'r_b'
p228
sg12
F0.10311072438546878
sg13
VSZA
p229
sg15
I9999
sg16
F0.7766116941529236
sg17
Nsg18
Nsg19
Nsg20
F1e-07
sg21
F0.400213447171825
sg22
Nsg23
Nsg24
F0.8076496674057649
ssg25
I01
sba(iSong
Song
p230
(dp231
g3
(dp232
g5
F0.2834561721742533
sg6
VStuck On U
p233
sg8
F0.5297159911690152
sg9
F0.5191122071516645
sg10
S'r_b'
p234
sg12
F0.2669132042636502
sg13
VTory Lanez
p235
sg15
I9999
sg16
F0.5412293853073463
sg17
Nsg18
Nsg19
Nsg20
F1.2468193384223917e-05
sg21
F0.3703308431163287
sg22
Nsg23
Nsg24
F0.8267486393872202
ssg25
I01
sba(iSong
Song
p236
(dp237
g3
(dp238
g5
F0.24872868455749658
sg6
VDirty Wine
p239
sg8
F0.27868025838807275
sg9
F0.6276202219482121
sg10
S'r_b'
p240
sg12
F0.21252991081139874
sg13
VWizKid
p241
sg15
I9999
sg16
F0.6806596701649176
sg17
Nsg18
Nsg19
Nsg20
F1e-07
sg21
F0.5389541088580576
sg22
Nsg23
Nsg24
F0.8826345494859907
ssg25
I01
sba(iSong
Song
p242
(dp243
g3
(dp244
g5
F0.06895605699475268
sg6
VKiss It Better - R3hab Remix
p245
sg8
F0.30599089645397803
sg9
F0.7324290998766955
sg10
S'r_b'
p246
sg12
F0.03154231020230584
sg13
VRihanna
p247
sg15
I9999
sg16
F0.6776611694152924
sg17
Nsg18
Nsg19
Nsg20
F1e-07
sg21
F0.4503735325506938
sg22
Nsg23
Nsg24
F0.9219915339649264
ssg25
I01
sba(iSong
Song
p248
(dp249
g3
(dp250
g5
F0.08666707567929859
sg6
VSwalla (feat. Nicki Minaj & Ty Dolla $ign)
p251
sg8
F0.2790891002752868
sg9
F0.8224414303329223
sg10
S'r_b'
p252
sg12
F0.17772460300195778
sg13
VJason Derulo
p253
sg15
I9999
sg16
F0.6281859070464767
sg17
Nsg18
Nsg19
Nsg20
F1e-07
sg21
F0.7982924226254002
sg22
Nsg23
Nsg24
F0.9254686555130015
ssg25
I01
sba(iSong
Song
p254
(dp255
g3
(dp256
g5
F0.023115773340633822
sg6
VLove U Better (feat. Lil Wayne & The-Dream)
p257
sg8
F0.4139115266156068
sg9
F0.40320591861898886
sg10
S'r_b'
p258
sg12
F0.050032629976071344
sg13
VTy Dolla $ign
p259
sg15
I9999
sg16
F0.3073463268365817
sg17
Nsg18
Nsg19
Nsg20
F1e-07
sg21
F0.368196371398079
sg22
Nsg23
Nsg24
F0.6945676274944567
ssg25
I01
sba(iSong
Song
p260
(dp261
g3
(dp262
g5
F0.05321292927515631
sg6
VFeelins
p263
sg8
F0.6338889040311811
sg9
F0.779284833538841
sg10
S'r_b'
p264
sg12
F0.42571242114422453
sg13
VPnB Rock
p265
sg15
I9999
sg16
F0.5232383808095952
sg17
Nsg18
Nsg19
Nsg20
F1e-07
sg21
F0.6851654215581644
sg22
Nsg23
Nsg24
F0.9161963313848015
ssg25
I01
sba(iSong
Song
p266
(dp267
g3
(dp268
g5
F0.3170260768704515
sg6
VHabaesha
p269
sg8
F0.30829403908528435
sg9
F0.6781750924784217
sg10
S'r_b'
p270
sg12
F0.0885360017402654
sg13
VRamriddlz
p271
sg15
I9999
sg16
F0.45427286356821583
sg17
Nsg18
Nsg19
Nsg20
F8.307888040712469e-06
sg21
F0.5816435432230522
sg22
Nsg23
Nsg24
F0.7778169723845999
ssg25
I01
sba(iSong
Song
p272
(dp273
g3
(dp274
g5
F0.5497002439027213
sg6
VHeld Me Down
p275
sg8
F0.42848673989479136
sg9
F0.33662145499383483
sg10
S'r_b'
p276
sg12
F0.14291929519251684
sg13
VNAV
p277
sg15
I9999
sg16
F0.8200899550224887
sg17
Nsg18
Nsg19
Nsg20
F1e-07
sg21
F0.24226254002134473
sg22
Nsg23
Nsg24
F0.7062084257206208
ssg25
I01
sba(iSong
Song
p278
(dp279
g3
(dp280
g5
F0.2568317650014065
sg6
VDon't
p281
sg8
F0.2718457848401428
sg9
F0.25400739827373614
sg10
S'r_b'
p282
sg12
F0.36697846421579294
sg13
VBryson Tiller
p283
sg15
I9999
sg16
F0.7316341829085458
sg17
Nsg18
Nsg19
Nsg20
F1e-07
sg21
F0.1664887940234792
sg22
Nsg23
Nsg24
F0.8401028018544647
ssg25
I01
sba(iSong
Song
p284
(dp285
g3
(dp286
g5
F0.12602489497828953
sg6
VYou Da Baddest
p287
sg8
F0.6603954863855651
sg9
F0.7225647348951911
sg10
S'r_b'
p288
sg12
F0.26908853600174026
sg13
VFuture
p289
sg15
I9999
sg16
F0.7946026986506748
sg17
Nsg18
Nsg19
Nsg20
F0.009274809160305342
sg21
F0.5400213447171825
sg22
Nsg23
Nsg24
F0.7800342672848215
ssg25
I01
sba(iSong
Song
p290
(dp291
g3
(dp292
g5
F0.0035063186663718687
sg6
VWait
p293
sg8
F0.5985445228815176
sg9
F0.6350184956843404
sg10
S'r_b'
p294
sg12
F0.5257776810963672
sg13
VAugust Alsina
p295
sg15
I9999
sg16
F0.4377811094452773
sg17
Nsg18
Nsg19
Nsg20
F7.32824427480916e-06
sg21
F0.32977588046958384
sg22
Nsg23
Nsg24
F0.7360915138077
ssg25
I01
sba(iSong
Song
p296
(dp297
g3
(dp298
g5
F0.14801897046890214
sg6
Vrockstar
p299
sg8
F0.6996647496524845
sg9
F0.46979038224414305
sg10
S'r_b'
p300
sg12
F0.10941918642592995
sg13
VPost Malone
p301
sg15
I9999
sg16
F0.45427286356821583
sg17
Nsg18
Nsg19
Nsg20
F0.00016157760814249363
sg21
F0.11419423692636071
sg22
Nsg23
Nsg24
F0.7859302559967748
ssg25
I01
sba(iSong
Song
p302
(dp303
g3
(dp304
g5
F0.059000843877949086
sg6
VCome and See Me (feat. Drake)
p305
sg8
F0.18998201095696254
sg9
F0.24290998766954378
sg10
S'r_b'
p306
sg12
F0.07896454209266913
sg13
VPARTYNEXTDOOR
p307
sg15
I9999
sg16
F0.6596701649175413
sg17
Nsg18
Nsg19
Nsg20
F3.0916030534351146e-06
sg21
F0.026574172892209178
sg22
Nsg23
Nsg24
F0.6028018544648256
ssg25
I01
sba(iSong
Song
p308
(dp309
g3
(dp310
g5
F0.3135533281087758
sg6
VDon't Choose
p311
sg8
F0.5651557687590286
sg9
F0.22811344019728735
sg10
S'r_b'
p312
sg12
F0.6475962584294105
sg13
Vdvsn
p313
sg15
I9999
sg16
F0.48875562218890556
sg17
Nsg18
Nsg19
Nsg20
F0.011323155216284986
sg21
F0.176093916755603
sg22
Nsg23
Nsg24
F0.6254787341261843
ssg25
I01
sba(iSong
Song
p314
(dp315
g3
(dp316
g5
F0.35754147909000095
sg6
VEither Way
p317
sg8
F0.8238981711139579
sg9
F0.6276202219482121
sg10
S'r_b'
p318
sg12
F0.2777898629541005
sg13
VSnakehips
p319
sg15
I9999
sg16
F0.5367316341829086
sg17
Nsg18
Nsg19
Nsg20
F1e-07
sg21
F0.5400213447171825
sg22
Nsg23
Nsg24
F0.8721527917758517
ssg25
I01
sba(iSong
Song
p320
(dp321
g3
(dp322
g5
F0.1080823597096319
sg6
VSomething New (feat. Ty Dolla $ign)
p323
sg8
F0.20765760854752108
sg9
F0.5980271270036992
sg10
S'r_b'
p324
sg12
F0.11659778116162714
sg13
VWiz Khalifa
p325
sg15
I9999
sg16
F0.8050974512743628
sg17
Nsg18
Nsg19
Nsg20
F1e-07
sg21
F0.80042689434365
sg22
Nsg23
Nsg24
F0.7870389034468857
ssg25
I01
sba(iSong
Song
p326
(dp327
g3
(dp328
g5
F0.1012526204783364
sg6
VSky Walker
p329
sg8
F0.6054471367439833
sg9
F0.6991368680641183
sg10
S'r_b'
p330
sg12
F0.07939960844028712
sg13
VMiguel
p331
sg15
I9999
sg16
F0.527736131934033
sg17
Nsg18
Nsg19
Nsg20
F1e-07
sg21
F0.10138740661686234
sg22
Nsg23
Nsg24
F0.8325438419673453
ssg25
I01
sba(iSong
Song
p332
(dp333
g3
(dp334
g5
F0.1237097291371724
sg6
VNeeded Me
p335
sg8
F0.3664722396358582
sg9
F0.21578298397040693
sg10
S'r_b'
p336
sg12
F0.48662170981074615
sg13
VRihanna
p337
sg15
I9999
sg16
F0.616191904047976
sg17
Nsg18
Nsg19
Nsg20
F1e-07
sg21
F0.2572038420490929
sg22
Nsg23
Nsg24
F0.7127595242894578
ssg25
I01
sba(iSong
Song
p338
(dp339
g3
(dp340
g5
F0.1514917192305778
sg6
VStill Got Time
p341
sg8
F0.4351236065305677
sg9
F0.5881627620221949
sg10
S'r_b'
p342
sg12
F0.08070480748314117
sg13
VZAYN
p343
sg15
I9999
sg16
F0.7061469265367317
sg17
Nsg18
Nsg19
Nsg20
F1e-07
sg21
F0.5229455709711847
sg22
Nsg23
Nsg24
F0.8162668816770812
ssg25
I01
sba(iSong
Song
p344
(dp345
g3
(dp346
g5
F0.006469730943001775
sg6
Vdo re mi (feat. Gucci Mane)
p347
sg8
F0.37415846711548423
sg9
F0.6251541307028361
sg10
S'r_b'
p348
sg12
F0.07004568196649988
sg13
Vblackbear
p349
sg15
I9999
sg16
F0.6941529235382309
sg17
Nsg18
Nsg19
Nsg20
F1e-07
sg21
F0.15474919957310565
sg22
Nsg23
Nsg24
F0.8021568232211247
ssg25
I01
sba(iSong
Song
p350
(dp351
g3
(dp352
g5
F0.052981412691044595
sg6
VUnFazed (feat. The Weeknd)
p353
sg8
F0.4741066804764371
sg9
F0.686806411837238
sg10
S'r_b'
p354
sg12
F0.10289319121165977
sg13
VLil Uzi Vert
p355
sg15
I9999
sg16
F0.7511244377811095
sg17
Nsg18
Nsg19
Nsg20
F1e-07
sg21
F0.4525080042689435
sg22
Nsg23
Nsg24
F0.9383692803870188
ssg25
I01
sba(iSong
Song
p356
(dp357
g3
(dp358
g5
F0.11907939745493817
sg6
VPlot Twist
p359
sg8
F0.2724658617024176
sg9
F0.6128236744759556
sg10
S'r_b'
p360
sg12
F0.5649336523819882
sg13
VMarc E. Bassy
p361
sg15
I9999
sg16
F0.6146926536731635
sg17
Nsg18
Nsg19
Nsg20
F1e-07
sg21
F0.6616862326574173
sg22
Nsg23
Nsg24
F0.8185345696432171
ssg25
I01
sba(iSong
Song
p362
(dp363
g3
(dp364
g5
F0.09615925562787875
sg6
VI See You (feat. Chris Brown)
p365
sg8
F0.30040339066205124
sg9
F0.406905055487053
sg10
S'r_b'
p366
sg12
F0.2495105503589297
sg13
VKap G
p367
sg15
I9999
sg16
F0.6581709145427286
sg17
Nsg18
Nsg19
Nsg20
F1e-07
sg21
F0.4973319103521878
sg22
Nsg23
Nsg24
F0.7309010280185446
ssg25
I01
sba(iSong
Song
p368
(dp369
g3
(dp370
g5
F0.0349231191303311
sg6
VPRBLMS
p371
sg8
F0.31285262612772224
sg9
F0.5228113440197287
sg10
S'r_b'
p372
sg12
F0.1566238851424842
sg13
V6LACK
p373
sg15
I9999
sg16
F0.5922038980509746
sg17
Nsg18
Nsg19
Nsg20
F2.569974554707379e-06
sg21
F0.0768409818569904
sg22
Nsg23
Nsg24
F0.8851038097157831
ssg25
I01
sba(iSong
Song
p374
(dp375
g3
(dp376
g5
F0.5763246510755682
sg6
VTek Weh Yuh Heart
p377
sg8
F0.45862520101392795
sg9
F0.6177558569667078
sg10
S'r_b'
p378
sg12
F0.6149662823580596
sg13
VSean Paul
p379
sg15
I9999
sg16
F0.4017991004497752
sg17
Nsg18
Nsg19
Nsg20
F1e-07
sg21
F0.6691568836712914
sg22
Nsg23
Nsg24
F0.8324934489014311
ssg25
I01
sba(iSong
Song
p380
(dp381
g3
(dp382
g5
F0.286928920935929
sg6
VBad Intentions
p383
sg8
F0.455776935866336
sg9
F0.7028360049321825
sg10
S'r_b'
p384
sg12
F0.12877963889493146
sg13
VNiykee Heaton
p385
sg15
I9999
sg16
F0.6986506746626687
sg17
Nsg18
Nsg19
Nsg20
F1e-07
sg21
F0.42369263607257207
sg22
Nsg23
Nsg24
F0.8593025599677484
ssg25
I01
sba(iSong
Song
p386
(dp387
g3
(dp388
g5
F0.5369668317765772
sg6
VTrust Nobody
p389
sg8
F0.14591566954673058
sg9
F0.6165228113440198
sg10
S'r_b'
p390
sg12
F0.2843158581683707
sg13
VCashmere Cat
p391
sg15
I9999
sg16
F0.47976011994003
sg17
Nsg18
Nsg19
Nsg20
F1e-07
sg21
F0.7449306296691569
sg22
Nsg23
Nsg24
F0.756601491634751
ssg25
I01
sba(iSong
Song
p392
(dp393
g3
(dp394
g5
F0.06154752630317791
sg6
VI'm the One
p395
sg8
F0.16270544304832507
sg9
F0.6374845869297164
sg10
S'r_b'
p396
sg12
F0.020448118338046557
sg13
VDJ Khaled
p397
sg15
I9999
sg16
F0.48275862068965514
sg17
Nsg18
Nsg19
Nsg20
F1e-07
sg21
F0.8356456776947705
sg22
Nsg23
Nsg24
F0.9050594638177787
ssg25
I01
sba(iSong
Song
p398
(dp399
g3
(dp400
g5
F0.05379172073543558
sg6
VPerfect
p401
sg8
F0.44867671509171686
sg9
F0.5166461159062885
sg10
S'r_b'
p402
sg12
F0.07744180987600607
sg13
VDave East
p403
sg15
I9999
sg16
F0.727136431784108
sg17
Nsg18
Nsg19
Nsg20
F1e-07
sg21
F0.12166488794023479
sg22
Nsg23
Nsg24
F0.8501310219713767
ssg25
I01
sba(iSong
Song
p404
(dp405
g3
(dp406
g5
F0.3413353182021811
sg6
VCherry On Top (feat. Marc E. Bassy & TYSM)
p407
sg8
F0.29240371773556106
sg9
F0.32799013563501855
sg10
S'r_b'
p408
sg12
F0.12377637589732432
sg13
VFelix Snow
p409
sg15
I9999
sg16
F0.7211394302848576
sg17
Nsg18
Nsg19
Nsg20
F1e-07
sg21
F0.4514407684098186
sg22
Nsg23
Nsg24
F0.722132634549486
ssg25
I01
sba(iSong
Song
p410
(dp411
g3
(dp412
g5
F0.11792181453437962
sg6
VQuit (feat. Ariana Grande)
p413
sg8
F0.5080064869579438
sg9
F0.32429099876695444
sg10
S'r_b'
p414
sg12
F0.03763323906895801
sg13
VCashmere Cat
p415
sg15
I9999
sg16
F0.24437781109445278
sg17
Nsg18
Nsg19
Nsg20
F2.162849872773537e-05
sg21
F0.09498399146211313
sg22
Nsg23
Nsg24
F0.7459181616609554
ssg25
I01
sba(iSong
Song
p416
(dp417
g3
(dp418
g5
F0.12255214621661385
sg6
VDon't Hurt Me
p419
sg8
F0.9040856932595601
sg9
F0.39210850801479663
sg10
S'r_b'
p420
sg12
F0.9086360670002176
sg13
VDJ Mustard
p421
sg15
I9999
sg16
F0.3943028485757122
sg17
Nsg18
Nsg19
Nsg20
F1e-07
sg21
F0.528281750266809
sg22
Nsg23
Nsg24
F0.5894476919975812
ssg25
I01
sba(iSong
Song
p422
(dp423
g3
(dp424
g5
F0.06120025142701035
sg6
VShining
p425
sg8
F0.3740562566436807
sg9
F0.810110974106042
sg10
S'r_b'
p426
sg12
F0.1711986077876876
sg13
VDJ Khaled
p427
sg15
I9999
sg16
F0.7361319340329836
sg17
Nsg18
Nsg19
Nsg20
F3.8040712468193386e-06
sg21
F0.5773745997865528
sg22
Nsg23
Nsg24
F0.8425216690183431
ssg25
I01
sba(iSong
Song
p428
(dp429
g3
(dp430
g5
F0.13181280958108232
sg6
VBDY ON ME
p431
sg8
F0.2922742511379432
sg9
F0.4254007398273736
sg10
S'r_b'
p432
sg12
F0.02414618229279964
sg13
VOmarion
p433
sg15
I9999
sg16
F0.6776611694152924
sg17
Nsg18
Nsg19
Nsg20
F0.00012137404580152671
sg21
F0.43756670224119537
sg22
Nsg23
Nsg24
F0.6235134045555332
ssg25
I01
sba(iSong
Song
p434
(dp435
g3
(dp436
g5
F0.8715082958180002
sg6
VRegret In Your Tears
p437
sg8
F0.3341192182943116
sg9
F0.3982737361282367
sg10
S'r_b'
p438
sg12
F0.13247770284968458
sg13
VNicki Minaj
p439
sg15
I9999
sg16
F0.7301349325337332
sg17
Nsg18
Nsg19
Nsg20
F0.3893129770992366
sg21
F0.18996798292422626
sg22
Nsg23
Nsg24
F0.561529933481153
ssg25
I01
sba(iSong
Song
p440
(dp441
g3
(dp442
g5
F0.06606209969335629
sg6
VPlay
p443
sg8
F0.2783940690670228
sg9
F0.6091245376078915
sg10
S'r_b'
p444
sg12
F0.041331303023711116
sg13
VSoMo
p445
sg15
I9999
sg16
F0.6146926536731635
sg17
Nsg18
Nsg19
Nsg20
F1e-07
sg21
F0.43756670224119537
sg22
Nsg23
Nsg24
F0.794547470268091
ssg25
I01
sba(iSong
Song
p446
(dp447
g3
(dp448
g5
F0.10460961094795622
sg6
VDon't Do That
p449
sg8
F0.2785780479162692
sg9
F0.3181257706535142
sg10
S'r_b'
p450
sg12
F0.15705895149010224
sg13
VDerek King
p451
sg15
I9999
sg16
F0.8290854572713643
sg17
Nsg18
Nsg19
Nsg20
F1e-07
sg21
F0.5699039487726787
sg22
Nsg23
Nsg24
F0.6039105019149364
ssg25
I01
sba(iSong
Song
p452
(dp453
g3
(dp454
g5
F0.2556741820808479
sg6
VStrip That Down
p455
sg8
F0.3332197661424405
sg9
F0.4167694204685573
sg10
S'r_b'
p456
sg12
F0.057428757885577546
sg13
VLiam Payne
p457
sg15
I9999
sg16
F0.8890554722638682
sg17
Nsg18
Nsg19
Nsg20
F1e-07
sg21
F0.5176093916755603
sg22
Nsg23
Nsg24
F0.8385910098770408
ssg25
I01
sba(iSong
Song
p458
(dp459
g3
(dp460
g5
F0.34249290112273967
sg6
VHow I Feel
p461
sg8
F0.3743560740276377
sg9
F0.3896424167694206
sg10
S'r_b'
p462
sg12
F0.09658472917119859
sg13
VRoy Woods
p463
sg15
I9999
sg16
F0.7841079460269866
sg17
Nsg18
Nsg19
Nsg20
F0.0039185750636132315
sg21
F0.046744930629669154
sg22
Nsg23
Nsg24
F0.6709836726466437
ssg25
I01
sba(iSong
Song
p464
(dp465
g3
(dp466
g5
F0.0897925495648067
sg6
VI Fall Apart
p467
sg8
F0.5915260704843414
sg9
F0.48458692971639955
sg10
S'r_b'
p468
sg12
F0.027191646726125736
sg13
VPost Malone
p469
sg15
I9999
sg16
F0.4437781109445277
sg17
Nsg18
Nsg19
Nsg20
F1e-07
sg21
F0.29242262540021347
sg22
Nsg23
Nsg24
F0.8501310219713767
ssg25
I01
sba(iSong
Song
p470
(dp471
g3
(dp472
g5
F0.35869906201055946
sg6
VFallen (feat. Ty Dolla $ign & Cam Wallace)
p473
sg8
F0.30572514922728883
sg9
F0.26140567200986436
sg10
S'r_b'
p474
sg12
F0.04067870350228409
sg13
VSevyn Streeter
p475
sg15
I9999
sg16
F0.7856071964017992
sg17
Nsg18
Nsg19
Nsg20
F4.910941475826972e-05
sg21
F0.29135538954108864
sg22
Nsg23
Nsg24
F0.6584861922999395
ssg25
I01
sba(iSong
Song
p476
(dp477
g3
(dp478
g5
F0.08956103298069498
sg6
VFlirt Right Back
p479
sg8
F0.23822535364823239
sg9
F0.6757090012330456
sg10
S'r_b'
p480
sg12
F0.3517511420491625
sg13
Vblackbear
p481
sg15
I9999
sg16
F0.6446776611694153
sg17
Nsg18
Nsg19
Nsg20
F1e-07
sg21
F0.1792956243329776
sg22
Nsg23
Nsg24
F0.867667808909494
ssg25
I01
sba(iSong
Song
p482
(dp483
g3
(dp484
g5
F0.6179976362156763
sg6
VBody High
p485
sg8
F0.4895745318760392
sg9
F0.5289765721331688
sg10
S'r_b'
p486
sg12
F0.05177289536654339
sg13
VHarrison Brome
p487
sg15
I9999
sg16
F0.23088455772113942
sg17
Nsg18
Nsg19
Nsg20
F0.08765903307888041
sg21
F0.5133404482390609
sg22
Nsg23
Nsg24
F0.6930054424511187
ssg25
I01
sba(iSong
Song
p488
(dp489
g3
(dp490
g5
F0.03295522816538156
sg6
VEither Way (feat. Chris Brown)
p491
sg8
F0.5246872359562812
sg9
F0.32799013563501855
sg10
S'r_b'
p492
sg12
F0.20817924733521861
sg13
VK. Michelle
p493
sg15
I9999
sg16
F0.8305847076461769
sg17
Nsg18
Nsg19
Nsg20
F1e-07
sg21
F0.38527214514407687
sg22
Nsg23
Nsg24
F0.7552912719209836
ssg25
I01
sba(iSong
Song
p494
(dp495
g3
(dp496
g5
F0.38763863502452345
sg6
VSativa
p497
sg8
F0.46982746872359554
sg9
F0.5844636251541308
sg10
S'r_b'
p498
sg12
F0.04589949967370023
sg13
VJhene Aiko
p499
sg15
I9999
sg16
F0.6986506746626687
sg17
Nsg18
Nsg19
Nsg20
F1e-07
sg21
F0.7246531483457844
sg22
Nsg23
Nsg24
F0.7470268091110663
ssg25
I01
sba(iSong
Song
p500
(dp501
g3
(dp502
g5
F0.3633293936927937
sg6
VSpecial (Sifu Remix)
p503
sg8
F0.31957126114094137
sg9
F0.9371146732429101
sg10
S'r_b'
p504
sg12
F0.06613008483793778
sg13
VAzad
p505
sg15
I9999
sg16
F0.5637181409295353
sg17
Nsg18
Nsg19
Nsg20
F2.544529262086514e-06
sg21
F0.7801494130202775
sg22
Nsg23
Nsg24
F0.9229490022172949
ssg25
I01
sba(iSong
Song
p506
(dp507
g3
(dp508
g5
F0.03307098645743741
sg6
VWhatever You Need (feat. Chris Brown & Ty Dolla $ign)
p509
sg8
F0.7288015481479464
sg9
F0.5117139334155363
sg10
S'r_b'
p510
sg12
F0.3365238198825321
sg13
VMeek Mill
p511
sg15
I9999
sg16
F0.3568215892053973
sg17
Nsg18
Nsg19
Nsg20
F1e-07
sg21
F0.288153681963714
sg22
Nsg23
Nsg24
F0.7503527514613989
ssg25
I01
sba(iSong
Song
p512
(dp513
g3
(dp514
g5
F0.1700130459595147
sg6
VHello Ego
p515
sg8
F0.42754640355419876
sg9
F0.38594327990135646
sg10
S'r_b'
p516
sg12
F0.14248422884489884
sg13
VJhene Aiko
p517
sg15
I9999
sg16
F0.6221889055472264
sg17
Nsg18
Nsg19
Nsg20
F1e-07
sg21
F0.42475987193169695
sg22
Nsg23
Nsg24
F0.6410501914936504
ssg25
I01
sba(iSong
Song
p518
(dp519
g3
(dp520
g5
F0.3019774989031902
sg6
VWhat Are We Here For
p521
sg8
F0.4951279675106981
sg9
F0.8286066584463625
sg10
S'r_b'
p522
sg12
F0.12769197302588642
sg13
VTrey Songz
p523
sg15
I9999
sg16
F0.38380809595202403
sg17
Nsg18
Nsg19
Nsg20
F1.5776081424936386e-05
sg21
F0.3810032017075774
sg22
Nsg23
Nsg24
F0.8030638984075791
ssg25
I01
sba(iSong
Song
p524
(dp525
g3
(dp526
g5
F0.02890368794342661
sg6
VSummer Body
p527
sg8
F0.42137289105726505
sg9
F0.5536374845869297
sg10
S'r_b'
p528
sg12
F0.16032194909723732
sg13
VThe-Dream
p529
sg15
I9999
sg16
F0.7511244377811095
sg17
Nsg18
Nsg19
Nsg20
F1e-07
sg21
F0.5453575240128069
sg22
Nsg23
Nsg24
F0.9115097762547874
ssg25
I01
sba(iSong
Song
p530
(dp531
g3
(dp532
g5
F0.15264930215113637
sg6
VDon't Matter
p533
sg8
F0.48247431110142014
sg9
F0.467324290998767
sg10
S'r_b'
p534
sg12
F0.30389384381118123
sg13
VAugust Alsina
p535
sg15
I9999
sg16
F0.5862068965517242
sg17
Nsg18
Nsg19
Nsg20
F1e-07
sg21
F0.5453575240128069
sg22
Nsg23
Nsg24
F0.7268191896795001
ssg25
I01
sba(iSong
Song
p536
(dp537
g3
(dp538
g5
F0.24178318703414522
sg6
VNew Ting
p539
sg8
F0.29945624029000517
sg9
F0.5043156596794082
sg10
S'r_b'
p540
sg12
F0.026103980857080704
sg13
VMarc E. Bassy
p541
sg15
I9999
sg16
F0.8095952023988006
sg17
Nsg18
Nsg19
Nsg20
F1.946564885496183e-05
sg21
F0.6221985058697972
sg22
Nsg23
Nsg24
F0.7869381173150574
ssg25
I01
sba(iSong
Song
p542
(dp543
g3
(dp544
g5
F0.17695854348286605
sg6
VWhat Are You On?
p545
sg8
F0.42794161737850583
sg9
F0.5203452527743526
sg10
S'r_b'
p546
sg12
F0.10506852294974983
sg13
VRoy Woods
p547
sg15
I9999
sg16
F0.6596701649175413
sg17
Nsg18
Nsg19
Nsg20
F0.00028244274809160303
sg21
F0.17502668089647813
sg22
Nsg23
Nsg24
F0.6397903648457972
ssg25
I01
sba(iSong
Song
p548
(dp549
g3
(dp550
g5
F0.7800592450938743
sg6
VPlanez
p551
sg8
F0.49182997628717057
sg9
F0.5018495684340322
sg10
S'r_b'
p552
sg12
F0.6193169458342398
sg13
VJeremih
p553
sg15
I9999
sg16
F0.5592203898050975
sg17
Nsg18
Nsg19
Nsg20
F1e-07
sg21
F0.39060832443970117
sg22
Nsg23
Nsg24
F0.7289356984478935
ssg25
I01
sba(iSong
Song
p554
(dp555
g3
(dp556
g5
F0.27303792588922626
sg6
VSo Long
p557
sg8
F0.22434517157731199
sg9
F0.621454993834772
sg10
S'r_b'
p558
sg12
F0.038720904938003044
sg13
VMassari
p559
sg15
I9999
sg16
F0.6101949025487258
sg17
Nsg18
Nsg19
Nsg20
F7.2264631043257e-05
sg21
F0.4461045891141943
sg22
Nsg23
Nsg24
F0.9042531747631525
ssg25
I01
sba(iSong
Song
p560
(dp561
g3
(dp562
g5
F0.7106042698603607
sg6
VBad Girl (feat. Trey Songz & Robin Thicke)
p563
sg8
F0.3587383139360571
sg9
F0.5413070283600493
sg10
S'r_b'
p564
sg12
F0.662823580596041
sg13
VA Boogie Wit da Hoodie
p565
sg15
I9999
sg16
F0.6686656671664168
sg17
Nsg18
Nsg19
Nsg20
F1e-07
sg21
F0.47278548559231587
sg22
Nsg23
Nsg24
F0.8063898407579118
ssg25
I01
sba(iSong
Song
p566
(dp567
g3
(dp568
g5
F0.20937086525850562
sg6
VParty Monster
p569
sg8
F0.1388767750551936
sg9
F0.5696670776818742
sg10
S'r_b'
p570
sg12
F0.11594518164020014
sg13
VThe Weeknd
p571
sg15
I9999
sg16
F0.46176911544227883
sg17
Nsg18
Nsg19
Nsg20
F1.3104325699745547e-05
sg21
F0.16435432230522945
sg22
Nsg23
Nsg24
F0.6997581132836121
ssg25
I01
sba(iSong
Song
p572
(dp573
g3
(dp574
g5
F0.09835866317694
sg6
VNo I Love Yous
p575
sg8
F0.41481779279893155
sg9
F0.7990135635018496
sg10
S'r_b'
p576
sg12
F0.06112682184033064
sg13
VEra Istrefi
p577
sg15
I9999
sg16
F0.8170914542728636
sg17
Nsg18
Nsg19
Nsg20
F0.00010674300254452926
sg21
F0.9487726787620064
sg22
Nsg23
Nsg24
F0.8944769199758112
ssg25
I01
sba(iSong
Song
p578
(dp579
g3
(dp580
g5
F0.08585676763490761
sg6
VBack Up (feat. 24hrs)
p581
sg8
F0.29275804737114663
sg9
F0.40567200986436497
sg10
S'r_b'
p582
sg12
F0.0665651511855558
sg13
VTy Dolla $ign
p583
sg15
I9999
sg16
F0.87856071964018
sg17
Nsg18
Nsg19
Nsg20
F3.4223918575063614e-06
sg21
F0.12700106723585913
sg22
Nsg23
Nsg24
F0.7885003023583954
ssg25
I01
sba(iSong
Song
p584
(dp585
g3
(dp586
g5
F0.31818365979101
sg6
VTonight - High Klassified Remix
p587
sg8
F0.4415151680340156
sg9
F0.45745992601726265
sg10
S'r_b'
p588
sg12
F0.044594300630846205
sg13
VBlack Atlass
p589
sg15
I9999
sg16
F0.8815592203898052
sg17
Nsg18
Nsg19
Nsg20
F0.006450381679389313
sg21
F0.13020277481323372
sg22
Nsg23
Nsg24
F0.7873412618423705
ssg25
I01
sba(iSong
Song
p590
(dp591
g3
(dp592
g5
F0.010949576845563391
sg6
VMorning After
p593
sg8
F0.4284935539262449
sg9
F0.436498150431566
sg10
S'r_b'
p594
sg12
F0.023711115945181632
sg13
Vdvsn
p595
sg15
I9999
sg16
F0.5862068965517242
sg17
Nsg18
Nsg19
Nsg20
F7.519083969465649e-06
sg21
F0.128068303094984
sg22
Nsg23
Nsg24
F0.6568232211247732
ssg25
I01
sba(iSong
Song
p596
(dp597
g3
(dp598
g5
F0.3378625694405054
sg6
VBad Habit
p599
sg8
F0.8907233775791109
sg9
F0.4463625154130703
sg10
S'r_b'
p600
sg12
F0.9042854035240374
sg13
VKid Ink
p601
sg15
I9999
sg16
F0.45577211394302847
sg17
Nsg18
Nsg19
Nsg20
F3.9694656488549614e-05
sg21
F0.11099252934898614
sg22
Nsg23
Nsg24
F0.5891453336020963
ssg25
I01
sba(iSong
Song
p602
(dp603
g3
(dp604
g5
F0.7129194357014779
sg6
VThe Days
p605
sg8
F0.5095873422551718
sg9
F0.1368680641183724
sg10
S'r_b'
p606
sg12
F0.0931041983902545
sg13
Vanders
p607
sg15
I9999
sg16
F0.18740629685157423
sg17
Nsg18
Nsg19
Nsg20
F1e-07
sg21
F0.1814300960512273
sg22
Nsg23
Nsg24
F0.5202076194315662
ssg25
I01
sba(iSong
Song
p608
(dp609
g3
(dp610
g5
F0.43857228352909994
sg6
VToo Much Time (feat. Emerson Brooks)
p611
sg8
F0.8919022050205784
sg9
F0.5178791615289765
sg10
S'r_b'
p612
sg12
F0.9151620622144877
sg13
VS.L.M.N
p613
sg15
I9999
sg16
F0.19490254872563711
sg17
Nsg18
Nsg19
Nsg20
F5.076335877862595e-05
sg21
F0.5901814300960512
sg22
Nsg23
Nsg24
F0.6948195928240274
ssg25
I01
sba(iSong
Song
p614
(dp615
g3
(dp616
g5
F0.01860119995045545
sg6
VDown
p617
sg8
F0.947252582517921
sg9
F0.4463625154130703
sg10
S'r_b'
p618
sg12
F0.22993256471611923
sg13
VFifth Harmony
p619
sg15
I9999
sg16
F0.37931034482758624
sg17
Nsg18
Nsg19
Nsg20
F8.95674300254453e-05
sg21
F0.39167556029882605
sg22
Nsg23
Nsg24
F0.7625982664785325
ssg25
I01
sba(iSong
Song
p620
(dp621
g3
(dp622
g5
F0.2834561721742533
sg6
VI Sip
p623
sg8
F0.2930306086292894
sg9
F0.4907521578298398
sg10
S'r_b'
p624
sg12
F0.7346095279530128
sg13
VTory Lanez
p625
sg15
I9999
sg16
F0.5217391304347826
sg17
Nsg18
Nsg19
Nsg20
F1e-07
sg21
F0.5154749199573105
sg22
Nsg23
Nsg24
F0.5562386615601693
ssg25
I01
sba(iSong
Song
p626
(dp627
g3
(dp628
g5
F0.006134031896039793
sg6
VQuestions
p629
sg8
F0.3318228896944588
sg9
F0.5524044389642416
sg10
S'r_b'
p630
sg12
F0.06264955405699368
sg13
VChris Brown
p631
sg15
I9999
sg16
F0.5052473763118441
sg17
Nsg18
Nsg19
Nsg20
F1e-07
sg21
F0.5667022411953041
sg22
Nsg23
Nsg24
F0.8008466035073573
ssg25
I01
sba(iSong
Song
p632
(dp633
g3
(dp634
g5
F0.02682003868642121
sg6
VTip Toe (feat. French Montana)
p635
sg8
F0.2790754722123797
sg9
F0.689272503082614
sg10
S'r_b'
p636
sg12
F0.09593212964977159
sg13
VJason Derulo
p637
sg15
I9999
sg16
F0.8515742128935533
sg17
Nsg18
Nsg19
Nsg20
F1e-07
sg21
F0.6254002134471718
sg22
Nsg23
Nsg24
F0.8909494053618221
ssg25
I01
sba(iSong
Song
p638
(dp639
g3
(dp640
g5
F0.0897925495648067
sg6
VI Fall Apart
p641
sg8
F0.5915260704843414
sg9
F0.48458692971639955
sg10
S'r_b'
p642
sg12
F0.027191646726125736
sg13
VPost Malone
p643
sg15
I9999
sg16
F0.4437781109445277
sg17
Nsg18
Nsg19
Nsg20
F1e-07
sg21
F0.29242262540021347
sg22
Nsg23
Nsg24
F0.8501310219713767
ssg25
I01
sba(iSong
Song
p644
(dp645
g3
(dp646
g5
F0.11259693309981027
sg6
VNumber One
p647
sg8
F0.23834800621439664
sg9
F0.5906288532675709
sg10
S'r_b'
p648
sg12
F0.46486839242984557
sg13
VMassari
p649
sg15
I9999
sg16
F0.5667166416791605
sg17
Nsg18
Nsg19
Nsg20
F1e-07
sg21
F0.44183564567769484
sg22
Nsg23
Nsg24
F0.7870892965127998
ssg25
I01
sba(iSong
Song
p650
(dp651
g3
(dp652
g5
F0.03399705279388426
sg6
VDroptop in the Rain (feat. Tory Lanez)
p653
sg8
F0.5510779797759546
sg9
F0.531442663378545
sg10
S'r_b'
p654
sg12
F0.12073091146399825
sg13
VTy Dolla $ign
p655
sg15
I9999
sg16
F0.679160419790105
sg17
Nsg18
Nsg19
Nsg20
F1.6539440203562338e-05
sg21
F0.3468516542155816
sg22
Nsg23
Nsg24
F0.8261439225962506
ssg25
I01
sba(iSong
Song
p656
(dp657
g3
(dp658
g5
F0.008530228541596005
sg6
VReal Thing (feat. Future)
p659
sg8
F0.701490910082041
sg9
F0.4352651048088779
sg10
S'r_b'
p660
sg12
F0.7346095279530128
sg13
VTory Lanez
p661
sg15
I9999
sg16
F0.5862068965517242
sg17
Nsg18
Nsg19
Nsg20
F1e-07
sg21
F0.3191035218783352
sg22
Nsg23
Nsg24
F0.7070651078411611
ssg25
I01
sba(iSong
Song
p662
(dp663
g3
(dp664
g5
F0.03399705279388426
sg6
VOMG
p665
sg8
F0.5645220638338467
sg9
F0.5252774352651047
sg10
S'r_b'
p666
sg12
F0.057211224711768545
sg13
VCamila Cabello
p667
sg15
I9999
sg16
F0.5667166416791605
sg17
Nsg18
Nsg19
Nsg20
F0.14631043256997456
sg21
F0.14194236926360726
sg22
Nsg23
Nsg24
F0.7806893771417053
ssg25
I01
sba(iSong
Song
p668
(dp669
g3
(dp670
g5
F0.1012526204783364
sg6
VSky Walker
p671
sg8
F0.6054471367439833
sg9
F0.6991368680641183
sg10
S'r_b'
p672
sg12
F0.07939960844028712
sg13
VMiguel
p673
sg15
I9999
sg16
F0.527736131934033
sg17
Nsg18
Nsg19
Nsg20
F1e-07
sg21
F0.10138740661686234
sg22
Nsg23
Nsg24
F0.8325438419673453
ssg25
I01
sba(iSong
Song
p674
(dp675
g3
(dp676
g5
F0.11271269139186613
sg6
VDie For You
p677
sg8
F0.5205238627381505
sg9
F0.44512946979038226
sg10
S'r_b'
p678
sg12
F0.07439634544267999
sg13
VThe Weeknd
p679
sg15
I9999
sg16
F0.48275862068965514
sg17
Nsg18
Nsg19
Nsg20
F1e-07
sg21
F0.4994663820704376
sg22
Nsg23
Nsg24
F0.760481757710139
ssg25
I01
sba(iSong
Song
p680
(dp681
g3
(dp682
g5
F0.1376007241838751
sg6
VPills & Automobiles
p683
sg8
F0.5987830139823925
sg9
F0.6732429099876696
sg10
S'r_b'
p684
sg12
F0.3365238198825321
sg13
VChris Brown
p685
sg15
I9999
sg16
F0.8140929535232384
sg17
Nsg18
Nsg19
Nsg20
F1e-07
sg21
F0.6221985058697972
sg22
Nsg23
Nsg24
F0.8722535779076799
ssg25
I01
sba(iSong
Song
p686
(dp687
g3
(dp688
g5
F0.1572796338333706
sg6
VDamage
p689
sg8
F0.3822467224508708
sg9
F0.7422934648581998
sg10
S'r_b'
p690
sg12
F0.2669132042636502
sg13
VPARTYNEXTDOOR
p691
sg15
I9999
sg16
F0.7391304347826088
sg17
Nsg18
Nsg19
Nsg20
F1.1870229007633588e-05
sg21
F0.5795090715048025
sg22
Nsg23
Nsg24
F0.7941443257407781
ssg25
I01
sba(iSong
Song
p692
(dp693
g3
(dp694
g5
F0.297347167220956
sg6
VOne I Want (feat. PARTYNEXTDOOR)
p695
sg8
F0.5646242743056502
sg9
F0.0900123304562269
sg10
S'r_b'
p696
sg12
F0.6388949314770503
sg13
VMajid Jordan
p697
sg15
I9999
sg16
F0.9535232383808098
sg17
Nsg18
Nsg19
Nsg20
F0.00011170483460559797
sg21
F0.3372465314834578
sg22
Nsg23
Nsg24
F0.4941544043539609
ssg25
I01
sba(iSong
Song
p698
(dp699
g3
(dp700
g5
F0.24178318703414522
sg6
VNew Ting
p701
sg8
F0.29945624029000517
sg9
F0.5043156596794082
sg10
S'r_b'
p702
sg12
F0.026103980857080704
sg13
VMarc E. Bassy
p703
sg15
I9999
sg16
F0.8095952023988006
sg17
Nsg18
Nsg19
Nsg20
F1.946564885496183e-05
sg21
F0.6221985058697972
sg22
Nsg23
Nsg24
F0.7869381173150574
ssg25
I01
sba(iSong
Song
p704
(dp705
g3
(dp706
g5
F0.09859017976105172
sg6
VSigns
p707
sg8
F0.3424936629507482
sg9
F0.720098643649815
sg10
S'r_b'
p708
sg12
F0.05460082662606048
sg13
VDrake
p709
sg15
I9999
sg16
F0.7691154422788606
sg17
Nsg18
Nsg19
Nsg20
F0.005203562340966921
sg21
F0.2017075773745998
sg22
Nsg23
Nsg24
F0.8852549889135255
ssg25
I01
sba(iSong
Song
p710
(dp711
g3
(dp712
g5
F0.14686138754834357
sg6
VCome Closer
p713
sg8
F0.29210390035160405
sg9
F0.373612823674476
sg10
S'r_b'
p714
sg12
F0.4344137480965848
sg13
VWizKid
p715
sg15
I9999
sg16
F0.8215892053973013
sg17
Nsg18
Nsg19
Nsg20
F4.860050890585241e-06
sg21
F0.49306296691568835
sg22
Nsg23
Nsg24
F0.7457165893972989
ssg25
I01
sba(iSong
Song
p716
(dp717
g3
(dp718
g5
F0.226734609066884
sg6
VTimezones
p719
sg8
F0.7084412221646816
sg9
F0.6337854500616523
sg10
S'r_b'
p720
sg12
F0.12073091146399825
sg13
VManila Grey
p721
sg15
I9999
sg16
F0.48575712143928035
sg17
Nsg18
Nsg19
Nsg20
F0.10865139949109415
sg21
F0.4791889007470651
sg22
Nsg23
Nsg24
F0.7609856883692803
ssg25
I01
sba(iSong
Song
p722
(dp723
g3
(dp724
g5
F0.027051555270532917
sg6
VA Lie
p725
sg8
F0.4366635776390744
sg9
F0.7916152897657214
sg10
S'r_b'
p726
sg12
F0.4104850989775941
sg13
VFrench Montana
p727
sg15
I9999
sg16
F0.35832083958020994
sg17
Nsg18
Nsg19
Nsg20
F1e-07
sg21
F0.5229455709711847
sg22
Nsg23
Nsg24
F0.8489719814553518
ssg25
I01
sba(iSong
Song
p728
(dp729
g3
(dp730
g5
F0.5497002439027213
sg6
VHeld Me Down
p731
sg8
F0.42848673989479136
sg9
F0.33662145499383483
sg10
S'r_b'
p732
sg12
F0.14291929519251684
sg13
VNAV
p733
sg15
I9999
sg16
F0.8200899550224887
sg17
Nsg18
Nsg19
Nsg20
F1e-07
sg21
F0.24226254002134473
sg22
Nsg23
Nsg24
F0.7062084257206208
ssg25
I01
sba(iSong
Song
p734
(dp735
g3
(dp736
g5
F0.09268650686620308
sg6
VLove U Better (feat. Lil Wayne & The-Dream)
p737
sg8
F0.25862656382021865
sg9
F0.4821208384710235
sg10
S'r_b'
p738
sg12
F0.024363715466608656
sg13
VTy Dolla $ign
p739
sg15
I9999
sg16
F0.5517241379310346
sg17
Nsg18
Nsg19
Nsg20
F1e-07
sg21
F0.4023479188900747
sg22
Nsg23
Nsg24
F0.8020056440233823
ssg25
I01
sba(iSong
Song
p740
(dp741
g3
(dp742
g5
F0.03133461207659958
sg6
VOpen Up
p743
sg8
F0.3059227561394423
sg9
F0.37484586929716407
sg10
S'r_b'
p744
sg12
F0.09658472917119859
sg13
VOmarion
p745
sg15
I9999
sg16
F0.8095952023988006
sg17
Nsg18
Nsg19
Nsg20
F1e-07
sg21
F0.536819637139808
sg22
Nsg23
Nsg24
F0.6164583753275549
ssg25
I01
sba(iSong
Song
p746
(dp747
g3
(dp748
g5
F0.1989526189734786
sg6
VRow The Body (feat. French Montana)
p749
sg8
F0.2652498023930878
sg9
F0.6720098643649814
sg10
S'r_b'
p750
sg12
F0.07722427670219706
sg13
VTaio Cruz
p751
sg15
I9999
sg16
F0.6356821589205397
sg17
Nsg18
Nsg19
Nsg20
F1e-07
sg21
F0.6296691568836713
sg22
Nsg23
Nsg24
F0.8352146744607942
ssg25
I01
sba(iSong
Song
p752
(dp753
g3
(dp754
g5
F0.5520154097438384
sg6
VSay Less
p755
sg8
F0.24473956771784455
sg9
F0.13440197287299632
sg10
S'r_b'
p756
sg12
F0.16249728083532736
sg13
VRoy Woods
p757
sg15
I9999
sg16
F0.6251874062968515
sg17
Nsg18
Nsg19
Nsg20
F0.00022900763358778625
sg21
F0.2785485592315902
sg22
Nsg23
Nsg24
F0.44542430961499696
ssg25
I01
sba(iSong
Song
p758
(dp759
g3
(dp760
g5
F0.23020735782855967
sg6
VBody Talk
p761
sg8
F0.23762571888031833
sg9
F0.4401972872996301
sg10
S'r_b'
p762
sg12
F0.1046334566021318
sg13
VMajid Jordan
p763
sg15
I9999
sg16
F0.7676161919040481
sg17
Nsg18
Nsg19
Nsg20
F1e-07
sg21
F0.2049092849519744
sg22
Nsg23
Nsg24
F0.6707821003829872
ssg25
I01
sba(iSong
Song
p764
(dp765
g3
(dp766
g5
F0.006805429989963756
sg6
VEx Calling
p767
sg8
F0.6736487775627572
sg9
F0.4907521578298398
sg10
S'r_b'
p768
sg12
F0.3974331085490537
sg13
V6LACK
p769
sg15
I9999
sg16
F0.7526236881559222
sg17
Nsg18
Nsg19
Nsg20
F7.455470737913486e-05
sg21
F0.02262540021344717
sg22
Nsg23
Nsg24
F0.741130820399113
ssg25
I01
sba(iSong
Song
p770
(dp771
g3
(dp772
g5
F0.35754147909000095
sg6
VEither Way
p773
sg8
F0.8238981711139579
sg9
F0.6276202219482121
sg10
S'r_b'
p774
sg12
F0.2777898629541005
sg13
VSnakehips
p775
sg15
I9999
sg16
F0.5367316341829086
sg17
Nsg18
Nsg19
Nsg20
F1e-07
sg21
F0.5400213447171825
sg22
Nsg23
Nsg24
F0.8721527917758517
ssg25
I01
sba(iSong
Song
p776
(dp777
g3
(dp778
g5
F0.05356020415132387
sg6
VFeelins
p779
sg8
F0.6335005042383276
sg9
F0.779284833538841
sg10
S'r_b'
p780
sg12
F0.43006308462040466
sg13
VPnB Rock
p781
sg15
I9999
sg16
F0.5292353823088456
sg17
Nsg18
Nsg19
Nsg20
F1e-07
sg21
F0.6648879402347919
sg22
Nsg23
Nsg24
F0.9161963313848015
ssg25
I01
sba(iSong
Song
p782
(dp783
g3
(dp784
g5
F0.05656991974477612
sg6
Vup in this (with Tinashe)
p785
sg8
F0.4831216440895092
sg9
F0.6818742293464858
sg10
S'r_b'
p786
sg12
F0.0891886012616924
sg13
Vblackbear
p787
sg15
I9999
sg16
F0.6806596701649176
sg17
Nsg18
Nsg19
Nsg20
F1e-07
sg21
F0.5112059765208111
sg22
Nsg23
Nsg24
F0.8113787542834106
ssg25
I01
sba(iSong
Song
p788
(dp789
g3
(dp790
g5
F0.1080823597096319
sg6
VSomething New (feat. Ty Dolla $ign)
p791
sg8
F0.20765760854752108
sg9
F0.5980271270036992
sg10
S'r_b'
p792
sg12
F0.11659778116162714
sg13
VWiz Khalifa
p793
sg15
I9999
sg16
F0.8050974512743628
sg17
Nsg18
Nsg19
Nsg20
F1e-07
sg21
F0.80042689434365
sg22
Nsg23
Nsg24
F0.7870389034468857
ssg25
I01
sba(iSong
Song
p794
(dp795
g3
(dp796
g5
F0.05379172073543558
sg6
VPerfect
p797
sg8
F0.44867671509171686
sg9
F0.5166461159062885
sg10
S'r_b'
p798
sg12
F0.07744180987600607
sg13
VDave East
p799
sg15
I9999
sg16
F0.727136431784108
sg17
Nsg18
Nsg19
Nsg20
F1e-07
sg21
F0.12166488794023479
sg22
Nsg23
Nsg24
F0.8501310219713767
ssg25
I01
sba(iSong
Song
p800
(dp801
g3
(dp802
g5
F0.010949576845563391
sg6
VMorning After
p803
sg8
F0.4284935539262449
sg9
F0.436498150431566
sg10
S'r_b'
p804
sg12
F0.023711115945181632
sg13
Vdvsn
p805
sg15
I9999
sg16
F0.5862068965517242
sg17
Nsg18
Nsg19
Nsg20
F7.519083969465649e-06
sg21
F0.128068303094984
sg22
Nsg23
Nsg24
F0.6568232211247732
ssg25
I01
sba(iSong
Song
p806
(dp807
g3
(dp808
g5
F0.052981412691044595
sg6
VUnFazed (feat. The Weeknd)
p809
sg8
F0.4741066804764371
sg9
F0.686806411837238
sg10
S'r_b'
p810
sg12
F0.10289319121165977
sg13
VLil Uzi Vert
p811
sg15
I9999
sg16
F0.7511244377811095
sg17
Nsg18
Nsg19
Nsg20
F1e-07
sg21
F0.4525080042689435
sg22
Nsg23
Nsg24
F0.9383692803870188
ssg25
I01
sba(iSong
Song
p812
(dp813
g3
(dp814
g5
F0.02276849846446626
sg6
VDeserve (feat. Travis Scott)
p815
sg8
F0.5239581345907494
sg9
F0.6744759556103576
sg10
S'r_b'
p816
sg12
F0.01044159234283227
sg13
VKris Wu
p817
sg15
I9999
sg16
F0.5997001499250376
sg17
Nsg18
Nsg19
Nsg20
F1e-07
sg21
F0.6147278548559232
sg22
Nsg23
Nsg24
F0.8363737149768192
ssg25
I01
sba(iSong
Song
p818
(dp819
g3
(dp820
g5
F0.05738022778916711
sg6
VFinders Keepers
p821
sg8
F0.34682738695521814
sg9
F0.5240443896424167
sg10
S'r_b'
p822
sg12
F0.14748749184250598
sg13
VMabel
p823
sg15
I9999
sg16
F0.8395802098950524
sg17
Nsg18
Nsg19
Nsg20
F2.6590330788804067e-06
sg21
F0.6552828175026681
sg22
Nsg23
Nsg24
F0.7842168917556944
ssg25
I01
sba(iSong
Song
p824
(dp825
g3
(dp826
g5
F0.38763863502452345
sg6
VSativa
p827
sg8
F0.46982746872359554
sg9
F0.5844636251541308
sg10
S'r_b'
p828
sg12
F0.04589949967370023
sg13
VJhene Aiko
p829
sg15
I9999
sg16
F0.6986506746626687
sg17
Nsg18
Nsg19
Nsg20
F1e-07
sg21
F0.7246531483457844
sg22
Nsg23
Nsg24
F0.7470268091110663
ssg25
I01
sba(iSong
Song
p830
(dp831
g3
(dp832
g5
F0.12602489497828953
sg6
VYou Da Baddest
p833
sg8
F0.6603954863855651
sg9
F0.7225647348951911
sg10
S'r_b'
p834
sg12
F0.26908853600174026
sg13
VFuture
p835
sg15
I9999
sg16
F0.7946026986506748
sg17
Nsg18
Nsg19
Nsg20
F0.009274809160305342
sg21
F0.5400213447171825
sg22
Nsg23
Nsg24
F0.7800342672848215
ssg25
I01
sba(iSong
Song
p836
(dp837
g3
(dp838
g5
F0.01709634215372933
sg6
VBalance (feat. dvsn & PnB Rock)
p839
sg8
F0.4424418763117011
sg9
F0.36744759556103584
sg10
S'r_b'
p840
sg12
F0.08831846856645638
sg13
VRoy Woods
p841
sg15
I9999
sg16
F0.9430284857571215
sg17
Nsg18
Nsg19
Nsg20
F0.1044529262086514
sg21
F0.6851654215581644
sg22
Nsg23
Nsg24
F0.5684337835113888
ssg25
I01
sba(iSong
Song
p842
(dp843
g3
(dp844
g5
F0.3378625694405054
sg6
VBad Habit
p845
sg8
F0.8907233775791109
sg9
F0.4463625154130703
sg10
S'r_b'
p846
sg12
F0.9042854035240374
sg13
VKid Ink
p847
sg15
I9999
sg16
F0.45577211394302847
sg17
Nsg18
Nsg19
Nsg20
F3.9694656488549614e-05
sg21
F0.11099252934898614
sg22
Nsg23
Nsg24
F0.5891453336020963
ssg25
I01
sba(iSong
Song
p848
(dp849
g3
(dp850
g5
F0.2186315286229741
sg6
VShadows
p851
sg8
F0.12208700155359914
sg9
F0.7990135635018496
sg10
S'r_b'
p852
sg12
F0.05895149010224058
sg13
VXuitcasecity
p853
sg15
I9999
sg16
F0.3973013493253374
sg17
Nsg18
Nsg19
Nsg20
F1e-07
sg21
F0.2433297758804696
sg22
Nsg23
Nsg24
F0.9201773835920177
ssg25
I01
sba(iSong
Song
p854
(dp855
g3
(dp856
g5
F0.10541991899234722
sg6
VNever Enough (feat. Trey Songz)
p857
sg8
F0.27943661587941887
sg9
F0.31319358816276205
sg10
S'r_b'
p858
sg12
F0.34304981509680227
sg13
VMIKExANGEL
p859
sg15
I9999
sg16
F0.719640179910045
sg17
Nsg18
Nsg19
Nsg20
F1e-07
sg21
F0.37246531483457845
sg22
Nsg23
Nsg24
F0.5774541423100181
ssg25
I01
sba(iSong
Song
p860
(dp861
g3
(dp862
g5
F0.12834006081940663
sg6
VLove Galore
p863
sg8
F0.5307857941072257
sg9
F0.5474722564734895
sg10
S'r_b'
p864
sg12
F0.10311072438546878
sg13
VSZA
p865
sg15
I9999
sg16
F0.7766116941529236
sg17
Nsg18
Nsg19
Nsg20
F1e-07
sg21
F0.400213447171825
sg22
Nsg23
Nsg24
F0.8076496674057649
ssg25
I01
sba(iSong
Song
p866
(dp867
g3
(dp868
g5
F0.3529111474077667
sg6
VBoomerang
p869
sg8
F0.27848265147591916
sg9
F0.6596794081381012
sg10
S'r_b'
p870
sg12
F0.18642592995431803
sg13
VJidenna
p871
sg15
I9999
sg16
F0.9325337331334334
sg17
Nsg18
Nsg19
Nsg20
F0.0001768447837150127
sg21
F0.6435432230522946
sg22
Nsg23
Nsg24
F0.864241080427333
ssg25
I01
sba(iSong
Song
p872
(dp873
g3
(dp874
g5
F0.21515877986129842
sg6
VWhen We
p875
sg8
F0.41378206001798906
sg9
F0.21578298397040693
sg10
S'r_b'
p876
sg12
F0.11333478355449204
sg13
VTank
p877
sg15
I9999
sg16
F0.5022488755622189
sg17
Nsg18
Nsg19
Nsg20
F1.3486005089058524e-05
sg21
F0.030736392742796152
sg22
Nsg23
Nsg24
F0.6415037290868776
ssg25
I01
sba(iSong
Song
p878
(dp879
g3
(dp880
g5
F0.5960035607250637
sg6
VLosin Control
p881
sg8
F0.27178445855706074
sg9
F0.11713933415536376
sg10
S'r_b'
p882
sg12
F0.24080922340656952
sg13
VRuss
p883
sg15
I9999
sg16
F0.7226386806596702
sg17
Nsg18
Nsg19
Nsg20
F0.00019592875318066158
sg21
F0.18676627534685164
sg22
Nsg23
Nsg24
F0.79026405966539
ssg25
I01
sba(iSong
Song
p884
(dp885
g3
(dp886
g5
F0.10912418433813459
sg6
VI'm Sorry (feat. Sage The Gemini)
p887
sg8
F0.4014622911499359
sg9
F0.6633785450061652
sg10
S'r_b'
p888
sg12
F0.04002610398085707
sg13
V99 Percent
p889
sg15
I9999
sg16
F0.8305847076461769
sg17
Nsg18
Nsg19
Nsg20
F1e-07
sg21
F0.9018143009605123
sg22
Nsg23
Nsg24
F0.8207014714775247
ssg25
I01
sba(iSong
Song
p890
(dp891
g3
(dp892
g5
F0.14801897046890214
sg6
Vrockstar
p893
sg8
F0.6996647496524845
sg9
F0.46979038224414305
sg10
S'r_b'
p894
sg12
F0.10941918642592995
sg13
VPost Malone
p895
sg15
I9999
sg16
F0.45427286356821583
sg17
Nsg18
Nsg19
Nsg20
F0.00016157760814249363
sg21
F0.11419423692636071
sg22
Nsg23
Nsg24
F0.7859302559967748
ssg25
I01
sba(iSong
Song
p896
(dp897
g3
(dp898
g5
F0.12602489497828953
sg6
V20 Min
p899
sg8
F0.4519065660007086
sg9
F0.7398273736128237
sg10
S'r_b'
p900
sg12
F0.1951272569066783
sg13
VLil Uzi Vert
p901
sg15
I9999
sg16
F0.7436281859070466
sg17
Nsg18
Nsg19
Nsg20
F1e-07
sg21
F0.7993596584845252
sg22
Nsg23
Nsg24
F0.9180608748236242
ssg25
I01
sba(iSong
Song
p902
(dp903
g3
(dp904
g5
F0.28461375509481185
sg6
VAlready Won
p905
sg8
F0.42713756166698463
sg9
F0.7940813810110975
sg10
S'r_b'
p906
sg12
F0.5236023493582772
sg13
VKehlani
p907
sg15
I9999
sg16
F0.35082458770614694
sg17
Nsg18
Nsg19
Nsg20
F1e-07
sg21
F0.6307363927427961
sg22
Nsg23
Nsg24
F0.9258718000403144
ssg25
I01
sba(iSong
Song
p908
(dp909
g3
(dp910
g5
F0.04453105737096713
sg6
VInstances
p911
sg8
F0.2922401809806754
sg9
F0.5154130702836004
sg10
S'r_b'
p912
sg12
F0.03567544050467697
sg13
VLais
p913
sg15
I9999
sg16
F0.7301349325337332
sg17
Nsg18
Nsg19
Nsg20
F0.0022646310432569974
sg21
F0.3639274279615795
sg22
Nsg23
Nsg24
F0.8388429752066116
ssg25
I01
sba(iSong
Song
p914
(dp915
g3
(dp916
g5
F0.04418378249479956
sg6
VSky Ferreira
p917
sg8
F0.15593229578347728
sg9
F0.3785450061652282
sg10
S'r_b'
p918
sg12
F0.030672177507069825
sg13
VDCF
p919
sg15
I9999
sg16
F0.5487256371814093
sg17
Nsg18
Nsg19
Nsg20
F8.307888040712469e-06
sg21
F0.2700106723585913
sg22
Nsg23
Nsg24
F0.6364140294295504
ssg25
I01
sba(iSong
Song
p920
(dp921
g3
(dp922
g5
F0.02994551257192931
sg6
VPineapple Skies
p923
sg8
F0.29237646160974673
sg9
F0.5388409371146732
sg10
S'r_b'
p924
sg12
F0.03611050685229498
sg13
VMiguel
p925
sg15
I9999
sg16
F0.5652173913043479
sg17
Nsg18
Nsg19
Nsg20
F1e-07
sg21
F0.27107790821771616
sg22
Nsg23
Nsg24
F0.801048175771014
ssg25
I01
sba(iSong
Song
p926
(dp927
g3
(dp928
g5
F0.11271269139186613
sg6
VDie For You
p929
sg8
F0.5205238627381505
sg9
F0.44512946979038226
sg10
S'r_b'
p930
sg12
F0.07439634544267999
sg13
VThe Weeknd
p931
sg15
I9999
sg16
F0.48275862068965514
sg17
Nsg18
Nsg19
Nsg20
F1e-07
sg21
F0.4994663820704376
sg22
Nsg23
Nsg24
F0.760481757710139
ssg25
I01
sba(iSong
Song
p932
(dp933
g3
(dp934
g5
F0.006134031896039793
sg6
VQuestions
p935
sg8
F0.3318228896944588
sg9
F0.5524044389642416
sg10
S'r_b'
p936
sg12
F0.06264955405699368
sg13
VChris Brown
p937
sg15
I9999
sg16
F0.5052473763118441
sg17
Nsg18
Nsg19
Nsg20
F1e-07
sg21
F0.5667022411953041
sg22
Nsg23
Nsg24
F0.8008466035073573
ssg25
I01
sba(iSong
Song
p938
(dp939
g3
(dp940
g5
F0.023115773340633822
sg6
VLove U Better (feat. Lil Wayne & The-Dream)
p941
sg8
F0.4139115266156068
sg9
F0.40320591861898886
sg10
S'r_b'
p942
sg12
F0.050032629976071344
sg13
VTy Dolla $ign
p943
sg15
I9999
sg16
F0.3073463268365817
sg17
Nsg18
Nsg19
Nsg20
F1e-07
sg21
F0.368196371398079
sg22
Nsg23
Nsg24
F0.6945676274944567
ssg25
I01
sba(iSong
Song
p944
(dp945
g3
(dp946
g5
F0.38763863502452345
sg6
VSativa
p947
sg8
F0.46982746872359554
sg9
F0.5844636251541308
sg10
S'r_b'
p948
sg12
F0.04589949967370023
sg13
VJhene Aiko
p949
sg15
I9999
sg16
F0.6986506746626687
sg17
Nsg18
Nsg19
Nsg20
F1e-07
sg21
F0.7246531483457844
sg22
Nsg23
Nsg24
F0.7470268091110663
ssg25
I01
sba(iSong
Song
p950
(dp951
g3
(dp952
g5
F0.18274645808565884
sg6
VCome Through and Chill
p953
sg8
F0.16709367930442365
sg9
F0.6202219482120839
sg10
S'r_b'
p954
sg12
F0.6519469219055907
sg13
VMiguel
p955
sg15
I9999
sg16
F0.2758620689655173
sg17
Nsg18
Nsg19
Nsg20
F1e-07
sg21
F0.5912486659551761
sg22
Nsg23
Nsg24
F0.6858496270913121
ssg25
I01
sba(iSong
Song
p956
(dp957
g3
(dp958
g5
F0.1012526204783364
sg6
VSky Walker
p959
sg8
F0.6054471367439833
sg9
F0.6991368680641183
sg10
S'r_b'
p960
sg12
F0.07939960844028712
sg13
VMiguel
p961
sg15
I9999
sg16
F0.527736131934033
sg17
Nsg18
Nsg19
Nsg20
F1e-07
sg21
F0.10138740661686234
sg22
Nsg23
Nsg24
F0.8325438419673453
ssg25
I01
sba(iSong
Song
p962
(dp963
g3
(dp964
g5
F0.4547784444169197
sg6
VRun Me Dry
p965
sg8
F0.931989152061926
sg9
F0.7472256473489519
sg10
S'r_b'
p966
sg12
F1.0
sg13
VBryson Tiller
p967
sg15
I9999
sg16
F0.5532233883058472
sg17
Nsg18
Nsg19
Nsg20
F4.10941475826972e-05
sg21
F0.5997865528281751
sg22
Nsg23
Nsg24
F0.6656924007256602
ssg25
I01
sba(iSong
Song
p968
(dp969
g3
(dp970
g5
F0.378377971660055
sg6
VFor You
p971
sg8
F0.3396862819918776
sg9
F0.3884093711467325
sg10
S'r_b'
p972
sg12
F0.08505547095932128
sg13
VSoMo
p973
sg15
I9999
sg16
F0.8425787106446777
sg17
Nsg18
Nsg19
Nsg20
F1e-07
sg21
F0.5805763073639274
sg22
Nsg23
Nsg24
F0.777514613989115
ssg25
I01
sba(iSong
Song
p974
(dp975
g3
(dp976
g5
F0.27882584049201903
sg6
VThe Weekend
p977
sg8
F0.07553353866281447
sg9
F0.26633785450061653
sg10
S'r_b'
p978
sg12
F0.05612355884272351
sg13
VSZA
p979
sg15
I9999
sg16
F0.31484257871064464
sg17
Nsg18
Nsg19
Nsg20
F1e-07
sg21
F0.13553895410885808
sg22
Nsg23
Nsg24
F0.6461398911509776
ssg25
I01
sba(iSong
Song
p980
(dp981
g3
(dp982
g5
F0.9351753564487209
sg6
VBest Part (feat. H.E.R.)
p983
sg8
F0.12356564637902363
sg9
F0.2638717632552405
sg10
S'r_b'
p984
sg12
F0.020448118338046557
sg13
VDaniel Caesar
p985
sg15
I9999
sg16
F0.37031484257871067
sg17
Nsg18
Nsg19
Nsg20
F1e-07
sg21
F0.4290288153681964
sg22
Nsg23
Nsg24
F0.6056238661560169
ssg25
I01
sba(iSong
Song
p986
(dp987
g3
(dp988
g5
F0.09372833149470579
sg6
VSong Goes Off
p989
sg8
F0.4957889285616944
sg9
F0.3847102342786684
sg10
S'r_b'
p990
sg12
F0.07722427670219706
sg13
VTrey Songz
p991
sg15
I9999
sg16
F0.6011994002998502
sg17
Nsg18
Nsg19
Nsg20
F1e-07
sg21
F0.09284951974386339
sg22
Nsg23
Nsg24
F0.7249042531747631
ssg25
I01
sba(iSong
Song
p992
(dp993
g3
(dp994
g5
F0.16538271427728046
sg6
VWhile We're Young
p995
sg8
F0.4836667666057946
sg9
F0.781750924784217
sg10
S'r_b'
p996
sg12
F0.4344137480965848
sg13
VJhene Aiko
p997
sg15
I9999
sg16
F0.5187406296851574
sg17
Nsg18
Nsg19
Nsg20
F1.6666666666666665e-06
sg21
F0.83991462113127
sg22
Nsg23
Nsg24
F0.8140495867768595
ssg25
I01
sba(iSong
Song
p998
(dp999
g3
(dp1000
g5
F0.11248117480775441
sg6
VBanana Clip
p1001
sg8
F0.1899206846738804
sg9
F0.688039457459926
sg10
S'r_b'
p1002
sg12
F0.1046334566021318
sg13
VMiguel
p1003
sg15
I9999
sg16
F0.5412293853073463
sg17
Nsg18
Nsg19
Nsg20
F1e-07
sg21
F0.6104589114194237
sg22
Nsg23
Nsg24
F0.8508869179600888
ssg25
I01
sba(iSong
Song
p1004
(dp1005
g3
(dp1006
g5
F0.36795972537502797
sg6
VMood
p1007
sg8
F0.0800239853907165
sg9
F0.36498150431565973
sg10
S'r_b'
p1008
sg12
F0.41918642592995436
sg13
Vdvsn
p1009
sg15
I9999
sg16
F0.5172413793103449
sg17
Nsg18
Nsg19
Nsg20
F0.017175572519083967
sg21
F0.14300960512273214
sg22
Nsg23
Nsg24
F0.6339447691997581
ssg25
I01
sba(iSong
Song
p1010
(dp1011
g3
(dp1012
g5
F0.3448080669638568
sg6
V2
p1013
sg8
F0.6329690097849492
sg9
F0.35511713933415545
sg10
S'r_b'
p1014
sg12
F0.28214052643028065
sg13
VH.E.R.
p1015
sg15
I9999
sg16
F0.7781109445277362
sg17
Nsg18
Nsg19
Nsg20
F0.017175572519083967
sg21
F0.4354322305229456
sg22
Nsg23
Nsg24
F0.7484882080225761
ssg25
I01
sba(iSong
Song
p1016
(dp1017
g3
(dp1018
g5
F0.21515877986129842
sg6
VWhen We
p1019
sg8
F0.41378206001798906
sg9
F0.21578298397040693
sg10
S'r_b'
p1020
sg12
F0.11333478355449204
sg13
VTank
p1021
sg15
I9999
sg16
F0.5022488755622189
sg17
Nsg18
Nsg19
Nsg20
F1.3486005089058524e-05
sg21
F0.030736392742796152
sg22
Nsg23
Nsg24
F0.6415037290868776
ssg25
I01
sba(iSong
Song
p1022
(dp1023
g3
(dp1024
g5
F0.1642251313567219
sg6
VAnointed
p1025
sg8
F0.5049197307094769
sg9
F0.5055487053020963
sg10
S'r_b'
p1026
sg12
F0.030889710680878837
sg13
VMiguel
p1027
sg15
I9999
sg16
F0.41529235382308854
sg17
Nsg18
Nsg19
Nsg20
F1e-07
sg21
F0.04759871931696905
sg22
Nsg23
Nsg24
F0.8769905261036081
ssg25
I01
sba(iSong
Song
p1028
(dp1029
g3
(dp1030
g5
F0.01327631851588609
sg6
VEx (feat. YG)
p1031
sg8
F0.30629071383793505
sg9
F0.34032059186189895
sg10
S'r_b'
p1032
sg12
F0.04350663476180117
sg13
VTy Dolla $ign
p1033
sg15
I9999
sg16
F0.7391304347826088
sg17
Nsg18
Nsg19
Nsg20
F1e-07
sg21
F0.5218783351120598
sg22
Nsg23
Nsg24
F0.8319895182422898
ssg25
I01
sba(iSong
Song
p1034
(dp1035
g3
(dp1036
g5
F0.621470384977352
sg6
VInsecure
p1037
sg8
F0.21607293739267902
sg9
F0.44512946979038226
sg10
S'r_b'
p1038
sg12
F0.6454209266913205
sg13
VJazmine Sullivan
p1039
sg15
I9999
sg16
F0.3523238380809595
sg17
Nsg18
Nsg19
Nsg20
F1e-07
sg21
F0.6584845250800427
sg22
Nsg23
Nsg24
F0.8977524692602298
ssg25
I01
sba(iSong
Song
p1040
(dp1041
g3
(dp1042
g5
F0.14338863878666788
sg6
VAt The Club
p1043
sg8
F0.23796642045299676
sg9
F0.6387176325524045
sg10
S'r_b'
p1044
sg12
F0.14291929519251684
sg13
VJacquees
p1045
sg15
I9999
sg16
F0.7766116941529236
sg17
Nsg18
Nsg19
Nsg20
F1e-07
sg21
F0.3607257203842049
sg22
Nsg23
Nsg24
F0.7528220116911912
ssg25
I01
sba(iSong
Song
p1046
(dp1047
g3
(dp1048
g5
F0.12834006081940663
sg6
VLove Galore
p1049
sg8
F0.5307857941072257
sg9
F0.5474722564734895
sg10
S'r_b'
p1050
sg12
F0.10311072438546878
sg13
VSZA
p1051
sg15
I9999
sg16
F0.7766116941529236
sg17
Nsg18
Nsg19
Nsg20
F1e-07
sg21
F0.400213447171825
sg22
Nsg23
Nsg24
F0.8076496674057649
ssg25
I01
sba(iSong
Song
p1052
(dp1053
g3
(dp1054
g5
F0.14917655338946068
sg6
VEverybody Knows
p1055
sg8
F0.516830657690316
sg9
F0.5906288532675709
sg10
S'r_b'
p1056
sg12
F0.09179899934740048
sg13
VChris Brown
p1057
sg15
I9999
sg16
F0.5667166416791605
sg17
Nsg18
Nsg19
Nsg20
F1e-07
sg21
F0.15795090715048027
sg22
Nsg23
Nsg24
F0.7802862326143922
ssg25
I01
sba(iSong
Song
p1058
(dp1059
g3
(dp1060
g5
F0.38763863502452345
sg6
VIncapable
p1061
sg8
F0.8378056093106926
sg9
F0.4352651048088779
sg10
S'r_b'
p1062
sg12
F0.037415705895149004
sg13
VKeyshia Cole
p1063
sg15
I9999
sg16
F0.2953523238380809
sg17
Nsg18
Nsg19
Nsg20
F1e-07
sg21
F0.42369263607257207
sg22
Nsg23
Nsg24
F0.8535577504535377
ssg25
I01
sba(iSong
Song
p1064
(dp1065
g3
(dp1066
g5
F0.226734609066884
sg6
VVersace On The Floor
p1067
sg8
F0.7975551255144593
sg9
F0.5228113440197287
sg10
S'r_b'
p1068
sg12
F0.03937350445943007
sg13
VBruno Mars
p1069
sg15
I9999
sg16
F0.4512743628185907
sg17
Nsg18
Nsg19
Nsg20
F1e-07
sg21
F0.2849519743863394
sg22
Nsg23
Nsg24
F0.8071961298125377
ssg25
I01
sba(iSong
Song
p1070
(dp1071
g3
(dp1072
g5
F0.4223661226412801
sg6
VLoved By You
p1073
sg8
F0.08032380277467363
sg9
F0.408138101109741
sg10
S'r_b'
p1074
sg12
F0.2190559060256689
sg13
VMali Music
p1075
sg15
I9999
sg16
F0.04497751124437777
sg17
Nsg18
Nsg19
Nsg20
F1e-07
sg21
F0.3148345784418357
sg22
Nsg23
Nsg24
F0.694668413626285
ssg25
I01
sba(iSong
Song
p1076
(dp1077
g3
(dp1078
g5
F0.4999241783187034
sg6
VBlind
p1079
sg8
F0.2106762244814522
sg9
F0.43773119605425403
sg10
S'r_b'
p1080
sg12
F0.07287361322601697
sg13
VTamar Braxton
p1081
sg15
I9999
sg16
F0.15292353823088453
sg17
Nsg18
Nsg19
Nsg20
F1e-07
sg21
F0.35538954108858056
sg22
Nsg23
Nsg24
F0.8437814956661963
ssg25
I01
sba(iSong
Song
p1082
(dp1083
g3
(dp1084
g5
F0.3019774989031902
sg6
VTemperature
p1085
sg8
F0.32609228924200717
sg9
F0.5092478421701603
sg10
S'r_b'
p1086
sg12
F0.3952577768109637
sg13
VDevvon Terrell
p1087
sg15
I9999
sg16
F0.535232383808096
sg17
Nsg18
Nsg19
Nsg20
F1e-07
sg21
F0.5592315901814302
sg22
Nsg23
Nsg24
F0.7709635154202781
ssg25
I01
sba(iSong
Song
p1088
(dp1089
g3
(dp1090
g5
F0.024389114553248235
sg6
VDrip
p1091
sg8
F0.10823407560849296
sg9
F0.3267570900123305
sg10
S'r_b'
p1092
sg12
F0.030889710680878837
sg13
VLuke James
p1093
sg15
I9999
sg16
F0.5112443778110944
sg17
Nsg18
Nsg19
Nsg20
F6.335877862595419e-06
sg21
F0.42155816435432236
sg22
Nsg23
Nsg24
F0.8554726869582745
ssg25
I01
sba(iSong
Song
p1094
(dp1095
g3
(dp1096
g5
F0.5242334196504331
sg6
VBlind Man
p1097
sg8
F0.3674466461337186
sg9
F0.45992601726263876
sg10
S'r_b'
p1098
sg12
F0.06243202088318468
sg13
VXavier Omr
p1099
sg15
I9999
sg16
F0.91904047976012
sg17
Nsg18
Nsg19
Nsg20
F2.010178117048346e-06
sg21
F0.3319103521878335
sg22
Nsg23
Nsg24
F0.6904353960894981
ssg25
I01
sba(iSong
Song
p1100
(dp1101
g3
(dp1102
g5
F0.7129194357014779
sg6
VPrototype
p1103
sg8
F0.5629139524108044
sg9
F0.3304562268803946
sg10
S'r_b'
p1104
sg12
F0.1951272569066783
sg13
VKevin Ross
p1105
sg15
I9999
sg16
F0.6431784107946027
sg17
Nsg18
Nsg19
Nsg20
F2.5954198473282442e-05
sg21
F0.17182497331910354
sg22
Nsg23
Nsg24
F0.649768191896795
ssg25
I01
sba(iSong
Song
p1106
(dp1107
g3
(dp1108
g5
F0.23599527243135243
sg6
VBefore I Do
p1109
sg8
F0.14942489574531873
sg9
F0.4710234278668311
sg10
S'r_b'
p1110
sg12
F0.09506199695453554
sg13
VSevyn Streeter
p1111
sg15
I9999
sg16
F0.5742128935532235
sg17
Nsg18
Nsg19
Nsg20
F1e-07
sg21
F0.6414087513340448
sg22
Nsg23
Nsg24
F0.7750453537593226
ssg25
I01
sba(iSong
Song
p1112
(dp1113
g3
(dp1114
g5
F0.03064006232426444
sg6
VEither Way (feat. Chris Brown)
p1115
sg8
F0.524864400774074
sg9
F0.311960542540074
sg10
S'r_b'
p1116
sg12
F0.32782249293017185
sg13
VK. Michelle
p1117
sg15
I9999
sg16
F0.8425787106446777
sg17
Nsg18
Nsg19
Nsg20
F1e-07
sg21
F0.3767342582710779
sg22
Nsg23
Nsg24
F0.742642612376537
ssg25
I01
sba(iSong
Song
p1118
(dp1119
g3
(dp1120
g5
F0.15264930215113637
sg6
VDon't Matter
p1121
sg8
F0.48247431110142014
sg9
F0.467324290998767
sg10
S'r_b'
p1122
sg12
F0.30389384381118123
sg13
VAugust Alsina
p1123
sg15
I9999
sg16
F0.5862068965517242
sg17
Nsg18
Nsg19
Nsg20
F1e-07
sg21
F0.5453575240128069
sg22
Nsg23
Nsg24
F0.7268191896795001
ssg25
I01
sba(iSong
Song
p1124
(dp1125
g3
(dp1126
g5
F0.01975878287101401
sg6
VSkrt Skrt
p1127
sg8
F0.26278993703834935
sg9
F0.593094944512947
sg10
S'r_b'
p1128
sg12
F0.19947792038285836
sg13
VTory Lanez
p1129
sg15
I9999
sg16
F0.44527736131934026
sg17
Nsg18
Nsg19
Nsg20
F1.501272264631043e-06
sg21
F0.23906083244397014
sg22
Nsg23
Nsg24
F0.6933078008466035
ssg25
I01
sba(iSong
Song
p1130
(dp1131
g3
(dp1132
g5
F0.0798373364480031
sg6
VOnly 4 Me
p1133
sg8
F0.5673839570443456
sg9
F0.6584463625154131
sg10
S'r_b'
p1134
sg12
F0.08048727430933215
sg13
VChris Brown
p1135
sg15
I9999
sg16
F0.6086956521739132
sg17
Nsg18
Nsg19
Nsg20
F1e-07
sg21
F0.9295624332977589
sg22
Nsg23
Nsg24
F0.8922092320096753
ssg25
I01
sba(iSong
Song
p1136
(dp1137
g3
(dp1138
g5
F0.09940048780544271
sg6
VWant More
p1139
sg8
F0.3107879745972907
sg9
F0.4549938347718866
sg10
S'r_b'
p1140
sg12
F0.3191211659778116
sg13
VRotimi
p1141
sg15
I9999
sg16
F0.5862068965517242
sg17
Nsg18
Nsg19
Nsg20
F1e-07
sg21
F0.3820704375667022
sg22
Nsg23
Nsg24
F0.7707115500907075
ssg25
I01
sba(iSong
Song
p1142
(dp1143
g3
(dp1144
g5
F0.15496446799225347
sg6
VTold You So
p1145
sg8
F0.41515849437161
sg9
F0.6140567200986436
sg10
S'r_b'
p1146
sg12
F0.021753317380900583
sg13
VMiguel
p1147
sg15
I9999
sg16
F0.7616191904047976
sg17
Nsg18
Nsg19
Nsg20
F1e-07
sg21
F0.6990394877267876
sg22
Nsg23
Nsg24
F0.892058052811933
ssg25
I01
sba(iSong
Song
p1148
(dp1149
g3
(dp1150
g5
F0.5647488218699827
sg6
VThinking \u2018Bout You (Sleepless In Cairo)
p1151
sg8
F0.5509553272097903
sg9
F0.5018495684340322
sg10
S'r_b'
p1152
sg12
F0.21035457907330868
sg13
VSufyvn
p1153
sg15
I9999
sg16
F0.49025487256371814
sg17
Nsg18
Nsg19
Nsg20
F3.358778625954199e-05
sg21
F0.5112059765208111
sg22
Nsg23
Nsg24
F0.6665490828462003
ssg25
I01
sba(iSong
Song
p1154
(dp1155
g3
(dp1156
g5
F0.7696409988088472
sg6
VLights On
p1157
sg8
F0.4142181580310174
sg9
F0.3267570900123305
sg10
S'r_b'
p1158
sg12
F0.14074396345442677
sg13
VH.E.R.
p1159
sg15
I9999
sg16
F0.5802098950524739
sg17
Nsg18
Nsg19
Nsg20
F0.0005521628498727735
sg21
F0.32657417289220925
sg22
Nsg23
Nsg24
F0.6427131626688167
ssg25
I01
sba(iSong
Song
p1160
(dp1161
g3
(dp1162
g5
F0.6272582995801447
sg6
VWanna Be Yours
p1163
sg8
F0.7781487639346943
sg9
F0.6103575832305795
sg10
S'r_b'
p1164
sg12
F0.8368501196432455
sg13
VGuordan Banks
p1165
sg15
I9999
sg16
F0.18440779610194905
sg17
Nsg18
Nsg19
Nsg20
F3.486005089058524e-05
sg21
F0.680896478121665
sg22
Nsg23
Nsg24
F0.7903144527313041
ssg25
I01
sba(iSong
Song
p1166
(dp1167
g3
(dp1168
g5
F0.1237097291371724
sg6
VComplicated
p1169
sg8
F0.4174139387827414
sg9
F0.4512946979038225
sg10
S'r_b'
p1170
sg12
F0.5040243637154667
sg13
VMIKExANGEL
p1171
sg15
I9999
sg16
F0.44977511244377805
sg17
Nsg18
Nsg19
Nsg20
F1e-07
sg21
F0.32977588046958384
sg22
Nsg23
Nsg24
F0.7362930860713566
ssg25
I01
sba(iSong
Song
p1172
(dp1173
g3
(dp1174
g5
F0.020221816039237433
sg6
VNowhere
p1175
sg8
F0.16173785058191828
sg9
F0.5819975339087546
sg10
S'r_b'
p1176
sg12
F0.10419839025451381
sg13
VChris Brown
p1177
sg15
I9999
sg16
F0.15892053973013492
sg17
Nsg18
Nsg19
Nsg20
F1e-07
sg21
F0.35645677694770544
sg22
Nsg23
Nsg24
F0.8242289860915138
ssg25
I01
sba(iSong
Song
p1178
(dp1179
g3
(dp1180
g5
F0.09025558273303012
sg6
VQuicksand
p1181
sg8
F0.31943498051187
sg9
F0.6658446362515412
sg10
S'r_b'
p1182
sg12
F0.5257776810963672
sg13
VSZA
p1183
sg15
I9999
sg16
F0.7886056971514244
sg17
Nsg18
Nsg19
Nsg20
F1e-07
sg21
F0.43756670224119537
sg22
Nsg23
Nsg24
F0.8232715178391453
ssg25
I01
sba(iSong
Song
p1184
(dp1185
g3
(dp1186
g5
F0.11792181453437962
sg6
VBetter Man (feat. Rick Ross)
p1187
sg8
F0.22400447000463355
sg9
F0.5228113440197287
sg10
S'r_b'
p1188
sg12
F0.1329127691973026
sg13
VPARTYNEXTDOOR
p1189
sg15
I9999
sg16
F0.7796101949025488
sg17
Nsg18
Nsg19
Nsg20
F0.0007646310432569974
sg21
F0.6350053361792957
sg22
Nsg23
Nsg24
F0.6906369683531546
ssg25
I01
sba(iSong
Song
p1190
(dp1191
g3
(dp1192
g5
F0.8564597178507389
sg6
VProvider
p1193
sg8
F0.5640655237264576
sg9
F0.21578298397040693
sg10
S'r_b'
p1194
sg12
F0.5540569936915379
sg13
VFrank Ocean
p1195
sg15
I9999
sg16
F0.5652173913043479
sg17
Nsg18
Nsg19
Nsg20
F2.7226463104325697e-05
sg21
F0.3799359658484525
sg22
Nsg23
Nsg24
F0.5191493650473694
ssg25
I01
sba(iSong
Song
p1196
(dp1197
g3
(dp1198
g5
F0.04557288199946983
sg6
VGive You More
p1199
sg8
F0.2238886314699228
sg9
F0.6695437731196053
sg10
S'r_b'
p1200
sg12
F0.31477050250163147
sg13
VLedisi
p1201
sg15
I9999
sg16
F0.542728635682159
sg17
Nsg18
Nsg19
Nsg20
F1e-07
sg21
F0.6147278548559232
sg22
Nsg23
Nsg24
F0.8260431364644224
ssg25
I01
sba(iSong
Song
p1202
(dp1203
g3
(dp1204
g5
F0.6909253602108653
sg6
VGrey Luh
p1205
sg8
F0.46619558995884325
sg9
F0.18249075215782984
sg10
S'r_b'
p1206
sg12
F0.0891886012616924
sg13
VBerhana
p1207
sg15
I9999
sg16
F0.39880059970014997
sg17
Nsg18
Nsg19
Nsg20
F1.8956743002544528e-06
sg21
F0.23479188900747067
sg22
Nsg23
Nsg24
F0.6581334408385406
ssg25
I01
sba(iSong
Song
p1208
(dp1209
g3
(dp1210
g5
F0.26493484544531637
sg6
VIMAGINATION
p1211
sg8
F0.5787429474774456
sg9
F0.652281134401973
sg10
S'r_b'
p1212
sg12
F0.20600391559712855
sg13
VAdrian Marcel
p1213
sg15
I9999
sg16
F0.5787106446776612
sg17
Nsg18
Nsg19
Nsg20
F0.00010038167938931297
sg21
F0.6125933831376734
sg22
Nsg23
Nsg24
F0.8883289659342873
ssg25
I01
sba(iSong
Song
p1214
(dp1215
g3
(dp1216
g5
F0.025778214057918504
sg6
VLOYALTY. FEAT. RIHANNA.
p1217
sg8
F0.36589304696230474
sg9
F0.4821208384710235
sg10
S'r_b'
p1218
sg12
F0.060256689145094626
sg13
VKendrick Lamar
p1219
sg15
I9999
sg16
F0.6056971514242879
sg17
Nsg18
Nsg19
Nsg20
F1e-07
sg21
F0.40448239060832447
sg22
Nsg23
Nsg24
F0.670278169723846
ssg25
I01
sba(iSong
Song
p1220
(dp1221
g3
(dp1222
g5
F0.006469730943001775
sg6
Vdo re mi (feat. Gucci Mane)
p1223
sg8
F0.37415846711548423
sg9
F0.6251541307028361
sg10
S'r_b'
p1224
sg12
F0.07004568196649988
sg13
Vblackbear
p1225
sg15
I9999
sg16
F0.6941529235382309
sg17
Nsg18
Nsg19
Nsg20
F1e-07
sg21
F0.15474919957310565
sg22
Nsg23
Nsg24
F0.8021568232211247
ssg25
I01
sba(iSong
Song
p1226
(dp1227
g3
(dp1228
g5
F0.135285558342758
sg6
VCrew
p1229
sg8
F0.49637493526670123
sg9
F0.5573366214549939
sg10
S'r_b'
p1230
sg12
F0.22993256471611923
sg13
VGoldLink
p1231
sg15
I9999
sg16
F0.6746626686656672
sg17
Nsg18
Nsg19
Nsg20
F1e-07
sg21
F0.4098185699039488
sg22
Nsg23
Nsg24
F0.6957770610763959
ssg25
I01
sba(iSong
Song
p1232
(dp1233
g3
(dp1234
g5
F0.01327631851588609
sg6
VEx (feat. YG)
p1235
sg8
F0.30629071383793505
sg9
F0.34032059186189895
sg10
S'r_b'
p1236
sg12
F0.04350663476180117
sg13
VTy Dolla $ign
p1237
sg15
I9999
sg16
F0.7391304347826088
sg17
Nsg18
Nsg19
Nsg20
F1e-07
sg21
F0.5218783351120598
sg22
Nsg23
Nsg24
F0.8319895182422898
ssg25
I01
sba(iSong
Song
p1238
(dp1239
g3
(dp1240
g5
F0.03307098645743741
sg6
VWild Thoughts
p1241
sg8
F0.27607048434135567
sg9
F0.654747225647349
sg10
S'r_b'
p1242
sg12
F0.10985425277354795
sg13
VDJ Khaled
p1243
sg15
I9999
sg16
F0.5037481259370314
sg17
Nsg18
Nsg19
Nsg20
F1e-07
sg21
F0.624332977588047
sg22
Nsg23
Nsg24
F0.9644224954646241
ssg25
I01
sba(iSong
Song
p1244
(dp1245
g3
(dp1246
g5
F0.03608070205088966
sg6
VIt's A Vibe
p1247
sg8
F0.10770939518656815
sg9
F0.4167694204685573
sg10
S'r_b'
p1248
sg12
F0.332173156406352
sg13
V2 Chainz
p1249
sg15
I9999
sg16
F0.7886056971514244
sg17
Nsg18
Nsg19
Nsg20
F0.0003625954198473282
sg21
F0.5538954108858059
sg22
Nsg23
Nsg24
F0.7389135254988913
ssg25
I01
sba(iSong
Song
p1250
(dp1251
g3
(dp1252
g5
F0.17580096056230748
sg6
VSpace (feat. Sexton)
p1253
sg8
F0.5649445337839679
sg9
F0.5092478421701603
sg10
S'r_b'
p1254
sg12
F0.25168588209701975
sg13
VTK Kravitz
p1255
sg15
I9999
sg16
F0.9490254872563719
sg17
Nsg18
Nsg19
Nsg20
F1e-07
sg21
F0.6019210245464247
sg22
Nsg23
Nsg24
F0.6913928643418665
ssg25
I01
sba(iSong
Song
p1256
(dp1257
g3
(dp1258
g5
F0.2105284481790642
sg6
VFake Love
p1259
sg8
F0.5233244296655675
sg9
F0.48458692971639955
sg10
S'r_b'
p1260
sg12
F0.5888623015009788
sg13
VDrake
p1261
sg15
I9999
sg16
F0.9700149925037482
sg17
Nsg18
Nsg19
Nsg20
F1e-07
sg21
F0.7491995731056563
sg22
Nsg23
Nsg24
F0.743448901431163
ssg25
I01
sba(iSong
Song
p1262
(dp1263
g3
(dp1264
g5
F0.8414111398834777
sg6
VLiquor & Misunderstanding
p1265
sg8
F0.37390634795170213
sg9
F0.35635018495684345
sg10
S'r_b'
p1266
sg12
F0.7302588644768327
sg13
VVerse Simmonds
p1267
sg15
I9999
sg16
F0.4422788605697151
sg17
Nsg18
Nsg19
Nsg20
F1e-07
sg21
F0.3799359658484525
sg22
Nsg23
Nsg24
F0.7500503930659141
ssg25
I01
sba(iSong
Song
p1268
(dp1269
g3
(dp1270
g5
F0.0020940675032904295
sg6
VLemon
p1271
sg8
F0.2585107252855079
sg9
F0.7151664611590629
sg10
S'r_b'
p1272
sg12
F0.13204263650206655
sg13
VN.E.R.D
p1273
sg15
I9999
sg16
F0.9625187406296852
sg17
Nsg18
Nsg19
Nsg20
F0.00010826972010178116
sg21
F0.16542155816435433
sg22
Nsg23
Nsg24
F0.7884499092924814
ssg25
I01
sba(iSong
Song
p1274
(dp1275
g3
(dp1276
g5
F0.05575961170038513
sg6
Vup in this (with Tinashe)
p1277
sg8
F0.4828354547684593
sg9
F0.6954377311960542
sg10
S'r_b'
p1278
sg12
F0.12312377637589732
sg13
Vblackbear
p1279
sg15
I9999
sg16
F0.6776611694152924
sg17
Nsg18
Nsg19
Nsg20
F1e-07
sg21
F0.4887940234791889
sg22
Nsg23
Nsg24
F0.8143519451723442
ssg25
I01
sba(iSong
Song
p1280
(dp1281
g3
(dp1282
g5
F0.21284361402018132
sg6
VYoung Dumb & Broke REMIX
p1283
sg8
F0.544318460574014
sg9
F0.5055487053020963
sg10
S'r_b'
p1284
sg12
F0.044811833804655206
sg13
VKhalid
p1285
sg15
I9999
sg16
F0.7766116941529236
sg17
Nsg18
Nsg19
Nsg20
F1e-07
sg21
F0.4535752401280684
sg22
Nsg23
Nsg24
F0.8291675065510985
ssg25
I01
sba(iSong
Song
p1286
(dp1287
g3
(dp1288
g5
F0.2348376895107939
sg6
VIssues (feat. Russ)
p1289
sg8
F0.183079397094497
sg9
F0.6066584463625154
sg10
S'r_b'
p1290
sg12
F0.09919512725690668
sg13
VPnB Rock
p1291
sg15
I9999
sg16
F0.5667166416791605
sg17
Nsg18
Nsg19
Nsg20
F2.926208651399491e-05
sg21
F0.18569903948772679
sg22
Nsg23
Nsg24
F0.7795303366256803
ssg25
I01
sba(iSong
Song
p1292
(dp1293
g3
(dp1294
g5
F0.10252596169095082
sg6
V1999 (feat. Lloyd)
p1295
sg8
F0.6876720542942028
sg9
F0.6781750924784217
sg10
S'r_b'
p1296
sg12
F0.40178377202523385
sg13
VBig K.R.I.T.
p1297
sg15
I9999
sg16
F0.6326836581709145
sg17
Nsg18
Nsg19
Nsg20
F1e-07
sg21
F0.5336179295624334
sg22
Nsg23
Nsg24
F0.7921286031042128
ssg25
I01
sba(iSong
Song
p1298
(dp1299
g3
(dp1300
g5
F0.21168603109962275
sg6
VWhat You Like (feat. PnB Rock & MadeinTYO)
p1301
sg8
F0.5645220638338467
sg9
F0.652281134401973
sg10
S'r_b'
p1302
sg12
F0.0820100065259952
sg13
V24hrs
p1303
sg15
I9999
sg16
F0.8290854572713643
sg17
Nsg18
Nsg19
Nsg20
F1e-07
sg21
F0.8345784418356457
sg22
Nsg23
Nsg24
F0.909796412013707
ssg25
I01
sba(iSong
Song
p1304
(dp1305
g3
(dp1306
g5
F0.17232821180063182
sg6
VReminder - Remix
p1307
sg8
F0.7010820681948268
sg9
F0.6165228113440198
sg10
S'r_b'
p1308
sg12
F0.4344137480965848
sg13
VThe Weeknd
p1309
sg15
I9999
sg16
F0.7016491754122939
sg17
Nsg18
Nsg19
Nsg20
F1e-07
sg21
F0.5197438633938101
sg22
Nsg23
Nsg24
F0.818131425115904
ssg25
I01
sba(iSong
Song
p1310
(dp1311
g3
(dp1312
g5
F0.03307098645743741
sg6
VWhatever You Need (feat. Chris Brown & Ty Dolla $ign)
p1313
sg8
F0.7288015481479464
sg9
F0.5117139334155363
sg10
S'r_b'
p1314
sg12
F0.3365238198825321
sg13
VMeek Mill
p1315
sg15
I9999
sg16
F0.3568215892053973
sg17
Nsg18
Nsg19
Nsg20
F1e-07
sg21
F0.288153681963714
sg22
Nsg23
Nsg24
F0.7503527514613989
ssg25
I01
sba(iSong
Song
p1316
(dp1317
g3
(dp1318
g5
F0.5265485854915503
sg6
VShow and Tell (feat. Eric Bellinger)
p1319
sg8
F0.21079887704761646
sg9
F0.7102342786683107
sg10
S'r_b'
p1320
sg12
F0.5257776810963672
sg13
VSammie
p1321
sg15
I9999
sg16
F0.6086956521739132
sg17
Nsg18
Nsg19
Nsg20
F1e-07
sg21
F0.7097118463180363
sg22
Nsg23
Nsg24
F0.7756500705502922
ssg25
I01
sba(iSong
Song
p1322
(dp1323
g3
(dp1324
g5
F0.13181280958108232
sg6
VSelfish
p1325
sg8
F0.30577966147891733
sg9
F0.5548705302096177
sg10
S'r_b'
p1326
sg12
F0.035892973678485963
sg13
VPnB Rock
p1327
sg15
I9999
sg16
F0.5412293853073463
sg17
Nsg18
Nsg19
Nsg20
F1e-07
sg21
F0.006296691568836709
sg22
Nsg23
Nsg24
F0.8257911711348518
ssg25
I01
sba(iSong
Song
p1328
(dp1329
g3
(dp1330
g5
F0.3204988256321271
sg6
VHol' Up (feat. Yo Gotti)
p1331
sg8
F0.5653193055139143
sg9
F0.5400739827373613
sg10
S'r_b'
p1332
sg12
F0.2364585599303894
sg13
VTamar Braxton
p1333
sg15
I9999
sg16
F0.8830584707646177
sg17
Nsg18
Nsg19
Nsg20
F1e-07
sg21
F0.9146211312700107
sg22
Nsg23
Nsg24
F0.8980548276557146
ssg25
I01
sba(iSong
Song
p1334
(dp1335
g3
(dp1336
g5
F0.023115773340633822
sg6
VLove U Better (feat. Lil Wayne & The-Dream)
p1337
sg8
F0.4139115266156068
sg9
F0.40320591861898886
sg10
S'r_b'
p1338
sg12
F0.050032629976071344
sg13
VTy Dolla $ign
p1339
sg15
I9999
sg16
F0.3073463268365817
sg17
Nsg18
Nsg19
Nsg20
F1e-07
sg21
F0.368196371398079
sg22
Nsg23
Nsg24
F0.6945676274944567
ssg25
I01
sba(iSong
Song
p1340
(dp1341
g3
(dp1342
g5
F0.3517535644872081
sg6
VDream Girl
p1343
sg8
F0.34759055847801795
sg9
F0.372379778051788
sg10
S'r_b'
p1344
sg12
F0.3974331085490537
sg13
VNick Cannon
p1345
sg15
I9999
sg16
F0.6581709145427286
sg17
Nsg18
Nsg19
Nsg20
F1e-07
sg21
F0.18783351120597652
sg22
Nsg23
Nsg24
F0.7846200362830075
ssg25
I01
sba(iSong
Song
p1346
(dp1347
g3
(dp1348
g5
F0.021379398959795987
sg6
VMy Imagination (feat. dvsn)
p1349
sg8
F0.489894791354357
sg9
F0.48705302096177566
sg10
S'r_b'
p1350
sg12
F0.05068522949749837
sg13
VMajid Jordan
p1351
sg15
I9999
sg16
F0.6266866566716641
sg17
Nsg18
Nsg19
Nsg20
F0.16284987277353688
sg21
F0.0050160085378868685
sg22
Nsg23
Nsg24
F0.5740274138278573
ssg25
I01
sba(iSong
Song
p1352
(dp1353
g3
(dp1354
g5
F0.226734609066884
sg6
VVersace On The Floor
p1355
sg8
F0.7975551255144593
sg9
F0.5228113440197287
sg10
S'r_b'
p1356
sg12
F0.03937350445943007
sg13
VBruno Mars
p1357
sg15
I9999
sg16
F0.4512743628185907
sg17
Nsg18
Nsg19
Nsg20
F1e-07
sg21
F0.2849519743863394
sg22
Nsg23
Nsg24
F0.8071961298125377
ssg25
I01
sba(iSong
Song
p1358
(dp1359
g3
(dp1360
g5
F0.19084953852956874
sg6
VLove a Loser
p1361
sg8
F0.5720106844013192
sg9
F0.5893958076448829
sg10
S'r_b'
p1362
sg12
F0.12790950619969543
sg13
VCassie
p1363
sg15
I9999
sg16
F0.679160419790105
sg17
Nsg18
Nsg19
Nsg20
F1e-07
sg21
F0.3628601921024546
sg22
Nsg23
Nsg24
F0.8628804676476517
ssg25
I01
sba(iSong
Song
p1364
(dp1365
g3
(dp1366
g5
F0.3170260768704515
sg6
VBelong To You (feat. 6LACK) - Remix [Bonus Track]
p1367
sg8
F0.647128567145466
sg9
F0.49691738594327994
sg10
S'r_b'
p1368
sg12
F0.16032194909723732
sg13
VSabrina Claudio
p1369
sg15
I9999
sg16
F0.4917541229385307
sg17
Nsg18
Nsg19
Nsg20
F0.019338422391857506
sg21
F0.6254002134471718
sg22
Nsg23
Nsg24
F0.5735738762346301
ssg25
I01
sba(iSong
Song
p1370
(dp1371
g3
(dp1372
g5
F0.03064006232426444
sg6
VEither Way (feat. Chris Brown)
p1373
sg8
F0.524864400774074
sg9
F0.311960542540074
sg10
S'r_b'
p1374
sg12
F0.32782249293017185
sg13
VK. Michelle
p1375
sg15
I9999
sg16
F0.8425787106446777
sg17
Nsg18
Nsg19
Nsg20
F1e-07
sg21
F0.3767342582710779
sg22
Nsg23
Nsg24
F0.742642612376537
ssg25
I01
sba(iSong
Song
p1376
(dp1377
g3
(dp1378
g5
F0.027630346730812196
sg6
VTime
p1379
sg8
F0.27813513587178723
sg9
F0.7669543773119606
sg10
S'r_b'
p1380
sg12
F0.0670002175331738
sg13
VPnB Rock
p1381
sg15
I9999
sg16
F0.5157421289355323
sg17
Nsg18
Nsg19
Nsg20
F1e-07
sg21
F0.4994663820704376
sg22
Nsg23
Nsg24
F0.9129711751662971
ssg25
I01
sba(iSong
Song
p1382
(dp1383
g3
(dp1384
g5
F0.01489693460466807
sg6
VThat's What I Like
p1385
sg8
F0.5244078606666849
sg9
F0.5055487053020963
sg10
S'r_b'
p1386
sg12
F0.028931912116597774
sg13
VBruno Mars
p1387
sg15
I9999
sg16
F0.863568215892054
sg17
Nsg18
Nsg19
Nsg20
F1e-07
sg21
F0.8815368196371398
sg22
Nsg23
Nsg24
F0.8700866760733722
ssg25
I01
sba(iSong
Song
p1388
(dp1389
g3
(dp1390
g5
F0.1080823597096319
sg6
VSomething New (feat. Ty Dolla $ign)
p1391
sg8
F0.20765760854752108
sg9
F0.5980271270036992
sg10
S'r_b'
p1392
sg12
F0.11659778116162714
sg13
VWiz Khalifa
p1393
sg15
I9999
sg16
F0.8050974512743628
sg17
Nsg18
Nsg19
Nsg20
F1e-07
sg21
F0.80042689434365
sg22
Nsg23
Nsg24
F0.7870389034468857
ssg25
I01
sba(iSong
Song
p1394
(dp1395
g3
(dp1396
g5
F0.00454814329487457
sg6
VB.E.D. - Remix
p1397
sg8
F0.44225108343100106
sg9
F0.4217016029593095
sg10
S'r_b'
p1398
sg12
F0.026756580378507727
sg13
VJacquees
p1399
sg15
I9999
sg16
F0.6506746626686657
sg17
Nsg18
Nsg19
Nsg20
F1e-07
sg21
F0.400213447171825
sg22
Nsg23
Nsg24
F0.6903346099576698
ssg25
I01
sba(iSong
Song
p1400
(dp1401
g3
(dp1402
g5
F0.5161303392065232
sg6
VRollin
p1403
sg8
F0.23744855406252557
sg9
F0.7521578298397041
sg10
S'r_b'
p1404
sg12
F0.12747443985207743
sg13
VCalvin Harris
p1405
sg15
I9999
sg16
F0.7136431784107946
sg17
Nsg18
Nsg19
Nsg20
F3.982188295165395e-05
sg21
F0.6648879402347919
sg22
Nsg23
Nsg24
F0.892410804273332
ssg25
I01
sba(iSong
Song
p1406
(dp1407
g3
(dp1408
g5
F0.0642099670204626
sg6
VParty
p1409
sg8
F0.5791245332388455
sg9
F0.5252774352651047
sg10
S'r_b'
p1410
sg12
F0.12094844463780725
sg13
VChris Brown
p1411
sg15
I9999
sg16
F0.727136431784108
sg17
Nsg18
Nsg19
Nsg20
F1e-07
sg21
F0.3009605122732124
sg22
Nsg23
Nsg24
F0.8705906067325135
ssg25
I01
sba(iSong
Song
p1412
(dp1413
g3
(dp1414
g5
F0.03168188695276714
sg6
VGood Problem
p1415
sg8
F0.3605576603341601
sg9
F0.531442663378545
sg10
S'r_b'
p1416
sg12
F0.14552969327822493
sg13
VK CAMP
p1417
sg15
I9999
sg16
F0.9070464767616193
sg17
Nsg18
Nsg19
Nsg20
F1e-07
sg21
F0.5453575240128069
sg22
Nsg23
Nsg24
F0.809211852449103
ssg25
I01
sba(iSong
Song
p1418
(dp1419
g3
(dp1420
g5
F0.35754147909000095
sg6
VEither Way
p1421
sg8
F0.8238981711139579
sg9
F0.6276202219482121
sg10
S'r_b'
p1422
sg12
F0.2777898629541005
sg13
VSnakehips
p1423
sg15
I9999
sg16
F0.5367316341829086
sg17
Nsg18
Nsg19
Nsg20
F1e-07
sg21
F0.5400213447171825
sg22
Nsg23
Nsg24
F0.8721527917758517
ssg25
I01
sba(iSong
Song
p1424
(dp1425
g3
(dp1426
g5
F0.10032655414188957
sg6
VLove Like Ours (feat. Tarrus Riley)
p1427
sg8
F0.15317261304478175
sg9
F0.7003699136868063
sg10
S'r_b'
p1428
sg12
F0.3125951707635415
sg13
VEstelle
p1429
sg15
I9999
sg16
F0.24737631184407796
sg17
Nsg18
Nsg19
Nsg20
F1e-07
sg21
F0.5400213447171825
sg22
Nsg23
Nsg24
F0.9309111066317274
ssg25
I01
sba(iSong
Song
p1430
(dp1431
g3
(dp1432
g5
F0.003286377911465743
sg6
VOne For Me
p1433
sg8
F0.28400201695331023
sg9
F0.8088779284833539
sg10
S'r_b'
p1434
sg12
F0.11181205133782902
sg13
VWizKid
p1435
sg15
I9999
sg16
F0.3733133433283359
sg17
Nsg18
Nsg19
Nsg20
F1e-07
sg21
F0.8537886872998932
sg22
Nsg23
Nsg24
F0.8470570449506148
ssg25
I01
sba(iSong
Song
p1436
(dp1437
g3
(dp1438
g5
F0.0349231191303311
sg6
VSelfish
p1439
sg8
F0.26329417536591343
sg9
F0.27003699136868065
sg10
S'r_b'
p1440
sg12
F0.10180552534261474
sg13
VFuture
p1441
sg15
I9999
sg16
F0.2068965517241379
sg17
Nsg18
Nsg19
Nsg20
F9.720101781170482e-06
sg21
F0.06115261472785486
sg22
Nsg23
Nsg24
F0.6139387220318484
ssg25
I01
sba(iSong
Song
p1442
(dp1443
g3
(dp1444
g5
F0.15612205091281203
sg6
VSidewalks
p1445
sg8
F0.6336504129303062
sg9
F0.7114673242909988
sg10
S'r_b'
p1446
sg12
F0.12529910811398737
sg13
VThe Weeknd
p1447
sg15
I9999
sg16
F0.3973013493253374
sg17
Nsg18
Nsg19
Nsg20
F1e-07
sg21
F0.5485592315901815
sg22
Nsg23
Nsg24
F0.8546160048377343
ssg25
I01
sba(iSong
Song
p1448
(dp1449
g3
(dp1450
g5
F0.5763246510755682
sg6
VSlide
p1451
sg8
F0.31998691705960913
sg9
F0.7953144266337855
sg10
S'r_b'
p1452
sg12
F0.059169023276049594
sg13
VCalvin Harris
p1453
sg15
I9999
sg16
F0.6881559220389806
sg17
Nsg18
Nsg19
Nsg20
F1.539440203562341e-06
sg21
F0.5090715048025614
sg22
Nsg23
Nsg24
F0.9538399516226567
ssg25
I01
sba(iSong
Song
p1454
(dp1455
g3
(dp1456
g5
F0.4628815248608296
sg6
VF With U
p1457
sg8
F0.2824347897189894
sg9
F0.46609124537607893
sg10
S'r_b'
p1458
sg12
F0.5366543397868175
sg13
VKid Ink
p1459
sg15
I9999
sg16
F0.4512743628185907
sg17
Nsg18
Nsg19
Nsg20
F1e-07
sg21
F0.6275346851654215
sg22
Nsg23
Nsg24
F0.7588187865349727
ssg25
I01
sba(iSong
Song
p1460
(dp1461
g3
(dp1462
g5
F0.015359967772891493
sg6
VStay For It
p1463
sg8
F0.5915873967674236
sg9
F0.8655980271270037
sg10
S'r_b'
p1464
sg12
F0.07809440939743312
sg13
VRL Grime
p1465
sg15
I9999
sg16
F0.11694152923538226
sg17
Nsg18
Nsg19
Nsg20
F2.5190839694656487e-05
sg21
F0.14834578441835644
sg22
Nsg23
Nsg24
F0.9202277766579318
ssg25
I01
sba(iSong
Song
p1466
(dp1467
g3
(dp1468
g5
F0.15264930215113637
sg6
VPlot Twist
p1469
sg8
F0.49254544958979524
sg9
F0.6189889025893959
sg10
S'r_b'
p1470
sg12
F0.558407657167718
sg13
VMarc E. Bassy
p1471
sg15
I9999
sg16
F0.6866566716641679
sg17
Nsg18
Nsg19
Nsg20
F1e-07
sg21
F0.6905016008537888
sg22
Nsg23
Nsg24
F0.8189377141705302
ssg25
I01
sba(iSong
Song
p1472
(dp1473
g3
(dp1474
g5
F0.2533590162397308
sg6
VSTICKY SITUATION
p1475
sg8
F0.49668838071356536
sg9
F0.4475955610357583
sg10
S'r_b'
p1476
sg12
F0.30389384381118123
sg13
VQUI
p1477
sg15
I9999
sg16
F0.8170914542728636
sg17
Nsg18
Nsg19
Nsg20
F0.003842239185750636
sg21
F0.5144076840981857
sg22
Nsg23
Nsg24
F0.8378855069542431
ssg25
I01
sba(iSong
Song
p1478
(dp1479
g3
(dp1480
g5
F0.10356778631945351
sg6
VGet It Together
p1481
sg8
F0.44906511488457024
sg9
F0.7139334155363748
sg10
S'r_b'
p1482
sg12
F0.04785729823798128
sg13
VDrake
p1483
sg15
I9999
sg16
F0.7541229385307348
sg17
Nsg18
Nsg19
Nsg20
F0.5368956743002544
sg21
F0.8644610458911419
sg22
Nsg23
Nsg24
F0.6595948397500504
ssg25
I01
sba(iSong
Song
p1484
(dp1485
g3
(dp1486
g5
F0.21978911154353264
sg6
VParty Monster
p1487
sg8
F0.13894491536972933
sg9
F0.5819975339087546
sg10
S'r_b'
p1488
sg12
F0.10724385468783988
sg13
VThe Weeknd
p1489
sg15
I9999
sg16
F0.4677661169415292
sg17
Nsg18
Nsg19
Nsg20
F3.944020356234097e-05
sg21
F0.17502668089647813
sg22
Nsg23
Nsg24
F0.7020761943156621
ssg25
I01
sba(iSong
Song
p1490
(dp1491
g3
(dp1492
g5
F0.3054502476648659
sg6
VKeep On
p1493
sg8
F0.2790414020551119
sg9
F0.373612823674476
sg10
S'r_b'
p1494
sg12
F0.26908853600174026
sg13
VKehlani
p1495
sg15
I9999
sg16
F0.6941529235382309
sg17
Nsg18
Nsg19
Nsg20
F9.071246819338422e-05
sg21
F0.512273212379936
sg22
Nsg23
Nsg24
F0.7381072364442652
ssg25
I01
sba(iSong
Song
p1496
(dp1497
g3
(dp1498
g5
F0.06664089115363557
sg6
VLuck
p1499
sg8
F0.520721469650304
sg9
F0.39580764488286063
sg10
S'r_b'
p1500
sg12
F0.8020448118338047
sg13
VKayla Brianna
p1501
sg15
I9999
sg16
F0.5292353823088456
sg17
Nsg18
Nsg19
Nsg20
F1e-07
sg21
F0.6200640341515475
sg22
Nsg23
Nsg24
F0.755845595646039
ssg25
I01
sba(iSong
Song
p1502
(dp1503
g3
(dp1504
g5
F0.2857713380153704
sg6
VOver
p1505
sg8
F0.598932922674371
sg9
F0.44512946979038226
sg10
S'r_b'
p1506
sg12
F0.056776158364150536
sg13
VSyd
p1507
sg15
I9999
sg16
F0.7601199400299851
sg17
Nsg18
Nsg19
Nsg20
F0.0005979643765903307
sg21
F0.5955176093916755
sg22
Nsg23
Nsg24
F0.8619733924611973
ssg25
I01
sba(iSong
Song
p1508
(dp1509
g3
(dp1510
g5
F0.021495157251851846
sg6
VWISH YOU WELL
p1511
sg8
F0.5445910218321568
sg9
F0.25400739827373614
sg10
S'r_b'
p1512
sg12
F0.10202305851642375
sg13
VAmir Obe
p1513
sg15
I9999
sg16
F0.8650674662668666
sg17
Nsg18
Nsg19
Nsg20
F1e-07
sg21
F0.12913553895410887
sg22
Nsg23
Nsg24
F0.6777363434791372
ssg25
I01
sba(iSong
Song
p1514
(dp1515
g3
(dp1516
g5
F0.22441944322576687
sg6
VU Remind Me
p1517
sg8
F0.2512946659761781
sg9
F0.5906288532675709
sg10
S'r_b'
p1518
sg12
F0.11072438546878399
sg13
VUsher
p1519
sg15
I9999
sg16
F0.5697151424287856
sg17
Nsg18
Nsg19
Nsg20
F1e-07
sg21
F0.7385272145144077
sg22
Nsg23
Nsg24
F0.8712457165893973
ssg25
I01
sba(iSong
Song
p1520
(dp1521
g3
(dp1522
g5
F0.2718803429686677
sg6
VLet Me Love You
p1523
sg8
F0.2548992886151162
sg9
F0.5277435265104808
sg10
S'r_b'
p1524
sg12
F0.1411790298020448
sg13
VMario
p1525
sg15
I9999
sg16
F0.568215892053973
sg17
Nsg18
Nsg19
Nsg20
F1e-07
sg21
F0.5570971184631804
sg22
Nsg23
Nsg24
F0.6680608748236242
ssg25
I01
sba(iSong
Song
p1526
(dp1527
g3
(dp1528
g5
F0.012350252179439246
sg6
VBuy U a Drank (Shawty Snappin')
p1529
sg8
F0.15600725012946662
sg9
F0.49321824907521583
sg10
S'r_b'
p1530
sg12
F0.5105503589297369
sg13
VT-Pain
p1531
sg15
I9999
sg16
F0.2608695652173913
sg17
Nsg18
Nsg19
Nsg20
F1e-07
sg21
F0.5976520811099253
sg22
Nsg23
Nsg24
F0.7100382987300947
ssg25
I01
sba(iSong
Song
p1532
(dp1533
g3
(dp1534
g5
F0.041289825193403164
sg6
VWe Belong Together
p1535
sg8
F0.5646719725258251
sg9
F0.3933415536374846
sg10
S'r_b'
p1536
sg12
F0.1222536436806613
sg13
VMariah Carey
p1537
sg15
I9999
sg16
F0.841079460269865
sg17
Nsg18
Nsg19
Nsg20
F1e-07
sg21
F0.7940234791889008
sg22
Nsg23
Nsg24
F0.7173452932876435
ssg25
I01
sba(iSong
Song
p1538
(dp1539
g3
(dp1540
g5
F0.1376007241838751
sg6
VYo (Excuse Me Miss)
p1541
sg8
F0.20547030445092537
sg9
F0.5955610357583231
sg10
S'r_b'
p1542
sg12
F0.48662170981074615
sg13
VChris Brown
p1543
sg15
I9999
sg16
F0.4917541229385307
sg17
Nsg18
Nsg19
Nsg20
F1e-07
sg21
F0.5955176093916755
sg22
Nsg23
Nsg24
F0.8228179802459181
ssg25
I01
sba(iSong
Song
p1544
(dp1545
g3
(dp1546
g5
F0.0704609147914788
sg6
VIgnition - Remix
p1547
sg8
F0.5173076398920657
sg9
F0.45992601726263876
sg10
S'r_b'
p1548
sg12
F0.032629976071350875
sg13
VR. Kelly
p1549
sg15
I9999
sg16
F0.7766116941529236
sg17
Nsg18
Nsg19
Nsg20
F1e-07
sg21
F0.8762006403415155
sg22
Nsg23
Nsg24
F0.7590203587986293
ssg25
I01
sba(iSong
Song
p1550
(dp1551
g3
(dp1552
g5
F0.38416588626284776
sg6
VI Don't Wanna Know (feat. Enya And P. Diddy)
p1553
sg8
F0.27182534274578213
sg9
F0.42293464858199753
sg10
S'r_b'
p1554
sg12
F0.04394170110941918
sg13
VMario Winans
p1555
sg15
I9999
sg16
F0.8440779610194903
sg17
Nsg18
Nsg19
Nsg20
F0.0013358778625954196
sg21
F0.3489861259338313
sg22
Nsg23
Nsg24
F0.8227675871800039
ssg25
I01
sba(iSong
Song
p1556
(dp1557
g3
(dp1558
g5
F0.048466839300866225
sg6
VOne, Two Step
p1559
sg8
F0.38117691951266053
sg9
F0.44512946979038226
sg10
S'r_b'
p1560
sg12
F0.2908418533826409
sg13
VCiara
p1561
sg15
I9999
sg16
F1.0
sg17
Nsg18
Nsg19
Nsg20
F0.001361323155216285
sg21
F0.8623265741728922
sg22
Nsg23
Nsg24
F0.5677786736545051
ssg25
I01
sba(iSong
Song
p1562
(dp1563
g3
(dp1564
g5
F0.11051328384280487
sg6
VBump, Bump, Bump
p1565
sg8
F0.2614816429992641
sg9
F0.654747225647349
sg10
S'r_b'
p1566
sg12
F0.408309767239504
sg13
VB2K
p1567
sg15
I9999
sg16
F0.8335832083958021
sg17
Nsg18
Nsg19
Nsg20
F1e-07
sg21
F0.9103521878335112
sg22
Nsg23
Nsg24
F0.8163172747429954
ssg25
I01
sba(iSong
Song
p1568
(dp1569
g3
(dp1570
g5
F0.36795972537502797
sg6
VDifferences
p1571
sg8
F0.039316961487094196
sg9
F0.5474722564734895
sg10
S'r_b'
p1572
sg12
F0.061996954535566674
sg13
VGinuwine
p1573
sg15
I9999
sg16
F0.4272863568215893
sg17
Nsg18
Nsg19
Nsg20
F1e-07
sg21
F0.4151547491995731
sg22
Nsg23
Nsg24
F0.8893872203184842
ssg25
I01
sba(iSong
Song
p1574
(dp1575
g3
(dp1576
g5
F0.4142630421973702
sg6
VFoolish
p1577
sg8
F0.21875085175393172
sg9
F0.7127003699136868
sg10
S'r_b'
p1578
sg12
F0.12138351098542526
sg13
VAshanti
p1579
sg15
I9999
sg16
F0.2998500749625187
sg17
Nsg18
Nsg19
Nsg20
F1e-07
sg21
F0.7001067235859124
sg22
Nsg23
Nsg24
F0.8323422697036887
ssg25
I01
sba(iSong
Song
p1580
(dp1581
g3
(dp1582
g5
F0.22441944322576687
sg6
VLet It Go
p1583
sg8
F0.2577952519828831
sg9
F0.7040690505548706
sg10
S'r_b'
p1584
sg12
F0.38873178159669347
sg13
VKeyshia Cole
p1585
sg15
I9999
sg16
F0.8020989505247378
sg17
Nsg18
Nsg19
Nsg20
F1e-07
sg21
F0.7876200640341516
sg22
Nsg23
Nsg24
F0.8638883289659343
ssg25
I01
sba(iSong
Song
p1586
(dp1587
g3
(dp1588
g5
F0.13181280958108232
sg6
VDon't Mess With My Man
p1589
sg8
F0.2917700128103791
sg9
F0.7151664611590629
sg10
S'r_b'
p1590
sg12
F0.29736784859691107
sg13
VNivea
p1591
sg15
I9999
sg16
F0.9025487256371815
sg17
Nsg18
Nsg19
Nsg20
F1e-07
sg21
F0.9082177161152615
sg22
Nsg23
Nsg24
F0.8999193710945373
ssg25
I01
sba(iSong
Song
p1592
(dp1593
g3
(dp1594
g5
F0.09592773904376706
sg6
VBe Without You
p1595
sg8
F0.60910627163455
sg9
F0.6646115906288532
sg10
S'r_b'
p1596
sg12
F0.23428322819229933
sg13
VMary J. Blige
p1597
sg15
I9999
sg16
F0.6701649175412294
sg17
Nsg18
Nsg19
Nsg20
F1e-07
sg21
F0.703308431163287
sg22
Nsg23
Nsg24
F0.8216589397298931
ssg25
I01
sba(iSong
Song
p1598
(dp1599
g3
(dp1600
g5
F0.6226279678979105
sg6
VBust Your Windows
p1601
sg8
F0.339917959061299
sg9
F0.6337854500616523
sg10
S'r_b'
p1602
sg12
F0.012834457254731344
sg13
VJazmine Sullivan
p1603
sg15
I9999
sg16
F0.6086956521739132
sg17
Nsg18
Nsg19
Nsg20
F1e-07
sg21
F0.887940234791889
sg22
Nsg23
Nsg24
F0.9067728280588591
ssg25
I01
sba(iSong
Song
p1604
(dp1605
g3
(dp1606
g5
F0.013392076807941947
sg6
VUmbrella
p1607
sg8
F0.7969486767150916
sg9
F0.8273736128236745
sg10
S'r_b'
p1608
sg12
F0.2712638677398303
sg13
VRihanna
p1609
sg15
I9999
sg16
F0.45277361319340326
sg17
Nsg18
Nsg19
Nsg20
F1e-07
sg21
F0.5517609391675561
sg22
Nsg23
Nsg24
F0.8874722838137472
ssg25
I01
sba(iSong
Song
p1610
(dp1611
g3
(dp1612
g5
F0.043026199574241
sg6
VWhere My Girls At
p1613
sg8
F0.2389885251710322
sg9
F0.7225647348951911
sg10
S'r_b'
p1614
sg12
F0.05373069393082444
sg13
V702
p1615
sg15
I9999
sg16
F0.6626686656671664
sg17
Nsg18
Nsg19
Nsg20
F0.0035623409669211193
sg21
F0.7716115261472786
sg22
Nsg23
Nsg24
F0.7412819995968555
ssg25
I01
sba(iSong
Song
p1616
(dp1617
g3
(dp1618
g5
F0.35869906201055946
sg6
VWhere the Party At
p1619
sg8
F0.4932336667666059
sg9
F0.6300863131935882
sg10
S'r_b'
p1620
sg12
F0.4322384163584947
sg13
VJagged Edge
p1621
sg15
I9999
sg16
F0.47826086956521735
sg17
Nsg18
Nsg19
Nsg20
F1e-07
sg21
F0.8815368196371398
sg22
Nsg23
Nsg24
F0.8056843378351138
ssg25
I01
sba(iSong
Song
p1622
(dp1623
g3
(dp1624
g5
F0.20358295065571283
sg6
VSo Gone
p1625
sg8
F0.16945814821881214
sg9
F0.49568434032059194
sg10
S'r_b'
p1626
sg12
F0.15401348705677617
sg13
VMonica
p1627
sg15
I9999
sg16
F0.5112443778110944
sg17
Nsg18
Nsg19
Nsg20
F1e-07
sg21
F0.5891141942369263
sg22
Nsg23
Nsg24
F0.7742390647046966
ssg25
I01
sba(iSong
Song
p1628
(dp1629
g3
(dp1630
g5
F0.03214492012099057
sg6
V4Ever (feat. Fabolous)
p1631
sg8
F0.2858690615715882
sg9
F0.6251541307028361
sg10
S'r_b'
p1632
sg12
F0.15597128562105722
sg13
VLil' Mo
p1633
sg15
I9999
sg16
F0.6086956521739132
sg17
Nsg18
Nsg19
Nsg20
F5.712468193384224e-05
sg21
F0.7790821771611527
sg22
Nsg23
Nsg24
F0.5824934489014312
ssg25
I01
sba(iSong
Song
p1634
(dp1635
g3
(dp1636
g5
F0.0027307381095976356
sg6
VCrazy In Love
p1637
sg8
F0.28659134890566657
sg9
F0.7644882860665845
sg10
S'r_b'
p1638
sg12
F0.4322384163584947
sg13
VBeyonc
p1639
sg15
I9999
sg16
F0.5532233883058472
sg17
Nsg18
Nsg19
Nsg20
F1e-07
sg21
F0.6905016008537888
sg22
Nsg23
Nsg24
F0.7876940133037693
ssg25
I01
sba(iSong
Song
p1640
(dp1641
g3
(dp1642
g5
F0.13297039250164086
sg6
V1 Thing
p1643
sg8
F0.46321104418217984
sg9
F0.9815043156596794
sg10
S'r_b'
p1644
sg12
F0.662823580596041
sg13
VAmerie
p1645
sg15
I9999
sg16
F0.5382308845577212
sg17
Nsg18
Nsg19
Nsg20
F4.770992366412213e-05
sg21
F0.9146211312700107
sg22
Nsg23
Nsg24
F0.8840959483975005
ssg25
I01
sba(iSong
Song
p1646
(dp1647
g3
(dp1648
g5
F0.2834561721742533
sg6
VBad Girl
p1649
sg8
F0.21049905966365942
sg9
F0.8372379778051787
sg10
S'r_b'
p1650
sg12
F0.5236023493582772
sg13
VUsher
p1651
sg15
I9999
sg16
F0.7496251874062969
sg17
Nsg18
Nsg19
Nsg20
F1e-07
sg21
F0.8548559231590181
sg22
Nsg23
Nsg24
F0.7721225559363031
ssg25
I01
sba(iSong
Song
p1652
(dp1653
g3
(dp1654
g5
F0.0030548613273540313
sg6
VPeaches And Cream
p1655
sg8
F1.0
sg9
F0.45622688039457465
sg10
S'r_b'
p1656
sg12
F0.667174244072221
sg13
V112
p1657
sg15
I9999
sg16
F0.5997001499250376
sg17
Nsg18
Nsg19
Nsg20
F1e-07
sg21
F0.7833511205976521
sg22
Nsg23
Nsg24
F0.8048780487804879
ssg25
I01
sba(iSong
Song
p1658
(dp1659
g3
(dp1660
g5
F0.5242334196504331
sg6
VFrontin' - Club Mix
p1661
sg8
F0.30597045435961734
sg9
F0.31319358816276205
sg10
S'r_b'
p1662
sg12
F0.22340656950184903
sg13
VPharrell Williams
p1663
sg15
I9999
sg16
F0.9250374812593704
sg17
Nsg18
Nsg19
Nsg20
F1.9974554707379135e-06
sg21
F0.7737459978655283
sg22
Nsg23
Nsg24
F0.8221124773231203
ssg25
I01
sba(iSong
Song
p1664
(dp1665
g3
(dp1666
g5
F0.6168400532951177
sg6
VGet Ur Freak On
p1667
sg8
F0.8228896944588296
sg9
F0.7398273736128237
sg10
S'r_b'
p1668
sg12
F0.4779203828583859
sg13
VMissy Elliott
p1669
sg15
I9999
sg16
F0.7796101949025488
sg17
Nsg18
Nsg19
Nsg20
F0.13740458015267173
sg21
F0.7534685165421559
sg22
Nsg23
Nsg24
F0.6479540415238862
ssg25
I01
sba(iSong
Song
p1670
(dp1671
g3
(dp1672
g5
F0.23136494074911823
sg6
VHit 'Em Up Style (Oops!) - Remix Radio Mix
p1673
sg8
F0.22414075063370492
sg9
F0.7694204685573367
sg10
S'r_b'
p1674
sg12
F0.04198390254513814
sg13
VBlu Cantrell
p1675
sg15
I9999
sg16
F0.6341829085457271
sg17
Nsg18
Nsg19
Nsg20
F1e-07
sg21
F0.6595517609391676
sg22
Nsg23
Nsg24
F0.8689780286232613
ssg25
I01
sba(iSong
Song
p1676
(dp1677
g3
(dp1678
g5
F0.051245038310206756
sg6
VSoldier ft Lil Wayne
p1679
sg8
F0.1388972171495543
sg9
F0.32922318125770655
sg10
S'r_b'
p1680
sg12
F0.7259082010006526
sg13
VDestiny's Child
p1681
sg15
I9999
sg16
F0.9010494752623689
sg17
Nsg18
Nsg19
Nsg20
F1e-07
sg21
F0.928495197438634
sg22
Nsg23
Nsg24
F0.777464220923201
ssg25
I01
sba(iSong
Song
p1682
(dp1683
g3
(dp1684
g5
F0.30429266474430733
sg6
VFallin'
p1685
sg8
F0.2649022867889558
sg9
F0.5659679408138101
sg10
S'r_b'
p1686
sg12
F0.021100717859473563
sg13
VAlicia Keys
p1687
sg15
I9999
sg16
F0.5637181409295353
sg17
Nsg18
Nsg19
Nsg20
F0.0012849872773536895
sg21
F0.4781216648879402
sg22
Nsg23
Nsg24
F0.7411812134650272
ssg25
I01
sba(iSong
Song
p1688
(dp1689
g3
(dp1690
g5
F0.5288637513326674
sg6
VWhen I See U
p1691
sg8
F0.24549592520919075
sg9
F0.5499383477188656
sg10
S'r_b'
p1692
sg12
F0.3125951707635415
sg13
VFantasia
p1693
sg15
I9999
sg16
F0.4377811094452773
sg17
Nsg18
Nsg19
Nsg20
F0.0001143765903307888
sg21
F0.7716115261472786
sg22
Nsg23
Nsg24
F0.7932372505543237
ssg25
I01
sba(iSong
Song
p1694
(dp1695
g3
(dp1696
g5
F0.19663745313236153
sg6
VSlow Down - 12" Version
p1697
sg8
F0.8790918258878683
sg9
F0.7348951911220716
sg10
S'r_b'
p1698
sg12
F0.16032194909723732
sg13
VBobby V.
p1699
sg15
I9999
sg16
F0.42878560719640174
sg17
Nsg18
Nsg19
Nsg20
F7.099236641221374e-06
sg21
F0.6019210245464247
sg22
Nsg23
Nsg24
F0.876587381576295
ssg25
I01
sba(iSong
Song
p1700
(dp1701
g3
(dp1702
g5
F0.26146209668364073
sg6
VMe, Myself and I
p1703
sg8
F0.18059908964539778
sg9
F0.37977805178791624
sg10
S'r_b'
p1704
sg12
F0.1152925821187731
sg13
VBeyonc
p1705
sg15
I9999
sg16
F0.7091454272863569
sg17
Nsg18
Nsg19
Nsg20
F4.1348600508905844e-05
sg21
F0.535752401280683
sg22
Nsg23
Nsg24
F0.6619129207821003
ssg25
I01
sba(iSong
Song
p1706
(dp1707
g3
(dp1708
g5
F0.08331008520967877
sg6
VU Know What's Up
p1709
sg8
F0.31283218403336155
sg9
F0.4155363748458693
sg10
S'r_b'
p1710
sg12
F0.05612355884272351
sg13
VDonell Jones
p1711
sg15
I9999
sg16
F0.8245877061469266
sg17
Nsg18
Nsg19
Nsg20
F0.0017811704834605597
sg21
F0.8900747065101388
sg22
Nsg23
Nsg24
F0.7938419673452932
ssg25
I01
sba(iSong
Song
p1712
(dp1713
g3
(dp1714
g5
F0.5080272587626133
sg6
VJust Friends (Sunny)
p1715
sg8
F0.2583676306249829
sg9
F0.2860665844636252
sg10
S'r_b'
p1716
sg12
F0.29519251685882103
sg13
VMusiq Soulchild
p1717
sg15
I9999
sg16
F0.7151424287856073
sg17
Nsg18
Nsg19
Nsg20
F1e-07
sg21
F0.5891141942369263
sg22
Nsg23
Nsg24
F0.7256601491634751
ssg25
I01
sba(iSong
Song
p1718
(dp1719
g3
(dp1720
g5
F0.1977950360529201
sg6
VAmerican Boy (feat. Kanye West)
p1721
sg8
F0.4144702771947995
sg9
F0.7139334155363748
sg10
S'r_b'
p1722
sg12
F0.6497715901675006
sg13
VEstelle
p1723
sg15
I9999
sg16
F0.6746626686656672
sg17
Nsg18
Nsg19
Nsg20
F1e-07
sg21
F0.5101387406616863
sg22
Nsg23
Nsg24
F0.969411408990123
ssg25
I01
sba(iSong
Song
p1724
(dp1725
g3
(dp1726
g5
F0.2533590162397308
sg6
VInto You (feat. Fabolous)
p1727
sg8
F0.2316634413584453
sg9
F0.46979038224414305
sg10
S'r_b'
p1728
sg12
F0.011746791385686314
sg13
VTamia
p1729
sg15
I9999
sg16
F0.5997001499250376
sg17
Nsg18
Nsg19
Nsg20
F1e-07
sg21
F0.5720384204909285
sg22
Nsg23
Nsg24
F0.7329167506551099
ssg25
I01
sba(iSong
Song
p1730
(dp1731
g3
(dp1732
g5
F0.2834561721742533
sg6
VI Need A Girl
p1733
sg8
F0.18351549510752538
sg9
F0.7829839704069051
sg10
S'r_b'
p1734
sg12
F0.06634761801174678
sg13
VTrey Songz
p1735
sg15
I9999
sg16
F0.4872563718140929
sg17
Nsg18
Nsg19
Nsg20
F1e-07
sg21
F0.5667022411953041
sg22
Nsg23
Nsg24
F0.8112275750856681
ssg25
I01
sba(iSong
Song
p1736
(dp1737
g3
(dp1738
g5
F0.05170807147843018
sg6
VSpotlight
p1739
sg8
F0.3534983237482624
sg9
F0.7077681874229347
sg10
S'r_b'
p1740
sg12
F0.051555362192734384
sg13
VJennifer Hudson
p1741
sg15
I9999
sg16
F0.6446776611694153
sg17
Nsg18
Nsg19
Nsg20
F1e-07
sg21
F0.6670224119530417
sg22
Nsg23
Nsg24
F0.9242088288651481
ssg25
I01
sba(iSong
Song
p1742
(dp1743
g3
(dp1744
g5
F0.7603803354443788
sg6
VMust Be Nice
p1745
sg8
F0.17604731663441353
sg9
F0.30949445129469794
sg10
S'r_b'
p1746
sg12
F0.7715901675005439
sg13
VLyfe Jennings
p1747
sg15
I9999
sg16
F0.25337331334332835
sg17
Nsg18
Nsg19
Nsg20
F1e-07
sg21
F0.6542155816435432
sg22
Nsg23
Nsg24
F0.5540717597258618
ssg25
I01
sba(iSong
Song
p1748
(dp1749
g3
(dp1750
g5
F0.6342037971034961
sg6
VFabulous
p1751
sg8
F0.128621657717572
sg9
F0.38717632552404446
sg10
S'r_b'
p1752
sg12
F0.07417881226887102
sg13
VJaheim
p1753
sg15
I9999
sg16
F0.5697151424287856
sg17
Nsg18
Nsg19
Nsg20
F1e-07
sg21
F0.6019210245464247
sg22
Nsg23
Nsg24
F0.7384599879056641
ssg25
I01
sba(iSong
Song
p1754
(dp1755
g3
(dp1756
g5
F0.03399705279388426
sg6
VDroptop in the Rain (feat. Tory Lanez)
p1757
sg8
F0.5510779797759546
sg9
F0.531442663378545
sg10
S'r_b'
p1758
sg12
F0.12073091146399825
sg13
VTy Dolla $ign
p1759
sg15
I9999
sg16
F0.679160419790105
sg17
Nsg18
Nsg19
Nsg20
F1.6539440203562338e-05
sg21
F0.3468516542155816
sg22
Nsg23
Nsg24
F0.8261439225962506
ssg25
I01
sba(iSong
Song
p1760
(dp1761
g3
(dp1762
g5
F0.08782465859985715
sg6
VCovered In You
p1763
sg8
F0.4093597536046226
sg9
F0.3662145499383478
sg10
S'r_b'
p1764
sg12
F0.05829889058081358
sg13
VChris Brown
p1765
sg15
I9999
sg16
F0.4227886056971515
sg17
Nsg18
Nsg19
Nsg20
F1e-07
sg21
F0.18356456776947705
sg22
Nsg23
Nsg24
F0.7812437008667606
ssg25
I01
sba(iSong
Song
p1766
(dp1767
g3
(dp1768
g5
F0.8518293861685047
sg6
VBalcony
p1769
sg8
F0.25724331543514406
sg9
F0.4315659679408138
sg10
S'r_b'
p1770
sg12
F0.14378942788775287
sg13
VYade Lauren
p1771
sg15
I9999
sg16
F0.4272863568215893
sg17
Nsg18
Nsg19
Nsg20
F4.3511450381679385e-06
sg21
F0.3489861259338313
sg22
Nsg23
Nsg24
F0.8548679701673049
ssg25
I01
sba(iSong
Song
p1772
(dp1773
g3
(dp1774
g5
F0.04267892469807343
sg6
VFeeling Like Love
p1775
sg8
F0.2857259669110632
sg9
F0.23057953144266344
sg10
S'r_b'
p1776
sg12
F0.26256254078747004
sg13
VRay J
p1777
sg15
I9999
sg16
F0.8620689655172414
sg17
Nsg18
Nsg19
Nsg20
F1e-07
sg21
F0.30416221985058706
sg22
Nsg23
Nsg24
F0.4799435597661762
ssg25
I01
sba(iSong
Song
p1778
(dp1779
g3
(dp1780
g5
F0.028787929651370753
sg6
VGave Your Love Away
p1781
sg8
F0.29902014227697676
sg9
F0.3945745992601726
sg10
S'r_b'
p1782
sg12
F0.015227322166630402
sg13
VMajid Jordan
p1783
sg15
I9999
sg16
F0.823088455772114
sg17
Nsg18
Nsg19
Nsg20
F0.004287531806615776
sg21
F0.5410885805763074
sg22
Nsg23
Nsg24
F0.8435799234025398
ssg25
I01
sba(iSong
Song
p1784
(dp1785
g3
(dp1786
g5
F0.16538271427728046
sg6
VConditional
p1787
sg8
F0.30540488974897106
sg9
F0.48458692971639955
sg10
S'r_b'
p1788
sg12
F0.022405916902327606
sg13
VBrandy Haze
p1789
sg15
I9999
sg16
F0.616191904047976
sg17
Nsg18
Nsg19
Nsg20
F2.150127226463104e-06
sg21
F0.28068303094983993
sg22
Nsg23
Nsg24
F0.6982463213061882
ssg25
I01
sba(iSong
Song
p1790
(dp1791
g3
(dp1792
g5
F0.27882584049201903
sg6
VYou Like
p1793
sg8
F0.2575431328191011
sg9
F0.406905055487053
sg10
S'r_b'
p1794
sg12
F0.3365238198825321
sg13
VChris Brown
p1795
sg15
I9999
sg16
F0.5937031484257872
sg17
Nsg18
Nsg19
Nsg20
F1e-07
sg21
F0.5421558164354323
sg22
Nsg23
Nsg24
F0.6791473493247329
ssg25
I01
sba(iSong
Song
p1796
(dp1797
g3
(dp1798
g5
F0.16306754843616333
sg6
VObsessed
p1799
sg8
F0.26424813976941314
sg9
F0.5117139334155363
sg10
S'r_b'
p1800
sg12
F0.038503371764194036
sg13
VSon Kuma
p1801
sg15
I9999
sg16
F0.9055472263868066
sg17
Nsg18
Nsg19
Nsg20
F1e-07
sg21
F0.3874066168623266
sg22
Nsg23
Nsg24
F0.7231404958677686
ssg25
I01
sba(iSong
Song
p1802
(dp1803
g3
(dp1804
g5
F0.18737678976789307
sg6
VNuh Time / Tek Time
p1805
sg8
F0.4079901332824552
sg9
F0.16152897657213322
sg10
S'r_b'
p1806
sg12
F0.07678921035457907
sg13
Vdvsn
p1807
sg15
I9999
sg16
F0.39880059970014997
sg17
Nsg18
Nsg19
Nsg20
F0.004134860050890585
sg21
F0.03692636072572038
sg22
Nsg23
Nsg24
F0.5353255392058053
ssg25
I01
sba(iSong
Song
p1808
(dp1809
g3
(dp1810
g5
F0.7464893403976761
sg6
VDragon
p1811
sg8
F0.3306985745046199
sg9
F0.23427866831072755
sg10
S'r_b'
p1812
sg12
F0.10180552534261474
sg13
VLVNDVN
p1813
sg15
I9999
sg16
F0.5727136431784109
sg17
Nsg18
Nsg19
Nsg20
F0.16030534351145037
sg21
F0.3020277481323373
sg22
Nsg23
Nsg24
F0.36565208627292883
ssg25
I01
sba(iSong
Song
p1814
(dp1815
g3
(dp1816
g5
F0.17695854348286605
sg6
VPrivacy
p1817
sg8
F0.2724658617024176
sg9
F0.530209617755857
sg10
S'r_b'
p1818
sg12
F0.7628888405481836
sg13
VChris Brown
p1819
sg15
I9999
sg16
F0.6956521739130435
sg17
Nsg18
Nsg19
Nsg20
F1e-07
sg21
F0.4204909284951975
sg22
Nsg23
Nsg24
F0.7299939528320903
ssg25
I01
sba(iSong
Song
p1820
(dp1821
g3
(dp1822
g5
F0.7939502401405769
sg6
VFMN
p1823
sg8
F0.41541742756684563
sg9
F0.5141800246609124
sg10
S'r_b'
p1824
sg12
F0.09353926473787252
sg13
VJR Castro
p1825
sg15
I9999
sg16
F0.671664167916042
sg17
Nsg18
Nsg19
Nsg20
F1e-07
sg21
F0.8057630736392744
sg22
Nsg23
Nsg24
F0.6741080427333199
ssg25
I01
sba(iSong
Song
p1826
(dp1827
g3
(dp1828
g5
F0.09627501391993461
sg6
VWho's Gonna (NOBODY)
p1829
sg8
F0.42078688435225814
sg9
F0.3773119605425402
sg10
S'r_b'
p1830
sg12
F0.06830541657602784
sg13
VChris Brown
p1831
sg15
I9999
sg16
F0.535232383808096
sg17
Nsg18
Nsg19
Nsg20
F1e-07
sg21
F0.4204909284951975
sg22
Nsg23
Nsg24
F0.6765269098971981
ssg25
I01
sba(iSong
Song
p1832
(dp1833
g3
(dp1834
g5
F0.014318143144388793
sg6
VOver
p1835
sg8
F0.5047630079860449
sg9
F0.5474722564734895
sg10
S'r_b'
p1836
sg12
F0.008918860126169232
sg13
VPlaza
p1837
sg15
I9999
sg16
F0.3688155922038981
sg17
Nsg18
Nsg19
Nsg20
F0.00032315521628498725
sg21
F0.10779082177161153
sg22
Nsg23
Nsg24
F0.81661963313848
ssg25
I01
sba(iSong
Song
p1838
(dp1839
g3
(dp1840
g5
F0.602949058248415
sg6
VXana White
p1841
sg8
F0.49007195617214966
sg9
F0.5659679408138101
sg10
S'r_b'
p1842
sg12
F0.06308462040461171
sg13
VElijah Blake
p1843
sg15
I9999
sg16
F0.6986506746626687
sg17
Nsg18
Nsg19
Nsg20
F1e-07
sg21
F0.38954108858057634
sg22
Nsg23
Nsg24
F0.7193106228582947
ssg25
I01
sba(iSong
Song
p1844
(dp1845
g3
(dp1846
g5
F0.09523318929143192
sg6
VSpecial
p1847
sg8
F0.2643435362097632
sg9
F0.6202219482120839
sg10
S'r_b'
p1848
sg12
F0.6454209266913205
sg13
VLex Aura
p1849
sg15
I9999
sg16
F0.5712143928035983
sg17
Nsg18
Nsg19
Nsg20
F1e-07
sg21
F0.2369263607257204
sg22
Nsg23
Nsg24
F0.7176476516831284
ssg25
I01
sba(iSong
Song
p1850
(dp1851
g3
(dp1852
g5
F0.5323365000943431
sg6
VRed Rum Melody
p1853
sg8
F0.9423737359971655
sg9
F0.25400739827373614
sg10
S'r_b'
p1854
sg12
F0.7563628453339134
sg13
VTiffany Gouch
p1855
sg15
I9999
sg16
F0.31634182908545727
sg17
Nsg18
Nsg19
Nsg20
F1e-07
sg21
F0.24866595517609394
sg22
Nsg23
Nsg24
F0.7438016528925621
ssg25
I01
sba(iSong
Song
p1856
(dp1857
g3
(dp1858
g5
F0.3864810521039649
sg6
VSativa
p1859
sg8
F0.46963667584289565
sg9
F0.5795314426633785
sg10
S'r_b'
p1860
sg12
F0.043289101587992165
sg13
VJhene Aiko
p1861
sg15
I9999
sg16
F0.6956521739130435
sg17
Nsg18
Nsg19
Nsg20
F1e-07
sg21
F0.7107790821771611
sg22
Nsg23
Nsg24
F0.7452126587381576
ssg25
I01
sba(iSong
Song
p1862
(dp1863
g3
(dp1864
g5
F0.10530416070029136
sg6
VCollide (feat. Tyga)
p1865
sg8
F0.5640314535691897
sg9
F0.1960542540073983
sg10
S'r_b'
p1866
sg12
F0.06351968675222971
sg13
VJustine Skye
p1867
sg15
I9999
sg16
F0.44077961019490247
sg17
Nsg18
Nsg19
Nsg20
F1e-07
sg21
F0.10565635005336181
sg22
Nsg23
Nsg24
F0.6230094738963918
ssg25
I01
sba(iSong
Song
p1868
(dp1869
g3
(dp1870
g5
F0.10078958731011299
sg6
VBeretta
p1871
sg8
F0.7012933031698875
sg9
F0.5819975339087546
sg10
S'r_b'
p1872
sg12
F0.593212964977159
sg13
VMatt Black
p1873
sg15
I9999
sg16
F0.38380809595202403
sg17
Nsg18
Nsg19
Nsg20
F2.366412213740458e-06
sg21
F0.2838847385272145
sg22
Nsg23
Nsg24
F0.7417355371900827
ssg25
I01
sba(iSong
Song
p1874
(dp1875
g3
(dp1876
g5
F0.09685380538021389
sg6
VSip
p1877
sg8
F0.3266237836953856
sg9
F0.36744759556103584
sg10
S'r_b'
p1878
sg12
F0.11268218403306504
sg13
VChris Brown
p1879
sg15
I9999
sg16
F0.6131934032983509
sg17
Nsg18
Nsg19
Nsg20
F1e-07
sg21
F0.17395944503735328
sg22
Nsg23
Nsg24
F0.7115500907075186
ssg25
I01
sba(iSong
Song
p1880
(dp1881
g3
(dp1882
g5
F0.22789219198744257
sg6
VDysfunctional (feat. SAKIMA)
p1883
sg8
F0.5640791517893647
sg9
F0.4217016029593095
sg10
S'r_b'
p1884
sg12
F0.07309114639982599
sg13
VSATICA
p1885
sg15
I9999
sg16
F0.6506746626686657
sg17
Nsg18
Nsg19
Nsg20
F1e-07
sg21
F0.5090715048025614
sg22
Nsg23
Nsg24
F0.7631525902035879
ssg25
I01
sba(iSong
Song
p1886
(dp1887
g3
(dp1888
g5
F0.16538271427728046
sg6
VPersonal
p1889
sg8
F0.6324715854888388
sg9
F0.9062885326757091
sg10
S'r_b'
p1890
sg12
F0.24298455514465958
sg13
VPlaza
p1891
sg15
I9999
sg16
F0.2038980509745127
sg17
Nsg18
Nsg19
Nsg20
F1e-07
sg21
F0.4834578441835646
sg22
Nsg23
Nsg24
F0.9161963313848015
ssg25
I01
sba(iSong
Song
p1892
(dp1893
g3
(dp1894
g5
F0.9490663514954234
sg6
VAll I See Is You
p1895
sg8
F0.510929706451525
sg9
F0.4007398273736128
sg10
S'r_b'
p1896
sg12
F0.07309114639982599
sg13
VMeaku
p1897
sg15
I9999
sg16
F0.5172413793103449
sg17
Nsg18
Nsg19
Nsg20
F7.646310432569974e-06
sg21
F0.7459978655282817
sg22
Nsg23
Nsg24
F0.8272525700463615
ssg25
I01
sba(iSong
Song
p1898
(dp1899
g3
(dp1900
g5
F0.24178318703414522
sg6
VBang Your Line (feat. Ty Dolla $ign)
p1901
sg8
F0.26800948513178335
sg9
F0.3304562268803946
sg10
S'r_b'
p1902
sg12
F0.4561670654774853
sg13
VELHAE
p1903
sg15
I9999
sg16
F0.5142428785607197
sg17
Nsg18
Nsg19
Nsg20
F1e-07
sg21
F0.2849519743863394
sg22
Nsg23
Nsg24
F0.6599475912114493
ssg25
I01
sba(iSong
Song
p1904
(dp1905
g3
(dp1906
g5
F0.8506718032479461
sg6
VAlone
p1907
sg8
F0.4692482760500423
sg9
F0.3267570900123305
sg10
S'r_b'
p1908
sg12
F0.0968022623450076
sg13
VYo Trane
p1909
sg15
I9999
sg16
F0.7781109445277362
sg17
Nsg18
Nsg19
Nsg20
F1e-07
sg21
F0.18996798292422626
sg22
Nsg23
Nsg24
F0.5664684539407377
ssg25
I01
sba(iSong
Song
p1910
(dp1911
g3
(dp1912
g5
F0.9583270148598919
sg6
VWaiting for You
p1913
sg8
F0.48293085120880913
sg9
F0.593094944512947
sg10
S'r_b'
p1914
sg12
F0.19947792038285836
sg13
VRexx Life Raj
p1915
sg15
I9999
sg16
F0.7451274362818592
sg17
Nsg18
Nsg19
Nsg20
F0.0003702290076335878
sg21
F0.647812166488794
sg22
Nsg23
Nsg24
F0.6100584559564604
ssg25
I01
sba(iSong
Song
p1916
(dp1917
g3
(dp1918
g5
F0.24062560411358666
sg6
VAddicted
p1919
sg8
F0.56519665294775
sg9
F0.4636251541307029
sg10
S'r_b'
p1920
sg12
F0.07265608005220796
sg13
VTOTEM
p1921
sg15
I9999
sg16
F0.5307346326836582
sg17
Nsg18
Nsg19
Nsg20
F1e-07
sg21
F0.27427961579509075
sg22
Nsg23
Nsg24
F0.8305785123966941
ssg25
I01
sba(iSong
Song
p1922
(dp1923
g3
(dp1924
g5
F0.48256043451032504
sg6
VFvrs
p1925
sg8
F0.3239254272397722
sg9
F0.43033292231812575
sg10
S'r_b'
p1926
sg12
F0.07309114639982599
sg13
VMoxiie
p1927
sg15
I9999
sg16
F0.37031484257871067
sg17
Nsg18
Nsg19
Nsg20
F8.676844783715013e-05
sg21
F0.368196371398079
sg22
Nsg23
Nsg24
F0.684992944970772
ssg25
I01
sba(iSong
Song
p1928
(dp1929
g3
(dp1930
g5
F0.2880865038564875
sg6
VMoon Lit District
p1931
sg8
F0.37248902940935974
sg9
F0.3341553637484587
sg10
S'r_b'
p1932
sg12
F0.021100717859473563
sg13
VLVNDVN
p1933
sg15
I9999
sg16
F0.3268365817091454
sg17
Nsg18
Nsg19
Nsg20
F0.6552162849872774
sg21
F0.1526147278548559
sg22
Nsg23
Nsg24
F0.494960693408587
ssg25
I01
sba(iSong
Song
p1934
(dp1935
g3
(dp1936
g5
F0.521918253809316
sg6
VFalling Autumn
p1937
sg8
F0.5042451415955737
sg9
F0.3847102342786684
sg10
S'r_b'
p1938
sg12
F0.046117032847509246
sg13
Valayna
p1939
sg15
I9999
sg16
F0.6281859070464767
sg17
Nsg18
Nsg19
Nsg20
F1.4376590330788803e-06
sg21
F0.23265741728922093
sg22
Nsg23
Nsg24
F0.8060874823624269
ssg25
I01
sba(iSong
Song
p1940
(dp1941
g3
(dp1942
g5
F0.621470384977352
sg6
VTalk
p1943
sg8
F1e-07
sg9
F0.17385943279901356
sg10
S'r_b'
p1944
sg12
F0.0006525995214270137
sg13
VJulius
p1945
sg15
I9999
sg16
F0.2593703148425787
sg17
Nsg18
Nsg19
Nsg20
F1e-07
sg21
F0.15901814300960512
sg22
Nsg23
Nsg24
F0.5783108244305584
ssg25
I01
sba(iSong
Song
p1946
(dp1947
g3
(dp1948
g5
F0.665458535958577
sg6
VLovely
p1949
sg8
F0.5894682329853635
sg9
F0.3982737361282367
sg10
S'r_b'
p1950
sg12
F0.05351316075701545
sg13
VBrent Faiyaz
p1951
sg15
I9999
sg16
F0.1619190404797601
sg17
Nsg18
Nsg19
Nsg20
F3.66412213740458e-05
sg21
F0.025080042689434368
sg22
Nsg23
Nsg24
F0.6838842975206612
ssg25
I01
sba(iSong
Song
p1952
(dp1953
g3
(dp1954
g5
F0.06872454041064097
sg6
VHard To Do
p1955
sg8
F0.5988647823598354
sg9
F0.3390875462392109
sg10
S'r_b'
p1956
sg12
F0.3604524690015228
sg13
VK. Michelle
p1957
sg15
I9999
sg16
F0.43328335832083953
sg17
Nsg18
Nsg19
Nsg20
F1e-07
sg21
F0.07790821771611527
sg22
Nsg23
Nsg24
F0.7040919169522273
ssg25
I01
sba(iSong
Song
p1958
(dp1959
g3
(dp1960
g5
F0.16190996551560483
sg6
VMake It Last
p1961
sg8
F0.4557564937719752
sg9
F0.4352651048088779
sg10
S'r_b'
p1962
sg12
F0.11638024798781813
sg13
VP-Lo
p1963
sg15
I9999
sg16
F0.8290854572713643
sg17
Nsg18
Nsg19
Nsg20
F0.0001768447837150127
sg21
F0.38847385272145146
sg22
Nsg23
Nsg24
F0.7003124370086676
ssg25
I01
sba(iSong
Song
p1964
(dp1965
g3
(dp1966
g5
F0.8101564010283966
sg6
VDon't Worry
p1967
sg8
F0.13559241189457327
sg9
F1e-07
sg10
S'r_b'
p1968
sg12
F0.3800304546443333
sg13
VFriyie
p1969
sg15
I9999
sg16
F0.1334332833583208
sg17
Nsg18
Nsg19
Nsg20
F0.0023155216284987275
sg21
F0.30629669156883677
sg22
Nsg23
Nsg24
F1e-07
ssg25
I01
sba(iSong
Song
p1970
(dp1971
g3
(dp1972
g5
F0.16538271427728046
sg6
VHello Ego
p1973
sg8
F0.42910000272561255
sg9
F0.40197287299630086
sg10
S'r_b'
p1974
sg12
F0.10550358929736785
sg13
VJhene Aiko
p1975
sg15
I9999
sg16
F0.6731634182908546
sg17
Nsg18
Nsg19
Nsg20
F1e-07
sg21
F0.3820704375667022
sg22
Nsg23
Nsg24
F0.6451824228986092
ssg25
I01
sba(iSong
Song
p1976
(dp1977
g3
(dp1978
g5
F0.4188933738796044
sg6
VUpps
p1979
sg8
F0.1913652593420371
sg9
F0.03945745992601726
sg10
S'r_b'
p1980
sg12
F0.12486404176636935
sg13
VWILLS
p1981
sg15
I9999
sg16
F0.05697151424287854
sg17
Nsg18
Nsg19
Nsg20
F3.625954198473282e-06
sg21
F0.21237993596584848
sg22
Nsg23
Nsg24
F0.25403144527313043
ssg25
I01
sba(iSong
Song
p1982
(dp1983
g3
(dp1984
g5
F0.7522772550004688
sg6
VBuzzin
p1985
sg8
F0.6300594183542751
sg9
F0.38594327990135646
sg10
S'r_b'
p1986
sg12
F0.810746138786165
sg13
VAlina Baraz
p1987
sg15
I9999
sg16
F0.42878560719640174
sg17
Nsg18
Nsg19
Nsg20
F6.195928753180661e-06
sg21
F0.25827107790821774
sg22
Nsg23
Nsg24
F0.6540012094335819
ssg25
I01
sba(iSong
Song
p1988
(dp1989
g3
(dp1990
g5
F0.05344444585926802
sg6
VThe Wall
p1991
sg8
F0.619020687399493
sg9
F0.45745992601726265
sg10
S'r_b'
p1992
sg12
F0.048074831411790295
sg13
Vanders
p1993
sg15
I9999
sg16
F0.7421289355322339
sg17
Nsg18
Nsg19
Nsg20
F1e-07
sg21
F0.49413020277481323
sg22
Nsg23
Nsg24
F0.7007659746018947
ssg25
I01
sba(iSong
Song
p1994
(dp1995
g3
(dp1996
g5
F0.6122097216128835
sg6
VBlack & Blue
p1997
sg8
F0.2521600479707814
sg9
F0.39087546239210863
sg10
S'r_b'
p1998
sg12
F0.6519469219055907
sg13
VElijah Blake
p1999
sg15
I9999
sg16
F0.3898050974512744
sg17
Nsg18
Nsg19
Nsg20
F1e-07
sg21
F0.272145144076841
sg22
Nsg23
Nsg24
F0.7363938722031848
ssg25
I01
sba(iSong
Song
p2000
(dp2001
g3
(dp2002
g5
F0.07011363991531123
sg6
VThink About Me
p2003
sg8
F0.3265352012864891
sg9
F0.17755856966707767
sg10
S'r_b'
p2004
sg12
F0.04546443332608222
sg13
Vdvsn
p2005
sg15
I9999
sg16
F0.4047976011994004
sg17
Nsg18
Nsg19
Nsg20
F1.0
sg21
F0.08110992529348987
sg22
Nsg23
Nsg24
F0.6059766176174158
ssg25
I01
sba(iSong
Song
p2006
(dp2007
g3
(dp2008
g5
F0.49297868079535206
sg6
VGet You (feat. Kali Uchis)
p2009
sg8
F0.11536836654037998
sg9
F0.17879161528976573
sg10
S'r_b'
p2010
sg12
F0.010659125516641284
sg13
VDaniel Caesar
p2011
sg15
I9999
sg16
F0.5727136431784109
sg17
Nsg18
Nsg19
Nsg20
F8.842239185750635e-05
sg21
F0.3479188900747065
sg22
Nsg23
Nsg24
F0.6903346099576698
ssg25
I01
sba(iSong
Song
p2012
(dp2013
g3
(dp2014
g5
F0.8159443156311894
sg6
VNo.Body
p2015
sg8
F0.25531494453378395
sg9
F0.18495684340320592
sg10
S'r_b'
p2016
sg12
F0.1342179682401566
sg13
VWasionkey
p2017
sg15
I9999
sg16
F0.4377811094452773
sg17
Nsg18
Nsg19
Nsg20
F1e-07
sg21
F0.2977588046958378
sg22
Nsg23
Nsg24
F0.422243499294497
ssg25
I01
sba(iSong
Song
p2018
(dp2019
g3
(dp2020
g5
F0.5508578268232799
sg6
VUnravel Me
p2021
sg8
F0.15062416528114692
sg9
F0.33168927250308267
sg10
S'r_b'
p2022
sg12
F0.33869915162062214
sg13
VSabrina Claudio
p2023
sg15
I9999
sg16
F0.16491754122938532
sg17
Nsg18
Nsg19
Nsg20
F0.00227735368956743
sg21
F0.32337246531483466
sg22
Nsg23
Nsg24
F0.676476516831284
ssg25
I01
sba(iSong
Song
p2024
(dp2025
g3
(dp2026
g5
F0.5265485854915503
sg6
VShow and Tell (feat. Eric Bellinger)
p2027
sg8
F0.21079887704761646
sg9
F0.7102342786683107
sg10
S'r_b'
p2028
sg12
F0.5257776810963672
sg13
VSammie
p2029
sg15
I9999
sg16
F0.6086956521739132
sg17
Nsg18
Nsg19
Nsg20
F1e-07
sg21
F0.7097118463180363
sg22
Nsg23
Nsg24
F0.7756500705502922
ssg25
I01
sba(iSong
Song
p2030
(dp2031
g3
(dp2032
g5
F0.03330250304154912
sg6
VRewind
p2033
sg8
F0.40011311292212925
sg9
F0.6584463625154131
sg10
S'r_b'
p2034
sg12
F0.014574722645203396
sg13
VStan Sono
p2035
sg15
I9999
sg16
F0.5952023988005998
sg17
Nsg18
Nsg19
Nsg20
F1e-07
sg21
F0.21558164354322304
sg22
Nsg23
Nsg24
F0.8699354968756298
ssg25
I01
sba(iSong
Song
p2036
(dp2037
g3
(dp2038
g5
F0.3772203887394964
sg6
VToo Late
p2039
sg8
F0.47945569516748887
sg9
F0.36374845869297173
sg10
S'r_b'
p2040
sg12
F0.13051990428540353
sg13
VRayven Justice
p2041
sg15
I9999
sg16
F0.32533733133433285
sg17
Nsg18
Nsg19
Nsg20
F1e-07
sg21
F0.21878335112059766
sg22
Nsg23
Nsg24
F0.6344486998588994
ssg25
I01
sba(iSong
Song
p2042
(dp2043
g3
(dp2044
g5
F0.44899052981412696
sg6
VGrass Ain't Greener
p2045
sg8
F0.5235901768922565
sg9
F0.5561035758323057
sg10
S'r_b'
p2046
sg12
F0.0485098977594083
sg13
VChris Brown
p2047
sg15
I9999
sg16
F0.5502248875562219
sg17
Nsg18
Nsg19
Nsg20
F1e-07
sg21
F0.5165421558164355
sg22
Nsg23
Nsg24
F0.8632332191090505
ssg25
I01
sba(iSong
Song
p2048
(dp2049
g3
(dp2050
g5
F0.06791423236624998
sg6
VOne4Me
p2051
sg8
F0.01302161410777073
sg9
F0.4352651048088779
sg10
S'r_b'
p2052
sg12
F0.014139656297585372
sg13
VTravis Mills
p2053
sg15
I9999
sg16
F0.38680659670164924
sg17
Nsg18
Nsg19
Nsg20
F2.1755725190839692e-05
sg21
F0.24973319103521882
sg22
Nsg23
Nsg24
F0.7562487401733522
ssg25
I01
sba(iSong
Song
p2054
(dp2055
g3
(dp2056
g5
F0.8205746473134237
sg6
VNever Felt This Way
p2057
sg8
F0.43591403417918173
sg9
F0.35881627620221956
sg10
S'r_b'
p2058
sg12
F0.15118555579725906
sg13
VDavid Correy
p2059
sg15
I9999
sg16
F0.28785607196401797
sg17
Nsg18
Nsg19
Nsg20
F1e-07
sg21
F0.21131270010672362
sg22
Nsg23
Nsg24
F0.6391352549889134
ssg25
I01
sba(iSong
Song
p2060
(dp2061
g3
(dp2062
g5
F0.2799834234125776
sg6
VDon't
p2063
sg8
F0.2722886968846248
sg9
F0.22318125770653519
sg10
S'r_b'
p2064
sg12
F0.5105503589297369
sg13
VBryson Tiller
p2065
sg15
I9999
sg16
F0.6986506746626687
sg17
Nsg18
Nsg19
Nsg20
F1e-07
sg21
F0.19637139807897547
sg22
Nsg23
Nsg24
F0.8163676678089095
ssg25
I01
sba(iSong
Song
p2066
(dp2067
g3
(dp2068
g5
F0.765010667126613
sg6
VNeeds
p2069
sg8
F0.4602946387200523
sg9
F0.22318125770653519
sg10
S'r_b'
p2070
sg12
F0.13530563410920163
sg13
VELHAE
p2071
sg15
I9999
sg16
F0.34932533733133436
sg17
Nsg18
Nsg19
Nsg20
F1e-07
sg21
F0.20384204909284953
sg22
Nsg23
Nsg24
F0.46129812537794795
ssg25
I01
sba(iSong
Song
p2072
(dp2073
g3
(dp2074
g5
F0.0056941503862275415
sg6
VB.E.D.
p2075
sg8
F0.44221019924227967
sg9
F0.3982737361282367
sg10
S'r_b'
p2076
sg12
F0.07548401131172502
sg13
VJacquees
p2077
sg15
I9999
sg16
F0.679160419790105
sg17
Nsg18
Nsg19
Nsg20
F1e-07
sg21
F0.23479188900747067
sg22
Nsg23
Nsg24
F0.7086272928844991
ssg25
I01
sba(iSong
Song
p2078
(dp2079
g3
(dp2080
g5
F0.4999241783187034
sg6
VFlex Your Way Out (feat. Blackbear)
p2081
sg8
F0.7816375480389218
sg9
F0.38224414303329235
sg10
S'r_b'
p2082
sg12
F0.4735697193822058
sg13
VSofi de la Torre
p2083
sg15
I9999
sg16
F0.38680659670164924
sg17
Nsg18
Nsg19
Nsg20
F2.0101781170483462e-05
sg21
F0.31056563500533624
sg22
Nsg23
Nsg24
F0.70278169723846
ssg25
I01
sba(iSong
Song
p2084
(dp2085
g3
(dp2086
g5
F0.6434644604679646
sg6
VAll The Time
p2087
sg8
F0.360400937610728
sg9
F0.35635018495684345
sg10
S'r_b'
p2088
sg12
F0.6497715901675006
sg13
VJeremih
p2089
sg15
I9999
sg16
F0.5997001499250376
sg17
Nsg18
Nsg19
Nsg20
F8.015267175572519e-06
sg21
F1e-07
sg22
Nsg23
Nsg24
F0.6523382382584156
ssg25
I01
sba(iSong
Song
p2090
(dp2091
g3
(dp2092
g5
F0.686295028528631
sg6
VElectric (feat. Khalid)
p2093
sg8
F0.3675692986998828
sg9
F0.25770653514180025
sg10
S'r_b'
p2094
sg12
F0.011311725038068305
sg13
VAlina Baraz
p2095
sg15
I9999
sg16
F0.5397301349325337
sg17
Nsg18
Nsg19
Nsg20
F6.857506361323156e-05
sg21
F0.11526147278548558
sg22
Nsg23
Nsg24
F0.6241685144124168
ssg25
I01
sba(iSong
Song
p2096
(dp2097
g3
(dp2098
g5
F0.34249290112273967
sg6
VHigh Off You
p2099
sg8
F0.2706601433672218
sg9
F0.5240443896424167
sg10
S'r_b'
p2100
sg12
F0.34087448335871223
sg13
VNOAHJVMES
p2101
sg15
I9999
sg16
F0.4302848575712143
sg17
Nsg18
Nsg19
Nsg20
F0.000589058524173028
sg21
F0.3340448239060832
sg22
Nsg23
Nsg24
F0.6909897198145535
ssg25
I01
sba(iSong
Song
p2102
(dp2103
g3
(dp2104
g5
F0.1538068850716949
sg6
VNight Calls
p2105
sg8
F0.5645084357709396
sg9
F0.39580764488286063
sg10
S'r_b'
p2106
sg12
F0.4518164020013052
sg13
VYo Trane
p2107
sg15
I9999
sg16
F0.8740629685157422
sg17
Nsg18
Nsg19
Nsg20
F1e-07
sg21
F0.3660618996798292
sg22
Nsg23
Nsg24
F0.5532654706712357
ssg25
I01
sba(iSong
Song
p2108
(dp2109
g3
(dp2110
g5
F0.8228898131545408
sg6
VPoison
p2111
sg8
F0.4114516612608684
sg9
F0.30086313193588166
sg10
S'r_b'
p2112
sg12
F0.0820100065259952
sg13
VBrent Faiyaz
p2113
sg15
I9999
sg16
F0.6176911544227885
sg17
Nsg18
Nsg19
Nsg20
F0.0011513994910941476
sg21
F0.37139807897545357
sg22
Nsg23
Nsg24
F0.6110159242088288
ssg25
I01
sba(iSong
Song
p2114
(dp2115
g3
(dp2116
g5
F0.0824997771652878
sg6
VSimple
p2117
sg8
F0.5788928561694242
sg9
F0.28853267570900126
sg10
S'r_b'
p2118
sg12
F0.08288013922123123
sg13
VKhalil
p2119
sg15
I9999
sg16
F0.5082458770614693
sg17
Nsg18
Nsg19
Nsg20
F1e-07
sg21
F0.24973319103521882
sg22
Nsg23
Nsg24
F0.6655916145938319
ssg25
I01
sba(iSong
Song
p2120
(dp2121
g3
(dp2122
g5
F1.0
sg6
VThe Hoodie Song
p2123
sg8
F0.38784785630570473
sg9
F0.2626387176325524
sg10
S'r_b'
p2124
sg12
F0.10158799216880572
sg13
VMae Muller
p2125
sg15
I9999
sg16
F0.3658170914542729
sg17
Nsg18
Nsg19
Nsg20
F3.702290076335878e-06
sg21
F0.3084311632870865
sg22
Nsg23
Nsg24
F0.7170429348921588
ssg25
I01
sba(iSong
Song
p2126
(dp2127
g3
(dp2128
g5
F0.5242334196504331
sg6
VNeither Do I
p2129
sg8
F0.42825506282536996
sg9
F0.3057953144266338
sg10
S'r_b'
p2130
sg12
F0.16902327604959755
sg13
VStwo
p2131
sg15
I9999
sg16
F0.8020989505247378
sg17
Nsg18
Nsg19
Nsg20
F6.870229007633587e-06
sg21
F0.16542155816435433
sg22
Nsg23
Nsg24
F0.6246220520056439
ssg25
I01
sba(iSong
Song
p2132
(dp2133
g3
(dp2134
g5
F0.2741955088097848
sg6
VFcktober
p2135
sg8
F0.5309902150508328
sg9
F0.4796547472256474
sg10
S'r_b'
p2136
sg12
F0.13226016967587556
sg13
VOctobertwentyfirst
p2137
sg15
I9999
sg16
F0.6701649175412294
sg17
Nsg18
Nsg19
Nsg20
F1.0318066157760814e-05
sg21
F0.1536819637139808
sg22
Nsg23
Nsg24
F0.7072666801048175
ssg25
I01
sba(iSong
Song
p2138
(dp2139
g3
(dp2140
g5
F0.1989526189734786
sg6
VThat Work
p2141
sg8
F0.4232126795497288
sg9
F0.6485819975339089
sg10
S'r_b'
p2142
sg12
F0.4322384163584947
sg13
VBeau Vallis
p2143
sg15
I9999
sg16
F0.6581709145427286
sg17
Nsg18
Nsg19
Nsg20
F5.203562340966921e-06
sg21
F0.3479188900747065
sg22
Nsg23
Nsg24
F0.7671840354767183
ssg25
I01
sba(iSong
Song
p2144
(dp2145
g3
(dp2146
g5
F0.31818365979101
sg6
VMade Love First
p2147
sg8
F0.564644716400011
sg9
F0.4438964241676942
sg10
S'r_b'
p2148
sg12
F0.0443767674570372
sg13
VMarc E. Bassy
p2149
sg15
I9999
sg16
F0.5772113943028486
sg17
Nsg18
Nsg19
Nsg20
F1e-07
sg21
F0.5016008537886874
sg22
Nsg23
Nsg24
F0.6958778472082242
ssg25
I01
sba(iSong
Song
p2150
(dp2151
g3
(dp2152
g5
F0.5311789171737845
sg6
VAfrobbean (Bumper)
p2153
sg8
F0.45205647469268706
sg9
F0.2909987669543774
sg10
S'r_b'
p2154
sg12
F0.662823580596041
sg13
VLotto Boyzz
p2155
sg15
I9999
sg16
F0.37481259370314846
sg17
Nsg18
Nsg19
Nsg20
F1e-07
sg21
F0.5080042689434365
sg22
Nsg23
Nsg24
F0.6035577504535375
ssg25
I01
sba(iSong
Song
p2156
(dp2157
g3
(dp2158
g5
F0.22326186030520834
sg6
VRight Away
p2159
sg8
F0.305691079070021
sg9
F0.5672009864364982
sg10
S'r_b'
p2160
sg12
F0.25168588209701975
sg13
VJR Castro
p2161
sg15
I9999
sg16
F0.6866566716641679
sg17
Nsg18
Nsg19
Nsg20
F1e-07
sg21
F0.83991462113127
sg22
Nsg23
Nsg24
F0.7956057246522878
ssg25
I01
sba(iSong
Song
p2162
(dp2163
g3
(dp2164
g5
F0.03457584425416354
sg6
VP.O.V.
p2165
sg8
F0.29237646160974673
sg9
F0.23551171393341558
sg10
S'r_b'
p2166
sg12
F0.038938438111812045
sg13
Vdvsn
p2167
sg15
I9999
sg16
F0.8020989505247378
sg17
Nsg18
Nsg19
Nsg20
F0.009274809160305342
sg21
F0.09071504802561366
sg22
Nsg23
Nsg24
F0.682271719411409
ssg25
I01
sba(iSong
Song
p2168
(dp2169
g3
(dp2170
g5
F0.00988460055864952
sg6
VDoo Wop (That Thing)
p2171
sg8
F0.29174957071601837
sg9
F0.5055487053020963
sg10
S'r_b'
p2172
sg12
F0.08396780509027625
sg13
VMs. Lauryn Hill
p2173
sg15
I9999
sg16
F0.7766116941529236
sg17
Nsg18
Nsg19
Nsg20
F1e-07
sg21
F0.6414087513340448
sg22
Nsg23
Nsg24
F0.6711852449103003
ssg25
I01
sba(iSong
Song
p2174
(dp2175
g3
(dp2176
g5
F0.02218970700418698
sg6
VCreep
p2177
sg8
F0.2441740031071983
sg9
F0.37977805178791624
sg10
S'r_b'
p2178
sg12
F0.028061779421361753
sg13
VTLC
p2179
sg15
I9999
sg16
F0.8005997001499252
sg17
Nsg18
Nsg19
Nsg20
F1.7938931297709923e-06
sg21
F0.8143009605122733
sg22
Nsg23
Nsg24
F0.6318786534972787
ssg25
I01
sba(iSong
Song
p2180
(dp2181
g3
(dp2182
g5
F0.21284361402018132
sg6
VStill Not a Player
p2183
sg8
F0.25186704461827797
sg9
F0.5721331689272503
sg10
S'r_b'
p2184
sg12
F0.5692843158581683
sg13
VBig Pun
p2185
sg15
I9999
sg16
F0.9370314842578712
sg17
Nsg18
Nsg19
Nsg20
F0.0009440203562340968
sg21
F0.8836712913553896
sg22
Nsg23
Nsg24
F0.7910703487200161
ssg25
I01
sba(iSong
Song
p2186
(dp2187
g3
(dp2188
g5
F0.04140558348545902
sg6
VYou Make Me Wanna...
p2189
sg8
F0.728978712965739
sg9
F0.6029593094944513
sg10
S'r_b'
p2190
sg12
F0.05786382423319557
sg13
VUsher
p2191
sg15
I9999
sg16
F0.7256371814092955
sg17
Nsg18
Nsg19
Nsg20
F1e-07
sg21
F0.9477054429028816
sg22
Nsg23
Nsg24
F0.7382584156420077
ssg25
I01
sba(iSong
Song
p2192
(dp2193
g3
(dp2194
g5
F0.013507835099997801
sg6
VToo Close
p2195
sg8
F0.29018915751315105
sg9
F0.310727496917386
sg10
S'r_b'
p2196
sg12
F0.08005220796171417
sg13
VNext
p2197
sg15
I9999
sg16
F0.8545727136431784
sg17
Nsg18
Nsg19
Nsg20
F1e-07
sg21
F0.7662753468516542
sg22
Nsg23
Nsg24
F0.6185748840959484
ssg25
I01
sba(iSong
Song
p2198
(dp2199
g3
(dp2200
g5
F0.002348735745813312
sg6
VPoison
p2201
sg8
F0.37301370983128457
sg9
F0.5215782983970406
sg10
S'r_b'
p2202
sg12
F0.42788775288231456
sg13
VBell Biv DeVoe
p2203
sg15
I9999
sg16
F0.8275862068965517
sg17
Nsg18
Nsg19
Nsg20
F0.00549618320610687
sg21
F0.8207043756670225
sg22
Nsg23
Nsg24
F0.600231808103205
ssg25
I01
sba(iSong
Song
p2204
(dp2205
g3
(dp2206
g5
F0.002001460869645745
sg6
VPony
p2207
sg8
F0.5786339229741885
sg9
F0.561035758323058
sg10
S'r_b'
p2208
sg12
F0.12769197302588642
sg13
VGinuwine
p2209
sg15
I9999
sg16
F0.7076461769115443
sg17
Nsg18
Nsg19
Nsg20
F0.048473282442748095
sg21
F0.9946638207043756
sg22
Nsg23
Nsg24
F0.6484579721830276
ssg25
I01
sba(iSong
Song
p2210
(dp2211
g3
(dp2212
g5
F0.2591469308425236
sg6
VIf You Love Me
p2213
sg8
F0.25914443021068984
sg9
F0.5339087546239211
sg10
S'r_b'
p2214
sg12
F0.07983467478790515
sg13
VBrownstone
p2215
sg15
I9999
sg16
F0.6146926536731635
sg17
Nsg18
Nsg19
Nsg20
F1e-07
sg21
F0.18783351120597652
sg22
Nsg23
Nsg24
F0.604867970167305
ssg25
I01
sba(iSong
Song
p2216
(dp2217
g3
(dp2218
g5
F0.3772203887394964
sg6
VNo Diggity
p2219
sg8
F0.21498269236010797
sg9
F0.6165228113440198
sg10
S'r_b'
p2220
sg12
F0.5627583206438982
sg13
VBlackstreet
p2221
sg15
I9999
sg16
F0.8830584707646177
sg17
Nsg18
Nsg19
Nsg20
F1e-07
sg21
F0.6606189967982925
sg22
Nsg23
Nsg24
F0.8758818786534972
ssg25
I01
sba(iSong
Song
p2222
(dp2223
g3
(dp2224
g5
F0.17695854348286605
sg6
VRemember the Time
p2225
sg8
F0.34680694486085745
sg9
F0.9506781750924785
sg10
S'r_b'
p2226
sg12
F0.0670002175331738
sg13
VMichael Jackson
p2227
sg15
I9999
sg16
F0.8305847076461769
sg17
Nsg18
Nsg19
Nsg20
F0.0027099236641221374
sg21
F0.8110992529348987
sg22
Nsg23
Nsg24
F1.0
ssg25
I01
sba(iSong
Song
p2228
(dp2229
g3
(dp2230
g5
F0.006203486871273306
sg6
VI Wanna Sex You Up - Single Mix
p2231
sg8
F0.9859426531112868
sg9
F0.5437731196054254
sg10
S'r_b'
p2232
sg12
F0.20165325212094842
sg13
VColor Me Badd
p2233
sg15
I9999
sg16
F0.41079460269865076
sg17
Nsg18
Nsg19
Nsg20
F8.333333333333334e-06
sg21
F0.4695837780149413
sg22
Nsg23
Nsg24
F0.6965833501310219
ssg25
I01
sba(iSong
Song
p2234
(dp2235
g3
(dp2236
g5
F0.349438398646091
sg6
VThat's The Way Love Goes
p2237
sg8
F0.2764384420398484
sg9
F0.6781750924784217
sg10
S'r_b'
p2238
sg12
F0.09136393299978246
sg13
VJanet Jackson
p2239
sg15
I9999
sg16
F0.6386806596701649
sg17
Nsg18
Nsg19
Nsg20
F0.599236641221374
sg21
F0.5848452508004268
sg22
Nsg23
Nsg24
F0.7779681515823422
ssg25
I01
sba(iSong
Song
p2240
(dp2241
g3
(dp2242
g5
F0.015128451188779781
sg6
VCandy Rain - Heavy D & TrakMasterz Mix
p2243
sg8
F0.2504837962332034
sg9
F0.5437731196054254
sg10
S'r_b'
p2244
sg12
F0.049597563628453335
sg13
VSoul For Real
p2245
sg15
I9999
sg16
F0.7631184407796103
sg17
Nsg18
Nsg19
Nsg20
F1.188295165394402e-05
sg21
F0.7171824973319103
sg22
Nsg23
Nsg24
F0.7315561378754283
ssg25
I01
sba(iSong
Song
p2246
(dp2247
g3
(dp2248
g5
F0.1271824778988481
sg6
VIn My Bed - So So Def Mix
p2249
sg8
F0.261229523835482
sg9
F0.62268803945746
sg10
S'r_b'
p2250
sg12
F0.4909723732869263
sg13
VDru Hill
p2251
sg15
I9999
sg16
F0.8110944527736131
sg17
Nsg18
Nsg19
Nsg20
F1e-07
sg21
F0.8388473852721451
sg22
Nsg23
Nsg24
F0.7330679298528522
ssg25
I01
sba(iSong
Song
p2252
(dp2253
g3
(dp2254
g5
F0.18158887516510028
sg6
VCan't You See
p2255
sg8
F0.1986562729973562
sg9
F0.7040690505548706
sg10
S'r_b'
p2256
sg12
F0.05829889058081358
sg13
VTotal
p2257
sg15
I9999
sg16
F0.656671664167916
sg17
Nsg18
Nsg19
Nsg20
F2.2264631043256996e-06
sg21
F0.8249733191035219
sg22
Nsg23
Nsg24
F0.8367768595041322
ssg25
I01
sba(iSong
Song
p2258
(dp2259
g3
(dp2260
g5
F0.13065522666052376
sg6
VSteelo
p2261
sg8
F0.23100929433890263
sg9
F0.7225647348951911
sg10
S'r_b'
p2262
sg12
F0.2560365455731999
sg13
V702
p2263
sg15
I9999
sg16
F0.7421289355322339
sg17
Nsg18
Nsg19
Nsg20
F0.002404580152671756
sg21
F0.6275346851654215
sg22
Nsg23
Nsg24
F0.7073674662366458
ssg25
I01
sba(iSong
Song
p2264
(dp2265
g3
(dp2266
g5
F0.3818507204217306
sg6
VI Wanna Be Down (feat. Queen Latifah, Yoyo & McLyte) - Remix
p2267
sg8
F0.19695276513396387
sg9
F0.3489519112207152
sg10
S'r_b'
p2268
sg12
F0.8020448118338047
sg13
VBrandy
p2269
sg15
I9999
sg16
F0.9235382308845578
sg17
Nsg18
Nsg19
Nsg20
F1e-07
sg21
F0.6840981856990396
sg22
Nsg23
Nsg24
F0.8237754484982867
ssg25
I01
sba(iSong
Song
p2270
(dp2271
g3
(dp2272
g5
F0.1700130459595147
sg6
VDon't Walk Away
p2273
sg8
F0.3125800648695794
sg9
F0.9432799013563503
sg10
S'r_b'
p2274
sg12
F0.2190559060256689
sg13
VJade
p2275
sg15
I9999
sg16
F0.8305847076461769
sg17
Nsg18
Nsg19
Nsg20
F0.007264631043256997
sg21
F0.9039487726787621
sg22
Nsg23
Nsg24
F0.7420882886514815
ssg25
I01
sba(iSong
Song
p2276
(dp2277
g3
(dp2278
g5
F0.09997927926572199
sg6
VHold On
p2279
sg8
F0.2714573850472894
sg9
F0.38717632552404446
sg10
S'r_b'
p2280
sg12
F0.07222101370458994
sg13
VEn Vogue
p2281
sg15
I9999
sg16
F0.6761619190404797
sg17
Nsg18
Nsg19
Nsg20
F1e-07
sg21
F0.37246531483457845
sg22
Nsg23
Nsg24
F0.5579016327353356
ssg25
I01
sba(iSong
Song
p2282
(dp2283
g3
(dp2284
g5
F0.1642251313567219
sg6
VSensitivity
p2285
sg8
F0.2715050832674643
sg9
F0.6337854500616523
sg10
S'r_b'
p2286
sg12
F0.04568196649989124
sg13
VRalph Tresvant
p2287
sg15
I9999
sg16
F0.6206896551724137
sg17
Nsg18
Nsg19
Nsg20
F0.4707379134860051
sg21
F0.6979722518676627
sg22
Nsg23
Nsg24
F0.46124773231203386
ssg25
I01
sba(iSong
Song
p2288
(dp2289
g3
(dp2290
g5
F0.6388341287857303
sg6
VAll Around the World - Remastered
p2291
sg8
F0.3005328572596691
sg9
F0.9420468557336622
sg10
S'r_b'
p2292
sg12
F0.3582771372634327
sg13
VLisa Stansfield
p2293
sg15
I9999
sg16
F0.2383808095952024
sg17
Nsg18
Nsg19
Nsg20
F2.1374045801526715e-06
sg21
F0.7801494130202775
sg22
Nsg23
Nsg24
F0.8878754283410603
ssg25
I01
sba(iSong
Song
p2294
(dp2295
g3
(dp2296
g5
F0.019643024578958154
sg6
VMotownphilly - Original Version
p2297
sg8
F0.38865872604867946
sg9
F0.872996300863132
sg10
S'r_b'
p2298
sg12
F0.08897106808788338
sg13
VBoyz II Men
p2299
sg15
I9999
sg16
F0.7181409295352325
sg17
Nsg18
Nsg19
Nsg20
F2.7608142493638675e-05
sg21
F0.7726787620064034
sg22
Nsg23
Nsg24
F0.6338439830679299
ssg25
I01
sba(iSong
Song
p2300
(dp2301
g3
(dp2302
g5
F0.1676978801183976
sg6
VOnly You (feat. The Notorious B.I.G.) - Radio Mix
p2303
sg8
F0.2651952901414593
sg9
F0.6091245376078915
sg10
S'r_b'
p2304
sg12
F0.056341092016532514
sg13
V112
p2305
sg15
I9999
sg16
F0.7511244377811095
sg17
Nsg18
Nsg19
Nsg20
F1e-07
sg21
F0.8665955176093917
sg22
Nsg23
Nsg24
F0.7370993751259827
ssg25
I01
sba(iSong
Song
p2306
(dp2307
g3
(dp2308
g5
F0.34249290112273967
sg6
VTouch Me Tease Me
p2309
sg8
F0.2077189348306032
sg9
F0.7521578298397041
sg10
S'r_b'
p2310
sg12
F0.0665651511855558
sg13
VCase
p2311
sg15
I9999
sg16
F0.5667166416791605
sg17
Nsg18
Nsg19
Nsg20
F4.3511450381679385e-06
sg21
F0.48986125933831376
sg22
Nsg23
Nsg24
F0.7284821608546663
ssg25
I01
sba(iSong
Song
p2312
(dp2313
g3
(dp2314
g5
F0.2857713380153704
sg6
VYou Used To Love Me
p2315
sg8
F0.219173321704053
sg9
F0.37977805178791624
sg10
S'r_b'
p2316
sg12
F0.016750054383293456
sg13
VFaith Evans
p2317
sg15
I9999
sg16
F0.6371814092953523
sg17
Nsg18
Nsg19
Nsg20
F2.086513994910941e-06
sg21
F0.6872998932764142
sg22
Nsg23
Nsg24
F0.7071155009070752
ssg25
I01
sba(iSong
Song
p2318
(dp2319
g3
(dp2320
g5
F0.13065522666052376
sg6
VFeels Good
p2321
sg8
F0.4093461255417155
sg9
F0.8705302096177558
sg10
S'r_b'
p2322
sg12
F0.14400696106156188
sg13
VTony! Toni! Ton!
p2323
sg15
I9999
sg16
F0.8185907046476761
sg17
Nsg18
Nsg19
Nsg20
F9.465648854961832e-06
sg21
F0.6659551760939167
sg22
Nsg23
Nsg24
F0.5150675267083249
ssg25
I01
sba(iSong
Song
p2324
(dp2325
g3
(dp2326
g5
F0.06363117556018331
sg6
VIs It Good To You
p2327
sg8
F0.3432977186622693
sg9
F0.5573366214549939
sg10
S'r_b'
p2328
sg12
F0.020883184685664566
sg13
VHeavy D & The Boyz
p2329
sg15
I9999
sg16
F0.6551724137931034
sg17
Nsg18
Nsg19
Nsg20
F0.006284987277353689
sg21
F0.8143009605122733
sg22
Nsg23
Nsg24
F0.4591312235436404
ssg25
I01
sba(iSong
Song
p2330
(dp2331
g3
(dp2332
g5
F0.0020130366988513303
sg6
VDo Me Right
p2333
sg8
F0.33291994875848346
sg9
F0.7213316892725031
sg10
S'r_b'
p2334
sg12
F0.11638024798781813
sg13
VGuy
p2335
sg15
I9999
sg16
F0.7376311844077962
sg17
Nsg18
Nsg19
Nsg20
F7.061068702290076e-05
sg21
F0.6179295624332978
sg22
Nsg23
Nsg24
F0.5573977020761943
ssg25
I01
sba(iSong
Song
p2336
(dp2337
g3
(dp2338
g5
F0.2880865038564875
sg6
VI'm Dreamin'
p2339
sg8
F0.3613276458884134
sg9
F0.7336621454993835
sg10
S'r_b'
p2340
sg12
F0.0670002175331738
sg13
VChristopher Williams
p2341
sg15
I9999
sg16
F0.7661169415292355
sg17
Nsg18
Nsg19
Nsg20
F9.745547073791347e-06
sg21
F0.6979722518676627
sg22
Nsg23
Nsg24
F0.6493146543035678
ssg25
I01
sba(iSong
Song
p2342
(dp2343
g3
(dp2344
g5
F0.0581905358335581
sg6
VShe's Got That Vibe
p2345
sg8
F0.38179699637493525
sg9
F0.6695437731196053
sg10
S'r_b'
p2346
sg12
F0.09941266043071566
sg13
VR. Kelly
p2347
sg15
I9999
sg16
F0.7856071964017992
sg17
Nsg18
Nsg19
Nsg20
F1e-07
sg21
F0.7556029882604055
sg22
Nsg23
Nsg24
F0.6041120741785929
ssg25
I01
sba(iSong
Song
p2348
(dp2349
g3
(dp2350
g5
F0.02485214772147166
sg6
VRub You The Right Way
p2351
sg8
F0.3731704325547166
sg9
F0.8927250308261406
sg10
S'r_b'
p2352
sg12
F0.03763323906895801
sg13
VJohnny Gill
p2353
sg15
I9999
sg16
F0.598200899550225
sg17
Nsg18
Nsg19
Nsg20
F0.00183206106870229
sg21
F0.8644610458911419
sg22
Nsg23
Nsg24
F0.7694013303769401
ssg25
I01
sba(iSong
Song
p2354
(dp2355
g3
(dp2356
g5
F0.0065739134058520445
sg6
VAlright - 7" House Mix With Rap
p2357
sg8
F0.37273433454168825
sg9
F0.8360049321824907
sg10
S'r_b'
p2358
sg12
F0.019795518816619534
sg13
VJanet Jackson
p2359
sg15
I9999
sg16
F0.6551724137931034
sg17
Nsg18
Nsg19
Nsg20
F0.08384223918575064
sg21
F0.6424759871931697
sg22
Nsg23
Nsg24
F0.8154605926224552
ssg25
I01
sba(iSong
Song
p2360
(dp2361
g3
(dp2362
g5
F0.062357834347568905
sg6
VJust Kickin' It
p2363
sg8
F0.16216032053203955
sg9
F0.2651048088779285
sg10
S'r_b'
p2364
sg12
F0.07874700891886012
sg13
VXscape
p2365
sg15
I9999
sg16
F0.6251874062968515
sg17
Nsg18
Nsg19
Nsg20
F4.3638676844783716e-05
sg21
F0.703308431163287
sg22
Nsg23
Nsg24
F0.5005543237250554
ssg25
I01
sba(iSong
Song
p2366
(dp2367
g3
(dp2368
g5
F0.013623593392053658
sg6
VI Love Your Smile
p2369
sg8
F0.2507495434598926
sg9
F0.8175092478421702
sg10
S'r_b'
p2370
sg12
F0.23863389166847945
sg13
VShanice
p2371
sg15
I9999
sg16
F0.5877061469265368
sg17
Nsg18
Nsg19
Nsg20
F1.21882951653944e-05
sg21
F0.7502668089647813
sg22
Nsg23
Nsg24
F0.6309211852449103
ssg25
I01
sba(iSong
Song
p2372
(dp2373
g3
(dp2374
g5
F0.026125488934086075
sg6
VHey Mr. DJ
p2375
sg8
F0.30116656218485105
sg9
F0.43403205918618987
sg10
S'r_b'
p2376
sg12
F0.06569501849031978
sg13
VZhan
p2377
sg15
I9999
sg16
F0.8725637181409296
sg17
Nsg18
Nsg19
Nsg20
F0.003638676844783715
sg21
F0.8986125933831377
sg22
Nsg23
Nsg24
F0.625781092521669
ssg25
I01
sba(iSong
Song
p2378
(dp2379
g3
(dp2380
g5
F0.08770890030780129
sg6
VCan We Talk
p2381
sg8
F0.7853784513069313
sg9
F0.6917385943279901
sg10
S'r_b'
p2382
sg12
F0.0330650424189689
sg13
VTevin Campbell
p2383
sg15
I9999
sg16
F0.5712143928035983
sg17
Nsg18
Nsg19
Nsg20
F2.2519083969465647e-05
sg21
F0.6189967982924226
sg22
Nsg23
Nsg24
F0.7459685547268696
ssg25
I01
sba(iSong
Song
p2384
(dp2385
g3
(dp2386
g5
F0.009653083974537808
sg6
VShe's Playing Hard To Get
p2387
sg8
F0.9735274878028838
sg9
F0.8150431565967942
sg10
S'r_b'
p2388
sg12
F0.07156841418316293
sg13
VHi-Five
p2389
sg15
I9999
sg16
F0.3718140929535233
sg17
Nsg18
Nsg19
Nsg20
F1e-07
sg21
F0.7652081109925294
sg22
Nsg23
Nsg24
F0.8102701068332997
ssg25
I01
sba(iSong
Song
p2390
(dp2391
g3
(dp2392
g5
F0.07208153088026077
sg6
VI'm So Into You
p2393
sg8
F0.2855351740303633
sg9
F0.4475955610357583
sg10
S'r_b'
p2394
sg12
F0.0522079617141614
sg13
VSWV
p2395
sg15
I9999
sg16
F0.8590704647676162
sg17
Nsg18
Nsg19
Nsg20
F0.00316793893129771
sg21
F0.6286019210245464
sg22
Nsg23
Nsg24
F0.5827454142310018
ssg25
I01
sba(iSong
Song
p2396
(dp2397
g3
(dp2398
g5
F0.007511555571504476
sg6
VLet Me Be The One
p2399
sg8
F0.2380550028618932
sg9
F0.45376078914919854
sg10
S'r_b'
p2400
sg12
F0.017185120730911465
sg13
VIntro
p2401
sg15
I9999
sg16
F0.527736131934033
sg17
Nsg18
Nsg19
Nsg20
F1e-07
sg21
F0.6382070437566703
sg22
Nsg23
Nsg24
F0.4530336625680306
ssg25
I01
sba(iSong
Song
p2402
(dp2403
g3
(dp2404
g5
F0.03017702915604102
sg6
VCome And Talk To Me Remix
p2405
sg8
F0.7840360871105782
sg9
F0.6251541307028361
sg10
S'r_b'
p2406
sg12
F0.5823363062867087
sg13
VJodeci
p2407
sg15
I9999
sg16
F0.664167916041979
sg17
Nsg18
Nsg19
Nsg20
F2.9643765903307888e-06
sg21
F0.6648879402347919
sg22
Nsg23
Nsg24
F0.7762547873412617
ssg25
I01
sba(iSong
Song
p2408
(dp2409
g3
(dp2410
g5
F0.056106886576552696
sg6
VReminisce
p2411
sg8
F0.2338643735179482
sg9
F0.6720098643649814
sg10
S'r_b'
p2412
sg12
F0.10354579073308677
sg13
VMary J. Blige
p2413
sg15
I9999
sg16
F0.5412293853073463
sg17
Nsg18
Nsg19
Nsg20
F1.4885496183206105e-05
sg21
F0.5891141942369263
sg22
Nsg23
Nsg24
F0.708980044345898
ssg25
I01
sba(iSong
Song
p2414
(dp2415
g3
(dp2416
g5
F0.3668021424544694
sg6
VI'm Your Baby Tonight
p2417
sg8
F0.7361947722750688
sg9
F0.8902589395807645
sg10
S'r_b'
p2418
sg12
F0.12595170763541438
sg13
VWhitney Houston
p2419
sg15
I9999
sg16
F0.5862068965517242
sg17
Nsg18
Nsg19
Nsg20
F2.569974554707379e-06
sg21
F0.8900747065101388
sg22
Nsg23
Nsg24
F0.67728280588591
ssg25
I01
sba(iSong
Song
p2420
(dp2421
g3
(dp2422
g5
F0.018253925074287886
sg6
VThis Is How We Do It
p2423
sg8
F0.3171318378805637
sg9
F0.591861898890259
sg10
S'r_b'
p2424
sg12
F0.1033282575592778
sg13
VMontell Jordan
p2425
sg15
I9999
sg16
F0.7826086956521741
sg17
Nsg18
Nsg19
Nsg20
F1e-07
sg21
F0.7876200640341516
sg22
Nsg23
Nsg24
F0.652489417456158
ssg25
I01
sba(iSong
Song
p2426
(dp2427
g3
(dp2428
g5
F0.0806476444923941
sg6
VBack & Forth
p2429
sg8
F0.24416037504429122
sg9
F0.7114673242909988
sg10
S'r_b'
p2430
sg12
F0.009571459647596254
sg13
VAaliyah
p2431
sg15
I9999
sg16
F0.6431784107946027
sg17
Nsg18
Nsg19
Nsg20
F6.755725190839695e-06
sg21
F0.9274279615795091
sg22
Nsg23
Nsg24
F0.7139185648054827
ssg25
I01
sba(iSong
Song
p2432
(dp2433
g3
(dp2434
g5
F0.17117062888007326
sg6
VBe Happy
p2435
sg8
F0.24402409441521986
sg9
F0.6966707768187422
sg10
S'r_b'
p2436
sg12
F0.12551664128779638
sg13
VMary J. Blige
p2437
sg15
I9999
sg16
F0.5952023988005998
sg17
Nsg18
Nsg19
Nsg20
F1e-07
sg21
F0.6776947705442904
sg22
Nsg23
Nsg24
F0.6904857891554121
ssg25
I01
sba(iSong
Song
p2438
(dp2439
g3
(dp2440
g5
F0.16190996551560483
sg6
VLady
p2441
sg8
F0.18937556215759488
sg9
F0.2638717632552405
sg10
S'r_b'
p2442
sg12
F0.1342179682401566
sg13
VD'Angelo
p2443
sg15
I9999
sg16
F0.8065967016491754
sg17
Nsg18
Nsg19
Nsg20
F0.03244274809160305
sg21
F0.735325506937033
sg22
Nsg23
Nsg24
F0.5237351340455554
ssg25
I01
sba(iSong
Song
p2444
(dp2445
g3
(dp2446
g5
F0.19663745313236153
sg6
VYou Got Me
p2447
sg8
F0.1627872114257679
sg9
F0.38717632552404446
sg10
S'r_b'
p2448
sg12
F0.5323036763106375
sg13
VThe Roots
p2449
sg15
I9999
sg16
F0.671664167916042
sg17
Nsg18
Nsg19
Nsg20
F1e-07
sg21
F0.6990394877267876
sg22
Nsg23
Nsg24
F0.6564704696633743
ssg25
I01
sba(iSong
Song
p2450
(dp2451
g3
(dp2452
g5
F0.09303378174237066
sg6
VAscension (Don't Ever Wonder)
p2453
sg8
F0.2652838725503557
sg9
F0.39580764488286063
sg10
S'r_b'
p2454
sg12
F0.009571459647596254
sg13
VMaxwell
p2455
sg15
I9999
sg16
F0.7136431784107946
sg17
Nsg18
Nsg19
Nsg20
F0.038040712468193384
sg21
F0.7940234791889008
sg22
Nsg23
Nsg24
F0.5919673452932877
ssg25
I01
sba(iSong
Song
p2456
(dp2457
g3
(dp2458
g5
F0.0704609147914788
sg6
VOn & On
p2459
sg8
F0.1586306522390907
sg9
F0.311960542540074
sg10
S'r_b'
p2460
sg12
F0.30389384381118123
sg13
VErykah Badu
p2461
sg15
I9999
sg16
F0.7316341829085458
sg17
Nsg18
Nsg19
Nsg20
F0.007111959287531807
sg21
F0.2785485592315902
sg22
Nsg23
Nsg24
F0.568484176577303
ssg25
I01
sba(iSong
Song
p2462
(dp2463
g3
(dp2464
g5
F0.0409425503172356
sg6
VTell Me
p2465
sg8
F0.24498487285017304
sg9
F0.2601726263871763
sg10
S'r_b'
p2466
sg12
F0.07874700891886012
sg13
VGroove Theory
p2467
sg15
I9999
sg16
F0.7841079460269866
sg17
Nsg18
Nsg19
Nsg20
F4.770992366412214e-06
sg21
F0.9103521878335112
sg22
Nsg23
Nsg24
F0.5733723039709736
ssg25
I01
sba(iSong
Song
p2468
(dp2469
g3
(dp2470
g5
F0.01489693460466807
sg6
VThat's What I Like
p2471
sg8
F0.5244078606666849
sg9
F0.5055487053020963
sg10
S'r_b'
p2472
sg12
F0.028931912116597774
sg13
VBruno Mars
p2473
sg15
I9999
sg16
F0.863568215892054
sg17
Nsg18
Nsg19
Nsg20
F1e-07
sg21
F0.8815368196371398
sg22
Nsg23
Nsg24
F0.8700866760733722
ssg25
I01
sba(iSong
Song
p2474
(dp2475
g3
(dp2476
g5
F0.03307098645743741
sg6
VWild Thoughts
p2477
sg8
F0.27607048434135567
sg9
F0.654747225647349
sg10
S'r_b'
p2478
sg12
F0.10985425277354795
sg13
VDJ Khaled
p2479
sg15
I9999
sg16
F0.5037481259370314
sg17
Nsg18
Nsg19
Nsg20
F1e-07
sg21
F0.624332977588047
sg22
Nsg23
Nsg24
F0.9644224954646241
ssg25
I01
sba(iSong
Song
p2480
(dp2481
g3
(dp2482
g5
F0.10090534560216885
sg6
VControlla
p2483
sg8
F0.2399901877947068
sg9
F0.4044389642416769
sg10
S'r_b'
p2484
sg12
F0.5649336523819882
sg13
VDrake
p2485
sg15
I9999
sg16
F0.4017991004497752
sg17
Nsg18
Nsg19
Nsg20
F1e-07
sg21
F0.3020277481323373
sg22
Nsg23
Nsg24
F0.5624370086676073
ssg25
I01
sba(iSong
Song
p2486
(dp2487
g3
(dp2488
g5
F0.1237097291371724
sg6
VNeeded Me
p2489
sg8
F0.3664722396358582
sg9
F0.21578298397040693
sg10
S'r_b'
p2490
sg12
F0.48662170981074615
sg13
VRihanna
p2491
sg15
I9999
sg16
F0.616191904047976
sg17
Nsg18
Nsg19
Nsg20
F1e-07
sg21
F0.2572038420490929
sg22
Nsg23
Nsg24
F0.7127595242894578
ssg25
I01
sba(iSong
Song
p2492
(dp2493
g3
(dp2494
g5
F0.2568317650014065
sg6
VDon't
p2495
sg8
F0.2718457848401428
sg9
F0.25400739827373614
sg10
S'r_b'
p2496
sg12
F0.36697846421579294
sg13
VBryson Tiller
p2497
sg15
I9999
sg16
F0.7316341829085458
sg17
Nsg18
Nsg19
Nsg20
F1e-07
sg21
F0.1664887940234792
sg22
Nsg23
Nsg24
F0.8401028018544647
ssg25
I01
sba(iSong
Song
p2498
(dp2499
g3
(dp2500
g5
F0.1943222872912444
sg6
VStarboy
p2501
sg8
F0.87827414211344
sg9
F0.5487053020961775
sg10
S'r_b'
p2502
sg12
F0.558407657167718
sg13
VThe Weeknd
p2503
sg15
I9999
sg16
F0.5967016491754124
sg17
Nsg18
Nsg19
Nsg20
F4.274809160305343e-06
sg21
F0.487726787620064
sg22
Nsg23
Nsg24
F0.7656722434992944
ssg25
I01
sba(iSong
Song
p2504
(dp2505
g3
(dp2506
g5
F0.03202916182893471
sg6
VLUV - Remix
p2507
sg8
F0.25842895690806506
sg9
F0.5030826140567202
sg10
S'r_b'
p2508
sg12
F0.48879704154883624
sg13
VTory Lanez
p2509
sg15
I9999
sg16
F0.5997001499250376
sg17
Nsg18
Nsg19
Nsg20
F1e-07
sg21
F0.5656350053361793
sg22
Nsg23
Nsg24
F0.7359907276758718
ssg25
I01
sba(iSong
Song
p2510
(dp2511
g3
(dp2512
g5
F0.26146209668364073
sg6
VCRZY
p2513
sg8
F0.496838289405544
sg9
F0.6806411837237978
sg10
S'r_b'
p2514
sg12
F0.5214270176201872
sg13
VKehlani
p2515
sg15
I9999
sg16
F0.8245877061469266
sg17
Nsg18
Nsg19
Nsg20
F6.412213740458015e-05
sg21
F0.7043756670224119
sg22
Nsg23
Nsg24
F0.7540314452731304
ssg25
I01
sba(iSong
Song
p2516
(dp2517
g3
(dp2518
g5
F0.09233923199003552
sg6
VNo Limit
p2519
sg8
F0.4765801738940827
sg9
F0.45992601726263876
sg10
S'r_b'
p2520
sg12
F0.07352621274744398
sg13
VUsher
p2521
sg15
I9999
sg16
F0.6596701649175413
sg17
Nsg18
Nsg19
Nsg20
F1e-07
sg21
F0.2646744930629669
sg22
Nsg23
Nsg24
F0.792229389236041
ssg25
I01
sba(iSong
Song
p2522
(dp2523
g3
(dp2524
g5
F0.44899052981412696
sg6
VGrass Ain't Greener
p2525
sg8
F0.5235901768922565
sg9
F0.5561035758323057
sg10
S'r_b'
p2526
sg12
F0.0485098977594083
sg13
VChris Brown
p2527
sg15
I9999
sg16
F0.5502248875562219
sg17
Nsg18
Nsg19
Nsg20
F1e-07
sg21
F0.5165421558164355
sg22
Nsg23
Nsg24
F0.8632332191090505
ssg25
I01
sba(iSong
Song
p2528
(dp2529
g3
(dp2530
g5
F0.010289754580845014
sg6
VOne Dance
p2531
sg8
F0.3194077243860557
sg9
F0.5758323057953144
sg10
S'r_b'
p2532
sg12
F0.054165760278442464
sg13
VDrake
p2533
sg15
I9999
sg16
F0.7616191904047976
sg17
Nsg18
Nsg19
Nsg20
F0.003129770992366412
sg21
F0.37139807897545357
sg22
Nsg23
Nsg24
F0.8242289860915138
ssg25
I01
sba(iSong
Song
p2534
(dp2535
g3
(dp2536
g5
F0.17348579472119036
sg6
V2 On
p2537
sg8
F0.29918367903186244
sg9
F0.5487053020961775
sg10
S'r_b'
p2538
sg12
F0.17337393952577768
sg13
VTinashe
p2539
sg15
I9999
sg16
F0.6971514242878561
sg17
Nsg18
Nsg19
Nsg20
F1e-07
sg21
F0.42369263607257207
sg22
Nsg23
Nsg24
F0.7416347510582544
ssg25
I01
sba(iSong
Song
p2540
(dp2541
g3
(dp2542
g5
F0.7858471596966671
sg6
VSlow Motion
p2543
sg8
F0.2578497642345117
sg9
F0.3181257706535142
sg10
S'r_b'
p2544
sg12
F0.025016314988035675
sg13
VTrey Songz
p2545
sg15
I9999
sg16
F0.6836581709145427
sg17
Nsg18
Nsg19
Nsg20
F4.987277353689567e-05
sg21
F0.27427961579509075
sg22
Nsg23
Nsg24
F0.7253073977020762
ssg25
I01
sba(iSong
Song
p2546
(dp2547
g3
(dp2548
g5
F0.059000843877949086
sg6
VCome and See Me (feat. Drake)
p2549
sg8
F0.18998201095696254
sg9
F0.24290998766954378
sg10
S'r_b'
p2550
sg12
F0.07896454209266913
sg13
VPARTYNEXTDOOR
p2551
sg15
I9999
sg16
F0.6596701649175413
sg17
Nsg18
Nsg19
Nsg20
F3.0916030534351146e-06
sg21
F0.026574172892209178
sg22
Nsg23
Nsg24
F0.6028018544648256
ssg25
I01
sba(iSong
Song
p2552
(dp2553
g3
(dp2554
g5
F0.09801138830077245
sg6
VLove On The Brain
p2555
sg8
F0.782598326473875
sg9
F0.6054254007398274
sg10
S'r_b'
p2556
sg12
F0.039808570807048076
sg13
VRihanna
p2557
sg15
I9999
sg16
F0.34332833583208394
sg17
Nsg18
Nsg19
Nsg20
F1.0292620865139949e-05
sg21
F0.3831376734258271
sg22
Nsg23
Nsg24
F0.8774440636968353
ssg25
I01
sba(iSong
Song
p2558
(dp2559
g3
(dp2560
g5
F0.47445735406641515
sg6
VThinkin Bout You
p2561
sg8
F0.4956253918068087
sg9
F0.2466091245376079
sg10
S'r_b'
p2562
sg12
F0.057428757885577546
sg13
VFrank Ocean
p2563
sg15
I9999
sg16
F0.6581709145427286
sg17
Nsg18
Nsg19
Nsg20
F0.0017048346055979643
sg21
F0.1536819637139808
sg22
Nsg23
Nsg24
F0.5610260028220116
ssg25
I01
sba(iSong
Song
p2564
(dp2565
g3
(dp2566
g5
F0.2533590162397308
sg6
VInto You (feat. Fabolous)
p2567
sg8
F0.2316634413584453
sg9
F0.46979038224414305
sg10
S'r_b'
p2568
sg12
F0.011746791385686314
sg13
VTamia
p2569
sg15
I9999
sg16
F0.5997001499250376
sg17
Nsg18
Nsg19
Nsg20
F1e-07
sg21
F0.5720384204909285
sg22
Nsg23
Nsg24
F0.7329167506551099
ssg25
I01
sba(iSong
Song
p2570
(dp2571
g3
(dp2572
g5
F0.041289825193403164
sg6
VWe Belong Together
p2573
sg8
F0.5646719725258251
sg9
F0.3933415536374846
sg10
S'r_b'
p2574
sg12
F0.1222536436806613
sg13
VMariah Carey
p2575
sg15
I9999
sg16
F0.841079460269865
sg17
Nsg18
Nsg19
Nsg20
F1e-07
sg21
F0.7940234791889008
sg22
Nsg23
Nsg24
F0.7173452932876435
ssg25
I01
sba(iSong
Song
p2576
(dp2577
g3
(dp2578
g5
F0.10102110389422471
sg6
VSay It
p2579
sg8
F0.3420166807489984
sg9
F0.45745992601726265
sg10
S'r_b'
p2580
sg12
F0.060474222318903634
sg13
VTory Lanez
p2581
sg15
I9999
sg16
F0.4212893553223389
sg17
Nsg18
Nsg19
Nsg20
F3.8040712468193386e-06
sg21
F0.2700106723585913
sg22
Nsg23
Nsg24
F0.6098568836928039
ssg25
I01
sba(iSong
Song
p2582
(dp2583
g3
(dp2584
g5
F0.8749810445796758
sg6
VPlanes
p2585
sg8
F0.48868189375562165
sg9
F0.6510480887792849
sg10
S'r_b'
p2586
sg12
F0.5061996954535567
sg13
VJeremih
p2587
sg15
I9999
sg16
F0.575712143928036
sg17
Nsg18
Nsg19
Nsg20
F1e-07
sg21
F0.5101387406616863
sg22
Nsg23
Nsg24
F0.9285930255996774
ssg25
I01
sba(iSong
Song
p2588
(dp2589
g3
(dp2590
g5
F0.003448439520343941
sg6
VHow Many Drinks?
p2591
sg8
F0.1684156014064161
sg9
F0.5647348951911221
sg10
S'r_b'
p2592
sg12
F0.23210789645420926
sg13
VMiguel
p2593
sg15
I9999
sg16
F0.15292353823088453
sg17
Nsg18
Nsg19
Nsg20
F0.0007811704834605598
sg21
F0.2209178228388474
sg22
Nsg23
Nsg24
F0.7667808909494054
ssg25
I01
sba(iSong
Song
p2594
(dp2595
g3
(dp2596
g5
F0.011065335137619247
sg6
VDrunk in Love
p2597
sg8
F0.5650467442557715
sg9
F0.5807644882860666
sg10
S'r_b'
p2598
sg12
F0.04241896889275615
sg13
VBeyonc
p2599
sg15
I9999
sg16
F0.4677661169415292
sg17
Nsg18
Nsg19
Nsg20
F0.001323155216284987
sg21
F0.39167556029882605
sg22
Nsg23
Nsg24
F0.7722737351340455
ssg25
I01
sba(iSong
Song
p2600
(dp2601
g3
(dp2602
g5
F0.05518082024010585
sg6
VV.S.O.P.
p2603
sg8
F0.11578402245904765
sg9
F0.8088779284833539
sg10
S'r_b'
p2604
sg12
F0.06613008483793778
sg13
VK. Michelle
p2605
sg15
I9999
sg16
F1e-07
sg17
Nsg18
Nsg19
Nsg20
F1e-07
sg21
F0.6221985058697972
sg22
Nsg23
Nsg24
F0.8824833702882483
ssg25
I01
sba(iSong
Song
p2606
(dp2607
g3
(dp2608
g5
F0.07497548818165717
sg6
VNew Flame
p2609
sg8
F0.5784295020305814
sg9
F0.6017262638717633
sg10
S'r_b'
p2610
sg12
F0.028714378942788776
sg13
VChris Brown
p2611
sg15
I9999
sg16
F0.6476761619190404
sg17
Nsg18
Nsg19
Nsg20
F1e-07
sg21
F0.4631803628601922
sg22
Nsg23
Nsg24
F0.9033964926426123
ssg25
I01
sba(iSong
Song
p2612
(dp2613
g3
(dp2614
g5
F0.04256316640601758
sg6
VTurnin' Me Up
p2615
sg8
F0.14580664504347354
sg9
F0.7891491985203454
sg10
S'r_b'
p2616
sg12
F0.1403088971068088
sg13
VBJ The Chicago Kid
p2617
sg15
I9999
sg16
F0.6821589205397302
sg17
Nsg18
Nsg19
Nsg20
F0.1501272264631043
sg21
F0.8452508004268943
sg22
Nsg23
Nsg24
F0.9010784116105623
ssg25
I01
sba(iSong
Song
p2618
(dp2619
g3
(dp2620
g5
F0.03920617593639777
sg6
V24K Magic
p2621
sg8
F0.33977486440077403
sg9
F0.8051787916152898
sg10
S'r_b'
p2622
sg12
F0.11398738307591905
sg13
VBruno Mars
p2623
sg15
I9999
sg16
F0.8110944527736131
sg17
Nsg18
Nsg19
Nsg20
F1e-07
sg21
F0.6382070437566703
sg22
Nsg23
Nsg24
F0.9043035678290667
ssg25
I01
sba(iSong
Song
p2624
(dp2625
g3
(dp2626
g5
F1e-07
sg6
VMy Boo - Hitman's Club Mix
p2627
sg8
F0.497233503229851
sg9
F0.40320591861898886
sg10
S'r_b'
p2628
sg12
F0.08505547095932128
sg13
VGhost Town DJs
p2629
sg15
I9999
sg16
F0.911544227886057
sg17
Nsg18
Nsg19
Nsg20
F0.0008447837150127226
sg21
F0.7011739594450374
sg22
Nsg23
Nsg24
F0.6566720419270309
ssg25
I01
sba(iSong
Song
p2630
(dp2631
g3
(dp2632
g5
F0.016401792401394194
sg6
VBody Party
p2633
sg8
F0.523774155741503
sg9
F0.5252774352651047
sg10
S'r_b'
p2634
sg12
F0.06308462040461171
sg13
VCiara
p2635
sg15
I9999
sg16
F0.44977511244377805
sg17
Nsg18
Nsg19
Nsg20
F1e-07
sg21
F0.09178228388473852
sg22
Nsg23
Nsg24
F0.802660753880266
ssg25
I01
sba(iSong
Song
p2636
(dp2637
g3
(dp2638
g5
F0.14917655338946068
sg6
VWithout Me
p2639
sg8
F0.12202567527051701
sg9
F0.6621454993834772
sg10
S'r_b'
p2640
sg12
F0.3974331085490537
sg13
VFantasia
p2641
sg15
I9999
sg16
F0.6536731634182908
sg17
Nsg18
Nsg19
Nsg20
F1e-07
sg21
F0.5560298826040555
sg22
Nsg23
Nsg24
F0.7412316065309413
ssg25
I01
sba(iSong
Song
p2642
(dp2643
g3
(dp2644
g5
F0.20358295065571283
sg6
VMotivation
p2645
sg8
F0.5711044182179946
sg9
F0.6387176325524045
sg10
S'r_b'
p2646
sg12
F0.050467696323689366
sg13
VKelly Rowland
p2647
sg15
I9999
sg16
F0.6656671664167916
sg17
Nsg18
Nsg19
Nsg20
F0.0001323155216284987
sg21
F0.25293489861259344
sg22
Nsg23
Nsg24
F0.8398508365248941
ssg25
I01
sba(iSong
Song
p2648
(dp2649
g3
(dp2650
g5
F0.1237097291371724
sg6
V1 Thing
p2651
sg8
F0.4958366267818692
sg9
F1.0
sg10
S'r_b'
p2652
sg12
F0.664998912334131
sg13
VAmerie
p2653
sg15
I9999
sg16
F0.5022488755622189
sg17
Nsg18
Nsg19
Nsg20
F5.305343511450381e-05
sg21
F0.8890074706510139
sg22
Nsg23
Nsg24
F0.9649768191896795
ssg25
I01
sba(iSong
Song
p2654
(dp2655
g3
(dp2656
g5
F0.00282334474324232
sg6
VHotline Bling
p2657
sg8
F0.5305132328490828
sg9
F0.5832305795314426
sg10
S'r_b'
p2658
sg12
F0.06482488579508375
sg13
VDrake
p2659
sg15
I9999
sg16
F0.9280359820089956
sg17
Nsg18
Nsg19
Nsg20
F0.0003282442748091603
sg21
F0.5880469583778014
sg22
Nsg23
Nsg24
F0.7165390042330175
ssg25
I01
sba(iSong
Song
p2660
(dp2661
g3
(dp2662
g5
F0.17348579472119036
sg6
VClassic Man
p2663
sg8
F0.2518602305868244
sg9
F0.5487053020961775
sg10
S'r_b'
p2664
sg12
F0.016967587557102454
sg13
VJidenna
p2665
sg15
I9999
sg16
F0.7661169415292355
sg17
Nsg18
Nsg19
Nsg20
F1e-07
sg21
F0.5901814300960512
sg22
Nsg23
Nsg24
F0.8283108244305584
ssg25
I01
sba(iSong
Song
p2666
(dp2667
g3
(dp2668
g5
F0.6098945557717663
sg6
VDon't Tell 'Em
p2669
sg8
F0.2788642372373191
sg9
F0.4784217016029594
sg10
S'r_b'
p2670
sg12
F0.0926691320426365
sg13
VJeremih
p2671
sg15
I9999
sg16
F0.8725637181409296
sg17
Nsg18
Nsg19
Nsg20
F1.4503816793893131e-06
sg21
F0.3191035218783352
sg22
Nsg23
Nsg24
F0.8576899818584962
ssg25
I01
sba(iSong
Song
p2672
(dp2673
g3
(dp2674
g5
F0.226734609066884
sg6
VTru
p2675
sg8
F0.10884733843931421
sg9
F0.48705302096177566
sg10
S'r_b'
p2676
sg12
F0.09745486186643462
sg13
VLloyd
p2677
sg15
I9999
sg16
F0.3928035982008996
sg17
Nsg18
Nsg19
Nsg20
F1e-07
sg21
F0.11739594450373532
sg22
Nsg23
Nsg24
F0.8290667204192702
ssg25
I01
sba(iSong
Song
p2678
(dp2679
g3
(dp2680
g5
F0.07439669672137789
sg6
VWork
p2681
sg8
F0.23297173539753063
sg9
F0.4784217016029594
sg10
S'r_b'
p2682
sg12
F0.14792255819012398
sg13
VRihanna
p2683
sg15
I9999
sg16
F0.5847076461769116
sg17
Nsg18
Nsg19
Nsg20
F1e-07
sg21
F0.5261472785485592
sg22
Nsg23
Nsg24
F0.8029127192098366
ssg25
I01
sba(iSong
Song
p2684
(dp2685
g3
(dp2686
g5
F0.22441944322576687
sg6
VLet It Go
p2687
sg8
F0.2577952519828831
sg9
F0.7040690505548706
sg10
S'r_b'
p2688
sg12
F0.38873178159669347
sg13
VKeyshia Cole
p2689
sg15
I9999
sg16
F0.8020989505247378
sg17
Nsg18
Nsg19
Nsg20
F1e-07
sg21
F0.7876200640341516
sg22
Nsg23
Nsg24
F0.8638883289659343
ssg25
I01
sba(iSong
Song
p2690
(dp2691
g3
(dp2692
g5
F0.22441944322576687
sg6
VU Remind Me
p2693
sg8
F0.2512946659761781
sg9
F0.5906288532675709
sg10
S'r_b'
p2694
sg12
F0.11072438546878399
sg13
VUsher
p2695
sg15
I9999
sg16
F0.5697151424287856
sg17
Nsg18
Nsg19
Nsg20
F1e-07
sg21
F0.7385272145144077
sg22
Nsg23
Nsg24
F0.8712457165893973
ssg25
I01
sba(iSong
Song
p2696
(dp2697
g3
(dp2698
g5
F0.09812714659282831
sg6
VLove On Top
p2699
sg8
F0.25207827959333856
sg9
F0.7373612823674476
sg10
S'r_b'
p2700
sg12
F0.1335653687187296
sg13
VBeyonc
p2701
sg15
I9999
sg16
F0.5622188905547227
sg17
Nsg18
Nsg19
Nsg20
F1e-07
sg21
F0.6595517609391676
sg22
Nsg23
Nsg24
F0.8559262245515016
ssg25
I01
sba(iSong
Song
p2702
(dp2703
g3
(dp2704
g5
F0.2741955088097848
sg6
VThe Worst
p2705
sg8
F0.24860312355201833
sg9
F0.32922318125770655
sg10
S'r_b'
p2706
sg12
F0.06634761801174678
sg13
VJhene Aiko
p2707
sg15
I9999
sg16
F0.37031484257871067
sg17
Nsg18
Nsg19
Nsg20
F1.5139949109414758e-06
sg21
F0.080042689434365
sg22
Nsg23
Nsg24
F0.6522878451925015
ssg25
I01
sba(iSong
Song
p2708
(dp2709
g3
(dp2710
g5
F0.01836968336634374
sg6
VIt Won't Stop (feat. Chris Brown)
p2711
sg8
F0.42850718198915205
sg9
F0.5228113440197287
sg10
S'r_b'
p2712
sg12
F0.029149445290406785
sg13
VSevyn Streeter
p2713
sg15
I9999
sg16
F0.5697151424287856
sg17
Nsg18
Nsg19
Nsg20
F0.00010305343511450381
sg21
F0.18890074706510138
sg22
Nsg23
Nsg24
F0.6421588389437614
ssg25
I01
sba(iSong
Song
p2714
(dp2715
g3
(dp2716
g5
F0.060389943382619354
sg6
V2AM.
p2717
sg8
F0.3059840824225244
sg9
F0.45745992601726265
sg10
S'r_b'
p2718
sg12
F0.08462040461170327
sg13
VAdrian Marcel
p2719
sg15
I9999
sg16
F0.8575712143928036
sg17
Nsg18
Nsg19
Nsg20
F1e-07
sg21
F0.6179295624332978
sg22
Nsg23
Nsg24
F0.7982765571457368
ssg25
I01
sba(iSong
Song
p2720
(dp2721
g3
(dp2722
g5
F0.005034328121509163
sg6
VNo Love
p2723
sg8
F0.5021123497506066
sg9
F0.5856966707768188
sg10
S'r_b'
p2724
sg12
F0.26256254078747004
sg13
VAugust Alsina
p2725
sg15
I9999
sg16
F0.47376311844077956
sg17
Nsg18
Nsg19
Nsg20
F1e-07
sg21
F0.30736392742796165
sg22
Nsg23
Nsg24
F0.7191090505946381
ssg25
I01
sba(iSong
Song
p2726
(dp2727
g3
(dp2728
g5
F0.03307098645743741
sg6
VValet (feat. Fetty Wap and 2 Chainz)
p2729
sg8
F0.25050423832756413
sg9
F0.46855733662145505
sg10
S'r_b'
p2730
sg12
F0.024581248640417667
sg13
VEric Bellinger
p2731
sg15
I9999
sg16
F0.7076461769115443
sg17
Nsg18
Nsg19
Nsg20
F1e-07
sg21
F0.3180362860192103
sg22
Nsg23
Nsg24
F0.8554726869582745
ssg25
I01
sba(iSong
Song
p2732
(dp2733
g3
(dp2734
g5
F0.9073933663553155
sg6
VNaked
p2735
sg8
F0.46124860312355204
sg9
F0.3686806411837239
sg10
S'r_b'
p2736
sg12
F0.0633021535784207
sg13
VElla Mai
p2737
sg15
I9999
sg16
F0.24887556221889057
sg17
Nsg18
Nsg19
Nsg20
F1e-07
sg21
F0.5090715048025614
sg22
Nsg23
Nsg24
F0.777514613989115
ssg25
I01
sba(iSong
Song
p2738
(dp2739
g3
(dp2740
g5
F0.16190996551560483
sg6
VTalk 2 U
p2741
sg8
F0.2106353402927308
sg9
F0.5967940813810111
sg10
S'r_b'
p2742
sg12
F0.14270176201870782
sg13
VBrent Faiyaz
p2743
sg15
I9999
sg16
F0.616191904047976
sg17
Nsg18
Nsg19
Nsg20
F0.00033460559796437655
sg21
F0.5624332977588048
sg22
Nsg23
Nsg24
F0.5938318887321105
ssg25
I01
sba(iSong
Song
p2744
(dp2745
g3
(dp2746
g5
F0.16538271427728046
sg6
VWhile We're Young
p2747
sg8
F0.4836667666057946
sg9
F0.781750924784217
sg10
S'r_b'
p2748
sg12
F0.4344137480965848
sg13
VJhene Aiko
p2749
sg15
I9999
sg16
F0.5187406296851574
sg17
Nsg18
Nsg19
Nsg20
F1.6666666666666665e-06
sg21
F0.83991462113127
sg22
Nsg23
Nsg24
F0.8140495867768595
ssg25
I01
sba(iSong
Song
p2750
(dp2751
g3
(dp2752
g5
F0.8564597178507389
sg6
VProvider
p2753
sg8
F0.5640655237264576
sg9
F0.21578298397040693
sg10
S'r_b'
p2754
sg12
F0.5540569936915379
sg13
VFrank Ocean
p2755
sg15
I9999
sg16
F0.5652173913043479
sg17
Nsg18
Nsg19
Nsg20
F2.7226463104325697e-05
sg21
F0.3799359658484525
sg22
Nsg23
Nsg24
F0.5191493650473694
ssg25
I01
sba(iSong
Song
p2756
(dp2757
g3
(dp2758
g5
F0.621470384977352
sg6
VInsecure
p2759
sg8
F0.21607293739267902
sg9
F0.44512946979038226
sg10
S'r_b'
p2760
sg12
F0.6454209266913205
sg13
VJazmine Sullivan
p2761
sg15
I9999
sg16
F0.3523238380809595
sg17
Nsg18
Nsg19
Nsg20
F1e-07
sg21
F0.6584845250800427
sg22
Nsg23
Nsg24
F0.8977524692602298
ssg25
I01
sba(iSong
Song
p2762
(dp2763
g3
(dp2764
g5
F0.9351753564487209
sg6
VBest Part (feat. H.E.R.)
p2765
sg8
F0.12356564637902363
sg9
F0.2638717632552405
sg10
S'r_b'
p2766
sg12
F0.020448118338046557
sg13
VDaniel Caesar
p2767
sg15
I9999
sg16
F0.37031484257871067
sg17
Nsg18
Nsg19
Nsg20
F1e-07
sg21
F0.4290288153681964
sg22
Nsg23
Nsg24
F0.6056238661560169
ssg25
I01
sba(iSong
Song
p2768
(dp2769
g3
(dp2770
g5
F0.7129194357014779
sg6
VPrototype
p2771
sg8
F0.5629139524108044
sg9
F0.3304562268803946
sg10
S'r_b'
p2772
sg12
F0.1951272569066783
sg13
VKevin Ross
p2773
sg15
I9999
sg16
F0.6431784107946027
sg17
Nsg18
Nsg19
Nsg20
F2.5954198473282442e-05
sg21
F0.17182497331910354
sg22
Nsg23
Nsg24
F0.649768191896795
ssg25
I01
sba(iSong
Song
p2774
(dp2775
g3
(dp2776
g5
F0.3170260768704515
sg6
VBelong To You (feat. 6LACK) - Remix [Bonus Track]
p2777
sg8
F0.647128567145466
sg9
F0.49691738594327994
sg10
S'r_b'
p2778
sg12
F0.16032194909723732
sg13
VSabrina Claudio
p2779
sg15
I9999
sg16
F0.4917541229385307
sg17
Nsg18
Nsg19
Nsg20
F0.019338422391857506
sg21
F0.6254002134471718
sg22
Nsg23
Nsg24
F0.5735738762346301
ssg25
I01
sba(iSong
Song
p2780
(dp2781
g3
(dp2782
g5
F0.11560664869326252
sg6
VDie For You
p2783
sg8
F0.5197811333097114
sg9
F0.4475955610357583
sg10
S'r_b'
p2784
sg12
F0.09288666521644551
sg13
VThe Weeknd
p2785
sg15
I9999
sg16
F0.46176911544227883
sg17
Nsg18
Nsg19
Nsg20
F1e-07
sg21
F0.5325506937033084
sg22
Nsg23
Nsg24
F0.7609856883692803
ssg25
I01
sba(iSong
Song
p2786
(dp2787
g3
(dp2788
g5
F0.21515877986129842
sg6
VWhen We
p2789
sg8
F0.41378206001798906
sg9
F0.21578298397040693
sg10
S'r_b'
p2790
sg12
F0.11333478355449204
sg13
VTank
p2791
sg15
I9999
sg16
F0.5022488755622189
sg17
Nsg18
Nsg19
Nsg20
F1.3486005089058524e-05
sg21
F0.030736392742796152
sg22
Nsg23
Nsg24
F0.6415037290868776
ssg25
I01
sba(iSong
Song
p2792
(dp2793
g3
(dp2794
g5
F0.15496446799225347
sg6
VCome Through and Chill
p2795
sg8
F0.1948336013519038
sg9
F0.5437731196054254
sg10
S'r_b'
p2796
sg12
F0.13943876441157274
sg13
VSalaam Remi
p2797
sg15
I9999
sg16
F0.26236881559220393
sg17
Nsg18
Nsg19
Nsg20
F0.0007671755725190839
sg21
F0.4973319103521878
sg22
Nsg23
Nsg24
F0.5458576899818585
ssg25
I01
sba(iSong
Song
p2798
(dp2799
g3
(dp2800
g5
F0.36795972537502797
sg6
VMood
p2801
sg8
F0.0800239853907165
sg9
F0.36498150431565973
sg10
S'r_b'
p2802
sg12
F0.41918642592995436
sg13
Vdvsn
p2803
sg15
I9999
sg16
F0.5172413793103449
sg17
Nsg18
Nsg19
Nsg20
F0.017175572519083967
sg21
F0.14300960512273214
sg22
Nsg23
Nsg24
F0.6339447691997581
ssg25
I01
sba(iSong
Song
p2804
(dp2805
g3
(dp2806
g5
F0.1237097291371724
sg6
VComplicated
p2807
sg8
F0.4174139387827414
sg9
F0.4512946979038225
sg10
S'r_b'
p2808
sg12
F0.5040243637154667
sg13
VMIKExANGEL
p2809
sg15
I9999
sg16
F0.44977511244377805
sg17
Nsg18
Nsg19
Nsg20
F1e-07
sg21
F0.32977588046958384
sg22
Nsg23
Nsg24
F0.7362930860713566
ssg25
I01
sba(iSong
Song
p2810
(dp2811
g3
(dp2812
g5
F0.4223661226412801
sg6
VLoved By You
p2813
sg8
F0.08032380277467363
sg9
F0.408138101109741
sg10
S'r_b'
p2814
sg12
F0.2190559060256689
sg13
VMali Music
p2815
sg15
I9999
sg16
F0.04497751124437777
sg17
Nsg18
Nsg19
Nsg20
F1e-07
sg21
F0.3148345784418357
sg22
Nsg23
Nsg24
F0.694668413626285
ssg25
I01
sba(iSong
Song
p2816
(dp2817
g3
(dp2818
g5
F0.34017773528162254
sg6
VTrouble With Us
p2819
sg8
F0.4264561585216277
sg9
F0.5832305795314426
sg10
S'r_b'
p2820
sg12
F0.05307809440939744
sg13
VErnest K.
p2821
sg15
I9999
sg16
F0.5547226386806597
sg17
Nsg18
Nsg19
Nsg20
F4.7201017811704835e-06
sg21
F0.2369263607257204
sg22
Nsg23
Nsg24
F0.8553719008264462
ssg25
I01
sba(iSong
Song
p2822
(dp2823
g3
(dp2824
g5
F0.27882584049201903
sg6
VThe Weekend
p2825
sg8
F0.07553353866281447
sg9
F0.26633785450061653
sg10
S'r_b'
p2826
sg12
F0.05612355884272351
sg13
VSZA
p2827
sg15
I9999
sg16
F0.31484257871064464
sg17
Nsg18
Nsg19
Nsg20
F1e-07
sg21
F0.13553895410885808
sg22
Nsg23
Nsg24
F0.6461398911509776
ssg25
I01
sba(iSong
Song
p2828
(dp2829
g3
(dp2830
g5
F0.26493484544531637
sg6
VIMAGINATION
p2831
sg8
F0.5787429474774456
sg9
F0.652281134401973
sg10
S'r_b'
p2832
sg12
F0.20600391559712855
sg13
VAdrian Marcel
p2833
sg15
I9999
sg16
F0.5787106446776612
sg17
Nsg18
Nsg19
Nsg20
F0.00010038167938931297
sg21
F0.6125933831376734
sg22
Nsg23
Nsg24
F0.8883289659342873
ssg25
I01
sba(iSong
Song
p2834
(dp2835
g3
(dp2836
g5
F0.2082132823379471
sg6
VFeel The Real (feat. Marsha Ambrosius)
p2837
sg8
F0.1630257025266429
sg9
F0.62268803945746
sg10
S'r_b'
p2838
sg12
F0.31694583423972156
sg13
VMusiq Soulchild
p2839
sg15
I9999
sg16
F0.06146926536731632
sg17
Nsg18
Nsg19
Nsg20
F1e-07
sg21
F0.775880469583778
sg22
Nsg23
Nsg24
F0.7215279177585164
ssg25
I01
sba(iSong
Song
p2840
(dp2841
g3
(dp2842
g5
F0.30081991598263164
sg6
VTemperature
p2843
sg8
F0.32929488402518464
sg9
F0.5203452527743526
sg10
S'r_b'
p2844
sg12
F0.47574505112029586
sg13
VDevvon Terrell
p2845
sg15
I9999
sg16
F0.5142428785607197
sg17
Nsg18
Nsg19
Nsg20
F1e-07
sg21
F0.5208110992529349
sg22
Nsg23
Nsg24
F0.7705099778270509
ssg25
I01
sba(iSong
Song
p2846
(dp2847
g3
(dp2848
g5
F0.16306754843616333
sg6
VUs 4ever
p2849
sg8
F0.15611627463272368
sg9
F0.45745992601726265
sg10
S'r_b'
p2850
sg12
F0.10441592342832282
sg13
VLedisi
p2851
sg15
I9999
sg16
F0.6011994002998502
sg17
Nsg18
Nsg19
Nsg20
F1e-07
sg21
F0.2796157950907151
sg22
Nsg23
Nsg24
F0.8521467446079419
ssg25
I01
sba(iSong
Song
p2852
(dp2853
g3
(dp2854
g5
F0.6272582995801447
sg6
VWanna Be Yours
p2855
sg8
F0.7781487639346943
sg9
F0.6103575832305795
sg10
S'r_b'
p2856
sg12
F0.8368501196432455
sg13
VGuordan Banks
p2857
sg15
I9999
sg16
F0.18440779610194905
sg17
Nsg18
Nsg19
Nsg20
F3.486005089058524e-05
sg21
F0.680896478121665
sg22
Nsg23
Nsg24
F0.7903144527313041
ssg25
I01
sba(iSong
Song
p2858
(dp2859
g3
(dp2860
g5
F0.6411492946268474
sg6
VSet It Off
p2861
sg8
F0.6055152770585189
sg9
F0.4401972872996301
sg10
S'r_b'
p2862
sg12
F0.32782249293017185
sg13
VBryson Tiller
p2863
sg15
I9999
sg16
F0.39130434782608703
sg17
Nsg18
Nsg19
Nsg20
F1.3358778625954196e-06
sg21
F0.25400213447171827
sg22
Nsg23
Nsg24
F0.6067829066720419
ssg25
I01
sba(iSong
Song
p2864
(dp2865
g3
(dp2866
g5
F0.30081991598263164
sg6
VChange On Me (feat. Leuca)
p2867
sg8
F0.5510370955872332
sg9
F0.4130702836004932
sg10
S'r_b'
p2868
sg12
F0.23210789645420926
sg13
VXavier Omr
p2869
sg15
I9999
sg16
F0.6266866566716641
sg17
Nsg18
Nsg19
Nsg20
F1e-07
sg21
F0.33938100320170755
sg22
Nsg23
Nsg24
F0.6831284015319492
ssg25
I01
sba(iSong
Song
p2870
(dp2871
g3
(dp2872
g5
F0.6041066411689736
sg6
VEast Coast Hiding
p2873
sg8
F0.5375112431518985
sg9
F0.6683107274969173
sg10
S'r_b'
p2874
sg12
F0.17989993474004784
sg13
VDounia
p2875
sg15
I9999
sg16
F0.8800599700149926
sg17
Nsg18
Nsg19
Nsg20
F0.0002659033078880407
sg21
F0.32977588046958384
sg22
Nsg23
Nsg24
F0.8423200967546864
ssg25
I01
sba(iSong
Song
p2876
(dp2877
g3
(dp2878
g5
F0.22441944322576687
sg6
VTrap or Die
p2879
sg8
F0.6324920275831993
sg9
F0.562268803945746
sg10
S'r_b'
p2880
sg12
F0.026103980857080704
sg13
VNSTASIA
p2881
sg15
I9999
sg16
F0.4377811094452773
sg17
Nsg18
Nsg19
Nsg20
F5.190839694656488e-06
sg21
F0.17502668089647813
sg22
Nsg23
Nsg24
F0.7566518847006651
ssg25
I01
sba(iSong
Song
p2882
(dp2883
g3
(dp2884
g5
F0.17927370932398315
sg6
VMake It Work
p2885
sg8
F0.7897394314372155
sg9
F0.5967940813810111
sg10
S'r_b'
p2886
sg12
F0.551881661953448
sg13
VPrince Charlez
p2887
sg15
I9999
sg16
F0.6116941529235383
sg17
Nsg18
Nsg19
Nsg20
F1e-07
sg21
F0.8207043756670225
sg22
Nsg23
Nsg24
F0.764362023785527
ssg25
I01
sba(iSong
Song
p2888
(dp2889
g3
(dp2890
g5
F0.7291255965892977
sg6
VLights On
p2891
sg8
F0.41555370819591697
sg9
F0.31689272503082616
sg10
S'r_b'
p2892
sg12
F0.14183162932347182
sg13
VH.E.R.
p2893
sg15
I9999
sg16
F0.649175412293853
sg17
Nsg18
Nsg19
Nsg20
F0.00019974554707379133
sg21
F0.32550693703308436
sg22
Nsg23
Nsg24
F0.6454847812940939
ssg25
I01
sba(iSong
Song
p2894
(dp2895
g3
(dp2896
g5
F0.54275474637937
sg6
VGet Down
p2897
sg8
F0.24350622802474856
sg9
F0.5795314426633785
sg10
S'r_b'
p2898
sg12
F0.10441592342832282
sg13
VTYuS
p2899
sg15
I9999
sg16
F0.4437781109445277
sg17
Nsg18
Nsg19
Nsg20
F8.155216284987276e-06
sg21
F0.42262540021344724
sg22
Nsg23
Nsg24
F0.5864241080427333
ssg25
I01
sba(iSong
Song
p2900
(dp2901
g3
(dp2902
g5
F0.754592420841586
sg6
VGo Thru Your Phone
p2903
sg8
F0.7665103982119982
sg9
F0.311960542540074
sg10
S'r_b'
p2904
sg12
F0.406134435501414
sg13
VPJ Morton
p2905
sg15
I9999
sg16
F0.5457271364317842
sg17
Nsg18
Nsg19
Nsg20
F1e-07
sg21
F0.6029882604055496
sg22
Nsg23
Nsg24
F0.4898709937512598
ssg25
I01
sba(iSong
Song
p2906
(dp2907
g3
(dp2908
g5
F0.06884029870269683
sg6
VLuh Ya
p2909
sg8
F0.8381463108833711
sg9
F0.561035758323058
sg10
S'r_b'
p2910
sg12
F0.852077441809876
sg13
VMarsha Ambrosius
p2911
sg15
I9999
sg16
F0.3193403298350824
sg17
Nsg18
Nsg19
Nsg20
F1e-07
sg21
F0.23799359658484526
sg22
Nsg23
Nsg24
F0.6783914533360209
ssg25
I01
sba(iSong
Song
p2912
(dp2913
g3
(dp2914
g5
F0.47908768574864935
sg6
VTerrified
p2915
sg8
F0.5651216986017608
sg9
F0.32182490752157833
sg10
S'r_b'
p2916
sg12
F0.05982162279747662
sg13
VChildish Gambino
p2917
sg15
I9999
sg16
F0.28335832083958024
sg17
Nsg18
Nsg19
Nsg20
F0.6717557251908397
sg21
F0.0768409818569904
sg22
Nsg23
Nsg24
F0.571205402136666
ssg25
I01
sba(iSong
Song
p2918
(dp2919
g3
(dp2920
g5
F0.024389114553248235
sg6
VDrip
p2921
sg8
F0.10823407560849296
sg9
F0.3267570900123305
sg10
S'r_b'
p2922
sg12
F0.030889710680878837
sg13
VLuke James
p2923
sg15
I9999
sg16
F0.5112443778110944
sg17
Nsg18
Nsg19
Nsg20
F6.335877862595419e-06
sg21
F0.42155816435432236
sg22
Nsg23
Nsg24
F0.8554726869582745
ssg25
I01
sba(iSong
Song
p2924
(dp2925
g3
(dp2926
g5
F0.15496446799225347
sg6
VSupply Luh
p2927
sg8
F0.17592466406824936
sg9
F0.9531442663378545
sg10
S'r_b'
p2928
sg12
F0.7106808788340222
sg13
VChildish Major
p2929
sg15
I9999
sg16
F0.3673163418290855
sg17
Nsg18
Nsg19
Nsg20
F0.0001323155216284987
sg21
F0.7577374599786553
sg22
Nsg23
Nsg24
F0.8278572868373312
ssg25
I01
sba(iSong
Song
p2930
(dp2931
g3
(dp2932
g5
F0.19084953852956874
sg6
VLove a Loser
p2933
sg8
F0.5720106844013192
sg9
F0.5893958076448829
sg10
S'r_b'
p2934
sg12
F0.12790950619969543
sg13
VCassie
p2935
sg15
I9999
sg16
F0.679160419790105
sg17
Nsg18
Nsg19
Nsg20
F1e-07
sg21
F0.3628601921024546
sg22
Nsg23
Nsg24
F0.8628804676476517
ssg25
I01
sba(iSong
Song
p2936
(dp2937
g3
(dp2938
g5
F0.024389114553248235
sg6
VDate
p2939
sg8
F0.6727902095996077
sg9
F0.6029593094944513
sg10
S'r_b'
p2940
sg12
F0.09114639982597345
sg13
VTone Stith
p2941
sg15
I9999
sg16
F0.44527736131934026
sg17
Nsg18
Nsg19
Nsg20
F1e-07
sg21
F0.6766275346851655
sg22
Nsg23
Nsg24
F0.7338742189074783
ssg25
I01
sba(iSong
Song
p2942
(dp2943
g3
(dp2944
g5
F0.1700130459595147
sg6
VIn The Name
p2945
sg8
F0.38418872141513805
sg9
F0.49321824907521583
sg10
S'r_b'
p2946
sg12
F0.06808788340221883
sg13
VLeToya Luckett
p2947
sg15
I9999
sg16
F0.4272863568215893
sg17
Nsg18
Nsg19
Nsg20
F1e-07
sg21
F0.2305229455709712
sg22
Nsg23
Nsg24
F0.8296210441443257
ssg25
I01
sba(iSong
Song
p2948
(dp2949
g3
(dp2950
g5
F0.5311789171737845
sg6
VRemember U
p2951
sg8
F0.6156954400501513
sg9
F0.5819975339087546
sg10
S'r_b'
p2952
sg12
F0.10702632151403088
sg13
VMelanie Fiona
p2953
sg15
I9999
sg16
F0.17541229385307347
sg17
Nsg18
Nsg19
Nsg20
F1e-07
sg21
F0.1985058697972252
sg22
Nsg23
Nsg24
F0.940032251562185
ssg25
I01
sba(iSong
Song
p2954
(dp2955
g3
(dp2956
g5
F0.5971611436456222
sg6
VFeels Like
p2957
sg8
F0.5375930115293412
sg9
F0.26140567200986436
sg10
S'r_b'
p2958
sg12
F0.044159234283228196
sg13
VNAO
p2959
sg15
I9999
sg16
F0.5487256371814093
sg17
Nsg18
Nsg19
Nsg20
F0.006653944020356234
sg21
F0.5613660618996799
sg22
Nsg23
Nsg24
F0.6877645635960491
ssg25
I01
sba(iSong
Song
p2960
(dp2961
g3
(dp2962
g5
F0.11282844968392199
sg6
VDeep Water
p2963
sg8
F0.24450107661696965
sg9
F0.3945745992601726
sg10
S'r_b'
p2964
sg12
F0.10028279312595172
sg13
VDrew Vision
p2965
sg15
I9999
sg16
F0.5562218890554723
sg17
Nsg18
Nsg19
Nsg20
F1e-07
sg21
F0.4066168623265742
sg22
Nsg23
Nsg24
F0.5145132029832695
ssg25
I01
sba(iSong
Song
p2966
(dp2967
g3
(dp2968
g5
F0.6504099579913158
sg6
VDon't Go
p2969
sg8
F0.22351385973997656
sg9
F0.6806411837237978
sg10
S'r_b'
p2970
sg12
F0.22775723297802916
sg13
VKevin Ross
p2971
sg15
I9999
sg16
F0.49025487256371814
sg17
Nsg18
Nsg19
Nsg20
F8.104325699745547e-05
sg21
F0.5570971184631804
sg22
Nsg23
Nsg24
F0.6923503325942351
ssg25
I01
sba(iSong
Song
p2972
(dp2973
g3
(dp2974
g5
F0.41542062511792877
sg6
VBad Dream/No Looking Back
p2975
sg8
F0.28214178636648585
sg9
F0.12700369913686807
sg10
S'r_b'
p2976
sg12
F0.0633021535784207
sg13
VSyd
p2977
sg15
I9999
sg16
F0.5862068965517242
sg17
Nsg18
Nsg19
Nsg20
F0.39185750636132316
sg21
F0.11526147278548558
sg22
Nsg23
Nsg24
F0.37064099979842774
ssg25
I01
sba(iSong
Song
p2978
(dp2979
g3
(dp2980
g5
F0.3135533281087758
sg6
VDon't Choose
p2981
sg8
F0.5651557687590286
sg9
F0.22811344019728735
sg10
S'r_b'
p2982
sg12
F0.6475962584294105
sg13
Vdvsn
p2983
sg15
I9999
sg16
F0.48875562218890556
sg17
Nsg18
Nsg19
Nsg20
F0.011323155216284986
sg21
F0.176093916755603
sg22
Nsg23
Nsg24
F0.6254787341261843
ssg25
I01
sba(iSong
Song
p2984
(dp2985
g3
(dp2986
g5
F0.24178318703414522
sg6
VBang Your Line (feat. Ty Dolla $ign)
p2987
sg8
F0.26800948513178335
sg9
F0.3304562268803946
sg10
S'r_b'
p2988
sg12
F0.4561670654774853
sg13
VELHAE
p2989
sg15
I9999
sg16
F0.5142428785607197
sg17
Nsg18
Nsg19
Nsg20
F1e-07
sg21
F0.2849519743863394
sg22
Nsg23
Nsg24
F0.6599475912114493
ssg25
I01
sba(iSong
Song
p2990
(dp2991
g3
(dp2992
g5
F0.49413626371591063
sg6
VTeenage Fantasy
p2993
sg8
F0.8092684455831449
sg9
F0.7953144266337855
sg10
S'r_b'
p2994
sg12
F0.8607787687622362
sg13
VJorja Smith
p2995
sg15
I9999
sg16
F0.3568215892053973
sg17
Nsg18
Nsg19
Nsg20
F0.04071246819338422
sg21
F0.4461045891141943
sg22
Nsg23
Nsg24
F0.7708627292884499
ssg25
I01
sba(iSong
Song
p2996
(dp2997
g3
(dp2998
g5
F0.3668021424544694
sg6
VKickin\u2019 Back
p2999
sg8
F0.3950979857723023
sg9
F0.6300863131935882
sg10
S'r_b'
p3000
sg12
F0.10833152055688491
sg13
VMila J
p3001
sg15
I9999
sg16
F0.6341829085457271
sg17
Nsg18
Nsg19
Nsg20
F1e-07
sg21
F0.5208110992529349
sg22
Nsg23
Nsg24
F0.7686454343882282
ssg25
I01
sba(iSong
Song
p3002
(dp3003
g3
(dp3004
g5
F0.9050782005141984
sg6
VF It Up
p3005
sg8
F0.1611041456567363
sg9
F0.30332922318125777
sg10
S'r_b'
p3006
sg12
F0.19077659343049816
sg13
VTank
p3007
sg15
I9999
sg16
F0.09595202398800601
sg17
Nsg18
Nsg19
Nsg20
F1.7811704834605597e-05
sg21
F0.07011739594450374
sg22
Nsg23
Nsg24
F0.7696029026405966
ssg25
I01
sba(iSong
Song
p3008
(dp3009
g3
(dp3010
g5
F0.37606280581893786
sg6
VFrustrated
p3011
sg8
F0.44270762353839027
sg9
F0.5178791615289765
sg10
S'r_b'
p3012
sg12
F0.07091581466173592
sg13
VR.LUM.R
p3013
sg15
I9999
sg16
F0.18440779610194905
sg17
Nsg18
Nsg19
Nsg20
F1e-07
sg21
F0.20277481323372468
sg22
Nsg23
Nsg24
F0.8084559564603909
ssg25
I01
sba(iSong
Song
p3014
(dp3015
g3
(dp3016
g5
F0.7175497673837121
sg6
VGuilty
p3017
sg8
F0.24296791953991662
sg9
F0.3970406905055487
sg10
S'r_b'
p3018
sg12
F0.06743528388079181
sg13
VAaron Camper
p3019
sg15
I9999
sg16
F0.2983508245877061
sg17
Nsg18
Nsg19
Nsg20
F1e-07
sg21
F0.4151547491995731
sg22
Nsg23
Nsg24
F0.6397903648457972
ssg25
I01
sba(iSong
Song
p3020
(dp3021
g3
(dp3022
g5
F0.1376007241838751
sg6
VLate Night Flex
p3023
sg8
F0.4281937365422879
sg9
F0.5117139334155363
sg10
S'r_b'
p3024
sg12
F0.04589949967370023
sg13
VQuincy
p3025
sg15
I9999
sg16
F0.44977511244377805
sg17
Nsg18
Nsg19
Nsg20
F1e-07
sg21
F0.3628601921024546
sg22
Nsg23
Nsg24
F0.7559463817778673
ssg25
I01
sba(iSong
Song
p3026
(dp3027
g3
(dp3028
g5
F0.2695651771275506
sg6
VPeople Get Up And Drive Your Funky Soul - Remix
p3029
sg8
F0.2765610946060127
sg9
F0.8076448828606659
sg10
S'r_b'
p3030
sg12
F0.3060691755492713
sg13
VJames Brown
p3031
sg15
I9999
sg16
F0.7841079460269866
sg17
Nsg18
Nsg19
Nsg20
F0.0030025445292620866
sg21
F0.8271077908217717
sg22
Nsg23
Nsg24
F0.8530034267284821
ssg25
I01
sba(iSong
Song
p3032
(dp3033
g3
(dp3034
g5
F0.05170807147843018
sg6
VSlippery When Wet
p3035
sg8
F0.3074286570906811
sg9
F0.8964241676942047
sg10
S'r_b'
p3036
sg12
F0.17337393952577768
sg13
VCommodores
p3037
sg15
I9999
sg16
F0.6821589205397302
sg17
Nsg18
Nsg19
Nsg20
F2.162849872773537e-05
sg21
F0.9573105656350054
sg22
Nsg23
Nsg24
F0.7672344285426326
ssg25
I01
sba(iSong
Song
p3038
(dp3039
g3
(dp3040
g5
F0.65504028967355
sg6
VClean Up Woman
p3041
sg8
F0.22469268718144403
sg9
F0.6189889025893959
sg10
S'r_b'
p3042
sg12
F0.25168588209701975
sg13
VBetty Wright
p3043
sg15
I9999
sg16
F0.8815592203898052
sg17
Nsg18
Nsg19
Nsg20
F0.0011692111959287531
sg21
F0.848452508004269
sg22
Nsg23
Nsg24
F0.6642310018141504
ssg25
I01
sba(iSong
Song
p3044
(dp3045
g3
(dp3046
g5
F0.14454622170722645
sg6
VThe Jam
p3047
sg8
F0.3452397176265366
sg9
F0.8384710234278668
sg10
S'r_b'
p3048
sg12
F0.0857080704807483
sg13
VGraham Central Station
p3049
sg15
I9999
sg16
F0.6356821589205397
sg17
Nsg18
Nsg19
Nsg20
F0.41857506361323155
sg21
F0.6552828175026681
sg22
Nsg23
Nsg24
F0.5901028018544648
ssg25
I01
sba(iSong
Song
p3050
(dp3051
g3
(dp3052
g5
F0.4188933738796044
sg6
VThank You (Falettinme Be Mice Elf Agin) - single master
p3053
sg8
F0.33221128948731227
sg9
F0.7583230579531444
sg10
S'r_b'
p3054
sg12
F0.073961279095062
sg13
VSly & The Family Stone
p3055
sg15
I9999
sg16
F0.9325337331334334
sg17
Nsg18
Nsg19
Nsg20
F0.0002951653944020356
sg21
F0.9583778014941303
sg22
Nsg23
Nsg24
F0.5670227776657932
ssg25
I01
sba(iSong
Song
p3056
(dp3057
g3
(dp3058
g5
F0.0897925495648067
sg6
VIt's Your Thing
p3059
sg8
F0.8733339693096024
sg9
F0.6559802712700371
sg10
S'r_b'
p3060
sg12
F0.21035457907330868
sg13
VThe Isley Brothers
p3061
sg15
I9999
sg16
F0.15142428785607195
sg17
Nsg18
Nsg19
Nsg20
F3.600508905852417e-06
sg21
F0.9135538954108858
sg22
Nsg23
Nsg24
F0.6046663979036484
ssg25
I01
sba(iSong
Song
p3062
(dp3063
g3
(dp3064
g5
F0.7974229889022525
sg6
VTell Me Something Good
p3065
sg8
F0.11500040884188723
sg9
F0.31689272503082616
sg10
S'r_b'
p3066
sg12
F0.4518164020013052
sg13
VRufus
p3067
sg15
I9999
sg16
F0.664167916041979
sg17
Nsg18
Nsg19
Nsg20
F1e-07
sg21
F0.7801494130202775
sg22
Nsg23
Nsg24
F0.6605019149365048
ssg25
I01
sba(iSong
Song
p3068
(dp3069
g3
(dp3070
g5
F0.020916365791572567
sg6
VSuperstition
p3071
sg8
F0.29525879691460655
sg9
F0.7410604192355117
sg10
S'r_b'
p3072
sg12
F0.11594518164020014
sg13
VStevie Wonder
p3073
sg15
I9999
sg16
F0.5562218890554723
sg17
Nsg18
Nsg19
Nsg20
F0.000510178117048346
sg21
F0.8847385272145144
sg22
Nsg23
Nsg24
F0.6876133843983068
ssg25
I01
sba(iSong
Song
p3074
(dp3075
g3
(dp3076
g5
F0.4339419518468657
sg6
VFencewalk
p3077
sg8
F0.3320545667638802
sg9
F0.5561035758323057
sg10
S'r_b'
p3078
sg12
F0.0785294757450511
sg13
VMandrill
p3079
sg15
I9999
sg16
F0.4632683658170914
sg17
Nsg18
Nsg19
Nsg20
F0.04516539440203562
sg21
F0.991462113127001
sg22
Nsg23
Nsg24
F0.5866256803063898
ssg25
I01
sba(iSong
Song
p3080
(dp3081
g3
(dp3082
g5
F0.2637772625247578
sg6
VFire
p3083
sg8
F0.3420643789691733
sg9
F0.8458692971639951
sg10
S'r_b'
p3084
sg12
F0.111376984990211
sg13
VOhio Players
p3085
sg15
I9999
sg16
F0.5187406296851574
sg17
Nsg18
Nsg19
Nsg20
F0.05928753180661578
sg21
F0.8164354322305231
sg22
Nsg23
Nsg24
F0.5973594033460996
ssg25
I01
sba(iSong
Song
p3086
(dp3087
g3
(dp3088
g5
F0.869193129976883
sg6
VP-Funk (Wants To Get Funked Up)
p3089
sg8
F0.20747362969827468
sg9
F0.3760789149198521
sg10
S'r_b'
p3090
sg12
F0.408309767239504
sg13
VParliament
p3091
sg15
I9999
sg16
F0.575712143928036
sg17
Nsg18
Nsg19
Nsg20
F1.3486005089058524e-05
sg21
F0.7972251867662754
sg22
Nsg23
Nsg24
F0.48246321306188267
ssg25
I01
sba(iSong
Song
p3092
(dp3093
g3
(dp3094
g5
F0.2753530917303434
sg6
VI'd Rather Be With You
p3095
sg8
F0.7550014990869199
sg9
F0.5129469790382244
sg10
S'r_b'
p3096
sg12
F0.6693495758103112
sg13
VBootsy Collins
p3097
sg15
I9999
sg16
F0.2998500749625187
sg17
Nsg18
Nsg19
Nsg20
F1e-07
sg21
F0.7940234791889008
sg22
Nsg23
Nsg24
F0.501562185043338
ssg25
I01
sba(iSong
Song
p3098
(dp3099
g3
(dp3100
g5
F0.2591469308425236
sg6
VThe Cisco Kid
p3101
sg8
F0.576855460764807
sg9
F0.8508014796547472
sg10
S'r_b'
p3102
sg12
F0.19077659343049816
sg13
VWar
p3103
sg15
I9999
sg16
F0.8575712143928036
sg17
Nsg18
Nsg19
Nsg20
F0.008536895674300254
sg21
F0.9882604055496265
sg22
Nsg23
Nsg24
F0.7590707518645434
ssg25
I01
sba(iSong
Song
p3104
(dp3105
g3
(dp3106
g5
F0.02566245576586265
sg6
VMighty Mighty
p3107
sg8
F0.39498896126904515
sg9
F0.8187422934648582
sg10
S'r_b'
p3108
sg12
F0.010224059169023275
sg13
VEarth, Wind & Fire
p3109
sg15
I9999
sg16
F0.5922038980509746
sg17
Nsg18
Nsg19
Nsg20
F0.05229007633587786
sg21
F0.9967982924226254
sg22
Nsg23
Nsg24
F0.5838036686151985
ssg25
I01
sba(iSong
Song
p3110
(dp3111
g3
(dp3112
g5
F0.17117062888007326
sg6
VKeep It Hot - Edit
p3113
sg8
F0.3242525007495434
sg9
F0.6707768187422934
sg10
S'r_b'
p3114
sg12
F0.21688057428757884
sg13
VCameo
p3115
sg15
I9999
sg16
F0.9970014992503748
sg17
Nsg18
Nsg19
Nsg20
F0.0016030534351145038
sg21
F0.6424759871931697
sg22
Nsg23
Nsg24
F0.7248034670429349
ssg25
I01
sba(iSong
Song
p3116
(dp3117
g3
(dp3118
g5
F0.24757110163693802
sg6
VHoly Ghost
p3119
sg8
F0.345042110714383
sg9
F0.9938347718865598
sg10
S'r_b'
p3120
sg12
F0.09484446378072656
sg13
VThe Bar-Kays
p3121
sg15
I9999
sg16
F0.6341829085457271
sg17
Nsg18
Nsg19
Nsg20
F0.950381679389313
sg21
F0.8121664887940235
sg22
Nsg23
Nsg24
F0.7365954444668413
ssg25
I01
sba(iSong
Song
p3122
(dp3123
g3
(dp3124
g5
F0.01489693460466807
sg6
VSlide
p3125
sg8
F0.40126468423778244
sg9
F0.9223181257706535
sg10
S'r_b'
p3126
sg12
F0.011311725038068305
sg13
VSlave
p3127
sg15
I9999
sg16
F0.5142428785607197
sg17
Nsg18
Nsg19
Nsg20
F0.12175572519083969
sg21
F0.9338313767342583
sg22
Nsg23
Nsg24
F0.6684640193509372
ssg25
I01
sba(iSong
Song
p3128
(dp3129
g3
(dp3130
g5
F0.39226896670675765
sg6
VSmiling Faces Sometimes
p3131
sg8
F0.3325383629970836
sg9
F0.5745992601726264
sg10
S'r_b'
p3132
sg12
F1e-07
sg13
VThe Undisputed Truth
p3133
sg15
I9999
sg16
F0.31484257871064464
sg17
Nsg18
Nsg19
Nsg20
F1e-07
sg21
F0.6595517609391676
sg22
Nsg23
Nsg24
F0.6916952227373513
ssg25
I01
sba(iSong
Song
p3134
(dp3135
g3
(dp3136
g5
F0.13875830710443365
sg6
VLet It Whip
p3137
sg8
F0.5109433345144322
sg9
F0.9075215782983971
sg10
S'r_b'
p3138
sg12
F0.03437024146182292
sg13
VDazz Band
p3139
sg15
I9999
sg16
F0.8275862068965517
sg17
Nsg18
Nsg19
Nsg20
F0.0004783715012722646
sg21
F0.9541088580576308
sg22
Nsg23
Nsg24
F0.8955351743600081
ssg25
I01
sba(iSong
Song
p3140
(dp3141
g3
(dp3142
g5
F0.1294976437399652
sg6
VMore Bounce To The Ounce
p3143
sg8
F0.3281092425522636
sg9
F0.7546239210850801
sg10
S'r_b'
p3144
sg12
F0.11768544703067217
sg13
VZapp
p3145
sg15
I9999
sg16
F0.8680659670164917
sg17
Nsg18
Nsg19
Nsg20
F0.006984732824427481
sg21
F0.8591248665955176
sg22
Nsg23
Nsg24
F0.5937311026002822
ssg25
I01
sba(iSong
Song
p3146
(dp3147
g3
(dp3148
g5
F0.13181280958108232
sg6
VCutie Pie
p3149
sg8
F0.309282073646052
sg9
F0.4747225647348952
sg10
S'r_b'
p3150
sg12
F0.06243202088318468
sg13
VOne Way
p3151
sg15
I9999
sg16
F0.9010494752623689
sg17
Nsg18
Nsg19
Nsg20
F1.0750636132315522e-05
sg21
F0.9861259338313767
sg22
Nsg23
Nsg24
F0.6097057044950615
ssg25
I01
sba(iSong
Song
p3152
(dp3153
g3
(dp3154
g5
F0.12255214621661385
sg6
VWho Is He (And What Is He to You?)
p3155
sg8
F0.2878246885987626
sg9
F0.20591861898890262
sg10
S'r_b'
p3156
sg12
F0.022840983249945615
sg13
VBill Withers
p3157
sg15
I9999
sg16
F0.9520239880059971
sg17
Nsg18
Nsg19
Nsg20
F0.0002646310432569974
sg21
F0.9722518676627534
sg22
Nsg23
Nsg24
F0.4791372707115501
ssg25
I01
sba(iSong
Song
p3158
(dp3159
g3
(dp3160
g5
F0.26493484544531637
sg6
VThe Payback - Part 1
p3161
sg8
F0.27307231050178526
sg9
F0.6818742293464858
sg10
S'r_b'
p3162
sg12
F0.47139438764411573
sg13
VJames Brown
p3163
sg15
I9999
sg16
F0.9160419790104949
sg17
Nsg18
Nsg19
Nsg20
F8.180661577608143e-05
sg21
F0.7641408751334045
sg22
Nsg23
Nsg24
F0.7032352348316872
ssg25
I01
sba(iSong
Song
p3164
(dp3165
g3
(dp3166
g5
F0.05020321368170405
sg6
VI Can Understand It
p3167
sg8
F0.4631565319305514
sg9
F0.87422934648582
sg10
S'r_b'
p3168
sg12
F0.1309549706330215
sg13
VThe New Birth
p3169
sg15
I9999
sg16
F0.7451274362818592
sg17
Nsg18
Nsg19
Nsg20
F1e-07
sg21
F0.8452508004268943
sg22
Nsg23
Nsg24
F0.729086877645636
ssg25
I01
sba(iSong
Song
p3170
(dp3171
g3
(dp3172
g5
F0.25798934792196504
sg6
VFfun
p3173
sg8
F0.3731159203030881
sg9
F0.5992601726263872
sg10
S'r_b'
p3174
sg12
F0.12725690667826842
sg13
VCon Funk Shun
p3175
sg15
I9999
sg16
F0.9835082458770616
sg17
Nsg18
Nsg19
Nsg20
F0.006195928753180662
sg21
F0.8943436499466382
sg22
Nsg23
Nsg24
F0.6674561580326547
ssg25
I01
sba(iSong
Song
p3176
(dp3177
g3
(dp3178
g5
F0.29966233306207307
sg6
VI Don't Believe You Want To Get Up And Dance (Oops Up Side Your Head)
p3179
sg8
F0.31775872877429207
sg9
F0.7940813810110975
sg10
S'r_b'
p3180
sg12
F0.29519251685882103
sg13
VThe Gap Band
p3181
sg15
I9999
sg16
F0.5817091454272865
sg17
Nsg18
Nsg19
Nsg20
F1.5776081424936386e-06
sg21
F0.8772678762006404
sg22
Nsg23
Nsg24
F0.607589195726668
ssg25
I01
sba(iSong
Song
p3182
(dp3183
g3
(dp3184
g5
F0.08446766813023733
sg6
VMary Jane
p3185
sg8
F0.2557987407669874
sg9
F0.7459926017262639
sg10
S'r_b'
p3186
sg12
F0.12703937350445943
sg13
VRick James
p3187
sg15
I9999
sg16
F0.4467766116941529
sg17
Nsg18
Nsg19
Nsg20
F5.521628498727735e-06
sg21
F0.9551760939167557
sg22
Nsg23
Nsg24
F0.6766276960290264
ssg25
I01
sba(iSong
Song
p3188
(dp3189
g3
(dp3190
g5
F0.1072720516652409
sg6
VSchool Boy Crush
p3191
sg8
F0.7804723486603615
sg9
F0.5400739827373613
sg10
S'r_b'
p3192
sg12
F0.06134435501413966
sg13
VAverage White Band
p3193
sg15
I9999
sg16
F0.45577211394302847
sg17
Nsg18
Nsg19
Nsg20
F0.01793893129770992
sg21
F0.8335112059765207
sg22
Nsg23
Nsg24
F0.7437008667607337
ssg25
I01
sba(iSong
Song
p3194
(dp3195
g3
(dp3196
g5
F0.9444360198131893
sg6
VBoogie Witcha, Baby
p3197
sg8
F0.8151012565074001
sg9
F0.6029593094944513
sg10
S'r_b'
p3198
sg12
F0.15684141831629322
sg13
VLarry Graham
p3199
sg15
I9999
sg16
F0.6386806596701649
sg17
Nsg18
Nsg19
Nsg20
F0.5267175572519084
sg21
F0.7982924226254002
sg22
Nsg23
Nsg24
F0.45142108445877843
ssg25
I01
sba(iSong
Song
p3200
(dp3201
g3
(dp3202
g5
F0.19316470437068586
sg6
VHyperbolicsyllablecsesquedalymistic - Album - Remaster
p3203
sg8
F0.8377715391534247
sg9
F0.4204685573366215
sg10
S'r_b'
p3204
sg12
F0.017402653904720462
sg13
VIsaac Hayes
p3205
sg15
I9999
sg16
F0.4377811094452773
sg17
Nsg18
Nsg19
Nsg20
F0.038167938931297704
sg21
F0.7481323372465315
sg22
Nsg23
Nsg24
F0.514664382181012
ssg25
I01
sba(iSong
Song
p3206
(dp3207
g3
(dp3208
g5
F0.2637772625247578
sg6
VBustin' Loose
p3209
sg8
F0.37051977431927824
sg9
F0.9716399506781751
sg10
S'r_b'
p3210
sg12
F0.10354579073308677
sg13
VChuck Brown and the Soul Searchers
p3211
sg15
I9999
sg16
F0.8545727136431784
sg17
Nsg18
Nsg19
Nsg20
F0.028753180661577605
sg21
F0.9477054429028816
sg22
Nsg23
Nsg24
F0.9079822616407982
ssg25
I01
sba(iSong
Song
p3212
(dp3213
g3
(dp3214
g5
F0.5045545100009377
sg6
VFunkin' for Jamaica
p3215
sg8
F0.3686799858268146
sg9
F0.7718865598027127
sg10
S'r_b'
p3216
sg12
F0.41266043071568415
sg13
VTom Browne
p3217
sg15
I9999
sg16
F0.8650674662668666
sg17
Nsg18
Nsg19
Nsg20
F0.22264631043256994
sg21
F0.6638207043756671
sg22
Nsg23
Nsg24
F0.6237149768191896
ssg25
I01
sba(iSong
Song
p3218
(dp3219
g3
(dp3220
g5
F0.03017702915604102
sg6
VYes We Can Can
p3221
sg8
F0.22380004906102646
sg9
F0.4858199753390876
sg10
S'r_b'
p3222
sg12
F0.4779203828583859
sg13
VThe Pointer Sisters
p3223
sg15
I9999
sg16
F0.7631184407796103
sg17
Nsg18
Nsg19
Nsg20
F0.0011119592875318066
sg21
F0.8281750266808966
sg22
Nsg23
Nsg24
F0.4125680306389841
ssg25
I01
sba(iSong
Song
p3224
(dp3225
g3
(dp3226
g5
F0.1804312922445417
sg6
VRock Me Again & Again & Again & Again & Again & Again - Single Version
p3227
sg8
F0.4109746790591185
sg9
F0.5376078914919852
sg10
S'r_b'
p3228
sg12
F0.408309767239504
sg13
VLyn Collins
p3229
sg15
I9999
sg16
F0.7826086956521741
sg17
Nsg18
Nsg19
Nsg20
F1e-07
sg21
F0.9818569903948773
sg22
Nsg23
Nsg24
F0.7389639185648055
ssg25
I01
sba(iSong
Song
p3230
(dp3231
g3
(dp3232
g5
F0.47908768574864935
sg6
VBootzilla
p3233
sg8
F0.31778598490010623
sg9
F0.934648581997534
sg10
S'r_b'
p3234
sg12
F0.1820752664781379
sg13
VBootsy Collins
p3235
sg15
I9999
sg16
F0.7676161919040481
sg17
Nsg18
Nsg19
Nsg20
F4.071246819338422e-05
sg21
F0.6456776947705443
sg22
Nsg23
Nsg24
F0.7810925216690183
ssg25
I01
sba(iSong
Song
p3236
(dp3237
g3
(dp3238
g5
F0.08111067766061751
sg6
VFight the Power - Pt. 1 & 2
p3239
sg8
F0.4723963585815912
sg9
F0.7336621454993835
sg10
S'r_b'
p3240
sg12
F0.29736784859691107
sg13
VThe Isley Brothers
p3241
sg15
I9999
sg16
F0.7721139430284859
sg17
Nsg18
Nsg19
Nsg20
F0.008447837150127226
sg21
F0.7694770544290288
sg22
Nsg23
Nsg24
F0.7280286232614391
ssg25
I01
sba(iSong
Song
p3242
(dp3243
g3
(dp3244
g5
F0.052865654398988736
sg6
VJungle Boogie
p3245
sg8
F0.33903894900378856
sg9
F0.7854500616522812
sg10
S'r_b'
p3246
sg12
F0.11463998259734609
sg13
VKool & The Gang
p3247
sg15
I9999
sg16
F0.7871064467766118
sg17
Nsg18
Nsg19
Nsg20
F7.404580152671756e-05
sg21
F0.727854855923159
sg22
Nsg23
Nsg24
F0.5644527313041725
ssg25
I01
sba(iSong
Song
p3248
(dp3249
g3
(dp3250
g5
F0.14107347294555075
sg6
VGetaway
p3251
sg8
F0.3783831666166971
sg9
F0.935881627620222
sg10
S'r_b'
p3252
sg12
F0.031107243854687834
sg13
VEarth, Wind & Fire
p3253
sg15
I9999
sg16
F0.6746626686656672
sg17
Nsg18
Nsg19
Nsg20
F0.022646310432569972
sg21
F0.8505869797225186
sg22
Nsg23
Nsg24
F0.7108445877847208
ssg25
I01
sba(iSong
Song
p3254
(dp3255
g3
(dp3256
g5
F0.42352370556183866
sg6
VDance Wit Me
p3257
sg8
F0.48128866962849903
sg9
F0.4512946979038225
sg10
S'r_b'
p3258
sg12
F0.16902327604959755
sg13
VRufus
p3259
sg15
I9999
sg16
F0.8950524737631185
sg17
Nsg18
Nsg19
Nsg20
F0.42493638676844786
sg21
F0.9242262540021345
sg22
Nsg23
Nsg24
F0.40495867768595034
ssg25
I01
sba(iSong
Song
p3260
(dp3261
g3
(dp3262
g5
F0.01802240849017617
sg6
VShake Your Rump To The Funk
p3263
sg8
F0.3839297882199024
sg9
F0.933415536374846
sg10
S'r_b'
p3264
sg12
F0.022623450076136604
sg13
VThe Bar-Kays
p3265
sg15
I9999
sg16
F0.6731634182908546
sg17
Nsg18
Nsg19
Nsg20
F3.142493638676845e-05
sg21
F0.80042689434365
sg22
Nsg23
Nsg24
F0.8376839346905866
ssg25
I01
sba(iSong
Song
p3266
(dp3267
g3
(dp3268
g5
F0.05992691021439594
sg6
VIt's Serious
p3269
sg8
F0.44480634522608953
sg9
F0.7718865598027127
sg10
S'r_b'
p3270
sg12
F0.017402653904720462
sg13
VCameo
p3271
sg15
I9999
sg16
F0.8755622188905547
sg17
Nsg18
Nsg19
Nsg20
F0.45547073791348597
sg21
F0.9743863393810032
sg22
Nsg23
Nsg24
F0.7646139891150977
ssg25
I01
sba(iSong
Song
p3272
(dp3273
g3
(dp3274
g5
F0.0746282133054896
sg6
VShake
p3275
sg8
F0.29598789828013844
sg9
F0.6843403205918619
sg10
S'r_b'
p3276
sg12
F0.04742223189036327
sg13
VThe Gap Band
p3277
sg15
I9999
sg16
F0.9310344827586208
sg17
Nsg18
Nsg19
Nsg20
F0.2455470737913486
sg21
F0.768409818569904
sg22
Nsg23
Nsg24
F0.7348316871598468
ssg25
I01
sba(iSong
Song
p3278
(dp3279
g3
(dp3280
g5
F0.09696956367226975
sg6
VGive Up The Funk (Tear The Roof Off The Sucker)
p3281
sg8
F0.33174112131701594
sg9
F0.5413070283600493
sg10
S'r_b'
p3282
sg12
F0.023493582771372635
sg13
VParliament
p3283
sg15
I9999
sg16
F0.6971514242878561
sg17
Nsg18
Nsg19
Nsg20
F0.0001666666666666667
sg21
F0.953041622198506
sg22
Nsg23
Nsg24
F0.42526708324934487
ssg25
I01
sba(iSong
Song
p3284
(dp3285
g3
(dp3286
g5
F0.03295522816538156
sg6
VToo Hot To Stop (Part 1)
p3287
sg8
F0.30043746081931916
sg9
F0.8606658446362515
sg10
S'r_b'
p3288
sg12
F0.22123123776375897
sg13
VThe Bar-Kays
p3289
sg15
I9999
sg16
F0.7106446776611695
sg17
Nsg18
Nsg19
Nsg20
F0.02124681933842239
sg21
F0.5901814300960512
sg22
Nsg23
Nsg24
F0.9039508163676678
ssg25
I01
sba(iSong
Song
p3290
(dp3291
g3
(dp3292
g5
F0.1804312922445417
sg6
VIt's Party Time
p3293
sg8
F0.4316484504892475
sg9
F0.7053020961775586
sg10
S'r_b'
p3294
sg12
F0.003480530780944088
sg13
VBobby Womack
p3295
sg15
I9999
sg16
F0.8065967016491754
sg17
Nsg18
Nsg19
Nsg20
F0.00011297709923664122
sg21
F0.9925293489861259
sg22
Nsg23
Nsg24
F0.7659242088288651
ssg25
I01
sba(iSong
Song
p3296
(dp3297
g3
(dp3298
g5
F0.49066351495423494
sg6
VBoogie Down - Single Version
p3299
sg8
F0.3967810515413339
sg9
F0.5721331689272503
sg10
S'r_b'
p3300
sg12
F0.026756580378507727
sg13
VEddie Kendricks
p3301
sg15
I9999
sg16
F0.7676161919040481
sg17
Nsg18
Nsg19
Nsg20
F0.44147582697201015
sg21
F0.9295624332977589
sg22
Nsg23
Nsg24
F0.640092723241282
ssg25
I01
sba(iSong
Song
p3302
(dp3303
g3
(dp3304
g5
F0.10055807072600127
sg6
VBrick House
p3305
sg8
F0.3463027065332933
sg9
F0.780517879161529
sg10
S'r_b'
p3306
sg12
F0.08549053730693931
sg13
VCommodores
p3307
sg15
I9999
sg16
F0.8515742128935533
sg17
Nsg18
Nsg19
Nsg20
F0.005928753180661578
sg21
F0.5795090715048025
sg22
Nsg23
Nsg24
F0.590959483975005
ssg25
I01
sba(iSong
Song
p3308
(dp3309
g3
(dp3310
g5
F0.35059598156664956
sg6
VGet The Funk Out Ma Face
p3311
sg8
F0.33362860802965466
sg9
F0.7163995067817509
sg10
S'r_b'
p3312
sg12
F0.25168588209701975
sg13
VThe Brothers Johnson
p3313
sg15
I9999
sg16
F0.9625187406296852
sg17
Nsg18
Nsg19
Nsg20
F0.015776081424936386
sg21
F0.7641408751334045
sg22
Nsg23
Nsg24
F0.7432473291675066
ssg25
I01
sba(iSong
Song
p3314
(dp3315
g3
(dp3316
g5
F0.2325225236696768
sg6
VGet Down On It - Single Version
p3317
sg8
F0.36636321513260106
sg9
F0.6091245376078915
sg10
S'r_b'
p3318
sg12
F0.0670002175331738
sg13
VKool & The Gang
p3319
sg15
I9999
sg16
F0.9025487256371815
sg17
Nsg18
Nsg19
Nsg20
F0.00018829516539440203
sg21
F1.0
sg22
Nsg23
Nsg24
F0.7977726264865954
ssg25
I01
sba(iSong
Song
p3320
(dp3321
g3
(dp3322
g5
F0.5288637513326674
sg6
VSuperfly
p3323
sg8
F0.4293044236692196
sg9
F0.688039457459926
sg10
S'r_b'
p3324
sg12
F0.17989993474004784
sg13
VCurtis Mayfield
p3325
sg15
I9999
sg16
F0.7601199400299851
sg17
Nsg18
Nsg19
Nsg20
F9.541984732824426e-05
sg21
F0.7630736392742796
sg22
Nsg23
Nsg24
F0.659443660552308
ssg25
I01
sba.