(lp0
(iSong
Song
p1
(dp2
S'attributes'
p3
(dp4
S'accousticness'
p5
F0.0986
sS'title'
p6
VMiss Fatty
p7
sS'tempo'
p8
F0.4372
sS'energy'
p9
F0.479
sS'from_playlist'
p10
S'raggae'
p11
sS'speechiness'
p12
F0.289
sS'artist_name'
p13
VMillion Stylez
p14
sS'cluster_id'
p15
I9999
sS'danceability'
p16
F0.943
sS'end_of_fade_in'
p17
NsS'artist_familiarity'
p18
NsS'duration'
p19
NsS'loudness'
p20
F0.8971333333333333
sS'valence'
p21
F0.921
sS'start_of_fade_out'
p22
NsS'artist_hotness'
p23
NsS'instrumentalness'
p24
I0
ssS'isNormalized'
p25
I01
sS'hasData'
p26
I01
sba(iSong
Song
p27
(dp28
g3
(dp29
g5
F0.281
sg6
VKontrol
p30
sg8
F0.455972
sg9
F0.521
sg10
S'raggae'
p31
sg12
F0.0512
sg13
VMaleek Berry
p32
sg15
I9999
sg16
F0.868
sg17
Nsg18
Nsg19
Nsg20
F0.8849666666666667
sg21
F0.886
sg22
Nsg23
Nsg24
F6.36e-05
ssg25
I01
sg26
I01
sba(iSong
Song
p33
(dp34
g3
(dp35
g5
F0.534
sg6
VYour Number
p36
sg8
F0.399704
sg9
F0.61
sg10
S'raggae'
p37
sg12
F0.234
sg13
VAyo Jay
p38
sg15
I9999
sg16
F0.588
sg17
Nsg18
Nsg19
Nsg20
F0.9165333333333333
sg21
F0.645
sg22
Nsg23
Nsg24
I0
ssg25
I01
sg26
I01
sba(iSong
Song
p39
(dp40
g3
(dp41
g5
F0.00117
sg6
VCan't Believe (feat. Ty Dolla $ign & WizKid)
p42
sg8
F0.39984800000000004
sg9
F0.764
sg10
S'raggae'
p43
sg12
F0.0843
sg13
VKranium
p44
sg15
I9999
sg16
F0.725
sg17
Nsg18
Nsg19
Nsg20
F0.91845
sg21
F0.611
sg22
Nsg23
Nsg24
F8.93e-06
ssg25
I01
sg26
I01
sba(iSong
Song
p45
(dp46
g3
(dp47
g5
F0.0278
sg6
VLUV - Remix
p48
sg8
F0.38012799999999997
sg9
F0.558
sg10
S'raggae'
p49
sg12
F0.252
sg13
VTory Lanez
p50
sg15
I9999
sg16
F0.677
sg17
Nsg18
Nsg19
Nsg20
F0.8729666666666667
sg21
F0.564
sg22
Nsg23
Nsg24
I0
ssg25
I01
sg26
I01
sba(iSong
Song
p51
(dp52
g3
(dp53
g5
F0.0272
sg6
VGyal You A Party Animal
p54
sg8
F0.5154160000000001
sg9
F0.838
sg10
S'raggae'
p55
sg12
F0.0996
sg13
VCharly Black
p56
sg15
I9999
sg16
F0.599
sg17
Nsg18
Nsg19
Nsg20
F0.914
sg21
F0.847
sg22
Nsg23
Nsg24
I0
ssg25
I01
sg26
I01
sba(iSong
Song
p57
(dp58
g3
(dp59
g5
F0.139
sg6
VFever
p60
sg8
F0.392372
sg9
F0.62
sg10
S'raggae'
p61
sg12
F0.244
sg13
VVybz Kartel
p62
sg15
I9999
sg16
F0.891
sg17
Nsg18
Nsg19
Nsg20
F0.8756166666666666
sg21
F0.404
sg22
Nsg23
Nsg24
F1.61e-05
ssg25
I01
sg26
I01
sba(iSong
Song
p63
(dp64
g3
(dp65
g5
F0.337
sg6
VHold You
p66
sg8
F0.5331480000000001
sg9
F0.643
sg10
S'raggae'
p67
sg12
F0.0518
sg13
VGyptian
p68
sg15
I9999
sg16
F0.64
sg17
Nsg18
Nsg19
Nsg20
F0.9480333333333333
sg21
F0.503
sg22
Nsg23
Nsg24
I0
ssg25
I01
sg26
I01
sba(iSong
Song
p69
(dp70
g3
(dp71
g5
F0.448
sg6
VPull Up to Mi Bumper
p72
sg8
F0.847832
sg9
F0.683
sg10
S'raggae'
p73
sg12
F0.464
sg13
VKonshens
p74
sg15
I9999
sg16
F0.599
sg17
Nsg18
Nsg19
Nsg20
F0.9364666666666667
sg21
F0.75
sg22
Nsg23
Nsg24
I0
ssg25
I01
sg26
I01
sba(iSong
Song
p75
(dp76
g3
(dp77
g5
F0.0808
sg6
VMillion Pound Girl (Badder Than Bad) - Edit
p78
sg8
F0.799548
sg9
F0.938
sg10
S'raggae'
p79
sg12
F0.076
sg13
VFuse ODG
p80
sg15
I9999
sg16
F0.605
sg17
Nsg18
Nsg19
Nsg20
F0.98005
sg21
F0.734
sg22
Nsg23
Nsg24
I0
ssg25
I01
sg26
I01
sba(iSong
Song
p81
(dp82
g3
(dp83
g5
F0.104
sg6
VOva Dweet
p84
sg8
F0.411032
sg9
F0.699
sg10
S'raggae'
p85
sg12
F0.3
sg13
VPopcaan
p86
sg15
I9999
sg16
F0.638
sg17
Nsg18
Nsg19
Nsg20
F0.91835
sg21
F0.597
sg22
Nsg23
Nsg24
I0
ssg25
I01
sg26
I01
sba(iSong
Song
p87
(dp88
g3
(dp89
g5
F0.191
sg6
VBruk Off Yuh Back
p90
sg8
F0.40374
sg9
F0.882
sg10
S'raggae'
p91
sg12
F0.173
sg13
VKonshens
p92
sg15
I9999
sg16
F0.834
sg17
Nsg18
Nsg19
Nsg20
F0.9572833333333333
sg21
F0.963
sg22
Nsg23
Nsg24
I0
ssg25
I01
sg26
I01
sba(iSong
Song
p93
(dp94
g3
(dp95
g5
F0.0654
sg6
VWhine & Kotch - Raw
p96
sg8
F0.420604
sg9
F0.675
sg10
S'raggae'
p97
sg12
F0.387
sg13
VCharly Black
p98
sg15
I9999
sg16
F0.699
sg17
Nsg18
Nsg19
Nsg20
F0.9102833333333333
sg21
F0.442
sg22
Nsg23
Nsg24
I0
ssg25
I01
sg26
I01
sba(iSong
Song
p99
(dp100
g3
(dp101
g5
F0.0382
sg6
VSo Mi Like It
p102
sg8
F0.360508
sg9
F0.694
sg10
S'raggae'
p103
sg12
F0.331
sg13
VSpice
p104
sg15
I9999
sg16
F0.812
sg17
Nsg18
Nsg19
Nsg20
F0.9347833333333334
sg21
F0.861
sg22
Nsg23
Nsg24
I0
ssg25
I01
sg26
I01
sba(iSong
Song
p105
(dp106
g3
(dp107
g5
F0.000755
sg6
VNo Games
p108
sg8
F0.743116
sg9
F0.79
sg10
S'raggae'
p109
sg12
F0.284
sg13
VSerani
p110
sg15
I9999
sg16
F0.741
sg17
Nsg18
Nsg19
Nsg20
F0.9157333333333334
sg21
F0.806
sg22
Nsg23
Nsg24
I0
ssg25
I01
sg26
I01
sba(iSong
Song
p111
(dp112
g3
(dp113
g5
F0.145
sg6
VGal a Bubble
p114
sg8
F0.400336
sg9
F0.731
sg10
S'raggae'
p115
sg12
F0.349
sg13
VKonshens
p116
sg15
I9999
sg16
F0.827
sg17
Nsg18
Nsg19
Nsg20
F0.87525
sg21
F0.665
sg22
Nsg23
Nsg24
F3.16e-05
ssg25
I01
sg26
I01
sba(iSong
Song
p117
(dp118
g3
(dp119
g5
F0.42
sg6
VWe Can (feat. Tory Lanez)
p120
sg8
F0.53106
sg9
F0.618
sg10
S'raggae'
p121
sg12
F0.32
sg13
VKranium
p122
sg15
I9999
sg16
F0.552
sg17
Nsg18
Nsg19
Nsg20
F0.8873833333333334
sg21
F0.399
sg22
Nsg23
Nsg24
I0
ssg25
I01
sg26
I01
sba(iSong
Song
p123
(dp124
g3
(dp125
g5
F0.262
sg6
VNuttin Nuh Go So
p126
sg8
F0.391552
sg9
F0.806
sg10
S'raggae'
p127
sg12
F0.115
sg13
VNotch
p128
sg15
I9999
sg16
F0.752
sg17
Nsg18
Nsg19
Nsg20
F0.9175333333333333
sg21
F0.763
sg22
Nsg23
Nsg24
I0
ssg25
I01
sg26
I01
sba(iSong
Song
p129
(dp130
g3
(dp131
g5
F0.061
sg6
VTempted To Touch
p132
sg8
F0.423952
sg9
F0.825
sg10
S'raggae'
p133
sg12
F0.0549
sg13
VRupee
p134
sg15
I9999
sg16
F0.819
sg17
Nsg18
Nsg19
Nsg20
F0.8831333333333333
sg21
F0.939
sg22
Nsg23
Nsg24
I0
ssg25
I01
sg26
I01
sba(iSong
Song
p135
(dp136
g3
(dp137
g5
F0.0886
sg6
VClarks
p138
sg8
F0.407488
sg9
F0.802
sg10
S'raggae'
p139
sg12
F0.373
sg13
VVybz Kartel
p140
sg15
I9999
sg16
F0.631
sg17
Nsg18
Nsg19
Nsg20
F0.9114
sg21
F0.772
sg22
Nsg23
Nsg24
I0
ssg25
I01
sg26
I01
sba(iSong
Song
p141
(dp142
g3
(dp143
g5
F0.00815
sg6
VMek It Bunx Up
p144
sg8
F0.39999599999999996
sg9
F0.806
sg10
S'raggae'
p145
sg12
F0.296
sg13
VDeeWunn
p146
sg15
I9999
sg16
F0.947
sg17
Nsg18
Nsg19
Nsg20
F0.9301499999999999
sg21
F0.634
sg22
Nsg23
Nsg24
I0
ssg25
I01
sg26
I01
sba(iSong
Song
p147
(dp148
g3
(dp149
g5
F0.0139
sg6
VRomping Shop
p150
sg8
F0.34386
sg9
F0.721
sg10
S'raggae'
p151
sg12
F0.188
sg13
VVybz Kartel
p152
sg15
I9999
sg16
F0.607
sg17
Nsg18
Nsg19
Nsg20
F0.9241833333333334
sg21
F0.414
sg22
Nsg23
Nsg24
I0
ssg25
I01
sg26
I01
sba(iSong
Song
p153
(dp154
g3
(dp155
g5
F0.0246
sg6
VParty Animal
p156
sg8
F0.404024
sg9
F0.867
sg10
S'raggae'
p157
sg12
F0.0497
sg13
VCharly Black
p158
sg15
I9999
sg16
F0.721
sg17
Nsg18
Nsg19
Nsg20
F0.9347333333333334
sg21
F0.823
sg22
Nsg23
Nsg24
I0
ssg25
I01
sg26
I01
sba(iSong
Song
p159
(dp160
g3
(dp161
g5
F0.316
sg6
VPana
p162
sg8
F0.800264
sg9
F0.544
sg10
S'raggae'
p163
sg12
F0.328
sg13
VTekno
p164
sg15
I9999
sg16
F0.552
sg17
Nsg18
Nsg19
Nsg20
F0.8768666666666667
sg21
F0.685
sg22
Nsg23
Nsg24
F0.0309
ssg25
I01
sg26
I01
sba(iSong
Song
p165
(dp166
g3
(dp167
g5
F0.105
sg6
VRun Up (feat. PARTYNEXTDOOR & Nicki Minaj)
p168
sg8
F0.43201999999999996
sg9
F0.743
sg10
S'raggae'
p169
sg12
F0.0681
sg13
VMajor Lazer
p170
sg15
I9999
sg16
F0.803
sg17
Nsg18
Nsg19
Nsg20
F0.9399666666666667
sg21
F0.674
sg22
Nsg23
Nsg24
F2.12e-06
ssg25
I01
sg26
I01
sba(iSong
Song
p171
(dp172
g3
(dp173
g5
F0.0202
sg6
VWatch Out For This (Bumaye) [feat. Busy Signal, The Flexican & FS Green] - feat. Busy Signal, The Flexican & FS Green
p174
sg8
F0.432224
sg9
F0.755
sg10
S'raggae'
p175
sg12
F0.156
sg13
VMajor Lazer
p176
sg15
I9999
sg16
F0.828
sg17
Nsg18
Nsg19
Nsg20
F0.9314
sg21
F0.862
sg22
Nsg23
Nsg24
F9.61e-06
ssg25
I01
sg26
I01
sba(iSong
Song
p177
(dp178
g3
(dp179
g5
F0.693
sg6
VWine Slow
p180
sg8
F0.47938
sg9
F0.557
sg10
S'raggae'
p181
sg12
F0.286
sg13
VGyptian
p182
sg15
I9999
sg16
F0.615
sg17
Nsg18
Nsg19
Nsg20
F0.8550333333333333
sg21
F0.425
sg22
Nsg23
Nsg24
I0
ssg25
I01
sg26
I01
sba(iSong
Song
p183
(dp184
g3
(dp185
g5
F0.235
sg6
VYuh Love
p186
sg8
F0.487024
sg9
F0.575
sg10
S'raggae'
p187
sg12
F0.325
sg13
VVybz Kartel
p188
sg15
I9999
sg16
F0.632
sg17
Nsg18
Nsg19
Nsg20
F0.8458333333333333
sg21
F0.733
sg22
Nsg23
Nsg24
I0
ssg25
I01
sg26
I01
sba(iSong
Song
p189
(dp190
g3
(dp191
g5
F0.111
sg6
VDude
p192
sg8
F0.37602800000000003
sg9
F0.653
sg10
S'raggae'
p193
sg12
F0.236
sg13
VBeenie Man
p194
sg15
I9999
sg16
F0.71
sg17
Nsg18
Nsg19
Nsg20
F0.8615833333333334
sg21
F0.943
sg22
Nsg23
Nsg24
I0
ssg25
I01
sg26
I01
sba(iSong
Song
p195
(dp196
g3
(dp197
g5
F0.378
sg6
VLove Yuh Everything
p198
sg8
F0.40067200000000003
sg9
F0.733
sg10
S'raggae'
p199
sg12
F0.124
sg13
VAlkaline
p200
sg15
I9999
sg16
F0.746
sg17
Nsg18
Nsg19
Nsg20
F0.8937333333333334
sg21
F0.539
sg22
Nsg23
Nsg24
I0
ssg25
I01
sg26
I01
sba(iSong
Song
p201
(dp202
g3
(dp203
g5
F0.0257
sg6
VMamacita
p204
sg8
F0.413448
sg9
F0.841
sg10
S'raggae'
p205
sg12
F0.106
sg13
VCollie Buddz
p206
sg15
I9999
sg16
F0.593
sg17
Nsg18
Nsg19
Nsg20
F0.9102166666666667
sg21
F0.779
sg22
Nsg23
Nsg24
I0
ssg25
I01
sg26
I01
sba(iSong
Song
p207
(dp208
g3
(dp209
g5
F0.00168
sg6
VNobody Has To Know
p210
sg8
F0.339932
sg9
F0.682
sg10
S'raggae'
p211
sg12
F0.173
sg13
VKranium
p212
sg15
I9999
sg16
F0.792
sg17
Nsg18
Nsg19
Nsg20
F0.9173333333333333
sg21
F0.666
sg22
Nsg23
Nsg24
I0
ssg25
I01
sg26
I01
sba(iSong
Song
p213
(dp214
g3
(dp215
g5
F0.026
sg6
VCome Again
p216
sg8
F0.416676
sg9
F0.762
sg10
S'raggae'
p217
sg12
F0.141
sg13
VDJ Katch
p218
sg15
I9999
sg16
F0.785
sg17
Nsg18
Nsg19
Nsg20
F0.9007000000000001
sg21
F0.331
sg22
Nsg23
Nsg24
I0
ssg25
I01
sg26
I01
sba(iSong
Song
p219
(dp220
g3
(dp221
g5
F0.347
sg6
VBody
p222
sg8
F0.269048
sg9
F0.795
sg10
S'raggae'
p223
sg12
F0.326
sg13
VSean Paul
p224
sg15
I9999
sg16
F0.494
sg17
Nsg18
Nsg19
Nsg20
F0.9417500000000001
sg21
F0.441
sg22
Nsg23
Nsg24
I0
ssg25
I01
sg26
I01
sba(iSong
Song
p225
(dp226
g3
(dp227
g5
F0.124
sg6
VBad Yuh Bad
p228
sg8
F0.42315600000000003
sg9
F0.703
sg10
S'raggae'
p229
sg12
F0.176
sg13
VPopcaan
p230
sg15
I9999
sg16
F0.587
sg17
Nsg18
Nsg19
Nsg20
F0.8714999999999999
sg21
F0.736
sg22
Nsg23
Nsg24
I0
ssg25
I01
sg26
I01
sba(iSong
Song
p231
(dp232
g3
(dp233
g5
F0.0422
sg6
VBunny
p234
sg8
F0.40338799999999997
sg9
F0.708
sg10
S'raggae'
p235
sg12
F0.393
sg13
VMyssa More
p236
sg15
I9999
sg16
F0.787
sg17
Nsg18
Nsg19
Nsg20
F0.8954166666666666
sg21
F0.761
sg22
Nsg23
Nsg24
I0
ssg25
I01
sg26
I01
sba(iSong
Song
p237
(dp238
g3
(dp239
g5
F0.0873
sg6
VControlla
p240
sg8
F0.36930399999999997
sg9
F0.478
sg10
S'raggae'
p241
sg12
F0.287
sg13
VDrake
p242
sg15
I9999
sg16
F0.545
sg17
Nsg18
Nsg19
Nsg20
F0.8155666666666667
sg21
F0.317
sg22
Nsg23
Nsg24
I0
ssg25
I01
sg26
I01
sba(iSong
Song
p243
(dp244
g3
(dp245
g5
F0.0826
sg6
VBreadman
p246
sg8
F0.49484
sg9
F0.782
sg10
S'raggae'
p247
sg12
F0.367
sg13
VStylo G
p248
sg15
I9999
sg16
F0.717
sg17
Nsg18
Nsg19
Nsg20
F0.9364
sg21
F0.633
sg22
Nsg23
Nsg24
I0
ssg25
I01
sg26
I01
sba(iSong
Song
p249
(dp250
g3
(dp251
g5
F0.0143
sg6
VGive It All To Me
p252
sg8
F0.251928
sg9
F0.71
sg10
S'raggae'
p253
sg12
F0.425
sg13
VMavado
p254
sg15
I9999
sg16
F0.409
sg17
Nsg18
Nsg19
Nsg20
F0.90705
sg21
F0.408
sg22
Nsg23
Nsg24
I0
ssg25
I01
sg26
I01
sba(iSong
Song
p255
(dp256
g3
(dp257
g5
F0.51
sg6
VBlackberry (Remastered)
p258
sg8
F0.419904
sg9
F0.835
sg10
S'raggae'
p259
sg12
F0.251
sg13
VVybz Kartel
p260
sg15
I9999
sg16
F0.834
sg17
Nsg18
Nsg19
Nsg20
F0.8964666666666666
sg21
F0.693
sg22
Nsg23
Nsg24
I0
ssg25
I01
sg26
I01
sba(iSong
Song
p261
(dp262
g3
(dp263
g5
F0.0841
sg6
VCalling
p264
sg8
F0.50152
sg9
F0.688
sg10
S'raggae'
p265
sg12
F0.199
sg13
VK'More
p266
sg15
I9999
sg16
F0.532
sg17
Nsg18
Nsg19
Nsg20
F0.9139
sg21
F0.584
sg22
Nsg23
Nsg24
I0
ssg25
I01
sg26
I01
sba(iSong
Song
p267
(dp268
g3
(dp269
g5
F0.288
sg6
VYou're Perfect
p270
sg8
F0.419648
sg9
F0.858
sg10
S'raggae'
p271
sg12
F0.25
sg13
VCharly Black
p272
sg15
I9999
sg16
F0.809
sg17
Nsg18
Nsg19
Nsg20
F0.9452
sg21
F0.803
sg22
Nsg23
Nsg24
I0
ssg25
I01
sg26
I01
sba(iSong
Song
p273
(dp274
g3
(dp275
g5
F0.16
sg6
VDutty Wine
p276
sg8
F0.6261639999999999
sg9
F0.918
sg10
S'raggae'
p277
sg12
F0.359
sg13
VTony Matterhorn
p278
sg15
I9999
sg16
F0.497
sg17
Nsg18
Nsg19
Nsg20
F0.9169833333333333
sg21
F0.93
sg22
Nsg23
Nsg24
I0
ssg25
I01
sg26
I01
sba(iSong
Song
p279
(dp280
g3
(dp281
g5
F0.0469
sg6
VNobody Has To Know (feat. Ty Dolla $ign) - Major Lazer and KickRaux Remix
p282
sg8
F0.41198
sg9
F0.79
sg10
S'raggae'
p283
sg12
F0.161
sg13
VKranium
p284
sg15
I9999
sg16
F0.681
sg17
Nsg18
Nsg19
Nsg20
F0.9057666666666667
sg21
F0.627
sg22
Nsg23
Nsg24
I0
ssg25
I01
sg26
I01
sba(iSong
Song
p285
(dp286
g3
(dp287
g5
F0.611
sg6
VExtra Lesson Remix (feat. Kojo Funds & Chip)
p288
sg8
F0.401652
sg9
F0.547
sg10
S'raggae'
p289
sg12
F0.29
sg13
VAlkaline
p290
sg15
I9999
sg16
F0.764
sg17
Nsg18
Nsg19
Nsg20
F0.8934166666666667
sg21
F0.766
sg22
Nsg23
Nsg24
I0
ssg25
I01
sg26
I01
sba(iSong
Song
p291
(dp292
g3
(dp293
g5
F0.0956
sg6
VDancehall Girl (feat. Shatta Wale)
p294
sg8
F0.426344
sg9
F0.831
sg10
S'raggae'
p295
sg12
F0.322
sg13
VEpik Jones
p296
sg15
I9999
sg16
F0.817
sg17
Nsg18
Nsg19
Nsg20
F0.8977333333333333
sg21
F0.841
sg22
Nsg23
Nsg24
I0
ssg25
I01
sg26
I01
sba(iSong
Song
p297
(dp298
g3
(dp299
g5
F0.416
sg6
VAddicted
p300
sg8
F0.523092
sg9
F0.645
sg10
S'raggae'
p301
sg12
F0.174
sg13
VPopcaan
p302
sg15
I9999
sg16
F0.533
sg17
Nsg18
Nsg19
Nsg20
F0.9010166666666667
sg21
F0.531
sg22
Nsg23
Nsg24
I0
ssg25
I01
sg26
I01
sba(iSong
Song
p303
(dp304
g3
(dp305
g5
F0.0406
sg6
VFeelin U
p306
sg8
F0.505696
sg9
F0.651
sg10
S'raggae'
p307
sg12
F0.137
sg13
VKickRaux
p308
sg15
I9999
sg16
F0.559
sg17
Nsg18
Nsg19
Nsg20
F0.8739166666666667
sg21
F0.498
sg22
Nsg23
Nsg24
I0
ssg25
I01
sg26
I01
sba(iSong
Song
p309
(dp310
g3
(dp311
g5
F0.116
sg6
VOne Wine
p312
sg8
F0.783216
sg9
F0.944
sg10
S'raggae'
p313
sg12
F0.148
sg13
VMachel Montano
p314
sg15
I9999
sg16
F0.502
sg17
Nsg18
Nsg19
Nsg20
F0.9686
sg21
F0.899
sg22
Nsg23
Nsg24
I0
ssg25
I01
sg26
I01
sba(iSong
Song
p315
(dp316
g3
(dp317
g5
F0.175
sg6
VLiving the Life
p318
sg8
F0.400132
sg9
F0.726
sg10
S'raggae'
p319
sg12
F0.37
sg13
VFanatix
p320
sg15
I9999
sg16
F0.593
sg17
Nsg18
Nsg19
Nsg20
F0.90125
sg21
F0.806
sg22
Nsg23
Nsg24
I0
ssg25
I01
sg26
I01
sba(iSong
Song
p321
(dp322
g3
(dp323
g5
F0.063
sg6
V10 Outa 10
p324
sg8
F0.4081
sg9
F0.878
sg10
S'raggae'
p325
sg12
F0.271
sg13
VMasicka
p326
sg15
I9999
sg16
F0.572
sg17
Nsg18
Nsg19
Nsg20
F0.9276333333333333
sg21
F0.668
sg22
Nsg23
Nsg24
I0
ssg25
I01
sg26
I01
sba(iSong
Song
p327
(dp328
g3
(dp329
g5
F0.192
sg6
VAfter All
p330
sg8
F0.5241079999999999
sg9
F0.765
sg10
S'raggae'
p331
sg12
F0.294
sg13
VAlkaline
p332
sg15
I9999
sg16
F0.648
sg17
Nsg18
Nsg19
Nsg20
F0.9197333333333333
sg21
F0.749
sg22
Nsg23
Nsg24
I0
ssg25
I01
sg26
I01
sba(iSong
Song
p333
(dp334
g3
(dp335
g5
F0.00399
sg6
VYu Zimme - All Star VIP
p336
sg8
F0.53312
sg9
F0.801
sg10
S'raggae'
p337
sg12
F0.135
sg13
VStylo G
p338
sg15
I9999
sg16
F0.704
sg17
Nsg18
Nsg19
Nsg20
F0.9201666666666667
sg21
F0.342
sg22
Nsg23
Nsg24
F0.00212
ssg25
I01
sg26
I01
sba(iSong
Song
p339
(dp340
g3
(dp341
g5
F0.0147
sg6
VBedroom Bully
p342
sg8
F0.399044
sg9
F0.713
sg10
S'raggae'
p343
sg12
F0.26
sg13
VBusy Signal
p344
sg15
I9999
sg16
F0.597
sg17
Nsg18
Nsg19
Nsg20
F0.8924
sg21
F0.374
sg22
Nsg23
Nsg24
I0
ssg25
I01
sg26
I01
sba(iSong
Song
p345
(dp346
g3
(dp347
g5
F0.313
sg6
VTurn Me On
p348
sg8
F0.42008
sg9
F0.82
sg10
S'raggae'
p349
sg12
F0.101
sg13
VKonshens
p350
sg15
I9999
sg16
F0.795
sg17
Nsg18
Nsg19
Nsg20
F0.92785
sg21
F0.725
sg22
Nsg23
Nsg24
F3.76e-06
ssg25
I01
sg26
I01
sba(iSong
Song
p351
(dp352
g3
(dp353
g5
F0.104
sg6
VGold
p354
sg8
F0.37176
sg9
F0.686
sg10
S'raggae'
p355
sg12
F0.207
sg13
VAlicai Harley
p356
sg15
I9999
sg16
F0.72
sg17
Nsg18
Nsg19
Nsg20
F0.9270166666666667
sg21
F0.302
sg22
Nsg23
Nsg24
I0
ssg25
I01
sg26
I01
sba(iSong
Song
p357
(dp358
g3
(dp359
g5
F0.18
sg6
VBen' Ova
p360
sg8
F0.393692
sg9
F0.612
sg10
S'raggae'
p361
sg12
F0.174
sg13
VWSTRN
p362
sg15
I9999
sg16
F0.772
sg17
Nsg18
Nsg19
Nsg20
F0.8820666666666667
sg21
F0.478
sg22
Nsg23
Nsg24
F3.47e-06
ssg25
I01
sg26
I01
sba(iSong
Song
p363
(dp364
g3
(dp365
g5
F0.219
sg6
VBruk It Down
p366
sg8
F0.475928
sg9
F0.781
sg10
S'raggae'
p367
sg12
F0.217
sg13
VMr. Vegas
p368
sg15
I9999
sg16
F0.919
sg17
Nsg18
Nsg19
Nsg20
F0.9216
sg21
F0.559
sg22
Nsg23
Nsg24
I0
ssg25
I01
sg26
I01
sba(iSong
Song
p369
(dp370
g3
(dp371
g5
F0.0794
sg6
VIskaba
p372
sg8
F0.500104
sg9
F0.764
sg10
S'raggae'
p373
sg12
F0.053
sg13
VWande Coal
p374
sg15
I9999
sg16
F0.814
sg17
Nsg18
Nsg19
Nsg20
F0.8675999999999999
sg21
F0.899
sg22
Nsg23
Nsg24
F0.0174
ssg25
I01
sg26
I01
sba(iSong
Song
p375
(dp376
g3
(dp377
g5
F0.153
sg6
VJamming
p378
sg8
F0.494684
sg9
F0.431
sg10
S'raggae'
p379
sg12
F0.299
sg13
VBob Marley & The Wailers
p380
sg15
I9999
sg16
F0.939
sg17
Nsg18
Nsg19
Nsg20
F0.7955500000000001
sg21
F0.729
sg22
Nsg23
Nsg24
F4.99e-05
ssg25
I01
sg26
I01
sba(iSong
Song
p381
(dp382
g3
(dp383
g5
F0.0105
sg6
VWorld-A-Reggae
p384
sg8
F0.294896
sg9
F0.457
sg10
S'raggae'
p385
sg12
F0.0601
sg13
VIni Kamoze
p386
sg15
I9999
sg16
F0.863
sg17
Nsg18
Nsg19
Nsg20
F0.80925
sg21
F0.382
sg22
Nsg23
Nsg24
F0.000774
ssg25
I01
sg26
I01
sba(iSong
Song
p387
(dp388
g3
(dp389
g5
F0.0122
sg6
VYou Don't Love Me (No, No, No) - Extended Mix
p390
sg8
F0.323848
sg9
F0.428
sg10
S'raggae'
p391
sg12
F0.221
sg13
VDawn Penn
p392
sg15
I9999
sg16
F0.811
sg17
Nsg18
Nsg19
Nsg20
F0.8211999999999999
sg21
F0.653
sg22
Nsg23
Nsg24
F0.317
ssg25
I01
sg26
I01
sba(iSong
Song
p393
(dp394
g3
(dp395
g5
F0.043
sg6
VNight Nurse
p396
sg8
F0.298736
sg9
F0.309
sg10
S'raggae'
p397
sg12
F0.216
sg13
VGregory Isaacs
p398
sg15
I9999
sg16
F0.841
sg17
Nsg18
Nsg19
Nsg20
F0.7577166666666667
sg21
F0.931
sg22
Nsg23
Nsg24
F0.0152
ssg25
I01
sg26
I01
sba(iSong
Song
p399
(dp400
g3
(dp401
g5
F0.161
sg6
VHere I Come
p402
sg8
F0.68328
sg9
F0.663
sg10
S'raggae'
p403
sg12
F0.0828
sg13
VBarrington Levy
p404
sg15
I9999
sg16
F0.582
sg17
Nsg18
Nsg19
Nsg20
F0.8908833333333334
sg21
F0.695
sg22
Nsg23
Nsg24
I0
ssg25
I01
sg26
I01
sba(iSong
Song
p405
(dp406
g3
(dp407
g5
F0.825
sg6
VBam Bam
p408
sg8
F0.6639919999999999
sg9
F0.605
sg10
S'raggae'
p409
sg12
F0.153
sg13
VSister Nancy
p410
sg15
I9999
sg16
F0.722
sg17
Nsg18
Nsg19
Nsg20
F0.8988333333333334
sg21
F0.709
sg22
Nsg23
Nsg24
F0.0178
ssg25
I01
sg26
I01
sba(iSong
Song
p411
(dp412
g3
(dp413
g5
F0.0887
sg6
VCool Down The Pace
p414
sg8
F0.30548000000000003
sg9
F0.266
sg10
S'raggae'
p415
sg12
F0.264
sg13
VGregory Isaacs
p416
sg15
I9999
sg16
F0.87
sg17
Nsg18
Nsg19
Nsg20
F0.7406833333333334
sg21
F0.929
sg22
Nsg23
Nsg24
F0.0217
ssg25
I01
sg26
I01
sba(iSong
Song
p417
(dp418
g3
(dp419
g5
F0.0845
sg6
VMurderer
p420
sg8
F0.5712
sg9
F0.549
sg10
S'raggae'
p421
sg12
F0.244
sg13
VBarrington Levy
p422
sg15
I9999
sg16
F0.865
sg17
Nsg18
Nsg19
Nsg20
F0.8319500000000001
sg21
F0.617
sg22
Nsg23
Nsg24
F0.158
ssg25
I01
sg26
I01
sba(iSong
Song
p423
(dp424
g3
(dp425
g5
F0.025
sg6
VWaiting In Vain
p426
sg8
F0.315348
sg9
F0.453
sg10
S'raggae'
p427
sg12
F0.31
sg13
VBob Marley & The Wailers
p428
sg15
I9999
sg16
F0.838
sg17
Nsg18
Nsg19
Nsg20
F0.8077333333333333
sg21
F0.815
sg22
Nsg23
Nsg24
F2.42e-05
ssg25
I01
sg26
I01
sba(iSong
Song
p429
(dp430
g3
(dp431
g5
F0.0331
sg6
VPolice In Helicopter
p432
sg8
F0.56474
sg9
F0.652
sg10
S'raggae'
p433
sg12
F0.111
sg13
VJohn Holt
p434
sg15
I9999
sg16
F0.686
sg17
Nsg18
Nsg19
Nsg20
F0.8735666666666667
sg21
F0.503
sg22
Nsg23
Nsg24
F8.34e-06
ssg25
I01
sg26
I01
sba(iSong
Song
p435
(dp436
g3
(dp437
g5
F0.00414
sg6
VRed Red Wine - Edit
p438
sg8
F0.356476
sg9
F0.468
sg10
S'raggae'
p439
sg12
F0.0476
sg13
VUB40
p440
sg15
I9999
sg16
F0.857
sg17
Nsg18
Nsg19
Nsg20
F0.8578333333333333
sg21
F0.843
sg22
Nsg23
Nsg24
F1.32e-05
ssg25
I01
sg26
I01
sba(iSong
Song
p441
(dp442
g3
(dp443
g5
F0.102
sg6
VHandsworth Revolution
p444
sg8
F0.473976
sg9
F0.398
sg10
S'raggae'
p445
sg12
F0.0967
sg13
VSteel Pulse
p446
sg15
I9999
sg16
F0.931
sg17
Nsg18
Nsg19
Nsg20
F0.7542000000000001
sg21
F0.709
sg22
Nsg23
Nsg24
F0.000204
ssg25
I01
sg26
I01
sba(iSong
Song
p447
(dp448
g3
(dp449
g5
F0.788
sg6
V54-46 Was My Number - Edit
p450
sg8
F0.634144
sg9
F0.377
sg10
S'raggae'
p451
sg12
F0.313
sg13
VToots & The Maytals
p452
sg15
I9999
sg16
F0.714
sg17
Nsg18
Nsg19
Nsg20
F0.84895
sg21
F0.437
sg22
Nsg23
Nsg24
F4.68e-06
ssg25
I01
sg26
I01
sba(iSong
Song
p453
(dp454
g3
(dp455
g5
F0.427
sg6
VPass The Dutchie
p456
sg8
F0.599384
sg9
F0.428
sg10
S'raggae'
p457
sg12
F0.0978
sg13
VMusical Youth
p458
sg15
I9999
sg16
F0.8
sg17
Nsg18
Nsg19
Nsg20
F0.76195
sg21
F0.966
sg22
Nsg23
Nsg24
I0
ssg25
I01
sg26
I01
sba(iSong
Song
p459
(dp460
g3
(dp461
g5
F0.236
sg6
VBad Boys (Theme from COPS)
p462
sg8
F0.351448
sg9
F0.722
sg10
S'raggae'
p463
sg12
F0.0668
sg13
VInner Circle
p464
sg15
I9999
sg16
F0.781
sg17
Nsg18
Nsg19
Nsg20
F0.8604
sg21
F0.532
sg22
Nsg23
Nsg24
F0.00042
ssg25
I01
sg26
I01
sba(iSong
Song
p465
(dp466
g3
(dp467
g5
F0.0109
sg6
VThree Little Birds
p468
sg8
F0.295848
sg9
F0.478
sg10
S'raggae'
p469
sg12
F0.0855
sg13
VBob Marley & The Wailers
p470
sg15
I9999
sg16
F0.781
sg17
Nsg18
Nsg19
Nsg20
F0.8243333333333334
sg21
F0.643
sg22
Nsg23
Nsg24
F1.01e-06
ssg25
I01
sg26
I01
sba(iSong
Song
p471
(dp472
g3
(dp473
g5
F0.149
sg6
VHail H.I.M - 2002 Remastered Version
p474
sg8
F0.5514640000000001
sg9
F0.652
sg10
S'raggae'
p475
sg12
F0.0583
sg13
VBurning Spear
p476
sg15
I9999
sg16
F0.775
sg17
Nsg18
Nsg19
Nsg20
F0.86865
sg21
F0.671
sg22
Nsg23
Nsg24
F0.18
ssg25
I01
sg26
I01
sba(iSong
Song
p477
(dp478
g3
(dp479
g5
F0.271
sg6
VFunky Kingston
p480
sg8
F0.39877999999999997
sg9
F0.512
sg10
S'raggae'
p481
sg12
F0.0572
sg13
VToots & The Maytals
p482
sg15
I9999
sg16
F0.763
sg17
Nsg18
Nsg19
Nsg20
F0.8436166666666668
sg21
F0.962
sg22
Nsg23
Nsg24
F0.000846
ssg25
I01
sg26
I01
sba(iSong
Song
p483
(dp484
g3
(dp485
g5
F0.352
sg6
VDream Land
p486
sg8
F0.291368
sg9
F0.485
sg10
S'raggae'
p487
sg12
F0.321
sg13
VBunny Wailer
p488
sg15
I9999
sg16
F0.786
sg17
Nsg18
Nsg19
Nsg20
F0.7831333333333333
sg21
F0.96
sg22
Nsg23
Nsg24
F0.00467
ssg25
I01
sg26
I01
sba(iSong
Song
p489
(dp490
g3
(dp491
g5
F0.0585
sg6
VThe International Herb
p492
sg8
F0.510744
sg9
F0.433
sg10
S'raggae'
p493
sg12
F0.337
sg13
VCulture
p494
sg15
I9999
sg16
F0.825
sg17
Nsg18
Nsg19
Nsg20
F0.7819166666666667
sg21
F0.687
sg22
Nsg23
Nsg24
I0
ssg25
I01
sg26
I01
sba(iSong
Song
p495
(dp496
g3
(dp497
g5
F0.449
sg6
VTake Me Home, Country Roads
p498
sg8
F0.700976
sg9
F0.436
sg10
S'raggae'
p499
sg12
F0.146
sg13
VToots & The Maytals
p500
sg15
I9999
sg16
F0.609
sg17
Nsg18
Nsg19
Nsg20
F0.8001666666666666
sg21
F0.921
sg22
Nsg23
Nsg24
F0.00677
ssg25
I01
sg26
I01
sba(iSong
Song
p501
(dp502
g3
(dp503
g5
F0.0124
sg6
VSweat (A La La La La Long)
p504
sg8
F0.6921
sg9
F0.727
sg10
S'raggae'
p505
sg12
F0.224
sg13
VInner Circle
p506
sg15
I9999
sg16
F0.787
sg17
Nsg18
Nsg19
Nsg20
F0.8715833333333334
sg21
F0.936
sg22
Nsg23
Nsg24
I0
ssg25
I01
sg26
I01
sba(iSong
Song
p507
(dp508
g3
(dp509
g5
F0.0367
sg6
VMellow Mood
p510
sg8
F0.323784
sg9
F0.568
sg10
S'raggae'
p511
sg12
F0.156
sg13
VBunny Wailer
p512
sg15
I9999
sg16
F0.742
sg17
Nsg18
Nsg19
Nsg20
F0.7888833333333333
sg21
F0.678
sg22
Nsg23
Nsg24
F0.0715
ssg25
I01
sg26
I01
sba(iSong
Song
p513
(dp514
g3
(dp515
g5
F0.188
sg6
VIsraelites
p516
sg8
F0.585868
sg9
F0.41
sg10
S'raggae'
p517
sg12
F0.0511
sg13
VDesmond Dekker
p518
sg15
I9999
sg16
F0.793
sg17
Nsg18
Nsg19
Nsg20
F0.8223
sg21
F0.931
sg22
Nsg23
Nsg24
I0
ssg25
I01
sg26
I01
sba(iSong
Song
p519
(dp520
g3
(dp521
g5
F0.645
sg6
VThe Harder They Come
p522
sg8
F0.409968
sg9
F0.589
sg10
S'raggae'
p523
sg12
F0.0727
sg13
VJimmy Cliff
p524
sg15
I9999
sg16
F0.679
sg17
Nsg18
Nsg19
Nsg20
F0.8665
sg21
F0.786
sg22
Nsg23
Nsg24
I0
ssg25
I01
sg26
I01
sba(iSong
Song
p525
(dp526
g3
(dp527
g5
F0.199
sg6
VRevolution
p528
sg8
F0.338492
sg9
F0.719
sg10
S'raggae'
p529
sg12
F0.0995
sg13
VDennis Brown
p530
sg15
I9999
sg16
F0.717
sg17
Nsg18
Nsg19
Nsg20
F0.9472333333333334
sg21
F0.766
sg22
Nsg23
Nsg24
F2.62e-06
ssg25
I01
sg26
I01
sba(iSong
Song
p531
(dp532
g3
(dp533
g5
F0.128
sg6
VLegalize It
p534
sg8
F0.580996
sg9
F0.784
sg10
S'raggae'
p535
sg12
F0.204
sg13
VPeter Tosh
p536
sg15
I9999
sg16
F0.701
sg17
Nsg18
Nsg19
Nsg20
F0.8797999999999999
sg21
F0.712
sg22
Nsg23
Nsg24
I0
ssg25
I01
sg26
I01
sba(iSong
Song
p537
(dp538
g3
(dp539
g5
F0.172
sg6
VBuffalo Soldier
p540
sg8
F0.496324
sg9
F0.464
sg10
S'raggae'
p541
sg12
F0.27
sg13
VBob Marley & The Wailers
p542
sg15
I9999
sg16
F0.928
sg17
Nsg18
Nsg19
Nsg20
F0.8573333333333333
sg21
F0.762
sg22
Nsg23
Nsg24
F7.16e-06
ssg25
I01
sg26
I01
sba(iSong
Song
p543
(dp544
g3
(dp545
g5
F0.313
sg6
VI Shot The Sheriff
p546
sg8
F0.387224
sg9
F0.641
sg10
S'raggae'
p547
sg12
F0.171
sg13
VThe Wailers
p548
sg15
I9999
sg16
F0.799
sg17
Nsg18
Nsg19
Nsg20
F0.8445
sg21
F0.719
sg22
Nsg23
Nsg24
F2.22e-05
ssg25
I01
sg26
I01
sba(iSong
Song
p549
(dp550
g3
(dp551
g5
F0.0659
sg6
VWar Ina Babylon
p552
sg8
F0.5910359999999999
sg9
F0.699
sg10
S'raggae'
p553
sg12
F0.119
sg13
VMax Romeo
p554
sg15
I9999
sg16
F0.647
sg17
Nsg18
Nsg19
Nsg20
F0.8888333333333333
sg21
F0.862
sg22
Nsg23
Nsg24
I0
ssg25
I01
sg26
I01
sba(iSong
Song
p555
(dp556
g3
(dp557
g5
F0.0442
sg6
VMarcus Garvey
p558
sg8
F0.367596
sg9
F0.487
sg10
S'raggae'
p559
sg12
F0.0993
sg13
VBurning Spear
p560
sg15
I9999
sg16
F0.726
sg17
Nsg18
Nsg19
Nsg20
F0.8460833333333333
sg21
F0.48
sg22
Nsg23
Nsg24
F0.00766
ssg25
I01
sg26
I01
sba(iSong
Song
p561
(dp562
g3
(dp563
g5
F0.175
sg6
VUnder Me Sleng Teng
p564
sg8
F0.326052
sg9
F0.537
sg10
S'raggae'
p565
sg12
F0.0631
sg13
VWayne Smith
p566
sg15
I9999
sg16
F0.832
sg17
Nsg18
Nsg19
Nsg20
F0.8776666666666666
sg21
F0.901
sg22
Nsg23
Nsg24
I0
ssg25
I01
sg26
I01
sba(iSong
Song
p567
(dp568
g3
(dp569
g5
F0.258
sg6
VGet Up, Stand Up
p570
sg8
F0.31345999999999996
sg9
F0.571
sg10
S'raggae'
p571
sg12
F0.348
sg13
VThe Wailers
p572
sg15
I9999
sg16
F0.776
sg17
Nsg18
Nsg19
Nsg20
F0.8815333333333334
sg21
F0.816
sg22
Nsg23
Nsg24
I0
ssg25
I01
sg26
I01
sba(iSong
Song
p573
(dp574
g3
(dp575
g5
F0.354
sg6
VWa Do Dem
p576
sg8
F0.310032
sg9
F0.634
sg10
S'raggae'
p577
sg12
F0.0568
sg13
VEek-A-Mouse
p578
sg15
I9999
sg16
F0.848
sg17
Nsg18
Nsg19
Nsg20
F0.8814666666666666
sg21
F0.795
sg22
Nsg23
Nsg24
I0
ssg25
I01
sg26
I01
sba(iSong
Song
p579
(dp580
g3
(dp581
g5
F0.13
sg6
VMurder She Wrote (Original Mix)
p582
sg8
F0.380384
sg9
F0.679
sg10
S'raggae'
p583
sg12
F0.156
sg13
VChaka Demus & Pliers
p584
sg15
I9999
sg16
F0.872
sg17
Nsg18
Nsg19
Nsg20
F0.8329000000000001
sg21
F0.948
sg22
Nsg23
Nsg24
F0.00746
ssg25
I01
sg26
I01
sba(iSong
Song
p585
(dp586
g3
(dp587
g5
F0.00988
sg6
VSinsemilla
p588
sg8
F0.524976
sg9
F0.568
sg10
S'raggae'
p589
sg12
F0.113
sg13
VBlack Uhuru
p590
sg15
I9999
sg16
F0.825
sg17
Nsg18
Nsg19
Nsg20
F0.8042166666666667
sg21
F0.623
sg22
Nsg23
Nsg24
F0.0341
ssg25
I01
sg26
I01
sba(iSong
Song
p591
(dp592
g3
(dp593
g5
F0.0312
sg6
VOne Draw
p594
sg8
F0.358076
sg9
F0.43
sg10
S'raggae'
p595
sg12
F0.068
sg13
VRita Marley
p596
sg15
I9999
sg16
F0.791
sg17
Nsg18
Nsg19
Nsg20
F0.8114
sg21
F0.716
sg22
Nsg23
Nsg24
F0.000189
ssg25
I01
sg26
I01
sba(iSong
Song
p597
(dp598
g3
(dp599
g5
F0.0497
sg6
VZungguzungguguzungguzeng
p600
sg8
F0.659556
sg9
F0.474
sg10
S'raggae'
p601
sg12
F0.243
sg13
VYellowman
p602
sg15
I9999
sg16
F0.75
sg17
Nsg18
Nsg19
Nsg20
F0.82265
sg21
F0.425
sg22
Nsg23
Nsg24
F0.0013
ssg25
I01
sg26
I01
sba(iSong
Song
p603
(dp604
g3
(dp605
g5
F0.645
sg6
VGood Thing Going
p606
sg8
F0.31012799999999996
sg9
F0.519
sg10
S'raggae'
p607
sg12
F0.0376
sg13
VSugar Minott
p608
sg15
I9999
sg16
F0.671
sg17
Nsg18
Nsg19
Nsg20
F0.8139166666666667
sg21
F0.939
sg22
Nsg23
Nsg24
F0.000368
ssg25
I01
sg26
I01
sba(iSong
Song
p609
(dp610
g3
(dp611
g5
F0.229
sg6
VTenement Yard
p612
sg8
F0.5755159999999999
sg9
F0.521
sg10
S'raggae'
p613
sg12
F0.306
sg13
VJacob Miller
p614
sg15
I9999
sg16
F0.888
sg17
Nsg18
Nsg19
Nsg20
F0.8859166666666667
sg21
F0.962
sg22
Nsg23
Nsg24
I0
ssg25
I01
sg26
I01
sba(iSong
Song
p615
(dp616
g3
(dp617
g5
F0.0205
sg6
VKu Klux Klan
p618
sg8
F0.51546
sg9
F0.514
sg10
S'raggae'
p619
sg12
F0.141
sg13
VSteel Pulse
p620
sg15
I9999
sg16
F0.735
sg17
Nsg18
Nsg19
Nsg20
F0.797
sg21
F0.817
sg22
Nsg23
Nsg24
I0
ssg25
I01
sg26
I01
sba(iSong
Song
p621
(dp622
g3
(dp623
g5
F0.0477
sg6
VUptown Top Ranking - 2001 Digital Remaster
p624
sg8
F0.329756
sg9
F0.522
sg10
S'raggae'
p625
sg12
F0.173
sg13
VAlthea And Donna
p626
sg15
I9999
sg16
F0.886
sg17
Nsg18
Nsg19
Nsg20
F0.86715
sg21
F0.79
sg22
Nsg23
Nsg24
F0.00108
ssg25
I01
sg26
I01
sba(iSong
Song
p627
(dp628
g3
(dp629
g5
F0.248
sg6
VYou Can Get It If You Really Want
p630
sg8
F0.512656
sg9
F0.559
sg10
S'raggae'
p631
sg12
F0.0568
sg13
VJimmy Cliff
p632
sg15
I9999
sg16
F0.894
sg17
Nsg18
Nsg19
Nsg20
F0.85755
sg21
F0.929
sg22
Nsg23
Nsg24
I0
ssg25
I01
sg26
I01
sba(iSong
Song
p633
(dp634
g3
(dp635
g5
F0.0631
sg6
VPolice And Thieves
p636
sg8
F0.509964
sg9
F0.429
sg10
S'raggae'
p637
sg12
F0.0781
sg13
VJunior Murvin
p638
sg15
I9999
sg16
F0.934
sg17
Nsg18
Nsg19
Nsg20
F0.8301333333333333
sg21
F0.915
sg22
Nsg23
Nsg24
I0
ssg25
I01
sg26
I01
sba(iSong
Song
p639
(dp640
g3
(dp641
g5
F0.0299
sg6
VJohnny B Goode - 2002 Remastered Version
p642
sg8
F0.5806760000000001
sg9
F0.849
sg10
S'raggae'
p643
sg12
F0.0544
sg13
VPeter Tosh
p644
sg15
I9999
sg16
F0.749
sg17
Nsg18
Nsg19
Nsg20
F0.9039833333333332
sg21
F0.959
sg22
Nsg23
Nsg24
F0.000168
ssg25
I01
sg26
I01
sba(iSong
Song
p645
(dp646
g3
(dp647
g5
F0.0931
sg6
VEverything I Own
p648
sg8
F0.30296
sg9
F0.474
sg10
S'raggae'
p649
sg12
F0.0468
sg13
VKen Boothe
p650
sg15
I9999
sg16
F0.652
sg17
Nsg18
Nsg19
Nsg20
F0.8454833333333334
sg21
F0.737
sg22
Nsg23
Nsg24
I0
ssg25
I01
sg26
I01
sba(iSong
Song
p651
(dp652
g3
(dp653
g5
F0.106
sg6
VPressure Drop
p654
sg8
F0.5958559999999999
sg9
F0.571
sg10
S'raggae'
p655
sg12
F0.0432
sg13
VToots & The Maytals
p656
sg15
I9999
sg16
F0.658
sg17
Nsg18
Nsg19
Nsg20
F0.8004666666666667
sg21
F0.985
sg22
Nsg23
Nsg24
I0
ssg25
I01
sg26
I01
sba(iSong
Song
p657
(dp658
g3
(dp659
g5
F0.0669
sg6
V007 (Shanty Town)
p660
sg8
F0.40686
sg9
F0.575
sg10
S'raggae'
p661
sg12
F0.0893
sg13
VDesmond Dekker
p662
sg15
I9999
sg16
F0.86
sg17
Nsg18
Nsg19
Nsg20
F0.88755
sg21
F0.846
sg22
Nsg23
Nsg24
F0.159
ssg25
I01
sg26
I01
sba(iSong
Song
p663
(dp664
g3
(dp665
g5
F0.0807
sg6
VChase The Devil
p666
sg8
F0.5963160000000001
sg9
F0.34
sg10
S'raggae'
p667
sg12
F0.565
sg13
VMax Romeo
p668
sg15
I9999
sg16
F0.838
sg17
Nsg18
Nsg19
Nsg20
F0.7611
sg21
F0.836
sg22
Nsg23
Nsg24
I0
ssg25
I01
sg26
I01
sba(iSong
Song
p669
(dp670
g3
(dp671
g5
F0.0083
sg6
VIs This Love
p672
sg8
F0.48987200000000003
sg9
F0.529
sg10
S'raggae'
p673
sg12
F0.123
sg13
VBob Marley & The Wailers
p674
sg15
I9999
sg16
F0.758
sg17
Nsg18
Nsg19
Nsg20
F0.828
sg21
F0.851
sg22
Nsg23
Nsg24
I0
ssg25
I01
sg26
I01
sba(iSong
Song
p675
(dp676
g3
(dp677
g5
F0.372
sg6
VCould You Be Loved
p678
sg8
F0.41332
sg9
F0.724
sg10
S'raggae'
p679
sg12
F0.105
sg13
VBob Marley & The Wailers
p680
sg15
I9999
sg16
F0.913
sg17
Nsg18
Nsg19
Nsg20
F0.8578833333333333
sg21
F0.748
sg22
Nsg23
Nsg24
F0.000201
ssg25
I01
sg26
I01
sba(iSong
Song
p681
(dp682
g3
(dp683
g5
F0.031
sg6
VMedication
p684
sg8
F0.339952
sg9
F0.568
sg10
S'raggae'
p685
sg12
F0.247
sg13
VDamian Marley
p686
sg15
I9999
sg16
F0.868
sg17
Nsg18
Nsg19
Nsg20
F0.8867666666666667
sg21
F0.812
sg22
Nsg23
Nsg24
I0
ssg25
I01
sg26
I01
sba(iSong
Song
p687
(dp688
g3
(dp689
g5
F0.212
sg6
VSun Is Shining
p690
sg8
F0.28988400000000003
sg9
F0.437
sg10
S'raggae'
p691
sg12
F0.122
sg13
VBob Marley & The Wailers
p692
sg15
I9999
sg16
F0.674
sg17
Nsg18
Nsg19
Nsg20
F0.8244166666666667
sg21
F0.806
sg22
Nsg23
Nsg24
F2.64e-05
ssg25
I01
sg26
I01
sba(iSong
Song
p693
(dp694
g3
(dp695
g5
F0.0269
sg6
VRasta Should Be Deeper
p696
sg8
F0.289536
sg9
F0.803
sg10
S'raggae'
p697
sg12
F0.0556
sg13
VJunior Kelly
p698
sg15
I9999
sg16
F0.746
sg17
Nsg18
Nsg19
Nsg20
F0.90305
sg21
F0.731
sg22
Nsg23
Nsg24
I0
ssg25
I01
sg26
I01
sba(iSong
Song
p699
(dp700
g3
(dp701
g5
F0.0159
sg6
VStill Blazing
p702
sg8
F0.582472
sg9
F0.704
sg10
S'raggae'
p703
sg12
F0.269
sg13
VAlborosie
p704
sg15
I9999
sg16
F0.749
sg17
Nsg18
Nsg19
Nsg20
F0.9097500000000001
sg21
F0.821
sg22
Nsg23
Nsg24
F2.02e-06
ssg25
I01
sg26
I01
sba(iSong
Song
p705
(dp706
g3
(dp707
g5
F0.00557
sg6
VPimper's Paradise
p708
sg8
F0.538908
sg9
F0.65
sg10
S'raggae'
p709
sg12
F0.0615
sg13
VBob Marley & The Wailers
p710
sg15
I9999
sg16
F0.939
sg17
Nsg18
Nsg19
Nsg20
F0.8619666666666668
sg21
F0.968
sg22
Nsg23
Nsg24
I0
ssg25
I01
sg26
I01
sba(iSong
Song
p711
(dp712
g3
(dp713
g5
F0.0405
sg6
VNight Nurse
p714
sg8
F0.298328
sg9
F0.294
sg10
S'raggae'
p715
sg12
F0.164
sg13
VGregory Isaacs
p716
sg15
I9999
sg16
F0.826
sg17
Nsg18
Nsg19
Nsg20
F0.7576666666666667
sg21
F0.937
sg22
Nsg23
Nsg24
F0.0384
ssg25
I01
sg26
I01
sba(iSong
Song
p717
(dp718
g3
(dp719
g5
F0.0909
sg6
VWho Knows
p720
sg8
F0.323728
sg9
F0.724
sg10
S'raggae'
p721
sg12
F0.0988
sg13
VProtoje
p722
sg15
I9999
sg16
F0.683
sg17
Nsg18
Nsg19
Nsg20
F0.9260666666666667
sg21
F0.742
sg22
Nsg23
Nsg24
I0
ssg25
I01
sg26
I01
sba(iSong
Song
p723
(dp724
g3
(dp725
g5
F0.183
sg6
VChase The Devil
p726
sg8
F0.60234
sg9
F0.623
sg10
S'raggae'
p727
sg12
F0.251
sg13
VMax Romeo
p728
sg15
I9999
sg16
F0.818
sg17
Nsg18
Nsg19
Nsg20
F0.8973666666666666
sg21
F0.735
sg22
Nsg23
Nsg24
I0
ssg25
I01
sg26
I01
sba(iSong
Song
p729
(dp730
g3
(dp731
g5
F0.161
sg6
VHere I Come
p732
sg8
F0.68328
sg9
F0.663
sg10
S'raggae'
p733
sg12
F0.0828
sg13
VBarrington Levy
p734
sg15
I9999
sg16
F0.582
sg17
Nsg18
Nsg19
Nsg20
F0.8908833333333334
sg21
F0.695
sg22
Nsg23
Nsg24
I0
ssg25
I01
sg26
I01
sba(iSong
Song
p735
(dp736
g3
(dp737
g5
F0.214
sg6
VSo Much Trouble In The World
p738
sg8
F0.6227440000000001
sg9
F0.552
sg10
S'raggae'
p739
sg12
F0.079
sg13
VBob Marley & The Wailers
p740
sg15
I9999
sg16
F0.834
sg17
Nsg18
Nsg19
Nsg20
F0.8560333333333333
sg21
F0.912
sg22
Nsg23
Nsg24
F0.000352
ssg25
I01
sg26
I01
sba(iSong
Song
p741
(dp742
g3
(dp743
g5
F0.0561
sg6
VIt Wasn't Me
p744
sg8
F0.379036
sg9
F0.606
sg10
S'raggae'
p745
sg12
F0.0713
sg13
VShaggy
p746
sg15
I9999
sg16
F0.853
sg17
Nsg18
Nsg19
Nsg20
F0.9233999999999999
sg21
F0.654
sg22
Nsg23
Nsg24
I0
ssg25
I01
sg26
I01
sba(iSong
Song
p747
(dp748
g3
(dp749
g5
F0.116
sg6
VKingston Town
p750
sg8
F0.408292
sg9
F0.217
sg10
S'raggae'
p751
sg12
F0.0595
sg13
VUB40
p752
sg15
I9999
sg16
F0.957
sg17
Nsg18
Nsg19
Nsg20
F0.7562333333333334
sg21
F0.771
sg22
Nsg23
Nsg24
F0.0408
ssg25
I01
sg26
I01
sba(iSong
Song
p753
(dp754
g3
(dp755
g5
F0.214
sg6
VCheerleader
p756
sg8
F0.4
sg9
F0.738
sg10
S'raggae'
p757
sg12
F0.0309
sg13
VOMI
p758
sg15
I9999
sg16
F0.864
sg17
Nsg18
Nsg19
Nsg20
F0.9279499999999999
sg21
F0.938
sg22
Nsg23
Nsg24
I0
ssg25
I01
sg26
I01
sba(iSong
Song
p759
(dp760
g3
(dp761
g5
F0.276
sg6
VStand Down
p762
sg8
F0.5197759999999999
sg9
F0.467
sg10
S'raggae'
p763
sg12
F0.0597
sg13
VLionel Richie
p764
sg15
I9999
sg16
F0.799
sg17
Nsg18
Nsg19
Nsg20
F0.8740666666666667
sg21
F0.965
sg22
Nsg23
Nsg24
I0
ssg25
I01
sg26
I01
sba(iSong
Song
p765
(dp766
g3
(dp767
g5
F0.651
sg6
VIntoxication
p768
sg8
F0.335552
sg9
F0.652
sg10
S'raggae'
p769
sg12
F0.263
sg13
VGentleman
p770
sg15
I9999
sg16
F0.646
sg17
Nsg18
Nsg19
Nsg20
F0.89925
sg21
F0.659
sg22
Nsg23
Nsg24
I0
ssg25
I01
sg26
I01
sba(iSong
Song
p771
(dp772
g3
(dp773
g5
F0.0807
sg6
VChase The Devil
p774
sg8
F0.5963160000000001
sg9
F0.34
sg10
S'raggae'
p775
sg12
F0.565
sg13
VMax Romeo
p776
sg15
I9999
sg16
F0.838
sg17
Nsg18
Nsg19
Nsg20
F0.7611
sg21
F0.836
sg22
Nsg23
Nsg24
I0
ssg25
I01
sg26
I01
sba(iSong
Song
p777
(dp778
g3
(dp779
g5
F0.0955
sg6
VLook Who's Dancin'
p780
sg8
F0.41622000000000003
sg9
F0.908
sg10
S'raggae'
p781
sg12
F0.041
sg13
VZiggy Marley & The Melody Makers
p782
sg15
I9999
sg16
F0.767
sg17
Nsg18
Nsg19
Nsg20
F0.9077000000000001
sg21
F0.938
sg22
Nsg23
Nsg24
F0.00207
ssg25
I01
sg26
I01
sba(iSong
Song
p783
(dp784
g3
(dp785
g5
F0.0259
sg6
VHandsworth Revolution
p786
sg8
F0.47292
sg9
F0.411
sg10
S'raggae'
p787
sg12
F0.0916
sg13
VSteel Pulse
p788
sg15
I9999
sg16
F0.928
sg17
Nsg18
Nsg19
Nsg20
F0.7633333333333333
sg21
F0.693
sg22
Nsg23
Nsg24
F1.06e-05
ssg25
I01
sg26
I01
sba(iSong
Song
p789
(dp790
g3
(dp791
g5
F0.104
sg6
VLady
p792
sg8
F0.595496
sg9
F0.72
sg10
S'raggae'
p793
sg12
F0.14
sg13
VWayne Wade
p794
sg15
I9999
sg16
F0.722
sg17
Nsg18
Nsg19
Nsg20
F0.9312166666666666
sg21
F0.899
sg22
Nsg23
Nsg24
F0.00668
ssg25
I01
sg26
I01
sba(iSong
Song
p795
(dp796
g3
(dp797
g5
F0.161
sg6
VCool and Calm
p798
sg8
F0.305496
sg9
F0.399
sg10
S'raggae'
p799
sg12
F0.174
sg13
VIsrael Vibration
p800
sg15
I9999
sg16
F0.794
sg17
Nsg18
Nsg19
Nsg20
F0.8080666666666667
sg21
F0.839
sg22
Nsg23
Nsg24
F7.09e-06
ssg25
I01
sg26
I01
sba(iSong
Song
p801
(dp802
g3
(dp803
g5
F0.048
sg6
VPolice & Thieves
p804
sg8
F0.508628
sg9
F0.512
sg10
S'raggae'
p805
sg12
F0.0626
sg13
VJunior Murvin
p806
sg15
I9999
sg16
F0.934
sg17
Nsg18
Nsg19
Nsg20
F0.88105
sg21
F0.906
sg22
Nsg23
Nsg24
I0
ssg25
I01
sg26
I01
sba(iSong
Song
p807
(dp808
g3
(dp809
g5
F0.138
sg6
VDubbing Is a Must Part 1 - 2010 Remastered Version
p810
sg8
F0.528512
sg9
F0.661
sg10
S'raggae'
p811
sg12
F0.121
sg13
VPablo Moses
p812
sg15
I9999
sg16
F0.904
sg17
Nsg18
Nsg19
Nsg20
F0.8669833333333333
sg21
F0.874
sg22
Nsg23
Nsg24
F0.0146
ssg25
I01
sg26
I01
sba(iSong
Song
p813
(dp814
g3
(dp815
g5
F0.445
sg6
VTenement Yard
p816
sg8
F0.576736
sg9
F0.387
sg10
S'raggae'
p817
sg12
F0.212
sg13
VJacob Miller
p818
sg15
I9999
sg16
F0.887
sg17
Nsg18
Nsg19
Nsg20
F0.7801666666666667
sg21
F0.973
sg22
Nsg23
Nsg24
I0
ssg25
I01
sg26
I01
sba(iSong
Song
p819
(dp820
g3
(dp821
g5
F0.0312
sg6
VOne Draw
p822
sg8
F0.358076
sg9
F0.43
sg10
S'raggae'
p823
sg12
F0.068
sg13
VRita Marley
p824
sg15
I9999
sg16
F0.791
sg17
Nsg18
Nsg19
Nsg20
F0.8114
sg21
F0.716
sg22
Nsg23
Nsg24
F0.000189
ssg25
I01
sg26
I01
sba(iSong
Song
p825
(dp826
g3
(dp827
g5
F0.042
sg6
VLiving Dread
p828
sg8
F0.543924
sg9
F0.835
sg10
S'raggae'
p829
sg12
F0.0477
sg13
VAlborosie
p830
sg15
I9999
sg16
F0.792
sg17
Nsg18
Nsg19
Nsg20
F0.9193
sg21
F0.811
sg22
Nsg23
Nsg24
I0
ssg25
I01
sg26
I01
sba(iSong
Song
p831
(dp832
g3
(dp833
g5
F0.0131
sg6
VTurn Your Lights Down Low
p834
sg8
F0.332428
sg9
F0.668
sg10
S'raggae'
p835
sg12
F0.0755
sg13
VBob Marley & The Wailers
p836
sg15
I9999
sg16
F0.733
sg17
Nsg18
Nsg19
Nsg20
F0.9118333333333334
sg21
F0.766
sg22
Nsg23
Nsg24
F2.6e-06
ssg25
I01
sg26
I01
sba(iSong
Song
p837
(dp838
g3
(dp839
g5
F0.0484
sg6
VAlways Be Around
p840
sg8
F0.540208
sg9
F0.714
sg10
S'raggae'
p841
sg12
F0.0457
sg13
VJesse Royal
p842
sg15
I9999
sg16
F0.733
sg17
Nsg18
Nsg19
Nsg20
F0.8873333333333334
sg21
F0.738
sg22
Nsg23
Nsg24
I0
ssg25
I01
sg26
I01
sba(iSong
Song
p843
(dp844
g3
(dp845
g5
F0.0208
sg6
VWelcome To Jamrock
p846
sg8
F0.306892
sg9
F0.661
sg10
S'raggae'
p847
sg12
F0.333
sg13
VDamian Marley
p848
sg15
I9999
sg16
F0.835
sg17
Nsg18
Nsg19
Nsg20
F0.8916333333333333
sg21
F0.753
sg22
Nsg23
Nsg24
I0
ssg25
I01
sg26
I01
sba(iSong
Song
p849
(dp850
g3
(dp851
g5
F0.158
sg6
V54-46 Was My Number
p852
sg8
F0.643192
sg9
F0.373
sg10
S'raggae'
p853
sg12
F0.137
sg13
VThe Maytals
p854
sg15
I9999
sg16
F0.68
sg17
Nsg18
Nsg19
Nsg20
F0.879
sg21
F0.677
sg22
Nsg23
Nsg24
F1.47e-05
ssg25
I01
sg26
I01
sba(iSong
Song
p855
(dp856
g3
(dp857
g5
F0.114
sg6
VHey Baby
p858
sg8
F0.739636
sg9
F0.604
sg10
S'raggae'
p859
sg12
F0.294
sg13
VStephen Marley
p860
sg15
I9999
sg16
F0.629
sg17
Nsg18
Nsg19
Nsg20
F0.9060166666666666
sg21
F0.627
sg22
Nsg23
Nsg24
F3.98e-06
ssg25
I01
sg26
I01
sba(iSong
Song
p861
(dp862
g3
(dp863
g5
F0.0124
sg6
VSweat (A La La La La Long)
p864
sg8
F0.6921
sg9
F0.727
sg10
S'raggae'
p865
sg12
F0.224
sg13
VInner Circle
p866
sg15
I9999
sg16
F0.787
sg17
Nsg18
Nsg19
Nsg20
F0.8715833333333334
sg21
F0.936
sg22
Nsg23
Nsg24
I0
ssg25
I01
sg26
I01
sba(iSong
Song
p867
(dp868
g3
(dp869
g5
F0.025
sg6
VWaiting In Vain
p870
sg8
F0.315348
sg9
F0.453
sg10
S'raggae'
p871
sg12
F0.31
sg13
VBob Marley & The Wailers
p872
sg15
I9999
sg16
F0.838
sg17
Nsg18
Nsg19
Nsg20
F0.8077333333333333
sg21
F0.815
sg22
Nsg23
Nsg24
F2.42e-05
ssg25
I01
sg26
I01
sba(iSong
Song
p873
(dp874
g3
(dp875
g5
F0.35
sg6
VSuperior
p876
sg8
F0.609392
sg9
F0.756
sg10
S'raggae'
p877
sg12
F0.112
sg13
VGentleman
p878
sg15
I9999
sg16
F0.67
sg17
Nsg18
Nsg19
Nsg20
F0.9073166666666667
sg21
F0.972
sg22
Nsg23
Nsg24
I0
ssg25
I01
sg26
I01
sba(iSong
Song
p879
(dp880
g3
(dp881
g5
F0.02
sg6
VI Wish You Were Here
p882
sg8
F0.575976
sg9
F0.566
sg10
S'raggae'
p883
sg12
F0.0695
sg13
VAlpha Blondy
p884
sg15
I9999
sg16
F0.796
sg17
Nsg18
Nsg19
Nsg20
F0.86905
sg21
F0.58
sg22
Nsg23
Nsg24
F0.0181
ssg25
I01
sg26
I01
sba(iSong
Song
p885
(dp886
g3
(dp887
g5
F0.00356
sg6
VBetter Must Come
p888
sg8
F0.293956
sg9
F0.589
sg10
S'raggae'
p889
sg12
F0.104
sg13
VDelroy Wilson
p890
sg15
I9999
sg16
F0.672
sg17
Nsg18
Nsg19
Nsg20
F0.88315
sg21
F0.928
sg22
Nsg23
Nsg24
F8.11e-05
ssg25
I01
sg26
I01
sba(iSong
Song
p891
(dp892
g3
(dp893
g5
F0.458
sg6
VTake Me Home Country Roads
p894
sg8
F0.7064600000000001
sg9
F0.425
sg10
S'raggae'
p895
sg12
F0.0617
sg13
VToots & The Maytals
p896
sg15
I9999
sg16
F0.613
sg17
Nsg18
Nsg19
Nsg20
F0.7936
sg21
F0.959
sg22
Nsg23
Nsg24
F9.37e-05
ssg25
I01
sg26
I01
sba(iSong
Song
p897
(dp898
g3
(dp899
g5
F0.137
sg6
VBuffalo Soldier
p900
sg8
F0.496488
sg9
F0.462
sg10
S'raggae'
p901
sg12
F0.284
sg13
VBob Marley & The Wailers
p902
sg15
I9999
sg16
F0.932
sg17
Nsg18
Nsg19
Nsg20
F0.8556
sg21
F0.749
sg22
Nsg23
Nsg24
F7.91e-06
ssg25
I01
sg26
I01
sba(iSong
Song
p903
(dp904
g3
(dp905
g5
F0.157
sg6
VStart It Up
p906
sg8
F0.7205839999999999
sg9
F0.798
sg10
S'raggae'
p907
sg12
F0.0648
sg13
VZiggy Marley
p908
sg15
I9999
sg16
F0.659
sg17
Nsg18
Nsg19
Nsg20
F0.9507833333333333
sg21
F0.929
sg22
Nsg23
Nsg24
I0
ssg25
I01
sg26
I01
sba(iSong
Song
p909
(dp910
g3
(dp911
g5
F0.229
sg6
VAll Of Me
p912
sg8
F0.524144
sg9
F0.696
sg10
S'raggae'
p913
sg12
F0.0642
sg13
VJah Cure
p914
sg15
I9999
sg16
F0.609
sg17
Nsg18
Nsg19
Nsg20
F0.9299833333333333
sg21
F0.425
sg22
Nsg23
Nsg24
I0
ssg25
I01
sg26
I01
sba(iSong
Song
p915
(dp916
g3
(dp917
g5
F0.106
sg6
VRoad To Zion
p918
sg8
F0.373288
sg9
F0.698
sg10
S'raggae'
p919
sg12
F0.221
sg13
VDamian Marley
p920
sg15
I9999
sg16
F0.662
sg17
Nsg18
Nsg19
Nsg20
F0.8943833333333333
sg21
F0.441
sg22
Nsg23
Nsg24
I0
ssg25
I01
sg26
I01
sba(iSong
Song
p921
(dp922
g3
(dp923
g5
F0.253
sg6
VNot Because
p924
sg8
F0.561136
sg9
F0.722
sg10
S'raggae'
p925
sg12
F0.197
sg13
VRorystonelove
p926
sg15
I9999
sg16
F0.51
sg17
Nsg18
Nsg19
Nsg20
F0.9233166666666667
sg21
F0.719
sg22
Nsg23
Nsg24
I0
ssg25
I01
sg26
I01
sba(iSong
Song
p927
(dp928
g3
(dp929
g5
F0.0674
sg6
VThat Day Will Come
p930
sg8
F0.61348
sg9
F0.839
sg10
S'raggae'
p931
sg12
F0.114
sg13
VCapleton
p932
sg15
I9999
sg16
F0.672
sg17
Nsg18
Nsg19
Nsg20
F0.9161
sg21
F0.917
sg22
Nsg23
Nsg24
I0
ssg25
I01
sg26
I01
sba(iSong
Song
p933
(dp934
g3
(dp935
g5
F0.0621
sg6
VFly Rasta
p936
sg8
F0.45182799999999995
sg9
F0.694
sg10
S'raggae'
p937
sg12
F0.156
sg13
VZiggy Marley
p938
sg15
I9999
sg16
F0.816
sg17
Nsg18
Nsg19
Nsg20
F0.901
sg21
F0.822
sg22
Nsg23
Nsg24
I0
ssg25
I01
sg26
I01
sba(iSong
Song
p939
(dp940
g3
(dp941
g5
F0.0585
sg6
VThe International Herb
p942
sg8
F0.510744
sg9
F0.433
sg10
S'raggae'
p943
sg12
F0.337
sg13
VCulture
p944
sg15
I9999
sg16
F0.825
sg17
Nsg18
Nsg19
Nsg20
F0.7819166666666667
sg21
F0.687
sg22
Nsg23
Nsg24
I0
ssg25
I01
sg26
I01
sba(iSong
Song
p945
(dp946
g3
(dp947
g5
F0.0876
sg6
VKing Without a Crown - Live
p948
sg8
F0.376644
sg9
F0.771
sg10
S'raggae'
p949
sg12
F0.0609
sg13
VMatisyahu
p950
sg15
I9999
sg16
F0.604
sg17
Nsg18
Nsg19
Nsg20
F0.89015
sg21
F0.7
sg22
Nsg23
Nsg24
I0
ssg25
I01
sg26
I01
sba(iSong
Song
p951
(dp952
g3
(dp953
g5
F0.121
sg6
VMount Zion Medley (ft. Capleton, Jah Cure, LMS, Ras Shiloh, Bushman)
p954
sg8
F0.550888
sg9
F0.467
sg10
S'raggae'
p955
sg12
F0.295
sg13
VMorgan Heritage
p956
sg15
I9999
sg16
F0.622
sg17
Nsg18
Nsg19
Nsg20
F0.8091
sg21
F0.778
sg22
Nsg23
Nsg24
I0
ssg25
I01
sg26
I01
sba(iSong
Song
p957
(dp958
g3
(dp959
g5
F0.0143
sg6
VBush Doctor - 2002 Remastered Version
p960
sg8
F0.545848
sg9
F0.569
sg10
S'raggae'
p961
sg12
F0.0544
sg13
VPeter Tosh
p962
sg15
I9999
sg16
F0.762
sg17
Nsg18
Nsg19
Nsg20
F0.86895
sg21
F0.789
sg22
Nsg23
Nsg24
F1.45e-05
ssg25
I01
sg26
I01
sba(iSong
Song
p963
(dp964
g3
(dp965
g5
F0.0068
sg6
VKaya
p966
sg8
F0.39052
sg9
F0.529
sg10
S'raggae'
p967
sg12
F0.066
sg13
VBob Marley & The Wailers
p968
sg15
I9999
sg16
F0.815
sg17
Nsg18
Nsg19
Nsg20
F0.8105
sg21
F0.857
sg22
Nsg23
Nsg24
F1.72e-05
ssg25
I01
sg26
I01
sba(iSong
Song
p969
(dp970
g3
(dp971
g5
F0.0424
sg6
VWeekend's Long
p972
sg8
F0.716268
sg9
F0.711
sg10
S'raggae'
p973
sg12
F0.0354
sg13
VZiggy Marley
p974
sg15
I9999
sg16
F0.582
sg17
Nsg18
Nsg19
Nsg20
F0.9387333333333333
sg21
F0.867
sg22
Nsg23
Nsg24
I0
ssg25
I01
sg26
I01
sba(iSong
Song
p975
(dp976
g3
(dp977
g5
F0.0331
sg6
VPolice In Helicopter
p978
sg8
F0.56474
sg9
F0.652
sg10
S'raggae'
p979
sg12
F0.111
sg13
VJohn Holt
p980
sg15
I9999
sg16
F0.686
sg17
Nsg18
Nsg19
Nsg20
F0.8735666666666667
sg21
F0.503
sg22
Nsg23
Nsg24
F8.34e-06
ssg25
I01
sg26
I01
sba(iSong
Song
p981
(dp982
g3
(dp983
g5
F0.107
sg6
VCocody Rock
p984
sg8
F0.589496
sg9
F0.669
sg10
S'raggae'
p985
sg12
F0.0911
sg13
VThe Wailers
p986
sg15
I9999
sg16
F0.796
sg17
Nsg18
Nsg19
Nsg20
F0.8944500000000001
sg21
F0.96
sg22
Nsg23
Nsg24
F0.000113
ssg25
I01
sg26
I01
sba(iSong
Song
p987
(dp988
g3
(dp989
g5
F0.224
sg6
VWhen mi rise it
p990
sg8
F0.311076
sg9
F0.783
sg10
S'raggae'
p991
sg12
F0.215
sg13
VLutan Fyah
p992
sg15
I9999
sg16
F0.693
sg17
Nsg18
Nsg19
Nsg20
F0.93345
sg21
F0.774
sg22
Nsg23
Nsg24
I0
ssg25
I01
sg26
I01
sba(iSong
Song
p993
(dp994
g3
(dp995
g5
F0.172
sg6
VNuthin' Wrong With The World
p996
sg8
F0.58782
sg9
F0.82
sg10
S'raggae'
p997
sg12
F0.246
sg13
VJunior Kelly
p998
sg15
I9999
sg16
F0.699
sg17
Nsg18
Nsg19
Nsg20
F0.9328833333333333
sg21
F0.931
sg22
Nsg23
Nsg24
I0
ssg25
I01
sg26
I01
sba(iSong
Song
p999
(dp1000
g3
(dp1001
g5
F0.0299
sg6
VJohnny B Goode - 2002 Remastered Version
p1002
sg8
F0.5806760000000001
sg9
F0.849
sg10
S'raggae'
p1003
sg12
F0.0544
sg13
VPeter Tosh
p1004
sg15
I9999
sg16
F0.749
sg17
Nsg18
Nsg19
Nsg20
F0.9039833333333332
sg21
F0.959
sg22
Nsg23
Nsg24
F0.000168
ssg25
I01
sg26
I01
sba(iSong
Song
p1005
(dp1006
g3
(dp1007
g5
F0.0673
sg6
VOne Love / People Get Ready
p1008
sg8
F0.6167440000000001
sg9
F0.516
sg10
S'raggae'
p1009
sg12
F0.366
sg13
VBob Marley & The Wailers
p1010
sg15
I9999
sg16
F0.67
sg17
Nsg18
Nsg19
Nsg20
F0.8400333333333333
sg21
F0.939
sg22
Nsg23
Nsg24
I0
ssg25
I01
sg26
I01
sba(iSong
Song
p1011
(dp1012
g3
(dp1013
g5
F0.101
sg6
VSunshine Reggae - Original Mix '82
p1014
sg8
F0.671264
sg9
F0.79
sg10
S'raggae'
p1015
sg12
F0.0432
sg13
VLaid Back
p1016
sg15
I9999
sg16
F0.704
sg17
Nsg18
Nsg19
Nsg20
F0.9040666666666667
sg21
F0.933
sg22
Nsg23
Nsg24
F0.00657
ssg25
I01
sg26
I01
sba(iSong
Song
p1017
(dp1018
g3
(dp1019
g5
F0.0392
sg6
VWorld A Reggae Music
p1020
sg8
F0.33261599999999997
sg9
F0.587
sg10
S'raggae'
p1021
sg12
F0.354
sg13
VAnthony B
p1022
sg15
I9999
sg16
F0.831
sg17
Nsg18
Nsg19
Nsg20
F0.8833833333333333
sg21
F0.787
sg22
Nsg23
Nsg24
I0
ssg25
I01
sg26
I01
sba(iSong
Song
p1023
(dp1024
g3
(dp1025
g5
F0.497
sg6
VOne Good Spliff
p1026
sg8
F0.431928
sg9
F0.464
sg10
S'raggae'
p1027
sg12
F0.142
sg13
VZiggy Marley & The Melody Makers
p1028
sg15
I9999
sg16
F0.617
sg17
Nsg18
Nsg19
Nsg20
F0.8013666666666667
sg21
F0.613
sg22
Nsg23
Nsg24
F7.08e-06
ssg25
I01
sg26
I01
sba(iSong
Song
p1029
(dp1030
g3
(dp1031
g5
F0.177
sg6
V54-46 Was My Number
p1032
sg8
F0.644536
sg9
F0.361
sg10
S'raggae'
p1033
sg12
F0.0538
sg13
VToots & The Maytals
p1034
sg15
I9999
sg16
F0.687
sg17
Nsg18
Nsg19
Nsg20
F0.83845
sg21
F0.578
sg22
Nsg23
Nsg24
I0
ssg25
I01
sg26
I01
sba(iSong
Song
p1035
(dp1036
g3
(dp1037
g5
F0.0807
sg6
VGames People Play
p1038
sg8
F0.682376
sg9
F0.892
sg10
S'raggae'
p1039
sg12
F0.17
sg13
VInner Circle
p1040
sg15
I9999
sg16
F0.73
sg17
Nsg18
Nsg19
Nsg20
F0.9117
sg21
F0.953
sg22
Nsg23
Nsg24
I0
ssg25
I01
sg26
I01
sba(iSong
Song
p1041
(dp1042
g3
(dp1043
g5
F0.0161
sg6
VHumanity (Love the Way It Should Be)
p1044
sg8
F0.52124
sg9
F0.643
sg10
S'raggae'
p1045
sg12
F0.0307
sg13
VJohn Legend
p1046
sg15
I9999
sg16
F0.46
sg17
Nsg18
Nsg19
Nsg20
F0.92805
sg21
F0.506
sg22
Nsg23
Nsg24
F0.00675
ssg25
I01
sg26
I01
sba(iSong
Song
p1047
(dp1048
g3
(dp1049
g5
F0.116
sg6
VAngel
p1050
sg8
F0.6821240000000001
sg9
F0.766
sg10
S'raggae'
p1051
sg12
F0.178
sg13
VShaggy
p1052
sg15
I9999
sg16
F0.74
sg17
Nsg18
Nsg19
Nsg20
F0.9510166666666666
sg21
F0.807
sg22
Nsg23
Nsg24
I0
ssg25
I01
sg26
I01
sba(iSong
Song
p1053
(dp1054
g3
(dp1055
g5
F0.0283
sg6
VRefugee
p1056
sg8
F0.36406
sg9
F0.836
sg10
S'raggae'
p1057
sg12
F0.0892
sg13
VSkip Marley
p1058
sg15
I9999
sg16
F0.644
sg17
Nsg18
Nsg19
Nsg20
F0.9323666666666667
sg21
F0.825
sg22
Nsg23
Nsg24
I0
ssg25
I01
sg26
I01
sba(iSong
Song
p1059
(dp1060
g3
(dp1061
g5
F0.108
sg6
VIs This Love
p1062
sg8
F0.488916
sg9
F0.559
sg10
S'raggae'
p1063
sg12
F0.088
sg13
VBob Marley & The Wailers
p1064
sg15
I9999
sg16
F0.775
sg17
Nsg18
Nsg19
Nsg20
F0.8603833333333333
sg21
F0.804
sg22
Nsg23
Nsg24
I0
ssg25
I01
sg26
I01
sba(iSong
Song
p1065
(dp1066
g3
(dp1067
g5
F0.0291
sg6
VBlind To You - Explicit Album Version
p1068
sg8
F0.6224959999999999
sg9
F0.873
sg10
S'raggae'
p1069
sg12
F0.407
sg13
VCollie Buddz
p1070
sg15
I9999
sg16
F0.624
sg17
Nsg18
Nsg19
Nsg20
F0.9274166666666666
sg21
F0.718
sg22
Nsg23
Nsg24
I0
ssg25
I01
sg26
I01
sba(iSong
Song
p1071
(dp1072
g3
(dp1073
g5
F0.0982
sg6
VPressure Drop - Single Version
p1074
sg8
F0.5954160000000001
sg9
F0.589
sg10
S'raggae'
p1075
sg12
F0.0413
sg13
VToots & The Maytals
p1076
sg15
I9999
sg16
F0.651
sg17
Nsg18
Nsg19
Nsg20
F0.7975666666666666
sg21
F0.987
sg22
Nsg23
Nsg24
I0
ssg25
I01
sg26
I01
sba(iSong
Song
p1077
(dp1078
g3
(dp1079
g5
F0.0647
sg6
VThat Day Will Come
p1080
sg8
F0.613176
sg9
F0.837
sg10
S'raggae'
p1081
sg12
F0.118
sg13
VCapleton
p1082
sg15
I9999
sg16
F0.696
sg17
Nsg18
Nsg19
Nsg20
F0.9161
sg21
F0.916
sg22
Nsg23
Nsg24
I0
ssg25
I01
sg26
I01
sba(iSong
Song
p1083
(dp1084
g3
(dp1085
g5
F0.000119
sg6
VTake Five
p1086
sg8
F0.595748
sg9
F0.461
sg10
S'raggae'
p1087
sg12
F0.135
sg13
VRico
p1088
sg15
I9999
sg16
F0.759
sg17
Nsg18
Nsg19
Nsg20
F0.8016500000000001
sg21
F0.694
sg22
Nsg23
Nsg24
F0.000138
ssg25
I01
sg26
I01
sba(iSong
Song
p1089
(dp1090
g3
(dp1091
g5
F0.0649
sg6
VI Am That I Am
p1092
sg8
F0.5841280000000001
sg9
F0.481
sg10
S'raggae'
p1093
sg12
F0.124
sg13
VPeter Tosh
p1094
sg15
I9999
sg16
F0.791
sg17
Nsg18
Nsg19
Nsg20
F0.8435
sg21
F0.926
sg22
Nsg23
Nsg24
F1.47e-06
ssg25
I01
sg26
I01
sba(iSong
Song
p1095
(dp1096
g3
(dp1097
g5
F0.000678
sg6
VWake Up
p1098
sg8
F0.3013
sg9
F0.778
sg10
S'raggae'
p1099
sg12
F0.301
sg13
VSizzla
p1100
sg15
I9999
sg16
F0.42
sg17
Nsg18
Nsg19
Nsg20
F0.9166500000000001
sg21
F0.642
sg22
Nsg23
Nsg24
I0
ssg25
I01
sg26
I01
sba(iSong
Song
p1101
(dp1102
g3
(dp1103
g5
F0.113
sg6
VOne Drop
p1104
sg8
F0.484968
sg9
F0.472
sg10
S'raggae'
p1105
sg12
F0.231
sg13
VBob Marley & The Wailers
p1106
sg15
I9999
sg16
F0.901
sg17
Nsg18
Nsg19
Nsg20
F0.87725
sg21
F0.828
sg22
Nsg23
Nsg24
F1e-05
ssg25
I01
sg26
I01
sba(iSong
Song
p1107
(dp1108
g3
(dp1109
g5
F0.211
sg6
VBeach In Hawaii
p1110
sg8
F0.40383600000000003
sg9
F0.458
sg10
S'raggae'
p1111
sg12
F0.0361
sg13
VZiggy Marley
p1112
sg15
I9999
sg16
F0.807
sg17
Nsg18
Nsg19
Nsg20
F0.8401
sg21
F0.874
sg22
Nsg23
Nsg24
F9.01e-06
ssg25
I01
sg26
I01
sba(iSong
Song
p1113
(dp1114
g3
(dp1115
g5
F0.0615
sg6
VNatty Rebel - 1990 Digital Remaster
p1116
sg8
F0.33246800000000004
sg9
F0.395
sg10
S'raggae'
p1117
sg12
F0.0721
sg13
VU-Roy
p1118
sg15
I9999
sg16
F0.813
sg17
Nsg18
Nsg19
Nsg20
F0.8071166666666667
sg21
F0.783
sg22
Nsg23
Nsg24
F6.72e-06
ssg25
I01
sg26
I01
sba(iSong
Song
p1119
(dp1120
g3
(dp1121
g5
F0.00394
sg6
VSinsemilla
p1122
sg8
F0.52552
sg9
F0.547
sg10
S'raggae'
p1123
sg12
F0.106
sg13
VBlack Uhuru
p1124
sg15
I9999
sg16
F0.842
sg17
Nsg18
Nsg19
Nsg20
F0.8021666666666667
sg21
F0.723
sg22
Nsg23
Nsg24
F0.00314
ssg25
I01
sg26
I01
sba(iSong
Song
p1125
(dp1126
g3
(dp1127
g5
F0.0381
sg6
VKingston Town
p1128
sg8
F0.29591199999999995
sg9
F0.773
sg10
S'raggae'
p1129
sg12
F0.099
sg13
VAlborosie
p1130
sg15
I9999
sg16
F0.788
sg17
Nsg18
Nsg19
Nsg20
F0.9121333333333334
sg21
F0.584
sg22
Nsg23
Nsg24
I0
ssg25
I01
sg26
I01
sba(iSong
Song
p1131
(dp1132
g3
(dp1133
g5
F0.0334
sg6
VBlood Money
p1134
sg8
F0.31197199999999997
sg9
F0.76
sg10
S'raggae'
p1135
sg12
F0.0906
sg13
VProtoje
p1136
sg15
I9999
sg16
F0.807
sg17
Nsg18
Nsg19
Nsg20
F0.8963666666666666
sg21
F0.801
sg22
Nsg23
Nsg24
I0
ssg25
I01
sg26
I01
sba(iSong
Song
p1137
(dp1138
g3
(dp1139
g5
F0.0111
sg6
VWorld A Music
p1140
sg8
F0.296332
sg9
F0.492
sg10
S'raggae'
p1141
sg12
F0.139
sg13
VIni Kamoze
p1142
sg15
I9999
sg16
F0.874
sg17
Nsg18
Nsg19
Nsg20
F0.8707999999999999
sg21
F0.357
sg22
Nsg23
Nsg24
F0.00801
ssg25
I01
sg26
I01
sba(iSong
Song
p1143
(dp1144
g3
(dp1145
g5
F0.306
sg6
VRunning Away - Winta James Mix
p1146
sg8
F0.599904
sg9
F0.584
sg10
S'raggae'
p1147
sg12
F0.0331
sg13
VAdy Suleiman
p1148
sg15
I9999
sg16
F0.669
sg17
Nsg18
Nsg19
Nsg20
F0.9002
sg21
F0.949
sg22
Nsg23
Nsg24
F0.0325
ssg25
I01
sg26
I01
sba(iSong
Song
p1149
(dp1150
g3
(dp1151
g5
F0.435
sg6
VDreadlock Holiday
p1152
sg8
F0.42005200000000004
sg9
F0.407
sg10
S'raggae'
p1153
sg12
F0.0563
sg13
V10cc
p1154
sg15
I9999
sg16
F0.837
sg17
Nsg18
Nsg19
Nsg20
F0.7930666666666667
sg21
F0.922
sg22
Nsg23
Nsg24
F0.000487
ssg25
I01
sg26
I01
sba(iSong
Song
p1155
(dp1156
g3
(dp1157
g5
F0.454
sg6
VTenement Yard
p1158
sg8
F0.28858
sg9
F0.399
sg10
S'raggae'
p1159
sg12
F0.322
sg13
VJacob Miller
p1160
sg15
I9999
sg16
F0.844
sg17
Nsg18
Nsg19
Nsg20
F0.7834
sg21
F0.973
sg22
Nsg23
Nsg24
I0
ssg25
I01
sg26
I01
sba(iSong
Song
p1161
(dp1162
g3
(dp1163
g5
F0.118
sg6
VGirls Dem Sugar - Feat. Mya
p1164
sg8
F0.497212
sg9
F0.782
sg10
S'raggae'
p1165
sg12
F0.162
sg13
VBeenie Man
p1166
sg15
I9999
sg16
F0.603
sg17
Nsg18
Nsg19
Nsg20
F0.9194666666666667
sg21
F0.731
sg22
Nsg23
Nsg24
I0
ssg25
I01
sg26
I01
sba(iSong
Song
p1167
(dp1168
g3
(dp1169
g5
F0.313
sg6
VI Shot The Sheriff
p1170
sg8
F0.387224
sg9
F0.641
sg10
S'raggae'
p1171
sg12
F0.171
sg13
VThe Wailers
p1172
sg15
I9999
sg16
F0.799
sg17
Nsg18
Nsg19
Nsg20
F0.8445
sg21
F0.719
sg22
Nsg23
Nsg24
F2.22e-05
ssg25
I01
sg26
I01
sba(iSong
Song
p1173
(dp1174
g3
(dp1175
g5
F0.197
sg6
VSmoke Marijuana
p1176
sg8
F0.275264
sg9
F0.738
sg10
S'raggae'
p1177
sg12
F0.213
sg13
VSizzla
p1178
sg15
I9999
sg16
F0.646
sg17
Nsg18
Nsg19
Nsg20
F0.9028833333333334
sg21
F0.622
sg22
Nsg23
Nsg24
I0
ssg25
I01
sg26
I01
sba(iSong
Song
p1179
(dp1180
g3
(dp1181
g5
F0.056
sg6
VThat Girl - feat. Shaggy
p1182
sg8
F0.554616
sg9
F0.698
sg10
S'raggae'
p1183
sg12
F0.119
sg13
VMaxi Priest
p1184
sg15
I9999
sg16
F0.667
sg17
Nsg18
Nsg19
Nsg20
F0.8775
sg21
F0.662
sg22
Nsg23
Nsg24
I0
ssg25
I01
sg26
I01
sba(iSong
Song
p1185
(dp1186
g3
(dp1187
g5
F0.00414
sg6
VRed Red Wine - Edit
p1188
sg8
F0.356476
sg9
F0.468
sg10
S'raggae'
p1189
sg12
F0.0476
sg13
VUB40
p1190
sg15
I9999
sg16
F0.857
sg17
Nsg18
Nsg19
Nsg20
F0.8578333333333333
sg21
F0.843
sg22
Nsg23
Nsg24
F1.32e-05
ssg25
I01
sg26
I01
sba(iSong
Song
p1191
(dp1192
g3
(dp1193
g5
F0.632
sg6
VThe Harder They Come
p1194
sg8
F0.410352
sg9
F0.575
sg10
S'raggae'
p1195
sg12
F0.0717
sg13
VJimmy Cliff
p1196
sg15
I9999
sg16
F0.679
sg17
Nsg18
Nsg19
Nsg20
F0.86605
sg21
F0.79
sg22
Nsg23
Nsg24
I0
ssg25
I01
sg26
I01
sba(iSong
Song
p1197
(dp1198
g3
(dp1199
g5
F0.122
sg6
VLiving In Love
p1200
sg8
F0.314096
sg9
F0.827
sg10
S'raggae'
p1201
sg12
F0.242
sg13
VI Wayne
p1202
sg15
I9999
sg16
F0.608
sg17
Nsg18
Nsg19
Nsg20
F0.9192
sg21
F0.964
sg22
Nsg23
Nsg24
I0
ssg25
I01
sg26
I01
sba(iSong
Song
p1203
(dp1204
g3
(dp1205
g5
F0.00208
sg6
VIt Don't Make Any Difference To Me (feat. Wyclef Jean) - Supa Dupes Remix
p1206
sg8
F0.354016
sg9
F0.664
sg10
S'raggae'
p1207
sg12
F0.0388
sg13
VKevin Michael
p1208
sg15
I9999
sg16
F0.726
sg17
Nsg18
Nsg19
Nsg20
F0.8893166666666666
sg21
F0.387
sg22
Nsg23
Nsg24
I0
ssg25
I01
sg26
I01
sba(iSong
Song
p1209
(dp1210
g3
(dp1211
g5
F0.198
sg6
VOne Day - New Album Version
p1212
sg8
F0.274208
sg9
F0.61
sg10
S'raggae'
p1213
sg12
F0.15
sg13
VMatisyahu
p1214
sg15
I9999
sg16
F0.346
sg17
Nsg18
Nsg19
Nsg20
F0.9030333333333334
sg21
F0.235
sg22
Nsg23
Nsg24
I0
ssg25
I01
sg26
I01
sba(iSong
Song
p1215
(dp1216
g3
(dp1217
g5
F0.107
sg6
VJamming
p1218
sg8
F0.494576
sg9
F0.479
sg10
S'raggae'
p1219
sg12
F0.306
sg13
VBob Marley & The Wailers
p1220
sg15
I9999
sg16
F0.935
sg17
Nsg18
Nsg19
Nsg20
F0.8169833333333333
sg21
F0.773
sg22
Nsg23
Nsg24
F5.25e-05
ssg25
I01
sg26
I01
sba(iSong
Song
p1221
(dp1222
g3
(dp1223
g5
F0.323
sg6
VIn My Arms
p1224
sg8
F0.30393200000000004
sg9
F0.872
sg10
S'raggae'
p1225
sg12
F0.127
sg13
VBeres Hammond
p1226
sg15
I9999
sg16
F0.682
sg17
Nsg18
Nsg19
Nsg20
F0.9272833333333333
sg21
F0.849
sg22
Nsg23
Nsg24
I0
ssg25
I01
sg26
I01
sba(iSong
Song
p1227
(dp1228
g3
(dp1229
g5
F0.0887
sg6
VCool Down The Pace
p1230
sg8
F0.30548000000000003
sg9
F0.266
sg10
S'raggae'
p1231
sg12
F0.264
sg13
VGregory Isaacs
p1232
sg15
I9999
sg16
F0.87
sg17
Nsg18
Nsg19
Nsg20
F0.7406833333333334
sg21
F0.929
sg22
Nsg23
Nsg24
F0.0217
ssg25
I01
sg26
I01
sba(iSong
Song
p1233
(dp1234
g3
(dp1235
g5
F0.00626
sg6
VYou Don't Love Me (No, No, No)
p1236
sg8
F0.336012
sg9
F0.64
sg10
S'raggae'
p1237
sg12
F0.0728
sg13
VRihanna
p1238
sg15
I9999
sg16
F0.688
sg17
Nsg18
Nsg19
Nsg20
F0.8826
sg21
F0.63
sg22
Nsg23
Nsg24
F2.72e-06
ssg25
I01
sg26
I01
sba(iSong
Song
p1239
(dp1240
g3
(dp1241
g5
F0.00788
sg6
VIt's A Pity
p1242
sg8
F0.558476
sg9
F0.811
sg10
S'raggae'
p1243
sg12
F0.332
sg13
VTanya Stephens
p1244
sg15
I9999
sg16
F0.66
sg17
Nsg18
Nsg19
Nsg20
F0.9092
sg21
F0.821
sg22
Nsg23
Nsg24
I0
ssg25
I01
sg26
I01
sba(iSong
Song
p1245
(dp1246
g3
(dp1247
g5
F0.00834
sg6
VShe's Royal
p1248
sg8
F0.312388
sg9
F0.459
sg10
S'raggae'
p1249
sg12
F0.109
sg13
VTarrus Riley
p1250
sg15
I9999
sg16
F0.758
sg17
Nsg18
Nsg19
Nsg20
F0.9008833333333333
sg21
F0.828
sg22
Nsg23
Nsg24
I0
ssg25
I01
sg26
I01
sba(iSong
Song
p1251
(dp1252
g3
(dp1253
g5
F0.381
sg6
VWanted Dread and Alive - 2002 Remastered Version
p1254
sg8
F0.384644
sg9
F0.731
sg10
S'raggae'
p1255
sg12
F0.0529
sg13
VPeter Tosh
p1256
sg15
I9999
sg16
F0.795
sg17
Nsg18
Nsg19
Nsg20
F0.8990666666666667
sg21
F0.884
sg22
Nsg23
Nsg24
F0.00163
ssg25
I01
sg26
I01
sba(iSong
Song
p1257
(dp1258
g3
(dp1259
g5
F0.0176
sg6
VSinsemilla
p1260
sg8
F0.5248999999999999
sg9
F0.565
sg10
S'raggae'
p1261
sg12
F0.0969
sg13
VBlack Uhuru
p1262
sg15
I9999
sg16
F0.85
sg17
Nsg18
Nsg19
Nsg20
F0.8184833333333333
sg21
F0.709
sg22
Nsg23
Nsg24
F0.0217
ssg25
I01
sg26
I01
sba(iSong
Song
p1263
(dp1264
g3
(dp1265
g5
F0.0528
sg6
VBaby, I Love Your Way
p1266
sg8
F0.590072
sg9
F0.747
sg10
S'raggae'
p1267
sg12
F0.0699
sg13
VBig Mountain
p1268
sg15
I9999
sg16
F0.651
sg17
Nsg18
Nsg19
Nsg20
F0.87885
sg21
F0.776
sg22
Nsg23
Nsg24
I0
ssg25
I01
sg26
I01
sba(iSong
Song
p1269
(dp1270
g3
(dp1271
g5
F0.0276
sg6
VDash Wata
p1272
sg8
F0.308124
sg9
F0.566
sg10
S'raggae'
p1273
sg12
F0.146
sg13
VRaging Fyah
p1274
sg15
I9999
sg16
F0.844
sg17
Nsg18
Nsg19
Nsg20
F0.9073333333333333
sg21
F0.82
sg22
Nsg23
Nsg24
F2.65e-06
ssg25
I01
sg26
I01
sba(iSong
Song
p1275
(dp1276
g3
(dp1277
g5
F0.0673
sg6
VEverything Nice
p1278
sg8
F0.39649599999999996
sg9
F0.603
sg10
S'raggae'
p1279
sg12
F0.198
sg13
VPopcaan
p1280
sg15
I9999
sg16
F0.461
sg17
Nsg18
Nsg19
Nsg20
F0.8564
sg21
F0.185
sg22
Nsg23
Nsg24
I0
ssg25
I01
sg26
I01
sba(iSong
Song
p1281
(dp1282
g3
(dp1283
g5
F0.0986
sg6
VThat Day Will Come
p1284
sg8
F0.61348
sg9
F0.802
sg10
S'raggae'
p1285
sg12
F0.114
sg13
VCapleton
p1286
sg15
I9999
sg16
F0.687
sg17
Nsg18
Nsg19
Nsg20
F0.8999166666666666
sg21
F0.908
sg22
Nsg23
Nsg24
I0
ssg25
I01
sg26
I01
sba(iSong
Song
p1287
(dp1288
g3
(dp1289
g5
F0.168
sg6
VBrown Skin
p1290
sg8
F0.320072
sg9
F0.601
sg10
S'raggae'
p1291
sg12
F0.256
sg13
VRichie Spice
p1292
sg15
I9999
sg16
F0.765
sg17
Nsg18
Nsg19
Nsg20
F0.8766833333333334
sg21
F0.773
sg22
Nsg23
Nsg24
F0.00976
ssg25
I01
sg26
I01
sba(iSong
Song
p1293
(dp1294
g3
(dp1295
g5
F0.112
sg6
VThey Gonna Talk
p1296
sg8
F0.621444
sg9
F0.63
sg10
S'raggae'
p1297
sg12
F0.124
sg13
VBeres Hammond
p1298
sg15
I9999
sg16
F0.687
sg17
Nsg18
Nsg19
Nsg20
F0.88615
sg21
F0.864
sg22
Nsg23
Nsg24
I0
ssg25
I01
sg26
I01
sba(iSong
Song
p1299
(dp1300
g3
(dp1301
g5
F0.00224
sg6
VWorld A Reggae (Out In The Street They Call It Murder)
p1302
sg8
F0.314376
sg9
F0.5
sg10
S'raggae'
p1303
sg12
F0.063
sg13
VIni Kamoze
p1304
sg15
I9999
sg16
F0.867
sg17
Nsg18
Nsg19
Nsg20
F0.8929666666666667
sg21
F0.801
sg22
Nsg23
Nsg24
I0
ssg25
I01
sg26
I01
sba(iSong
Song
p1305
(dp1306
g3
(dp1307
g5
F0.0194
sg6
VWelcome To Jamrock
p1308
sg8
F0.30655200000000005
sg9
F0.666
sg10
S'raggae'
p1309
sg12
F0.335
sg13
VDamian Marley
p1310
sg15
I9999
sg16
F0.801
sg17
Nsg18
Nsg19
Nsg20
F0.8907
sg21
F0.759
sg22
Nsg23
Nsg24
I0
ssg25
I01
sg26
I01
sba(iSong
Song
p1311
(dp1312
g3
(dp1313
g5
F0.149
sg6
VLikes
p1314
sg8
F0.36803199999999997
sg9
F0.766
sg10
S'raggae'
p1315
sg12
F0.126
sg13
VChronixx
p1316
sg15
I9999
sg16
F0.771
sg17
Nsg18
Nsg19
Nsg20
F0.9035
sg21
F0.921
sg22
Nsg23
Nsg24
I0
ssg25
I01
sg26
I01
sba(iSong
Song
p1317
(dp1318
g3
(dp1319
g5
F0.0144
sg6
VHeaven In Her Eyes
p1320
sg8
F0.340048
sg9
F0.484
sg10
S'raggae'
p1321
sg12
F0.0509
sg13
VGappy Ranks
p1322
sg15
I9999
sg16
F0.881
sg17
Nsg18
Nsg19
Nsg20
F0.8955333333333333
sg21
F0.67
sg22
Nsg23
Nsg24
F0.000611
ssg25
I01
sg26
I01
sba(iSong
Song
p1323
(dp1324
g3
(dp1325
g5
F0.0733
sg6
VGhetto Paradise
p1326
sg8
F0.703604
sg9
F0.687
sg10
S'raggae'
p1327
sg12
F0.222
sg13
VChronixx
p1328
sg15
I9999
sg16
F0.69
sg17
Nsg18
Nsg19
Nsg20
F0.9012166666666667
sg21
F0.508
sg22
Nsg23
Nsg24
I0
ssg25
I01
sg26
I01
sba(iSong
Song
p1329
(dp1330
g3
(dp1331
g5
F0.0262
sg6
VYouth Dem Cold
p1332
sg8
F0.33028399999999997
sg9
F0.719
sg10
S'raggae'
p1333
sg12
F0.344
sg13
VRichie Spice
p1334
sg15
I9999
sg16
F0.624
sg17
Nsg18
Nsg19
Nsg20
F0.8994333333333333
sg21
F0.781
sg22
Nsg23
Nsg24
I0
ssg25
I01
sg26
I01
sba(iSong
Song
p1335
(dp1336
g3
(dp1337
g5
F0.121
sg6
VMount Zion Medley (ft. Capleton, Jah Cure, LMS, Ras Shiloh, Bushman)
p1338
sg8
F0.550888
sg9
F0.467
sg10
S'raggae'
p1339
sg12
F0.295
sg13
VMorgan Heritage
p1340
sg15
I9999
sg16
F0.622
sg17
Nsg18
Nsg19
Nsg20
F0.8091
sg21
F0.778
sg22
Nsg23
Nsg24
I0
ssg25
I01
sg26
I01
sba(iSong
Song
p1341
(dp1342
g3
(dp1343
g5
F0.0102
sg6
VThree Little Birds
p1344
sg8
F0.593964
sg9
F0.487
sg10
S'raggae'
p1345
sg12
F0.0758
sg13
VBob Marley & The Wailers
p1346
sg15
I9999
sg16
F0.807
sg17
Nsg18
Nsg19
Nsg20
F0.8257333333333333
sg21
F0.651
sg22
Nsg23
Nsg24
F1.98e-06
ssg25
I01
sg26
I01
sba(iSong
Song
p1347
(dp1348
g3
(dp1349
g5
F0.29
sg6
VLonging For
p1350
sg8
F0.67174
sg9
F0.541
sg10
S'raggae'
p1351
sg12
F0.293
sg13
VJah Cure
p1352
sg15
I9999
sg16
F0.67
sg17
Nsg18
Nsg19
Nsg20
F0.8764166666666667
sg21
F0.488
sg22
Nsg23
Nsg24
F3.11e-06
ssg25
I01
sg26
I01
sba(iSong
Song
p1353
(dp1354
g3
(dp1355
g5
F0.145
sg6
VHail H.I.M.
p1356
sg8
F0.551428
sg9
F0.649
sg10
S'raggae'
p1357
sg12
F0.0578
sg13
VBurning Spear
p1358
sg15
I9999
sg16
F0.781
sg17
Nsg18
Nsg19
Nsg20
F0.8694833333333333
sg21
F0.689
sg22
Nsg23
Nsg24
F0.177
ssg25
I01
sg26
I01
sba(iSong
Song
p1359
(dp1360
g3
(dp1361
g5
F0.0139
sg6
VAmsterdam
p1362
sg8
F0.660172
sg9
F0.41
sg10
S'raggae'
p1363
sg12
F0.0758
sg13
VMungo's Hi Fi
p1364
sg15
I9999
sg16
F0.858
sg17
Nsg18
Nsg19
Nsg20
F0.8357666666666667
sg21
F0.723
sg22
Nsg23
Nsg24
I0
ssg25
I01
sg26
I01
sba(iSong
Song
p1365
(dp1366
g3
(dp1367
g5
F0.0737
sg6
VSmile Jamaica - Remastered
p1368
sg8
F0.591884
sg9
F0.656
sg10
S'raggae'
p1369
sg12
F0.134
sg13
VChronixx
p1370
sg15
I9999
sg16
F0.762
sg17
Nsg18
Nsg19
Nsg20
F0.8915000000000001
sg21
F0.94
sg22
Nsg23
Nsg24
I0
ssg25
I01
sg26
I01
sba(iSong
Song
p1371
(dp1372
g3
(dp1373
g5
F0.308
sg6
VNo Money
p1374
sg8
F0.32796
sg9
F0.69
sg10
S'raggae'
p1375
sg12
F0.259
sg13
VRomain Virgo
p1376
sg15
I9999
sg16
F0.753
sg17
Nsg18
Nsg19
Nsg20
F0.9508833333333333
sg21
F0.916
sg22
Nsg23
Nsg24
I0
ssg25
I01
sg26
I01
sba(iSong
Song
p1377
(dp1378
g3
(dp1379
g5
F0.00681
sg6
VLove And Affection
p1380
sg8
F0.345408
sg9
F0.686
sg10
S'raggae'
p1381
sg12
F0.174
sg13
VPressure
p1382
sg15
I9999
sg16
F0.664
sg17
Nsg18
Nsg19
Nsg20
F0.8971166666666667
sg21
F0.529
sg22
Nsg23
Nsg24
I0
ssg25
I01
sg26
I01
sba(iSong
Song
p1383
(dp1384
g3
(dp1385
g5
F0.00665
sg6
VSolid As A Rock
p1386
sg8
F0.5773959999999999
sg9
F0.681
sg10
S'raggae'
p1387
sg12
F0.197
sg13
VSizzla
p1388
sg15
I9999
sg16
F0.721
sg17
Nsg18
Nsg19
Nsg20
F0.8955833333333333
sg21
F0.495
sg22
Nsg23
Nsg24
I0
ssg25
I01
sg26
I01
sba(iSong
Song
p1389
(dp1390
g3
(dp1391
g5
F0.0772
sg6
VCan't Stop Now
p1392
sg8
F0.32619600000000004
sg9
F0.604
sg10
S'raggae'
p1393
sg12
F0.141
sg13
VMajor Lazer
p1394
sg15
I9999
sg16
F0.717
sg17
Nsg18
Nsg19
Nsg20
F0.8967666666666666
sg21
F0.585
sg22
Nsg23
Nsg24
F0.000243
ssg25
I01
sg26
I01
sba(iSong
Song
p1395
(dp1396
g3
(dp1397
g5
F0.0597
sg6
VWhere Were U
p1398
sg8
F0.406584
sg9
F0.643
sg10
S'raggae'
p1399
sg12
F0.0909
sg13
Vjahmiel
p1400
sg15
I9999
sg16
F0.574
sg17
Nsg18
Nsg19
Nsg20
F0.8858499999999999
sg21
F0.651
sg22
Nsg23
Nsg24
I0
ssg25
I01
sg26
I01
sba(iSong
Song
p1401
(dp1402
g3
(dp1403
g5
F0.00281
sg6
VMissing You
p1404
sg8
F0.667276
sg9
F0.223
sg10
S'raggae'
p1405
sg12
F0.266
sg13
VSanchez
p1406
sg15
I9999
sg16
F0.786
sg17
Nsg18
Nsg19
Nsg20
F0.7859333333333333
sg21
F0.84
sg22
Nsg23
Nsg24
F6.03e-06
ssg25
I01
sg26
I01
sba(iSong
Song
p1407
(dp1408
g3
(dp1409
g5
F0.0379
sg6
VJust One Of Those Days
p1410
sg8
F0.592068
sg9
F0.604
sg10
S'raggae'
p1411
sg12
F0.165
sg13
VSizzla
p1412
sg15
I9999
sg16
F0.704
sg17
Nsg18
Nsg19
Nsg20
F0.9036666666666666
sg21
F0.522
sg22
Nsg23
Nsg24
I0
ssg25
I01
sg26
I01
sba(iSong
Song
p1413
(dp1414
g3
(dp1415
g5
F0.0381
sg6
VKingston Town
p1416
sg8
F0.29591199999999995
sg9
F0.773
sg10
S'raggae'
p1417
sg12
F0.099
sg13
VAlborosie
p1418
sg15
I9999
sg16
F0.788
sg17
Nsg18
Nsg19
Nsg20
F0.9121333333333334
sg21
F0.584
sg22
Nsg23
Nsg24
I0
ssg25
I01
sg26
I01
sba(iSong
Song
p1419
(dp1420
g3
(dp1421
g5
F0.0134
sg6
VCarnival Horns
p1422
sg8
F0.340292
sg9
F0.788
sg10
S'raggae'
p1423
sg12
F0.0654
sg13
VMista Savona
p1424
sg15
I9999
sg16
F0.692
sg17
Nsg18
Nsg19
Nsg20
F0.89235
sg21
F0.806
sg22
Nsg23
Nsg24
F0.856
ssg25
I01
sg26
I01
sba(iSong
Song
p1425
(dp1426
g3
(dp1427
g5
F0.00168
sg6
VNobody Has To Know
p1428
sg8
F0.339932
sg9
F0.682
sg10
S'raggae'
p1429
sg12
F0.173
sg13
VKranium
p1430
sg15
I9999
sg16
F0.792
sg17
Nsg18
Nsg19
Nsg20
F0.9173333333333333
sg21
F0.666
sg22
Nsg23
Nsg24
I0
ssg25
I01
sg26
I01
sba(iSong
Song
p1431
(dp1432
g3
(dp1433
g5
F0.292
sg6
VReal Love
p1434
sg8
F0.298968
sg9
F0.588
sg10
S'raggae'
p1435
sg12
F0.0775
sg13
VJesse Royal
p1436
sg15
I9999
sg16
F0.543
sg17
Nsg18
Nsg19
Nsg20
F0.9272333333333334
sg21
F0.211
sg22
Nsg23
Nsg24
F1.92e-05
ssg25
I01
sg26
I01
sba(iSong
Song
p1437
(dp1438
g3
(dp1439
g5
F0.0608
sg6
VLiving It Up
p1440
sg8
F0.388016
sg9
F0.676
sg10
S'raggae'
p1441
sg12
F0.172
sg13
VDamian Marley
p1442
sg15
I9999
sg16
F0.714
sg17
Nsg18
Nsg19
Nsg20
F0.8881666666666667
sg21
F0.799
sg22
Nsg23
Nsg24
I0
ssg25
I01
sg26
I01
sba(iSong
Song
p1443
(dp1444
g3
(dp1445
g5
F0.102
sg6
VI'm Still In Love With You (feat. Sasha)
p1446
sg8
F0.348008
sg9
F0.666
sg10
S'raggae'
p1447
sg12
F0.172
sg13
VSean Paul
p1448
sg15
I9999
sg16
F0.765
sg17
Nsg18
Nsg19
Nsg20
F0.9102666666666667
sg21
F0.756
sg22
Nsg23
Nsg24
I0
ssg25
I01
sg26
I01
sba(iSong
Song
p1449
(dp1450
g3
(dp1451
g5
F0.526
sg6
VNuh Compatible
p1452
sg8
F0.695016
sg9
F0.686
sg10
S'raggae'
p1453
sg12
F0.255
sg13
VBugle
p1454
sg15
I9999
sg16
F0.455
sg17
Nsg18
Nsg19
Nsg20
F0.92455
sg21
F0.623
sg22
Nsg23
Nsg24
I0
ssg25
I01
sg26
I01
sba(iSong
Song
p1455
(dp1456
g3
(dp1457
g5
F0.0337
sg6
VCool Runnings
p1458
sg8
F0.292964
sg9
F0.564
sg10
S'raggae'
p1459
sg12
F0.181
sg13
VDuane Stephenson
p1460
sg15
I9999
sg16
F0.852
sg17
Nsg18
Nsg19
Nsg20
F0.8931833333333333
sg21
F0.766
sg22
Nsg23
Nsg24
I0
ssg25
I01
sg26
I01
sba(iSong
Song
p1461
(dp1462
g3
(dp1463
g5
F0.0059
sg6
VLoving You In Dub
p1464
sg8
F0.668124
sg9
F0.733
sg10
S'raggae'
p1465
sg12
F0.0809
sg13
VEtana
p1466
sg15
I9999
sg16
F0.664
sg17
Nsg18
Nsg19
Nsg20
F0.8955333333333333
sg21
F0.851
sg22
Nsg23
Nsg24
F0.00482
ssg25
I01
sg26
I01
sba(iSong
Song
p1467
(dp1468
g3
(dp1469
g5
F0.367
sg6
VThe Rain
p1470
sg8
F0.656064
sg9
F0.552
sg10
S'raggae'
p1471
sg12
F0.276
sg13
VGappy Ranks
p1472
sg15
I9999
sg16
F0.691
sg17
Nsg18
Nsg19
Nsg20
F0.87875
sg21
F0.841
sg22
Nsg23
Nsg24
I0
ssg25
I01
sg26
I01
sba(iSong
Song
p1473
(dp1474
g3
(dp1475
g5
F0.034
sg6
VThe Voices Of Sweet Jamaica - All Star Remix
p1476
sg8
F0.6962079999999999
sg9
F0.71
sg10
S'raggae'
p1477
sg12
F0.134
sg13
VShaggy
p1478
sg15
I9999
sg16
F0.669
sg17
Nsg18
Nsg19
Nsg20
F0.9392666666666667
sg21
F0.908
sg22
Nsg23
Nsg24
I0
ssg25
I01
sg26
I01
sba(iSong
Song
p1479
(dp1480
g3
(dp1481
g5
F0.0106
sg6
VFoundation
p1482
sg8
F0.34012400000000004
sg9
F0.547
sg10
S'raggae'
p1483
sg12
F0.0534
sg13
VToddla T
p1484
sg15
I9999
sg16
F0.442
sg17
Nsg18
Nsg19
Nsg20
F0.8654
sg21
F0.34
sg22
Nsg23
Nsg24
F0.887
ssg25
I01
sg26
I01
sba(iSong
Song
p1485
(dp1486
g3
(dp1487
g5
F0.121
sg6
VSuperstar
p1488
sg8
F0.600244
sg9
F0.627
sg10
S'raggae'
p1489
sg12
F0.0362
sg13
VHollie Cook
p1490
sg15
I9999
sg16
F0.733
sg17
Nsg18
Nsg19
Nsg20
F0.8360833333333333
sg21
F0.713
sg22
Nsg23
Nsg24
F0.0671
ssg25
I01
sg26
I01
sba(iSong
Song
p1491
(dp1492
g3
(dp1493
g5
F0.0809
sg6
VSkankin' Sweet
p1494
sg8
F0.31194
sg9
F0.668
sg10
S'raggae'
p1495
sg12
F0.0802
sg13
VChronixx
p1496
sg15
I9999
sg16
F0.734
sg17
Nsg18
Nsg19
Nsg20
F0.90865
sg21
F0.673
sg22
Nsg23
Nsg24
F1.27e-06
ssg25
I01
sg26
I01
sba(iSong
Song
p1497
(dp1498
g3
(dp1499
g5
F0.0334
sg6
VBlood Money
p1500
sg8
F0.31197199999999997
sg9
F0.76
sg10
S'raggae'
p1501
sg12
F0.0906
sg13
VProtoje
p1502
sg15
I9999
sg16
F0.807
sg17
Nsg18
Nsg19
Nsg20
F0.8963666666666666
sg21
F0.801
sg22
Nsg23
Nsg24
I0
ssg25
I01
sg26
I01
sba(iSong
Song
p1503
(dp1504
g3
(dp1505
g5
F0.805
sg6
VMy Attention
p1506
sg8
F0.428104
sg9
F0.347
sg10
S'raggae'
p1507
sg12
F0.153
sg13
Vjahmiel
p1508
sg15
I9999
sg16
F0.611
sg17
Nsg18
Nsg19
Nsg20
F0.8382333333333333
sg21
F0.454
sg22
Nsg23
Nsg24
I0
ssg25
I01
sg26
I01
sba(iSong
Song
p1509
(dp1510
g3
(dp1511
g5
F0.803
sg6
VTight in Size
p1512
sg8
F0.313344
sg9
F0.411
sg10
S'raggae'
p1513
sg12
F0.196
sg13
VLaden
p1514
sg15
I9999
sg16
F0.595
sg17
Nsg18
Nsg19
Nsg20
F0.8446
sg21
F0.589
sg22
Nsg23
Nsg24
I0
ssg25
I01
sg26
I01
sba(iSong
Song
p1515
(dp1516
g3
(dp1517
g5
F0.0722
sg6
VSticky
p1518
sg8
F0.657404
sg9
F0.686
sg10
S'raggae'
p1519
sg12
F0.223
sg13
VJah Cure
p1520
sg15
I9999
sg16
F0.59
sg17
Nsg18
Nsg19
Nsg20
F0.9326666666666666
sg21
F0.765
sg22
Nsg23
Nsg24
I0
ssg25
I01
sg26
I01
sba(iSong
Song
p1521
(dp1522
g3
(dp1523
g5
F0.318
sg6
VDeeper
p1524
sg8
F0.335836
sg9
F0.585
sg10
S'raggae'
p1525
sg12
F0.143
sg13
VAlaine
p1526
sg15
I9999
sg16
F0.678
sg17
Nsg18
Nsg19
Nsg20
F0.9172833333333333
sg21
F0.627
sg22
Nsg23
Nsg24
I0
ssg25
I01
sg26
I01
sba(iSong
Song
p1527
(dp1528
g3
(dp1529
g5
F0.457
sg6
VTell Me Now
p1530
sg8
F0.338884
sg9
F0.651
sg10
S'raggae'
p1531
sg12
F0.0635
sg13
VChronixx
p1532
sg15
I9999
sg16
F0.456
sg17
Nsg18
Nsg19
Nsg20
F0.8677499999999999
sg21
F0.662
sg22
Nsg23
Nsg24
F1.29e-05
ssg25
I01
sg26
I01
sba(iSong
Song
p1533
(dp1534
g3
(dp1535
g5
F0.0292
sg6
VWaiting In Vain
p1536
sg8
F0.315156
sg9
F0.457
sg10
S'raggae'
p1537
sg12
F0.327
sg13
VBob Marley & The Wailers
p1538
sg15
I9999
sg16
F0.769
sg17
Nsg18
Nsg19
Nsg20
F0.8083166666666667
sg21
F0.806
sg22
Nsg23
Nsg24
F3.07e-05
ssg25
I01
sg26
I01
sba(iSong
Song
p1539
(dp1540
g3
(dp1541
g5
F0.267
sg6
VBeautiful
p1542
sg8
F0.696492
sg9
F0.721
sg10
S'raggae'
p1543
sg12
F0.27
sg13
VKonshens
p1544
sg15
I9999
sg16
F0.526
sg17
Nsg18
Nsg19
Nsg20
F0.8962166666666666
sg21
F0.811
sg22
Nsg23
Nsg24
I0
ssg25
I01
sg26
I01
sba(iSong
Song
p1545
(dp1546
g3
(dp1547
g5
F0.0765
sg6
VGood Enuff - Cash Flow Dub
p1548
sg8
F0.320056
sg9
F0.837
sg10
S'raggae'
p1549
sg12
F0.283
sg13
VMajor Lazer
p1550
sg15
I9999
sg16
F0.612
sg17
Nsg18
Nsg19
Nsg20
F0.9113666666666667
sg21
F0.442
sg22
Nsg23
Nsg24
I0
ssg25
I01
sg26
I01
sba(iSong
Song
p1551
(dp1552
g3
(dp1553
g5
F0.0847
sg6
VBeautiful
p1554
sg8
F0.371916
sg9
F0.873
sg10
S'raggae'
p1555
sg12
F0.112
sg13
VDamian Marley
p1556
sg15
I9999
sg16
F0.706
sg17
Nsg18
Nsg19
Nsg20
F0.9162833333333334
sg21
F0.83
sg22
Nsg23
Nsg24
I0
ssg25
I01
sg26
I01
sba(iSong
Song
p1557
(dp1558
g3
(dp1559
g5
F0.61
sg6
VNo One Else but You - In Dub
p1560
sg8
F0.615756
sg9
F0.632
sg10
S'raggae'
p1561
sg12
F0.0597
sg13
VGlen Washington
p1562
sg15
I9999
sg16
F0.506
sg17
Nsg18
Nsg19
Nsg20
F0.8661666666666666
sg21
F0.558
sg22
Nsg23
Nsg24
F1.15e-05
ssg25
I01
sg26
I01
sba(iSong
Song
p1563
(dp1564
g3
(dp1565
g5
F0.354
sg6
VSuperior
p1566
sg8
F0.609428
sg9
F0.768
sg10
S'raggae'
p1567
sg12
F0.124
sg13
VGentleman
p1568
sg15
I9999
sg16
F0.666
sg17
Nsg18
Nsg19
Nsg20
F0.90735
sg21
F0.972
sg22
Nsg23
Nsg24
I0
ssg25
I01
sg26
I01
sba(iSong
Song
p1569
(dp1570
g3
(dp1571
g5
F0.0867
sg6
VMore Justice
p1572
sg8
F0.31074
sg9
F0.7
sg10
S'raggae'
p1573
sg12
F0.278
sg13
VDamian Marley
p1574
sg15
I9999
sg16
F0.741
sg17
Nsg18
Nsg19
Nsg20
F0.9195833333333333
sg21
F0.886
sg22
Nsg23
Nsg24
I0
ssg25
I01
sg26
I01
sba(iSong
Song
p1575
(dp1576
g3
(dp1577
g5
F0.0381
sg6
VFast Wine
p1578
sg8
F0.431984
sg9
F0.892
sg10
S'raggae'
p1579
sg12
F0.0473
sg13
VMachel Montano
p1580
sg15
I9999
sg16
F0.887
sg17
Nsg18
Nsg19
Nsg20
F0.9609
sg21
F0.574
sg22
Nsg23
Nsg24
F3.27e-05
ssg25
I01
sg26
I01
sba(iSong
Song
p1581
(dp1582
g3
(dp1583
g5
F0.07
sg6
VFreaky Girls
p1584
sg8
F0.349012
sg9
F0.705
sg10
S'raggae'
p1585
sg12
F0.146
sg13
VRicky T
p1586
sg15
I9999
sg16
F0.539
sg17
Nsg18
Nsg19
Nsg20
F0.84165
sg21
F0.64
sg22
Nsg23
Nsg24
I0
ssg25
I01
sg26
I01
sba(iSong
Song
p1587
(dp1588
g3
(dp1589
g5
F0.0656
sg6
VBuss Head
p1590
sg8
F0.50402
sg9
F0.835
sg10
S'raggae'
p1591
sg12
F0.077
sg13
VMachel Montano
p1592
sg15
I9999
sg16
F0.738
sg17
Nsg18
Nsg19
Nsg20
F0.9125333333333334
sg21
F0.648
sg22
Nsg23
Nsg24
I0
ssg25
I01
sg26
I01
sba(iSong
Song
p1593
(dp1594
g3
(dp1595
g5
F0.213
sg6
VCome From?
p1596
sg8
F0.39004
sg9
F0.805
sg10
S'raggae'
p1597
sg12
F0.143
sg13
VErphaan Alves
p1598
sg15
I9999
sg16
F0.713
sg17
Nsg18
Nsg19
Nsg20
F0.8955333333333333
sg21
F0.814
sg22
Nsg23
Nsg24
F1.08e-06
ssg25
I01
sg26
I01
sba(iSong
Song
p1599
(dp1600
g3
(dp1601
g5
F0.0538
sg6
VNeed It
p1602
sg8
F0.49186
sg9
F0.781
sg10
S'raggae'
p1603
sg12
F0.0587
sg13
VMachel Montano
p1604
sg15
I9999
sg16
F0.82
sg17
Nsg18
Nsg19
Nsg20
F0.8985
sg21
F0.457
sg22
Nsg23
Nsg24
F2.8e-06
ssg25
I01
sg26
I01
sba(iSong
Song
p1605
(dp1606
g3
(dp1607
g5
F0.0327
sg6
VBorn To Wine
p1608
sg8
F0.404024
sg9
F0.906
sg10
S'raggae'
p1609
sg12
F0.0892
sg13
VShurwayne Winchester
p1610
sg15
I9999
sg16
F0.859
sg17
Nsg18
Nsg19
Nsg20
F0.9552833333333334
sg21
F0.618
sg22
Nsg23
Nsg24
I0
ssg25
I01
sg26
I01
sba(iSong
Song
p1611
(dp1612
g3
(dp1613
g5
F0.312
sg6
VAh Feeling
p1614
sg8
F0.507408
sg9
F0.73
sg10
S'raggae'
p1615
sg12
F0.245
sg13
VLead Pipe
p1616
sg15
I9999
sg16
F0.64
sg17
Nsg18
Nsg19
Nsg20
F0.8442500000000001
sg21
F0.926
sg22
Nsg23
Nsg24
I0
ssg25
I01
sg26
I01
sba(iSong
Song
p1617
(dp1618
g3
(dp1619
g5
F0.0365
sg6
VTurn Up
p1620
sg8
F0.500052
sg9
F0.834
sg10
S'raggae'
p1621
sg12
F0.0484
sg13
VPreedy
p1622
sg15
I9999
sg16
F0.831
sg17
Nsg18
Nsg19
Nsg20
F0.9213333333333333
sg21
F0.733
sg22
Nsg23
Nsg24
I0
ssg25
I01
sg26
I01
sba(iSong
Song
p1623
(dp1624
g3
(dp1625
g5
F0.0528
sg6
VPeople
p1626
sg8
F0.512104
sg9
F0.968
sg10
S'raggae'
p1627
sg12
F0.106
sg13
VKes
p1628
sg15
I9999
sg16
F0.703
sg17
Nsg18
Nsg19
Nsg20
F0.9462833333333334
sg21
F0.766
sg22
Nsg23
Nsg24
F3.18e-06
ssg25
I01
sg26
I01
sba(iSong
Song
p1629
(dp1630
g3
(dp1631
g5
F0.00383
sg6
VDip & Ride
p1632
sg8
F0.42004
sg9
F0.672
sg10
S'raggae'
p1633
sg12
F0.0719
sg13
VDestra Garcia
p1634
sg15
I9999
sg16
F0.945
sg17
Nsg18
Nsg19
Nsg20
F0.91
sg21
F0.164
sg22
Nsg23
Nsg24
F3.33e-05
ssg25
I01
sg26
I01
sba(iSong
Song
p1635
(dp1636
g3
(dp1637
g5
F0.161
sg6
VWhere I'm From
p1638
sg8
F0.512148
sg9
F0.799
sg10
S'raggae'
p1639
sg12
F0.0486
sg13
VOlatunji
p1640
sg15
I9999
sg16
F0.75
sg17
Nsg18
Nsg19
Nsg20
F0.90325
sg21
F0.938
sg22
Nsg23
Nsg24
I0
ssg25
I01
sg26
I01
sba(iSong
Song
p1641
(dp1642
g3
(dp1643
g5
F0.00395
sg6
VDip n' Ride
p1644
sg8
F0.42003199999999996
sg9
F0.672
sg10
S'raggae'
p1645
sg12
F0.072
sg13
VDestra Garcia
p1646
sg15
I9999
sg16
F0.945
sg17
Nsg18
Nsg19
Nsg20
F0.9099833333333334
sg21
F0.163
sg22
Nsg23
Nsg24
F3.21e-05
ssg25
I01
sg26
I01
sba(iSong
Song
p1647
(dp1648
g3
(dp1649
g5
F0.347
sg6
VFeting Victim
p1650
sg8
F0.520064
sg9
F0.854
sg10
S'raggae'
p1651
sg12
F0.0545
sg13
VLyrikal
p1652
sg15
I9999
sg16
F0.753
sg17
Nsg18
Nsg19
Nsg20
F0.8978333333333333
sg21
F0.56
sg22
Nsg23
Nsg24
I0
ssg25
I01
sg26
I01
sba(iSong
Song
p1653
(dp1654
g3
(dp1655
g5
F0.0995
sg6
VBody Talk (feat. Chris Hierro)
p1656
sg8
F0.520068
sg9
F0.932
sg10
S'raggae'
p1657
sg12
F0.059
sg13
VKes
p1658
sg15
I9999
sg16
F0.754
sg17
Nsg18
Nsg19
Nsg20
F0.91545
sg21
F0.851
sg22
Nsg23
Nsg24
F0.000419
ssg25
I01
sg26
I01
sba(iSong
Song
p1659
(dp1660
g3
(dp1661
g5
F0.161
sg6
VGo Hard
p1662
sg8
F0.520428
sg9
F0.909
sg10
S'raggae'
p1663
sg12
F0.0468
sg13
VSkinny Fabulous
p1664
sg15
I9999
sg16
F0.726
sg17
Nsg18
Nsg19
Nsg20
F0.9415
sg21
F0.894
sg22
Nsg23
Nsg24
I0
ssg25
I01
sg26
I01
sba(iSong
Song
p1665
(dp1666
g3
(dp1667
g5
F0.0213
sg6
VCalling in Sick
p1668
sg8
F0.5118
sg9
F0.92
sg10
S'raggae'
p1669
sg12
F0.0952
sg13
VKing Bubba
p1670
sg15
I9999
sg16
F0.769
sg17
Nsg18
Nsg19
Nsg20
F0.8997166666666666
sg21
F0.796
sg22
Nsg23
Nsg24
F6.87e-06
ssg25
I01
sg26
I01
sba(iSong
Song
p1671
(dp1672
g3
(dp1673
g5
F0.00497
sg6
VMoney Done (Fete Out Money)
p1674
sg8
F0.764608
sg9
F0.818
sg10
S'raggae'
p1675
sg12
F0.0676
sg13
VPatrice Roberts
p1676
sg15
I9999
sg16
F0.347
sg17
Nsg18
Nsg19
Nsg20
F0.8685333333333334
sg21
F0.756
sg22
Nsg23
Nsg24
I0
ssg25
I01
sg26
I01
sba(iSong
Song
p1677
(dp1678
g3
(dp1679
g5
F0.0243
sg6
VMagic
p1680
sg8
F0.819164
sg9
F0.707
sg10
S'raggae'
p1681
sg12
F0.326
sg13
VSekon Sta
p1682
sg15
I9999
sg16
F0.542
sg17
Nsg18
Nsg19
Nsg20
F0.9241166666666667
sg21
F0.805
sg22
Nsg23
Nsg24
F6.6e-05
ssg25
I01
sg26
I01
sba(iSong
Song
p1683
(dp1684
g3
(dp1685
g5
F0.184
sg6
VIndicator - Soca Remix
p1686
sg8
F0.385432
sg9
F0.938
sg10
S'raggae'
p1687
sg12
F0.291
sg13
VSpice
p1688
sg15
I9999
sg16
F0.678
sg17
Nsg18
Nsg19
Nsg20
F0.9090833333333334
sg21
F0.864
sg22
Nsg23
Nsg24
I0
ssg25
I01
sg26
I01
sba(iSong
Song
p1689
(dp1690
g3
(dp1691
g5
F0.0287
sg6
VMaintenance Man
p1692
sg8
F0.479588
sg9
F0.845
sg10
S'raggae'
p1693
sg12
F0.353
sg13
VStiffy
p1694
sg15
I9999
sg16
F0.899
sg17
Nsg18
Nsg19
Nsg20
F0.9019999999999999
sg21
F0.773
sg22
Nsg23
Nsg24
I0
ssg25
I01
sg26
I01
sba(iSong
Song
p1695
(dp1696
g3
(dp1697
g5
F0.0171
sg6
VBoom Boom Jump
p1698
sg8
F0.50794
sg9
F0.834
sg10
S'raggae'
p1699
sg12
F0.0945
sg13
VLil Rick
p1700
sg15
I9999
sg16
F0.944
sg17
Nsg18
Nsg19
Nsg20
F0.9248166666666666
sg21
F0.72
sg22
Nsg23
Nsg24
I0
ssg25
I01
sg26
I01
sba(iSong
Song
p1701
(dp1702
g3
(dp1703
g5
F0.22
sg6
VUnforgettable (Trinidad and Tobago Carnival Soca 2016)
p1704
sg8
F0.505132
sg9
F0.94
sg10
S'raggae'
p1705
sg12
F0.143
sg13
VKerwin Du Bois
p1706
sg15
I9999
sg16
F0.57
sg17
Nsg18
Nsg19
Nsg20
F0.9403
sg21
F0.805
sg22
Nsg23
Nsg24
I0
ssg25
I01
sg26
I01
sba(iSong
Song
p1707
(dp1708
g3
(dp1709
g5
F0.143
sg6
VCarnival Groupie
p1710
sg8
F0.520048
sg9
F0.886
sg10
S'raggae'
p1711
sg12
F0.257
sg13
VMachel Montano
p1712
sg15
I9999
sg16
F0.879
sg17
Nsg18
Nsg19
Nsg20
F0.9316
sg21
F0.85
sg22
Nsg23
Nsg24
I0
ssg25
I01
sg26
I01
sba(iSong
Song
p1713
(dp1714
g3
(dp1715
g5
F0.00746
sg6
VAll Is Rum
p1716
sg8
F0.511904
sg9
F0.809
sg10
S'raggae'
p1717
sg12
F0.115
sg13
VLil Rick
p1718
sg15
I9999
sg16
F0.957
sg17
Nsg18
Nsg19
Nsg20
F0.9228833333333333
sg21
F0.909
sg22
Nsg23
Nsg24
I0
ssg25
I01
sg26
I01
sba(iSong
Song
p1719
(dp1720
g3
(dp1721
g5
F0.0408
sg6
VDifferent Me
p1722
sg8
F0.508196
sg9
F0.954
sg10
S'raggae'
p1723
sg12
F0.0704
sg13
V5 Star Akil
p1724
sg15
I9999
sg16
F0.704
sg17
Nsg18
Nsg19
Nsg20
F0.9623
sg21
F0.903
sg22
Nsg23
Nsg24
I0
ssg25
I01
sg26
I01
sba(iSong
Song
p1725
(dp1726
g3
(dp1727
g5
F0.0641
sg6
VErupt
p1728
sg8
F0.639872
sg9
F0.955
sg10
S'raggae'
p1729
sg12
F0.21
sg13
VMachel Montano
p1730
sg15
I9999
sg16
F0.735
sg17
Nsg18
Nsg19
Nsg20
F0.9608166666666667
sg21
F0.445
sg22
Nsg23
Nsg24
I0
ssg25
I01
sg26
I01
sba(iSong
Song
p1731
(dp1732
g3
(dp1733
g5
F0.156
sg6
VPigeons & Panties
p1734
sg8
F0.479412
sg9
F0.673
sg10
S'raggae'
p1735
sg12
F0.105
sg13
VGBM Nutron
p1736
sg15
I9999
sg16
F0.837
sg17
Nsg18
Nsg19
Nsg20
F0.9129333333333333
sg21
F0.667
sg22
Nsg23
Nsg24
I0
ssg25
I01
sg26
I01
sba(iSong
Song
p1737
(dp1738
g3
(dp1739
g5
F0.03
sg6
VSeasonally
p1740
sg8
F0.500052
sg9
F0.818
sg10
S'raggae'
p1741
sg12
F0.0736
sg13
VOlatunji
p1742
sg15
I9999
sg16
F0.794
sg17
Nsg18
Nsg19
Nsg20
F0.93365
sg21
F0.627
sg22
Nsg23
Nsg24
F3.27e-05
ssg25
I01
sg26
I01
sba(iSong
Song
p1743
(dp1744
g3
(dp1745
g5
F0.0621
sg6
VDance In Paint (feat. 1st Klase)
p1746
sg8
F0.472012
sg9
F0.817
sg10
S'raggae'
p1747
sg12
F0.182
sg13
VBunji Garlin
p1748
sg15
I9999
sg16
F0.875
sg17
Nsg18
Nsg19
Nsg20
F0.9166500000000001
sg21
F0.832
sg22
Nsg23
Nsg24
F0.00158
ssg25
I01
sg26
I01
sba(iSong
Song
p1749
(dp1750
g3
(dp1751
g5
F0.0282
sg6
VBadishh
p1752
sg8
F0.439932
sg9
F0.889
sg10
S'raggae'
p1753
sg12
F0.0365
sg13
VNailah Blackman
p1754
sg15
I9999
sg16
F0.682
sg17
Nsg18
Nsg19
Nsg20
F0.9493666666666667
sg21
F0.583
sg22
Nsg23
Nsg24
F1.14e-05
ssg25
I01
sg26
I01
sba(iSong
Song
p1755
(dp1756
g3
(dp1757
g5
F0.166
sg6
VDucking
p1758
sg8
F0.748272
sg9
F0.932
sg10
S'raggae'
p1759
sg12
F0.0982
sg13
VFadda Fox
p1760
sg15
I9999
sg16
F0.445
sg17
Nsg18
Nsg19
Nsg20
F0.9155166666666666
sg21
F0.925
sg22
Nsg23
Nsg24
F0.000934
ssg25
I01
sg26
I01
sba(iSong
Song
p1761
(dp1762
g3
(dp1763
g5
F0.00275
sg6
VLike So
p1764
sg8
F0.508056
sg9
F0.946
sg10
S'raggae'
p1765
sg12
F0.0612
sg13
VAngela Hunte
p1766
sg15
I9999
sg16
F0.802
sg17
Nsg18
Nsg19
Nsg20
F0.91905
sg21
F0.71
sg22
Nsg23
Nsg24
F3.47e-06
ssg25
I01
sg26
I01
sba(iSong
Song
p1767
(dp1768
g3
(dp1769
g5
F0.659
sg6
VParty
p1770
sg8
F0.504188
sg9
F0.925
sg10
S'raggae'
p1771
sg12
F0.088
sg13
VShal Marshall
p1772
sg15
I9999
sg16
F0.834
sg17
Nsg18
Nsg19
Nsg20
F0.92745
sg21
F0.844
sg22
Nsg23
Nsg24
I0
ssg25
I01
sg26
I01
sba(iSong
Song
p1773
(dp1774
g3
(dp1775
g5
F0.027
sg6
VBam Bam Back
p1776
sg8
F0.5441520000000001
sg9
F0.92
sg10
S'raggae'
p1777
sg12
F0.0908
sg13
VHypasounds
p1778
sg15
I9999
sg16
F0.538
sg17
Nsg18
Nsg19
Nsg20
F0.9299999999999999
sg21
F0.536
sg22
Nsg23
Nsg24
F9.82e-05
ssg25
I01
sg26
I01
sba(iSong
Song
p1779
(dp1780
g3
(dp1781
g5
F0.168
sg6
VWine Yuh Body
p1782
sg8
F0.519956
sg9
F0.825
sg10
S'raggae'
p1783
sg12
F0.163
sg13
VPrecision Productions
p1784
sg15
I9999
sg16
F0.782
sg17
Nsg18
Nsg19
Nsg20
F0.8784
sg21
F0.513
sg22
Nsg23
Nsg24
I0
ssg25
I01
sg26
I01
sba(iSong
Song
p1785
(dp1786
g3
(dp1787
g5
F0.0803
sg6
VMoney Well Spent
p1788
sg8
F0.488252
sg9
F0.922
sg10
S'raggae'
p1789
sg12
F0.0436
sg13
VBiggie Irie
p1790
sg15
I9999
sg16
F0.809
sg17
Nsg18
Nsg19
Nsg20
F0.9210666666666667
sg21
F0.597
sg22
Nsg23
Nsg24
F5.08e-06
ssg25
I01
sg26
I01
sba(iSong
Song
p1791
(dp1792
g3
(dp1793
g5
F0.0833
sg6
VSick wid It
p1794
sg8
F0.479932
sg9
F0.811
sg10
S'raggae'
p1795
sg12
F0.119
sg13
VSkinny Fabulous
p1796
sg15
I9999
sg16
F0.847
sg17
Nsg18
Nsg19
Nsg20
F0.9272666666666667
sg21
F0.834
sg22
Nsg23
Nsg24
I0
ssg25
I01
sg26
I01
sba(iSong
Song
p1797
(dp1798
g3
(dp1799
g5
F0.416
sg6
VT.A.O.
p1800
sg8
F0.503856
sg9
F0.937
sg10
S'raggae'
p1801
sg12
F0.211
sg13
VGBM Nutron
p1802
sg15
I9999
sg16
F0.79
sg17
Nsg18
Nsg19
Nsg20
F0.9361166666666667
sg21
F0.872
sg22
Nsg23
Nsg24
I0
ssg25
I01
sg26
I01
sba(iSong
Song
p1803
(dp1804
g3
(dp1805
g5
F0.0108
sg6
VHow She Like It
p1806
sg8
F0.535948
sg9
F0.848
sg10
S'raggae'
p1807
sg12
F0.0606
sg13
VHypasounds
p1808
sg15
I9999
sg16
F0.799
sg17
Nsg18
Nsg19
Nsg20
F0.9297666666666667
sg21
F0.585
sg22
Nsg23
Nsg24
I0
ssg25
I01
sg26
I01
sba(iSong
Song
p1809
(dp1810
g3
(dp1811
g5
F0.105
sg6
VLike Ah Boss
p1812
sg8
F0.5358719999999999
sg9
F0.944
sg10
S'raggae'
p1813
sg12
F0.175
sg13
VMachel Montano
p1814
sg15
I9999
sg16
F0.802
sg17
Nsg18
Nsg19
Nsg20
F0.9810166666666666
sg21
F0.746
sg22
Nsg23
Nsg24
I0
ssg25
I01
sg26
I01
sba(iSong
Song
p1815
(dp1816
g3
(dp1817
g5
F0.0329
sg6
VDo Vex
p1818
sg8
F0.440124
sg9
F0.847
sg10
S'raggae'
p1819
sg12
F0.106
sg13
VLinky First
p1820
sg15
I9999
sg16
F0.831
sg17
Nsg18
Nsg19
Nsg20
F0.9203666666666667
sg21
F0.926
sg22
Nsg23
Nsg24
I0
ssg25
I01
sg26
I01
sba(iSong
Song
p1821
(dp1822
g3
(dp1823
g5
F0.135
sg6
VRunaway Love
p1824
sg8
F0.325932
sg9
F0.654
sg10
S'raggae'
p1825
sg12
F0.341
sg13
VAngela Hunte
p1826
sg15
I9999
sg16
F0.648
sg17
Nsg18
Nsg19
Nsg20
F0.9242
sg21
F0.567
sg22
Nsg23
Nsg24
I0
ssg25
I01
sg26
I01
sba(iSong
Song
p1827
(dp1828
g3
(dp1829
g5
F0.228
sg6
VBend Ya Back - Remix
p1830
sg8
F0.5128039999999999
sg9
F0.89
sg10
S'raggae'
p1831
sg12
F0.254
sg13
VMr Renzo
p1832
sg15
I9999
sg16
F0.861
sg17
Nsg18
Nsg19
Nsg20
F0.9398333333333333
sg21
F0.787
sg22
Nsg23
Nsg24
I0
ssg25
I01
sg26
I01
sba(iSong
Song
p1833
(dp1834
g3
(dp1835
g5
F0.0165
sg6
VBubble & Wine
p1836
sg8
F0.399864
sg9
F0.914
sg10
S'raggae'
p1837
sg12
F0.0852
sg13
VUltimate Rejects
p1838
sg15
I9999
sg16
F0.77
sg17
Nsg18
Nsg19
Nsg20
F0.9572333333333333
sg21
F0.665
sg22
Nsg23
Nsg24
F0.000486
ssg25
I01
sg26
I01
sba(iSong
Song
p1839
(dp1840
g3
(dp1841
g5
F0.0437
sg6
VBlessing
p1842
sg8
F0.511888
sg9
F0.932
sg10
S'raggae'
p1843
sg12
F0.0695
sg13
VLil Rick
p1844
sg15
I9999
sg16
F0.716
sg17
Nsg18
Nsg19
Nsg20
F0.9407833333333334
sg21
F0.934
sg22
Nsg23
Nsg24
I0
ssg25
I01
sg26
I01
sba(iSong
Song
p1845
(dp1846
g3
(dp1847
g5
F0.0277
sg6
VMashup (When Ah Touchdown)
p1848
sg8
F0.516088
sg9
F0.859
sg10
S'raggae'
p1849
sg12
F0.0859
sg13
VKing Bubba Fm
p1850
sg15
I9999
sg16
F0.828
sg17
Nsg18
Nsg19
Nsg20
F0.93035
sg21
F0.898
sg22
Nsg23
Nsg24
I0
ssg25
I01
sg26
I01
sba(iSong
Song
p1851
(dp1852
g3
(dp1853
g5
F0.258
sg6
VRolling
p1854
sg8
F0.476088
sg9
F0.957
sg10
S'raggae'
p1855
sg12
F0.221
sg13
VSean Paul
p1856
sg15
I9999
sg16
F0.809
sg17
Nsg18
Nsg19
Nsg20
F0.9812166666666666
sg21
F0.775
sg22
Nsg23
Nsg24
I0
ssg25
I01
sg26
I01
sba(iSong
Song
p1857
(dp1858
g3
(dp1859
g5
F0.0619
sg6
VHuman (Ti' Punch Riddim)
p1860
sg8
F0.484008
sg9
F0.89
sg10
S'raggae'
p1861
sg12
F0.106
sg13
VMachel Montano
p1862
sg15
I9999
sg16
F0.768
sg17
Nsg18
Nsg19
Nsg20
F0.9327666666666666
sg21
F0.898
sg22
Nsg23
Nsg24
I0
ssg25
I01
sg26
I01
sba(iSong
Song
p1863
(dp1864
g3
(dp1865
g5
F0.109
sg6
VCheers to Life (Trinidad and Tobago Carnival Soca 2016)
p1866
sg8
F0.50402
sg9
F0.931
sg10
S'raggae'
p1867
sg12
F0.346
sg13
VVoice
p1868
sg15
I9999
sg16
F0.614
sg17
Nsg18
Nsg19
Nsg20
F0.9542333333333333
sg21
F0.827
sg22
Nsg23
Nsg24
I0
ssg25
I01
sg26
I01
sba(iSong
Song
p1869
(dp1870
g3
(dp1871
g5
F0.0143
sg6
VScene
p1872
sg8
F0.507292
sg9
F0.717
sg10
S'raggae'
p1873
sg12
F0.128
sg13
VGBM Nutron
p1874
sg15
I9999
sg16
F0.731
sg17
Nsg18
Nsg19
Nsg20
F0.90325
sg21
F0.881
sg22
Nsg23
Nsg24
I0
ssg25
I01
sg26
I01
sba(iSong
Song
p1875
(dp1876
g3
(dp1877
g5
F0.0342
sg6
VKnow the Face (Bad Royale Remix) - Bad Royale Remix
p1878
sg8
F0.500096
sg9
F0.925
sg10
S'raggae'
p1879
sg12
F0.116
sg13
VMarvay
p1880
sg15
I9999
sg16
F0.576
sg17
Nsg18
Nsg19
Nsg20
F0.9333666666666667
sg21
F0.446
sg22
Nsg23
Nsg24
I0
ssg25
I01
sg26
I01
sba(iSong
Song
p1881
(dp1882
g3
(dp1883
g5
F0.214
sg6
VToo Real
p1884
sg8
F0.500084
sg9
F0.827
sg10
S'raggae'
p1885
sg12
F0.0574
sg13
VKerwin Du Bois
p1886
sg15
I9999
sg16
F0.882
sg17
Nsg18
Nsg19
Nsg20
F0.9311666666666666
sg21
F0.418
sg22
Nsg23
Nsg24
I0
ssg25
I01
sg26
I01
sba(iSong
Song
p1887
(dp1888
g3
(dp1889
g5
F0.119
sg6
VBlocking Up D Road
p1890
sg8
F0.431996
sg9
F0.723
sg10
S'raggae'
p1891
sg12
F0.139
sg13
VBunji Garlin
p1892
sg15
I9999
sg16
F0.896
sg17
Nsg18
Nsg19
Nsg20
F0.9435833333333333
sg21
F0.73
sg22
Nsg23
Nsg24
I0
ssg25
I01
sg26
I01
sba(iSong
Song
p1893
(dp1894
g3
(dp1895
g5
F0.0246
sg6
VParty Animal
p1896
sg8
F0.404024
sg9
F0.867
sg10
S'raggae'
p1897
sg12
F0.0497
sg13
VCharly Black
p1898
sg15
I9999
sg16
F0.721
sg17
Nsg18
Nsg19
Nsg20
F0.9347333333333334
sg21
F0.823
sg22
Nsg23
Nsg24
I0
ssg25
I01
sg26
I01
sba(iSong
Song
p1899
(dp1900
g3
(dp1901
g5
F0.0783
sg6
VWorkout
p1902
sg8
F0.520084
sg9
F0.848
sg10
S'raggae'
p1903
sg12
F0.0979
sg13
VKes
p1904
sg15
I9999
sg16
F0.808
sg17
Nsg18
Nsg19
Nsg20
F0.9080333333333334
sg21
F0.606
sg22
Nsg23
Nsg24
I0
ssg25
I01
sg26
I01
sba(iSong
Song
p1905
(dp1906
g3
(dp1907
g5
F0.0435
sg6
VMy Girl
p1908
sg8
F0.264392
sg9
F0.632
sg10
S'raggae'
p1909
sg12
F0.441
sg13
VSizzla
p1910
sg15
I9999
sg16
F0.663
sg17
Nsg18
Nsg19
Nsg20
F0.8454666666666667
sg21
F0.7
sg22
Nsg23
Nsg24
I0
ssg25
I01
sg26
I01
sba(iSong
Song
p1911
(dp1912
g3
(dp1913
g5
F0.036
sg6
VBambilambambilambilambam
p1914
sg8
F0.54
sg9
F0.935
sg10
S'raggae'
p1915
sg12
F0.0382
sg13
VFarmer Nappy
p1916
sg15
I9999
sg16
F0.708
sg17
Nsg18
Nsg19
Nsg20
F0.9182666666666667
sg21
F0.794
sg22
Nsg23
Nsg24
I0
ssg25
I01
sg26
I01
sba(iSong
Song
p1917
(dp1918
g3
(dp1919
g5
F0.0023
sg6
VI'll Be OK
p1920
sg8
F0.491944
sg9
F0.853
sg10
S'raggae'
p1921
sg12
F0.0389
sg13
VRupee
p1922
sg15
I9999
sg16
F0.737
sg17
Nsg18
Nsg19
Nsg20
F0.9198833333333333
sg21
F0.855
sg22
Nsg23
Nsg24
I0
ssg25
I01
sg26
I01
sba(iSong
Song
p1923
(dp1924
g3
(dp1925
g5
F0.0588
sg6
VKings & Queens
p1926
sg8
F0.531972
sg9
F0.898
sg10
S'raggae'
p1927
sg12
F0.0535
sg13
VSekon Sta
p1928
sg15
I9999
sg16
F0.735
sg17
Nsg18
Nsg19
Nsg20
F0.9050666666666667
sg21
F0.472
sg22
Nsg23
Nsg24
I0
ssg25
I01
sg26
I01
sba(iSong
Song
p1929
(dp1930
g3
(dp1931
g5
F0.191
sg6
VTight
p1932
sg8
F0.331204
sg9
F0.608
sg10
S'raggae'
p1933
sg12
F0.265
sg13
VQQ
p1934
sg15
I9999
sg16
F0.661
sg17
Nsg18
Nsg19
Nsg20
F0.85295
sg21
F0.736
sg22
Nsg23
Nsg24
F2.36e-05
ssg25
I01
sg26
I01
sba(iSong
Song
p1935
(dp1936
g3
(dp1937
g5
F0.0349
sg6
VOne Love
p1938
sg8
F0.30619999999999997
sg9
F0.543
sg10
S'raggae'
p1939
sg12
F0.335
sg13
VBob Marley & The Wailers
p1940
sg15
I9999
sg16
F0.715
sg17
Nsg18
Nsg19
Nsg20
F0.8532166666666666
sg21
F0.926
sg22
Nsg23
Nsg24
I0
ssg25
I01
sg26
I01
sba(iSong
Song
p1941
(dp1942
g3
(dp1943
g5
F0.00482
sg6
VI Can See Clearly Now
p1944
sg8
F0.480328
sg9
F0.662
sg10
S'raggae'
p1945
sg12
F0.0347
sg13
VJimmy Cliff
p1946
sg15
I9999
sg16
F0.799
sg17
Nsg18
Nsg19
Nsg20
F0.8569166666666667
sg21
F0.717
sg22
Nsg23
Nsg24
F0.000505
ssg25
I01
sg26
I01
sba(iSong
Song
p1947
(dp1948
g3
(dp1949
g5
F0.114
sg6
VSunday Morning
p1950
sg8
F0.471992
sg9
F0.834
sg10
S'raggae'
p1951
sg12
F0.0316
sg13
VMorgan Heritage
p1952
sg15
I9999
sg16
F0.83
sg17
Nsg18
Nsg19
Nsg20
F0.9404333333333333
sg21
F0.714
sg22
Nsg23
Nsg24
I0
ssg25
I01
sg26
I01
sba(iSong
Song
p1953
(dp1954
g3
(dp1955
g5
F0.0164
sg6
VThe Sound Of Sunshine
p1956
sg8
F0.38802800000000004
sg9
F0.902
sg10
S'raggae'
p1957
sg12
F0.0553
sg13
VMichael Franti & Spearhead
p1958
sg15
I9999
sg16
F0.673
sg17
Nsg18
Nsg19
Nsg20
F0.9185666666666666
sg21
F0.704
sg22
Nsg23
Nsg24
F0.0145
ssg25
I01
sg26
I01
sba(iSong
Song
p1959
(dp1960
g3
(dp1961
g5
F0.106
sg6
VPressure Drop
p1962
sg8
F0.5958559999999999
sg9
F0.571
sg10
S'raggae'
p1963
sg12
F0.0432
sg13
VToots & The Maytals
p1964
sg15
I9999
sg16
F0.658
sg17
Nsg18
Nsg19
Nsg20
F0.8004666666666667
sg21
F0.985
sg22
Nsg23
Nsg24
I0
ssg25
I01
sg26
I01
sba(iSong
Song
p1965
(dp1966
g3
(dp1967
g5
F0.139
sg6
VGood Cry
p1968
sg8
F0.35965199999999997
sg9
F0.772
sg10
S'raggae'
p1969
sg12
F0.272
sg13
VJ Boog
p1970
sg15
I9999
sg16
F0.81
sg17
Nsg18
Nsg19
Nsg20
F0.9251
sg21
F0.832
sg22
Nsg23
Nsg24
I0
ssg25
I01
sg26
I01
sba(iSong
Song
p1971
(dp1972
g3
(dp1973
g5
F0.0796
sg6
VTrue To Myself
p1974
sg8
F0.39607600000000004
sg9
F0.564
sg10
S'raggae'
p1975
sg12
F0.0498
sg13
VZiggy Marley
p1976
sg15
I9999
sg16
F0.88
sg17
Nsg18
Nsg19
Nsg20
F0.8928166666666667
sg21
F0.83
sg22
Nsg23
Nsg24
I0
ssg25
I01
sg26
I01
sba(iSong
Song
p1977
(dp1978
g3
(dp1979
g5
F0.00414
sg6
VRed Red Wine - Edit
p1980
sg8
F0.356476
sg9
F0.468
sg10
S'raggae'
p1981
sg12
F0.0476
sg13
VUB40
p1982
sg15
I9999
sg16
F0.857
sg17
Nsg18
Nsg19
Nsg20
F0.8578333333333333
sg21
F0.843
sg22
Nsg23
Nsg24
F1.32e-05
ssg25
I01
sg26
I01
sba(iSong
Song
p1983
(dp1984
g3
(dp1985
g5
F0.0073
sg6
VWonderful World, Beautiful People - Single Version
p1986
sg8
F0.42326400000000003
sg9
F0.491
sg10
S'raggae'
p1987
sg12
F0.0278
sg13
VJimmy Cliff
p1988
sg15
I9999
sg16
F0.781
sg17
Nsg18
Nsg19
Nsg20
F0.8120166666666667
sg21
F0.854
sg22
Nsg23
Nsg24
I0
ssg25
I01
sg26
I01
sba(iSong
Song
p1989
(dp1990
g3
(dp1991
g5
F0.0109
sg6
VThree Little Birds
p1992
sg8
F0.295848
sg9
F0.478
sg10
S'raggae'
p1993
sg12
F0.0855
sg13
VBob Marley & The Wailers
p1994
sg15
I9999
sg16
F0.781
sg17
Nsg18
Nsg19
Nsg20
F0.8243333333333334
sg21
F0.643
sg22
Nsg23
Nsg24
F1.01e-06
ssg25
I01
sg26
I01
sba(iSong
Song
p1995
(dp1996
g3
(dp1997
g5
F0.622
sg6
VI Got You
p1998
sg8
F0.392324
sg9
F0.404
sg10
S'raggae'
p1999
sg12
F0.0386
sg13
VJack Johnson
p2000
sg15
I9999
sg16
F0.898
sg17
Nsg18
Nsg19
Nsg20
F0.8909833333333333
sg21
F0.518
sg22
Nsg23
Nsg24
F1.59e-05
ssg25
I01
sg26
I01
sba(iSong
Song
p2001
(dp2002
g3
(dp2003
g5
F0.388
sg6
VIt Must Be True Love
p2004
sg8
F0.48127600000000004
sg9
F0.346
sg10
S'raggae'
p2005
sg12
F0.114
sg13
VToots & The Maytals
p2006
sg15
I9999
sg16
F0.873
sg17
Nsg18
Nsg19
Nsg20
F0.7769333333333334
sg21
F0.938
sg22
Nsg23
Nsg24
F0.0044
ssg25
I01
sg26
I01
sba(iSong
Song
p2007
(dp2008
g3
(dp2009
g5
F0.0498
sg6
VHey Now Now
p2010
sg8
F0.36013999999999996
sg9
F0.781
sg10
S'raggae'
p2011
sg12
F0.234
sg13
VMichael Franti
p2012
sg15
I9999
sg16
F0.844
sg17
Nsg18
Nsg19
Nsg20
F0.91935
sg21
F0.73
sg22
Nsg23
Nsg24
I0
ssg25
I01
sg26
I01
sba(iSong
Song
p2013
(dp2014
g3
(dp2015
g5
F0.0887
sg6
VCool Down The Pace
p2016
sg8
F0.30548000000000003
sg9
F0.266
sg10
S'raggae'
p2017
sg12
F0.264
sg13
VGregory Isaacs
p2018
sg15
I9999
sg16
F0.87
sg17
Nsg18
Nsg19
Nsg20
F0.7406833333333334
sg21
F0.929
sg22
Nsg23
Nsg24
F0.0217
ssg25
I01
sg26
I01
sba(iSong
Song
p2019
(dp2020
g3
(dp2021
g5
F0.203
sg6
VTrue Love
p2022
sg8
F0.467324
sg9
F0.408
sg10
S'raggae'
p2023
sg12
F0.0532
sg13
VSOJA
p2024
sg15
I9999
sg16
F0.86
sg17
Nsg18
Nsg19
Nsg20
F0.85265
sg21
F0.53
sg22
Nsg23
Nsg24
I0
ssg25
I01
sg26
I01
sba(iSong
Song
p2025
(dp2026
g3
(dp2027
g5
F0.248
sg6
VYou Can Get It If You Really Want
p2028
sg8
F0.512656
sg9
F0.559
sg10
S'raggae'
p2029
sg12
F0.0568
sg13
VJimmy Cliff
p2030
sg15
I9999
sg16
F0.894
sg17
Nsg18
Nsg19
Nsg20
F0.85755
sg21
F0.929
sg22
Nsg23
Nsg24
I0
ssg25
I01
sg26
I01
sba(iSong
Song
p2031
(dp2032
g3
(dp2033
g5
F0.211
sg6
VBeach In Hawaii
p2034
sg8
F0.40383600000000003
sg9
F0.458
sg10
S'raggae'
p2035
sg12
F0.0361
sg13
VZiggy Marley
p2036
sg15
I9999
sg16
F0.807
sg17
Nsg18
Nsg19
Nsg20
F0.8401
sg21
F0.874
sg22
Nsg23
Nsg24
F9.01e-06
ssg25
I01
sg26
I01
sba(iSong
Song
p2037
(dp2038
g3
(dp2039
g5
F0.344
sg6
VLove I
p2040
sg8
F0.53208
sg9
F0.47
sg10
S'raggae'
p2041
sg12
F0.084
sg13
VThe Green
p2042
sg15
I9999
sg16
F0.856
sg17
Nsg18
Nsg19
Nsg20
F0.8588833333333333
sg21
F0.929
sg22
Nsg23
Nsg24
I0
ssg25
I01
sg26
I01
sba(iSong
Song
p2043
(dp2044
g3
(dp2045
g5
F0.0736
sg6
VDawn of Time
p2046
sg8
F0.615768
sg9
F0.565
sg10
S'raggae'
p2047
sg12
F0.0553
sg13
VTribal Seeds
p2048
sg15
I9999
sg16
F0.701
sg17
Nsg18
Nsg19
Nsg20
F0.8215166666666666
sg21
F0.899
sg22
Nsg23
Nsg24
F0.000504
ssg25
I01
sg26
I01
sba(iSong
Song
p2049
(dp2050
g3
(dp2051
g5
F0.128
sg6
VJamming
p2052
sg8
F0.49472000000000005
sg9
F0.479
sg10
S'raggae'
p2053
sg12
F0.282
sg13
VBob Marley & The Wailers
p2054
sg15
I9999
sg16
F0.939
sg17
Nsg18
Nsg19
Nsg20
F0.8169
sg21
F0.723
sg22
Nsg23
Nsg24
F2.65e-05
ssg25
I01
sg26
I01
sba(iSong
Song
p2055
(dp2056
g3
(dp2057
g5
F0.649
sg6
VMe Gustas Tu
p2058
sg8
F0.704132
sg9
F0.734
sg10
S'raggae'
p2059
sg12
F0.075
sg13
VManu Chao
p2060
sg15
I9999
sg16
F0.657
sg17
Nsg18
Nsg19
Nsg20
F0.8863833333333333
sg21
F0.914
sg22
Nsg23
Nsg24
F0.299
ssg25
I01
sg26
I01
sba(iSong
Song
p2061
(dp2062
g3
(dp2063
g5
F0.0113
sg6
VIron Lion Zion
p2064
sg8
F0.5695439999999999
sg9
F0.598
sg10
S'raggae'
p2065
sg12
F0.0403
sg13
VBob Marley & The Wailers
p2066
sg15
I9999
sg16
F0.715
sg17
Nsg18
Nsg19
Nsg20
F0.8681333333333333
sg21
F0.779
sg22
Nsg23
Nsg24
F0.00058
ssg25
I01
sg26
I01
sba(iSong
Song
p2067
(dp2068
g3
(dp2069
g5
F0.00729
sg6
VEvery Breath You Take
p2070
sg8
F0.39996
sg9
F0.789
sg10
S'raggae'
p2071
sg12
F0.0394
sg13
VUB40
p2072
sg15
I9999
sg16
F0.779
sg17
Nsg18
Nsg19
Nsg20
F0.9203333333333333
sg21
F0.655
sg22
Nsg23
Nsg24
F0.00118
ssg25
I01
sg26
I01
sba(iSong
Song
p2073
(dp2074
g3
(dp2075
g5
F0.0117
sg6
VPut a Little Love
p2076
sg8
F0.311464
sg9
F0.651
sg10
S'raggae'
p2077
sg12
F0.0705
sg13
VNatural Vibrations
p2078
sg15
I9999
sg16
F0.731
sg17
Nsg18
Nsg19
Nsg20
F0.8540833333333333
sg21
F0.615
sg22
Nsg23
Nsg24
I0
ssg25
I01
sg26
I01
sba(iSong
Song
p2079
(dp2080
g3
(dp2081
g5
F0.449
sg6
VTake Me Home, Country Roads
p2082
sg8
F0.700976
sg9
F0.436
sg10
S'raggae'
p2083
sg12
F0.146
sg13
VToots & The Maytals
p2084
sg15
I9999
sg16
F0.609
sg17
Nsg18
Nsg19
Nsg20
F0.8001666666666666
sg21
F0.921
sg22
Nsg23
Nsg24
F0.00677
ssg25
I01
sg26
I01
sba(iSong
Song
p2085
(dp2086
g3
(dp2087
g5
F0.116
sg6
VYou Can Get It If You Really Want
p2088
sg8
F0.510936
sg9
F0.505
sg10
S'raggae'
p2089
sg12
F0.0438
sg13
VDesmond Dekker
p2090
sg15
I9999
sg16
F0.836
sg17
Nsg18
Nsg19
Nsg20
F0.8504833333333333
sg21
F0.828
sg22
Nsg23
Nsg24
I0
ssg25
I01
sg26
I01
sba(iSong
Song
p2091
(dp2092
g3
(dp2093
g5
F0.497
sg6
VOne Good Spliff
p2094
sg8
F0.431928
sg9
F0.464
sg10
S'raggae'
p2095
sg12
F0.142
sg13
VZiggy Marley & The Melody Makers
p2096
sg15
I9999
sg16
F0.617
sg17
Nsg18
Nsg19
Nsg20
F0.8013666666666667
sg21
F0.613
sg22
Nsg23
Nsg24
F7.08e-06
ssg25
I01
sg26
I01
sba(iSong
Song
p2097
(dp2098
g3
(dp2099
g5
F0.0649
sg6
VI Am That I Am
p2100
sg8
F0.5841280000000001
sg9
F0.481
sg10
S'raggae'
p2101
sg12
F0.124
sg13
VPeter Tosh
p2102
sg15
I9999
sg16
F0.791
sg17
Nsg18
Nsg19
Nsg20
F0.8435
sg21
F0.926
sg22
Nsg23
Nsg24
F1.47e-06
ssg25
I01
sg26
I01
sba(iSong
Song
p2103
(dp2104
g3
(dp2105
g5
F0.271
sg6
VFunky Kingston
p2106
sg8
F0.39877999999999997
sg9
F0.512
sg10
S'raggae'
p2107
sg12
F0.0572
sg13
VToots & The Maytals
p2108
sg15
I9999
sg16
F0.763
sg17
Nsg18
Nsg19
Nsg20
F0.8436166666666668
sg21
F0.962
sg22
Nsg23
Nsg24
F0.000846
ssg25
I01
sg26
I01
sba(iSong
Song
p2109
(dp2110
g3
(dp2111
g5
F0.788
sg6
VYoung and Able
p2112
sg8
F0.57686
sg9
F0.504
sg10
S'raggae'
p2113
sg12
F0.0383
sg13
VCurrent Swell
p2114
sg15
I9999
sg16
F0.671
sg17
Nsg18
Nsg19
Nsg20
F0.81955
sg21
F0.671
sg22
Nsg23
Nsg24
I0
ssg25
I01
sg26
I01
sba(iSong
Song
p2115
(dp2116
g3
(dp2117
g5
F0.7
sg6
VLa Mar
p2118
sg8
F0.684832
sg9
F0.118
sg10
S'raggae'
p2119
sg12
F0.106
sg13
VThe Beautiful Girls
p2120
sg15
I9999
sg16
F0.569
sg17
Nsg18
Nsg19
Nsg20
F0.6844666666666667
sg21
F0.463
sg22
Nsg23
Nsg24
F6.21e-05
ssg25
I01
sg26
I01
sba(iSong
Song
p2121
(dp2122
g3
(dp2123
g5
F0.0172
sg6
VWhat I Got
p2124
sg8
F0.382372
sg9
F0.706
sg10
S'raggae'
p2125
sg12
F0.101
sg13
VSublime
p2126
sg15
I9999
sg16
F0.795
sg17
Nsg18
Nsg19
Nsg20
F0.8751
sg21
F0.623
sg22
Nsg23
Nsg24
F0.000384
ssg25
I01
sg26
I01
sba(iSong
Song
p2127
(dp2128
g3
(dp2129
g5
F0.125
sg6
VTake You For A Ride
p2130
sg8
F0.360072
sg9
F0.81
sg10
S'raggae'
p2131
sg12
F0.0417
sg13
VKoauka
p2132
sg15
I9999
sg16
F0.759
sg17
Nsg18
Nsg19
Nsg20
F0.8795
sg21
F0.937
sg22
Nsg23
Nsg24
F0.0211
ssg25
I01
sg26
I01
sba(iSong
Song
p2133
(dp2134
g3
(dp2135
g5
F0.389
sg6
VI'll Be All Yours
p2136
sg8
F0.31414800000000004
sg9
F0.643
sg10
S'raggae'
p2137
sg12
F0.0882
sg13
VFiji
p2138
sg15
I9999
sg16
F0.519
sg17
Nsg18
Nsg19
Nsg20
F0.8910666666666667
sg21
F0.726
sg22
Nsg23
Nsg24
I0
ssg25
I01
sg26
I01
sba(iSong
Song
p2139
(dp2140
g3
(dp2141
g5
F0.328
sg6
VStand Tall
p2142
sg8
F0.632544
sg9
F0.796
sg10
S'raggae'
p2143
sg12
F0.123
sg13
VDirty Heads
p2144
sg15
I9999
sg16
F0.765
sg17
Nsg18
Nsg19
Nsg20
F0.9206166666666667
sg21
F0.837
sg22
Nsg23
Nsg24
I0
ssg25
I01
sg26
I01
sba(iSong
Song
p2145
(dp2146
g3
(dp2147
g5
F0.000728
sg6
VOrdinary Girl
p2148
sg8
F0.30870800000000004
sg9
F0.669
sg10
S'raggae'
p2149
sg12
F0.0669
sg13
VRebelution
p2150
sg15
I9999
sg16
F0.786
sg17
Nsg18
Nsg19
Nsg20
F0.8621166666666668
sg21
F0.832
sg22
Nsg23
Nsg24
I0
ssg25
I01
sg26
I01
sba(iSong
Song
p2151
(dp2152
g3
(dp2153
g5
F0.0313
sg6
VBreak Us Apart
p2154
sg8
F0.48847199999999996
sg9
F0.613
sg10
S'raggae'
p2155
sg12
F0.26
sg13
VStephen Marley
p2156
sg15
I9999
sg16
F0.863
sg17
Nsg18
Nsg19
Nsg20
F0.9023833333333333
sg21
F0.712
sg22
Nsg23
Nsg24
I0
ssg25
I01
sg26
I01
sba(iSong
Song
p2157
(dp2158
g3
(dp2159
g5
F0.194
sg6
VLove Is My Religion
p2160
sg8
F0.382164
sg9
F0.704
sg10
S'raggae'
p2161
sg12
F0.05
sg13
VZiggy Marley
p2162
sg15
I9999
sg16
F0.832
sg17
Nsg18
Nsg19
Nsg20
F0.8836499999999999
sg21
F0.773
sg22
Nsg23
Nsg24
I0
ssg25
I01
sg26
I01
sba(iSong
Song
p2163
(dp2164
g3
(dp2165
g5
F0.324
sg6
VI Shot The Sheriff
p2166
sg8
F0.38766
sg9
F0.648
sg10
S'raggae'
p2167
sg12
F0.176
sg13
VThe Wailers
p2168
sg15
I9999
sg16
F0.799
sg17
Nsg18
Nsg19
Nsg20
F0.8472166666666666
sg21
F0.675
sg22
Nsg23
Nsg24
F6.8e-05
ssg25
I01
sg26
I01
sba(iSong
Song
p2169
(dp2170
g3
(dp2171
g5
F0.275
sg6
VTrenchtown Rock
p2172
sg8
F0.29817200000000005
sg9
F0.453
sg10
S'raggae'
p2173
sg12
F0.536
sg13
VBob Marley & The Wailers
p2174
sg15
I9999
sg16
F0.798
sg17
Nsg18
Nsg19
Nsg20
F0.8003833333333332
sg21
F0.785
sg22
Nsg23
Nsg24
F5.28e-06
ssg25
I01
sg26
I01
sba(iSong
Song
p2175
(dp2176
g3
(dp2177
g5
F0.0311
sg6
VI Don't Wanna Wait
p2178
sg8
F0.50416
sg9
F0.549
sg10
S'raggae'
p2179
sg12
F0.0377
sg13
VSOJA
p2180
sg15
I9999
sg16
F0.804
sg17
Nsg18
Nsg19
Nsg20
F0.9142166666666667
sg21
F0.591
sg22
Nsg23
Nsg24
F1.5e-05
ssg25
I01
sg26
I01
sba(iSong
Song
p2181
(dp2182
g3
(dp2183
g5
F0.0736
sg6
VDawn of Time
p2184
sg8
F0.615768
sg9
F0.565
sg10
S'raggae'
p2185
sg12
F0.0553
sg13
VTribal Seeds
p2186
sg15
I9999
sg16
F0.701
sg17
Nsg18
Nsg19
Nsg20
F0.8215166666666666
sg21
F0.899
sg22
Nsg23
Nsg24
F0.000504
ssg25
I01
sg26
I01
sba(iSong
Song
p2187
(dp2188
g3
(dp2189
g5
F0.232
sg6
VRoller Skates
p2190
sg8
F0.314756
sg9
F0.575
sg10
S'raggae'
p2191
sg12
F0.238
sg13
VSteel Pulse
p2192
sg15
I9999
sg16
F0.833
sg17
Nsg18
Nsg19
Nsg20
F0.8443166666666666
sg21
F0.807
sg22
Nsg23
Nsg24
I0
ssg25
I01
sg26
I01
sba(iSong
Song
p2193
(dp2194
g3
(dp2195
g5
F0.475
sg6
VHills And Valleys
p2196
sg8
F0.5767920000000001
sg9
F0.55
sg10
S'raggae'
p2197
sg12
F0.201
sg13
VBuju Banton
p2198
sg15
I9999
sg16
F0.699
sg17
Nsg18
Nsg19
Nsg20
F0.8573500000000001
sg21
F0.773
sg22
Nsg23
Nsg24
I0
ssg25
I01
sg26
I01
sba(iSong
Song
p2199
(dp2200
g3
(dp2201
g5
F0.381
sg6
VWanted Dread and Alive - 2002 Remastered Version
p2202
sg8
F0.384644
sg9
F0.731
sg10
S'raggae'
p2203
sg12
F0.0529
sg13
VPeter Tosh
p2204
sg15
I9999
sg16
F0.795
sg17
Nsg18
Nsg19
Nsg20
F0.8990666666666667
sg21
F0.884
sg22
Nsg23
Nsg24
F0.00163
ssg25
I01
sg26
I01
sba(iSong
Song
p2205
(dp2206
g3
(dp2207
g5
F0.134
sg6
VMe Name Jr. Gong
p2208
sg8
F0.50182
sg9
F0.656
sg10
S'raggae'
p2209
sg12
F0.0788
sg13
VDamian Marley
p2210
sg15
I9999
sg16
F0.812
sg17
Nsg18
Nsg19
Nsg20
F0.9149666666666666
sg21
F0.903
sg22
Nsg23
Nsg24
I0
ssg25
I01
sg26
I01
sba(iSong
Song
p2211
(dp2212
g3
(dp2213
g5
F0.228
sg6
VThis Joint
p2214
sg8
F0.3
sg9
F0.709
sg10
S'raggae'
p2215
sg12
F0.108
sg13
VSlightly Stoopid
p2216
sg15
I9999
sg16
F0.778
sg17
Nsg18
Nsg19
Nsg20
F0.9048999999999999
sg21
F0.96
sg22
Nsg23
Nsg24
F0.00116
ssg25
I01
sg26
I01
sba(iSong
Song
p2217
(dp2218
g3
(dp2219
g5
F0.0241
sg6
VYouths Dem Cold
p2220
sg8
F0.32448
sg9
F0.697
sg10
S'raggae'
p2221
sg12
F0.348
sg13
VRichie Spice
p2222
sg15
I9999
sg16
F0.635
sg17
Nsg18
Nsg19
Nsg20
F0.89795
sg21
F0.826
sg22
Nsg23
Nsg24
I0
ssg25
I01
sg26
I01
sba(iSong
Song
p2223
(dp2224
g3
(dp2225
g5
F0.0552
sg6
VThree Little Birds - 12" Mix (Dub Version)
p2226
sg8
F0.2973
sg9
F0.604
sg10
S'raggae'
p2227
sg12
F0.0829
sg13
VBob Marley & The Wailers
p2228
sg15
I9999
sg16
F0.79
sg17
Nsg18
Nsg19
Nsg20
F0.8526
sg21
F0.744
sg22
Nsg23
Nsg24
F9.48e-05
ssg25
I01
sg26
I01
sba(iSong
Song
p2229
(dp2230
g3
(dp2231
g5
F0.225
sg6
VSet Sail
p2232
sg8
F0.384988
sg9
F0.651
sg10
S'raggae'
p2233
sg12
F0.05
sg13
VThe Movement
p2234
sg15
I9999
sg16
F0.746
sg17
Nsg18
Nsg19
Nsg20
F0.9022
sg21
F0.741
sg22
Nsg23
Nsg24
I0
ssg25
I01
sg26
I01
sba(iSong
Song
p2235
(dp2236
g3
(dp2237
g5
F0.289
sg6
VYoung Girl
p2238
sg8
F0.580072
sg9
F0.333
sg10
S'raggae'
p2239
sg12
F0.232
sg13
VDon Carlos
p2240
sg15
I9999
sg16
F0.839
sg17
Nsg18
Nsg19
Nsg20
F0.7645166666666667
sg21
F0.791
sg22
Nsg23
Nsg24
I0
ssg25
I01
sg26
I01
sba(iSong
Song
p2241
(dp2242
g3
(dp2243
g5
F0.196
sg6
VAfrican Teacher
p2244
sg8
F0.313428
sg9
F0.517
sg10
S'raggae'
p2245
sg12
F0.0606
sg13
VBurning Spear
p2246
sg15
I9999
sg16
F0.777
sg17
Nsg18
Nsg19
Nsg20
F0.8227833333333334
sg21
F0.96
sg22
Nsg23
Nsg24
F0.298
ssg25
I01
sg26
I01
sba(iSong
Song
p2247
(dp2248
g3
(dp2249
g5
F0.0182
sg6
VGhost Man
p2250
sg8
F0.41174400000000005
sg9
F0.668
sg10
S'raggae'
p2251
sg12
F0.0579
sg13
VPassafire
p2252
sg15
I9999
sg16
F0.678
sg17
Nsg18
Nsg19
Nsg20
F0.9124
sg21
F0.784
sg22
Nsg23
Nsg24
I0
ssg25
I01
sg26
I01
sba(iSong
Song
p2253
(dp2254
g3
(dp2255
g5
F0.099
sg6
VLiving In Love
p2256
sg8
F0.306788
sg9
F0.843
sg10
S'raggae'
p2257
sg12
F0.199
sg13
VI Wayne
p2258
sg15
I9999
sg16
F0.789
sg17
Nsg18
Nsg19
Nsg20
F0.9249166666666666
sg21
F0.961
sg22
Nsg23
Nsg24
I0
ssg25
I01
sg26
I01
sba(iSong
Song
p2259
(dp2260
g3
(dp2261
g5
F0.0366
sg6
VRasta Should Be Deeper
p2262
sg8
F0.28954
sg9
F0.803
sg10
S'raggae'
p2263
sg12
F0.0617
sg13
VJunior Kelly
p2264
sg15
I9999
sg16
F0.734
sg17
Nsg18
Nsg19
Nsg20
F0.9032
sg21
F0.776
sg22
Nsg23
Nsg24
I0
ssg25
I01
sg26
I01
sba(iSong
Song
p2265
(dp2266
g3
(dp2267
g5
F0.224
sg6
VWhen mi rise it
p2268
sg8
F0.311076
sg9
F0.783
sg10
S'raggae'
p2269
sg12
F0.215
sg13
VLutan Fyah
p2270
sg15
I9999
sg16
F0.693
sg17
Nsg18
Nsg19
Nsg20
F0.93345
sg21
F0.774
sg22
Nsg23
Nsg24
I0
ssg25
I01
sg26
I01
sba(iSong
Song
p2271
(dp2272
g3
(dp2273
g5
F0.0347
sg6
VStrange Things
p2274
sg8
F0.32827999999999996
sg9
F0.411
sg10
S'raggae'
p2275
sg12
F0.119
sg13
VJohn Holt
p2276
sg15
I9999
sg16
F0.792
sg17
Nsg18
Nsg19
Nsg20
F0.8462333333333334
sg21
F0.467
sg22
Nsg23
Nsg24
F1.72e-06
ssg25
I01
sg26
I01
sba(iSong
Song
p2277
(dp2278
g3
(dp2279
g5
F0.424
sg6
VKing Of Kings
p2280
sg8
F0.60024
sg9
F0.61
sg10
S'raggae'
p2281
sg12
F0.0778
sg13
VElijah Prophet
p2282
sg15
I9999
sg16
F0.741
sg17
Nsg18
Nsg19
Nsg20
F0.8955833333333333
sg21
F0.951
sg22
Nsg23
Nsg24
I0
ssg25
I01
sg26
I01
sba(iSong
Song
p2283
(dp2284
g3
(dp2285
g5
F0.362
sg6
VMy Confession
p2286
sg8
F0.546424
sg9
F0.367
sg10
S'raggae'
p2287
sg12
F0.0621
sg13
VCornell Campbell
p2288
sg15
I9999
sg16
F0.797
sg17
Nsg18
Nsg19
Nsg20
F0.81145
sg21
F0.7
sg22
Nsg23
Nsg24
F0.463
ssg25
I01
sg26
I01
sba(iSong
Song
p2289
(dp2290
g3
(dp2291
g5
F0.0111
sg6
VWorld A Music
p2292
sg8
F0.296332
sg9
F0.492
sg10
S'raggae'
p2293
sg12
F0.139
sg13
VIni Kamoze
p2294
sg15
I9999
sg16
F0.874
sg17
Nsg18
Nsg19
Nsg20
F0.8707999999999999
sg21
F0.357
sg22
Nsg23
Nsg24
F0.00801
ssg25
I01
sg26
I01
sba(iSong
Song
p2295
(dp2296
g3
(dp2297
g5
F0.365
sg6
VUnto Zion
p2298
sg8
F0.5513920000000001
sg9
F0.5
sg10
S'raggae'
p2299
sg12
F0.349
sg13
VRas Shiloh
p2300
sg15
I9999
sg16
F0.608
sg17
Nsg18
Nsg19
Nsg20
F0.8627833333333332
sg21
F0.595
sg22
Nsg23
Nsg24
I0
ssg25
I01
sg26
I01
sba(iSong
Song
p2301
(dp2302
g3
(dp2303
g5
F0.651
sg6
VIntoxication
p2304
sg8
F0.335552
sg9
F0.652
sg10
S'raggae'
p2305
sg12
F0.263
sg13
VGentleman
p2306
sg15
I9999
sg16
F0.646
sg17
Nsg18
Nsg19
Nsg20
F0.89925
sg21
F0.659
sg22
Nsg23
Nsg24
I0
ssg25
I01
sg26
I01
sba(iSong
Song
p2307
(dp2308
g3
(dp2309
g5
F0.217
sg6
VRastafari Anthem
p2310
sg8
F0.306624
sg9
F0.69
sg10
S'raggae'
p2311
sg12
F0.395
sg13
VAlborosie
p2312
sg15
I9999
sg16
F0.666
sg17
Nsg18
Nsg19
Nsg20
F0.9066
sg21
F0.768
sg22
Nsg23
Nsg24
I0
ssg25
I01
sg26
I01
sba(iSong
Song
p2313
(dp2314
g3
(dp2315
g5
F0.078
sg6
VHello (Reggae Cover)
p2316
sg8
F0.315972
sg9
F0.535
sg10
S'raggae'
p2317
sg12
F0.0441
sg13
VConkarah
p2318
sg15
I9999
sg16
F0.759
sg17
Nsg18
Nsg19
Nsg20
F0.8428166666666667
sg21
F0.46
sg22
Nsg23
Nsg24
F0.0121
ssg25
I01
sg26
I01
sba(iSong
Song
p2319
(dp2320
g3
(dp2321
g5
F0.0056
sg6
VLost (feat. M)
p2322
sg8
F0.559712
sg9
F0.794
sg10
S'raggae'
p2323
sg12
F0.0286
sg13
VMajor Lazer
p2324
sg15
I9999
sg16
F0.675
sg17
Nsg18
Nsg19
Nsg20
F0.91565
sg21
F0.847
sg22
Nsg23
Nsg24
F0.00212
ssg25
I01
sg26
I01
sba(iSong
Song
p2325
(dp2326
g3
(dp2327
g5
F0.0477
sg6
VSomebody That I Used to Know
p2328
sg8
F0.512096
sg9
F0.47
sg10
S'raggae'
p2329
sg12
F0.0497
sg13
VFreedom Dub
p2330
sg15
I9999
sg16
F0.832
sg17
Nsg18
Nsg19
Nsg20
F0.8402333333333334
sg21
F0.735
sg22
Nsg23
Nsg24
F0.0135
ssg25
I01
sg26
I01
sba(iSong
Song
p2331
(dp2332
g3
(dp2333
g5
F0.154
sg6
VThinking Out Loud (Reggae Version)
p2334
sg8
F0.680196
sg9
F0.693
sg10
S'raggae'
p2335
sg12
F0.0606
sg13
VBrother Strut
p2336
sg15
I9999
sg16
F0.605
sg17
Nsg18
Nsg19
Nsg20
F0.9058666666666667
sg21
F0.796
sg22
Nsg23
Nsg24
F3.87e-06
ssg25
I01
sg26
I01
sba(iSong
Song
p2337
(dp2338
g3
(dp2339
g5
F0.00314
sg6
VLocked out of Heaven
p2340
sg8
F0.5599400000000001
sg9
F0.666
sg10
S'raggae'
p2341
sg12
F0.0373
sg13
VGeneral Soundbwoy
p2342
sg15
I9999
sg16
F0.656
sg17
Nsg18
Nsg19
Nsg20
F0.8885166666666666
sg21
F0.781
sg22
Nsg23
Nsg24
F4.78e-05
ssg25
I01
sg26
I01
sba(iSong
Song
p2343
(dp2344
g3
(dp2345
g5
F0.0461
sg6
VShow Me
p2346
sg8
F0.311956
sg9
F0.706
sg10
S'raggae'
p2347
sg12
F0.0535
sg13
VBruno Mars
p2348
sg15
I9999
sg16
F0.743
sg17
Nsg18
Nsg19
Nsg20
F0.9045333333333333
sg21
F0.514
sg22
Nsg23
Nsg24
I0
ssg25
I01
sg26
I01
sba(iSong
Song
p2349
(dp2350
g3
(dp2351
g5
F0.575
sg6
VI Don't Wanna Waste
p2352
sg8
F0.3762
sg9
F0.71
sg10
S'raggae'
p2353
sg12
F0.224
sg13
VBen L'Oncle Soul
p2354
sg15
I9999
sg16
F0.778
sg17
Nsg18
Nsg19
Nsg20
F0.8669333333333333
sg21
F0.784
sg22
Nsg23
Nsg24
F0.133
ssg25
I01
sg26
I01
sba(iSong
Song
p2355
(dp2356
g3
(dp2357
g5
F0.023
sg6
VStanding on the Sun Remix
p2358
sg8
F0.783824
sg9
F0.808
sg10
S'raggae'
p2359
sg12
F0.176
sg13
VBeyonc
p2360
sg15
I9999
sg16
F0.354
sg17
Nsg18
Nsg19
Nsg20
F0.8920499999999999
sg21
F0.397
sg22
Nsg23
Nsg24
F2.42e-05
ssg25
I01
sg26
I01
sba(iSong
Song
p2361
(dp2362
g3
(dp2363
g5
F0.115
sg6
VTake Me Over
p2364
sg8
F0.326988
sg9
F0.882
sg10
S'raggae'
p2365
sg12
F0.0391
sg13
VStephanie McKay
p2366
sg15
I9999
sg16
F0.577
sg17
Nsg18
Nsg19
Nsg20
F0.9309666666666666
sg21
F0.786
sg22
Nsg23
Nsg24
F3.45e-05
ssg25
I01
sg26
I01
sba(iSong
Song
p2367
(dp2368
g3
(dp2369
g5
F0.0125
sg6
VCan't Be My Lover - Curtis Lynch Remix
p2370
sg8
F0.319884
sg9
F0.651
sg10
S'raggae'
p2371
sg12
F0.238
sg13
VJohn Legend
p2372
sg15
I9999
sg16
F0.622
sg17
Nsg18
Nsg19
Nsg20
F0.9356500000000001
sg21
F0.743
sg22
Nsg23
Nsg24
I0
ssg25
I01
sg26
I01
sba(iSong
Song
p2373
(dp2374
g3
(dp2375
g5
F0.0404
sg6
VCan't Tek No More
p2376
sg8
F0.560024
sg9
F0.803
sg10
S'raggae'
p2377
sg12
F0.0435
sg13
VDizzee Rascal
p2378
sg15
I9999
sg16
F0.75
sg17
Nsg18
Nsg19
Nsg20
F0.94325
sg21
F0.696
sg22
Nsg23
Nsg24
I0
ssg25
I01
sg26
I01
sba(iSong
Song
p2379
(dp2380
g3
(dp2381
g5
F0.000364
sg6
VHere I Go Again
p2382
sg8
F0.330012
sg9
F0.614
sg10
S'raggae'
p2383
sg12
F0.117
sg13
VRihanna
p2384
sg15
I9999
sg16
F0.505
sg17
Nsg18
Nsg19
Nsg20
F0.9010833333333333
sg21
F0.644
sg22
Nsg23
Nsg24
F0.00158
ssg25
I01
sg26
I01
sba(iSong
Song
p2385
(dp2386
g3
(dp2387
g5
F0.275
sg6
VMonkey Man
p2388
sg8
F0.5861000000000001
sg9
F0.845
sg10
S'raggae'
p2389
sg12
F0.078
sg13
VAmy Winehouse
p2390
sg15
I9999
sg16
F0.614
sg17
Nsg18
Nsg19
Nsg20
F0.9527666666666667
sg21
F0.918
sg22
Nsg23
Nsg24
I0
ssg25
I01
sg26
I01
sba(iSong
Song
p2391
(dp2392
g3
(dp2393
g5
F0.0626
sg6
VWith Ur Love - Teka & SoulForce Reggae Remix
p2394
sg8
F0.68044
sg9
F0.78
sg10
S'raggae'
p2395
sg12
F0.0539
sg13
VCher Lloyd
p2396
sg15
I9999
sg16
F0.527
sg17
Nsg18
Nsg19
Nsg20
F0.9397833333333333
sg21
F0.518
sg22
Nsg23
Nsg24
I0
ssg25
I01
sg26
I01
sba(iSong
Song
p2397
(dp2398
g3
(dp2399
g5
F0.595
sg6
VI'm Yours
p2400
sg8
F0.603812
sg9
F0.457
sg10
S'raggae'
p2401
sg12
F0.0468
sg13
VJason Mraz
p2402
sg15
I9999
sg16
F0.686
sg17
Nsg18
Nsg19
Nsg20
F0.8613
sg21
F0.718
sg22
Nsg23
Nsg24
I0
ssg25
I01
sg26
I01
sba(iSong
Song
p2403
(dp2404
g3
(dp2405
g5
F0.306
sg6
VRunning Away - Winta James Mix
p2406
sg8
F0.599904
sg9
F0.584
sg10
S'raggae'
p2407
sg12
F0.0331
sg13
VAdy Suleiman
p2408
sg15
I9999
sg16
F0.669
sg17
Nsg18
Nsg19
Nsg20
F0.9002
sg21
F0.949
sg22
Nsg23
Nsg24
F0.0325
ssg25
I01
sg26
I01
sba(iSong
Song
p2409
(dp2410
g3
(dp2411
g5
F0.0496
sg6
VNice Things
p2412
sg8
F0.351888
sg9
F0.614
sg10
S'raggae'
p2413
sg12
F0.211
sg13
VMarlon Roudette
p2414
sg15
I9999
sg16
F0.643
sg17
Nsg18
Nsg19
Nsg20
F0.8859666666666667
sg21
F0.61
sg22
Nsg23
Nsg24
I0
ssg25
I01
sg26
I01
sba(iSong
Song
p2415
(dp2416
g3
(dp2417
g5
F0.0422
sg6
VOur Day Will Come
p2418
sg8
F0.39202800000000004
sg9
F0.633
sg10
S'raggae'
p2419
sg12
F0.0289
sg13
VAmy Winehouse
p2420
sg15
I9999
sg16
F0.696
sg17
Nsg18
Nsg19
Nsg20
F0.8995666666666667
sg21
F0.697
sg22
Nsg23
Nsg24
F4.74e-05
ssg25
I01
sg26
I01
sba(iSong
Song
p2421
(dp2422
g3
(dp2423
g5
F0.000146
sg6
VWake Me Up - Reggae Mix
p2424
sg8
F0.372
sg9
F0.762
sg10
S'raggae'
p2425
sg12
F0.0296
sg13
VAvicii
p2426
sg15
I9999
sg16
F0.607
sg17
Nsg18
Nsg19
Nsg20
F0.87825
sg21
F0.386
sg22
Nsg23
Nsg24
F0.052
ssg25
I01
sg26
I01
sba(iSong
Song
p2427
(dp2428
g3
(dp2429
g5
F0.199
sg6
VCheerleader
p2430
sg8
F0.400032
sg9
F0.719
sg10
S'raggae'
p2431
sg12
F0.031
sg13
VOMI
p2432
sg15
I9999
sg16
F0.864
sg17
Nsg18
Nsg19
Nsg20
F0.9158833333333334
sg21
F0.943
sg22
Nsg23
Nsg24
I0
ssg25
I01
sg26
I01
sba(iSong
Song
p2433
(dp2434
g3
(dp2435
g5
F0.304
sg6
VAnimal - Mark Ronson Remix
p2436
sg8
F0.467224
sg9
F0.808
sg10
S'raggae'
p2437
sg12
F0.0414
sg13
VMiike Snow
p2438
sg15
I9999
sg16
F0.833
sg17
Nsg18
Nsg19
Nsg20
F0.9196000000000001
sg21
F0.961
sg22
Nsg23
Nsg24
F0.00918
ssg25
I01
sg26
I01
sba(iSong
Song
p2439
(dp2440
g3
(dp2441
g5
F0.21
sg6
VLess Is More
p2442
sg8
F0.315424
sg9
F0.682
sg10
S'raggae'
p2443
sg12
F0.135
sg13
VJoss Stone
p2444
sg15
I9999
sg16
F0.627
sg17
Nsg18
Nsg19
Nsg20
F0.9052
sg21
F0.69
sg22
Nsg23
Nsg24
I0
ssg25
I01
sg26
I01
sba(iSong
Song
p2445
(dp2446
g3
(dp2447
g5
F0.0161
sg6
VHumanity (Love the Way It Should Be)
p2448
sg8
F0.52124
sg9
F0.643
sg10
S'raggae'
p2449
sg12
F0.0307
sg13
VJohn Legend
p2450
sg15
I9999
sg16
F0.46
sg17
Nsg18
Nsg19
Nsg20
F0.92805
sg21
F0.506
sg22
Nsg23
Nsg24
F0.00675
ssg25
I01
sg26
I01
sba(iSong
Song
p2451
(dp2452
g3
(dp2453
g5
F0.0423
sg6
VRude
p2454
sg8
F0.5761280000000001
sg9
F0.756
sg10
S'raggae'
p2455
sg12
F0.0389
sg13
VMAGIC!
p2456
sg15
I9999
sg16
F0.774
sg17
Nsg18
Nsg19
Nsg20
F0.9167500000000001
sg21
F0.931
sg22
Nsg23
Nsg24
I0
ssg25
I01
sg26
I01
sba(iSong
Song
p2457
(dp2458
g3
(dp2459
g5
F0.0614
sg6
VEverybody
p2460
sg8
F0.299892
sg9
F0.676
sg10
S'raggae'
p2461
sg12
F0.194
sg13
VAnthony Hamilton
p2462
sg15
I9999
sg16
F0.64
sg17
Nsg18
Nsg19
Nsg20
F0.8896499999999999
sg21
F0.792
sg22
Nsg23
Nsg24
I0
ssg25
I01
sg26
I01
sba(iSong
Song
p2463
(dp2464
g3
(dp2465
g5
F0.00835
sg6
VSimplify (feat. Scratch Professer) - Rootickal Re Twist
p2466
sg8
F0.3361
sg9
F0.868
sg10
S'raggae'
p2467
sg12
F0.308
sg13
VOmar
p2468
sg15
I9999
sg16
F0.667
sg17
Nsg18
Nsg19
Nsg20
F0.9063666666666667
sg21
F0.67
sg22
Nsg23
Nsg24
F0.00328
ssg25
I01
sg26
I01
sba(iSong
Song
p2469
(dp2470
g3
(dp2471
g5
F0.0224
sg6
VUnapologetic Bitch
p2472
sg8
F0.300076
sg9
F0.777
sg10
S'raggae'
p2473
sg12
F0.204
sg13
VMadonna
p2474
sg15
I9999
sg16
F0.76
sg17
Nsg18
Nsg19
Nsg20
F0.91955
sg21
F0.821
sg22
Nsg23
Nsg24
F0.000106
ssg25
I01
sg26
I01
sba(iSong
Song
p2475
(dp2476
g3
(dp2477
g5
F0.154
sg6
VCome Over (feat. Stylo G)
p2478
sg8
F0.39987599999999995
sg9
F0.782
sg10
S'raggae'
p2479
sg12
F0.0564
sg13
VClean Bandit
p2480
sg15
I9999
sg16
F0.809
sg17
Nsg18
Nsg19
Nsg20
F0.90625
sg21
F0.669
sg22
Nsg23
Nsg24
F5.64e-06
ssg25
I01
sg26
I01
sba(iSong
Song
p2481
(dp2482
g3
(dp2483
g5
F0.0975
sg6
VHere I Am - Come And Take Me
p2484
sg8
F0.383624
sg9
F0.621
sg10
S'raggae'
p2485
sg12
F0.0377
sg13
VUB40
p2486
sg15
I9999
sg16
F0.802
sg17
Nsg18
Nsg19
Nsg20
F0.8678
sg21
F0.81
sg22
Nsg23
Nsg24
F0.0256
ssg25
I01
sg26
I01
sba(iSong
Song
p2487
(dp2488
g3
(dp2489
g5
F0.00444
sg6
VAll That She Wants
p2490
sg8
F0.375092
sg9
F0.641
sg10
S'raggae'
p2491
sg12
F0.0565
sg13
VAce of Base
p2492
sg15
I9999
sg16
F0.801
sg17
Nsg18
Nsg19
Nsg20
F0.8483833333333333
sg21
F0.829
sg22
Nsg23
Nsg24
F3.54e-05
ssg25
I01
sg26
I01
sba(iSong
Song
p2493
(dp2494
g3
(dp2495
g5
F0.117
sg6
VKnow Who You Are
p2496
sg8
F0.729212
sg9
F0.495
sg10
S'raggae'
p2497
sg12
F0.182
sg13
VPharrell Williams
p2498
sg15
I9999
sg16
F0.644
sg17
Nsg18
Nsg19
Nsg20
F0.8816333333333333
sg21
F0.747
sg22
Nsg23
Nsg24
F6.15e-06
ssg25
I01
sg26
I01
sba(iSong
Song
p2499
(dp2500
g3
(dp2501
g5
F0.0583
sg6
VPiece Of Me - Sly and Robbie Reggae Remix
p2502
sg8
F0.45988799999999996
sg9
F0.706
sg10
S'raggae'
p2503
sg12
F0.0385
sg13
VBritney Spears
p2504
sg15
I9999
sg16
F0.896
sg17
Nsg18
Nsg19
Nsg20
F0.9121666666666667
sg21
F0.94
sg22
Nsg23
Nsg24
F2.03e-06
ssg25
I01
sg26
I01
sba(iSong
Song
p2505
(dp2506
g3
(dp2507
g5
F0.911
sg6
VFire
p2508
sg8
F0.490004
sg9
F0.175
sg10
S'raggae'
p2509
sg12
F0.0846
sg13
VJake Bugg
p2510
sg15
I9999
sg16
F0.673
sg17
Nsg18
Nsg19
Nsg20
F0.8119
sg21
F0.358
sg22
Nsg23
Nsg24
I0
ssg25
I01
sg26
I01
sba(iSong
Song
p2511
(dp2512
g3
(dp2513
g5
F0.0147
sg6
VNo One (Curtis Lynch Reggae Remix)
p2514
sg8
F0.35996
sg9
F0.631
sg10
S'raggae'
p2515
sg12
F0.0299
sg13
VAlicia Keys
p2516
sg15
I9999
sg16
F0.636
sg17
Nsg18
Nsg19
Nsg20
F0.9254
sg21
F0.561
sg22
Nsg23
Nsg24
I0
ssg25
I01
sg26
I01
sba(iSong
Song
p2517
(dp2518
g3
(dp2519
g5
F0.0731
sg6
VMr Loverman
p2520
sg8
F0.690432
sg9
F0.622
sg10
S'raggae'
p2521
sg12
F0.147
sg13
VShabba Ranks
p2522
sg15
I9999
sg16
F0.673
sg17
Nsg18
Nsg19
Nsg20
F0.8101
sg21
F0.81
sg22
Nsg23
Nsg24
F1.58e-06
ssg25
I01
sg26
I01
sba(iSong
Song
p2523
(dp2524
g3
(dp2525
g5
F0.129
sg6
VAngel
p2526
sg8
F0.341116
sg9
F0.759
sg10
S'raggae'
p2527
sg12
F0.0905
sg13
VShaggy
p2528
sg15
I9999
sg16
F0.806
sg17
Nsg18
Nsg19
Nsg20
F0.9509833333333333
sg21
F0.785
sg22
Nsg23
Nsg24
I0
ssg25
I01
sg26
I01
sba(iSong
Song
p2529
(dp2530
g3
(dp2531
g5
F0.104
sg6
VYou Girl (feat. Ne-Yo)
p2532
sg8
F0.316584
sg9
F0.652
sg10
S'raggae'
p2533
sg12
F0.117
sg13
VShaggy
p2534
sg15
I9999
sg16
F0.769
sg17
Nsg18
Nsg19
Nsg20
F0.9151666666666666
sg21
F0.923
sg22
Nsg23
Nsg24
I0
ssg25
I01
sg26
I01
sba(iSong
Song
p2535
(dp2536
g3
(dp2537
g5
F0.0142
sg6
VLDN
p2538
sg8
F0.400092
sg9
F0.607
sg10
S'raggae'
p2539
sg12
F0.027
sg13
VLily Allen
p2540
sg15
I9999
sg16
F0.673
sg17
Nsg18
Nsg19
Nsg20
F0.8721333333333334
sg21
F0.898
sg22
Nsg23
Nsg24
F4.15e-06
ssg25
I01
sg26
I01
sba(iSong
Song
p2541
(dp2542
g3
(dp2543
g5
F0.0223
sg6
VSanteria
p2544
sg8
F0.36142399999999997
sg9
F0.772
sg10
S'raggae'
p2545
sg12
F0.0427
sg13
VSublime
p2546
sg15
I9999
sg16
F0.673
sg17
Nsg18
Nsg19
Nsg20
F0.9125666666666666
sg21
F0.585
sg22
Nsg23
Nsg24
F1.23e-06
ssg25
I01
sg26
I01
sba(iSong
Song
p2547
(dp2548
g3
(dp2549
g5
F0.0713
sg6
VEasy To Love
p2550
sg8
F0.303964
sg9
F0.81
sg10
S'raggae'
p2551
sg12
F0.0602
sg13
VMaxi Priest
p2552
sg15
I9999
sg16
F0.588
sg17
Nsg18
Nsg19
Nsg20
F0.8851666666666667
sg21
F0.8
sg22
Nsg23
Nsg24
I0
ssg25
I01
sg26
I01
sba(iSong
Song
p2553
(dp2554
g3
(dp2555
g5
F0.121
sg6
VNo Coke - 7" Mix
p2556
sg8
F0.386356
sg9
F0.695
sg10
S'raggae'
p2557
sg12
F0.153
sg13
VDr. Alban
p2558
sg15
I9999
sg16
F0.847
sg17
Nsg18
Nsg19
Nsg20
F0.8515166666666667
sg21
F0.645
sg22
Nsg23
Nsg24
I0
ssg25
I01
sg26
I01
sba(iSong
Song
p2559
(dp2560
g3
(dp2561
g5
F0.0628
sg6
VLike A Champion
p2562
sg8
F0.359568
sg9
F0.899
sg10
S'raggae'
p2563
sg12
F0.162
sg13
VSelena Gomez
p2564
sg15
I9999
sg16
F0.451
sg17
Nsg18
Nsg19
Nsg20
F0.9316333333333333
sg21
F0.932
sg22
Nsg23
Nsg24
I0
ssg25
I01
sg26
I01
sba(iSong
Song
p2565
(dp2566
g3
(dp2567
g5
F0.00208
sg6
VIt Don't Make Any Difference To Me (feat. Wyclef Jean) - Supa Dupes Remix
p2568
sg8
F0.354016
sg9
F0.664
sg10
S'raggae'
p2569
sg12
F0.0388
sg13
VKevin Michael
p2570
sg15
I9999
sg16
F0.726
sg17
Nsg18
Nsg19
Nsg20
F0.8893166666666666
sg21
F0.387
sg22
Nsg23
Nsg24
I0
ssg25
I01
sg26
I01
sba(iSong
Song
p2571
(dp2572
g3
(dp2573
g5
F0.122
sg6
VCan't Remember to Forget You
p2574
sg8
F0.5518719999999999
sg9
F0.81
sg10
S'raggae'
p2575
sg12
F0.0661
sg13
VShakira
p2576
sg15
I9999
sg16
F0.694
sg17
Nsg18
Nsg19
Nsg20
F0.9407333333333334
sg21
F0.824
sg22
Nsg23
Nsg24
I0
ssg25
I01
sg26
I01
sba(iSong
Song
p2577
(dp2578
g3
(dp2579
g5
F0.117
sg6
VCalling (feat. Topher)
p2580
sg8
F0.6393840000000001
sg9
F0.736
sg10
S'raggae'
p2581
sg12
F0.126
sg13
VBellita Carol
p2582
sg15
I9999
sg16
F0.756
sg17
Nsg18
Nsg19
Nsg20
F0.9312833333333334
sg21
F0.779
sg22
Nsg23
Nsg24
F1.88e-06
ssg25
I01
sg26
I01
sba(iSong
Song
p2583
(dp2584
g3
(dp2585
g5
F1.43e-05
sg6
VBig Hoops (Bigger The Better) - Dancehall Remix
p2586
sg8
F0.7119880000000001
sg9
F0.58
sg10
S'raggae'
p2587
sg12
F0.0474
sg13
VNelly Furtado
p2588
sg15
I9999
sg16
F0.656
sg17
Nsg18
Nsg19
Nsg20
F0.9188166666666666
sg21
F0.268
sg22
Nsg23
Nsg24
F0.489
ssg25
I01
sg26
I01
sba(iSong
Song
p2589
(dp2590
g3
(dp2591
g5
F0.244
sg6
VMilk & Honey
p2592
sg8
F0.311864
sg9
F0.682
sg10
S'raggae'
p2593
sg12
F0.178
sg13
VHollie Cook
p2594
sg15
I9999
sg16
F0.752
sg17
Nsg18
Nsg19
Nsg20
F0.8762500000000001
sg21
F0.778
sg22
Nsg23
Nsg24
F0.00173
ssg25
I01
sg26
I01
sba(iSong
Song
p2595
(dp2596
g3
(dp2597
g5
F0.0405
sg6
VTurn Me On
p2598
sg8
F0.425116
sg9
F0.682
sg10
S'raggae'
p2599
sg12
F0.0361
sg13
VKevin Lyttle
p2600
sg15
I9999
sg16
F0.677
sg17
Nsg18
Nsg19
Nsg20
F0.8853500000000001
sg21
F0.875
sg22
Nsg23
Nsg24
I0
ssg25
I01
sg26
I01
sba(iSong
Song
p2601
(dp2602
g3
(dp2603
g5
F0.137
sg6
VMolly Town
p2604
sg8
F0.33596
sg9
F0.578
sg10
S'raggae'
p2605
sg12
F0.105
sg13
VJoss Stone
p2606
sg15
I9999
sg16
F0.792
sg17
Nsg18
Nsg19
Nsg20
F0.9057
sg21
F0.805
sg22
Nsg23
Nsg24
F4.22e-05
ssg25
I01
sg26
I01
sba(iSong
Song
p2607
(dp2608
g3
(dp2609
g5
F0.00338
sg6
VWatching The Wheels
p2610
sg8
F0.3323
sg9
F0.635
sg10
S'raggae'
p2611
sg12
F0.0369
sg13
VMatisyahu
p2612
sg15
I9999
sg16
F0.701
sg17
Nsg18
Nsg19
Nsg20
F0.8794166666666666
sg21
F0.684
sg22
Nsg23
Nsg24
F0.000155
ssg25
I01
sg26
I01
sba(iSong
Song
p2613
(dp2614
g3
(dp2615
g5
F0.198
sg6
VOne Day - New Album Version
p2616
sg8
F0.274208
sg9
F0.61
sg10
S'raggae'
p2617
sg12
F0.15
sg13
VMatisyahu
p2618
sg15
I9999
sg16
F0.346
sg17
Nsg18
Nsg19
Nsg20
F0.9030333333333334
sg21
F0.235
sg22
Nsg23
Nsg24
I0
ssg25
I01
sg26
I01
sba(iSong
Song
p2619
(dp2620
g3
(dp2621
g5
F0.469
sg6
VBackslider
p2622
sg8
F0.7724439999999999
sg9
F0.541
sg10
S'raggae'
p2623
sg12
F0.102
sg13
VWild Belle
p2624
sg15
I9999
sg16
F0.578
sg17
Nsg18
Nsg19
Nsg20
F0.8524166666666666
sg21
F0.739
sg22
Nsg23
Nsg24
F0.0153
ssg25
I01
sg26
I01
sba(iSong
Song
p2625
(dp2626
g3
(dp2627
g5
F0.0231
sg6
VDust and Dirt
p2628
sg8
F0.3232
sg9
F0.508
sg10
S'raggae'
p2629
sg12
F0.0313
sg13
VThe Black Seeds
p2630
sg15
I9999
sg16
F0.723
sg17
Nsg18
Nsg19
Nsg20
F0.8632333333333333
sg21
F0.748
sg22
Nsg23
Nsg24
F0.0923
ssg25
I01
sg26
I01
sba(iSong
Song
p2631
(dp2632
g3
(dp2633
g5
F0.000858
sg6
VThe Prophet
p2634
sg8
F0.351964
sg9
F0.73
sg10
S'raggae'
p2635
sg12
F0.0307
sg13
VSlightly Stoopid
p2636
sg15
I9999
sg16
F0.641
sg17
Nsg18
Nsg19
Nsg20
F0.8853833333333333
sg21
F0.34
sg22
Nsg23
Nsg24
F0.122
ssg25
I01
sg26
I01
sba(iSong
Song
p2637
(dp2638
g3
(dp2639
g5
F0.1
sg6
VStepping Out (feat. David Hinds)
p2640
sg8
F0.307984
sg9
F0.829
sg10
S'raggae'
p2641
sg12
F0.0793
sg13
VAlborosie
p2642
sg15
I9999
sg16
F0.847
sg17
Nsg18
Nsg19
Nsg20
F0.9248333333333334
sg21
F0.964
sg22
Nsg23
Nsg24
I0
ssg25
I01
sg26
I01
sba(iSong
Song
p2643
(dp2644
g3
(dp2645
g5
F0.0623
sg6
VF**k Around (All Night)
p2646
sg8
F0.608116
sg9
F0.893
sg10
S'raggae'
p2647
sg12
F0.0605
sg13
VPepper
p2648
sg15
I9999
sg16
F0.585
sg17
Nsg18
Nsg19
Nsg20
F0.9092833333333333
sg21
F0.764
sg22
Nsg23
Nsg24
I0
ssg25
I01
sg26
I01
sba(iSong
Song
p2649
(dp2650
g3
(dp2651
g5
F0.0479
sg6
VHow Do You Want to Be Remembered
p2652
sg8
F0.3221
sg9
F0.567
sg10
S'raggae'
p2653
sg12
F0.0652
sg13
VMAGIC!
p2654
sg15
I9999
sg16
F0.52
sg17
Nsg18
Nsg19
Nsg20
F0.8502666666666666
sg21
F0.529
sg22
Nsg23
Nsg24
F1.61e-06
ssg25
I01
sg26
I01
sba(iSong
Song
p2655
(dp2656
g3
(dp2657
g5
F0.325
sg6
VLead The Way
p2658
sg8
F0.701012
sg9
F0.802
sg10
S'raggae'
p2659
sg12
F0.358
sg13
VKabaka Pyramid
p2660
sg15
I9999
sg16
F0.548
sg17
Nsg18
Nsg19
Nsg20
F0.9201833333333334
sg21
F0.928
sg22
Nsg23
Nsg24
I0
ssg25
I01
sg26
I01
sba(iSong
Song
p2661
(dp2662
g3
(dp2663
g5
F0.0467
sg6
VDrifting Along - Remastered
p2664
sg8
F0.38468
sg9
F0.545
sg10
S'raggae'
p2665
sg12
F0.0483
sg13
VJamiroquai
p2666
sg15
I9999
sg16
F0.777
sg17
Nsg18
Nsg19
Nsg20
F0.8734833333333333
sg21
F0.77
sg22
Nsg23
Nsg24
F0.73
ssg25
I01
sg26
I01
sba(iSong
Song
p2667
(dp2668
g3
(dp2669
g5
F0.0224
sg6
VGunship Politico
p2670
sg8
F0.374056
sg9
F0.74
sg10
S'raggae'
p2671
sg12
F0.0492
sg13
VState Radio
p2672
sg15
I9999
sg16
F0.55
sg17
Nsg18
Nsg19
Nsg20
F0.8922
sg21
F0.617
sg22
Nsg23
Nsg24
F6.89e-06
ssg25
I01
sg26
I01
sba(iSong
Song
p2673
(dp2674
g3
(dp2675
g5
F0.00747
sg6
VSunshine
p2676
sg8
F0.40011599999999997
sg9
F0.769
sg10
S'raggae'
p2677
sg12
F0.0626
sg13
VMatisyahu
p2678
sg15
I9999
sg16
F0.697
sg17
Nsg18
Nsg19
Nsg20
F0.9381333333333333
sg21
F0.822
sg22
Nsg23
Nsg24
I0
ssg25
I01
sg26
I01
sba(iSong
Song
p2679
(dp2680
g3
(dp2681
g5
F0.529
sg6
VBlack Roses
p2682
sg8
F0.33582799999999996
sg9
F0.323
sg10
S'raggae'
p2683
sg12
F0.0369
sg13
VBarrington Levy
p2684
sg15
I9999
sg16
F0.55
sg17
Nsg18
Nsg19
Nsg20
F0.8372666666666667
sg21
F0.586
sg22
Nsg23
Nsg24
I0
ssg25
I01
sg26
I01
sba(iSong
Song
p2685
(dp2686
g3
(dp2687
g5
F0.113
sg6
VCome Let Go
p2688
sg8
F0.5603680000000001
sg9
F0.542
sg10
S'raggae'
p2689
sg12
F0.0478
sg13
VXavier Rudd
p2690
sg15
I9999
sg16
F0.543
sg17
Nsg18
Nsg19
Nsg20
F0.85585
sg21
F0.261
sg22
Nsg23
Nsg24
F0.0512
ssg25
I01
sg26
I01
sba(iSong
Song
p2691
(dp2692
g3
(dp2693
g5
F0.0627
sg6
VWalk Away
p2694
sg8
F0.419932
sg9
F0.718
sg10
S'raggae'
p2695
sg12
F0.0392
sg13
VBallyhoo!
p2696
sg15
I9999
sg16
F0.745
sg17
Nsg18
Nsg19
Nsg20
F0.8882166666666667
sg21
F0.852
sg22
Nsg23
Nsg24
I0
ssg25
I01
sg26
I01
sba(iSong
Song
p2697
(dp2698
g3
(dp2699
g5
F0.0266
sg6
VSound Of Change
p2700
sg8
F0.389564
sg9
F0.788
sg10
S'raggae'
p2701
sg12
F0.077
sg13
VDirty Heads
p2702
sg15
I9999
sg16
F0.608
sg17
Nsg18
Nsg19
Nsg20
F0.9121333333333334
sg21
F0.309
sg22
Nsg23
Nsg24
I0
ssg25
I01
sg26
I01
sba(iSong
Song
p2703
(dp2704
g3
(dp2705
g5
F0.0571
sg6
VStone Love
p2706
sg8
F0.314984
sg9
F0.478
sg10
S'raggae'
p2707
sg12
F0.0627
sg13
VPepper
p2708
sg15
I9999
sg16
F0.837
sg17
Nsg18
Nsg19
Nsg20
F0.9023166666666668
sg21
F0.81
sg22
Nsg23
Nsg24
F0.00129
ssg25
I01
sg26
I01
sba(iSong
Song
p2709
(dp2710
g3
(dp2711
g5
F0.0389
sg6
VFeeling Alright
p2712
sg8
F0.536948
sg9
F0.578
sg10
S'raggae'
p2713
sg12
F0.0645
sg13
VRebelution
p2714
sg15
I9999
sg16
F0.839
sg17
Nsg18
Nsg19
Nsg20
F0.8599833333333334
sg21
F0.642
sg22
Nsg23
Nsg24
I0
ssg25
I01
sg26
I01
sba(iSong
Song
p2715
(dp2716
g3
(dp2717
g5
F0.258
sg6
VI Want You
p2718
sg8
F0.316076
sg9
F0.437
sg10
S'raggae'
p2719
sg12
F0.0323
sg13
VTaken By Trees
p2720
sg15
I9999
sg16
F0.696
sg17
Nsg18
Nsg19
Nsg20
F0.8214166666666666
sg21
F0.606
sg22
Nsg23
Nsg24
F0.045
ssg25
I01
sg26
I01
sba(iSong
Song
p2721
(dp2722
g3
(dp2723
g5
F0.11
sg6
VLighthouse
p2724
sg8
F0.6639120000000001
sg9
F0.658
sg10
S'raggae'
p2725
sg12
F0.0311
sg13
VZiggy Marley
p2726
sg15
I9999
sg16
F0.532
sg17
Nsg18
Nsg19
Nsg20
F0.8730833333333333
sg21
F0.569
sg22
Nsg23
Nsg24
F0.00918
ssg25
I01
sg26
I01
sba(iSong
Song
p2727
(dp2728
g3
(dp2729
g5
F0.00808
sg6
VDancehall Days
p2730
sg8
F0.64808
sg9
F0.743
sg10
S'raggae'
p2731
sg12
F0.0525
sg13
VThe Beautiful Girls
p2732
sg15
I9999
sg16
F0.746
sg17
Nsg18
Nsg19
Nsg20
F0.8485333333333334
sg21
F0.87
sg22
Nsg23
Nsg24
F0.0315
ssg25
I01
sg26
I01
sba(iSong
Song
p2733
(dp2734
g3
(dp2735
g5
F0.166
sg6
VCollie Herb Man - Joost Langveld & Roger Perry Reactor Dub
p2736
sg8
F0.592088
sg9
F0.838
sg10
S'raggae'
p2737
sg12
F0.0592
sg13
VKatchafire
p2738
sg15
I9999
sg16
F0.874
sg17
Nsg18
Nsg19
Nsg20
F0.9217833333333334
sg21
F0.973
sg22
Nsg23
Nsg24
F0.499
ssg25
I01
sg26
I01
sba(iSong
Song
p2739
(dp2740
g3
(dp2741
g5
F0.132
sg6
V10:10
p2742
sg8
F0.711828
sg9
F0.766
sg10
S'raggae'
p2743
sg12
F0.0968
sg13
VThe Beautiful Girls
p2744
sg15
I9999
sg16
F0.589
sg17
Nsg18
Nsg19
Nsg20
F0.9129333333333333
sg21
F0.826
sg22
Nsg23
Nsg24
F5.04e-06
ssg25
I01
sg26
I01
sba(iSong
Song
p2745
(dp2746
g3
(dp2747
g5
F0.0643
sg6
VWarrior People
p2748
sg8
F0.63976
sg9
F0.911
sg10
S'raggae'
p2749
sg12
F0.0563
sg13
VNahko and Medicine for the People
p2750
sg15
I9999
sg16
F0.7
sg17
Nsg18
Nsg19
Nsg20
F0.9179833333333334
sg21
F0.853
sg22
Nsg23
Nsg24
I0
ssg25
I01
sg26
I01
sba(iSong
Song
p2751
(dp2752
g3
(dp2753
g5
F0.104
sg6
VNo Way No
p2754
sg8
F0.615912
sg9
F0.733
sg10
S'raggae'
p2755
sg12
F0.0513
sg13
VMAGIC!
p2756
sg15
I9999
sg16
F0.743
sg17
Nsg18
Nsg19
Nsg20
F0.9136166666666666
sg21
F0.807
sg22
Nsg23
Nsg24
F1.05e-05
ssg25
I01
sg26
I01
sba(iSong
Song
p2757
(dp2758
g3
(dp2759
g5
F0.0162
sg6
VSoundwaves (feat. Eric Rachmany of Rebelution)
p2760
sg8
F0.308032
sg9
F0.587
sg10
S'raggae'
p2761
sg12
F0.0395
sg13
VTribal Seeds
p2762
sg15
I9999
sg16
F0.714
sg17
Nsg18
Nsg19
Nsg20
F0.8854666666666666
sg21
F0.628
sg22
Nsg23
Nsg24
I0
ssg25
I01
sg26
I01
sba(iSong
Song
p2763
(dp2764
g3
(dp2765
g5
F0.557
sg6
VI&I
p2766
sg8
F0.5118
sg9
F0.786
sg10
S'raggae'
p2767
sg12
F0.0452
sg13
VProtoje
p2768
sg15
I9999
sg16
F0.772
sg17
Nsg18
Nsg19
Nsg20
F0.9018333333333334
sg21
F0.802
sg22
Nsg23
Nsg24
F2.6e-06
ssg25
I01
sg26
I01
sba(iSong
Song
p2769
(dp2770
g3
(dp2771
g5
F0.0109
sg6
VDance All Night
p2772
sg8
F0.324036
sg9
F0.767
sg10
S'raggae'
p2773
sg12
F0.0435
sg13
VDirty Heads
p2774
sg15
I9999
sg16
F0.706
sg17
Nsg18
Nsg19
Nsg20
F0.9133666666666667
sg21
F0.879
sg22
Nsg23
Nsg24
F1.35e-06
ssg25
I01
sg26
I01
sba(iSong
Song
p2775
(dp2776
g3
(dp2777
g5
F0.649
sg6
VEver
p2778
sg8
F0.5333479999999999
sg9
F0.41
sg10
S'raggae'
p2779
sg12
F0.0963
sg13
V\u05d4\u05d1\u05e0\u05d5\u05ea \u05e0\u05d7\u05de\u05d4
p2780
sg15
I9999
sg16
F0.602
sg17
Nsg18
Nsg19
Nsg20
F0.8744333333333334
sg21
F0.717
sg22
Nsg23
Nsg24
I0
ssg25
I01
sg26
I01
sba(iSong
Song
p2781
(dp2782
g3
(dp2783
g5
F0.257
sg6
ViLove
p2784
sg8
F0.519868
sg9
F0.523
sg10
S'raggae'
p2785
sg12
F0.0377
sg13
VShanique Marie
p2786
sg15
I9999
sg16
F0.751
sg17
Nsg18
Nsg19
Nsg20
F0.8952333333333333
sg21
F0.628
sg22
Nsg23
Nsg24
I0
ssg25
I01
sg26
I01
sba(iSong
Song
p2787
(dp2788
g3
(dp2789
g5
F0.249
sg6
VBlessings (feat. Brandon Hucks & Alex Winchester)
p2790
sg8
F0.503408
sg9
F0.696
sg10
S'raggae'
p2791
sg12
F0.0316
sg13
VTreeHouse!
p2792
sg15
I9999
sg16
F0.545
sg17
Nsg18
Nsg19
Nsg20
F0.9135333333333333
sg21
F0.674
sg22
Nsg23
Nsg24
I0
ssg25
I01
sg26
I01
sba(iSong
Song
p2793
(dp2794
g3
(dp2795
g5
F0.0333
sg6
VRun Come
p2796
sg8
F0.30785199999999996
sg9
F0.689
sg10
S'raggae'
p2797
sg12
F0.262
sg13
VAlborosie
p2798
sg15
I9999
sg16
F0.789
sg17
Nsg18
Nsg19
Nsg20
F0.8772166666666668
sg21
F0.677
sg22
Nsg23
Nsg24
I0
ssg25
I01
sg26
I01
sba(iSong
Song
p2799
(dp2800
g3
(dp2801
g5
F0.59
sg6
VGroovin' Slowly
p2802
sg8
F0.5191319999999999
sg9
F0.512
sg10
S'raggae'
p2803
sg12
F0.0902
sg13
VJohn Butler Trio
p2804
sg15
I9999
sg16
F0.763
sg17
Nsg18
Nsg19
Nsg20
F0.89725
sg21
F0.502
sg22
Nsg23
Nsg24
F2.85e-06
ssg25
I01
sg26
I01
sba(iSong
Song
p2805
(dp2806
g3
(dp2807
g5
F0.0293
sg6
VFade 2 Black
p2808
sg8
F0.42038400000000004
sg9
F0.721
sg10
S'raggae'
p2809
sg12
F0.313
sg13
VCherine Anderson
p2810
sg15
I9999
sg16
F0.721
sg17
Nsg18
Nsg19
Nsg20
F0.8731666666666666
sg21
F0.495
sg22
Nsg23
Nsg24
I0
ssg25
I01
sg26
I01
sba(iSong
Song
p2811
(dp2812
g3
(dp2813
g5
F0.0406
sg6
VKeep You
p2814
sg8
F0.535892
sg9
F0.893
sg10
S'raggae'
p2815
sg12
F0.0475
sg13
VWild Belle
p2816
sg15
I9999
sg16
F0.64
sg17
Nsg18
Nsg19
Nsg20
F0.9034166666666666
sg21
F0.919
sg22
Nsg23
Nsg24
F0.00738
ssg25
I01
sg26
I01
sba(iSong
Song
p2817
(dp2818
g3
(dp2819
g5
F0.0111
sg6
VBorn In Babylon
p2820
sg8
F0.535804
sg9
F0.576
sg10
S'raggae'
p2821
sg12
F0.0302
sg13
VSOJA
p2822
sg15
I9999
sg16
F0.731
sg17
Nsg18
Nsg19
Nsg20
F0.8693166666666666
sg21
F0.724
sg22
Nsg23
Nsg24
F0.000235
ssg25
I01
sg26
I01
sba(iSong
Song
p2823
(dp2824
g3
(dp2825
g5
F0.35
sg6
VSuperior
p2826
sg8
F0.609392
sg9
F0.756
sg10
S'raggae'
p2827
sg12
F0.112
sg13
VGentleman
p2828
sg15
I9999
sg16
F0.67
sg17
Nsg18
Nsg19
Nsg20
F0.9073166666666667
sg21
F0.972
sg22
Nsg23
Nsg24
I0
ssg25
I01
sg26
I01
sba(iSong
Song
p2829
(dp2830
g3
(dp2831
g5
F0.336
sg6
VNo Capitalist
p2832
sg8
F0.34760800000000003
sg9
F0.727
sg10
S'raggae'
p2833
sg12
F0.226
sg13
VKabaka Pyramid
p2834
sg15
I9999
sg16
F0.639
sg17
Nsg18
Nsg19
Nsg20
F0.9246333333333333
sg21
F0.666
sg22
Nsg23
Nsg24
I0
ssg25
I01
sg26
I01
sba(iSong
Song
p2835
(dp2836
g3
(dp2837
g5
F0.372
sg6
VBrutal Hearts
p2838
sg8
F0.4719
sg9
F0.501
sg10
S'raggae'
p2839
sg12
F0.0422
sg13
VBedouin Soundclash
p2840
sg15
I9999
sg16
F0.898
sg17
Nsg18
Nsg19
Nsg20
F0.88
sg21
F0.527
sg22
Nsg23
Nsg24
F0.00863
ssg25
I01
sg26
I01
sba(iSong
Song
p2841
(dp2842
g3
(dp2843
g5
F0.0117
sg6
VPut a Little Love
p2844
sg8
F0.311464
sg9
F0.651
sg10
S'raggae'
p2845
sg12
F0.0705
sg13
VNatural Vibrations
p2846
sg15
I9999
sg16
F0.731
sg17
Nsg18
Nsg19
Nsg20
F0.8540833333333333
sg21
F0.615
sg22
Nsg23
Nsg24
I0
ssg25
I01
sg26
I01
sba(iSong
Song
p2847
(dp2848
g3
(dp2849
g5
F0.171
sg6
VRooted (feat. Irie Love)
p2850
sg8
F0.5360159999999999
sg9
F0.599
sg10
S'raggae'
p2851
sg12
F0.0468
sg13
VKimie'
p2852
sg15
I9999
sg16
F0.909
sg17
Nsg18
Nsg19
Nsg20
F0.8658833333333333
sg21
F0.914
sg22
Nsg23
Nsg24
I0
ssg25
I01
sg26
I01
sba(iSong
Song
p2853
(dp2854
g3
(dp2855
g5
F0.107
sg6
VNecta (Butterfly)
p2856
sg8
F0.576472
sg9
F0.528
sg10
S'raggae'
p2857
sg12
F0.0862
sg13
VSashamon
p2858
sg15
I9999
sg16
F0.887
sg17
Nsg18
Nsg19
Nsg20
F0.8734999999999999
sg21
F0.729
sg22
Nsg23
Nsg24
F0.00158
ssg25
I01
sg26
I01
sba(iSong
Song
p2859
(dp2860
g3
(dp2861
g5
F0.31
sg6
VLove Like This
p2862
sg8
F0.548876
sg9
F0.571
sg10
S'raggae'
p2863
sg12
F0.0479
sg13
VWild Belle
p2864
sg15
I9999
sg16
F0.928
sg17
Nsg18
Nsg19
Nsg20
F0.8692
sg21
F0.943
sg22
Nsg23
Nsg24
F0.00189
ssg25
I01
sg26
I01
sba(iSong
Song
p2865
(dp2866
g3
(dp2867
g5
F0.00176
sg6
VHold On
p2868
sg8
F0.500036
sg9
F0.517
sg10
S'raggae'
p2869
sg12
F0.114
sg13
VSolid Vibes
p2870
sg15
I9999
sg16
F0.819
sg17
Nsg18
Nsg19
Nsg20
F0.9039
sg21
F0.933
sg22
Nsg23
Nsg24
F0.287
ssg25
I01
sg26
I01
sba(iSong
Song
p2871
(dp2872
g3
(dp2873
g5
F0.0717
sg6
VRebel
p2874
sg8
F0.35206
sg9
F0.874
sg10
S'raggae'
p2875
sg12
F0.163
sg13
VCongo Natty
p2876
sg15
I9999
sg16
F0.729
sg17
Nsg18
Nsg19
Nsg20
F0.8879333333333332
sg21
F0.559
sg22
Nsg23
Nsg24
I0
ssg25
I01
sg26
I01
sba(iSong
Song
p2877
(dp2878
g3
(dp2879
g5
F0.00398
sg6
VBarfly
p2880
sg8
F0.459904
sg9
F0.498
sg10
S'raggae'
p2881
sg12
F0.0333
sg13
VDrunk Souls
p2882
sg15
I9999
sg16
F0.752
sg17
Nsg18
Nsg19
Nsg20
F0.8572666666666666
sg21
F0.652
sg22
Nsg23
Nsg24
F0.00871
ssg25
I01
sg26
I01
sba(iSong
Song
p2883
(dp2884
g3
(dp2885
g5
F0.17
sg6
VRebel In Zion
p2886
sg8
F0.592132
sg9
F0.678
sg10
S'raggae'
p2887
sg12
F0.0281
sg13
VNyabinghia
p2888
sg15
I9999
sg16
F0.492
sg17
Nsg18
Nsg19
Nsg20
F0.9299833333333333
sg21
F0.743
sg22
Nsg23
Nsg24
F1.27e-06
ssg25
I01
sg26
I01
sba(iSong
Song
p2889
(dp2890
g3
(dp2891
g5
F0.056
sg6
VFly Rasta
p2892
sg8
F0.451816
sg9
F0.687
sg10
S'raggae'
p2893
sg12
F0.154
sg13
VZiggy Marley
p2894
sg15
I9999
sg16
F0.806
sg17
Nsg18
Nsg19
Nsg20
F0.9009833333333332
sg21
F0.831
sg22
Nsg23
Nsg24
I0
ssg25
I01
sg26
I01
sba(iSong
Song
p2895
(dp2896
g3
(dp2897
g5
F0.0207
sg6
VTop of the World
p2898
sg8
F0.375944
sg9
F0.738
sg10
S'raggae'
p2899
sg12
F0.0305
sg13
VSlightly Stoopid
p2900
sg15
I9999
sg16
F0.673
sg17
Nsg18
Nsg19
Nsg20
F0.8963166666666667
sg21
F0.681
sg22
Nsg23
Nsg24
F0.00509
ssg25
I01
sg26
I01
sba(iSong
Song
p2901
(dp2902
g3
(dp2903
g5
F0.134
sg6
VSunset
p2904
sg8
F0.368092
sg9
F0.879
sg10
S'raggae'
p2905
sg12
F0.0405
sg13
VFarruko
p2906
sg15
I9999
sg16
F0.698
sg17
Nsg18
Nsg19
Nsg20
F0.9496333333333333
sg21
F0.597
sg22
Nsg23
Nsg24
I0
ssg25
I01
sg26
I01
sba(iSong
Song
p2907
(dp2908
g3
(dp2909
g5
F0.0422
sg6
VMy League
p2910
sg8
F0.412204
sg9
F0.88
sg10
S'raggae'
p2911
sg12
F0.0657
sg13
VMavado
p2912
sg15
I9999
sg16
F0.76
sg17
Nsg18
Nsg19
Nsg20
F0.9584333333333334
sg21
F0.538
sg22
Nsg23
Nsg24
I0
ssg25
I01
sg26
I01
sba(iSong
Song
p2913
(dp2914
g3
(dp2915
g5
F0.193
sg6
VPon Di Cocky - Raw
p2916
sg8
F0.403944
sg9
F0.794
sg10
S'raggae'
p2917
sg12
F0.0894
sg13
VAidonia
p2918
sg15
I9999
sg16
F0.818
sg17
Nsg18
Nsg19
Nsg20
F0.8757166666666667
sg21
F0.569
sg22
Nsg23
Nsg24
I0
ssg25
I01
sg26
I01
sba(iSong
Song
p2919
(dp2920
g3
(dp2921
g5
F0.29
sg6
VVaivn
p2922
sg8
F0.423848
sg9
F0.894
sg10
S'raggae'
p2923
sg12
F0.0413
sg13
VDaddy Yankee
p2924
sg15
I9999
sg16
F0.768
sg17
Nsg18
Nsg19
Nsg20
F0.9572666666666667
sg21
F0.745
sg22
Nsg23
Nsg24
F0.0125
ssg25
I01
sg26
I01
sba(iSong
Song
p2925
(dp2926
g3
(dp2927
g5
F0.276
sg6
VReady (feat. Kris Berry)
p2928
sg8
F0.35384
sg9
F0.73
sg10
S'raggae'
p2929
sg12
F0.0354
sg13
VBeans & Fatback
p2930
sg15
I9999
sg16
F0.662
sg17
Nsg18
Nsg19
Nsg20
F0.9042833333333333
sg21
F0.711
sg22
Nsg23
Nsg24
F4.32e-05
ssg25
I01
sg26
I01
sba(iSong
Song
p2931
(dp2932
g3
(dp2933
g5
F0.279
sg6
VLa Pelea
p2934
sg8
F0.375788
sg9
F0.81
sg10
S'raggae'
p2935
sg12
F0.214
sg13
VJ-King y Maximan
p2936
sg15
I9999
sg16
F0.76
sg17
Nsg18
Nsg19
Nsg20
F0.9348666666666666
sg21
F0.881
sg22
Nsg23
Nsg24
F2.95e-06
ssg25
I01
sg26
I01
sba(iSong
Song
p2937
(dp2938
g3
(dp2939
g5
F0.0445
sg6
VNobody Has To Know (feat. Ty Dolla $ign) - Major Lazer and KickRaux Remix
p2940
sg8
F0.412
sg9
F0.789
sg10
S'raggae'
p2941
sg12
F0.188
sg13
VKranium
p2942
sg15
I9999
sg16
F0.681
sg17
Nsg18
Nsg19
Nsg20
F0.9055666666666667
sg21
F0.506
sg22
Nsg23
Nsg24
I0
ssg25
I01
sg26
I01
sba(iSong
Song
p2943
(dp2944
g3
(dp2945
g5
F0.13
sg6
VEncantadora
p2946
sg8
F0.679716
sg9
F0.851
sg10
S'raggae'
p2947
sg12
F0.0495
sg13
VYandel
p2948
sg15
I9999
sg16
F0.657
sg17
Nsg18
Nsg19
Nsg20
F0.91265
sg21
F0.9
sg22
Nsg23
Nsg24
I0
ssg25
I01
sg26
I01
sba(iSong
Song
p2949
(dp2950
g3
(dp2951
g5
F0.323
sg6
VChain
p2952
sg8
F0.440012
sg9
F0.846
sg10
S'raggae'
p2953
sg12
F0.171
sg13
VVybz Kartel
p2954
sg15
I9999
sg16
F0.836
sg17
Nsg18
Nsg19
Nsg20
F0.9259666666666667
sg21
F0.411
sg22
Nsg23
Nsg24
I0
ssg25
I01
sg26
I01
sba(iSong
Song
p2955
(dp2956
g3
(dp2957
g5
F0.703
sg6
VNuh Like Da Style Yah
p2958
sg8
F0.47781599999999996
sg9
F0.616
sg10
S'raggae'
p2959
sg12
F0.152
sg13
VBugle
p2960
sg15
I9999
sg16
F0.655
sg17
Nsg18
Nsg19
Nsg20
F0.9229
sg21
F0.724
sg22
Nsg23
Nsg24
F0.00153
ssg25
I01
sg26
I01
sba(iSong
Song
p2961
(dp2962
g3
(dp2963
g5
F0.224
sg6
VRebel Hifi
p2964
sg8
F0.5515399999999999
sg9
F0.748
sg10
S'raggae'
p2965
sg12
F0.188
sg13
VLotek
p2966
sg15
I9999
sg16
F0.764
sg17
Nsg18
Nsg19
Nsg20
F0.8953666666666666
sg21
F0.827
sg22
Nsg23
Nsg24
F0.0944
ssg25
I01
sg26
I01
sba(iSong
Song
p2967
(dp2968
g3
(dp2969
g5
F0.0125
sg6
VCan't Be My Lover - Curtis Lynch Remix
p2970
sg8
F0.319884
sg9
F0.651
sg10
S'raggae'
p2971
sg12
F0.238
sg13
VJohn Legend
p2972
sg15
I9999
sg16
F0.622
sg17
Nsg18
Nsg19
Nsg20
F0.9356500000000001
sg21
F0.743
sg22
Nsg23
Nsg24
I0
ssg25
I01
sg26
I01
sba(iSong
Song
p2973
(dp2974
g3
(dp2975
g5
F0.0765
sg6
VGood Enuff - Cash Flow Dub
p2976
sg8
F0.320056
sg9
F0.837
sg10
S'raggae'
p2977
sg12
F0.283
sg13
VMajor Lazer
p2978
sg15
I9999
sg16
F0.612
sg17
Nsg18
Nsg19
Nsg20
F0.9113666666666667
sg21
F0.442
sg22
Nsg23
Nsg24
I0
ssg25
I01
sg26
I01
sba(iSong
Song
p2979
(dp2980
g3
(dp2981
g5
F0.0107
sg6
VTorn Apart
p2982
sg8
F0.55214
sg9
F0.868
sg10
S'raggae'
p2983
sg12
F0.122
sg13
VSnoop Lion
p2984
sg15
I9999
sg16
F0.777
sg17
Nsg18
Nsg19
Nsg20
I0
sg21
F0.764
sg22
Nsg23
Nsg24
F4.84e-06
ssg25
I01
sg26
I01
sba(iSong
Song
p2985
(dp2986
g3
(dp2987
g5
F0.214
sg6
VCheerleader
p2988
sg8
F0.4
sg9
F0.738
sg10
S'raggae'
p2989
sg12
F0.0309
sg13
VOMI
p2990
sg15
I9999
sg16
F0.864
sg17
Nsg18
Nsg19
Nsg20
F0.9279499999999999
sg21
F0.938
sg22
Nsg23
Nsg24
I0
ssg25
I01
sg26
I01
sba(iSong
Song
p2991
(dp2992
g3
(dp2993
g5
F0.0147
sg6
VBedroom Bully
p2994
sg8
F0.399044
sg9
F0.713
sg10
S'raggae'
p2995
sg12
F0.26
sg13
VBusy Signal
p2996
sg15
I9999
sg16
F0.597
sg17
Nsg18
Nsg19
Nsg20
F0.8924
sg21
F0.374
sg22
Nsg23
Nsg24
I0
ssg25
I01
sg26
I01
sba(iSong
Song
p2997
(dp2998
g3
(dp2999
g5
F0.000679
sg6
VDon't Play No Game That I Can't Win (featuring Santigold)
p3000
sg8
F0.411872
sg9
F0.876
sg10
S'raggae'
p3001
sg12
F0.0344
sg13
VSantigold
p3002
sg15
I9999
sg16
F0.654
sg17
Nsg18
Nsg19
Nsg20
F0.9467333333333333
sg21
F0.44
sg22
Nsg23
Nsg24
F0.125
ssg25
I01
sg26
I01
sba(iSong
Song
p3003
(dp3004
g3
(dp3005
g5
F0.0213
sg6
VMama She Don't Like You - feat. I.Eye
p3006
sg8
F0.392012
sg9
F0.748
sg10
S'raggae'
p3007
sg12
F0.0311
sg13
VAlborosie
p3008
sg15
I9999
sg16
F0.784
sg17
Nsg18
Nsg19
Nsg20
F0.9390166666666667
sg21
F0.754
sg22
Nsg23
Nsg24
I0
ssg25
I01
sg26
I01
sba(iSong
Song
p3009
(dp3010
g3
(dp3011
g5
F0.00346
sg6
VLean On (feat. M & DJ Snake)
p3012
sg8
F0.39202800000000004
sg9
F0.809
sg10
S'raggae'
p3013
sg12
F0.0625
sg13
VMajor Lazer
p3014
sg15
I9999
sg16
F0.723
sg17
Nsg18
Nsg19
Nsg20
F0.94865
sg21
F0.274
sg22
Nsg23
Nsg24
F0.00123
ssg25
I01
sg26
I01
sba(iSong
Song
p3015
(dp3016
g3
(dp3017
g5
F0.0405
sg6
VTurn Me On
p3018
sg8
F0.425116
sg9
F0.682
sg10
S'raggae'
p3019
sg12
F0.0361
sg13
VKevin Lyttle
p3020
sg15
I9999
sg16
F0.677
sg17
Nsg18
Nsg19
Nsg20
F0.8853500000000001
sg21
F0.875
sg22
Nsg23
Nsg24
I0
ssg25
I01
sg26
I01
sba(iSong
Song
p3021
(dp3022
g3
(dp3023
g5
F0.147
sg6
VSmall Axe
p3024
sg8
F0.39184800000000003
sg9
F0.461
sg10
S'raggae'
p3025
sg12
F0.266
sg13
VBob Marley & The Wailers
p3026
sg15
I9999
sg16
F0.905
sg17
Nsg18
Nsg19
Nsg20
F0.8157666666666666
sg21
F0.851
sg22
Nsg23
Nsg24
F0.00671
ssg25
I01
sg26
I01
sba(iSong
Song
p3027
(dp3028
g3
(dp3029
g5
F0.304
sg6
VAnimal - Mark Ronson Remix
p3030
sg8
F0.467224
sg9
F0.808
sg10
S'raggae'
p3031
sg12
F0.0414
sg13
VMiike Snow
p3032
sg15
I9999
sg16
F0.833
sg17
Nsg18
Nsg19
Nsg20
F0.9196000000000001
sg21
F0.961
sg22
Nsg23
Nsg24
F0.00918
ssg25
I01
sg26
I01
sba(iSong
Song
p3033
(dp3034
g3
(dp3035
g5
F0.104
sg6
VBonafide Love (feat. Wayne Wonder)
p3036
sg8
F0.33794799999999997
sg9
F0.711
sg10
S'raggae'
p3037
sg12
F0.0783
sg13
VBuju Banton
p3038
sg15
I9999
sg16
F0.685
sg17
Nsg18
Nsg19
Nsg20
F0.8989999999999999
sg21
F0.682
sg22
Nsg23
Nsg24
I0
ssg25
I01
sg26
I01
sba(iSong
Song
p3039
(dp3040
g3
(dp3041
g5
F0.0392
sg6
VGolddigger
p3042
sg8
F0.395944
sg9
F0.696
sg10
S'raggae'
p3043
sg12
F0.055
sg13
VRandy Valentine
p3044
sg15
I9999
sg16
F0.705
sg17
Nsg18
Nsg19
Nsg20
F0.9063833333333334
sg21
F0.923
sg22
Nsg23
Nsg24
I0
ssg25
I01
sg26
I01
sba(iSong
Song
p3045
(dp3046
g3
(dp3047
g5
F0.0208
sg6
VWelcome To Jamrock
p3048
sg8
F0.306892
sg9
F0.661
sg10
S'raggae'
p3049
sg12
F0.333
sg13
VDamian Marley
p3050
sg15
I9999
sg16
F0.835
sg17
Nsg18
Nsg19
Nsg20
F0.8916333333333333
sg21
F0.753
sg22
Nsg23
Nsg24
I0
ssg25
I01
sg26
I01
sba(iSong
Song
p3051
(dp3052
g3
(dp3053
g5
F0.138
sg6
VMoney a Di Right Ting
p3054
sg8
F0.41900400000000004
sg9
F0.833
sg10
S'raggae'
p3055
sg12
F0.331
sg13
VMavado
p3056
sg15
I9999
sg16
F0.636
sg17
Nsg18
Nsg19
Nsg20
F0.9801
sg21
F0.435
sg22
Nsg23
Nsg24
I0
ssg25
I01
sg26
I01
sba(iSong
Song
p3057
(dp3058
g3
(dp3059
g5
F0.271
sg6
VWhine Inna Di Dance
p3060
sg8
F0.3197
sg9
F0.906
sg10
S'raggae'
p3061
sg12
F0.278
sg13
VSpice
p3062
sg15
I9999
sg16
F0.641
sg17
Nsg18
Nsg19
Nsg20
F0.9707666666666667
sg21
F0.813
sg22
Nsg23
Nsg24
I0
ssg25
I01
sg26
I01
sba(iSong
Song
p3063
(dp3064
g3
(dp3065
g5
F0.336
sg6
VKing Of The Dancehall
p3066
sg8
F0.41942
sg9
F0.827
sg10
S'raggae'
p3067
sg12
F0.111
sg13
VBeenie Man
p3068
sg15
I9999
sg16
F0.858
sg17
Nsg18
Nsg19
Nsg20
F0.9053166666666667
sg21
F0.859
sg22
Nsg23
Nsg24
I0
ssg25
I01
sg26
I01
sba(iSong
Song
p3069
(dp3070
g3
(dp3071
g5
F0.0732
sg6
VPlaying Games With My Heart
p3072
sg8
F0.391932
sg9
F0.36
sg10
S'raggae'
p3073
sg12
F0.0565
sg13
VChristopher Martin
p3074
sg15
I9999
sg16
F0.942
sg17
Nsg18
Nsg19
Nsg20
F0.8573666666666667
sg21
F0.774
sg22
Nsg23
Nsg24
I0
ssg25
I01
sg26
I01
sba(iSong
Song
p3075
(dp3076
g3
(dp3077
g5
F0.124
sg6
VWho Knows
p3078
sg8
F0.32404
sg9
F0.683
sg10
S'raggae'
p3079
sg12
F0.0867
sg13
VProtoje
p3080
sg15
I9999
sg16
F0.681
sg17
Nsg18
Nsg19
Nsg20
F0.8984
sg21
F0.795
sg22
Nsg23
Nsg24
I0
ssg25
I01
sg26
I01
sba(iSong
Song
p3081
(dp3082
g3
(dp3083
g5
F0.14
sg6
VGet Free (feat. Amber of Dirty Projectors)
p3084
sg8
F0.703812
sg9
F0.538
sg10
S'raggae'
p3085
sg12
F0.0783
sg13
VMajor Lazer
p3086
sg15
I9999
sg16
F0.525
sg17
Nsg18
Nsg19
Nsg20
F0.8439
sg21
F0.802
sg22
Nsg23
Nsg24
F0.117
ssg25
I01
sg26
I01
sba(iSong
Song
p3087
(dp3088
g3
(dp3089
g5
F0.0753
sg6
VYou're Wondering Now
p3090
sg8
F0.535668
sg9
F0.573
sg10
S'raggae'
p3091
sg12
F0.165
sg13
VAmy Winehouse
p3092
sg15
I9999
sg16
F0.787
sg17
Nsg18
Nsg19
Nsg20
F0.9207333333333333
sg21
F0.902
sg22
Nsg23
Nsg24
I0
ssg25
I01
sg26
I01
sba(iSong
Song
p3093
(dp3094
g3
(dp3095
g5
F0.0355
sg6
VSoulfly
p3096
sg8
F0.419928
sg9
F0.822
sg10
S'raggae'
p3097
sg12
F0.0341
sg13
VDreadsquad
p3098
sg15
I9999
sg16
F0.882
sg17
Nsg18
Nsg19
Nsg20
F0.9673499999999999
sg21
F0.938
sg22
Nsg23
Nsg24
F0.000636
ssg25
I01
sg26
I01
sba(iSong
Song
p3099
(dp3100
g3
(dp3101
g5
F0.0613
sg6
VUk Warriors
p3102
sg8
F0.347808
sg9
F0.737
sg10
S'raggae'
p3103
sg12
F0.301
sg13
VRoots Manuva
p3104
sg15
I9999
sg16
F0.821
sg17
Nsg18
Nsg19
Nsg20
F0.9359333333333333
sg21
F0.581
sg22
Nsg23
Nsg24
F0.000297
ssg25
I01
sg26
I01
sba(iSong
Song
p3105
(dp3106
g3
(dp3107
g5
F0.214
sg6
VU Wait
p3108
sg8
F0.362236
sg9
F0.693
sg10
S'raggae'
p3109
sg12
F0.309
sg13
VPostmen
p3110
sg15
I9999
sg16
F0.654
sg17
Nsg18
Nsg19
Nsg20
F0.8925166666666667
sg21
F0.659
sg22
Nsg23
Nsg24
I0
ssg25
I01
sg26
I01
sba(iSong
Song
p3111
(dp3112
g3
(dp3113
g5
F0.623
sg6
VI Wanna Be the One
p3114
sg8
F0.682732
sg9
F0.657
sg10
S'raggae'
p3115
sg12
F0.31
sg13
VKonshens
p3116
sg15
I9999
sg16
F0.569
sg17
Nsg18
Nsg19
Nsg20
F0.8861333333333333
sg21
F0.78
sg22
Nsg23
Nsg24
F1.94e-06
ssg25
I01
sg26
I01
sba(iSong
Song
p3117
(dp3118
g3
(dp3119
g5
F0.0479
sg6
VMan Down
p3120
sg8
F0.622932
sg9
F0.896
sg10
S'raggae'
p3121
sg12
F0.189
sg13
VRihanna
p3122
sg15
I9999
sg16
F0.457
sg17
Nsg18
Nsg19
Nsg20
F0.9339166666666666
sg21
F0.598
sg22
Nsg23
Nsg24
I0
ssg25
I01
sg26
I01
sba(iSong
Song
p3123
(dp3124
g3
(dp3125
g5
F0.0057
sg6
VMy Music (feat. Buggsy)
p3126
sg8
F0.323144
sg9
F0.733
sg10
S'raggae'
p3127
sg12
F0.322
sg13
VDubkasm
p3128
sg15
I9999
sg16
F0.7
sg17
Nsg18
Nsg19
Nsg20
F0.8993833333333333
sg21
F0.733
sg22
Nsg23
Nsg24
I0
ssg25
I01
sg26
I01
sba(iSong
Song
p3129
(dp3130
g3
(dp3131
g5
F0.0375
sg6
VWorldwide Traveller - Dreadsquad Remix
p3132
sg8
F0.310076
sg9
F0.732
sg10
S'raggae'
p3133
sg12
F0.203
sg13
VChopstick Dubplate
p3134
sg15
I9999
sg16
F0.777
sg17
Nsg18
Nsg19
Nsg20
F0.9158166666666666
sg21
F0.843
sg22
Nsg23
Nsg24
I0
ssg25
I01
sg26
I01
sba(iSong
Song
p3135
(dp3136
g3
(dp3137
g5
F0.149
sg6
VGingerbread Man
p3138
sg8
F0.360036
sg9
F0.716
sg10
S'raggae'
p3139
sg12
F0.0755
sg13
VFlower Fairy
p3140
sg15
I9999
sg16
F0.811
sg17
Nsg18
Nsg19
Nsg20
F0.9036333333333334
sg21
F0.688
sg22
Nsg23
Nsg24
F0.00268
ssg25
I01
sg26
I01
sba(iSong
Song
p3141
(dp3142
g3
(dp3143
g5
F0.168
sg6
VChampagne Body
p3144
sg8
F0.391752
sg9
F0.758
sg10
S'raggae'
p3145
sg12
F0.204
sg13
VGeneral Levy
p3146
sg15
I9999
sg16
F0.876
sg17
Nsg18
Nsg19
Nsg20
F0.8098833333333334
sg21
F0.792
sg22
Nsg23
Nsg24
I0
ssg25
I01
sg26
I01
sba(iSong
Song
p3147
(dp3148
g3
(dp3149
g5
F0.00208
sg6
VIt Don't Make Any Difference To Me (feat. Wyclef Jean) - Supa Dupes Remix
p3150
sg8
F0.354016
sg9
F0.664
sg10
S'raggae'
p3151
sg12
F0.0388
sg13
VKevin Michael
p3152
sg15
I9999
sg16
F0.726
sg17
Nsg18
Nsg19
Nsg20
F0.8893166666666666
sg21
F0.387
sg22
Nsg23
Nsg24
I0
ssg25
I01
sg26
I01
sba(iSong
Song
p3153
(dp3154
g3
(dp3155
g5
F0.108
sg6
VTiger Balm
p3156
sg8
F0.31969200000000003
sg9
F0.509
sg10
S'raggae'
p3157
sg12
F0.106
sg13
VHollie Cook
p3158
sg15
I9999
sg16
F0.694
sg17
Nsg18
Nsg19
Nsg20
F0.8360833333333333
sg21
F0.694
sg22
Nsg23
Nsg24
F0.00708
ssg25
I01
sg26
I01
sba(iSong
Song
p3159
(dp3160
g3
(dp3161
g5
F0.221
sg6
VTu Pun Pun
p3162
sg8
F0.717108
sg9
F0.551
sg10
S'raggae'
p3163
sg12
F0.227
sg13
VEl General
p3164
sg15
I9999
sg16
F0.79
sg17
Nsg18
Nsg19
Nsg20
F0.8721
sg21
F0.787
sg22
Nsg23
Nsg24
I0
ssg25
I01
sg26
I01
sba(iSong
Song
p3165
(dp3166
g3
(dp3167
g5
F0.154
sg6
VCome Over (feat. Stylo G)
p3168
sg8
F0.39987599999999995
sg9
F0.782
sg10
S'raggae'
p3169
sg12
F0.0564
sg13
VClean Bandit
p3170
sg15
I9999
sg16
F0.809
sg17
Nsg18
Nsg19
Nsg20
F0.90625
sg21
F0.669
sg22
Nsg23
Nsg24
F5.64e-06
ssg25
I01
sg26
I01
sba(iSong
Song
p3171
(dp3172
g3
(dp3173
g5
F0.0336
sg6
VKingston Town
p3174
sg8
F0.296028
sg9
F0.819
sg10
S'raggae'
p3175
sg12
F0.0611
sg13
VAlborosie
p3176
sg15
I9999
sg16
F0.779
sg17
Nsg18
Nsg19
Nsg20
F0.9417500000000001
sg21
F0.554
sg22
Nsg23
Nsg24
I0
ssg25
I01
sg26
I01
sba(iSong
Song
p3177
(dp3178
g3
(dp3179
g5
F0.162
sg6
VOne Dice
p3180
sg8
F0.30198
sg9
F0.636
sg10
S'raggae'
p3181
sg12
F0.141
sg13
VLutan Fyah
p3182
sg15
I9999
sg16
F0.614
sg17
Nsg18
Nsg19
Nsg20
F0.91155
sg21
F0.682
sg22
Nsg23
Nsg24
I0
ssg25
I01
sg26
I01
sba(iSong
Song
p3183
(dp3184
g3
(dp3185
g5
F0.178
sg6
VBorro Cassette
p3186
sg8
F0.703784
sg9
F0.662
sg10
S'raggae'
p3187
sg12
F0.153
sg13
VMaluma
p3188
sg15
I9999
sg16
F0.726
sg17
Nsg18
Nsg19
Nsg20
F0.8959499999999999
sg21
F0.729
sg22
Nsg23
Nsg24
I0
ssg25
I01
sg26
I01
sba(iSong
Song
p3189
(dp3190
g3
(dp3191
g5
F0.0035
sg6
VSpecial Delivery
p3192
sg8
F0.384112
sg9
F0.694
sg10
S'raggae'
p3193
sg12
F0.0389
sg13
VVybz Kartel
p3194
sg15
I9999
sg16
F0.808
sg17
Nsg18
Nsg19
Nsg20
F0.9055
sg21
F0.332
sg22
Nsg23
Nsg24
F0.000833
ssg25
I01
sg26
I01
sba(iSong
Song
p3195
(dp3196
g3
(dp3197
g5
F0.0586
sg6
VWhine Up - English Version
p3198
sg8
F0.5000439999999999
sg9
F0.554
sg10
S'raggae'
p3199
sg12
F0.0542
sg13
VKat Deluna
p3200
sg15
I9999
sg16
F0.821
sg17
Nsg18
Nsg19
Nsg20
F0.9001166666666667
sg21
F0.472
sg22
Nsg23
Nsg24
F2.81e-06
ssg25
I01
sg26
I01
sba(iSong
Song
p3201
(dp3202
g3
(dp3203
g5
F0.0217
sg6
VBlood Money
p3204
sg8
F0.597472
sg9
F0.793
sg10
S'raggae'
p3205
sg12
F0.107
sg13
V10 Ft. Ganja Plant
p3206
sg15
I9999
sg16
F0.789
sg17
Nsg18
Nsg19
Nsg20
F0.8895166666666667
sg21
F0.743
sg22
Nsg23
Nsg24
F0.826
ssg25
I01
sg26
I01
sba(iSong
Song
p3207
(dp3208
g3
(dp3209
g5
F0.0476
sg6
VKunta Kinte Dub
p3210
sg8
F0.5625760000000001
sg9
F0.467
sg10
S'raggae'
p3211
sg12
F0.0708
sg13
VThe Revolutionaries
p3212
sg15
I9999
sg16
F0.799
sg17
Nsg18
Nsg19
Nsg20
F0.8076500000000001
sg21
F0.533
sg22
Nsg23
Nsg24
F0.816
ssg25
I01
sg26
I01
sba(iSong
Song
p3213
(dp3214
g3
(dp3215
g5
F0.00438
sg6
VOne Step Forward
p3216
sg8
F0.526764
sg9
F0.349
sg10
S'raggae'
p3217
sg12
F0.119
sg13
VMax Romeo
p3218
sg15
I9999
sg16
F0.929
sg17
Nsg18
Nsg19
Nsg20
F0.7731333333333333
sg21
F0.788
sg22
Nsg23
Nsg24
F1.2e-06
ssg25
I01
sg26
I01
sba(iSong
Song
p3219
(dp3220
g3
(dp3221
g5
F0.788
sg6
VKing in My Empire (with Cornel Campbell)
p3222
sg8
F0.504028
sg9
F0.241
sg10
S'raggae'
p3223
sg12
F0.0601
sg13
VRhythm & Sound
p3224
sg15
I9999
sg16
F0.882
sg17
Nsg18
Nsg19
Nsg20
F0.7225333333333334
sg21
F0.718
sg22
Nsg23
Nsg24
F0.432
ssg25
I01
sg26
I01
sba(iSong
Song
p3225
(dp3226
g3
(dp3227
g5
F0.188
sg6
VScreaming Target
p3228
sg8
F0.276464
sg9
F0.483
sg10
S'raggae'
p3229
sg12
F0.428
sg13
VBig Youth
p3230
sg15
I9999
sg16
F0.834
sg17
Nsg18
Nsg19
Nsg20
F0.8527666666666666
sg21
F0.292
sg22
Nsg23
Nsg24
F0.00803
ssg25
I01
sg26
I01
sba(iSong
Song
p3231
(dp3232
g3
(dp3233
g5
F0.0312
sg6
VSo Jah Sey Dub
p3234
sg8
F0.307068
sg9
F0.42
sg10
S'raggae'
p3235
sg12
F0.101
sg13
VThe Aggrovators
p3236
sg15
I9999
sg16
F0.734
sg17
Nsg18
Nsg19
Nsg20
F0.8145666666666667
sg21
F0.573
sg22
Nsg23
Nsg24
F0.0569
ssg25
I01
sg26
I01
sba(iSong
Song
p3237
(dp3238
g3
(dp3239
g5
F0.047
sg6
VDaphne
p3240
sg8
F0.320604
sg9
F0.374
sg10
S'raggae'
p3241
sg12
F0.073
sg13
VSly & Robbie
p3242
sg15
I9999
sg16
F0.61
sg17
Nsg18
Nsg19
Nsg20
F0.8434333333333334
sg21
F0.735
sg22
Nsg23
Nsg24
F0.873
ssg25
I01
sg26
I01
sba(iSong
Song
p3243
(dp3244
g3
(dp3245
g5
F0.0555
sg6
VWhite Birds (Instrumental Version)
p3246
sg8
F0.476244
sg9
F0.422
sg10
S'raggae'
p3247
sg12
F0.106
sg13
VBlundetto
p3248
sg15
I9999
sg16
F0.919
sg17
Nsg18
Nsg19
Nsg20
F0.8474666666666667
sg21
F0.468
sg22
Nsg23
Nsg24
F0.855
ssg25
I01
sg26
I01
sba(iSong
Song
p3249
(dp3250
g3
(dp3251
g5
F0.00222
sg6
VBurru Saturday
p3252
sg8
F0.525624
sg9
F0.621
sg10
S'raggae'
p3253
sg12
F0.0402
sg13
VSly
p3254
sg15
I9999
sg16
F0.796
sg17
Nsg18
Nsg19
Nsg20
F0.7572333333333333
sg21
F0.397
sg22
Nsg23
Nsg24
F0.84
ssg25
I01
sg26
I01
sba(iSong
Song
p3255
(dp3256
g3
(dp3257
g5
F0.0391
sg6
VEnjoyment Dub
p3258
sg8
F0.565352
sg9
F0.524
sg10
S'raggae'
p3259
sg12
F0.0469
sg13
VScientist
p3260
sg15
I9999
sg16
F0.78
sg17
Nsg18
Nsg19
Nsg20
F0.8844
sg21
F0.738
sg22
Nsg23
Nsg24
F0.95
ssg25
I01
sg26
I01
sba(iSong
Song
p3261
(dp3262
g3
(dp3263
g5
F0.0156
sg6
VJah In Dub
p3264
sg8
F0.597804
sg9
F0.274
sg10
S'raggae'
p3265
sg12
F0.076
sg13
VSly & Robbie
p3266
sg15
I9999
sg16
F0.779
sg17
Nsg18
Nsg19
Nsg20
F0.72255
sg21
F0.883
sg22
Nsg23
Nsg24
F0.881
ssg25
I01
sg26
I01
sba(iSong
Song
p3267
(dp3268
g3
(dp3269
g5
F0.0549
sg6
VBlack Roses
p3270
sg8
F0.33917200000000003
sg9
F0.516
sg10
S'raggae'
p3271
sg12
F0.0815
sg13
VBarrington Levy
p3272
sg15
I9999
sg16
F0.801
sg17
Nsg18
Nsg19
Nsg20
F0.8829666666666667
sg21
F0.877
sg22
Nsg23
Nsg24
F0.0083
ssg25
I01
sg26
I01
sba(iSong
Song
p3273
(dp3274
g3
(dp3275
g5
F0.00313
sg6
VFeast Of The Passover
p3276
sg8
F0.57162
sg9
F0.49
sg10
S'raggae'
p3277
sg12
F0.0977
sg13
VThe Congos
p3278
sg15
I9999
sg16
F0.747
sg17
Nsg18
Nsg19
Nsg20
F0.8565833333333333
sg21
F0.737
sg22
Nsg23
Nsg24
F0.562
ssg25
I01
sg26
I01
sba(iSong
Song
p3279
(dp3280
g3
(dp3281
g5
F0.00283
sg6
VLand of Version
p3282
sg8
F0.487744
sg9
F0.27
sg10
S'raggae'
p3283
sg12
F0.0541
sg13
VJudah Eskender Tafari
p3284
sg15
I9999
sg16
F0.886
sg17
Nsg18
Nsg19
Nsg20
F0.7321166666666666
sg21
F0.819
sg22
Nsg23
Nsg24
F0.129
ssg25
I01
sg26
I01
sba(iSong
Song
p3285
(dp3286
g3
(dp3287
g5
F0.0248
sg6
VChanting Down The Wicked
p3288
sg8
F0.5402359999999999
sg9
F0.372
sg10
S'raggae'
p3289
sg12
F0.0763
sg13
VThe Robotiks
p3290
sg15
I9999
sg16
F0.756
sg17
Nsg18
Nsg19
Nsg20
F0.76025
sg21
F0.479
sg22
Nsg23
Nsg24
F0.88
ssg25
I01
sg26
I01
sba(iSong
Song
p3291
(dp3292
g3
(dp3293
g5
F0.237
sg6
VZionyouth
p3294
sg8
F0.566284
sg9
F0.519
sg10
S'raggae'
p3295
sg12
F0.0719
sg13
VVin Gordon
p3296
sg15
I9999
sg16
F0.907
sg17
Nsg18
Nsg19
Nsg20
F0.7596666666666666
sg21
F0.982
sg22
Nsg23
Nsg24
F0.884
ssg25
I01
sg26
I01
sba(iSong
Song
p3297
(dp3298
g3
(dp3299
g5
F0.00258
sg6
VThe Bomber
p3300
sg8
F0.64532
sg9
F0.566
sg10
S'raggae'
p3301
sg12
F0.135
sg13
VSly
p3302
sg15
I9999
sg16
F0.663
sg17
Nsg18
Nsg19
Nsg20
F0.7723
sg21
F0.826
sg22
Nsg23
Nsg24
F0.887
ssg25
I01
sg26
I01
sba(iSong
Song
p3303
(dp3304
g3
(dp3305
g5
F0.00867
sg6
VSailors Dub
p3306
sg8
F0.57762
sg9
F0.485
sg10
S'raggae'
p3307
sg12
F0.0636
sg13
VThe Crazy Mad Professor
p3308
sg15
I9999
sg16
F0.718
sg17
Nsg18
Nsg19
Nsg20
F0.8689
sg21
F0.721
sg22
Nsg23
Nsg24
F0.903
ssg25
I01
sg26
I01
sba(iSong
Song
p3309
(dp3310
g3
(dp3311
g5
F0.0259
sg6
VJail House Dub
p3312
sg8
F0.537664
sg9
F0.485
sg10
S'raggae'
p3313
sg12
F0.0637
sg13
VMad Professor
p3314
sg15
I9999
sg16
F0.857
sg17
Nsg18
Nsg19
Nsg20
F0.8207166666666666
sg21
F0.501
sg22
Nsg23
Nsg24
F0.712
ssg25
I01
sg26
I01
sba(iSong
Song
p3315
(dp3316
g3
(dp3317
g5
F0.207
sg6
VOriginal Dub
p3318
sg8
F0.579228
sg9
F0.836
sg10
S'raggae'
p3319
sg12
F0.0903
sg13
VKing Tubby
p3320
sg15
I9999
sg16
F0.718
sg17
Nsg18
Nsg19
Nsg20
F0.8765666666666667
sg21
F0.878
sg22
Nsg23
Nsg24
F0.837
ssg25
I01
sg26
I01
sba(iSong
Song
p3321
(dp3322
g3
(dp3323
g5
F0.044
sg6
VJah Do That
p3324
sg8
F0.297688
sg9
F0.585
sg10
S'raggae'
p3325
sg12
F0.122
sg13
VPrince Far I
p3326
sg15
I9999
sg16
F0.75
sg17
Nsg18
Nsg19
Nsg20
F0.8400666666666666
sg21
F0.843
sg22
Nsg23
Nsg24
F0.0121
ssg25
I01
sg26
I01
sba(iSong
Song
p3327
(dp3328
g3
(dp3329
g5
F0.0238
sg6
VFisher Man Dub
p3330
sg8
F0.33507600000000004
sg9
F0.584
sg10
S'raggae'
p3331
sg12
F0.0486
sg13
VLee "Scratch" Perry
p3332
sg15
I9999
sg16
F0.73
sg17
Nsg18
Nsg19
Nsg20
F0.8759833333333333
sg21
F0.414
sg22
Nsg23
Nsg24
F0.0798
ssg25
I01
sg26
I01
sba(iSong
Song
p3333
(dp3334
g3
(dp3335
g5
F0.0041
sg6
VPeace & Love - Feat. Linval Thompson
p3336
sg8
F0.519824
sg9
F0.832
sg10
S'raggae'
p3337
sg12
F0.0403
sg13
VDubmatix
p3338
sg15
I9999
sg16
F0.69
sg17
Nsg18
Nsg19
Nsg20
F0.8772333333333333
sg21
F0.777
sg22
Nsg23
Nsg24
F0.000205
ssg25
I01
sg26
I01
sba(iSong
Song
p3339
(dp3340
g3
(dp3341
g5
F0.104
sg6
VRoots and Culture
p3342
sg8
F0.576156
sg9
F0.584
sg10
S'raggae'
p3343
sg12
F0.0825
sg13
VMikey Dread
p3344
sg15
I9999
sg16
F0.73
sg17
Nsg18
Nsg19
Nsg20
F0.8490333333333333
sg21
F0.817
sg22
Nsg23
Nsg24
F0.0406
ssg25
I01
sg26
I01
sba(iSong
Song
p3345
(dp3346
g3
(dp3347
g5
F0.00676
sg6
VSatta Dub
p3348
sg8
F0.52428
sg9
F0.367
sg10
S'raggae'
p3349
sg12
F0.0418
sg13
VJah Shaka & Mad Professor
p3350
sg15
I9999
sg16
F0.67
sg17
Nsg18
Nsg19
Nsg20
F0.73405
sg21
F0.313
sg22
Nsg23
Nsg24
F0.828
ssg25
I01
sg26
I01
sba(iSong
Song
p3351
(dp3352
g3
(dp3353
g5
F0.194
sg6
VLoser
p3354
sg8
F0.350928
sg9
F0.641
sg10
S'raggae'
p3355
sg12
F0.0481
sg13
VDerrick Harriott
p3356
sg15
I9999
sg16
F0.725
sg17
Nsg18
Nsg19
Nsg20
F0.89775
sg21
F0.786
sg22
Nsg23
Nsg24
F0.00498
ssg25
I01
sg26
I01
sba(iSong
Song
p3357
(dp3358
g3
(dp3359
g5
F0.00573
sg6
VWaiting In The Park Dub
p3360
sg8
F0.524792
sg9
F0.59
sg10
S'raggae'
p3361
sg12
F0.0388
sg13
VThe Revolutionaries
p3362
sg15
I9999
sg16
F0.695
sg17
Nsg18
Nsg19
Nsg20
F0.8166333333333333
sg21
F0.827
sg22
Nsg23
Nsg24
F0.806
ssg25
I01
sg26
I01
sba(iSong
Song
p3363
(dp3364
g3
(dp3365
g5
F0.00157
sg6
VJah Shall Reign Dub
p3366
sg8
F0.512872
sg9
F0.352
sg10
S'raggae'
p3367
sg12
F0.0526
sg13
VJah Shaka
p3368
sg15
I9999
sg16
F0.804
sg17
Nsg18
Nsg19
Nsg20
F0.7320666666666666
sg21
F0.886
sg22
Nsg23
Nsg24
F0.911
ssg25
I01
sg26
I01
sba(iSong
Song
p3369
(dp3370
g3
(dp3371
g5
F0.332
sg6
VDrum Song Dub
p3372
sg8
F0.44812
sg9
F0.538
sg10
S'raggae'
p3373
sg12
F0.0642
sg13
VScientist
p3374
sg15
I9999
sg16
F0.562
sg17
Nsg18
Nsg19
Nsg20
F0.7552833333333333
sg21
F0.823
sg22
Nsg23
Nsg24
F0.82
ssg25
I01
sg26
I01
sba(iSong
Song
p3375
(dp3376
g3
(dp3377
g5
F0.342
sg6
VJudge Dread
p3378
sg8
F0.351912
sg9
F0.563
sg10
S'raggae'
p3379
sg12
F0.216
sg13
VPrince Buster
p3380
sg15
I9999
sg16
F0.795
sg17
Nsg18
Nsg19
Nsg20
F0.8668666666666667
sg21
F0.896
sg22
Nsg23
Nsg24
F0.0224
ssg25
I01
sg26
I01
sba(iSong
Song
p3381
(dp3382
g3
(dp3383
g5
F0.0135
sg6
VDub Glory
p3384
sg8
F0.32004000000000005
sg9
F0.254
sg10
S'raggae'
p3385
sg12
F0.152
sg13
VSly & Robbie
p3386
sg15
I9999
sg16
F0.774
sg17
Nsg18
Nsg19
Nsg20
F0.7419166666666667
sg21
F0.773
sg22
Nsg23
Nsg24
F0.818
ssg25
I01
sg26
I01
sba(iSong
Song
p3387
(dp3388
g3
(dp3389
g5
F9.74e-05
sg6
VRude Boy
p3390
sg8
F0.601028
sg9
F0.427
sg10
S'raggae'
p3391
sg12
F0.106
sg13
VPrince Jammy
p3392
sg15
I9999
sg16
F0.717
sg17
Nsg18
Nsg19
Nsg20
F0.8145166666666667
sg21
F0.773
sg22
Nsg23
Nsg24
F0.922
ssg25
I01
sg26
I01
sba(iSong
Song
p3393
(dp3394
g3
(dp3395
g5
F0.0299
sg6
VConquering Lion
p3396
sg8
F0.528848
sg9
F0.453
sg10
S'raggae'
p3397
sg12
F0.0734
sg13
VYabby You
p3398
sg15
I9999
sg16
F0.854
sg17
Nsg18
Nsg19
Nsg20
F0.7863333333333333
sg21
F0.816
sg22
Nsg23
Nsg24
I0
ssg25
I01
sg26
I01
sba(iSong
Song
p3399
(dp3400
g3
(dp3401
g5
F0.141
sg6
VSponji Reggae
p3402
sg8
F0.29820800000000003
sg9
F0.656
sg10
S'raggae'
p3403
sg12
F0.0552
sg13
VBlack Uhuru
p3404
sg15
I9999
sg16
F0.796
sg17
Nsg18
Nsg19
Nsg20
F0.8758166666666667
sg21
F0.895
sg22
Nsg23
Nsg24
F0.0063
ssg25
I01
sg26
I01
sba(iSong
Song
p3405
(dp3406
g3
(dp3407
g5
F0.00931
sg6
VBad Days Dub
p3408
sg8
F0.52734
sg9
F0.546
sg10
S'raggae'
p3409
sg12
F0.0408
sg13
VScientist
p3410
sg15
I9999
sg16
F0.632
sg17
Nsg18
Nsg19
Nsg20
F0.7714333333333333
sg21
F0.727
sg22
Nsg23
Nsg24
F0.509
ssg25
I01
sg26
I01
sba(iSong
Song
p3411
(dp3412
g3
(dp3413
g5
F0.0202
sg6
VThrow Away Your Gun - 1991 Digital Remaster
p3414
sg8
F0.588296
sg9
F0.542
sg10
S'raggae'
p3415
sg12
F0.256
sg13
VPrince Far I
p3416
sg15
I9999
sg16
F0.787
sg17
Nsg18
Nsg19
Nsg20
F0.8442500000000001
sg21
F0.777
sg22
Nsg23
Nsg24
F0.0303
ssg25
I01
sg26
I01
sba(iSong
Song
p3417
(dp3418
g3
(dp3419
g5
F0.0621
sg6
VZion Gate Dub
p3420
sg8
F0.59092
sg9
F0.539
sg10
S'raggae'
p3421
sg12
F0.0936
sg13
VKing Tubby
p3422
sg15
I9999
sg16
F0.736
sg17
Nsg18
Nsg19
Nsg20
F0.8613999999999999
sg21
F0.765
sg22
Nsg23
Nsg24
F0.0312
ssg25
I01
sg26
I01
sba(iSong
Song
p3423
(dp3424
g3
(dp3425
g5
F0.0408
sg6
VWhite Rice Dub
p3426
sg8
F0.5493279999999999
sg9
F0.662
sg10
S'raggae'
p3427
sg12
F0.112
sg13
VJah Thomas
p3428
sg15
I9999
sg16
F0.761
sg17
Nsg18
Nsg19
Nsg20
F0.8282833333333334
sg21
F0.458
sg22
Nsg23
Nsg24
F0.858
ssg25
I01
sg26
I01
sba(iSong
Song
p3429
(dp3430
g3
(dp3431
g5
F0.0413
sg6
VDub Of Excellence
p3432
sg8
F0.5703400000000001
sg9
F0.545
sg10
S'raggae'
p3433
sg12
F0.105
sg13
VMad Professor and Scientist
p3434
sg15
I9999
sg16
F0.711
sg17
Nsg18
Nsg19
Nsg20
F0.81825
sg21
F0.771
sg22
Nsg23
Nsg24
F0.939
ssg25
I01
sg26
I01
sba(iSong
Song
p3435
(dp3436
g3
(dp3437
g5
F0.0928
sg6
VRocker's Almighty Dub
p3438
sg8
F0.5895
sg9
F0.4
sg10
S'raggae'
p3439
sg12
F0.128
sg13
VThe Aggrovators
p3440
sg15
I9999
sg16
F0.716
sg17
Nsg18
Nsg19
Nsg20
F0.7746833333333334
sg21
F0.772
sg22
Nsg23
Nsg24
F0.0362
ssg25
I01
sg26
I01
sba(iSong
Song
p3441
(dp3442
g3
(dp3443
g5
F0.121
sg6
VNatty Dread A Weh She Want
p3444
sg8
F0.566408
sg9
F0.494
sg10
S'raggae'
p3445
sg12
F0.136
sg13
VHorace Andy
p3446
sg15
I9999
sg16
F0.845
sg17
Nsg18
Nsg19
Nsg20
F0.82455
sg21
F0.951
sg22
Nsg23
Nsg24
I0
ssg25
I01
sg26
I01
sba(iSong
Song
p3447
(dp3448
g3
(dp3449
g5
F0.0403
sg6
VDub On Fire
p3450
sg8
F0.32389999999999997
sg9
F0.747
sg10
S'raggae'
p3451
sg12
F0.0503
sg13
VKing Tubby
p3452
sg15
I9999
sg16
F0.576
sg17
Nsg18
Nsg19
Nsg20
F0.8926
sg21
F0.293
sg22
Nsg23
Nsg24
F0.852
ssg25
I01
sg26
I01
sba(iSong
Song
p3453
(dp3454
g3
(dp3455
g5
F0.000448
sg6
VNegus Negast, Pt. 2
p3456
sg8
F0.5321319999999999
sg9
F0.313
sg10
S'raggae'
p3457
sg12
F0.108
sg13
VRootz Dimensionz
p3458
sg15
I9999
sg16
F0.787
sg17
Nsg18
Nsg19
Nsg20
F0.6404666666666666
sg21
F0.594
sg22
Nsg23
Nsg24
F0.918
ssg25
I01
sg26
I01
sba(iSong
Song
p3459
(dp3460
g3
(dp3461
g5
F0.128
sg6
VJah Jah The Conqueror
p3462
sg8
F0.615116
sg9
F0.483
sg10
S'raggae'
p3463
sg12
F0.323
sg13
VLinval Thompson
p3464
sg15
I9999
sg16
F0.776
sg17
Nsg18
Nsg19
Nsg20
F0.8042666666666667
sg21
F0.863
sg22
Nsg23
Nsg24
F0.000837
ssg25
I01
sg26
I01
sba(iSong
Song
p3465
(dp3466
g3
(dp3467
g5
F0.352
sg6
VDream Land
p3468
sg8
F0.291368
sg9
F0.485
sg10
S'raggae'
p3469
sg12
F0.321
sg13
VBunny Wailer
p3470
sg15
I9999
sg16
F0.786
sg17
Nsg18
Nsg19
Nsg20
F0.7831333333333333
sg21
F0.96
sg22
Nsg23
Nsg24
F0.00467
ssg25
I01
sg26
I01
sba(iSong
Song
p3471
(dp3472
g3
(dp3473
g5
F0.00942
sg6
VHit The Road Jack
p3474
sg8
F0.566856
sg9
F0.721
sg10
S'raggae'
p3475
sg12
F0.11
sg13
VBig Youth
p3476
sg15
I9999
sg16
F0.596
sg17
Nsg18
Nsg19
Nsg20
F0.8346
sg21
F0.794
sg22
Nsg23
Nsg24
F0.000201
ssg25
I01
sg26
I01
sba(iSong
Song
p3477
(dp3478
g3
(dp3479
g5
F0.253
sg6
VUnder Mi Sensi
p3480
sg8
F0.606084
sg9
F0.627
sg10
S'raggae'
p3481
sg12
F0.1
sg13
VBarrington Levy
p3482
sg15
I9999
sg16
F0.768
sg17
Nsg18
Nsg19
Nsg20
F0.8910666666666667
sg21
F0.521
sg22
Nsg23
Nsg24
F5.19e-06
ssg25
I01
sg26
I01
sba(iSong
Song
p3483
(dp3484
g3
(dp3485
g5
F1.7e-05
sg6
VDub To Africa
p3486
sg8
F0.5192599999999999
sg9
F0.439
sg10
S'raggae'
p3487
sg12
F0.0448
sg13
VPrince Far I
p3488
sg15
I9999
sg16
F0.755
sg17
Nsg18
Nsg19
Nsg20
F0.8120666666666667
sg21
F0.499
sg22
Nsg23
Nsg24
F0.699
ssg25
I01
sg26
I01
sba(iSong
Song
p3489
(dp3490
g3
(dp3491
g5
F0.00264
sg6
VJamaican Proverb
p3492
sg8
F0.633968
sg9
F0.6
sg10
S'raggae'
p3493
sg12
F0.138
sg13
VDub Syndicate
p3494
sg15
I9999
sg16
F0.809
sg17
Nsg18
Nsg19
Nsg20
F0.8675166666666667
sg21
F0.657
sg22
Nsg23
Nsg24
F4.63e-06
ssg25
I01
sg26
I01
sba(iSong
Song
p3495
(dp3496
g3
(dp3497
g5
F0.137
sg6
VSlow Motion Dub
p3498
sg8
F0.67752
sg9
F0.583
sg10
S'raggae'
p3499
sg12
F0.112
sg13
VKing Jammy
p3500
sg15
I9999
sg16
F0.637
sg17
Nsg18
Nsg19
Nsg20
F0.76215
sg21
F0.316
sg22
Nsg23
Nsg24
F0.853
ssg25
I01
sg26
I01
sba.